{
 "array_types" :
 [
  {
   "alignment" : 1,
   "linker_set_key" : "_ZTIA0_c",
   "name" : "char [0]",
   "referenced_type" : "_ZTIc",
   "self_type" : "_ZTIA0_c",
   "source_file" : "/bionic/libc/system_properties/include/system_properties/prop_info.h"
  },
  {
   "alignment" : 1,
   "linker_set_key" : "_ZTIA1024_c",
   "name" : "char [1024]",
   "referenced_type" : "_ZTIc",
   "self_type" : "_ZTIA1024_c",
   "size" : 1024,
   "source_file" : "/bionic/libc/system_properties/include/system_properties/system_properties.h"
  },
  {
   "alignment" : 1,
   "linker_set_key" : "_ZTIA1025_c",
   "name" : "char [1025]",
   "referenced_type" : "_ZTIc",
   "self_type" : "_ZTIA1025_c",
   "size" : 1025,
   "source_file" : "/bionic/libc/include/arpa/nameser.h"
  },
  {
   "alignment" : 4,
   "linker_set_key" : "_ZTIA10_i",
   "name" : "int [10]",
   "referenced_type" : "_ZTIi",
   "self_type" : "_ZTIA10_i",
   "size" : 40,
   "source_file" : "/bionic/libc/include/bits/pthread_types.h"
  },
  {
   "alignment" : 1,
   "linker_set_key" : "_ZTIA120_c",
   "name" : "char [120]",
   "referenced_type" : "_ZTIc",
   "self_type" : "_ZTIA120_c",
   "size" : 120,
   "source_file" : "/bionic/libc/include/sys/ucontext.h"
  },
  {
   "alignment" : 4,
   "linker_set_key" : "_ZTIA128_m",
   "name" : "unsigned long [128]",
   "referenced_type" : "_ZTIm",
   "self_type" : "_ZTIA128_m",
   "size" : 512,
   "source_file" : "/bionic/libc/include/sys/ucontext.h"
  },
  {
   "alignment" : 1,
   "linker_set_key" : "_ZTIA14_c",
   "name" : "char [14]",
   "referenced_type" : "_ZTIc",
   "self_type" : "_ZTIA14_c",
   "size" : 14,
   "source_file" : "/bionic/libc/include/sys/socket.h"
  },
  {
   "alignment" : 1,
   "linker_set_key" : "_ZTIA16_c",
   "name" : "char [16]",
   "referenced_type" : "_ZTIc",
   "self_type" : "_ZTIA16_c",
   "size" : 16,
   "source_file" : "/bionic/libc/include/utmp.h"
  },
  {
   "alignment" : 4,
   "linker_set_key" : "_ZTIA18_m",
   "name" : "unsigned long [18]",
   "referenced_type" : "_ZTIm",
   "self_type" : "_ZTIA18_m",
   "size" : 72,
   "source_file" : "/bionic/libc/include/sys/user.h"
  },
  {
   "alignment" : 4,
   "linker_set_key" : "_ZTIA1_7in_addr",
   "name" : "in_addr [1]",
   "referenced_type" : "_ZTI7in_addr",
   "self_type" : "_ZTIA1_7in_addr",
   "size" : 4,
   "source_file" : "/bionic/libc/include/bits/ip_msfilter.h"
  },
  {
   "alignment" : 4,
   "linker_set_key" : "_ZTIA1_i",
   "name" : "int [1]",
   "referenced_type" : "_ZTIi",
   "self_type" : "_ZTIA1_i",
   "size" : 4,
   "source_file" : "/bionic/libc/include/bits/pthread_types.h"
  },
  {
   "alignment" : 4,
   "linker_set_key" : "_ZTIA1_m",
   "name" : "unsigned long [1]",
   "referenced_type" : "_ZTIm",
   "self_type" : "_ZTIA1_m",
   "size" : 4,
   "source_file" : "/bionic/libc/include/sched.h"
  },
  {
   "alignment" : 1,
   "linker_set_key" : "_ZTIA20_c",
   "name" : "char [20]",
   "referenced_type" : "_ZTIc",
   "self_type" : "_ZTIA20_c",
   "size" : 20,
   "source_file" : "/bionic/libc/include/utmp.h"
  },
  {
   "alignment" : 1,
   "linker_set_key" : "_ZTIA256_c",
   "name" : "char [256]",
   "referenced_type" : "_ZTIc",
   "self_type" : "_ZTIA256_c",
   "size" : 256,
   "source_file" : "/bionic/libc/include/dirent.h"
  },
  {
   "alignment" : 1,
   "linker_set_key" : "_ZTIA256_h",
   "name" : "unsigned char [256]",
   "referenced_type" : "_ZTIh",
   "self_type" : "_ZTIA256_h",
   "size" : 256,
   "source_file" : "/bionic/libc/include/arpa/nameser.h"
  },
  {
   "alignment" : 4,
   "linker_set_key" : "_ZTIA25_PKh",
   "name" : "const unsigned char *[25]",
   "referenced_type" : "_ZTIPKh",
   "self_type" : "_ZTIA25_PKh",
   "size" : 100,
   "source_file" : "/bionic/libc/include/arpa/nameser.h"
  },
  {
   "alignment" : 4,
   "linker_set_key" : "_ZTIA28_j",
   "name" : "unsigned int [28]",
   "referenced_type" : "_ZTIj",
   "self_type" : "_ZTIA28_j",
   "size" : 112,
   "source_file" : "/bionic/libc/system_properties/include/system_properties/prop_area.h"
  },
  {
   "alignment" : 4,
   "linker_set_key" : "_ZTIA2_i",
   "name" : "int [2]",
   "referenced_type" : "_ZTIi",
   "self_type" : "_ZTIA2_i",
   "size" : 8,
   "source_file" : "/bionic/libc/include/bits/pthread_types.h"
  },
  {
   "alignment" : 4,
   "linker_set_key" : "_ZTIA2_m",
   "name" : "unsigned long [2]",
   "referenced_type" : "_ZTIm",
   "self_type" : "_ZTIA2_m",
   "size" : 8,
   "source_file" : "/bionic/libc/include/bits/signal_types.h"
  },
  {
   "alignment" : 1,
   "linker_set_key" : "_ZTIA32_c",
   "name" : "char [32]",
   "referenced_type" : "_ZTIc",
   "self_type" : "_ZTIA32_c",
   "size" : 32,
   "source_file" : "/bionic/libc/include/sys/user.h"
  },
  {
   "alignment" : 4,
   "linker_set_key" : "_ZTIA32_m",
   "name" : "unsigned long [32]",
   "referenced_type" : "_ZTIm",
   "self_type" : "_ZTIA32_m",
   "size" : 128,
   "source_file" : "/bionic/libc/include/sys/select.h"
  },
  {
   "alignment" : 8,
   "linker_set_key" : "_ZTIA32_y",
   "name" : "unsigned long long [32]",
   "referenced_type" : "_ZTIy",
   "self_type" : "_ZTIA32_y",
   "size" : 256,
   "source_file" : "/bionic/libc/include/sys/user.h"
  },
  {
   "alignment" : 4,
   "linker_set_key" : "_ZTIA4_PKh",
   "name" : "const unsigned char *[4]",
   "referenced_type" : "_ZTIPKh",
   "self_type" : "_ZTIA4_PKh",
   "size" : 16,
   "source_file" : "/bionic/libc/include/arpa/nameser.h"
  },
  {
   "alignment" : 1,
   "linker_set_key" : "_ZTIA4_h",
   "name" : "unsigned char [4]",
   "referenced_type" : "_ZTIh",
   "self_type" : "_ZTIA4_h",
   "size" : 4,
   "source_file" : "/bionic/libc/include/sys/stat.h"
  },
  {
   "alignment" : 4,
   "linker_set_key" : "_ZTIA4_i",
   "name" : "int [4]",
   "referenced_type" : "_ZTIi",
   "self_type" : "_ZTIA4_i",
   "size" : 16,
   "source_file" : "/bionic/libc/include/utmp.h"
  },
  {
   "alignment" : 2,
   "linker_set_key" : "_ZTIA4_t",
   "name" : "unsigned short [4]",
   "referenced_type" : "_ZTIt",
   "self_type" : "_ZTIA4_t",
   "size" : 8,
   "source_file" : "/bionic/libc/include/arpa/nameser.h"
  },
  {
   "alignment" : 1,
   "linker_set_key" : "_ZTIA512_h",
   "name" : "unsigned char [512]",
   "referenced_type" : "_ZTIh",
   "self_type" : "_ZTIA512_h",
   "size" : 512,
   "source_file" : "/bionic/libc/include/arpa/nameser.h"
  },
  {
   "alignment" : 1,
   "linker_set_key" : "_ZTIA56_c",
   "name" : "char [56]",
   "referenced_type" : "_ZTIc",
   "self_type" : "_ZTIA56_c",
   "size" : 56,
   "source_file" : "/bionic/libc/system_properties/include/system_properties/prop_info.h"
  },
  {
   "alignment" : 4,
   "linker_set_key" : "_ZTIA65_PKc",
   "name" : "const char *[65]",
   "referenced_type" : "_ZTIPKc",
   "self_type" : "_ZTIA65_PKc",
   "size" : 260,
   "source_file" : "/bionic/libc/include/signal.h"
  },
  {
   "alignment" : 4,
   "linker_set_key" : "_ZTIA8_6fp_reg",
   "name" : "fp_reg [8]",
   "referenced_type" : "_ZTI6fp_reg",
   "self_type" : "_ZTIA8_6fp_reg",
   "size" : 96,
   "source_file" : "/bionic/libc/include/sys/user.h"
  },
  {
   "alignment" : 4,
   "linker_set_key" : "_ZTIA8_N11user_fpregs6fp_regE",
   "name" : "user_fpregs::fp_reg [8]",
   "referenced_type" : "_ZTIN11user_fpregs6fp_regE",
   "self_type" : "_ZTIA8_N11user_fpregs6fp_regE",
   "size" : 96,
   "source_file" : "/bionic/libc/include/sys/user.h"
  },
  {
   "alignment" : 1,
   "linker_set_key" : "_ZTIA8_c",
   "name" : "char [8]",
   "referenced_type" : "_ZTIc",
   "self_type" : "_ZTIA8_c",
   "size" : 8,
   "source_file" : "/bionic/libc/include/utmp.h"
  },
  {
   "alignment" : 1,
   "linker_set_key" : "_ZTIA8_h",
   "name" : "unsigned char [8]",
   "referenced_type" : "_ZTIh",
   "self_type" : "_ZTIA8_h",
   "size" : 8,
   "source_file" : "/bionic/libc/include/sys/user.h"
  },
  {
   "alignment" : 4,
   "linker_set_key" : "_ZTIA8_i",
   "name" : "int [8]",
   "referenced_type" : "_ZTIi",
   "self_type" : "_ZTIA8_i",
   "size" : 32,
   "source_file" : "/bionic/libc/include/bits/pthread_types.h"
  },
  {
   "alignment" : 1,
   "linker_set_key" : "_ZTIA92_c",
   "name" : "char [92]",
   "referenced_type" : "_ZTIc",
   "self_type" : "_ZTIA92_c",
   "size" : 92,
   "source_file" : "/bionic/libc/system_properties/include/system_properties/prop_info.h"
  },
  {
   "linker_set_key" : "_ZTIA_Pc",
   "name" : "char *[]",
   "referenced_type" : "_ZTIPc",
   "self_type" : "_ZTIA_Pc",
   "source_file" : "/bionic/libc/include/time.h"
  }
 ],
 "builtin_types" :
 [
  {
   "alignment" : 1,
   "is_integral" : true,
   "linker_set_key" : "_ZTIa",
   "name" : "signed char",
   "referenced_type" : "_ZTIa",
   "self_type" : "_ZTIa",
   "size" : 1
  },
  {
   "alignment" : 1,
   "is_integral" : true,
   "is_unsigned" : true,
   "linker_set_key" : "_ZTIb",
   "name" : "_Bool",
   "referenced_type" : "_ZTIb",
   "self_type" : "_ZTIb",
   "size" : 1
  },
  {
   "alignment" : 1,
   "is_integral" : true,
   "is_unsigned" : true,
   "linker_set_key" : "_ZTIc",
   "name" : "char",
   "referenced_type" : "_ZTIc",
   "self_type" : "_ZTIc",
   "size" : 1
  },
  {
   "alignment" : 8,
   "linker_set_key" : "_ZTId",
   "name" : "double",
   "referenced_type" : "_ZTId",
   "self_type" : "_ZTId",
   "size" : 8
  },
  {
   "alignment" : 8,
   "linker_set_key" : "_ZTIe",
   "name" : "long double",
   "referenced_type" : "_ZTIe",
   "self_type" : "_ZTIe",
   "size" : 8
  },
  {
   "alignment" : 4,
   "linker_set_key" : "_ZTIf",
   "name" : "float",
   "referenced_type" : "_ZTIf",
   "self_type" : "_ZTIf",
   "size" : 4
  },
  {
   "alignment" : 1,
   "is_integral" : true,
   "is_unsigned" : true,
   "linker_set_key" : "_ZTIh",
   "name" : "unsigned char",
   "referenced_type" : "_ZTIh",
   "self_type" : "_ZTIh",
   "size" : 1
  },
  {
   "alignment" : 4,
   "is_integral" : true,
   "linker_set_key" : "_ZTIi",
   "name" : "int",
   "referenced_type" : "_ZTIi",
   "self_type" : "_ZTIi",
   "size" : 4
  },
  {
   "alignment" : 4,
   "is_integral" : true,
   "is_unsigned" : true,
   "linker_set_key" : "_ZTIj",
   "name" : "unsigned int",
   "referenced_type" : "_ZTIj",
   "self_type" : "_ZTIj",
   "size" : 4
  },
  {
   "alignment" : 4,
   "is_integral" : true,
   "linker_set_key" : "_ZTIl",
   "name" : "long",
   "referenced_type" : "_ZTIl",
   "self_type" : "_ZTIl",
   "size" : 4
  },
  {
   "alignment" : 4,
   "is_integral" : true,
   "is_unsigned" : true,
   "linker_set_key" : "_ZTIm",
   "name" : "unsigned long",
   "referenced_type" : "_ZTIm",
   "self_type" : "_ZTIm",
   "size" : 4
  },
  {
   "alignment" : 2,
   "is_integral" : true,
   "linker_set_key" : "_ZTIs",
   "name" : "short",
   "referenced_type" : "_ZTIs",
   "self_type" : "_ZTIs",
   "size" : 2
  },
  {
   "alignment" : 2,
   "is_integral" : true,
   "is_unsigned" : true,
   "linker_set_key" : "_ZTIt",
   "name" : "unsigned short",
   "referenced_type" : "_ZTIt",
   "self_type" : "_ZTIt",
   "size" : 2
  },
  {
   "linker_set_key" : "_ZTIv",
   "name" : "void",
   "referenced_type" : "_ZTIv",
   "self_type" : "_ZTIv"
  },
  {
   "alignment" : 4,
   "is_integral" : true,
   "is_unsigned" : true,
   "linker_set_key" : "_ZTIw",
   "name" : "wchar_t",
   "referenced_type" : "_ZTIw",
   "self_type" : "_ZTIw",
   "size" : 4
  },
  {
   "alignment" : 8,
   "is_integral" : true,
   "linker_set_key" : "_ZTIx",
   "name" : "long long",
   "referenced_type" : "_ZTIx",
   "self_type" : "_ZTIx",
   "size" : 8
  },
  {
   "alignment" : 8,
   "is_integral" : true,
   "is_unsigned" : true,
   "linker_set_key" : "_ZTIy",
   "name" : "unsigned long long",
   "referenced_type" : "_ZTIy",
   "self_type" : "_ZTIy",
   "size" : 8
  }
 ],
 "elf_functions" :
 [
  {
   "name" : "SHA1Final"
  },
  {
   "name" : "SHA1Init"
  },
  {
   "name" : "SHA1Transform"
  },
  {
   "name" : "SHA1Update"
  },
  {
   "name" : "_Exit"
  },
  {
   "name" : "_Unwind_Backtrace"
  },
  {
   "name" : "_Unwind_Complete"
  },
  {
   "name" : "_Unwind_DeleteException"
  },
  {
   "name" : "_Unwind_FindEnclosingFunction"
  },
  {
   "name" : "_Unwind_Find_FDE"
  },
  {
   "name" : "_Unwind_GetCFA"
  },
  {
   "name" : "_Unwind_GetDataRelBase"
  },
  {
   "name" : "_Unwind_GetGR"
  },
  {
   "name" : "_Unwind_GetIP"
  },
  {
   "name" : "_Unwind_GetIPInfo"
  },
  {
   "name" : "_Unwind_GetLanguageSpecificData"
  },
  {
   "name" : "_Unwind_GetRegionStart"
  },
  {
   "name" : "_Unwind_GetTextRelBase"
  },
  {
   "name" : "_Unwind_RaiseException"
  },
  {
   "name" : "_Unwind_Resume"
  },
  {
   "name" : "_Unwind_Resume_or_Rethrow"
  },
  {
   "name" : "_Unwind_SetGR"
  },
  {
   "name" : "_Unwind_SetIP"
  },
  {
   "name" : "_Unwind_VRS_Get"
  },
  {
   "name" : "_Unwind_VRS_Pop"
  },
  {
   "name" : "_Unwind_VRS_Set"
  },
  {
   "name" : "__FD_CLR_chk"
  },
  {
   "name" : "__FD_ISSET_chk"
  },
  {
   "name" : "__FD_SET_chk"
  },
  {
   "name" : "__accept4"
  },
  {
   "name" : "__adddf3"
  },
  {
   "name" : "__addsf3"
  },
  {
   "binding" : "weak",
   "name" : "__aeabi_atexit"
  },
  {
   "name" : "__aeabi_cdcmpeq"
  },
  {
   "name" : "__aeabi_cdcmple"
  },
  {
   "name" : "__aeabi_cdrcmple"
  },
  {
   "name" : "__aeabi_cfcmpeq"
  },
  {
   "name" : "__aeabi_cfcmple"
  },
  {
   "name" : "__aeabi_cfrcmple"
  },
  {
   "name" : "__aeabi_d2f"
  },
  {
   "name" : "__aeabi_d2iz"
  },
  {
   "name" : "__aeabi_d2uiz"
  },
  {
   "name" : "__aeabi_dadd"
  },
  {
   "name" : "__aeabi_dcmpeq"
  },
  {
   "name" : "__aeabi_dcmpge"
  },
  {
   "name" : "__aeabi_dcmpgt"
  },
  {
   "name" : "__aeabi_dcmple"
  },
  {
   "name" : "__aeabi_dcmplt"
  },
  {
   "name" : "__aeabi_dcmpun"
  },
  {
   "name" : "__aeabi_ddiv"
  },
  {
   "name" : "__aeabi_dmul"
  },
  {
   "name" : "__aeabi_drsub"
  },
  {
   "name" : "__aeabi_dsub"
  },
  {
   "name" : "__aeabi_f2d"
  },
  {
   "name" : "__aeabi_f2iz"
  },
  {
   "name" : "__aeabi_f2uiz"
  },
  {
   "name" : "__aeabi_fadd"
  },
  {
   "name" : "__aeabi_fcmpeq"
  },
  {
   "name" : "__aeabi_fcmpge"
  },
  {
   "name" : "__aeabi_fcmpgt"
  },
  {
   "name" : "__aeabi_fcmple"
  },
  {
   "name" : "__aeabi_fcmplt"
  },
  {
   "name" : "__aeabi_fcmpun"
  },
  {
   "name" : "__aeabi_fdiv"
  },
  {
   "name" : "__aeabi_fmul"
  },
  {
   "name" : "__aeabi_frsub"
  },
  {
   "name" : "__aeabi_fsub"
  },
  {
   "name" : "__aeabi_i2d"
  },
  {
   "name" : "__aeabi_i2f"
  },
  {
   "name" : "__aeabi_idiv"
  },
  {
   "name" : "__aeabi_idivmod"
  },
  {
   "name" : "__aeabi_l2d"
  },
  {
   "name" : "__aeabi_l2f"
  },
  {
   "name" : "__aeabi_lasr"
  },
  {
   "name" : "__aeabi_ldivmod"
  },
  {
   "name" : "__aeabi_llsl"
  },
  {
   "name" : "__aeabi_llsr"
  },
  {
   "name" : "__aeabi_lmul"
  },
  {
   "binding" : "weak",
   "name" : "__aeabi_memclr"
  },
  {
   "binding" : "weak",
   "name" : "__aeabi_memclr4"
  },
  {
   "binding" : "weak",
   "name" : "__aeabi_memclr8"
  },
  {
   "binding" : "weak",
   "name" : "__aeabi_memcpy"
  },
  {
   "binding" : "weak",
   "name" : "__aeabi_memcpy4"
  },
  {
   "binding" : "weak",
   "name" : "__aeabi_memcpy8"
  },
  {
   "binding" : "weak",
   "name" : "__aeabi_memmove"
  },
  {
   "binding" : "weak",
   "name" : "__aeabi_memmove4"
  },
  {
   "binding" : "weak",
   "name" : "__aeabi_memmove8"
  },
  {
   "binding" : "weak",
   "name" : "__aeabi_memset"
  },
  {
   "binding" : "weak",
   "name" : "__aeabi_memset4"
  },
  {
   "binding" : "weak",
   "name" : "__aeabi_memset8"
  },
  {
   "name" : "__aeabi_read_tp"
  },
  {
   "name" : "__aeabi_ui2d"
  },
  {
   "name" : "__aeabi_ui2f"
  },
  {
   "name" : "__aeabi_uidiv"
  },
  {
   "name" : "__aeabi_uidivmod"
  },
  {
   "name" : "__aeabi_ul2d"
  },
  {
   "name" : "__aeabi_ul2f"
  },
  {
   "name" : "__aeabi_uldivmod"
  },
  {
   "name" : "__aeabi_unwind_cpp_pr0"
  },
  {
   "name" : "__aeabi_unwind_cpp_pr1"
  },
  {
   "name" : "__aeabi_unwind_cpp_pr2"
  },
  {
   "name" : "__arm_fadvise64_64"
  },
  {
   "name" : "__ashldi3"
  },
  {
   "name" : "__ashrdi3"
  },
  {
   "name" : "__assert"
  },
  {
   "name" : "__assert2"
  },
  {
   "name" : "__atomic_cmpxchg"
  },
  {
   "name" : "__atomic_dec"
  },
  {
   "name" : "__atomic_inc"
  },
  {
   "name" : "__atomic_swap"
  },
  {
   "name" : "__b64_ntop"
  },
  {
   "name" : "__b64_pton"
  },
  {
   "name" : "__cmpdf2"
  },
  {
   "name" : "__cmpsf2"
  },
  {
   "name" : "__cmsg_nxthdr"
  },
  {
   "name" : "__connect"
  },
  {
   "name" : "__ctype_get_mb_cur_max"
  },
  {
   "name" : "__cxa_atexit"
  },
  {
   "name" : "__cxa_finalize"
  },
  {
   "binding" : "weak",
   "name" : "__cxa_thread_atexit_impl"
  },
  {
   "name" : "__divdf3"
  },
  {
   "name" : "__divdi3"
  },
  {
   "name" : "__divsf3"
  },
  {
   "name" : "__divsi3"
  },
  {
   "name" : "__dn_comp"
  },
  {
   "name" : "__dn_count_labels"
  },
  {
   "name" : "__dn_skipname"
  },
  {
   "name" : "__epoll_pwait"
  },
  {
   "name" : "__eqdf2"
  },
  {
   "name" : "__eqsf2"
  },
  {
   "name" : "__errno"
  },
  {
   "name" : "__exit"
  },
  {
   "name" : "__extendsfdf2"
  },
  {
   "name" : "__fbufsize"
  },
  {
   "name" : "__fcntl64"
  },
  {
   "name" : "__fgets_chk"
  },
  {
   "name" : "__fixdfsi"
  },
  {
   "name" : "__fixsfsi"
  },
  {
   "name" : "__fixunsdfsi"
  },
  {
   "name" : "__fixunssfsi"
  },
  {
   "name" : "__flbf"
  },
  {
   "name" : "__floatdidf"
  },
  {
   "name" : "__floatdisf"
  },
  {
   "name" : "__floatsidf"
  },
  {
   "name" : "__floatsisf"
  },
  {
   "name" : "__floatundidf"
  },
  {
   "name" : "__floatundisf"
  },
  {
   "name" : "__floatunsidf"
  },
  {
   "name" : "__floatunsisf"
  },
  {
   "name" : "__fp_nquery"
  },
  {
   "name" : "__fp_query"
  },
  {
   "name" : "__fpclassify"
  },
  {
   "name" : "__fpclassifyd"
  },
  {
   "name" : "__fpclassifyf"
  },
  {
   "name" : "__fpclassifyl"
  },
  {
   "name" : "__fpending"
  },
  {
   "name" : "__fpurge"
  },
  {
   "name" : "__fread_chk"
  },
  {
   "name" : "__freadable"
  },
  {
   "name" : "__freading"
  },
  {
   "name" : "__fseterr"
  },
  {
   "name" : "__fsetlocking"
  },
  {
   "name" : "__fstatfs64"
  },
  {
   "name" : "__futex_wait"
  },
  {
   "name" : "__futex_wake"
  },
  {
   "name" : "__fwritable"
  },
  {
   "name" : "__fwrite_chk"
  },
  {
   "name" : "__fwriting"
  },
  {
   "name" : "__gedf2"
  },
  {
   "name" : "__gesf2"
  },
  {
   "name" : "__get_h_errno"
  },
  {
   "name" : "__get_thread"
  },
  {
   "name" : "__get_tls"
  },
  {
   "name" : "__getcpu"
  },
  {
   "name" : "__getcwd"
  },
  {
   "name" : "__getcwd_chk"
  },
  {
   "name" : "__getdents64"
  },
  {
   "name" : "__getpid"
  },
  {
   "name" : "__getpriority"
  },
  {
   "name" : "__gnu_Unwind_Find_exidx"
  },
  {
   "name" : "__gnu_basename"
  },
  {
   "name" : "__gnu_ldivmod_helper"
  },
  {
   "name" : "__gnu_strerror_r"
  },
  {
   "name" : "__gnu_uldivmod_helper"
  },
  {
   "name" : "__gnu_unwind_frame"
  },
  {
   "name" : "__gtdf2"
  },
  {
   "name" : "__gtsf2"
  },
  {
   "name" : "__hostalias"
  },
  {
   "name" : "__ioctl"
  },
  {
   "name" : "__isfinite"
  },
  {
   "name" : "__isfinitef"
  },
  {
   "name" : "__isfinitel"
  },
  {
   "name" : "__isinf"
  },
  {
   "name" : "__isinff"
  },
  {
   "name" : "__isinfl"
  },
  {
   "name" : "__isnan"
  },
  {
   "name" : "__isnanf"
  },
  {
   "name" : "__isnanl"
  },
  {
   "name" : "__isnormal"
  },
  {
   "name" : "__isnormalf"
  },
  {
   "name" : "__isnormall"
  },
  {
   "name" : "__ledf2"
  },
  {
   "name" : "__lesf2"
  },
  {
   "name" : "__libc_current_sigrtmax"
  },
  {
   "name" : "__libc_current_sigrtmin"
  },
  {
   "name" : "__libc_init"
  },
  {
   "name" : "__llseek"
  },
  {
   "name" : "__loc_aton"
  },
  {
   "name" : "__loc_ntoa"
  },
  {
   "name" : "__lshrdi3"
  },
  {
   "name" : "__ltdf2"
  },
  {
   "name" : "__ltsf2"
  },
  {
   "name" : "__memchr_chk"
  },
  {
   "name" : "__memcpy_chk"
  },
  {
   "name" : "__memmove_chk"
  },
  {
   "name" : "__mempcpy_chk"
  },
  {
   "name" : "__memrchr_chk"
  },
  {
   "name" : "__memset_chk"
  },
  {
   "name" : "__mmap2"
  },
  {
   "name" : "__muldf3"
  },
  {
   "name" : "__muldi3"
  },
  {
   "name" : "__mulsf3"
  },
  {
   "name" : "__nedf2"
  },
  {
   "name" : "__nesf2"
  },
  {
   "name" : "__ns_format_ttl"
  },
  {
   "name" : "__ns_get16"
  },
  {
   "name" : "__ns_get32"
  },
  {
   "name" : "__ns_initparse"
  },
  {
   "name" : "__ns_makecanon"
  },
  {
   "name" : "__ns_msg_getflag"
  },
  {
   "name" : "__ns_name_compress"
  },
  {
   "name" : "__ns_name_ntol"
  },
  {
   "name" : "__ns_name_ntop"
  },
  {
   "name" : "__ns_name_pack"
  },
  {
   "name" : "__ns_name_pton"
  },
  {
   "name" : "__ns_name_rollback"
  },
  {
   "name" : "__ns_name_skip"
  },
  {
   "name" : "__ns_name_uncompress"
  },
  {
   "name" : "__ns_name_unpack"
  },
  {
   "name" : "__ns_parserr"
  },
  {
   "name" : "__ns_put16"
  },
  {
   "name" : "__ns_put32"
  },
  {
   "name" : "__ns_samename"
  },
  {
   "name" : "__ns_skiprr"
  },
  {
   "name" : "__ns_sprintrr"
  },
  {
   "name" : "__ns_sprintrrf"
  },
  {
   "name" : "__open"
  },
  {
   "name" : "__open_2"
  },
  {
   "name" : "__openat"
  },
  {
   "name" : "__openat_2"
  },
  {
   "name" : "__p_cdname"
  },
  {
   "name" : "__p_cdnname"
  },
  {
   "name" : "__p_class"
  },
  {
   "name" : "__p_fqname"
  },
  {
   "name" : "__p_fqnname"
  },
  {
   "name" : "__p_option"
  },
  {
   "name" : "__p_query"
  },
  {
   "name" : "__p_rcode"
  },
  {
   "name" : "__p_secstodate"
  },
  {
   "name" : "__p_time"
  },
  {
   "name" : "__p_type"
  },
  {
   "name" : "__poll_chk"
  },
  {
   "name" : "__popcountsi2"
  },
  {
   "name" : "__ppoll"
  },
  {
   "name" : "__ppoll64_chk"
  },
  {
   "name" : "__ppoll_chk"
  },
  {
   "name" : "__pread64_chk"
  },
  {
   "name" : "__pread_chk"
  },
  {
   "name" : "__pselect6"
  },
  {
   "binding" : "weak",
   "name" : "__pthread_cleanup_pop"
  },
  {
   "binding" : "weak",
   "name" : "__pthread_cleanup_push"
  },
  {
   "name" : "__pthread_gettid"
  },
  {
   "name" : "__ptrace"
  },
  {
   "name" : "__putlong"
  },
  {
   "name" : "__putshort"
  },
  {
   "name" : "__pwrite64_chk"
  },
  {
   "name" : "__pwrite_chk"
  },
  {
   "name" : "__read_chk"
  },
  {
   "name" : "__readlink_chk"
  },
  {
   "name" : "__readlinkat_chk"
  },
  {
   "name" : "__reboot"
  },
  {
   "name" : "__recvfrom_chk"
  },
  {
   "name" : "__register_atfork"
  },
  {
   "name" : "__res_close"
  },
  {
   "name" : "__res_dnok"
  },
  {
   "name" : "__res_hnok"
  },
  {
   "name" : "__res_hostalias"
  },
  {
   "name" : "__res_isourserver"
  },
  {
   "name" : "__res_mailok"
  },
  {
   "name" : "__res_nameinquery"
  },
  {
   "name" : "__res_nclose"
  },
  {
   "name" : "__res_ninit"
  },
  {
   "name" : "__res_nmkquery"
  },
  {
   "name" : "__res_nquery"
  },
  {
   "name" : "__res_nquerydomain"
  },
  {
   "name" : "__res_nsearch"
  },
  {
   "name" : "__res_nsend"
  },
  {
   "name" : "__res_ownok"
  },
  {
   "name" : "__res_queriesmatch"
  },
  {
   "name" : "__res_querydomain"
  },
  {
   "name" : "__res_randomid"
  },
  {
   "name" : "__res_send"
  },
  {
   "name" : "__res_send_setqhook"
  },
  {
   "name" : "__res_send_setrhook"
  },
  {
   "name" : "__rt_sigaction"
  },
  {
   "name" : "__rt_sigpending"
  },
  {
   "name" : "__rt_sigprocmask"
  },
  {
   "name" : "__rt_sigsuspend"
  },
  {
   "name" : "__rt_sigtimedwait"
  },
  {
   "name" : "__sched_cpualloc"
  },
  {
   "name" : "__sched_cpucount"
  },
  {
   "name" : "__sched_cpufree"
  },
  {
   "name" : "__sched_getaffinity"
  },
  {
   "name" : "__sclose"
  },
  {
   "name" : "__sendto_chk"
  },
  {
   "name" : "__set_errno"
  },
  {
   "name" : "__set_tid_address"
  },
  {
   "name" : "__sflags"
  },
  {
   "name" : "__sflush"
  },
  {
   "name" : "__sfp"
  },
  {
   "name" : "__sigaction"
  },
  {
   "name" : "__sinit"
  },
  {
   "name" : "__smakebuf"
  },
  {
   "name" : "__snprintf_chk"
  },
  {
   "name" : "__socket"
  },
  {
   "name" : "__sprintf_chk"
  },
  {
   "name" : "__sread"
  },
  {
   "name" : "__srefill"
  },
  {
   "name" : "__srget"
  },
  {
   "name" : "__sseek"
  },
  {
   "name" : "__stack_chk_fail"
  },
  {
   "name" : "__statfs64"
  },
  {
   "name" : "__stpcpy_chk"
  },
  {
   "name" : "__stpncpy_chk"
  },
  {
   "name" : "__stpncpy_chk2"
  },
  {
   "name" : "__strcat_chk"
  },
  {
   "name" : "__strchr_chk"
  },
  {
   "name" : "__strcpy_chk"
  },
  {
   "name" : "__strlcat_chk"
  },
  {
   "name" : "__strlcpy_chk"
  },
  {
   "name" : "__strlen_chk"
  },
  {
   "name" : "__strncat_chk"
  },
  {
   "name" : "__strncpy_chk"
  },
  {
   "name" : "__strncpy_chk2"
  },
  {
   "name" : "__strrchr_chk"
  },
  {
   "name" : "__subdf3"
  },
  {
   "name" : "__subsf3"
  },
  {
   "name" : "__swbuf"
  },
  {
   "name" : "__swrite"
  },
  {
   "name" : "__swsetup"
  },
  {
   "name" : "__sym_ntop"
  },
  {
   "name" : "__sym_ntos"
  },
  {
   "name" : "__sym_ston"
  },
  {
   "binding" : "weak",
   "name" : "__system_properties_init"
  },
  {
   "binding" : "weak",
   "name" : "__system_property_add"
  },
  {
   "binding" : "weak",
   "name" : "__system_property_area_init"
  },
  {
   "binding" : "weak",
   "name" : "__system_property_area_serial"
  },
  {
   "binding" : "weak",
   "name" : "__system_property_find"
  },
  {
   "binding" : "weak",
   "name" : "__system_property_find_nth"
  },
  {
   "binding" : "weak",
   "name" : "__system_property_foreach"
  },
  {
   "binding" : "weak",
   "name" : "__system_property_get"
  },
  {
   "binding" : "weak",
   "name" : "__system_property_read"
  },
  {
   "binding" : "weak",
   "name" : "__system_property_read_callback"
  },
  {
   "binding" : "weak",
   "name" : "__system_property_serial"
  },
  {
   "binding" : "weak",
   "name" : "__system_property_set"
  },
  {
   "binding" : "weak",
   "name" : "__system_property_set_filename"
  },
  {
   "binding" : "weak",
   "name" : "__system_property_update"
  },
  {
   "binding" : "weak",
   "name" : "__system_property_wait"
  },
  {
   "binding" : "weak",
   "name" : "__system_property_wait_any"
  },
  {
   "name" : "__timer_create"
  },
  {
   "name" : "__timer_delete"
  },
  {
   "name" : "__timer_getoverrun"
  },
  {
   "name" : "__timer_gettime"
  },
  {
   "name" : "__timer_settime"
  },
  {
   "name" : "__tls_get_addr"
  },
  {
   "name" : "__truncdfsf2"
  },
  {
   "name" : "__udivdi3"
  },
  {
   "name" : "__udivsi3"
  },
  {
   "name" : "__umask_chk"
  },
  {
   "name" : "__unorddf2"
  },
  {
   "name" : "__unordsf2"
  },
  {
   "name" : "__vsnprintf_chk"
  },
  {
   "name" : "__vsprintf_chk"
  },
  {
   "name" : "__wait4"
  },
  {
   "name" : "__waitid"
  },
  {
   "name" : "__write_chk"
  },
  {
   "name" : "_exit"
  },
  {
   "name" : "_flushlbf"
  },
  {
   "name" : "_fwalk"
  },
  {
   "name" : "_getlong"
  },
  {
   "name" : "_getshort"
  },
  {
   "binding" : "weak",
   "name" : "_longjmp"
  },
  {
   "name" : "_resolv_delete_cache_for_net"
  },
  {
   "name" : "_resolv_flush_cache_for_net"
  },
  {
   "name" : "_resolv_set_nameservers_for_net"
  },
  {
   "binding" : "weak",
   "name" : "_setjmp"
  },
  {
   "name" : "_tolower"
  },
  {
   "name" : "_toupper"
  },
  {
   "name" : "abort"
  },
  {
   "name" : "abs"
  },
  {
   "name" : "accept"
  },
  {
   "name" : "accept4"
  },
  {
   "name" : "access"
  },
  {
   "name" : "acct"
  },
  {
   "name" : "adjtimex"
  },
  {
   "name" : "alarm"
  },
  {
   "name" : "aligned_alloc"
  },
  {
   "name" : "alphasort"
  },
  {
   "name" : "alphasort64"
  },
  {
   "binding" : "weak",
   "name" : "android_fdsan_close_with_tag"
  },
  {
   "binding" : "weak",
   "name" : "android_fdsan_create_owner_tag"
  },
  {
   "binding" : "weak",
   "name" : "android_fdsan_exchange_owner_tag"
  },
  {
   "binding" : "weak",
   "name" : "android_fdsan_get_error_level"
  },
  {
   "name" : "android_fdsan_get_fd_table"
  },
  {
   "name" : "android_fdsan_get_owner_tag"
  },
  {
   "name" : "android_fdsan_get_tag_type"
  },
  {
   "name" : "android_fdsan_get_tag_value"
  },
  {
   "binding" : "weak",
   "name" : "android_fdsan_set_error_level"
  },
  {
   "name" : "android_fdtrack_compare_exchange_hook"
  },
  {
   "name" : "android_fdtrack_get_enabled"
  },
  {
   "name" : "android_fdtrack_set_enabled"
  },
  {
   "name" : "android_get_device_api_level"
  },
  {
   "binding" : "weak",
   "name" : "android_getaddrinfofornet"
  },
  {
   "binding" : "weak",
   "name" : "android_getaddrinfofornetcontext"
  },
  {
   "name" : "android_gethostbyaddrfornet"
  },
  {
   "name" : "android_gethostbyaddrfornetcontext"
  },
  {
   "name" : "android_gethostbynamefornet"
  },
  {
   "name" : "android_gethostbynamefornetcontext"
  },
  {
   "binding" : "weak",
   "name" : "android_mallopt"
  },
  {
   "name" : "android_net_res_stats_aggregate"
  },
  {
   "name" : "android_net_res_stats_get_info_for_net"
  },
  {
   "name" : "android_net_res_stats_get_usable_servers"
  },
  {
   "binding" : "weak",
   "name" : "android_set_abort_message"
  },
  {
   "name" : "android_unsafe_frame_pointer_chase"
  },
  {
   "name" : "arc4random"
  },
  {
   "name" : "arc4random_addrandom"
  },
  {
   "name" : "arc4random_buf"
  },
  {
   "name" : "arc4random_stir"
  },
  {
   "name" : "arc4random_uniform"
  },
  {
   "name" : "asctime"
  },
  {
   "name" : "asctime64"
  },
  {
   "name" : "asctime64_r"
  },
  {
   "name" : "asctime_r"
  },
  {
   "name" : "asprintf"
  },
  {
   "name" : "at_quick_exit"
  },
  {
   "name" : "atexit"
  },
  {
   "name" : "atof"
  },
  {
   "name" : "atoi"
  },
  {
   "name" : "atol"
  },
  {
   "name" : "atoll"
  },
  {
   "name" : "basename"
  },
  {
   "name" : "basename_r"
  },
  {
   "name" : "bcopy"
  },
  {
   "name" : "bind"
  },
  {
   "name" : "bindresvport"
  },
  {
   "name" : "brk"
  },
  {
   "name" : "bsd_signal"
  },
  {
   "name" : "bsearch"
  },
  {
   "name" : "btowc"
  },
  {
   "name" : "bzero"
  },
  {
   "name" : "c16rtomb"
  },
  {
   "name" : "c32rtomb"
  },
  {
   "name" : "cacheflush"
  },
  {
   "name" : "call_once"
  },
  {
   "name" : "calloc"
  },
  {
   "name" : "capget"
  },
  {
   "name" : "capset"
  },
  {
   "name" : "catclose"
  },
  {
   "name" : "catgets"
  },
  {
   "name" : "catopen"
  },
  {
   "name" : "cfgetispeed"
  },
  {
   "name" : "cfgetospeed"
  },
  {
   "name" : "cfmakeraw"
  },
  {
   "name" : "cfsetispeed"
  },
  {
   "name" : "cfsetospeed"
  },
  {
   "name" : "cfsetspeed"
  },
  {
   "name" : "chdir"
  },
  {
   "name" : "chmod"
  },
  {
   "name" : "chown"
  },
  {
   "name" : "chroot"
  },
  {
   "name" : "clearenv"
  },
  {
   "name" : "clearerr"
  },
  {
   "name" : "clearerr_unlocked"
  },
  {
   "name" : "clock"
  },
  {
   "name" : "clock_adjtime"
  },
  {
   "name" : "clock_getcpuclockid"
  },
  {
   "name" : "clock_getres"
  },
  {
   "name" : "clock_gettime"
  },
  {
   "name" : "clock_nanosleep"
  },
  {
   "name" : "clock_settime"
  },
  {
   "binding" : "weak",
   "name" : "clone"
  },
  {
   "name" : "close"
  },
  {
   "name" : "closedir"
  },
  {
   "name" : "closelog"
  },
  {
   "name" : "cnd_broadcast"
  },
  {
   "name" : "cnd_destroy"
  },
  {
   "name" : "cnd_init"
  },
  {
   "name" : "cnd_signal"
  },
  {
   "name" : "cnd_timedwait"
  },
  {
   "name" : "cnd_wait"
  },
  {
   "name" : "connect"
  },
  {
   "name" : "creat"
  },
  {
   "name" : "creat64"
  },
  {
   "name" : "ctermid"
  },
  {
   "name" : "ctime"
  },
  {
   "name" : "ctime64"
  },
  {
   "name" : "ctime64_r"
  },
  {
   "name" : "ctime_r"
  },
  {
   "name" : "daemon"
  },
  {
   "name" : "delete_module"
  },
  {
   "name" : "difftime"
  },
  {
   "name" : "dirfd"
  },
  {
   "name" : "dirname"
  },
  {
   "name" : "dirname_r"
  },
  {
   "name" : "div"
  },
  {
   "name" : "dlmalloc"
  },
  {
   "name" : "dlmalloc_inspect_all"
  },
  {
   "name" : "dlmalloc_trim"
  },
  {
   "name" : "dlmalloc_usable_size"
  },
  {
   "name" : "dn_expand"
  },
  {
   "name" : "dprintf"
  },
  {
   "name" : "drand48"
  },
  {
   "name" : "dup"
  },
  {
   "name" : "dup2"
  },
  {
   "name" : "dup3"
  },
  {
   "name" : "duplocale"
  },
  {
   "name" : "endgrent"
  },
  {
   "name" : "endhostent"
  },
  {
   "name" : "endmntent"
  },
  {
   "name" : "endnetent"
  },
  {
   "name" : "endprotoent"
  },
  {
   "name" : "endpwent"
  },
  {
   "name" : "endservent"
  },
  {
   "name" : "endutent"
  },
  {
   "name" : "epoll_create"
  },
  {
   "name" : "epoll_create1"
  },
  {
   "name" : "epoll_ctl"
  },
  {
   "name" : "epoll_pwait"
  },
  {
   "name" : "epoll_pwait64"
  },
  {
   "name" : "epoll_wait"
  },
  {
   "name" : "erand48"
  },
  {
   "name" : "err"
  },
  {
   "name" : "error"
  },
  {
   "name" : "error_at_line"
  },
  {
   "name" : "errx"
  },
  {
   "name" : "ether_aton"
  },
  {
   "name" : "ether_aton_r"
  },
  {
   "name" : "ether_ntoa"
  },
  {
   "name" : "ether_ntoa_r"
  },
  {
   "name" : "eventfd"
  },
  {
   "name" : "eventfd_read"
  },
  {
   "name" : "eventfd_write"
  },
  {
   "name" : "execl"
  },
  {
   "name" : "execle"
  },
  {
   "name" : "execlp"
  },
  {
   "name" : "execv"
  },
  {
   "name" : "execve"
  },
  {
   "name" : "execvp"
  },
  {
   "name" : "execvpe"
  },
  {
   "binding" : "weak",
   "name" : "exit"
  },
  {
   "name" : "faccessat"
  },
  {
   "name" : "fallocate"
  },
  {
   "name" : "fallocate64"
  },
  {
   "name" : "fchdir"
  },
  {
   "name" : "fchmod"
  },
  {
   "name" : "fchmodat"
  },
  {
   "name" : "fchown"
  },
  {
   "name" : "fchownat"
  },
  {
   "name" : "fclose"
  },
  {
   "name" : "fcntl"
  },
  {
   "name" : "fdatasync"
  },
  {
   "name" : "fdopen"
  },
  {
   "name" : "fdopendir"
  },
  {
   "name" : "fdprintf"
  },
  {
   "name" : "feof"
  },
  {
   "name" : "feof_unlocked"
  },
  {
   "name" : "ferror"
  },
  {
   "name" : "ferror_unlocked"
  },
  {
   "name" : "fexecve"
  },
  {
   "name" : "fflush"
  },
  {
   "name" : "fflush_unlocked"
  },
  {
   "name" : "ffs"
  },
  {
   "name" : "fgetc"
  },
  {
   "name" : "fgetc_unlocked"
  },
  {
   "name" : "fgetln"
  },
  {
   "name" : "fgetpos"
  },
  {
   "name" : "fgetpos64"
  },
  {
   "name" : "fgets"
  },
  {
   "name" : "fgets_unlocked"
  },
  {
   "name" : "fgetwc"
  },
  {
   "name" : "fgetws"
  },
  {
   "name" : "fgetxattr"
  },
  {
   "name" : "fileno"
  },
  {
   "name" : "fileno_unlocked"
  },
  {
   "name" : "flistxattr"
  },
  {
   "name" : "flock"
  },
  {
   "name" : "flockfile"
  },
  {
   "name" : "fmemopen"
  },
  {
   "name" : "fnmatch"
  },
  {
   "name" : "fopen"
  },
  {
   "name" : "fopen64"
  },
  {
   "binding" : "weak",
   "name" : "fork"
  },
  {
   "name" : "forkpty"
  },
  {
   "name" : "fpathconf"
  },
  {
   "name" : "fprintf"
  },
  {
   "name" : "fpurge"
  },
  {
   "name" : "fputc"
  },
  {
   "name" : "fputc_unlocked"
  },
  {
   "name" : "fputs"
  },
  {
   "name" : "fputs_unlocked"
  },
  {
   "name" : "fputwc"
  },
  {
   "name" : "fputws"
  },
  {
   "name" : "fread"
  },
  {
   "name" : "fread_unlocked"
  },
  {
   "name" : "free"
  },
  {
   "name" : "free_malloc_leak_info"
  },
  {
   "binding" : "weak",
   "name" : "freeaddrinfo"
  },
  {
   "name" : "freeifaddrs"
  },
  {
   "name" : "freelocale"
  },
  {
   "name" : "fremovexattr"
  },
  {
   "name" : "freopen"
  },
  {
   "name" : "freopen64"
  },
  {
   "name" : "fscanf"
  },
  {
   "name" : "fseek"
  },
  {
   "name" : "fseeko"
  },
  {
   "name" : "fseeko64"
  },
  {
   "name" : "fsetpos"
  },
  {
   "name" : "fsetpos64"
  },
  {
   "name" : "fsetxattr"
  },
  {
   "name" : "fstat"
  },
  {
   "name" : "fstat64"
  },
  {
   "name" : "fstatat"
  },
  {
   "name" : "fstatat64"
  },
  {
   "name" : "fstatfs"
  },
  {
   "name" : "fstatfs64"
  },
  {
   "name" : "fstatvfs"
  },
  {
   "name" : "fstatvfs64"
  },
  {
   "name" : "fsync"
  },
  {
   "name" : "ftell"
  },
  {
   "name" : "ftello"
  },
  {
   "name" : "ftello64"
  },
  {
   "name" : "ftime"
  },
  {
   "name" : "ftok"
  },
  {
   "name" : "ftruncate"
  },
  {
   "name" : "ftruncate64"
  },
  {
   "name" : "ftrylockfile"
  },
  {
   "name" : "fts_children"
  },
  {
   "name" : "fts_close"
  },
  {
   "name" : "fts_open"
  },
  {
   "name" : "fts_read"
  },
  {
   "name" : "fts_set"
  },
  {
   "name" : "ftw"
  },
  {
   "name" : "ftw64"
  },
  {
   "name" : "funlockfile"
  },
  {
   "name" : "funopen"
  },
  {
   "name" : "funopen64"
  },
  {
   "name" : "futimens"
  },
  {
   "name" : "futimes"
  },
  {
   "name" : "futimesat"
  },
  {
   "name" : "fwide"
  },
  {
   "name" : "fwprintf"
  },
  {
   "name" : "fwrite"
  },
  {
   "name" : "fwrite_unlocked"
  },
  {
   "name" : "fwscanf"
  },
  {
   "binding" : "weak",
   "name" : "gai_strerror"
  },
  {
   "name" : "get_avphys_pages"
  },
  {
   "name" : "get_malloc_leak_info"
  },
  {
   "name" : "get_nprocs"
  },
  {
   "name" : "get_nprocs_conf"
  },
  {
   "name" : "get_phys_pages"
  },
  {
   "binding" : "weak",
   "name" : "getaddrinfo"
  },
  {
   "name" : "getauxval"
  },
  {
   "name" : "getc"
  },
  {
   "name" : "getc_unlocked"
  },
  {
   "name" : "getchar"
  },
  {
   "name" : "getchar_unlocked"
  },
  {
   "name" : "getcwd"
  },
  {
   "name" : "getdelim"
  },
  {
   "name" : "getdents"
  },
  {
   "name" : "getdomainname"
  },
  {
   "name" : "getdtablesize"
  },
  {
   "name" : "getegid"
  },
  {
   "name" : "getentropy"
  },
  {
   "name" : "getenv"
  },
  {
   "name" : "geteuid"
  },
  {
   "name" : "getgid"
  },
  {
   "name" : "getgrent"
  },
  {
   "name" : "getgrgid"
  },
  {
   "name" : "getgrgid_r"
  },
  {
   "name" : "getgrnam"
  },
  {
   "name" : "getgrnam_r"
  },
  {
   "name" : "getgrouplist"
  },
  {
   "name" : "getgroups"
  },
  {
   "name" : "gethostbyaddr"
  },
  {
   "name" : "gethostbyaddr_r"
  },
  {
   "name" : "gethostbyname"
  },
  {
   "name" : "gethostbyname2"
  },
  {
   "name" : "gethostbyname2_r"
  },
  {
   "name" : "gethostbyname_r"
  },
  {
   "name" : "gethostent"
  },
  {
   "name" : "gethostname"
  },
  {
   "name" : "getifaddrs"
  },
  {
   "name" : "getitimer"
  },
  {
   "name" : "getline"
  },
  {
   "name" : "getloadavg"
  },
  {
   "name" : "getlogin"
  },
  {
   "name" : "getlogin_r"
  },
  {
   "name" : "getmntent"
  },
  {
   "name" : "getmntent_r"
  },
  {
   "name" : "getnameinfo"
  },
  {
   "name" : "getnetbyaddr"
  },
  {
   "name" : "getnetbyname"
  },
  {
   "name" : "getnetent"
  },
  {
   "name" : "getopt"
  },
  {
   "name" : "getopt_long"
  },
  {
   "name" : "getopt_long_only"
  },
  {
   "name" : "getpagesize"
  },
  {
   "name" : "getpeername"
  },
  {
   "name" : "getpgid"
  },
  {
   "name" : "getpgrp"
  },
  {
   "name" : "getpid"
  },
  {
   "name" : "getppid"
  },
  {
   "name" : "getpriority"
  },
  {
   "name" : "getprogname"
  },
  {
   "name" : "getprotobyname"
  },
  {
   "name" : "getprotobynumber"
  },
  {
   "name" : "getprotoent"
  },
  {
   "name" : "getpt"
  },
  {
   "name" : "getpwent"
  },
  {
   "name" : "getpwnam"
  },
  {
   "name" : "getpwnam_r"
  },
  {
   "name" : "getpwuid"
  },
  {
   "name" : "getpwuid_r"
  },
  {
   "name" : "getrandom"
  },
  {
   "name" : "getresgid"
  },
  {
   "name" : "getresuid"
  },
  {
   "name" : "getrlimit"
  },
  {
   "name" : "getrlimit64"
  },
  {
   "name" : "getrusage"
  },
  {
   "name" : "gets"
  },
  {
   "name" : "getservbyname"
  },
  {
   "name" : "getservbyport"
  },
  {
   "name" : "getservent"
  },
  {
   "name" : "getsid"
  },
  {
   "name" : "getsockname"
  },
  {
   "name" : "getsockopt"
  },
  {
   "name" : "getsubopt"
  },
  {
   "name" : "gettid"
  },
  {
   "name" : "gettimeofday"
  },
  {
   "name" : "getuid"
  },
  {
   "name" : "getutent"
  },
  {
   "name" : "getwc"
  },
  {
   "name" : "getwchar"
  },
  {
   "name" : "getxattr"
  },
  {
   "name" : "glob"
  },
  {
   "name" : "globfree"
  },
  {
   "name" : "gmtime"
  },
  {
   "name" : "gmtime64"
  },
  {
   "name" : "gmtime64_r"
  },
  {
   "name" : "gmtime_r"
  },
  {
   "name" : "grantpt"
  },
  {
   "name" : "hasmntopt"
  },
  {
   "name" : "hcreate"
  },
  {
   "name" : "hcreate_r"
  },
  {
   "name" : "hdestroy"
  },
  {
   "name" : "hdestroy_r"
  },
  {
   "name" : "herror"
  },
  {
   "name" : "hsearch"
  },
  {
   "name" : "hsearch_r"
  },
  {
   "name" : "hstrerror"
  },
  {
   "name" : "htonl"
  },
  {
   "name" : "htons"
  },
  {
   "name" : "iconv"
  },
  {
   "name" : "iconv_close"
  },
  {
   "name" : "iconv_open"
  },
  {
   "name" : "if_freenameindex"
  },
  {
   "name" : "if_indextoname"
  },
  {
   "name" : "if_nameindex"
  },
  {
   "name" : "if_nametoindex"
  },
  {
   "name" : "imaxabs"
  },
  {
   "name" : "imaxdiv"
  },
  {
   "name" : "index"
  },
  {
   "name" : "inet_addr"
  },
  {
   "name" : "inet_aton"
  },
  {
   "name" : "inet_lnaof"
  },
  {
   "name" : "inet_makeaddr"
  },
  {
   "name" : "inet_netof"
  },
  {
   "name" : "inet_network"
  },
  {
   "name" : "inet_nsap_addr"
  },
  {
   "name" : "inet_nsap_ntoa"
  },
  {
   "name" : "inet_ntoa"
  },
  {
   "name" : "inet_ntop"
  },
  {
   "name" : "inet_pton"
  },
  {
   "name" : "init_module"
  },
  {
   "name" : "initgroups"
  },
  {
   "name" : "initstate"
  },
  {
   "name" : "inotify_add_watch"
  },
  {
   "name" : "inotify_init"
  },
  {
   "name" : "inotify_init1"
  },
  {
   "name" : "inotify_rm_watch"
  },
  {
   "name" : "insque"
  },
  {
   "name" : "ioctl"
  },
  {
   "name" : "isalnum"
  },
  {
   "name" : "isalnum_l"
  },
  {
   "name" : "isalpha"
  },
  {
   "name" : "isalpha_l"
  },
  {
   "name" : "isascii"
  },
  {
   "name" : "isatty"
  },
  {
   "name" : "isblank"
  },
  {
   "name" : "isblank_l"
  },
  {
   "name" : "iscntrl"
  },
  {
   "name" : "iscntrl_l"
  },
  {
   "name" : "isdigit"
  },
  {
   "name" : "isdigit_l"
  },
  {
   "name" : "isfinite"
  },
  {
   "name" : "isfinitef"
  },
  {
   "name" : "isfinitel"
  },
  {
   "name" : "isgraph"
  },
  {
   "name" : "isgraph_l"
  },
  {
   "name" : "isinf"
  },
  {
   "name" : "isinff"
  },
  {
   "name" : "isinfl"
  },
  {
   "name" : "islower"
  },
  {
   "name" : "islower_l"
  },
  {
   "name" : "isnan"
  },
  {
   "name" : "isnanf"
  },
  {
   "name" : "isnanl"
  },
  {
   "name" : "isnormal"
  },
  {
   "name" : "isnormalf"
  },
  {
   "name" : "isnormall"
  },
  {
   "name" : "isprint"
  },
  {
   "name" : "isprint_l"
  },
  {
   "name" : "ispunct"
  },
  {
   "name" : "ispunct_l"
  },
  {
   "name" : "issetugid"
  },
  {
   "name" : "isspace"
  },
  {
   "name" : "isspace_l"
  },
  {
   "name" : "isupper"
  },
  {
   "name" : "isupper_l"
  },
  {
   "name" : "iswalnum"
  },
  {
   "name" : "iswalnum_l"
  },
  {
   "name" : "iswalpha"
  },
  {
   "name" : "iswalpha_l"
  },
  {
   "name" : "iswblank"
  },
  {
   "name" : "iswblank_l"
  },
  {
   "name" : "iswcntrl"
  },
  {
   "name" : "iswcntrl_l"
  },
  {
   "name" : "iswctype"
  },
  {
   "name" : "iswctype_l"
  },
  {
   "name" : "iswdigit"
  },
  {
   "name" : "iswdigit_l"
  },
  {
   "name" : "iswgraph"
  },
  {
   "name" : "iswgraph_l"
  },
  {
   "name" : "iswlower"
  },
  {
   "name" : "iswlower_l"
  },
  {
   "name" : "iswprint"
  },
  {
   "name" : "iswprint_l"
  },
  {
   "name" : "iswpunct"
  },
  {
   "name" : "iswpunct_l"
  },
  {
   "name" : "iswspace"
  },
  {
   "name" : "iswspace_l"
  },
  {
   "name" : "iswupper"
  },
  {
   "name" : "iswupper_l"
  },
  {
   "name" : "iswxdigit"
  },
  {
   "name" : "iswxdigit_l"
  },
  {
   "name" : "isxdigit"
  },
  {
   "name" : "isxdigit_l"
  },
  {
   "name" : "jrand48"
  },
  {
   "name" : "kill"
  },
  {
   "name" : "killpg"
  },
  {
   "name" : "klogctl"
  },
  {
   "name" : "labs"
  },
  {
   "name" : "lchown"
  },
  {
   "name" : "lcong48"
  },
  {
   "name" : "ldexp"
  },
  {
   "name" : "ldiv"
  },
  {
   "name" : "lfind"
  },
  {
   "name" : "lgetxattr"
  },
  {
   "name" : "link"
  },
  {
   "name" : "linkat"
  },
  {
   "name" : "listen"
  },
  {
   "name" : "listxattr"
  },
  {
   "name" : "llabs"
  },
  {
   "name" : "lldiv"
  },
  {
   "name" : "llistxattr"
  },
  {
   "name" : "localeconv"
  },
  {
   "name" : "localtime"
  },
  {
   "name" : "localtime64"
  },
  {
   "name" : "localtime64_r"
  },
  {
   "name" : "localtime_r"
  },
  {
   "name" : "lockf"
  },
  {
   "name" : "lockf64"
  },
  {
   "name" : "login_tty"
  },
  {
   "binding" : "weak",
   "name" : "longjmp"
  },
  {
   "name" : "lrand48"
  },
  {
   "name" : "lremovexattr"
  },
  {
   "name" : "lsearch"
  },
  {
   "name" : "lseek"
  },
  {
   "name" : "lseek64"
  },
  {
   "name" : "lsetxattr"
  },
  {
   "name" : "lstat"
  },
  {
   "name" : "lstat64"
  },
  {
   "name" : "lutimes"
  },
  {
   "name" : "madvise"
  },
  {
   "name" : "mallinfo"
  },
  {
   "name" : "malloc"
  },
  {
   "name" : "malloc_backtrace"
  },
  {
   "name" : "malloc_disable"
  },
  {
   "name" : "malloc_enable"
  },
  {
   "name" : "malloc_info"
  },
  {
   "name" : "malloc_iterate"
  },
  {
   "name" : "malloc_usable_size"
  },
  {
   "name" : "mallopt"
  },
  {
   "name" : "mblen"
  },
  {
   "name" : "mbrlen"
  },
  {
   "name" : "mbrtoc16"
  },
  {
   "name" : "mbrtoc32"
  },
  {
   "name" : "mbrtowc"
  },
  {
   "name" : "mbsinit"
  },
  {
   "name" : "mbsnrtowcs"
  },
  {
   "name" : "mbsrtowcs"
  },
  {
   "name" : "mbstowcs"
  },
  {
   "name" : "mbtowc"
  },
  {
   "name" : "memalign"
  },
  {
   "name" : "memccpy"
  },
  {
   "name" : "memchr"
  },
  {
   "name" : "memcmp"
  },
  {
   "name" : "memcpy"
  },
  {
   "name" : "memfd_create"
  },
  {
   "name" : "memmem"
  },
  {
   "name" : "memmove"
  },
  {
   "name" : "mempcpy"
  },
  {
   "name" : "memrchr"
  },
  {
   "name" : "memset"
  },
  {
   "name" : "memswap"
  },
  {
   "name" : "mincore"
  },
  {
   "name" : "mkdir"
  },
  {
   "name" : "mkdirat"
  },
  {
   "name" : "mkdtemp"
  },
  {
   "name" : "mkfifo"
  },
  {
   "name" : "mkfifoat"
  },
  {
   "name" : "mknod"
  },
  {
   "name" : "mknodat"
  },
  {
   "name" : "mkostemp"
  },
  {
   "name" : "mkostemp64"
  },
  {
   "name" : "mkostemps"
  },
  {
   "name" : "mkostemps64"
  },
  {
   "name" : "mkstemp"
  },
  {
   "name" : "mkstemp64"
  },
  {
   "name" : "mkstemps"
  },
  {
   "name" : "mkstemps64"
  },
  {
   "name" : "mktemp"
  },
  {
   "name" : "mktime"
  },
  {
   "name" : "mktime64"
  },
  {
   "name" : "mlock"
  },
  {
   "name" : "mlock2"
  },
  {
   "name" : "mlockall"
  },
  {
   "name" : "mmap"
  },
  {
   "name" : "mmap64"
  },
  {
   "name" : "mount"
  },
  {
   "name" : "mprotect"
  },
  {
   "name" : "mrand48"
  },
  {
   "name" : "mremap"
  },
  {
   "name" : "msgctl"
  },
  {
   "name" : "msgget"
  },
  {
   "name" : "msgrcv"
  },
  {
   "name" : "msgsnd"
  },
  {
   "name" : "msync"
  },
  {
   "name" : "mtx_destroy"
  },
  {
   "name" : "mtx_init"
  },
  {
   "name" : "mtx_lock"
  },
  {
   "name" : "mtx_timedlock"
  },
  {
   "name" : "mtx_trylock"
  },
  {
   "name" : "mtx_unlock"
  },
  {
   "name" : "munlock"
  },
  {
   "name" : "munlockall"
  },
  {
   "name" : "munmap"
  },
  {
   "name" : "nanosleep"
  },
  {
   "name" : "newlocale"
  },
  {
   "name" : "nftw"
  },
  {
   "name" : "nftw64"
  },
  {
   "name" : "nice"
  },
  {
   "name" : "nl_langinfo"
  },
  {
   "name" : "nl_langinfo_l"
  },
  {
   "name" : "nrand48"
  },
  {
   "name" : "nsdispatch"
  },
  {
   "name" : "ntohl"
  },
  {
   "name" : "ntohs"
  },
  {
   "name" : "open"
  },
  {
   "name" : "open64"
  },
  {
   "name" : "open_memstream"
  },
  {
   "name" : "open_wmemstream"
  },
  {
   "name" : "openat"
  },
  {
   "name" : "openat64"
  },
  {
   "name" : "opendir"
  },
  {
   "name" : "openlog"
  },
  {
   "name" : "openpty"
  },
  {
   "name" : "pathconf"
  },
  {
   "name" : "pause"
  },
  {
   "name" : "pclose"
  },
  {
   "name" : "perror"
  },
  {
   "name" : "personality"
  },
  {
   "name" : "pipe"
  },
  {
   "name" : "pipe2"
  },
  {
   "name" : "poll"
  },
  {
   "name" : "popen"
  },
  {
   "name" : "posix_fadvise"
  },
  {
   "name" : "posix_fadvise64"
  },
  {
   "name" : "posix_fallocate"
  },
  {
   "name" : "posix_fallocate64"
  },
  {
   "name" : "posix_madvise"
  },
  {
   "name" : "posix_memalign"
  },
  {
   "name" : "posix_openpt"
  },
  {
   "name" : "posix_spawn"
  },
  {
   "name" : "posix_spawn_file_actions_addclose"
  },
  {
   "name" : "posix_spawn_file_actions_adddup2"
  },
  {
   "name" : "posix_spawn_file_actions_addopen"
  },
  {
   "name" : "posix_spawn_file_actions_destroy"
  },
  {
   "name" : "posix_spawn_file_actions_init"
  },
  {
   "name" : "posix_spawnattr_destroy"
  },
  {
   "name" : "posix_spawnattr_getflags"
  },
  {
   "name" : "posix_spawnattr_getpgroup"
  },
  {
   "name" : "posix_spawnattr_getschedparam"
  },
  {
   "name" : "posix_spawnattr_getschedpolicy"
  },
  {
   "name" : "posix_spawnattr_getsigdefault"
  },
  {
   "name" : "posix_spawnattr_getsigdefault64"
  },
  {
   "name" : "posix_spawnattr_getsigmask"
  },
  {
   "name" : "posix_spawnattr_getsigmask64"
  },
  {
   "name" : "posix_spawnattr_init"
  },
  {
   "name" : "posix_spawnattr_setflags"
  },
  {
   "name" : "posix_spawnattr_setpgroup"
  },
  {
   "name" : "posix_spawnattr_setschedparam"
  },
  {
   "name" : "posix_spawnattr_setschedpolicy"
  },
  {
   "name" : "posix_spawnattr_setsigdefault"
  },
  {
   "name" : "posix_spawnattr_setsigdefault64"
  },
  {
   "name" : "posix_spawnattr_setsigmask"
  },
  {
   "name" : "posix_spawnattr_setsigmask64"
  },
  {
   "name" : "posix_spawnp"
  },
  {
   "name" : "ppoll"
  },
  {
   "name" : "ppoll64"
  },
  {
   "name" : "prctl"
  },
  {
   "name" : "pread"
  },
  {
   "name" : "pread64"
  },
  {
   "name" : "preadv"
  },
  {
   "name" : "preadv64"
  },
  {
   "name" : "printf"
  },
  {
   "name" : "prlimit"
  },
  {
   "name" : "prlimit64"
  },
  {
   "name" : "process_vm_readv"
  },
  {
   "name" : "process_vm_writev"
  },
  {
   "name" : "pselect"
  },
  {
   "name" : "pselect64"
  },
  {
   "name" : "psiginfo"
  },
  {
   "name" : "psignal"
  },
  {
   "name" : "pthread_atfork"
  },
  {
   "binding" : "weak",
   "name" : "pthread_attr_destroy"
  },
  {
   "binding" : "weak",
   "name" : "pthread_attr_getdetachstate"
  },
  {
   "binding" : "weak",
   "name" : "pthread_attr_getguardsize"
  },
  {
   "binding" : "weak",
   "name" : "pthread_attr_getinheritsched"
  },
  {
   "binding" : "weak",
   "name" : "pthread_attr_getschedparam"
  },
  {
   "binding" : "weak",
   "name" : "pthread_attr_getschedpolicy"
  },
  {
   "binding" : "weak",
   "name" : "pthread_attr_getscope"
  },
  {
   "binding" : "weak",
   "name" : "pthread_attr_getstack"
  },
  {
   "name" : "pthread_attr_getstackaddr"
  },
  {
   "binding" : "weak",
   "name" : "pthread_attr_getstacksize"
  },
  {
   "binding" : "weak",
   "name" : "pthread_attr_init"
  },
  {
   "binding" : "weak",
   "name" : "pthread_attr_setdetachstate"
  },
  {
   "binding" : "weak",
   "name" : "pthread_attr_setguardsize"
  },
  {
   "binding" : "weak",
   "name" : "pthread_attr_setinheritsched"
  },
  {
   "binding" : "weak",
   "name" : "pthread_attr_setschedparam"
  },
  {
   "binding" : "weak",
   "name" : "pthread_attr_setschedpolicy"
  },
  {
   "binding" : "weak",
   "name" : "pthread_attr_setscope"
  },
  {
   "binding" : "weak",
   "name" : "pthread_attr_setstack"
  },
  {
   "name" : "pthread_attr_setstackaddr"
  },
  {
   "binding" : "weak",
   "name" : "pthread_attr_setstacksize"
  },
  {
   "name" : "pthread_barrier_destroy"
  },
  {
   "name" : "pthread_barrier_init"
  },
  {
   "name" : "pthread_barrier_wait"
  },
  {
   "name" : "pthread_barrierattr_destroy"
  },
  {
   "name" : "pthread_barrierattr_getpshared"
  },
  {
   "name" : "pthread_barrierattr_init"
  },
  {
   "name" : "pthread_barrierattr_setpshared"
  },
  {
   "name" : "pthread_cond_broadcast"
  },
  {
   "name" : "pthread_cond_clockwait"
  },
  {
   "name" : "pthread_cond_destroy"
  },
  {
   "name" : "pthread_cond_init"
  },
  {
   "name" : "pthread_cond_signal"
  },
  {
   "name" : "pthread_cond_timedwait"
  },
  {
   "name" : "pthread_cond_timedwait_monotonic"
  },
  {
   "name" : "pthread_cond_timedwait_monotonic_np"
  },
  {
   "name" : "pthread_cond_timedwait_relative_np"
  },
  {
   "name" : "pthread_cond_timeout_np"
  },
  {
   "name" : "pthread_cond_wait"
  },
  {
   "name" : "pthread_condattr_destroy"
  },
  {
   "name" : "pthread_condattr_getclock"
  },
  {
   "name" : "pthread_condattr_getpshared"
  },
  {
   "name" : "pthread_condattr_init"
  },
  {
   "name" : "pthread_condattr_setclock"
  },
  {
   "name" : "pthread_condattr_setpshared"
  },
  {
   "binding" : "weak",
   "name" : "pthread_create"
  },
  {
   "binding" : "weak",
   "name" : "pthread_detach"
  },
  {
   "name" : "pthread_equal"
  },
  {
   "binding" : "weak",
   "name" : "pthread_exit"
  },
  {
   "binding" : "weak",
   "name" : "pthread_getattr_np"
  },
  {
   "binding" : "weak",
   "name" : "pthread_getcpuclockid"
  },
  {
   "binding" : "weak",
   "name" : "pthread_getname_np"
  },
  {
   "binding" : "weak",
   "name" : "pthread_getschedparam"
  },
  {
   "binding" : "weak",
   "name" : "pthread_getspecific"
  },
  {
   "binding" : "weak",
   "name" : "pthread_gettid_np"
  },
  {
   "binding" : "weak",
   "name" : "pthread_join"
  },
  {
   "binding" : "weak",
   "name" : "pthread_key_create"
  },
  {
   "binding" : "weak",
   "name" : "pthread_key_delete"
  },
  {
   "binding" : "weak",
   "name" : "pthread_kill"
  },
  {
   "name" : "pthread_mutex_clocklock"
  },
  {
   "name" : "pthread_mutex_destroy"
  },
  {
   "name" : "pthread_mutex_init"
  },
  {
   "name" : "pthread_mutex_lock"
  },
  {
   "name" : "pthread_mutex_lock_timeout_np"
  },
  {
   "name" : "pthread_mutex_timedlock"
  },
  {
   "name" : "pthread_mutex_timedlock_monotonic_np"
  },
  {
   "name" : "pthread_mutex_trylock"
  },
  {
   "name" : "pthread_mutex_unlock"
  },
  {
   "name" : "pthread_mutexattr_destroy"
  },
  {
   "name" : "pthread_mutexattr_getprotocol"
  },
  {
   "name" : "pthread_mutexattr_getpshared"
  },
  {
   "name" : "pthread_mutexattr_gettype"
  },
  {
   "name" : "pthread_mutexattr_init"
  },
  {
   "name" : "pthread_mutexattr_setprotocol"
  },
  {
   "name" : "pthread_mutexattr_setpshared"
  },
  {
   "name" : "pthread_mutexattr_settype"
  },
  {
   "name" : "pthread_once"
  },
  {
   "name" : "pthread_rwlock_clockrdlock"
  },
  {
   "name" : "pthread_rwlock_clockwrlock"
  },
  {
   "name" : "pthread_rwlock_destroy"
  },
  {
   "name" : "pthread_rwlock_init"
  },
  {
   "name" : "pthread_rwlock_rdlock"
  },
  {
   "name" : "pthread_rwlock_timedrdlock"
  },
  {
   "name" : "pthread_rwlock_timedrdlock_monotonic_np"
  },
  {
   "name" : "pthread_rwlock_timedwrlock"
  },
  {
   "name" : "pthread_rwlock_timedwrlock_monotonic_np"
  },
  {
   "name" : "pthread_rwlock_tryrdlock"
  },
  {
   "name" : "pthread_rwlock_trywrlock"
  },
  {
   "name" : "pthread_rwlock_unlock"
  },
  {
   "name" : "pthread_rwlock_wrlock"
  },
  {
   "name" : "pthread_rwlockattr_destroy"
  },
  {
   "name" : "pthread_rwlockattr_getkind_np"
  },
  {
   "name" : "pthread_rwlockattr_getpshared"
  },
  {
   "name" : "pthread_rwlockattr_init"
  },
  {
   "name" : "pthread_rwlockattr_setkind_np"
  },
  {
   "name" : "pthread_rwlockattr_setpshared"
  },
  {
   "name" : "pthread_self"
  },
  {
   "binding" : "weak",
   "name" : "pthread_setname_np"
  },
  {
   "binding" : "weak",
   "name" : "pthread_setschedparam"
  },
  {
   "binding" : "weak",
   "name" : "pthread_setschedprio"
  },
  {
   "binding" : "weak",
   "name" : "pthread_setspecific"
  },
  {
   "name" : "pthread_sigmask"
  },
  {
   "name" : "pthread_sigmask64"
  },
  {
   "binding" : "weak",
   "name" : "pthread_sigqueue"
  },
  {
   "name" : "pthread_spin_destroy"
  },
  {
   "name" : "pthread_spin_init"
  },
  {
   "name" : "pthread_spin_lock"
  },
  {
   "name" : "pthread_spin_trylock"
  },
  {
   "name" : "pthread_spin_unlock"
  },
  {
   "name" : "ptrace"
  },
  {
   "name" : "ptsname"
  },
  {
   "name" : "ptsname_r"
  },
  {
   "name" : "putc"
  },
  {
   "name" : "putc_unlocked"
  },
  {
   "name" : "putchar"
  },
  {
   "name" : "putchar_unlocked"
  },
  {
   "name" : "putenv"
  },
  {
   "name" : "puts"
  },
  {
   "name" : "pututline"
  },
  {
   "name" : "putw"
  },
  {
   "name" : "putwc"
  },
  {
   "name" : "putwchar"
  },
  {
   "name" : "pvalloc"
  },
  {
   "name" : "pwrite"
  },
  {
   "name" : "pwrite64"
  },
  {
   "name" : "pwritev"
  },
  {
   "name" : "pwritev64"
  },
  {
   "name" : "qsort"
  },
  {
   "name" : "quick_exit"
  },
  {
   "name" : "quotactl"
  },
  {
   "name" : "raise"
  },
  {
   "name" : "rand"
  },
  {
   "name" : "rand_r"
  },
  {
   "name" : "random"
  },
  {
   "name" : "read"
  },
  {
   "name" : "readahead"
  },
  {
   "name" : "readdir"
  },
  {
   "name" : "readdir64"
  },
  {
   "name" : "readdir64_r"
  },
  {
   "name" : "readdir_r"
  },
  {
   "name" : "readlink"
  },
  {
   "name" : "readlinkat"
  },
  {
   "name" : "readv"
  },
  {
   "name" : "realloc"
  },
  {
   "name" : "reallocarray"
  },
  {
   "name" : "realpath"
  },
  {
   "name" : "reboot"
  },
  {
   "name" : "recv"
  },
  {
   "name" : "recvfrom"
  },
  {
   "name" : "recvmmsg"
  },
  {
   "name" : "recvmsg"
  },
  {
   "name" : "regcomp"
  },
  {
   "name" : "regerror"
  },
  {
   "name" : "regexec"
  },
  {
   "name" : "regfree"
  },
  {
   "name" : "remove"
  },
  {
   "name" : "removexattr"
  },
  {
   "name" : "remque"
  },
  {
   "name" : "rename"
  },
  {
   "name" : "renameat"
  },
  {
   "name" : "renameat2"
  },
  {
   "name" : "res_init"
  },
  {
   "name" : "res_mkquery"
  },
  {
   "name" : "res_query"
  },
  {
   "name" : "res_search"
  },
  {
   "name" : "rewind"
  },
  {
   "name" : "rewinddir"
  },
  {
   "name" : "rmdir"
  },
  {
   "name" : "sbrk"
  },
  {
   "name" : "scandir"
  },
  {
   "name" : "scandir64"
  },
  {
   "name" : "scandirat"
  },
  {
   "name" : "scandirat64"
  },
  {
   "name" : "scanf"
  },
  {
   "name" : "sched_get_priority_max"
  },
  {
   "name" : "sched_get_priority_min"
  },
  {
   "name" : "sched_getaffinity"
  },
  {
   "name" : "sched_getcpu"
  },
  {
   "name" : "sched_getparam"
  },
  {
   "name" : "sched_getscheduler"
  },
  {
   "name" : "sched_rr_get_interval"
  },
  {
   "name" : "sched_setaffinity"
  },
  {
   "name" : "sched_setparam"
  },
  {
   "name" : "sched_setscheduler"
  },
  {
   "name" : "sched_yield"
  },
  {
   "name" : "seed48"
  },
  {
   "name" : "seekdir"
  },
  {
   "name" : "select"
  },
  {
   "name" : "sem_clockwait"
  },
  {
   "name" : "sem_close"
  },
  {
   "name" : "sem_destroy"
  },
  {
   "name" : "sem_getvalue"
  },
  {
   "name" : "sem_init"
  },
  {
   "name" : "sem_open"
  },
  {
   "name" : "sem_post"
  },
  {
   "name" : "sem_timedwait"
  },
  {
   "name" : "sem_timedwait_monotonic_np"
  },
  {
   "name" : "sem_trywait"
  },
  {
   "name" : "sem_unlink"
  },
  {
   "name" : "sem_wait"
  },
  {
   "name" : "semctl"
  },
  {
   "name" : "semget"
  },
  {
   "name" : "semop"
  },
  {
   "name" : "semtimedop"
  },
  {
   "name" : "send"
  },
  {
   "name" : "sendfile"
  },
  {
   "name" : "sendfile64"
  },
  {
   "name" : "sendmmsg"
  },
  {
   "name" : "sendmsg"
  },
  {
   "name" : "sendto"
  },
  {
   "name" : "setbuf"
  },
  {
   "name" : "setbuffer"
  },
  {
   "name" : "setdomainname"
  },
  {
   "name" : "setegid"
  },
  {
   "name" : "setenv"
  },
  {
   "name" : "seteuid"
  },
  {
   "name" : "setfsgid"
  },
  {
   "name" : "setfsuid"
  },
  {
   "name" : "setgid"
  },
  {
   "name" : "setgrent"
  },
  {
   "name" : "setgroups"
  },
  {
   "name" : "sethostent"
  },
  {
   "name" : "sethostname"
  },
  {
   "name" : "setitimer"
  },
  {
   "binding" : "weak",
   "name" : "setjmp"
  },
  {
   "name" : "setlinebuf"
  },
  {
   "name" : "setlocale"
  },
  {
   "name" : "setlogmask"
  },
  {
   "name" : "setmntent"
  },
  {
   "name" : "setnetent"
  },
  {
   "name" : "setns"
  },
  {
   "name" : "setpgid"
  },
  {
   "name" : "setpgrp"
  },
  {
   "name" : "setpriority"
  },
  {
   "name" : "setprogname"
  },
  {
   "name" : "setprotoent"
  },
  {
   "name" : "setpwent"
  },
  {
   "name" : "setregid"
  },
  {
   "name" : "setresgid"
  },
  {
   "name" : "setresuid"
  },
  {
   "name" : "setreuid"
  },
  {
   "name" : "setrlimit"
  },
  {
   "name" : "setrlimit64"
  },
  {
   "name" : "setservent"
  },
  {
   "name" : "setsid"
  },
  {
   "name" : "setsockopt"
  },
  {
   "name" : "setstate"
  },
  {
   "name" : "settimeofday"
  },
  {
   "name" : "setuid"
  },
  {
   "name" : "setutent"
  },
  {
   "name" : "setvbuf"
  },
  {
   "name" : "setxattr"
  },
  {
   "name" : "shmat"
  },
  {
   "name" : "shmctl"
  },
  {
   "name" : "shmdt"
  },
  {
   "name" : "shmget"
  },
  {
   "name" : "shutdown"
  },
  {
   "name" : "sigaction"
  },
  {
   "name" : "sigaction64"
  },
  {
   "name" : "sigaddset"
  },
  {
   "name" : "sigaddset64"
  },
  {
   "name" : "sigaltstack"
  },
  {
   "name" : "sigblock"
  },
  {
   "name" : "sigdelset"
  },
  {
   "name" : "sigdelset64"
  },
  {
   "name" : "sigemptyset"
  },
  {
   "name" : "sigemptyset64"
  },
  {
   "name" : "sigfillset"
  },
  {
   "name" : "sigfillset64"
  },
  {
   "name" : "sighold"
  },
  {
   "name" : "sigignore"
  },
  {
   "name" : "siginterrupt"
  },
  {
   "name" : "sigismember"
  },
  {
   "name" : "sigismember64"
  },
  {
   "binding" : "weak",
   "name" : "siglongjmp"
  },
  {
   "name" : "signal"
  },
  {
   "name" : "signalfd"
  },
  {
   "name" : "signalfd64"
  },
  {
   "name" : "sigpause"
  },
  {
   "name" : "sigpending"
  },
  {
   "name" : "sigpending64"
  },
  {
   "name" : "sigprocmask"
  },
  {
   "name" : "sigprocmask64"
  },
  {
   "name" : "sigqueue"
  },
  {
   "name" : "sigrelse"
  },
  {
   "name" : "sigset"
  },
  {
   "binding" : "weak",
   "name" : "sigsetjmp"
  },
  {
   "name" : "sigsetmask"
  },
  {
   "name" : "sigsuspend"
  },
  {
   "name" : "sigsuspend64"
  },
  {
   "name" : "sigtimedwait"
  },
  {
   "name" : "sigtimedwait64"
  },
  {
   "name" : "sigwait"
  },
  {
   "name" : "sigwait64"
  },
  {
   "name" : "sigwaitinfo"
  },
  {
   "name" : "sigwaitinfo64"
  },
  {
   "name" : "sleep"
  },
  {
   "name" : "snprintf"
  },
  {
   "name" : "socket"
  },
  {
   "name" : "socketpair"
  },
  {
   "name" : "splice"
  },
  {
   "name" : "sprintf"
  },
  {
   "name" : "srand"
  },
  {
   "name" : "srand48"
  },
  {
   "name" : "srandom"
  },
  {
   "name" : "sscanf"
  },
  {
   "name" : "stat"
  },
  {
   "name" : "stat64"
  },
  {
   "name" : "statfs"
  },
  {
   "name" : "statfs64"
  },
  {
   "name" : "statvfs"
  },
  {
   "name" : "statvfs64"
  },
  {
   "name" : "statx"
  },
  {
   "name" : "stpcpy"
  },
  {
   "name" : "stpncpy"
  },
  {
   "name" : "strcasecmp"
  },
  {
   "name" : "strcasecmp_l"
  },
  {
   "name" : "strcasestr"
  },
  {
   "name" : "strcat"
  },
  {
   "name" : "strchr"
  },
  {
   "name" : "strchrnul"
  },
  {
   "name" : "strcmp"
  },
  {
   "name" : "strcoll"
  },
  {
   "name" : "strcoll_l"
  },
  {
   "name" : "strcpy"
  },
  {
   "name" : "strcspn"
  },
  {
   "name" : "strdup"
  },
  {
   "name" : "strerror"
  },
  {
   "name" : "strerror_l"
  },
  {
   "name" : "strerror_r"
  },
  {
   "name" : "strftime"
  },
  {
   "name" : "strftime_l"
  },
  {
   "name" : "strlcat"
  },
  {
   "name" : "strlcpy"
  },
  {
   "name" : "strlen"
  },
  {
   "name" : "strncasecmp"
  },
  {
   "name" : "strncasecmp_l"
  },
  {
   "name" : "strncat"
  },
  {
   "name" : "strncmp"
  },
  {
   "name" : "strncpy"
  },
  {
   "name" : "strndup"
  },
  {
   "name" : "strnlen"
  },
  {
   "name" : "strntoimax"
  },
  {
   "name" : "strntoumax"
  },
  {
   "name" : "strpbrk"
  },
  {
   "name" : "strptime"
  },
  {
   "name" : "strptime_l"
  },
  {
   "name" : "strrchr"
  },
  {
   "name" : "strsep"
  },
  {
   "name" : "strsignal"
  },
  {
   "name" : "strspn"
  },
  {
   "name" : "strstr"
  },
  {
   "name" : "strtod"
  },
  {
   "name" : "strtod_l"
  },
  {
   "name" : "strtof"
  },
  {
   "name" : "strtof_l"
  },
  {
   "name" : "strtoimax"
  },
  {
   "name" : "strtok"
  },
  {
   "name" : "strtok_r"
  },
  {
   "name" : "strtol"
  },
  {
   "name" : "strtol_l"
  },
  {
   "name" : "strtold"
  },
  {
   "name" : "strtold_l"
  },
  {
   "name" : "strtoll"
  },
  {
   "name" : "strtoll_l"
  },
  {
   "name" : "strtoq"
  },
  {
   "name" : "strtotimeval"
  },
  {
   "name" : "strtoul"
  },
  {
   "name" : "strtoul_l"
  },
  {
   "name" : "strtoull"
  },
  {
   "name" : "strtoull_l"
  },
  {
   "name" : "strtoumax"
  },
  {
   "name" : "strtouq"
  },
  {
   "name" : "strxfrm"
  },
  {
   "name" : "strxfrm_l"
  },
  {
   "name" : "swab"
  },
  {
   "name" : "swapoff"
  },
  {
   "name" : "swapon"
  },
  {
   "name" : "swprintf"
  },
  {
   "name" : "swscanf"
  },
  {
   "name" : "symlink"
  },
  {
   "name" : "symlinkat"
  },
  {
   "name" : "sync"
  },
  {
   "name" : "sync_file_range"
  },
  {
   "name" : "syncfs"
  },
  {
   "name" : "syscall"
  },
  {
   "name" : "sysconf"
  },
  {
   "name" : "sysinfo"
  },
  {
   "name" : "syslog"
  },
  {
   "name" : "system"
  },
  {
   "name" : "sysv_signal"
  },
  {
   "name" : "tcdrain"
  },
  {
   "name" : "tcflow"
  },
  {
   "name" : "tcflush"
  },
  {
   "name" : "tcgetattr"
  },
  {
   "name" : "tcgetpgrp"
  },
  {
   "name" : "tcgetsid"
  },
  {
   "name" : "tcsendbreak"
  },
  {
   "name" : "tcsetattr"
  },
  {
   "name" : "tcsetpgrp"
  },
  {
   "name" : "tdelete"
  },
  {
   "name" : "tdestroy"
  },
  {
   "name" : "tee"
  },
  {
   "name" : "telldir"
  },
  {
   "name" : "tempnam"
  },
  {
   "name" : "tfind"
  },
  {
   "name" : "tgkill"
  },
  {
   "name" : "thrd_create"
  },
  {
   "name" : "thrd_current"
  },
  {
   "name" : "thrd_detach"
  },
  {
   "name" : "thrd_equal"
  },
  {
   "name" : "thrd_exit"
  },
  {
   "name" : "thrd_join"
  },
  {
   "name" : "thrd_sleep"
  },
  {
   "name" : "thrd_yield"
  },
  {
   "name" : "time"
  },
  {
   "name" : "timegm"
  },
  {
   "name" : "timegm64"
  },
  {
   "name" : "timelocal"
  },
  {
   "name" : "timelocal64"
  },
  {
   "name" : "timer_create"
  },
  {
   "name" : "timer_delete"
  },
  {
   "name" : "timer_getoverrun"
  },
  {
   "name" : "timer_gettime"
  },
  {
   "name" : "timer_settime"
  },
  {
   "name" : "timerfd_create"
  },
  {
   "name" : "timerfd_gettime"
  },
  {
   "name" : "timerfd_settime"
  },
  {
   "name" : "times"
  },
  {
   "name" : "timespec_get"
  },
  {
   "name" : "tkill"
  },
  {
   "name" : "tmpfile"
  },
  {
   "name" : "tmpfile64"
  },
  {
   "name" : "tmpnam"
  },
  {
   "name" : "toascii"
  },
  {
   "name" : "tolower"
  },
  {
   "name" : "tolower_l"
  },
  {
   "name" : "toupper"
  },
  {
   "name" : "toupper_l"
  },
  {
   "name" : "towctrans"
  },
  {
   "name" : "towctrans_l"
  },
  {
   "name" : "towlower"
  },
  {
   "name" : "towlower_l"
  },
  {
   "name" : "towupper"
  },
  {
   "name" : "towupper_l"
  },
  {
   "name" : "truncate"
  },
  {
   "name" : "truncate64"
  },
  {
   "name" : "tsearch"
  },
  {
   "name" : "tss_create"
  },
  {
   "name" : "tss_delete"
  },
  {
   "name" : "tss_get"
  },
  {
   "name" : "tss_set"
  },
  {
   "name" : "ttyname"
  },
  {
   "name" : "ttyname_r"
  },
  {
   "name" : "twalk"
  },
  {
   "name" : "tzset"
  },
  {
   "name" : "umask"
  },
  {
   "name" : "umount"
  },
  {
   "name" : "umount2"
  },
  {
   "name" : "uname"
  },
  {
   "name" : "ungetc"
  },
  {
   "name" : "ungetwc"
  },
  {
   "name" : "unlink"
  },
  {
   "name" : "unlinkat"
  },
  {
   "name" : "unlockpt"
  },
  {
   "name" : "unsetenv"
  },
  {
   "name" : "unshare"
  },
  {
   "name" : "uselocale"
  },
  {
   "name" : "usleep"
  },
  {
   "name" : "utime"
  },
  {
   "name" : "utimensat"
  },
  {
   "name" : "utimes"
  },
  {
   "name" : "utmpname"
  },
  {
   "name" : "valloc"
  },
  {
   "name" : "vasprintf"
  },
  {
   "name" : "vdprintf"
  },
  {
   "name" : "verr"
  },
  {
   "name" : "verrx"
  },
  {
   "name" : "vfdprintf"
  },
  {
   "binding" : "weak",
   "name" : "vfork"
  },
  {
   "name" : "vfprintf"
  },
  {
   "name" : "vfscanf"
  },
  {
   "name" : "vfwprintf"
  },
  {
   "name" : "vfwscanf"
  },
  {
   "name" : "vmsplice"
  },
  {
   "name" : "vprintf"
  },
  {
   "name" : "vscanf"
  },
  {
   "name" : "vsnprintf"
  },
  {
   "name" : "vsprintf"
  },
  {
   "name" : "vsscanf"
  },
  {
   "name" : "vswprintf"
  },
  {
   "name" : "vswscanf"
  },
  {
   "name" : "vsyslog"
  },
  {
   "name" : "vwarn"
  },
  {
   "name" : "vwarnx"
  },
  {
   "name" : "vwprintf"
  },
  {
   "name" : "vwscanf"
  },
  {
   "name" : "wait"
  },
  {
   "name" : "wait3"
  },
  {
   "name" : "wait4"
  },
  {
   "name" : "waitid"
  },
  {
   "name" : "waitpid"
  },
  {
   "name" : "warn"
  },
  {
   "name" : "warnx"
  },
  {
   "name" : "wcpcpy"
  },
  {
   "name" : "wcpncpy"
  },
  {
   "name" : "wcrtomb"
  },
  {
   "name" : "wcscasecmp"
  },
  {
   "name" : "wcscasecmp_l"
  },
  {
   "name" : "wcscat"
  },
  {
   "name" : "wcschr"
  },
  {
   "name" : "wcscmp"
  },
  {
   "name" : "wcscoll"
  },
  {
   "name" : "wcscoll_l"
  },
  {
   "name" : "wcscpy"
  },
  {
   "name" : "wcscspn"
  },
  {
   "name" : "wcsdup"
  },
  {
   "name" : "wcsftime"
  },
  {
   "name" : "wcsftime_l"
  },
  {
   "name" : "wcslcat"
  },
  {
   "name" : "wcslcpy"
  },
  {
   "name" : "wcslen"
  },
  {
   "name" : "wcsncasecmp"
  },
  {
   "name" : "wcsncasecmp_l"
  },
  {
   "name" : "wcsncat"
  },
  {
   "name" : "wcsncmp"
  },
  {
   "name" : "wcsncpy"
  },
  {
   "name" : "wcsnlen"
  },
  {
   "name" : "wcsnrtombs"
  },
  {
   "name" : "wcspbrk"
  },
  {
   "name" : "wcsrchr"
  },
  {
   "name" : "wcsrtombs"
  },
  {
   "name" : "wcsspn"
  },
  {
   "name" : "wcsstr"
  },
  {
   "name" : "wcstod"
  },
  {
   "name" : "wcstod_l"
  },
  {
   "name" : "wcstof"
  },
  {
   "name" : "wcstof_l"
  },
  {
   "name" : "wcstoimax"
  },
  {
   "name" : "wcstok"
  },
  {
   "name" : "wcstol"
  },
  {
   "name" : "wcstol_l"
  },
  {
   "name" : "wcstold"
  },
  {
   "name" : "wcstold_l"
  },
  {
   "name" : "wcstoll"
  },
  {
   "name" : "wcstoll_l"
  },
  {
   "name" : "wcstombs"
  },
  {
   "name" : "wcstoul"
  },
  {
   "name" : "wcstoul_l"
  },
  {
   "name" : "wcstoull"
  },
  {
   "name" : "wcstoull_l"
  },
  {
   "name" : "wcstoumax"
  },
  {
   "name" : "wcswcs"
  },
  {
   "name" : "wcswidth"
  },
  {
   "name" : "wcsxfrm"
  },
  {
   "name" : "wcsxfrm_l"
  },
  {
   "name" : "wctob"
  },
  {
   "name" : "wctomb"
  },
  {
   "name" : "wctrans"
  },
  {
   "name" : "wctrans_l"
  },
  {
   "name" : "wctype"
  },
  {
   "name" : "wctype_l"
  },
  {
   "name" : "wcwidth"
  },
  {
   "name" : "wmemchr"
  },
  {
   "name" : "wmemcmp"
  },
  {
   "name" : "wmemcpy"
  },
  {
   "name" : "wmemmove"
  },
  {
   "name" : "wmempcpy"
  },
  {
   "name" : "wmemset"
  },
  {
   "name" : "wprintf"
  },
  {
   "name" : "write"
  },
  {
   "name" : "writev"
  },
  {
   "name" : "wscanf"
  }
 ],
 "elf_objects" :
 [
  {
   "name" : "__bionic_brk"
  },
  {
   "name" : "__bionic_libcrt_compat_symbols"
  },
  {
   "name" : "__dso_handle"
  },
  {
   "name" : "__free_hook"
  },
  {
   "name" : "__isthreaded"
  },
  {
   "name" : "__malloc_hook"
  },
  {
   "name" : "__memalign_hook"
  },
  {
   "name" : "__p_class_syms"
  },
  {
   "name" : "__p_type_syms"
  },
  {
   "name" : "__page_shift"
  },
  {
   "name" : "__page_size"
  },
  {
   "name" : "__popcount_tab"
  },
  {
   "name" : "__progname"
  },
  {
   "name" : "__realloc_hook"
  },
  {
   "name" : "__sF"
  },
  {
   "name" : "__sdidinit"
  },
  {
   "name" : "__sglue"
  },
  {
   "name" : "__stack_chk_guard"
  },
  {
   "binding" : "weak",
   "name" : "__system_property_area__"
  },
  {
   "name" : "_ctype_"
  },
  {
   "name" : "_tolower_tab_"
  },
  {
   "name" : "_toupper_tab_"
  },
  {
   "name" : "daylight"
  },
  {
   "binding" : "weak",
   "name" : "environ"
  },
  {
   "name" : "error_message_count"
  },
  {
   "name" : "error_one_per_line"
  },
  {
   "name" : "error_print_progname"
  },
  {
   "name" : "in6addr_any"
  },
  {
   "name" : "in6addr_loopback"
  },
  {
   "name" : "optarg"
  },
  {
   "name" : "opterr"
  },
  {
   "name" : "optind"
  },
  {
   "name" : "optopt"
  },
  {
   "name" : "optreset"
  },
  {
   "name" : "stderr"
  },
  {
   "name" : "stdin"
  },
  {
   "name" : "stdout"
  },
  {
   "name" : "sys_siglist"
  },
  {
   "name" : "sys_signame"
  },
  {
   "name" : "timezone"
  },
  {
   "name" : "tzname"
  }
 ],
 "enum_types" :
 [
  {
   "alignment" : 4,
   "enum_fields" :
   [
    {
     "enum_field_value" : 0,
     "name" : "ns_c_invalid"
    },
    {
     "enum_field_value" : 1,
     "name" : "ns_c_in"
    },
    {
     "enum_field_value" : 2,
     "name" : "ns_c_2"
    },
    {
     "enum_field_value" : 3,
     "name" : "ns_c_chaos"
    },
    {
     "enum_field_value" : 4,
     "name" : "ns_c_hs"
    },
    {
     "enum_field_value" : 254,
     "name" : "ns_c_none"
    },
    {
     "enum_field_value" : 255,
     "name" : "ns_c_any"
    },
    {
     "enum_field_value" : 65536,
     "name" : "ns_c_max"
    }
   ],
   "linker_set_key" : "_ZTI10__ns_class",
   "name" : "__ns_class",
   "referenced_type" : "_ZTI10__ns_class",
   "self_type" : "_ZTI10__ns_class",
   "size" : 4,
   "source_file" : "/bionic/libc/include/arpa/nameser.h",
   "underlying_type" : "_ZTIj"
  },
  {
   "alignment" : 4,
   "enum_fields" :
   [
    {
     "enum_field_value" : 0,
     "name" : "ns_r_noerror"
    },
    {
     "enum_field_value" : 1,
     "name" : "ns_r_formerr"
    },
    {
     "enum_field_value" : 2,
     "name" : "ns_r_servfail"
    },
    {
     "enum_field_value" : 3,
     "name" : "ns_r_nxdomain"
    },
    {
     "enum_field_value" : 4,
     "name" : "ns_r_notimpl"
    },
    {
     "enum_field_value" : 5,
     "name" : "ns_r_refused"
    },
    {
     "enum_field_value" : 6,
     "name" : "ns_r_yxdomain"
    },
    {
     "enum_field_value" : 7,
     "name" : "ns_r_yxrrset"
    },
    {
     "enum_field_value" : 8,
     "name" : "ns_r_nxrrset"
    },
    {
     "enum_field_value" : 9,
     "name" : "ns_r_notauth"
    },
    {
     "enum_field_value" : 10,
     "name" : "ns_r_notzone"
    },
    {
     "enum_field_value" : 11,
     "name" : "ns_r_max"
    },
    {
     "enum_field_value" : 16,
     "name" : "ns_r_badvers"
    },
    {
     "enum_field_value" : 16,
     "name" : "ns_r_badsig"
    },
    {
     "enum_field_value" : 17,
     "name" : "ns_r_badkey"
    },
    {
     "enum_field_value" : 18,
     "name" : "ns_r_badtime"
    }
   ],
   "linker_set_key" : "_ZTI10__ns_rcode",
   "name" : "__ns_rcode",
   "referenced_type" : "_ZTI10__ns_rcode",
   "self_type" : "_ZTI10__ns_rcode",
   "size" : 4,
   "source_file" : "/bionic/libc/include/arpa/nameser.h",
   "underlying_type" : "_ZTIj"
  },
  {
   "alignment" : 4,
   "enum_fields" :
   [
    {
     "enum_field_value" : 0,
     "name" : "ns_o_query"
    },
    {
     "enum_field_value" : 1,
     "name" : "ns_o_iquery"
    },
    {
     "enum_field_value" : 2,
     "name" : "ns_o_status"
    },
    {
     "enum_field_value" : 4,
     "name" : "ns_o_notify"
    },
    {
     "enum_field_value" : 5,
     "name" : "ns_o_update"
    },
    {
     "enum_field_value" : 6,
     "name" : "ns_o_max"
    }
   ],
   "linker_set_key" : "_ZTI11__ns_opcode",
   "name" : "__ns_opcode",
   "referenced_type" : "_ZTI11__ns_opcode",
   "self_type" : "_ZTI11__ns_opcode",
   "size" : 4,
   "source_file" : "/bionic/libc/include/arpa/nameser.h",
   "underlying_type" : "_ZTIj"
  },
  {
   "alignment" : 4,
   "enum_fields" :
   [
    {
     "enum_field_value" : 0,
     "name" : "memory_order_relaxed"
    },
    {
     "enum_field_value" : 1,
     "name" : "memory_order_consume"
    },
    {
     "enum_field_value" : 2,
     "name" : "memory_order_acquire"
    },
    {
     "enum_field_value" : 3,
     "name" : "memory_order_release"
    },
    {
     "enum_field_value" : 4,
     "name" : "memory_order_acq_rel"
    },
    {
     "enum_field_value" : 5,
     "name" : "memory_order_seq_cst"
    }
   ],
   "linker_set_key" : "_ZTI12memory_order",
   "name" : "memory_order",
   "referenced_type" : "_ZTI12memory_order",
   "self_type" : "_ZTI12memory_order",
   "size" : 4,
   "source_file" : "/bionic/libc/include/bits/stdatomic.h",
   "underlying_type" : "_ZTIj"
  },
  {
   "alignment" : 4,
   "enum_fields" :
   [
    {
     "enum_field_value" : 1,
     "name" : "ns_kt_rsa"
    },
    {
     "enum_field_value" : 2,
     "name" : "ns_kt_dh"
    },
    {
     "enum_field_value" : 3,
     "name" : "ns_kt_dsa"
    },
    {
     "enum_field_value" : 254,
     "name" : "ns_kt_private"
    }
   ],
   "linker_set_key" : "_ZTI14__ns_key_types",
   "name" : "__ns_key_types",
   "referenced_type" : "_ZTI14__ns_key_types",
   "self_type" : "_ZTI14__ns_key_types",
   "size" : 4,
   "source_file" : "/bionic/libc/include/arpa/nameser.h",
   "underlying_type" : "_ZTIj"
  },
  {
   "alignment" : 4,
   "enum_fields" :
   [
    {
     "enum_field_value" : 1,
     "name" : "cert_t_pkix"
    },
    {
     "enum_field_value" : 2,
     "name" : "cert_t_spki"
    },
    {
     "enum_field_value" : 3,
     "name" : "cert_t_pgp"
    },
    {
     "enum_field_value" : 253,
     "name" : "cert_t_url"
    },
    {
     "enum_field_value" : 254,
     "name" : "cert_t_oid"
    }
   ],
   "linker_set_key" : "_ZTI15__ns_cert_types",
   "name" : "__ns_cert_types",
   "referenced_type" : "_ZTI15__ns_cert_types",
   "self_type" : "_ZTI15__ns_cert_types",
   "size" : 4,
   "source_file" : "/bionic/libc/include/arpa/nameser.h",
   "underlying_type" : "_ZTIj"
  },
  {
   "alignment" : 4,
   "enum_fields" :
   [
    {
     "enum_field_value" : 0,
     "name" : "ns_uop_delete"
    },
    {
     "enum_field_value" : 1,
     "name" : "ns_uop_add"
    },
    {
     "enum_field_value" : 2,
     "name" : "ns_uop_max"
    }
   ],
   "linker_set_key" : "_ZTI21__ns_update_operation",
   "name" : "__ns_update_operation",
   "referenced_type" : "_ZTI21__ns_update_operation",
   "self_type" : "_ZTI21__ns_update_operation",
   "size" : 4,
   "source_file" : "/bionic/libc/include/arpa/nameser.h",
   "underlying_type" : "_ZTIj"
  },
  {
   "alignment" : 4,
   "enum_fields" :
   [
    {
     "enum_field_value" : 0,
     "name" : "PTHREAD_MUTEX_NORMAL"
    },
    {
     "enum_field_value" : 1,
     "name" : "PTHREAD_MUTEX_RECURSIVE"
    },
    {
     "enum_field_value" : 2,
     "name" : "PTHREAD_MUTEX_ERRORCHECK"
    },
    {
     "enum_field_value" : 2,
     "name" : "PTHREAD_MUTEX_ERRORCHECK_NP"
    },
    {
     "enum_field_value" : 1,
     "name" : "PTHREAD_MUTEX_RECURSIVE_NP"
    },
    {
     "enum_field_value" : 0,
     "name" : "PTHREAD_MUTEX_DEFAULT"
    }
   ],
   "linker_set_key" : "_ZTI22$PTHREAD_MUTEX_DEFAULT",
   "name" : "(anonymous enum at bionic/libc/include/pthread.h:41:1)",
   "referenced_type" : "_ZTI22$PTHREAD_MUTEX_DEFAULT",
   "self_type" : "_ZTI22$PTHREAD_MUTEX_DEFAULT",
   "size" : 4,
   "source_file" : "/bionic/libc/include/pthread.h",
   "underlying_type" : "_ZTIj"
  },
  {
   "alignment" : 4,
   "enum_fields" :
   [
    {
     "enum_field_value" : 0,
     "name" : "ANDROID_FDSAN_OWNER_TYPE_GENERIC_00"
    },
    {
     "enum_field_value" : 255,
     "name" : "ANDROID_FDSAN_OWNER_TYPE_GENERIC_FF"
    },
    {
     "enum_field_value" : 1,
     "name" : "ANDROID_FDSAN_OWNER_TYPE_FILE"
    },
    {
     "enum_field_value" : 2,
     "name" : "ANDROID_FDSAN_OWNER_TYPE_DIR"
    },
    {
     "enum_field_value" : 3,
     "name" : "ANDROID_FDSAN_OWNER_TYPE_UNIQUE_FD"
    },
    {
     "enum_field_value" : 4,
     "name" : "ANDROID_FDSAN_OWNER_TYPE_SQLITE"
    },
    {
     "enum_field_value" : 5,
     "name" : "ANDROID_FDSAN_OWNER_TYPE_FILEINPUTSTREAM"
    },
    {
     "enum_field_value" : 6,
     "name" : "ANDROID_FDSAN_OWNER_TYPE_FILEOUTPUTSTREAM"
    },
    {
     "enum_field_value" : 7,
     "name" : "ANDROID_FDSAN_OWNER_TYPE_RANDOMACCESSFILE"
    },
    {
     "enum_field_value" : 8,
     "name" : "ANDROID_FDSAN_OWNER_TYPE_PARCELFILEDESCRIPTOR"
    },
    {
     "enum_field_value" : 9,
     "name" : "ANDROID_FDSAN_OWNER_TYPE_ART_FDFILE"
    },
    {
     "enum_field_value" : 10,
     "name" : "ANDROID_FDSAN_OWNER_TYPE_DATAGRAMSOCKETIMPL"
    },
    {
     "enum_field_value" : 11,
     "name" : "ANDROID_FDSAN_OWNER_TYPE_SOCKETIMPL"
    },
    {
     "enum_field_value" : 12,
     "name" : "ANDROID_FDSAN_OWNER_TYPE_ZIPARCHIVE"
    }
   ],
   "linker_set_key" : "_ZTI24android_fdsan_owner_type",
   "name" : "android_fdsan_owner_type",
   "referenced_type" : "_ZTI24android_fdsan_owner_type",
   "self_type" : "_ZTI24android_fdsan_owner_type",
   "size" : 4,
   "source_file" : "/bionic/libc/include/android/fdsan.h",
   "underlying_type" : "_ZTIj"
  },
  {
   "alignment" : 4,
   "enum_fields" :
   [
    {
     "enum_field_value" : 1,
     "name" : "ANDROID_DLEXT_RESERVED_ADDRESS"
    },
    {
     "enum_field_value" : 2,
     "name" : "ANDROID_DLEXT_RESERVED_ADDRESS_HINT"
    },
    {
     "enum_field_value" : 4,
     "name" : "ANDROID_DLEXT_WRITE_RELRO"
    },
    {
     "enum_field_value" : 8,
     "name" : "ANDROID_DLEXT_USE_RELRO"
    },
    {
     "enum_field_value" : 16,
     "name" : "ANDROID_DLEXT_USE_LIBRARY_FD"
    },
    {
     "enum_field_value" : 32,
     "name" : "ANDROID_DLEXT_USE_LIBRARY_FD_OFFSET"
    },
    {
     "enum_field_value" : 64,
     "name" : "ANDROID_DLEXT_FORCE_LOAD"
    },
    {
     "enum_field_value" : 512,
     "name" : "ANDROID_DLEXT_USE_NAMESPACE"
    },
    {
     "enum_field_value" : 1024,
     "name" : "ANDROID_DLEXT_RESERVED_ADDRESS_RECURSIVE"
    },
    {
     "enum_field_value" : 1663,
     "name" : "ANDROID_DLEXT_VALID_FLAG_BITS"
    }
   ],
   "linker_set_key" : "_ZTI25$ANDROID_DLEXT_FORCE_LOAD",
   "name" : "(anonymous enum at bionic/libc/include/android/dlext.h:41:1)",
   "referenced_type" : "_ZTI25$ANDROID_DLEXT_FORCE_LOAD",
   "self_type" : "_ZTI25$ANDROID_DLEXT_FORCE_LOAD",
   "size" : 4,
   "source_file" : "/bionic/libc/include/android/dlext.h",
   "underlying_type" : "_ZTIj"
  },
  {
   "alignment" : 4,
   "enum_fields" :
   [
    {
     "enum_field_value" : 0,
     "name" : "ANDROID_FDSAN_ERROR_LEVEL_DISABLED"
    },
    {
     "enum_field_value" : 1,
     "name" : "ANDROID_FDSAN_ERROR_LEVEL_WARN_ONCE"
    },
    {
     "enum_field_value" : 2,
     "name" : "ANDROID_FDSAN_ERROR_LEVEL_WARN_ALWAYS"
    },
    {
     "enum_field_value" : 3,
     "name" : "ANDROID_FDSAN_ERROR_LEVEL_FATAL"
    }
   ],
   "linker_set_key" : "_ZTI25android_fdsan_error_level",
   "name" : "android_fdsan_error_level",
   "referenced_type" : "_ZTI25android_fdsan_error_level",
   "self_type" : "_ZTI25android_fdsan_error_level",
   "size" : 4,
   "source_file" : "/bionic/libc/include/android/fdsan.h",
   "underlying_type" : "_ZTIj"
  },
  {
   "alignment" : 4,
   "enum_fields" :
   [
    {
     "enum_field_value" : 0,
     "name" : "PTHREAD_RWLOCK_PREFER_READER_NP"
    },
    {
     "enum_field_value" : 1,
     "name" : "PTHREAD_RWLOCK_PREFER_WRITER_NONRECURSIVE_NP"
    }
   ],
   "linker_set_key" : "_ZTI32$PTHREAD_RWLOCK_PREFER_READER_NP",
   "name" : "(anonymous enum at bionic/libc/include/pthread.h:63:1)",
   "referenced_type" : "_ZTI32$PTHREAD_RWLOCK_PREFER_READER_NP",
   "self_type" : "_ZTI32$PTHREAD_RWLOCK_PREFER_READER_NP",
   "size" : 4,
   "source_file" : "/bionic/libc/include/pthread.h",
   "underlying_type" : "_ZTIj"
  },
  {
   "alignment" : 4,
   "enum_fields" :
   [
    {
     "enum_field_value" : 0,
     "name" : "preorder"
    },
    {
     "enum_field_value" : 1,
     "name" : "postorder"
    },
    {
     "enum_field_value" : 2,
     "name" : "endorder"
    },
    {
     "enum_field_value" : 3,
     "name" : "leaf"
    }
   ],
   "linker_set_key" : "_ZTI5VISIT",
   "name" : "VISIT",
   "referenced_type" : "_ZTI5VISIT",
   "self_type" : "_ZTI5VISIT",
   "size" : 4,
   "source_file" : "/bionic/libc/include/search.h",
   "underlying_type" : "_ZTIj"
  },
  {
   "alignment" : 4,
   "enum_fields" :
   [
    {
     "enum_field_value" : 0,
     "name" : "FIND"
    },
    {
     "enum_field_value" : 1,
     "name" : "ENTER"
    }
   ],
   "linker_set_key" : "_ZTI6ACTION",
   "name" : "ACTION",
   "referenced_type" : "_ZTI6ACTION",
   "self_type" : "_ZTI6ACTION",
   "size" : 4,
   "source_file" : "/bionic/libc/include/search.h",
   "underlying_type" : "_ZTIj"
  },
  {
   "alignment" : 4,
   "enum_fields" :
   [
    {
     "enum_field_value" : 0,
     "name" : "REG_R0"
    },
    {
     "enum_field_value" : 1,
     "name" : "REG_R1"
    },
    {
     "enum_field_value" : 2,
     "name" : "REG_R2"
    },
    {
     "enum_field_value" : 3,
     "name" : "REG_R3"
    },
    {
     "enum_field_value" : 4,
     "name" : "REG_R4"
    },
    {
     "enum_field_value" : 5,
     "name" : "REG_R5"
    },
    {
     "enum_field_value" : 6,
     "name" : "REG_R6"
    },
    {
     "enum_field_value" : 7,
     "name" : "REG_R7"
    },
    {
     "enum_field_value" : 8,
     "name" : "REG_R8"
    },
    {
     "enum_field_value" : 9,
     "name" : "REG_R9"
    },
    {
     "enum_field_value" : 10,
     "name" : "REG_R10"
    },
    {
     "enum_field_value" : 11,
     "name" : "REG_R11"
    },
    {
     "enum_field_value" : 12,
     "name" : "REG_R12"
    },
    {
     "enum_field_value" : 13,
     "name" : "REG_R13"
    },
    {
     "enum_field_value" : 14,
     "name" : "REG_R14"
    },
    {
     "enum_field_value" : 15,
     "name" : "REG_R15"
    }
   ],
   "linker_set_key" : "_ZTI7$REG_R0",
   "name" : "(anonymous enum at bionic/libc/include/sys/ucontext.h:41:1)",
   "referenced_type" : "_ZTI7$REG_R0",
   "self_type" : "_ZTI7$REG_R0",
   "size" : 4,
   "source_file" : "/bionic/libc/include/sys/ucontext.h",
   "underlying_type" : "_ZTIj"
  },
  {
   "alignment" : 4,
   "enum_fields" :
   [
    {
     "enum_field_value" : 0,
     "name" : "SHUT_RD"
    },
    {
     "enum_field_value" : 1,
     "name" : "SHUT_WR"
    },
    {
     "enum_field_value" : 2,
     "name" : "SHUT_RDWR"
    }
   ],
   "linker_set_key" : "_ZTI8$SHUT_RD",
   "name" : "(anonymous enum at bionic/libc/include/sys/socket.h:60:1)",
   "referenced_type" : "_ZTI8$SHUT_RD",
   "self_type" : "_ZTI8$SHUT_RD",
   "size" : 4,
   "source_file" : "/bionic/libc/include/sys/socket.h",
   "underlying_type" : "_ZTIj"
  },
  {
   "alignment" : 4,
   "enum_fields" :
   [
    {
     "enum_field_value" : 0,
     "name" : "ns_f_qr"
    },
    {
     "enum_field_value" : 1,
     "name" : "ns_f_opcode"
    },
    {
     "enum_field_value" : 2,
     "name" : "ns_f_aa"
    },
    {
     "enum_field_value" : 3,
     "name" : "ns_f_tc"
    },
    {
     "enum_field_value" : 4,
     "name" : "ns_f_rd"
    },
    {
     "enum_field_value" : 5,
     "name" : "ns_f_ra"
    },
    {
     "enum_field_value" : 6,
     "name" : "ns_f_z"
    },
    {
     "enum_field_value" : 7,
     "name" : "ns_f_ad"
    },
    {
     "enum_field_value" : 8,
     "name" : "ns_f_cd"
    },
    {
     "enum_field_value" : 9,
     "name" : "ns_f_rcode"
    },
    {
     "enum_field_value" : 10,
     "name" : "ns_f_max"
    }
   ],
   "linker_set_key" : "_ZTI9__ns_flag",
   "name" : "__ns_flag",
   "referenced_type" : "_ZTI9__ns_flag",
   "self_type" : "_ZTI9__ns_flag",
   "size" : 4,
   "source_file" : "/bionic/libc/include/arpa/nameser.h",
   "underlying_type" : "_ZTIj"
  },
  {
   "alignment" : 4,
   "enum_fields" :
   [
    {
     "enum_field_value" : 0,
     "name" : "ns_s_qd"
    },
    {
     "enum_field_value" : 0,
     "name" : "ns_s_zn"
    },
    {
     "enum_field_value" : 1,
     "name" : "ns_s_an"
    },
    {
     "enum_field_value" : 1,
     "name" : "ns_s_pr"
    },
    {
     "enum_field_value" : 2,
     "name" : "ns_s_ns"
    },
    {
     "enum_field_value" : 2,
     "name" : "ns_s_ud"
    },
    {
     "enum_field_value" : 3,
     "name" : "ns_s_ar"
    },
    {
     "enum_field_value" : 4,
     "name" : "ns_s_max"
    }
   ],
   "linker_set_key" : "_ZTI9__ns_sect",
   "name" : "__ns_sect",
   "referenced_type" : "_ZTI9__ns_sect",
   "self_type" : "_ZTI9__ns_sect",
   "size" : 4,
   "source_file" : "/bionic/libc/include/arpa/nameser.h",
   "underlying_type" : "_ZTIj"
  },
  {
   "alignment" : 4,
   "enum_fields" :
   [
    {
     "enum_field_value" : 0,
     "name" : "ns_t_invalid"
    },
    {
     "enum_field_value" : 1,
     "name" : "ns_t_a"
    },
    {
     "enum_field_value" : 2,
     "name" : "ns_t_ns"
    },
    {
     "enum_field_value" : 3,
     "name" : "ns_t_md"
    },
    {
     "enum_field_value" : 4,
     "name" : "ns_t_mf"
    },
    {
     "enum_field_value" : 5,
     "name" : "ns_t_cname"
    },
    {
     "enum_field_value" : 6,
     "name" : "ns_t_soa"
    },
    {
     "enum_field_value" : 7,
     "name" : "ns_t_mb"
    },
    {
     "enum_field_value" : 8,
     "name" : "ns_t_mg"
    },
    {
     "enum_field_value" : 9,
     "name" : "ns_t_mr"
    },
    {
     "enum_field_value" : 10,
     "name" : "ns_t_null"
    },
    {
     "enum_field_value" : 11,
     "name" : "ns_t_wks"
    },
    {
     "enum_field_value" : 12,
     "name" : "ns_t_ptr"
    },
    {
     "enum_field_value" : 13,
     "name" : "ns_t_hinfo"
    },
    {
     "enum_field_value" : 14,
     "name" : "ns_t_minfo"
    },
    {
     "enum_field_value" : 15,
     "name" : "ns_t_mx"
    },
    {
     "enum_field_value" : 16,
     "name" : "ns_t_txt"
    },
    {
     "enum_field_value" : 17,
     "name" : "ns_t_rp"
    },
    {
     "enum_field_value" : 18,
     "name" : "ns_t_afsdb"
    },
    {
     "enum_field_value" : 19,
     "name" : "ns_t_x25"
    },
    {
     "enum_field_value" : 20,
     "name" : "ns_t_isdn"
    },
    {
     "enum_field_value" : 21,
     "name" : "ns_t_rt"
    },
    {
     "enum_field_value" : 22,
     "name" : "ns_t_nsap"
    },
    {
     "enum_field_value" : 23,
     "name" : "ns_t_nsap_ptr"
    },
    {
     "enum_field_value" : 24,
     "name" : "ns_t_sig"
    },
    {
     "enum_field_value" : 25,
     "name" : "ns_t_key"
    },
    {
     "enum_field_value" : 26,
     "name" : "ns_t_px"
    },
    {
     "enum_field_value" : 27,
     "name" : "ns_t_gpos"
    },
    {
     "enum_field_value" : 28,
     "name" : "ns_t_aaaa"
    },
    {
     "enum_field_value" : 29,
     "name" : "ns_t_loc"
    },
    {
     "enum_field_value" : 30,
     "name" : "ns_t_nxt"
    },
    {
     "enum_field_value" : 31,
     "name" : "ns_t_eid"
    },
    {
     "enum_field_value" : 32,
     "name" : "ns_t_nimloc"
    },
    {
     "enum_field_value" : 33,
     "name" : "ns_t_srv"
    },
    {
     "enum_field_value" : 34,
     "name" : "ns_t_atma"
    },
    {
     "enum_field_value" : 35,
     "name" : "ns_t_naptr"
    },
    {
     "enum_field_value" : 36,
     "name" : "ns_t_kx"
    },
    {
     "enum_field_value" : 37,
     "name" : "ns_t_cert"
    },
    {
     "enum_field_value" : 38,
     "name" : "ns_t_a6"
    },
    {
     "enum_field_value" : 39,
     "name" : "ns_t_dname"
    },
    {
     "enum_field_value" : 40,
     "name" : "ns_t_sink"
    },
    {
     "enum_field_value" : 41,
     "name" : "ns_t_opt"
    },
    {
     "enum_field_value" : 42,
     "name" : "ns_t_apl"
    },
    {
     "enum_field_value" : 43,
     "name" : "ns_t_ds"
    },
    {
     "enum_field_value" : 44,
     "name" : "ns_t_sshfp"
    },
    {
     "enum_field_value" : 45,
     "name" : "ns_t_ipseckey"
    },
    {
     "enum_field_value" : 46,
     "name" : "ns_t_rrsig"
    },
    {
     "enum_field_value" : 47,
     "name" : "ns_t_nsec"
    },
    {
     "enum_field_value" : 48,
     "name" : "ns_t_dnskey"
    },
    {
     "enum_field_value" : 49,
     "name" : "ns_t_dhcid"
    },
    {
     "enum_field_value" : 50,
     "name" : "ns_t_nsec3"
    },
    {
     "enum_field_value" : 51,
     "name" : "ns_t_nsec3param"
    },
    {
     "enum_field_value" : 55,
     "name" : "ns_t_hip"
    },
    {
     "enum_field_value" : 99,
     "name" : "ns_t_spf"
    },
    {
     "enum_field_value" : 249,
     "name" : "ns_t_tkey"
    },
    {
     "enum_field_value" : 250,
     "name" : "ns_t_tsig"
    },
    {
     "enum_field_value" : 251,
     "name" : "ns_t_ixfr"
    },
    {
     "enum_field_value" : 252,
     "name" : "ns_t_axfr"
    },
    {
     "enum_field_value" : 253,
     "name" : "ns_t_mailb"
    },
    {
     "enum_field_value" : 254,
     "name" : "ns_t_maila"
    },
    {
     "enum_field_value" : 255,
     "name" : "ns_t_any"
    },
    {
     "enum_field_value" : 256,
     "name" : "ns_t_zxfr"
    },
    {
     "enum_field_value" : 32769,
     "name" : "ns_t_dlv"
    },
    {
     "enum_field_value" : 65536,
     "name" : "ns_t_max"
    }
   ],
   "linker_set_key" : "_ZTI9__ns_type",
   "name" : "__ns_type",
   "referenced_type" : "_ZTI9__ns_type",
   "self_type" : "_ZTI9__ns_type",
   "size" : 4,
   "source_file" : "/bionic/libc/include/arpa/nameser.h",
   "underlying_type" : "_ZTIj"
  },
  {
   "alignment" : 4,
   "enum_fields" :
   [
    {
     "enum_field_value" : 0,
     "name" : "r_debug::RT_CONSISTENT"
    },
    {
     "enum_field_value" : 1,
     "name" : "r_debug::RT_ADD"
    },
    {
     "enum_field_value" : 2,
     "name" : "r_debug::RT_DELETE"
    }
   ],
   "linker_set_key" : "_ZTIN7r_debug7$RT_ADDE",
   "name" : "r_debug::(anonymous enum at bionic/libc/include/link.h:83:3)",
   "referenced_type" : "_ZTIN7r_debug7$RT_ADDE",
   "self_type" : "_ZTIN7r_debug7$RT_ADDE",
   "size" : 4,
   "source_file" : "/bionic/libc/include/link.h",
   "underlying_type" : "_ZTIj"
  }
 ],
 "function_types" :
 [
  {
   "alignment" : 4,
   "linker_set_key" : "_ZTIFP6direntPvE",
   "name" : "dirent *(void *)",
   "parameters" :
   [
    {
     "referenced_type" : "_ZTIPv"
    }
   ],
   "referenced_type" : "_ZTIFP6direntPvE",
   "return_type" : "_ZTIP6dirent",
   "self_type" : "_ZTIFP6direntPvE",
   "source_file" : "/bionic/libc/include/glob.h"
  },
  {
   "alignment" : 4,
   "linker_set_key" : "_ZTIFPvPKcE",
   "name" : "void *(const char *)",
   "parameters" :
   [
    {
     "referenced_type" : "_ZTIPKc"
    }
   ],
   "referenced_type" : "_ZTIFPvPKcE",
   "return_type" : "_ZTIPv",
   "self_type" : "_ZTIFPvPKcE",
   "source_file" : "/bionic/libc/include/glob.h"
  },
  {
   "alignment" : 4,
   "linker_set_key" : "_ZTIFPvS_E",
   "name" : "void *(void *)",
   "parameters" :
   [
    {
     "referenced_type" : "_ZTIPv"
    }
   ],
   "referenced_type" : "_ZTIFPvS_E",
   "return_type" : "_ZTIPv",
   "self_type" : "_ZTIFPvS_E",
   "source_file" : "/bionic/libc/include/pthread.h"
  },
  {
   "alignment" : 4,
   "linker_set_key" : "_ZTIFPvS_jPKvE",
   "name" : "void *(void *, unsigned int, const void *)",
   "parameters" :
   [
    {
     "referenced_type" : "_ZTIPv"
    },
    {
     "referenced_type" : "_ZTIj"
    },
    {
     "referenced_type" : "_ZTIPKv"
    }
   ],
   "referenced_type" : "_ZTIFPvS_jPKvE",
   "return_type" : "_ZTIPv",
   "self_type" : "_ZTIFPvS_jPKvE",
   "source_file" : "/bionic/libc/include/malloc.h"
  },
  {
   "alignment" : 4,
   "linker_set_key" : "_ZTIFPvjPKvE",
   "name" : "void *(unsigned int, const void *)",
   "parameters" :
   [
    {
     "referenced_type" : "_ZTIj"
    },
    {
     "referenced_type" : "_ZTIPKv"
    }
   ],
   "referenced_type" : "_ZTIFPvjPKvE",
   "return_type" : "_ZTIPv",
   "self_type" : "_ZTIFPvjPKvE",
   "source_file" : "/bionic/libc/include/malloc.h"
  },
  {
   "alignment" : 4,
   "linker_set_key" : "_ZTIFPvjjPKvE",
   "name" : "void *(unsigned int, unsigned int, const void *)",
   "parameters" :
   [
    {
     "referenced_type" : "_ZTIj"
    },
    {
     "referenced_type" : "_ZTIj"
    },
    {
     "referenced_type" : "_ZTIPKv"
    }
   ],
   "referenced_type" : "_ZTIFPvjjPKvE",
   "return_type" : "_ZTIPv",
   "self_type" : "_ZTIFPvjjPKvE",
   "source_file" : "/bionic/libc/include/malloc.h"
  },
  {
   "alignment" : 4,
   "linker_set_key" : "_ZTIFiPKcP4statE",
   "name" : "int (const char *, stat *)",
   "parameters" :
   [
    {
     "referenced_type" : "_ZTIPKc"
    },
    {
     "referenced_type" : "_ZTIP4stat"
    }
   ],
   "referenced_type" : "_ZTIFiPKcP4statE",
   "return_type" : "_ZTIi",
   "self_type" : "_ZTIFiPKcP4statE",
   "source_file" : "/bionic/libc/include/glob.h"
  },
  {
   "alignment" : 4,
   "linker_set_key" : "_ZTIFiPKciE",
   "name" : "int (const char *, int)",
   "parameters" :
   [
    {
     "referenced_type" : "_ZTIPKc"
    },
    {
     "referenced_type" : "_ZTIi"
    }
   ],
   "referenced_type" : "_ZTIFiPKciE",
   "return_type" : "_ZTIi",
   "self_type" : "_ZTIFiPKciE",
   "source_file" : "/bionic/libc/include/glob.h"
  },
  {
   "alignment" : 4,
   "linker_set_key" : "_ZTIFiPKvS0_E",
   "name" : "int (const void *, const void *)",
   "parameters" :
   [
    {
     "referenced_type" : "_ZTIPKv"
    },
    {
     "referenced_type" : "_ZTIPKv"
    }
   ],
   "referenced_type" : "_ZTIFiPKvS0_E",
   "return_type" : "_ZTIi",
   "self_type" : "_ZTIFiPKvS0_E",
   "source_file" : "/bionic/libc/include/search.h"
  },
  {
   "alignment" : 4,
   "linker_set_key" : "_ZTIFvPK9prop_infoPvE",
   "name" : "void (const prop_info *, void *)",
   "parameters" :
   [
    {
     "referenced_type" : "_ZTIPK9prop_info"
    },
    {
     "referenced_type" : "_ZTIPv"
    }
   ],
   "referenced_type" : "_ZTIFvPK9prop_infoPvE",
   "return_type" : "_ZTIv",
   "self_type" : "_ZTIFvPK9prop_infoPvE",
   "source_file" : "/bionic/libc/system_properties/include/system_properties/contexts_pre_split.h"
  },
  {
   "alignment" : 4,
   "linker_set_key" : "_ZTIFvPKv5VISITiE",
   "name" : "void (const void *, VISIT, int)",
   "parameters" :
   [
    {
     "referenced_type" : "_ZTIPKv"
    },
    {
     "referenced_type" : "_ZTI5VISIT"
    },
    {
     "referenced_type" : "_ZTIi"
    }
   ],
   "referenced_type" : "_ZTIFvPKv5VISITiE",
   "return_type" : "_ZTIv",
   "self_type" : "_ZTIFvPKv5VISITiE",
   "source_file" : "/bionic/libc/include/search.h"
  },
  {
   "alignment" : 4,
   "linker_set_key" : "_ZTIFvPvE",
   "name" : "void (void *)",
   "parameters" :
   [
    {
     "referenced_type" : "_ZTIPv"
    }
   ],
   "referenced_type" : "_ZTIFvPvE",
   "return_type" : "_ZTIv",
   "self_type" : "_ZTIFvPvE",
   "source_file" : "/bionic/libc/include/pthread.h"
  },
  {
   "alignment" : 4,
   "linker_set_key" : "_ZTIFvPvPKcS1_jE",
   "name" : "void (void *, const char *, const char *, unsigned int)",
   "parameters" :
   [
    {
     "referenced_type" : "_ZTIPv"
    },
    {
     "referenced_type" : "_ZTIPKc"
    },
    {
     "referenced_type" : "_ZTIPKc"
    },
    {
     "referenced_type" : "_ZTIj"
    }
   ],
   "referenced_type" : "_ZTIFvPvPKcS1_jE",
   "return_type" : "_ZTIv",
   "self_type" : "_ZTIFvPvPKcS1_jE",
   "source_file" : "/bionic/libc/system_properties/include/system_properties/system_properties.h"
  },
  {
   "alignment" : 4,
   "linker_set_key" : "_ZTIFvPvPKvE",
   "name" : "void (void *, const void *)",
   "parameters" :
   [
    {
     "referenced_type" : "_ZTIPv"
    },
    {
     "referenced_type" : "_ZTIPKv"
    }
   ],
   "referenced_type" : "_ZTIFvPvPKvE",
   "return_type" : "_ZTIv",
   "self_type" : "_ZTIFvPvPKvE",
   "source_file" : "/bionic/libc/include/malloc.h"
  },
  {
   "alignment" : 4,
   "linker_set_key" : "_ZTIFviE",
   "name" : "void (int)",
   "parameters" :
   [
    {
     "referenced_type" : "_ZTIi"
    }
   ],
   "referenced_type" : "_ZTIFviE",
   "return_type" : "_ZTIv",
   "self_type" : "_ZTIFviE",
   "source_file" : "/bionic/libc/include/bits/signal_types.h"
  },
  {
   "alignment" : 4,
   "linker_set_key" : "_ZTIFviP7siginfoPvE",
   "name" : "void (int, siginfo *, void *)",
   "parameters" :
   [
    {
     "referenced_type" : "_ZTIi"
    },
    {
     "referenced_type" : "_ZTIP7siginfo"
    },
    {
     "referenced_type" : "_ZTIPv"
    }
   ],
   "referenced_type" : "_ZTIFviP7siginfoPvE",
   "return_type" : "_ZTIv",
   "self_type" : "_ZTIFviP7siginfoPvE",
   "source_file" : "/bionic/libc/include/bits/signal_types.h"
  },
  {
   "alignment" : 4,
   "linker_set_key" : "_ZTIFvvE",
   "name" : "void ()",
   "referenced_type" : "_ZTIFvvE",
   "return_type" : "_ZTIv",
   "self_type" : "_ZTIFvvE",
   "source_file" : "/bionic/libc/include/bits/signal_types.h"
  }
 ],
 "functions" :
 [
  {
   "function_name" : "__FD_CLR_chk",
   "linker_set_key" : "__FD_CLR_chk",
   "parameters" :
   [
    {
     "referenced_type" : "_ZTIi"
    },
    {
     "referenced_type" : "_ZTIP6fd_set"
    },
    {
     "referenced_type" : "_ZTIj"
    }
   ],
   "return_type" : "_ZTIv",
   "source_file" : "/bionic/libc/include/sys/select.h"
  },
  {
   "function_name" : "__FD_ISSET_chk",
   "linker_set_key" : "__FD_ISSET_chk",
   "parameters" :
   [
    {
     "referenced_type" : "_ZTIi"
    },
    {
     "referenced_type" : "_ZTIPK6fd_set"
    },
    {
     "referenced_type" : "_ZTIj"
    }
   ],
   "return_type" : "_ZTIi",
   "source_file" : "/bionic/libc/include/sys/select.h"
  },
  {
   "function_name" : "__FD_SET_chk",
   "linker_set_key" : "__FD_SET_chk",
   "parameters" :
   [
    {
     "referenced_type" : "_ZTIi"
    },
    {
     "referenced_type" : "_ZTIP6fd_set"
    },
    {
     "referenced_type" : "_ZTIj"
    }
   ],
   "return_type" : "_ZTIv",
   "source_file" : "/bionic/libc/include/sys/select.h"
  },
  {
   "function_name" : "__b64_ntop",
   "linker_set_key" : "__b64_ntop",
   "parameters" :
   [
    {
     "referenced_type" : "_ZTIPKh"
    },
    {
     "referenced_type" : "_ZTIj"
    },
    {
     "referenced_type" : "_ZTIPc"
    },
    {
     "referenced_type" : "_ZTIj"
    }
   ],
   "return_type" : "_ZTIi",
   "source_file" : "/bionic/libc/include/resolv.h"
  },
  {
   "function_name" : "__b64_pton",
   "linker_set_key" : "__b64_pton",
   "parameters" :
   [
    {
     "referenced_type" : "_ZTIPKc"
    },
    {
     "referenced_type" : "_ZTIPh"
    },
    {
     "referenced_type" : "_ZTIj"
    }
   ],
   "return_type" : "_ZTIi",
   "source_file" : "/bionic/libc/include/resolv.h"
  },
  {
   "function_name" : "__dn_comp",
   "linker_set_key" : "__dn_comp",
   "parameters" :
   [
    {
     "referenced_type" : "_ZTIPKc"
    },
    {
     "referenced_type" : "_ZTIPh"
    },
    {
     "referenced_type" : "_ZTIi"
    },
    {
     "referenced_type" : "_ZTIPPh"
    },
    {
     "referenced_type" : "_ZTIPPh"
    }
   ],
   "return_type" : "_ZTIi",
   "source_file" : "/bionic/libc/include/resolv.h"
  },
  {
   "function_name" : "__fgets_chk",
   "linker_set_key" : "__fgets_chk",
   "parameters" :
   [
    {
     "referenced_type" : "_ZTIPc"
    },
    {
     "referenced_type" : "_ZTIi"
    },
    {
     "referenced_type" : "_ZTIP7__sFILE"
    },
    {
     "referenced_type" : "_ZTIj"
    }
   ],
   "return_type" : "_ZTIPc",
   "source_file" : "/bionic/libc/include/bits/fortify/stdio.h"
  },
  {
   "function_name" : "__fread_chk",
   "linker_set_key" : "__fread_chk",
   "parameters" :
   [
    {
     "referenced_type" : "_ZTIPv"
    },
    {
     "referenced_type" : "_ZTIj"
    },
    {
     "referenced_type" : "_ZTIj"
    },
    {
     "referenced_type" : "_ZTIP7__sFILE"
    },
    {
     "referenced_type" : "_ZTIj"
    }
   ],
   "return_type" : "_ZTIj",
   "source_file" : "/bionic/libc/include/bits/fortify/stdio.h"
  },
  {
   "function_name" : "__fwrite_chk",
   "linker_set_key" : "__fwrite_chk",
   "parameters" :
   [
    {
     "referenced_type" : "_ZTIPKv"
    },
    {
     "referenced_type" : "_ZTIj"
    },
    {
     "referenced_type" : "_ZTIj"
    },
    {
     "referenced_type" : "_ZTIP7__sFILE"
    },
    {
     "referenced_type" : "_ZTIj"
    }
   ],
   "return_type" : "_ZTIj",
   "source_file" : "/bionic/libc/include/bits/fortify/stdio.h"
  },
  {
   "function_name" : "__get_h_errno",
   "linker_set_key" : "__get_h_errno",
   "return_type" : "_ZTIPi",
   "source_file" : "/bionic/libc/include/netdb.h"
  },
  {
   "function_name" : "__getcwd_chk",
   "linker_set_key" : "__getcwd_chk",
   "parameters" :
   [
    {
     "referenced_type" : "_ZTIPc"
    },
    {
     "referenced_type" : "_ZTIj"
    },
    {
     "referenced_type" : "_ZTIj"
    }
   ],
   "return_type" : "_ZTIPc",
   "source_file" : "/bionic/libc/include/bits/fortify/unistd.h"
  },
  {
   "function_name" : "__memchr_chk",
   "linker_set_key" : "__memchr_chk",
   "parameters" :
   [
    {
     "referenced_type" : "_ZTIPKv"
    },
    {
     "referenced_type" : "_ZTIi"
    },
    {
     "referenced_type" : "_ZTIj"
    },
    {
     "referenced_type" : "_ZTIj"
    }
   ],
   "return_type" : "_ZTIPv",
   "source_file" : "/bionic/libc/include/bits/fortify/string.h"
  },
  {
   "function_name" : "__memrchr_chk",
   "linker_set_key" : "__memrchr_chk",
   "parameters" :
   [
    {
     "referenced_type" : "_ZTIPKv"
    },
    {
     "referenced_type" : "_ZTIi"
    },
    {
     "referenced_type" : "_ZTIj"
    },
    {
     "referenced_type" : "_ZTIj"
    }
   ],
   "return_type" : "_ZTIPv",
   "source_file" : "/bionic/libc/include/bits/fortify/string.h"
  },
  {
   "function_name" : "__ns_format_ttl",
   "linker_set_key" : "__ns_format_ttl",
   "parameters" :
   [
    {
     "referenced_type" : "_ZTIm"
    },
    {
     "referenced_type" : "_ZTIPc"
    },
    {
     "referenced_type" : "_ZTIj"
    }
   ],
   "return_type" : "_ZTIi",
   "source_file" : "/bionic/libc/include/arpa/nameser.h"
  },
  {
   "function_name" : "__ns_get16",
   "linker_set_key" : "__ns_get16",
   "parameters" :
   [
    {
     "referenced_type" : "_ZTIPKh"
    }
   ],
   "return_type" : "_ZTIt",
   "source_file" : "/bionic/libc/include/arpa/nameser.h"
  },
  {
   "function_name" : "__ns_get32",
   "linker_set_key" : "__ns_get32",
   "parameters" :
   [
    {
     "referenced_type" : "_ZTIPKh"
    }
   ],
   "return_type" : "_ZTIj",
   "source_file" : "/bionic/libc/include/arpa/nameser.h"
  },
  {
   "function_name" : "__ns_initparse",
   "linker_set_key" : "__ns_initparse",
   "parameters" :
   [
    {
     "referenced_type" : "_ZTIPKh"
    },
    {
     "referenced_type" : "_ZTIi"
    },
    {
     "referenced_type" : "_ZTIP8__ns_msg"
    }
   ],
   "return_type" : "_ZTIi",
   "source_file" : "/bionic/libc/include/arpa/nameser.h"
  },
  {
   "function_name" : "__ns_makecanon",
   "linker_set_key" : "__ns_makecanon",
   "parameters" :
   [
    {
     "referenced_type" : "_ZTIPKc"
    },
    {
     "referenced_type" : "_ZTIPc"
    },
    {
     "referenced_type" : "_ZTIj"
    }
   ],
   "return_type" : "_ZTIi",
   "source_file" : "/bionic/libc/include/arpa/nameser.h"
  },
  {
   "function_name" : "__ns_msg_getflag",
   "linker_set_key" : "__ns_msg_getflag",
   "parameters" :
   [
    {
     "referenced_type" : "_ZTI8__ns_msg"
    },
    {
     "referenced_type" : "_ZTIi"
    }
   ],
   "return_type" : "_ZTIi",
   "source_file" : "/bionic/libc/include/arpa/nameser.h"
  },
  {
   "function_name" : "__ns_name_compress",
   "linker_set_key" : "__ns_name_compress",
   "parameters" :
   [
    {
     "referenced_type" : "_ZTIPKc"
    },
    {
     "referenced_type" : "_ZTIPh"
    },
    {
     "referenced_type" : "_ZTIj"
    },
    {
     "referenced_type" : "_ZTIPPKh"
    },
    {
     "referenced_type" : "_ZTIPPKh"
    }
   ],
   "return_type" : "_ZTIi",
   "source_file" : "/bionic/libc/include/arpa/nameser.h"
  },
  {
   "function_name" : "__ns_name_ntol",
   "linker_set_key" : "__ns_name_ntol",
   "parameters" :
   [
    {
     "referenced_type" : "_ZTIPKh"
    },
    {
     "referenced_type" : "_ZTIPh"
    },
    {
     "referenced_type" : "_ZTIj"
    }
   ],
   "return_type" : "_ZTIi",
   "source_file" : "/bionic/libc/include/arpa/nameser.h"
  },
  {
   "function_name" : "__ns_name_ntop",
   "linker_set_key" : "__ns_name_ntop",
   "parameters" :
   [
    {
     "referenced_type" : "_ZTIPKh"
    },
    {
     "referenced_type" : "_ZTIPc"
    },
    {
     "referenced_type" : "_ZTIj"
    }
   ],
   "return_type" : "_ZTIi",
   "source_file" : "/bionic/libc/include/arpa/nameser.h"
  },
  {
   "function_name" : "__ns_name_pack",
   "linker_set_key" : "__ns_name_pack",
   "parameters" :
   [
    {
     "referenced_type" : "_ZTIPKh"
    },
    {
     "referenced_type" : "_ZTIPh"
    },
    {
     "referenced_type" : "_ZTIi"
    },
    {
     "referenced_type" : "_ZTIPPKh"
    },
    {
     "referenced_type" : "_ZTIPPKh"
    }
   ],
   "return_type" : "_ZTIi",
   "source_file" : "/bionic/libc/include/arpa/nameser.h"
  },
  {
   "function_name" : "__ns_name_pton",
   "linker_set_key" : "__ns_name_pton",
   "parameters" :
   [
    {
     "referenced_type" : "_ZTIPKc"
    },
    {
     "referenced_type" : "_ZTIPh"
    },
    {
     "referenced_type" : "_ZTIj"
    }
   ],
   "return_type" : "_ZTIi",
   "source_file" : "/bionic/libc/include/arpa/nameser.h"
  },
  {
   "function_name" : "__ns_name_rollback",
   "linker_set_key" : "__ns_name_rollback",
   "parameters" :
   [
    {
     "referenced_type" : "_ZTIPKh"
    },
    {
     "referenced_type" : "_ZTIPPKh"
    },
    {
     "referenced_type" : "_ZTIPPKh"
    }
   ],
   "return_type" : "_ZTIv",
   "source_file" : "/bionic/libc/include/arpa/nameser.h"
  },
  {
   "function_name" : "__ns_name_skip",
   "linker_set_key" : "__ns_name_skip",
   "parameters" :
   [
    {
     "referenced_type" : "_ZTIPPKh"
    },
    {
     "referenced_type" : "_ZTIPKh"
    }
   ],
   "return_type" : "_ZTIi",
   "source_file" : "/bionic/libc/include/arpa/nameser.h"
  },
  {
   "function_name" : "__ns_name_uncompress",
   "linker_set_key" : "__ns_name_uncompress",
   "parameters" :
   [
    {
     "referenced_type" : "_ZTIPKh"
    },
    {
     "referenced_type" : "_ZTIPKh"
    },
    {
     "referenced_type" : "_ZTIPKh"
    },
    {
     "referenced_type" : "_ZTIPc"
    },
    {
     "referenced_type" : "_ZTIj"
    }
   ],
   "return_type" : "_ZTIi",
   "source_file" : "/bionic/libc/include/arpa/nameser.h"
  },
  {
   "function_name" : "__ns_name_unpack",
   "linker_set_key" : "__ns_name_unpack",
   "parameters" :
   [
    {
     "referenced_type" : "_ZTIPKh"
    },
    {
     "referenced_type" : "_ZTIPKh"
    },
    {
     "referenced_type" : "_ZTIPKh"
    },
    {
     "referenced_type" : "_ZTIPh"
    },
    {
     "referenced_type" : "_ZTIj"
    }
   ],
   "return_type" : "_ZTIi",
   "source_file" : "/bionic/libc/include/arpa/nameser.h"
  },
  {
   "function_name" : "__ns_parserr",
   "linker_set_key" : "__ns_parserr",
   "parameters" :
   [
    {
     "referenced_type" : "_ZTIP8__ns_msg"
    },
    {
     "referenced_type" : "_ZTI9__ns_sect"
    },
    {
     "referenced_type" : "_ZTIi"
    },
    {
     "referenced_type" : "_ZTIP7__ns_rr"
    }
   ],
   "return_type" : "_ZTIi",
   "source_file" : "/bionic/libc/include/arpa/nameser.h"
  },
  {
   "function_name" : "__ns_put16",
   "linker_set_key" : "__ns_put16",
   "parameters" :
   [
    {
     "referenced_type" : "_ZTIt"
    },
    {
     "referenced_type" : "_ZTIPh"
    }
   ],
   "return_type" : "_ZTIv",
   "source_file" : "/bionic/libc/include/arpa/nameser.h"
  },
  {
   "function_name" : "__ns_put32",
   "linker_set_key" : "__ns_put32",
   "parameters" :
   [
    {
     "referenced_type" : "_ZTIj"
    },
    {
     "referenced_type" : "_ZTIPh"
    }
   ],
   "return_type" : "_ZTIv",
   "source_file" : "/bionic/libc/include/arpa/nameser.h"
  },
  {
   "function_name" : "__ns_samename",
   "linker_set_key" : "__ns_samename",
   "parameters" :
   [
    {
     "referenced_type" : "_ZTIPKc"
    },
    {
     "referenced_type" : "_ZTIPKc"
    }
   ],
   "return_type" : "_ZTIi",
   "source_file" : "/bionic/libc/include/arpa/nameser.h"
  },
  {
   "function_name" : "__ns_skiprr",
   "linker_set_key" : "__ns_skiprr",
   "parameters" :
   [
    {
     "referenced_type" : "_ZTIPKh"
    },
    {
     "referenced_type" : "_ZTIPKh"
    },
    {
     "referenced_type" : "_ZTI9__ns_sect"
    },
    {
     "referenced_type" : "_ZTIi"
    }
   ],
   "return_type" : "_ZTIi",
   "source_file" : "/bionic/libc/include/arpa/nameser.h"
  },
  {
   "function_name" : "__ns_sprintrr",
   "linker_set_key" : "__ns_sprintrr",
   "parameters" :
   [
    {
     "referenced_type" : "_ZTIPK8__ns_msg"
    },
    {
     "referenced_type" : "_ZTIPK7__ns_rr"
    },
    {
     "referenced_type" : "_ZTIPKc"
    },
    {
     "referenced_type" : "_ZTIPKc"
    },
    {
     "referenced_type" : "_ZTIPc"
    },
    {
     "referenced_type" : "_ZTIj"
    }
   ],
   "return_type" : "_ZTIi",
   "source_file" : "/bionic/libc/include/arpa/nameser.h"
  },
  {
   "function_name" : "__ns_sprintrrf",
   "linker_set_key" : "__ns_sprintrrf",
   "parameters" :
   [
    {
     "referenced_type" : "_ZTIPKh"
    },
    {
     "referenced_type" : "_ZTIj"
    },
    {
     "referenced_type" : "_ZTIPKc"
    },
    {
     "referenced_type" : "_ZTI10__ns_class"
    },
    {
     "referenced_type" : "_ZTI9__ns_type"
    },
    {
     "referenced_type" : "_ZTIm"
    },
    {
     "referenced_type" : "_ZTIPKh"
    },
    {
     "referenced_type" : "_ZTIj"
    },
    {
     "referenced_type" : "_ZTIPKc"
    },
    {
     "referenced_type" : "_ZTIPKc"
    },
    {
     "referenced_type" : "_ZTIPc"
    },
    {
     "referenced_type" : "_ZTIj"
    }
   ],
   "return_type" : "_ZTIi",
   "source_file" : "/bionic/libc/include/arpa/nameser.h"
  },
  {
   "function_name" : "__p_class",
   "linker_set_key" : "__p_class",
   "parameters" :
   [
    {
     "referenced_type" : "_ZTIi"
    }
   ],
   "return_type" : "_ZTIPKc",
   "source_file" : "/bionic/libc/include/resolv.h"
  },
  {
   "function_name" : "__p_type",
   "linker_set_key" : "__p_type",
   "parameters" :
   [
    {
     "referenced_type" : "_ZTIi"
    }
   ],
   "return_type" : "_ZTIPKc",
   "source_file" : "/bionic/libc/include/resolv.h"
  },
  {
   "function_name" : "__poll_chk",
   "linker_set_key" : "__poll_chk",
   "parameters" :
   [
    {
     "referenced_type" : "_ZTIP6pollfd"
    },
    {
     "referenced_type" : "_ZTIj"
    },
    {
     "referenced_type" : "_ZTIi"
    },
    {
     "referenced_type" : "_ZTIj"
    }
   ],
   "return_type" : "_ZTIi",
   "source_file" : "/bionic/libc/include/bits/fortify/poll.h"
  },
  {
   "function_name" : "__ppoll64_chk",
   "linker_set_key" : "__ppoll64_chk",
   "parameters" :
   [
    {
     "referenced_type" : "_ZTIP6pollfd"
    },
    {
     "referenced_type" : "_ZTIj"
    },
    {
     "referenced_type" : "_ZTIPK8timespec"
    },
    {
     "referenced_type" : "_ZTIPK10sigset64_t"
    },
    {
     "referenced_type" : "_ZTIj"
    }
   ],
   "return_type" : "_ZTIi",
   "source_file" : "/bionic/libc/include/bits/fortify/poll.h"
  },
  {
   "function_name" : "__ppoll_chk",
   "linker_set_key" : "__ppoll_chk",
   "parameters" :
   [
    {
     "referenced_type" : "_ZTIP6pollfd"
    },
    {
     "referenced_type" : "_ZTIj"
    },
    {
     "referenced_type" : "_ZTIPK8timespec"
    },
    {
     "referenced_type" : "_ZTIPKm"
    },
    {
     "referenced_type" : "_ZTIj"
    }
   ],
   "return_type" : "_ZTIi",
   "source_file" : "/bionic/libc/include/bits/fortify/poll.h"
  },
  {
   "function_name" : "__pread64_chk",
   "linker_set_key" : "__pread64_chk",
   "parameters" :
   [
    {
     "referenced_type" : "_ZTIi"
    },
    {
     "referenced_type" : "_ZTIPv"
    },
    {
     "referenced_type" : "_ZTIj"
    },
    {
     "referenced_type" : "_ZTIx"
    },
    {
     "referenced_type" : "_ZTIj"
    }
   ],
   "return_type" : "_ZTIi",
   "source_file" : "/bionic/libc/include/bits/fortify/unistd.h"
  },
  {
   "function_name" : "__pread_chk",
   "linker_set_key" : "__pread_chk",
   "parameters" :
   [
    {
     "referenced_type" : "_ZTIi"
    },
    {
     "referenced_type" : "_ZTIPv"
    },
    {
     "referenced_type" : "_ZTIj"
    },
    {
     "referenced_type" : "_ZTIl"
    },
    {
     "referenced_type" : "_ZTIj"
    }
   ],
   "return_type" : "_ZTIi",
   "source_file" : "/bionic/libc/include/bits/fortify/unistd.h"
  },
  {
   "function_name" : "__pthread_cleanup_pop",
   "linker_set_key" : "__pthread_cleanup_pop",
   "parameters" :
   [
    {
     "referenced_type" : "_ZTIP19__pthread_cleanup_t"
    },
    {
     "referenced_type" : "_ZTIi"
    }
   ],
   "return_type" : "_ZTIv",
   "source_file" : "/bionic/libc/include/pthread.h"
  },
  {
   "function_name" : "__pthread_cleanup_push",
   "linker_set_key" : "__pthread_cleanup_push",
   "parameters" :
   [
    {
     "referenced_type" : "_ZTIP19__pthread_cleanup_t"
    },
    {
     "referenced_type" : "_ZTIPFvPvE"
    },
    {
     "referenced_type" : "_ZTIPv"
    }
   ],
   "return_type" : "_ZTIv",
   "source_file" : "/bionic/libc/include/pthread.h"
  },
  {
   "function_name" : "__pwrite64_chk",
   "linker_set_key" : "__pwrite64_chk",
   "parameters" :
   [
    {
     "referenced_type" : "_ZTIi"
    },
    {
     "referenced_type" : "_ZTIPKv"
    },
    {
     "referenced_type" : "_ZTIj"
    },
    {
     "referenced_type" : "_ZTIx"
    },
    {
     "referenced_type" : "_ZTIj"
    }
   ],
   "return_type" : "_ZTIi",
   "source_file" : "/bionic/libc/include/bits/fortify/unistd.h"
  },
  {
   "function_name" : "__pwrite_chk",
   "linker_set_key" : "__pwrite_chk",
   "parameters" :
   [
    {
     "referenced_type" : "_ZTIi"
    },
    {
     "referenced_type" : "_ZTIPKv"
    },
    {
     "referenced_type" : "_ZTIj"
    },
    {
     "referenced_type" : "_ZTIl"
    },
    {
     "referenced_type" : "_ZTIj"
    }
   ],
   "return_type" : "_ZTIi",
   "source_file" : "/bionic/libc/include/bits/fortify/unistd.h"
  },
  {
   "function_name" : "__read_chk",
   "linker_set_key" : "__read_chk",
   "parameters" :
   [
    {
     "referenced_type" : "_ZTIi"
    },
    {
     "referenced_type" : "_ZTIPv"
    },
    {
     "referenced_type" : "_ZTIj"
    },
    {
     "referenced_type" : "_ZTIj"
    }
   ],
   "return_type" : "_ZTIi",
   "source_file" : "/bionic/libc/include/bits/fortify/unistd.h"
  },
  {
   "function_name" : "__readlink_chk",
   "linker_set_key" : "__readlink_chk",
   "parameters" :
   [
    {
     "referenced_type" : "_ZTIPKc"
    },
    {
     "referenced_type" : "_ZTIPc"
    },
    {
     "referenced_type" : "_ZTIj"
    },
    {
     "referenced_type" : "_ZTIj"
    }
   ],
   "return_type" : "_ZTIi",
   "source_file" : "/bionic/libc/include/bits/fortify/unistd.h"
  },
  {
   "function_name" : "__readlinkat_chk",
   "linker_set_key" : "__readlinkat_chk",
   "parameters" :
   [
    {
     "referenced_type" : "_ZTIi"
    },
    {
     "referenced_type" : "_ZTIPKc"
    },
    {
     "referenced_type" : "_ZTIPc"
    },
    {
     "referenced_type" : "_ZTIj"
    },
    {
     "referenced_type" : "_ZTIj"
    }
   ],
   "return_type" : "_ZTIi",
   "source_file" : "/bionic/libc/include/bits/fortify/unistd.h"
  },
  {
   "function_name" : "__recvfrom_chk",
   "linker_set_key" : "__recvfrom_chk",
   "parameters" :
   [
    {
     "referenced_type" : "_ZTIi"
    },
    {
     "referenced_type" : "_ZTIPv"
    },
    {
     "referenced_type" : "_ZTIj"
    },
    {
     "referenced_type" : "_ZTIj"
    },
    {
     "referenced_type" : "_ZTIi"
    },
    {
     "referenced_type" : "_ZTIP8sockaddr"
    },
    {
     "referenced_type" : "_ZTIPi"
    }
   ],
   "return_type" : "_ZTIi",
   "source_file" : "/bionic/libc/include/bits/fortify/socket.h"
  },
  {
   "function_name" : "__res_randomid",
   "linker_set_key" : "__res_randomid",
   "return_type" : "_ZTIj",
   "source_file" : "/bionic/libc/include/resolv.h"
  },
  {
   "function_name" : "__sendto_chk",
   "linker_set_key" : "__sendto_chk",
   "parameters" :
   [
    {
     "referenced_type" : "_ZTIi"
    },
    {
     "referenced_type" : "_ZTIPKv"
    },
    {
     "referenced_type" : "_ZTIj"
    },
    {
     "referenced_type" : "_ZTIj"
    },
    {
     "referenced_type" : "_ZTIi"
    },
    {
     "referenced_type" : "_ZTIPK8sockaddr"
    },
    {
     "referenced_type" : "_ZTIi"
    }
   ],
   "return_type" : "_ZTIi",
   "source_file" : "/bionic/libc/include/bits/fortify/socket.h"
  },
  {
   "function_name" : "__stpncpy_chk2",
   "linker_set_key" : "__stpncpy_chk2",
   "parameters" :
   [
    {
     "referenced_type" : "_ZTIPc"
    },
    {
     "referenced_type" : "_ZTIPKc"
    },
    {
     "referenced_type" : "_ZTIj"
    },
    {
     "referenced_type" : "_ZTIj"
    },
    {
     "referenced_type" : "_ZTIj"
    }
   ],
   "return_type" : "_ZTIPc",
   "source_file" : "/bionic/libc/include/bits/fortify/string.h"
  },
  {
   "function_name" : "__strchr_chk",
   "linker_set_key" : "__strchr_chk",
   "parameters" :
   [
    {
     "referenced_type" : "_ZTIPKc"
    },
    {
     "referenced_type" : "_ZTIi"
    },
    {
     "referenced_type" : "_ZTIj"
    }
   ],
   "return_type" : "_ZTIPc",
   "source_file" : "/bionic/libc/include/string.h"
  },
  {
   "function_name" : "__strlcat_chk",
   "linker_set_key" : "__strlcat_chk",
   "parameters" :
   [
    {
     "referenced_type" : "_ZTIPc"
    },
    {
     "referenced_type" : "_ZTIPKc"
    },
    {
     "referenced_type" : "_ZTIj"
    },
    {
     "referenced_type" : "_ZTIj"
    }
   ],
   "return_type" : "_ZTIj",
   "source_file" : "/bionic/libc/include/bits/fortify/string.h"
  },
  {
   "function_name" : "__strlcpy_chk",
   "linker_set_key" : "__strlcpy_chk",
   "parameters" :
   [
    {
     "referenced_type" : "_ZTIPc"
    },
    {
     "referenced_type" : "_ZTIPKc"
    },
    {
     "referenced_type" : "_ZTIj"
    },
    {
     "referenced_type" : "_ZTIj"
    }
   ],
   "return_type" : "_ZTIj",
   "source_file" : "/bionic/libc/include/bits/fortify/string.h"
  },
  {
   "function_name" : "__strlen_chk",
   "linker_set_key" : "__strlen_chk",
   "parameters" :
   [
    {
     "referenced_type" : "_ZTIPKc"
    },
    {
     "referenced_type" : "_ZTIj"
    }
   ],
   "return_type" : "_ZTIj",
   "source_file" : "/bionic/libc/include/string.h"
  },
  {
   "function_name" : "__strncpy_chk2",
   "linker_set_key" : "__strncpy_chk2",
   "parameters" :
   [
    {
     "referenced_type" : "_ZTIPc"
    },
    {
     "referenced_type" : "_ZTIPKc"
    },
    {
     "referenced_type" : "_ZTIj"
    },
    {
     "referenced_type" : "_ZTIj"
    },
    {
     "referenced_type" : "_ZTIj"
    }
   ],
   "return_type" : "_ZTIPc",
   "source_file" : "/bionic/libc/include/bits/fortify/string.h"
  },
  {
   "function_name" : "__strrchr_chk",
   "linker_set_key" : "__strrchr_chk",
   "parameters" :
   [
    {
     "referenced_type" : "_ZTIPKc"
    },
    {
     "referenced_type" : "_ZTIi"
    },
    {
     "referenced_type" : "_ZTIj"
    }
   ],
   "return_type" : "_ZTIPc",
   "source_file" : "/bionic/libc/include/string.h"
  },
  {
   "function_name" : "__umask_chk",
   "linker_set_key" : "__umask_chk",
   "parameters" :
   [
    {
     "referenced_type" : "_ZTIt"
    }
   ],
   "return_type" : "_ZTIt",
   "source_file" : "/bionic/libc/include/bits/fortify/stat.h"
  },
  {
   "function_name" : "__write_chk",
   "linker_set_key" : "__write_chk",
   "parameters" :
   [
    {
     "referenced_type" : "_ZTIi"
    },
    {
     "referenced_type" : "_ZTIPKv"
    },
    {
     "referenced_type" : "_ZTIj"
    },
    {
     "referenced_type" : "_ZTIj"
    }
   ],
   "return_type" : "_ZTIi",
   "source_file" : "/bionic/libc/include/bits/fortify/unistd.h"
  },
  {
   "function_name" : "abs",
   "linker_set_key" : "abs",
   "parameters" :
   [
    {
     "referenced_type" : "_ZTIi"
    }
   ],
   "return_type" : "_ZTIi",
   "source_file" : "/bionic/libc/include/stdlib.h"
  },
  {
   "function_name" : "alarm",
   "linker_set_key" : "alarm",
   "parameters" :
   [
    {
     "referenced_type" : "_ZTIj"
    }
   ],
   "return_type" : "_ZTIj",
   "source_file" : "/bionic/libc/include/unistd.h"
  },
  {
   "function_name" : "aligned_alloc",
   "linker_set_key" : "aligned_alloc",
   "parameters" :
   [
    {
     "referenced_type" : "_ZTIj"
    },
    {
     "referenced_type" : "_ZTIj"
    }
   ],
   "return_type" : "_ZTIPv",
   "source_file" : "/bionic/libc/include/stdlib.h"
  },
  {
   "function_name" : "android_set_abort_message",
   "linker_set_key" : "android_set_abort_message",
   "parameters" :
   [
    {
     "referenced_type" : "_ZTIPKc"
    }
   ],
   "return_type" : "_ZTIv",
   "source_file" : "/bionic/libc/include/android/set_abort_message.h"
  },
  {
   "function_name" : "arc4random",
   "linker_set_key" : "arc4random",
   "return_type" : "_ZTIj",
   "source_file" : "/bionic/libc/include/stdlib.h"
  },
  {
   "function_name" : "arc4random_buf",
   "linker_set_key" : "arc4random_buf",
   "parameters" :
   [
    {
     "referenced_type" : "_ZTIPv"
    },
    {
     "referenced_type" : "_ZTIj"
    }
   ],
   "return_type" : "_ZTIv",
   "source_file" : "/bionic/libc/include/stdlib.h"
  },
  {
   "function_name" : "arc4random_uniform",
   "linker_set_key" : "arc4random_uniform",
   "parameters" :
   [
    {
     "referenced_type" : "_ZTIj"
    }
   ],
   "return_type" : "_ZTIj",
   "source_file" : "/bionic/libc/include/stdlib.h"
  },
  {
   "function_name" : "asctime",
   "linker_set_key" : "asctime",
   "parameters" :
   [
    {
     "referenced_type" : "_ZTIPK2tm"
    }
   ],
   "return_type" : "_ZTIPc",
   "source_file" : "/bionic/libc/include/time.h"
  },
  {
   "function_name" : "asctime_r",
   "linker_set_key" : "asctime_r",
   "parameters" :
   [
    {
     "referenced_type" : "_ZTIPK2tm"
    },
    {
     "referenced_type" : "_ZTIPc"
    }
   ],
   "return_type" : "_ZTIPc",
   "source_file" : "/bionic/libc/include/time.h"
  },
  {
   "function_name" : "at_quick_exit",
   "linker_set_key" : "at_quick_exit",
   "parameters" :
   [
    {
     "referenced_type" : "_ZTIPFvvE"
    }
   ],
   "return_type" : "_ZTIi",
   "source_file" : "/bionic/libc/include/stdlib.h"
  },
  {
   "function_name" : "atexit",
   "linker_set_key" : "atexit",
   "parameters" :
   [
    {
     "referenced_type" : "_ZTIPFvvE"
    }
   ],
   "return_type" : "_ZTIi",
   "source_file" : "/bionic/libc/include/stdlib.h"
  },
  {
   "function_name" : "bsearch",
   "linker_set_key" : "bsearch",
   "parameters" :
   [
    {
     "referenced_type" : "_ZTIPKv"
    },
    {
     "referenced_type" : "_ZTIPKv"
    },
    {
     "referenced_type" : "_ZTIj"
    },
    {
     "referenced_type" : "_ZTIj"
    },
    {
     "referenced_type" : "_ZTIPFiPKvS0_E"
    }
   ],
   "return_type" : "_ZTIPv",
   "source_file" : "/bionic/libc/include/stdlib.h"
  },
  {
   "function_name" : "btowc",
   "linker_set_key" : "btowc",
   "parameters" :
   [
    {
     "referenced_type" : "_ZTIi"
    }
   ],
   "return_type" : "_ZTIj",
   "source_file" : "/bionic/libc/include/wchar.h"
  },
  {
   "function_name" : "calloc",
   "linker_set_key" : "calloc",
   "parameters" :
   [
    {
     "referenced_type" : "_ZTIj"
    },
    {
     "referenced_type" : "_ZTIj"
    }
   ],
   "return_type" : "_ZTIPv",
   "source_file" : "/bionic/libc/include/malloc.h"
  },
  {
   "function_name" : "clock_getres",
   "linker_set_key" : "clock_getres",
   "parameters" :
   [
    {
     "referenced_type" : "_ZTIi"
    },
    {
     "referenced_type" : "_ZTIP8timespec"
    }
   ],
   "return_type" : "_ZTIi",
   "source_file" : "/bionic/libc/include/time.h"
  },
  {
   "function_name" : "clock_gettime",
   "linker_set_key" : "clock_gettime",
   "parameters" :
   [
    {
     "referenced_type" : "_ZTIi"
    },
    {
     "referenced_type" : "_ZTIP8timespec"
    }
   ],
   "return_type" : "_ZTIi",
   "source_file" : "/bionic/libc/include/time.h"
  },
  {
   "function_name" : "ctime",
   "linker_set_key" : "ctime",
   "parameters" :
   [
    {
     "referenced_type" : "_ZTIPKl"
    }
   ],
   "return_type" : "_ZTIPc",
   "source_file" : "/bionic/libc/include/time.h"
  },
  {
   "function_name" : "ctime_r",
   "linker_set_key" : "ctime_r",
   "parameters" :
   [
    {
     "referenced_type" : "_ZTIPKl"
    },
    {
     "referenced_type" : "_ZTIPc"
    }
   ],
   "return_type" : "_ZTIPc",
   "source_file" : "/bionic/libc/include/time.h"
  },
  {
   "function_name" : "daemon",
   "linker_set_key" : "daemon",
   "parameters" :
   [
    {
     "referenced_type" : "_ZTIi"
    },
    {
     "referenced_type" : "_ZTIi"
    }
   ],
   "return_type" : "_ZTIi",
   "source_file" : "/bionic/libc/include/unistd.h"
  },
  {
   "function_name" : "difftime",
   "linker_set_key" : "difftime",
   "parameters" :
   [
    {
     "referenced_type" : "_ZTIl"
    },
    {
     "referenced_type" : "_ZTIl"
    }
   ],
   "return_type" : "_ZTId",
   "source_file" : "/bionic/libc/include/time.h"
  },
  {
   "function_name" : "div",
   "linker_set_key" : "div",
   "parameters" :
   [
    {
     "referenced_type" : "_ZTIi"
    },
    {
     "referenced_type" : "_ZTIi"
    }
   ],
   "return_type" : "_ZTI5div_t",
   "source_file" : "/bionic/libc/include/stdlib.h"
  },
  {
   "function_name" : "dn_expand",
   "linker_set_key" : "dn_expand",
   "parameters" :
   [
    {
     "referenced_type" : "_ZTIPKh"
    },
    {
     "referenced_type" : "_ZTIPKh"
    },
    {
     "referenced_type" : "_ZTIPKh"
    },
    {
     "referenced_type" : "_ZTIPc"
    },
    {
     "referenced_type" : "_ZTIi"
    }
   ],
   "return_type" : "_ZTIi",
   "source_file" : "/bionic/libc/include/resolv.h"
  },
  {
   "function_name" : "drand48",
   "linker_set_key" : "drand48",
   "return_type" : "_ZTId",
   "source_file" : "/bionic/libc/include/stdlib.h"
  },
  {
   "function_name" : "endhostent",
   "linker_set_key" : "endhostent",
   "return_type" : "_ZTIv",
   "source_file" : "/bionic/libc/include/netdb.h"
  },
  {
   "function_name" : "endservent",
   "linker_set_key" : "endservent",
   "return_type" : "_ZTIv",
   "source_file" : "/bionic/libc/include/netdb.h"
  },
  {
   "function_name" : "endutent",
   "linker_set_key" : "endutent",
   "return_type" : "_ZTIv",
   "source_file" : "/bionic/libc/include/utmp.h"
  },
  {
   "function_name" : "erand48",
   "linker_set_key" : "erand48",
   "parameters" :
   [
    {
     "referenced_type" : "_ZTIPt"
    }
   ],
   "return_type" : "_ZTId",
   "source_file" : "/bionic/libc/include/stdlib.h"
  },
  {
   "function_name" : "err",
   "linker_set_key" : "err",
   "parameters" :
   [
    {
     "referenced_type" : "_ZTIi"
    },
    {
     "referenced_type" : "_ZTIPKc"
    }
   ],
   "return_type" : "_ZTIv",
   "source_file" : "/bionic/libc/include/err.h"
  },
  {
   "function_name" : "errx",
   "linker_set_key" : "errx",
   "parameters" :
   [
    {
     "referenced_type" : "_ZTIi"
    },
    {
     "referenced_type" : "_ZTIPKc"
    }
   ],
   "return_type" : "_ZTIv",
   "source_file" : "/bionic/libc/include/err.h"
  },
  {
   "function_name" : "fgetln",
   "linker_set_key" : "fgetln",
   "parameters" :
   [
    {
     "referenced_type" : "_ZTIP7__sFILE"
    },
    {
     "referenced_type" : "_ZTIPj"
    }
   ],
   "return_type" : "_ZTIPc",
   "source_file" : "/bionic/libc/include/stdio.h"
  },
  {
   "function_name" : "fgetwc",
   "linker_set_key" : "fgetwc",
   "parameters" :
   [
    {
     "referenced_type" : "_ZTIP7__sFILE"
    }
   ],
   "return_type" : "_ZTIj",
   "source_file" : "/bionic/libc/include/wchar.h"
  },
  {
   "function_name" : "fgetws",
   "linker_set_key" : "fgetws",
   "parameters" :
   [
    {
     "referenced_type" : "_ZTIPj"
    },
    {
     "referenced_type" : "_ZTIi"
    },
    {
     "referenced_type" : "_ZTIP7__sFILE"
    }
   ],
   "return_type" : "_ZTIPj",
   "source_file" : "/bionic/libc/include/wchar.h"
  },
  {
   "function_name" : "fnmatch",
   "linker_set_key" : "fnmatch",
   "parameters" :
   [
    {
     "referenced_type" : "_ZTIPKc"
    },
    {
     "referenced_type" : "_ZTIPKc"
    },
    {
     "referenced_type" : "_ZTIi"
    }
   ],
   "return_type" : "_ZTIi",
   "source_file" : "/bionic/libc/include/fnmatch.h"
  },
  {
   "function_name" : "fork",
   "linker_set_key" : "fork",
   "return_type" : "_ZTIi",
   "source_file" : "/bionic/libc/include/unistd.h"
  },
  {
   "function_name" : "fpurge",
   "linker_set_key" : "fpurge",
   "parameters" :
   [
    {
     "referenced_type" : "_ZTIP7__sFILE"
    }
   ],
   "return_type" : "_ZTIi",
   "source_file" : "/bionic/libc/include/stdio.h"
  },
  {
   "function_name" : "fputwc",
   "linker_set_key" : "fputwc",
   "parameters" :
   [
    {
     "referenced_type" : "_ZTIj"
    },
    {
     "referenced_type" : "_ZTIP7__sFILE"
    }
   ],
   "return_type" : "_ZTIj",
   "source_file" : "/bionic/libc/include/wchar.h"
  },
  {
   "function_name" : "fputws",
   "linker_set_key" : "fputws",
   "parameters" :
   [
    {
     "referenced_type" : "_ZTIPKj"
    },
    {
     "referenced_type" : "_ZTIP7__sFILE"
    }
   ],
   "return_type" : "_ZTIi",
   "source_file" : "/bionic/libc/include/wchar.h"
  },
  {
   "function_name" : "free",
   "linker_set_key" : "free",
   "parameters" :
   [
    {
     "referenced_type" : "_ZTIPv"
    }
   ],
   "return_type" : "_ZTIv",
   "source_file" : "/bionic/libc/include/malloc.h"
  },
  {
   "function_name" : "freeaddrinfo",
   "linker_set_key" : "freeaddrinfo",
   "parameters" :
   [
    {
     "referenced_type" : "_ZTIP8addrinfo"
    }
   ],
   "return_type" : "_ZTIv",
   "source_file" : "/bionic/libc/include/netdb.h"
  },
  {
   "function_name" : "ftok",
   "linker_set_key" : "ftok",
   "parameters" :
   [
    {
     "referenced_type" : "_ZTIPKc"
    },
    {
     "referenced_type" : "_ZTIi"
    }
   ],
   "return_type" : "_ZTIi",
   "source_file" : "/bionic/libc/include/sys/ipc.h"
  },
  {
   "function_name" : "fwide",
   "linker_set_key" : "fwide",
   "parameters" :
   [
    {
     "referenced_type" : "_ZTIP7__sFILE"
    },
    {
     "referenced_type" : "_ZTIi"
    }
   ],
   "return_type" : "_ZTIi",
   "source_file" : "/bionic/libc/include/wchar.h"
  },
  {
   "function_name" : "gai_strerror",
   "linker_set_key" : "gai_strerror",
   "parameters" :
   [
    {
     "referenced_type" : "_ZTIi"
    }
   ],
   "return_type" : "_ZTIPKc",
   "source_file" : "/bionic/libc/include/netdb.h"
  },
  {
   "function_name" : "getaddrinfo",
   "linker_set_key" : "getaddrinfo",
   "parameters" :
   [
    {
     "referenced_type" : "_ZTIPKc"
    },
    {
     "referenced_type" : "_ZTIPKc"
    },
    {
     "referenced_type" : "_ZTIPK8addrinfo"
    },
    {
     "referenced_type" : "_ZTIPP8addrinfo"
    }
   ],
   "return_type" : "_ZTIi",
   "source_file" : "/bionic/libc/include/netdb.h"
  },
  {
   "function_name" : "getauxval",
   "linker_set_key" : "getauxval",
   "parameters" :
   [
    {
     "referenced_type" : "_ZTIm"
    }
   ],
   "return_type" : "_ZTIm",
   "source_file" : "/bionic/libc/include/sys/auxv.h"
  },
  {
   "function_name" : "getdelim",
   "linker_set_key" : "getdelim",
   "parameters" :
   [
    {
     "referenced_type" : "_ZTIPPc"
    },
    {
     "referenced_type" : "_ZTIPj"
    },
    {
     "referenced_type" : "_ZTIi"
    },
    {
     "referenced_type" : "_ZTIP7__sFILE"
    }
   ],
   "return_type" : "_ZTIi",
   "source_file" : "/bionic/libc/include/stdio.h"
  },
  {
   "function_name" : "getenv",
   "linker_set_key" : "getenv",
   "parameters" :
   [
    {
     "referenced_type" : "_ZTIPKc"
    }
   ],
   "return_type" : "_ZTIPc",
   "source_file" : "/bionic/libc/include/stdlib.h"
  },
  {
   "function_name" : "gethostbyaddr",
   "linker_set_key" : "gethostbyaddr",
   "parameters" :
   [
    {
     "referenced_type" : "_ZTIPKv"
    },
    {
     "referenced_type" : "_ZTIi"
    },
    {
     "referenced_type" : "_ZTIi"
    }
   ],
   "return_type" : "_ZTIP7hostent",
   "source_file" : "/bionic/libc/include/netdb.h"
  },
  {
   "function_name" : "gethostbyaddr_r",
   "linker_set_key" : "gethostbyaddr_r",
   "parameters" :
   [
    {
     "referenced_type" : "_ZTIPKv"
    },
    {
     "referenced_type" : "_ZTIi"
    },
    {
     "referenced_type" : "_ZTIi"
    },
    {
     "referenced_type" : "_ZTIP7hostent"
    },
    {
     "referenced_type" : "_ZTIPc"
    },
    {
     "referenced_type" : "_ZTIj"
    },
    {
     "referenced_type" : "_ZTIPP7hostent"
    },
    {
     "referenced_type" : "_ZTIPi"
    }
   ],
   "return_type" : "_ZTIi",
   "source_file" : "/bionic/libc/include/netdb.h"
  },
  {
   "function_name" : "gethostbyname",
   "linker_set_key" : "gethostbyname",
   "parameters" :
   [
    {
     "referenced_type" : "_ZTIPKc"
    }
   ],
   "return_type" : "_ZTIP7hostent",
   "source_file" : "/bionic/libc/include/netdb.h"
  },
  {
   "function_name" : "gethostbyname2",
   "linker_set_key" : "gethostbyname2",
   "parameters" :
   [
    {
     "referenced_type" : "_ZTIPKc"
    },
    {
     "referenced_type" : "_ZTIi"
    }
   ],
   "return_type" : "_ZTIP7hostent",
   "source_file" : "/bionic/libc/include/netdb.h"
  },
  {
   "function_name" : "gethostbyname2_r",
   "linker_set_key" : "gethostbyname2_r",
   "parameters" :
   [
    {
     "referenced_type" : "_ZTIPKc"
    },
    {
     "referenced_type" : "_ZTIi"
    },
    {
     "referenced_type" : "_ZTIP7hostent"
    },
    {
     "referenced_type" : "_ZTIPc"
    },
    {
     "referenced_type" : "_ZTIj"
    },
    {
     "referenced_type" : "_ZTIPP7hostent"
    },
    {
     "referenced_type" : "_ZTIPi"
    }
   ],
   "return_type" : "_ZTIi",
   "source_file" : "/bionic/libc/include/netdb.h"
  },
  {
   "function_name" : "gethostbyname_r",
   "linker_set_key" : "gethostbyname_r",
   "parameters" :
   [
    {
     "referenced_type" : "_ZTIPKc"
    },
    {
     "referenced_type" : "_ZTIP7hostent"
    },
    {
     "referenced_type" : "_ZTIPc"
    },
    {
     "referenced_type" : "_ZTIj"
    },
    {
     "referenced_type" : "_ZTIPP7hostent"
    },
    {
     "referenced_type" : "_ZTIPi"
    }
   ],
   "return_type" : "_ZTIi",
   "source_file" : "/bionic/libc/include/netdb.h"
  },
  {
   "function_name" : "gethostent",
   "linker_set_key" : "gethostent",
   "return_type" : "_ZTIP7hostent",
   "source_file" : "/bionic/libc/include/netdb.h"
  },
  {
   "function_name" : "getnameinfo",
   "linker_set_key" : "getnameinfo",
   "parameters" :
   [
    {
     "referenced_type" : "_ZTIPK8sockaddr"
    },
    {
     "referenced_type" : "_ZTIi"
    },
    {
     "referenced_type" : "_ZTIPc"
    },
    {
     "referenced_type" : "_ZTIj"
    },
    {
     "referenced_type" : "_ZTIPc"
    },
    {
     "referenced_type" : "_ZTIj"
    },
    {
     "referenced_type" : "_ZTIi"
    }
   ],
   "return_type" : "_ZTIi",
   "source_file" : "/bionic/libc/include/netdb.h"
  },
  {
   "function_name" : "getopt",
   "linker_set_key" : "getopt",
   "parameters" :
   [
    {
     "referenced_type" : "_ZTIi"
    },
    {
     "referenced_type" : "_ZTIPKPc"
    },
    {
     "referenced_type" : "_ZTIPKc"
    }
   ],
   "return_type" : "_ZTIi",
   "source_file" : "/bionic/libc/include/bits/getopt.h"
  },
  {
   "function_name" : "getopt_long",
   "linker_set_key" : "getopt_long",
   "parameters" :
   [
    {
     "referenced_type" : "_ZTIi"
    },
    {
     "referenced_type" : "_ZTIPKPc"
    },
    {
     "referenced_type" : "_ZTIPKc"
    },
    {
     "referenced_type" : "_ZTIPK6option"
    },
    {
     "referenced_type" : "_ZTIPi"
    }
   ],
   "return_type" : "_ZTIi",
   "source_file" : "/bionic/libc/include/getopt.h"
  },
  {
   "function_name" : "getopt_long_only",
   "linker_set_key" : "getopt_long_only",
   "parameters" :
   [
    {
     "referenced_type" : "_ZTIi"
    },
    {
     "referenced_type" : "_ZTIPKPc"
    },
    {
     "referenced_type" : "_ZTIPKc"
    },
    {
     "referenced_type" : "_ZTIPK6option"
    },
    {
     "referenced_type" : "_ZTIPi"
    }
   ],
   "return_type" : "_ZTIi",
   "source_file" : "/bionic/libc/include/getopt.h"
  },
  {
   "function_name" : "getprogname",
   "linker_set_key" : "getprogname",
   "return_type" : "_ZTIPKc",
   "source_file" : "/bionic/libc/include/stdlib.h"
  },
  {
   "function_name" : "gets",
   "linker_set_key" : "gets",
   "parameters" :
   [
    {
     "referenced_type" : "_ZTIPc"
    }
   ],
   "return_type" : "_ZTIPc",
   "source_file" : "/bionic/libc/include/stdio.h"
  },
  {
   "function_name" : "getservbyname",
   "linker_set_key" : "getservbyname",
   "parameters" :
   [
    {
     "referenced_type" : "_ZTIPKc"
    },
    {
     "referenced_type" : "_ZTIPKc"
    }
   ],
   "return_type" : "_ZTIP7servent",
   "source_file" : "/bionic/libc/include/netdb.h"
  },
  {
   "function_name" : "getservbyport",
   "linker_set_key" : "getservbyport",
   "parameters" :
   [
    {
     "referenced_type" : "_ZTIi"
    },
    {
     "referenced_type" : "_ZTIPKc"
    }
   ],
   "return_type" : "_ZTIP7servent",
   "source_file" : "/bionic/libc/include/netdb.h"
  },
  {
   "function_name" : "getservent",
   "linker_set_key" : "getservent",
   "return_type" : "_ZTIP7servent",
   "source_file" : "/bionic/libc/include/netdb.h"
  },
  {
   "function_name" : "getsubopt",
   "linker_set_key" : "getsubopt",
   "parameters" :
   [
    {
     "referenced_type" : "_ZTIPPc"
    },
    {
     "referenced_type" : "_ZTIPKPc"
    },
    {
     "referenced_type" : "_ZTIPPc"
    }
   ],
   "return_type" : "_ZTIi",
   "source_file" : "/bionic/libc/include/stdlib.h"
  },
  {
   "function_name" : "gettimeofday",
   "linker_set_key" : "gettimeofday",
   "parameters" :
   [
    {
     "referenced_type" : "_ZTIP7timeval"
    },
    {
     "referenced_type" : "_ZTIP8timezone"
    }
   ],
   "return_type" : "_ZTIi",
   "source_file" : "/bionic/libc/include/sys/time.h"
  },
  {
   "function_name" : "getutent",
   "linker_set_key" : "getutent",
   "return_type" : "_ZTIP4utmp",
   "source_file" : "/bionic/libc/include/utmp.h"
  },
  {
   "function_name" : "glob",
   "linker_set_key" : "glob",
   "parameters" :
   [
    {
     "referenced_type" : "_ZTIPKc"
    },
    {
     "referenced_type" : "_ZTIi"
    },
    {
     "referenced_type" : "_ZTIPFiPKciE"
    },
    {
     "referenced_type" : "_ZTIP6glob_t"
    }
   ],
   "return_type" : "_ZTIi",
   "source_file" : "/bionic/libc/include/glob.h"
  },
  {
   "function_name" : "globfree",
   "linker_set_key" : "globfree",
   "parameters" :
   [
    {
     "referenced_type" : "_ZTIP6glob_t"
    }
   ],
   "return_type" : "_ZTIv",
   "source_file" : "/bionic/libc/include/glob.h"
  },
  {
   "function_name" : "gmtime",
   "linker_set_key" : "gmtime",
   "parameters" :
   [
    {
     "referenced_type" : "_ZTIPKl"
    }
   ],
   "return_type" : "_ZTIP2tm",
   "source_file" : "/bionic/libc/include/time.h"
  },
  {
   "function_name" : "gmtime_r",
   "linker_set_key" : "gmtime_r",
   "parameters" :
   [
    {
     "referenced_type" : "_ZTIPKl"
    },
    {
     "referenced_type" : "_ZTIP2tm"
    }
   ],
   "return_type" : "_ZTIP2tm",
   "source_file" : "/bionic/libc/include/time.h"
  },
  {
   "function_name" : "hcreate",
   "linker_set_key" : "hcreate",
   "parameters" :
   [
    {
     "referenced_type" : "_ZTIj"
    }
   ],
   "return_type" : "_ZTIi",
   "source_file" : "/bionic/libc/include/search.h"
  },
  {
   "function_name" : "hcreate_r",
   "linker_set_key" : "hcreate_r",
   "parameters" :
   [
    {
     "referenced_type" : "_ZTIj"
    },
    {
     "referenced_type" : "_ZTIP12hsearch_data"
    }
   ],
   "return_type" : "_ZTIi",
   "source_file" : "/bionic/libc/include/search.h"
  },
  {
   "function_name" : "hdestroy",
   "linker_set_key" : "hdestroy",
   "return_type" : "_ZTIv",
   "source_file" : "/bionic/libc/include/search.h"
  },
  {
   "function_name" : "hdestroy_r",
   "linker_set_key" : "hdestroy_r",
   "parameters" :
   [
    {
     "referenced_type" : "_ZTIP12hsearch_data"
    }
   ],
   "return_type" : "_ZTIv",
   "source_file" : "/bionic/libc/include/search.h"
  },
  {
   "function_name" : "herror",
   "linker_set_key" : "herror",
   "parameters" :
   [
    {
     "referenced_type" : "_ZTIPKc"
    }
   ],
   "return_type" : "_ZTIv",
   "source_file" : "/bionic/libc/include/netdb.h"
  },
  {
   "function_name" : "hsearch",
   "linker_set_key" : "hsearch",
   "parameters" :
   [
    {
     "referenced_type" : "_ZTI5entry"
    },
    {
     "referenced_type" : "_ZTI6ACTION"
    }
   ],
   "return_type" : "_ZTIP5entry",
   "source_file" : "/bionic/libc/include/search.h"
  },
  {
   "function_name" : "hsearch_r",
   "linker_set_key" : "hsearch_r",
   "parameters" :
   [
    {
     "referenced_type" : "_ZTI5entry"
    },
    {
     "referenced_type" : "_ZTI6ACTION"
    },
    {
     "referenced_type" : "_ZTIPP5entry"
    },
    {
     "referenced_type" : "_ZTIP12hsearch_data"
    }
   ],
   "return_type" : "_ZTIi",
   "source_file" : "/bionic/libc/include/search.h"
  },
  {
   "function_name" : "hstrerror",
   "linker_set_key" : "hstrerror",
   "parameters" :
   [
    {
     "referenced_type" : "_ZTIi"
    }
   ],
   "return_type" : "_ZTIPKc",
   "source_file" : "/bionic/libc/include/netdb.h"
  },
  {
   "function_name" : "htonl",
   "linker_set_key" : "htonl",
   "parameters" :
   [
    {
     "referenced_type" : "_ZTIj"
    }
   ],
   "return_type" : "_ZTIj",
   "source_file" : "/bionic/libc/include/sys/endian.h"
  },
  {
   "function_name" : "htons",
   "linker_set_key" : "htons",
   "parameters" :
   [
    {
     "referenced_type" : "_ZTIt"
    }
   ],
   "return_type" : "_ZTIt",
   "source_file" : "/bionic/libc/include/sys/endian.h"
  },
  {
   "function_name" : "imaxabs",
   "linker_set_key" : "imaxabs",
   "parameters" :
   [
    {
     "referenced_type" : "_ZTIx"
    }
   ],
   "return_type" : "_ZTIx",
   "source_file" : "/bionic/libc/include/inttypes.h"
  },
  {
   "function_name" : "imaxdiv",
   "linker_set_key" : "imaxdiv",
   "parameters" :
   [
    {
     "referenced_type" : "_ZTIx"
    },
    {
     "referenced_type" : "_ZTIx"
    }
   ],
   "return_type" : "_ZTI9imaxdiv_t",
   "source_file" : "/bionic/libc/include/inttypes.h"
  },
  {
   "function_name" : "inet_lnaof",
   "linker_set_key" : "inet_lnaof",
   "parameters" :
   [
    {
     "referenced_type" : "_ZTI7in_addr"
    }
   ],
   "return_type" : "_ZTIj",
   "source_file" : "/bionic/libc/include/arpa/inet.h"
  },
  {
   "function_name" : "inet_makeaddr",
   "linker_set_key" : "inet_makeaddr",
   "parameters" :
   [
    {
     "referenced_type" : "_ZTIj"
    },
    {
     "referenced_type" : "_ZTIj"
    }
   ],
   "return_type" : "_ZTI7in_addr",
   "source_file" : "/bionic/libc/include/arpa/inet.h"
  },
  {
   "function_name" : "inet_netof",
   "linker_set_key" : "inet_netof",
   "parameters" :
   [
    {
     "referenced_type" : "_ZTI7in_addr"
    }
   ],
   "return_type" : "_ZTIj",
   "source_file" : "/bionic/libc/include/arpa/inet.h"
  },
  {
   "function_name" : "inet_nsap_addr",
   "linker_set_key" : "inet_nsap_addr",
   "parameters" :
   [
    {
     "referenced_type" : "_ZTIPKc"
    },
    {
     "referenced_type" : "_ZTIPh"
    },
    {
     "referenced_type" : "_ZTIi"
    }
   ],
   "return_type" : "_ZTIj",
   "source_file" : "/bionic/libc/include/arpa/inet.h"
  },
  {
   "function_name" : "inet_nsap_ntoa",
   "linker_set_key" : "inet_nsap_ntoa",
   "parameters" :
   [
    {
     "referenced_type" : "_ZTIi"
    },
    {
     "referenced_type" : "_ZTIPKh"
    },
    {
     "referenced_type" : "_ZTIPc"
    }
   ],
   "return_type" : "_ZTIPc",
   "source_file" : "/bionic/libc/include/arpa/inet.h"
  },
  {
   "function_name" : "inet_ntoa",
   "linker_set_key" : "inet_ntoa",
   "parameters" :
   [
    {
     "referenced_type" : "_ZTI7in_addr"
    }
   ],
   "return_type" : "_ZTIPc",
   "source_file" : "/bionic/libc/include/arpa/inet.h"
  },
  {
   "function_name" : "inet_ntop",
   "linker_set_key" : "inet_ntop",
   "parameters" :
   [
    {
     "referenced_type" : "_ZTIi"
    },
    {
     "referenced_type" : "_ZTIPKv"
    },
    {
     "referenced_type" : "_ZTIPc"
    },
    {
     "referenced_type" : "_ZTIi"
    }
   ],
   "return_type" : "_ZTIPKc",
   "source_file" : "/bionic/libc/include/arpa/inet.h"
  },
  {
   "function_name" : "inet_pton",
   "linker_set_key" : "inet_pton",
   "parameters" :
   [
    {
     "referenced_type" : "_ZTIi"
    },
    {
     "referenced_type" : "_ZTIPKc"
    },
    {
     "referenced_type" : "_ZTIPv"
    }
   ],
   "return_type" : "_ZTIi",
   "source_file" : "/bionic/libc/include/arpa/inet.h"
  },
  {
   "function_name" : "initstate",
   "linker_set_key" : "initstate",
   "parameters" :
   [
    {
     "referenced_type" : "_ZTIj"
    },
    {
     "referenced_type" : "_ZTIPc"
    },
    {
     "referenced_type" : "_ZTIj"
    }
   ],
   "return_type" : "_ZTIPc",
   "source_file" : "/bionic/libc/include/stdlib.h"
  },
  {
   "function_name" : "insque",
   "linker_set_key" : "insque",
   "parameters" :
   [
    {
     "referenced_type" : "_ZTIPv"
    },
    {
     "referenced_type" : "_ZTIPv"
    }
   ],
   "return_type" : "_ZTIv",
   "source_file" : "/bionic/libc/include/search.h"
  },
  {
   "function_name" : "jrand48",
   "linker_set_key" : "jrand48",
   "parameters" :
   [
    {
     "referenced_type" : "_ZTIPt"
    }
   ],
   "return_type" : "_ZTIl",
   "source_file" : "/bionic/libc/include/stdlib.h"
  },
  {
   "function_name" : "labs",
   "linker_set_key" : "labs",
   "parameters" :
   [
    {
     "referenced_type" : "_ZTIl"
    }
   ],
   "return_type" : "_ZTIl",
   "source_file" : "/bionic/libc/include/stdlib.h"
  },
  {
   "function_name" : "lcong48",
   "linker_set_key" : "lcong48",
   "parameters" :
   [
    {
     "referenced_type" : "_ZTIPt"
    }
   ],
   "return_type" : "_ZTIv",
   "source_file" : "/bionic/libc/include/stdlib.h"
  },
  {
   "function_name" : "ldexp",
   "linker_set_key" : "ldexp",
   "parameters" :
   [
    {
     "referenced_type" : "_ZTId"
    },
    {
     "referenced_type" : "_ZTIi"
    }
   ],
   "return_type" : "_ZTId",
   "source_file" : "/bionic/libc/include/math.h"
  },
  {
   "function_name" : "ldiv",
   "linker_set_key" : "ldiv",
   "parameters" :
   [
    {
     "referenced_type" : "_ZTIl"
    },
    {
     "referenced_type" : "_ZTIl"
    }
   ],
   "return_type" : "_ZTI6ldiv_t",
   "source_file" : "/bionic/libc/include/stdlib.h"
  },
  {
   "function_name" : "lfind",
   "linker_set_key" : "lfind",
   "parameters" :
   [
    {
     "referenced_type" : "_ZTIPKv"
    },
    {
     "referenced_type" : "_ZTIPKv"
    },
    {
     "referenced_type" : "_ZTIPj"
    },
    {
     "referenced_type" : "_ZTIj"
    },
    {
     "referenced_type" : "_ZTIPFiPKvS0_E"
    }
   ],
   "return_type" : "_ZTIPv",
   "source_file" : "/bionic/libc/include/search.h"
  },
  {
   "function_name" : "llabs",
   "linker_set_key" : "llabs",
   "parameters" :
   [
    {
     "referenced_type" : "_ZTIx"
    }
   ],
   "return_type" : "_ZTIx",
   "source_file" : "/bionic/libc/include/stdlib.h"
  },
  {
   "function_name" : "lldiv",
   "linker_set_key" : "lldiv",
   "parameters" :
   [
    {
     "referenced_type" : "_ZTIx"
    },
    {
     "referenced_type" : "_ZTIx"
    }
   ],
   "return_type" : "_ZTI7lldiv_t",
   "source_file" : "/bionic/libc/include/stdlib.h"
  },
  {
   "function_name" : "localtime",
   "linker_set_key" : "localtime",
   "parameters" :
   [
    {
     "referenced_type" : "_ZTIPKl"
    }
   ],
   "return_type" : "_ZTIP2tm",
   "source_file" : "/bionic/libc/include/time.h"
  },
  {
   "function_name" : "localtime_r",
   "linker_set_key" : "localtime_r",
   "parameters" :
   [
    {
     "referenced_type" : "_ZTIPKl"
    },
    {
     "referenced_type" : "_ZTIP2tm"
    }
   ],
   "return_type" : "_ZTIP2tm",
   "source_file" : "/bionic/libc/include/time.h"
  },
  {
   "function_name" : "lrand48",
   "linker_set_key" : "lrand48",
   "return_type" : "_ZTIl",
   "source_file" : "/bionic/libc/include/stdlib.h"
  },
  {
   "function_name" : "lsearch",
   "linker_set_key" : "lsearch",
   "parameters" :
   [
    {
     "referenced_type" : "_ZTIPKv"
    },
    {
     "referenced_type" : "_ZTIPv"
    },
    {
     "referenced_type" : "_ZTIPj"
    },
    {
     "referenced_type" : "_ZTIj"
    },
    {
     "referenced_type" : "_ZTIPFiPKvS0_E"
    }
   ],
   "return_type" : "_ZTIPv",
   "source_file" : "/bionic/libc/include/search.h"
  },
  {
   "function_name" : "mallinfo",
   "linker_set_key" : "mallinfo",
   "return_type" : "_ZTI8mallinfo",
   "source_file" : "/bionic/libc/include/malloc.h"
  },
  {
   "function_name" : "malloc",
   "linker_set_key" : "malloc",
   "parameters" :
   [
    {
     "referenced_type" : "_ZTIj"
    }
   ],
   "return_type" : "_ZTIPv",
   "source_file" : "/bionic/libc/include/malloc.h"
  },
  {
   "function_name" : "malloc_info",
   "linker_set_key" : "malloc_info",
   "parameters" :
   [
    {
     "referenced_type" : "_ZTIi"
    },
    {
     "referenced_type" : "_ZTIP7__sFILE"
    }
   ],
   "return_type" : "_ZTIi",
   "source_file" : "/bionic/libc/include/malloc.h"
  },
  {
   "function_name" : "malloc_usable_size",
   "linker_set_key" : "malloc_usable_size",
   "parameters" :
   [
    {
     "referenced_type" : "_ZTIPKv"
    }
   ],
   "return_type" : "_ZTIj",
   "source_file" : "/bionic/libc/include/malloc.h"
  },
  {
   "function_name" : "mallopt",
   "linker_set_key" : "mallopt",
   "parameters" :
   [
    {
     "referenced_type" : "_ZTIi"
    },
    {
     "referenced_type" : "_ZTIi"
    }
   ],
   "return_type" : "_ZTIi",
   "source_file" : "/bionic/libc/include/malloc.h"
  },
  {
   "function_name" : "mbrlen",
   "linker_set_key" : "mbrlen",
   "parameters" :
   [
    {
     "referenced_type" : "_ZTIPKc"
    },
    {
     "referenced_type" : "_ZTIj"
    },
    {
     "referenced_type" : "_ZTIP9mbstate_t"
    }
   ],
   "return_type" : "_ZTIj",
   "source_file" : "/bionic/libc/include/wchar.h"
  },
  {
   "function_name" : "mbstowcs",
   "linker_set_key" : "mbstowcs",
   "parameters" :
   [
    {
     "referenced_type" : "_ZTIPj"
    },
    {
     "referenced_type" : "_ZTIPKc"
    },
    {
     "referenced_type" : "_ZTIj"
    }
   ],
   "return_type" : "_ZTIj",
   "source_file" : "/bionic/libc/include/stdlib.h"
  },
  {
   "function_name" : "mbtowc",
   "linker_set_key" : "mbtowc",
   "parameters" :
   [
    {
     "referenced_type" : "_ZTIPj"
    },
    {
     "referenced_type" : "_ZTIPKc"
    },
    {
     "referenced_type" : "_ZTIj"
    }
   ],
   "return_type" : "_ZTIi",
   "source_file" : "/bionic/libc/include/stdlib.h"
  },
  {
   "function_name" : "memalign",
   "linker_set_key" : "memalign",
   "parameters" :
   [
    {
     "referenced_type" : "_ZTIj"
    },
    {
     "referenced_type" : "_ZTIj"
    }
   ],
   "return_type" : "_ZTIPv",
   "source_file" : "/bionic/libc/include/malloc.h"
  },
  {
   "function_name" : "memccpy",
   "linker_set_key" : "memccpy",
   "parameters" :
   [
    {
     "referenced_type" : "_ZTIPv"
    },
    {
     "referenced_type" : "_ZTIPKv"
    },
    {
     "referenced_type" : "_ZTIi"
    },
    {
     "referenced_type" : "_ZTIj"
    }
   ],
   "return_type" : "_ZTIPv",
   "source_file" : "/bionic/libc/include/string.h"
  },
  {
   "function_name" : "memchr",
   "linker_set_key" : "memchr",
   "parameters" :
   [
    {
     "referenced_type" : "_ZTIPKv"
    },
    {
     "referenced_type" : "_ZTIi"
    },
    {
     "referenced_type" : "_ZTIj"
    }
   ],
   "return_type" : "_ZTIPv",
   "source_file" : "/bionic/libc/include/string.h"
  },
  {
   "function_name" : "memrchr",
   "linker_set_key" : "memrchr",
   "parameters" :
   [
    {
     "referenced_type" : "_ZTIPKv"
    },
    {
     "referenced_type" : "_ZTIi"
    },
    {
     "referenced_type" : "_ZTIj"
    }
   ],
   "return_type" : "_ZTIPv",
   "source_file" : "/bionic/libc/include/string.h"
  },
  {
   "function_name" : "mkdtemp",
   "linker_set_key" : "mkdtemp",
   "parameters" :
   [
    {
     "referenced_type" : "_ZTIPc"
    }
   ],
   "return_type" : "_ZTIPc",
   "source_file" : "/bionic/libc/include/stdlib.h"
  },
  {
   "function_name" : "mkostemp",
   "linker_set_key" : "mkostemp",
   "parameters" :
   [
    {
     "referenced_type" : "_ZTIPc"
    },
    {
     "referenced_type" : "_ZTIi"
    }
   ],
   "return_type" : "_ZTIi",
   "source_file" : "/bionic/libc/include/stdlib.h"
  },
  {
   "function_name" : "mkostemps",
   "linker_set_key" : "mkostemps",
   "parameters" :
   [
    {
     "referenced_type" : "_ZTIPc"
    },
    {
     "referenced_type" : "_ZTIi"
    },
    {
     "referenced_type" : "_ZTIi"
    }
   ],
   "return_type" : "_ZTIi",
   "source_file" : "/bionic/libc/include/stdlib.h"
  },
  {
   "function_name" : "mkstemp",
   "linker_set_key" : "mkstemp",
   "parameters" :
   [
    {
     "referenced_type" : "_ZTIPc"
    }
   ],
   "return_type" : "_ZTIi",
   "source_file" : "/bionic/libc/include/stdlib.h"
  },
  {
   "function_name" : "mkstemps",
   "linker_set_key" : "mkstemps",
   "parameters" :
   [
    {
     "referenced_type" : "_ZTIPc"
    },
    {
     "referenced_type" : "_ZTIi"
    }
   ],
   "return_type" : "_ZTIi",
   "source_file" : "/bionic/libc/include/stdlib.h"
  },
  {
   "function_name" : "mktemp",
   "linker_set_key" : "mktemp",
   "parameters" :
   [
    {
     "referenced_type" : "_ZTIPc"
    }
   ],
   "return_type" : "_ZTIPc",
   "source_file" : "/bionic/libc/include/stdlib.h"
  },
  {
   "function_name" : "mktime",
   "linker_set_key" : "mktime",
   "parameters" :
   [
    {
     "referenced_type" : "_ZTIP2tm"
    }
   ],
   "return_type" : "_ZTIl",
   "source_file" : "/bionic/libc/include/time.h"
  },
  {
   "function_name" : "mrand48",
   "linker_set_key" : "mrand48",
   "return_type" : "_ZTIl",
   "source_file" : "/bionic/libc/include/stdlib.h"
  },
  {
   "function_name" : "nice",
   "linker_set_key" : "nice",
   "parameters" :
   [
    {
     "referenced_type" : "_ZTIi"
    }
   ],
   "return_type" : "_ZTIi",
   "source_file" : "/bionic/libc/include/unistd.h"
  },
  {
   "function_name" : "nrand48",
   "linker_set_key" : "nrand48",
   "parameters" :
   [
    {
     "referenced_type" : "_ZTIPt"
    }
   ],
   "return_type" : "_ZTIl",
   "source_file" : "/bionic/libc/include/stdlib.h"
  },
  {
   "function_name" : "ntohl",
   "linker_set_key" : "ntohl",
   "parameters" :
   [
    {
     "referenced_type" : "_ZTIj"
    }
   ],
   "return_type" : "_ZTIj",
   "source_file" : "/bionic/libc/include/sys/endian.h"
  },
  {
   "function_name" : "ntohs",
   "linker_set_key" : "ntohs",
   "parameters" :
   [
    {
     "referenced_type" : "_ZTIt"
    }
   ],
   "return_type" : "_ZTIt",
   "source_file" : "/bionic/libc/include/sys/endian.h"
  },
  {
   "function_name" : "open_memstream",
   "linker_set_key" : "open_memstream",
   "parameters" :
   [
    {
     "referenced_type" : "_ZTIPPc"
    },
    {
     "referenced_type" : "_ZTIPj"
    }
   ],
   "return_type" : "_ZTIP7__sFILE",
   "source_file" : "/bionic/libc/include/stdio.h"
  },
  {
   "function_name" : "open_wmemstream",
   "linker_set_key" : "open_wmemstream",
   "parameters" :
   [
    {
     "referenced_type" : "_ZTIPPj"
    },
    {
     "referenced_type" : "_ZTIPj"
    }
   ],
   "return_type" : "_ZTIP7__sFILE",
   "source_file" : "/bionic/libc/include/wchar.h"
  },
  {
   "function_name" : "posix_memalign",
   "linker_set_key" : "posix_memalign",
   "parameters" :
   [
    {
     "referenced_type" : "_ZTIPPv"
    },
    {
     "referenced_type" : "_ZTIj"
    },
    {
     "referenced_type" : "_ZTIj"
    }
   ],
   "return_type" : "_ZTIi",
   "source_file" : "/bionic/libc/include/stdlib.h"
  },
  {
   "function_name" : "psiginfo",
   "linker_set_key" : "psiginfo",
   "parameters" :
   [
    {
     "referenced_type" : "_ZTIPK7siginfo"
    },
    {
     "referenced_type" : "_ZTIPKc"
    }
   ],
   "return_type" : "_ZTIv",
   "source_file" : "/bionic/libc/include/signal.h"
  },
  {
   "function_name" : "psignal",
   "linker_set_key" : "psignal",
   "parameters" :
   [
    {
     "referenced_type" : "_ZTIi"
    },
    {
     "referenced_type" : "_ZTIPKc"
    }
   ],
   "return_type" : "_ZTIv",
   "source_file" : "/bionic/libc/include/signal.h"
  },
  {
   "function_name" : "pthread_attr_destroy",
   "linker_set_key" : "pthread_attr_destroy",
   "parameters" :
   [
    {
     "referenced_type" : "_ZTIP14pthread_attr_t"
    }
   ],
   "return_type" : "_ZTIi",
   "source_file" : "/bionic/libc/include/pthread.h"
  },
  {
   "function_name" : "pthread_attr_getdetachstate",
   "linker_set_key" : "pthread_attr_getdetachstate",
   "parameters" :
   [
    {
     "referenced_type" : "_ZTIPK14pthread_attr_t"
    },
    {
     "referenced_type" : "_ZTIPi"
    }
   ],
   "return_type" : "_ZTIi",
   "source_file" : "/bionic/libc/include/pthread.h"
  },
  {
   "function_name" : "pthread_attr_getguardsize",
   "linker_set_key" : "pthread_attr_getguardsize",
   "parameters" :
   [
    {
     "referenced_type" : "_ZTIPK14pthread_attr_t"
    },
    {
     "referenced_type" : "_ZTIPj"
    }
   ],
   "return_type" : "_ZTIi",
   "source_file" : "/bionic/libc/include/pthread.h"
  },
  {
   "function_name" : "pthread_attr_getinheritsched",
   "linker_set_key" : "pthread_attr_getinheritsched",
   "parameters" :
   [
    {
     "referenced_type" : "_ZTIPK14pthread_attr_t"
    },
    {
     "referenced_type" : "_ZTIPi"
    }
   ],
   "return_type" : "_ZTIi",
   "source_file" : "/bionic/libc/include/pthread.h"
  },
  {
   "function_name" : "pthread_attr_getschedparam",
   "linker_set_key" : "pthread_attr_getschedparam",
   "parameters" :
   [
    {
     "referenced_type" : "_ZTIPK14pthread_attr_t"
    },
    {
     "referenced_type" : "_ZTIP11sched_param"
    }
   ],
   "return_type" : "_ZTIi",
   "source_file" : "/bionic/libc/include/pthread.h"
  },
  {
   "function_name" : "pthread_attr_getschedpolicy",
   "linker_set_key" : "pthread_attr_getschedpolicy",
   "parameters" :
   [
    {
     "referenced_type" : "_ZTIPK14pthread_attr_t"
    },
    {
     "referenced_type" : "_ZTIPi"
    }
   ],
   "return_type" : "_ZTIi",
   "source_file" : "/bionic/libc/include/pthread.h"
  },
  {
   "function_name" : "pthread_attr_getscope",
   "linker_set_key" : "pthread_attr_getscope",
   "parameters" :
   [
    {
     "referenced_type" : "_ZTIPK14pthread_attr_t"
    },
    {
     "referenced_type" : "_ZTIPi"
    }
   ],
   "return_type" : "_ZTIi",
   "source_file" : "/bionic/libc/include/pthread.h"
  },
  {
   "function_name" : "pthread_attr_getstack",
   "linker_set_key" : "pthread_attr_getstack",
   "parameters" :
   [
    {
     "referenced_type" : "_ZTIPK14pthread_attr_t"
    },
    {
     "referenced_type" : "_ZTIPPv"
    },
    {
     "referenced_type" : "_ZTIPj"
    }
   ],
   "return_type" : "_ZTIi",
   "source_file" : "/bionic/libc/include/pthread.h"
  },
  {
   "function_name" : "pthread_attr_getstacksize",
   "linker_set_key" : "pthread_attr_getstacksize",
   "parameters" :
   [
    {
     "referenced_type" : "_ZTIPK14pthread_attr_t"
    },
    {
     "referenced_type" : "_ZTIPj"
    }
   ],
   "return_type" : "_ZTIi",
   "source_file" : "/bionic/libc/include/pthread.h"
  },
  {
   "function_name" : "pthread_attr_init",
   "linker_set_key" : "pthread_attr_init",
   "parameters" :
   [
    {
     "referenced_type" : "_ZTIP14pthread_attr_t"
    }
   ],
   "return_type" : "_ZTIi",
   "source_file" : "/bionic/libc/include/pthread.h"
  },
  {
   "function_name" : "pthread_attr_setdetachstate",
   "linker_set_key" : "pthread_attr_setdetachstate",
   "parameters" :
   [
    {
     "referenced_type" : "_ZTIP14pthread_attr_t"
    },
    {
     "referenced_type" : "_ZTIi"
    }
   ],
   "return_type" : "_ZTIi",
   "source_file" : "/bionic/libc/include/pthread.h"
  },
  {
   "function_name" : "pthread_attr_setguardsize",
   "linker_set_key" : "pthread_attr_setguardsize",
   "parameters" :
   [
    {
     "referenced_type" : "_ZTIP14pthread_attr_t"
    },
    {
     "referenced_type" : "_ZTIj"
    }
   ],
   "return_type" : "_ZTIi",
   "source_file" : "/bionic/libc/include/pthread.h"
  },
  {
   "function_name" : "pthread_attr_setinheritsched",
   "linker_set_key" : "pthread_attr_setinheritsched",
   "parameters" :
   [
    {
     "referenced_type" : "_ZTIP14pthread_attr_t"
    },
    {
     "referenced_type" : "_ZTIi"
    }
   ],
   "return_type" : "_ZTIi",
   "source_file" : "/bionic/libc/include/pthread.h"
  },
  {
   "function_name" : "pthread_attr_setschedparam",
   "linker_set_key" : "pthread_attr_setschedparam",
   "parameters" :
   [
    {
     "referenced_type" : "_ZTIP14pthread_attr_t"
    },
    {
     "referenced_type" : "_ZTIPK11sched_param"
    }
   ],
   "return_type" : "_ZTIi",
   "source_file" : "/bionic/libc/include/pthread.h"
  },
  {
   "function_name" : "pthread_attr_setschedpolicy",
   "linker_set_key" : "pthread_attr_setschedpolicy",
   "parameters" :
   [
    {
     "referenced_type" : "_ZTIP14pthread_attr_t"
    },
    {
     "referenced_type" : "_ZTIi"
    }
   ],
   "return_type" : "_ZTIi",
   "source_file" : "/bionic/libc/include/pthread.h"
  },
  {
   "function_name" : "pthread_attr_setscope",
   "linker_set_key" : "pthread_attr_setscope",
   "parameters" :
   [
    {
     "referenced_type" : "_ZTIP14pthread_attr_t"
    },
    {
     "referenced_type" : "_ZTIi"
    }
   ],
   "return_type" : "_ZTIi",
   "source_file" : "/bionic/libc/include/pthread.h"
  },
  {
   "function_name" : "pthread_attr_setstack",
   "linker_set_key" : "pthread_attr_setstack",
   "parameters" :
   [
    {
     "referenced_type" : "_ZTIP14pthread_attr_t"
    },
    {
     "referenced_type" : "_ZTIPv"
    },
    {
     "referenced_type" : "_ZTIj"
    }
   ],
   "return_type" : "_ZTIi",
   "source_file" : "/bionic/libc/include/pthread.h"
  },
  {
   "function_name" : "pthread_attr_setstacksize",
   "linker_set_key" : "pthread_attr_setstacksize",
   "parameters" :
   [
    {
     "referenced_type" : "_ZTIP14pthread_attr_t"
    },
    {
     "referenced_type" : "_ZTIj"
    }
   ],
   "return_type" : "_ZTIi",
   "source_file" : "/bionic/libc/include/pthread.h"
  },
  {
   "function_name" : "pthread_barrier_destroy",
   "linker_set_key" : "pthread_barrier_destroy",
   "parameters" :
   [
    {
     "referenced_type" : "_ZTIP17pthread_barrier_t"
    }
   ],
   "return_type" : "_ZTIi",
   "source_file" : "/bionic/libc/include/pthread.h"
  },
  {
   "function_name" : "pthread_barrier_init",
   "linker_set_key" : "pthread_barrier_init",
   "parameters" :
   [
    {
     "referenced_type" : "_ZTIP17pthread_barrier_t"
    },
    {
     "referenced_type" : "_ZTIPKi"
    },
    {
     "referenced_type" : "_ZTIj"
    }
   ],
   "return_type" : "_ZTIi",
   "source_file" : "/bionic/libc/include/pthread.h"
  },
  {
   "function_name" : "pthread_barrier_wait",
   "linker_set_key" : "pthread_barrier_wait",
   "parameters" :
   [
    {
     "referenced_type" : "_ZTIP17pthread_barrier_t"
    }
   ],
   "return_type" : "_ZTIi",
   "source_file" : "/bionic/libc/include/pthread.h"
  },
  {
   "function_name" : "pthread_barrierattr_destroy",
   "linker_set_key" : "pthread_barrierattr_destroy",
   "parameters" :
   [
    {
     "referenced_type" : "_ZTIPi"
    }
   ],
   "return_type" : "_ZTIi",
   "source_file" : "/bionic/libc/include/pthread.h"
  },
  {
   "function_name" : "pthread_barrierattr_getpshared",
   "linker_set_key" : "pthread_barrierattr_getpshared",
   "parameters" :
   [
    {
     "referenced_type" : "_ZTIPKi"
    },
    {
     "referenced_type" : "_ZTIPi"
    }
   ],
   "return_type" : "_ZTIi",
   "source_file" : "/bionic/libc/include/pthread.h"
  },
  {
   "function_name" : "pthread_barrierattr_init",
   "linker_set_key" : "pthread_barrierattr_init",
   "parameters" :
   [
    {
     "referenced_type" : "_ZTIPi"
    }
   ],
   "return_type" : "_ZTIi",
   "source_file" : "/bionic/libc/include/pthread.h"
  },
  {
   "function_name" : "pthread_barrierattr_setpshared",
   "linker_set_key" : "pthread_barrierattr_setpshared",
   "parameters" :
   [
    {
     "referenced_type" : "_ZTIPi"
    },
    {
     "referenced_type" : "_ZTIi"
    }
   ],
   "return_type" : "_ZTIi",
   "source_file" : "/bionic/libc/include/pthread.h"
  },
  {
   "function_name" : "pthread_cond_broadcast",
   "linker_set_key" : "pthread_cond_broadcast",
   "parameters" :
   [
    {
     "referenced_type" : "_ZTIP14pthread_cond_t"
    }
   ],
   "return_type" : "_ZTIi",
   "source_file" : "/bionic/libc/include/pthread.h"
  },
  {
   "function_name" : "pthread_cond_clockwait",
   "linker_set_key" : "pthread_cond_clockwait",
   "parameters" :
   [
    {
     "referenced_type" : "_ZTIP14pthread_cond_t"
    },
    {
     "referenced_type" : "_ZTIP15pthread_mutex_t"
    },
    {
     "referenced_type" : "_ZTIi"
    },
    {
     "referenced_type" : "_ZTIPK8timespec"
    }
   ],
   "return_type" : "_ZTIi",
   "source_file" : "/bionic/libc/include/pthread.h"
  },
  {
   "function_name" : "pthread_cond_destroy",
   "linker_set_key" : "pthread_cond_destroy",
   "parameters" :
   [
    {
     "referenced_type" : "_ZTIP14pthread_cond_t"
    }
   ],
   "return_type" : "_ZTIi",
   "source_file" : "/bionic/libc/include/pthread.h"
  },
  {
   "function_name" : "pthread_cond_init",
   "linker_set_key" : "pthread_cond_init",
   "parameters" :
   [
    {
     "referenced_type" : "_ZTIP14pthread_cond_t"
    },
    {
     "referenced_type" : "_ZTIPKl"
    }
   ],
   "return_type" : "_ZTIi",
   "source_file" : "/bionic/libc/include/pthread.h"
  },
  {
   "function_name" : "pthread_cond_signal",
   "linker_set_key" : "pthread_cond_signal",
   "parameters" :
   [
    {
     "referenced_type" : "_ZTIP14pthread_cond_t"
    }
   ],
   "return_type" : "_ZTIi",
   "source_file" : "/bionic/libc/include/pthread.h"
  },
  {
   "function_name" : "pthread_cond_timedwait",
   "linker_set_key" : "pthread_cond_timedwait",
   "parameters" :
   [
    {
     "referenced_type" : "_ZTIP14pthread_cond_t"
    },
    {
     "referenced_type" : "_ZTIP15pthread_mutex_t"
    },
    {
     "referenced_type" : "_ZTIPK8timespec"
    }
   ],
   "return_type" : "_ZTIi",
   "source_file" : "/bionic/libc/include/pthread.h"
  },
  {
   "function_name" : "pthread_cond_timedwait_monotonic_np",
   "linker_set_key" : "pthread_cond_timedwait_monotonic_np",
   "parameters" :
   [
    {
     "referenced_type" : "_ZTIP14pthread_cond_t"
    },
    {
     "referenced_type" : "_ZTIP15pthread_mutex_t"
    },
    {
     "referenced_type" : "_ZTIPK8timespec"
    }
   ],
   "return_type" : "_ZTIi",
   "source_file" : "/bionic/libc/include/pthread.h"
  },
  {
   "function_name" : "pthread_cond_wait",
   "linker_set_key" : "pthread_cond_wait",
   "parameters" :
   [
    {
     "referenced_type" : "_ZTIP14pthread_cond_t"
    },
    {
     "referenced_type" : "_ZTIP15pthread_mutex_t"
    }
   ],
   "return_type" : "_ZTIi",
   "source_file" : "/bionic/libc/include/pthread.h"
  },
  {
   "function_name" : "pthread_condattr_destroy",
   "linker_set_key" : "pthread_condattr_destroy",
   "parameters" :
   [
    {
     "referenced_type" : "_ZTIPl"
    }
   ],
   "return_type" : "_ZTIi",
   "source_file" : "/bionic/libc/include/pthread.h"
  },
  {
   "function_name" : "pthread_condattr_getclock",
   "linker_set_key" : "pthread_condattr_getclock",
   "parameters" :
   [
    {
     "referenced_type" : "_ZTIPKl"
    },
    {
     "referenced_type" : "_ZTIPi"
    }
   ],
   "return_type" : "_ZTIi",
   "source_file" : "/bionic/libc/include/pthread.h"
  },
  {
   "function_name" : "pthread_condattr_getpshared",
   "linker_set_key" : "pthread_condattr_getpshared",
   "parameters" :
   [
    {
     "referenced_type" : "_ZTIPKl"
    },
    {
     "referenced_type" : "_ZTIPi"
    }
   ],
   "return_type" : "_ZTIi",
   "source_file" : "/bionic/libc/include/pthread.h"
  },
  {
   "function_name" : "pthread_condattr_init",
   "linker_set_key" : "pthread_condattr_init",
   "parameters" :
   [
    {
     "referenced_type" : "_ZTIPl"
    }
   ],
   "return_type" : "_ZTIi",
   "source_file" : "/bionic/libc/include/pthread.h"
  },
  {
   "function_name" : "pthread_condattr_setclock",
   "linker_set_key" : "pthread_condattr_setclock",
   "parameters" :
   [
    {
     "referenced_type" : "_ZTIPl"
    },
    {
     "referenced_type" : "_ZTIi"
    }
   ],
   "return_type" : "_ZTIi",
   "source_file" : "/bionic/libc/include/pthread.h"
  },
  {
   "function_name" : "pthread_condattr_setpshared",
   "linker_set_key" : "pthread_condattr_setpshared",
   "parameters" :
   [
    {
     "referenced_type" : "_ZTIPl"
    },
    {
     "referenced_type" : "_ZTIi"
    }
   ],
   "return_type" : "_ZTIi",
   "source_file" : "/bionic/libc/include/pthread.h"
  },
  {
   "function_name" : "pthread_create",
   "linker_set_key" : "pthread_create",
   "parameters" :
   [
    {
     "referenced_type" : "_ZTIPl"
    },
    {
     "referenced_type" : "_ZTIPK14pthread_attr_t"
    },
    {
     "referenced_type" : "_ZTIPFPvS_E"
    },
    {
     "referenced_type" : "_ZTIPv"
    }
   ],
   "return_type" : "_ZTIi",
   "source_file" : "/bionic/libc/include/pthread.h"
  },
  {
   "function_name" : "pthread_detach",
   "linker_set_key" : "pthread_detach",
   "parameters" :
   [
    {
     "referenced_type" : "_ZTIl"
    }
   ],
   "return_type" : "_ZTIi",
   "source_file" : "/bionic/libc/include/pthread.h"
  },
  {
   "function_name" : "pthread_equal",
   "linker_set_key" : "pthread_equal",
   "parameters" :
   [
    {
     "referenced_type" : "_ZTIl"
    },
    {
     "referenced_type" : "_ZTIl"
    }
   ],
   "return_type" : "_ZTIi",
   "source_file" : "/bionic/libc/include/pthread.h"
  },
  {
   "function_name" : "pthread_exit",
   "linker_set_key" : "pthread_exit",
   "parameters" :
   [
    {
     "referenced_type" : "_ZTIPv"
    }
   ],
   "return_type" : "_ZTIv",
   "source_file" : "/bionic/libc/include/pthread.h"
  },
  {
   "function_name" : "pthread_getattr_np",
   "linker_set_key" : "pthread_getattr_np",
   "parameters" :
   [
    {
     "referenced_type" : "_ZTIl"
    },
    {
     "referenced_type" : "_ZTIP14pthread_attr_t"
    }
   ],
   "return_type" : "_ZTIi",
   "source_file" : "/bionic/libc/include/pthread.h"
  },
  {
   "function_name" : "pthread_getcpuclockid",
   "linker_set_key" : "pthread_getcpuclockid",
   "parameters" :
   [
    {
     "referenced_type" : "_ZTIl"
    },
    {
     "referenced_type" : "_ZTIPi"
    }
   ],
   "return_type" : "_ZTIi",
   "source_file" : "/bionic/libc/include/pthread.h"
  },
  {
   "function_name" : "pthread_getname_np",
   "linker_set_key" : "pthread_getname_np",
   "parameters" :
   [
    {
     "referenced_type" : "_ZTIl"
    },
    {
     "referenced_type" : "_ZTIPc"
    },
    {
     "referenced_type" : "_ZTIj"
    }
   ],
   "return_type" : "_ZTIi",
   "source_file" : "/bionic/libc/include/pthread.h"
  },
  {
   "function_name" : "pthread_getschedparam",
   "linker_set_key" : "pthread_getschedparam",
   "parameters" :
   [
    {
     "referenced_type" : "_ZTIl"
    },
    {
     "referenced_type" : "_ZTIPi"
    },
    {
     "referenced_type" : "_ZTIP11sched_param"
    }
   ],
   "return_type" : "_ZTIi",
   "source_file" : "/bionic/libc/include/pthread.h"
  },
  {
   "function_name" : "pthread_getspecific",
   "linker_set_key" : "pthread_getspecific",
   "parameters" :
   [
    {
     "referenced_type" : "_ZTIi"
    }
   ],
   "return_type" : "_ZTIPv",
   "source_file" : "/bionic/libc/include/pthread.h"
  },
  {
   "function_name" : "pthread_gettid_np",
   "linker_set_key" : "pthread_gettid_np",
   "parameters" :
   [
    {
     "referenced_type" : "_ZTIl"
    }
   ],
   "return_type" : "_ZTIi",
   "source_file" : "/bionic/libc/include/pthread.h"
  },
  {
   "function_name" : "pthread_join",
   "linker_set_key" : "pthread_join",
   "parameters" :
   [
    {
     "referenced_type" : "_ZTIl"
    },
    {
     "referenced_type" : "_ZTIPPv"
    }
   ],
   "return_type" : "_ZTIi",
   "source_file" : "/bionic/libc/include/pthread.h"
  },
  {
   "function_name" : "pthread_key_create",
   "linker_set_key" : "pthread_key_create",
   "parameters" :
   [
    {
     "referenced_type" : "_ZTIPi"
    },
    {
     "referenced_type" : "_ZTIPFvPvE"
    }
   ],
   "return_type" : "_ZTIi",
   "source_file" : "/bionic/libc/include/pthread.h"
  },
  {
   "function_name" : "pthread_key_delete",
   "linker_set_key" : "pthread_key_delete",
   "parameters" :
   [
    {
     "referenced_type" : "_ZTIi"
    }
   ],
   "return_type" : "_ZTIi",
   "source_file" : "/bionic/libc/include/pthread.h"
  },
  {
   "function_name" : "pthread_kill",
   "linker_set_key" : "pthread_kill",
   "parameters" :
   [
    {
     "referenced_type" : "_ZTIl"
    },
    {
     "referenced_type" : "_ZTIi"
    }
   ],
   "return_type" : "_ZTIi",
   "source_file" : "/bionic/libc/include/signal.h"
  },
  {
   "function_name" : "pthread_mutex_clocklock",
   "linker_set_key" : "pthread_mutex_clocklock",
   "parameters" :
   [
    {
     "referenced_type" : "_ZTIP15pthread_mutex_t"
    },
    {
     "referenced_type" : "_ZTIi"
    },
    {
     "referenced_type" : "_ZTIPK8timespec"
    }
   ],
   "return_type" : "_ZTIi",
   "source_file" : "/bionic/libc/include/pthread.h"
  },
  {
   "function_name" : "pthread_mutex_destroy",
   "linker_set_key" : "pthread_mutex_destroy",
   "parameters" :
   [
    {
     "referenced_type" : "_ZTIP15pthread_mutex_t"
    }
   ],
   "return_type" : "_ZTIi",
   "source_file" : "/bionic/libc/include/pthread.h"
  },
  {
   "function_name" : "pthread_mutex_init",
   "linker_set_key" : "pthread_mutex_init",
   "parameters" :
   [
    {
     "referenced_type" : "_ZTIP15pthread_mutex_t"
    },
    {
     "referenced_type" : "_ZTIPKl"
    }
   ],
   "return_type" : "_ZTIi",
   "source_file" : "/bionic/libc/include/pthread.h"
  },
  {
   "function_name" : "pthread_mutex_lock",
   "linker_set_key" : "pthread_mutex_lock",
   "parameters" :
   [
    {
     "referenced_type" : "_ZTIP15pthread_mutex_t"
    }
   ],
   "return_type" : "_ZTIi",
   "source_file" : "/bionic/libc/include/pthread.h"
  },
  {
   "function_name" : "pthread_mutex_timedlock",
   "linker_set_key" : "pthread_mutex_timedlock",
   "parameters" :
   [
    {
     "referenced_type" : "_ZTIP15pthread_mutex_t"
    },
    {
     "referenced_type" : "_ZTIPK8timespec"
    }
   ],
   "return_type" : "_ZTIi",
   "source_file" : "/bionic/libc/include/pthread.h"
  },
  {
   "function_name" : "pthread_mutex_timedlock_monotonic_np",
   "linker_set_key" : "pthread_mutex_timedlock_monotonic_np",
   "parameters" :
   [
    {
     "referenced_type" : "_ZTIP15pthread_mutex_t"
    },
    {
     "referenced_type" : "_ZTIPK8timespec"
    }
   ],
   "return_type" : "_ZTIi",
   "source_file" : "/bionic/libc/include/pthread.h"
  },
  {
   "function_name" : "pthread_mutex_trylock",
   "linker_set_key" : "pthread_mutex_trylock",
   "parameters" :
   [
    {
     "referenced_type" : "_ZTIP15pthread_mutex_t"
    }
   ],
   "return_type" : "_ZTIi",
   "source_file" : "/bionic/libc/include/pthread.h"
  },
  {
   "function_name" : "pthread_mutex_unlock",
   "linker_set_key" : "pthread_mutex_unlock",
   "parameters" :
   [
    {
     "referenced_type" : "_ZTIP15pthread_mutex_t"
    }
   ],
   "return_type" : "_ZTIi",
   "source_file" : "/bionic/libc/include/pthread.h"
  },
  {
   "function_name" : "pthread_mutexattr_destroy",
   "linker_set_key" : "pthread_mutexattr_destroy",
   "parameters" :
   [
    {
     "referenced_type" : "_ZTIPl"
    }
   ],
   "return_type" : "_ZTIi",
   "source_file" : "/bionic/libc/include/pthread.h"
  },
  {
   "function_name" : "pthread_mutexattr_getprotocol",
   "linker_set_key" : "pthread_mutexattr_getprotocol",
   "parameters" :
   [
    {
     "referenced_type" : "_ZTIPKl"
    },
    {
     "referenced_type" : "_ZTIPi"
    }
   ],
   "return_type" : "_ZTIi",
   "source_file" : "/bionic/libc/include/pthread.h"
  },
  {
   "function_name" : "pthread_mutexattr_getpshared",
   "linker_set_key" : "pthread_mutexattr_getpshared",
   "parameters" :
   [
    {
     "referenced_type" : "_ZTIPKl"
    },
    {
     "referenced_type" : "_ZTIPi"
    }
   ],
   "return_type" : "_ZTIi",
   "source_file" : "/bionic/libc/include/pthread.h"
  },
  {
   "function_name" : "pthread_mutexattr_gettype",
   "linker_set_key" : "pthread_mutexattr_gettype",
   "parameters" :
   [
    {
     "referenced_type" : "_ZTIPKl"
    },
    {
     "referenced_type" : "_ZTIPi"
    }
   ],
   "return_type" : "_ZTIi",
   "source_file" : "/bionic/libc/include/pthread.h"
  },
  {
   "function_name" : "pthread_mutexattr_init",
   "linker_set_key" : "pthread_mutexattr_init",
   "parameters" :
   [
    {
     "referenced_type" : "_ZTIPl"
    }
   ],
   "return_type" : "_ZTIi",
   "source_file" : "/bionic/libc/include/pthread.h"
  },
  {
   "function_name" : "pthread_mutexattr_setprotocol",
   "linker_set_key" : "pthread_mutexattr_setprotocol",
   "parameters" :
   [
    {
     "referenced_type" : "_ZTIPl"
    },
    {
     "referenced_type" : "_ZTIi"
    }
   ],
   "return_type" : "_ZTIi",
   "source_file" : "/bionic/libc/include/pthread.h"
  },
  {
   "function_name" : "pthread_mutexattr_setpshared",
   "linker_set_key" : "pthread_mutexattr_setpshared",
   "parameters" :
   [
    {
     "referenced_type" : "_ZTIPl"
    },
    {
     "referenced_type" : "_ZTIi"
    }
   ],
   "return_type" : "_ZTIi",
   "source_file" : "/bionic/libc/include/pthread.h"
  },
  {
   "function_name" : "pthread_mutexattr_settype",
   "linker_set_key" : "pthread_mutexattr_settype",
   "parameters" :
   [
    {
     "referenced_type" : "_ZTIPl"
    },
    {
     "referenced_type" : "_ZTIi"
    }
   ],
   "return_type" : "_ZTIi",
   "source_file" : "/bionic/libc/include/pthread.h"
  },
  {
   "function_name" : "pthread_once",
   "linker_set_key" : "pthread_once",
   "parameters" :
   [
    {
     "referenced_type" : "_ZTIPi"
    },
    {
     "referenced_type" : "_ZTIPFvvE"
    }
   ],
   "return_type" : "_ZTIi",
   "source_file" : "/bionic/libc/include/pthread.h"
  },
  {
   "function_name" : "pthread_rwlock_clockrdlock",
   "linker_set_key" : "pthread_rwlock_clockrdlock",
   "parameters" :
   [
    {
     "referenced_type" : "_ZTIP16pthread_rwlock_t"
    },
    {
     "referenced_type" : "_ZTIi"
    },
    {
     "referenced_type" : "_ZTIPK8timespec"
    }
   ],
   "return_type" : "_ZTIi",
   "source_file" : "/bionic/libc/include/pthread.h"
  },
  {
   "function_name" : "pthread_rwlock_clockwrlock",
   "linker_set_key" : "pthread_rwlock_clockwrlock",
   "parameters" :
   [
    {
     "referenced_type" : "_ZTIP16pthread_rwlock_t"
    },
    {
     "referenced_type" : "_ZTIi"
    },
    {
     "referenced_type" : "_ZTIPK8timespec"
    }
   ],
   "return_type" : "_ZTIi",
   "source_file" : "/bionic/libc/include/pthread.h"
  },
  {
   "function_name" : "pthread_rwlock_destroy",
   "linker_set_key" : "pthread_rwlock_destroy",
   "parameters" :
   [
    {
     "referenced_type" : "_ZTIP16pthread_rwlock_t"
    }
   ],
   "return_type" : "_ZTIi",
   "source_file" : "/bionic/libc/include/pthread.h"
  },
  {
   "function_name" : "pthread_rwlock_init",
   "linker_set_key" : "pthread_rwlock_init",
   "parameters" :
   [
    {
     "referenced_type" : "_ZTIP16pthread_rwlock_t"
    },
    {
     "referenced_type" : "_ZTIPKl"
    }
   ],
   "return_type" : "_ZTIi",
   "source_file" : "/bionic/libc/include/pthread.h"
  },
  {
   "function_name" : "pthread_rwlock_rdlock",
   "linker_set_key" : "pthread_rwlock_rdlock",
   "parameters" :
   [
    {
     "referenced_type" : "_ZTIP16pthread_rwlock_t"
    }
   ],
   "return_type" : "_ZTIi",
   "source_file" : "/bionic/libc/include/pthread.h"
  },
  {
   "function_name" : "pthread_rwlock_timedrdlock",
   "linker_set_key" : "pthread_rwlock_timedrdlock",
   "parameters" :
   [
    {
     "referenced_type" : "_ZTIP16pthread_rwlock_t"
    },
    {
     "referenced_type" : "_ZTIPK8timespec"
    }
   ],
   "return_type" : "_ZTIi",
   "source_file" : "/bionic/libc/include/pthread.h"
  },
  {
   "function_name" : "pthread_rwlock_timedrdlock_monotonic_np",
   "linker_set_key" : "pthread_rwlock_timedrdlock_monotonic_np",
   "parameters" :
   [
    {
     "referenced_type" : "_ZTIP16pthread_rwlock_t"
    },
    {
     "referenced_type" : "_ZTIPK8timespec"
    }
   ],
   "return_type" : "_ZTIi",
   "source_file" : "/bionic/libc/include/pthread.h"
  },
  {
   "function_name" : "pthread_rwlock_timedwrlock",
   "linker_set_key" : "pthread_rwlock_timedwrlock",
   "parameters" :
   [
    {
     "referenced_type" : "_ZTIP16pthread_rwlock_t"
    },
    {
     "referenced_type" : "_ZTIPK8timespec"
    }
   ],
   "return_type" : "_ZTIi",
   "source_file" : "/bionic/libc/include/pthread.h"
  },
  {
   "function_name" : "pthread_rwlock_timedwrlock_monotonic_np",
   "linker_set_key" : "pthread_rwlock_timedwrlock_monotonic_np",
   "parameters" :
   [
    {
     "referenced_type" : "_ZTIP16pthread_rwlock_t"
    },
    {
     "referenced_type" : "_ZTIPK8timespec"
    }
   ],
   "return_type" : "_ZTIi",
   "source_file" : "/bionic/libc/include/pthread.h"
  },
  {
   "function_name" : "pthread_rwlock_tryrdlock",
   "linker_set_key" : "pthread_rwlock_tryrdlock",
   "parameters" :
   [
    {
     "referenced_type" : "_ZTIP16pthread_rwlock_t"
    }
   ],
   "return_type" : "_ZTIi",
   "source_file" : "/bionic/libc/include/pthread.h"
  },
  {
   "function_name" : "pthread_rwlock_trywrlock",
   "linker_set_key" : "pthread_rwlock_trywrlock",
   "parameters" :
   [
    {
     "referenced_type" : "_ZTIP16pthread_rwlock_t"
    }
   ],
   "return_type" : "_ZTIi",
   "source_file" : "/bionic/libc/include/pthread.h"
  },
  {
   "function_name" : "pthread_rwlock_unlock",
   "linker_set_key" : "pthread_rwlock_unlock",
   "parameters" :
   [
    {
     "referenced_type" : "_ZTIP16pthread_rwlock_t"
    }
   ],
   "return_type" : "_ZTIi",
   "source_file" : "/bionic/libc/include/pthread.h"
  },
  {
   "function_name" : "pthread_rwlock_wrlock",
   "linker_set_key" : "pthread_rwlock_wrlock",
   "parameters" :
   [
    {
     "referenced_type" : "_ZTIP16pthread_rwlock_t"
    }
   ],
   "return_type" : "_ZTIi",
   "source_file" : "/bionic/libc/include/pthread.h"
  },
  {
   "function_name" : "pthread_rwlockattr_destroy",
   "linker_set_key" : "pthread_rwlockattr_destroy",
   "parameters" :
   [
    {
     "referenced_type" : "_ZTIPl"
    }
   ],
   "return_type" : "_ZTIi",
   "source_file" : "/bionic/libc/include/pthread.h"
  },
  {
   "function_name" : "pthread_rwlockattr_getkind_np",
   "linker_set_key" : "pthread_rwlockattr_getkind_np",
   "parameters" :
   [
    {
     "referenced_type" : "_ZTIPKl"
    },
    {
     "referenced_type" : "_ZTIPi"
    }
   ],
   "return_type" : "_ZTIi",
   "source_file" : "/bionic/libc/include/pthread.h"
  },
  {
   "function_name" : "pthread_rwlockattr_getpshared",
   "linker_set_key" : "pthread_rwlockattr_getpshared",
   "parameters" :
   [
    {
     "referenced_type" : "_ZTIPKl"
    },
    {
     "referenced_type" : "_ZTIPi"
    }
   ],
   "return_type" : "_ZTIi",
   "source_file" : "/bionic/libc/include/pthread.h"
  },
  {
   "function_name" : "pthread_rwlockattr_init",
   "linker_set_key" : "pthread_rwlockattr_init",
   "parameters" :
   [
    {
     "referenced_type" : "_ZTIPl"
    }
   ],
   "return_type" : "_ZTIi",
   "source_file" : "/bionic/libc/include/pthread.h"
  },
  {
   "function_name" : "pthread_rwlockattr_setkind_np",
   "linker_set_key" : "pthread_rwlockattr_setkind_np",
   "parameters" :
   [
    {
     "referenced_type" : "_ZTIPl"
    },
    {
     "referenced_type" : "_ZTIi"
    }
   ],
   "return_type" : "_ZTIi",
   "source_file" : "/bionic/libc/include/pthread.h"
  },
  {
   "function_name" : "pthread_rwlockattr_setpshared",
   "linker_set_key" : "pthread_rwlockattr_setpshared",
   "parameters" :
   [
    {
     "referenced_type" : "_ZTIPl"
    },
    {
     "referenced_type" : "_ZTIi"
    }
   ],
   "return_type" : "_ZTIi",
   "source_file" : "/bionic/libc/include/pthread.h"
  },
  {
   "function_name" : "pthread_self",
   "linker_set_key" : "pthread_self",
   "return_type" : "_ZTIl",
   "source_file" : "/bionic/libc/include/pthread.h"
  },
  {
   "function_name" : "pthread_setname_np",
   "linker_set_key" : "pthread_setname_np",
   "parameters" :
   [
    {
     "referenced_type" : "_ZTIl"
    },
    {
     "referenced_type" : "_ZTIPKc"
    }
   ],
   "return_type" : "_ZTIi",
   "source_file" : "/bionic/libc/include/pthread.h"
  },
  {
   "function_name" : "pthread_setschedparam",
   "linker_set_key" : "pthread_setschedparam",
   "parameters" :
   [
    {
     "referenced_type" : "_ZTIl"
    },
    {
     "referenced_type" : "_ZTIi"
    },
    {
     "referenced_type" : "_ZTIPK11sched_param"
    }
   ],
   "return_type" : "_ZTIi",
   "source_file" : "/bionic/libc/include/pthread.h"
  },
  {
   "function_name" : "pthread_setschedprio",
   "linker_set_key" : "pthread_setschedprio",
   "parameters" :
   [
    {
     "referenced_type" : "_ZTIl"
    },
    {
     "referenced_type" : "_ZTIi"
    }
   ],
   "return_type" : "_ZTIi",
   "source_file" : "/bionic/libc/include/pthread.h"
  },
  {
   "function_name" : "pthread_setspecific",
   "linker_set_key" : "pthread_setspecific",
   "parameters" :
   [
    {
     "referenced_type" : "_ZTIi"
    },
    {
     "referenced_type" : "_ZTIPKv"
    }
   ],
   "return_type" : "_ZTIi",
   "source_file" : "/bionic/libc/include/pthread.h"
  },
  {
   "function_name" : "pthread_sigqueue",
   "linker_set_key" : "pthread_sigqueue",
   "parameters" :
   [
    {
     "referenced_type" : "_ZTIl"
    },
    {
     "referenced_type" : "_ZTIi"
    },
    {
     "referenced_type" : "_ZTIK6sigval"
    }
   ],
   "return_type" : "_ZTIi",
   "source_file" : "/bionic/libc/include/signal.h"
  },
  {
   "function_name" : "pthread_spin_destroy",
   "linker_set_key" : "pthread_spin_destroy",
   "parameters" :
   [
    {
     "referenced_type" : "_ZTIP18pthread_spinlock_t"
    }
   ],
   "return_type" : "_ZTIi",
   "source_file" : "/bionic/libc/include/pthread.h"
  },
  {
   "function_name" : "pthread_spin_init",
   "linker_set_key" : "pthread_spin_init",
   "parameters" :
   [
    {
     "referenced_type" : "_ZTIP18pthread_spinlock_t"
    },
    {
     "referenced_type" : "_ZTIi"
    }
   ],
   "return_type" : "_ZTIi",
   "source_file" : "/bionic/libc/include/pthread.h"
  },
  {
   "function_name" : "pthread_spin_lock",
   "linker_set_key" : "pthread_spin_lock",
   "parameters" :
   [
    {
     "referenced_type" : "_ZTIP18pthread_spinlock_t"
    }
   ],
   "return_type" : "_ZTIi",
   "source_file" : "/bionic/libc/include/pthread.h"
  },
  {
   "function_name" : "pthread_spin_trylock",
   "linker_set_key" : "pthread_spin_trylock",
   "parameters" :
   [
    {
     "referenced_type" : "_ZTIP18pthread_spinlock_t"
    }
   ],
   "return_type" : "_ZTIi",
   "source_file" : "/bionic/libc/include/pthread.h"
  },
  {
   "function_name" : "pthread_spin_unlock",
   "linker_set_key" : "pthread_spin_unlock",
   "parameters" :
   [
    {
     "referenced_type" : "_ZTIP18pthread_spinlock_t"
    }
   ],
   "return_type" : "_ZTIi",
   "source_file" : "/bionic/libc/include/pthread.h"
  },
  {
   "function_name" : "putenv",
   "linker_set_key" : "putenv",
   "parameters" :
   [
    {
     "referenced_type" : "_ZTIPc"
    }
   ],
   "return_type" : "_ZTIi",
   "source_file" : "/bionic/libc/include/stdlib.h"
  },
  {
   "function_name" : "qsort",
   "linker_set_key" : "qsort",
   "parameters" :
   [
    {
     "referenced_type" : "_ZTIPv"
    },
    {
     "referenced_type" : "_ZTIj"
    },
    {
     "referenced_type" : "_ZTIj"
    },
    {
     "referenced_type" : "_ZTIPFiPKvS0_E"
    }
   ],
   "return_type" : "_ZTIv",
   "source_file" : "/bionic/libc/include/stdlib.h"
  },
  {
   "function_name" : "quick_exit",
   "linker_set_key" : "quick_exit",
   "parameters" :
   [
    {
     "referenced_type" : "_ZTIi"
    }
   ],
   "return_type" : "_ZTIv",
   "source_file" : "/bionic/libc/include/stdlib.h"
  },
  {
   "function_name" : "rand_r",
   "linker_set_key" : "rand_r",
   "parameters" :
   [
    {
     "referenced_type" : "_ZTIPj"
    }
   ],
   "return_type" : "_ZTIi",
   "source_file" : "/bionic/libc/include/stdlib.h"
  },
  {
   "function_name" : "random",
   "linker_set_key" : "random",
   "return_type" : "_ZTIl",
   "source_file" : "/bionic/libc/include/stdlib.h"
  },
  {
   "function_name" : "realloc",
   "linker_set_key" : "realloc",
   "parameters" :
   [
    {
     "referenced_type" : "_ZTIPv"
    },
    {
     "referenced_type" : "_ZTIj"
    }
   ],
   "return_type" : "_ZTIPv",
   "source_file" : "/bionic/libc/include/malloc.h"
  },
  {
   "function_name" : "reallocarray",
   "linker_set_key" : "reallocarray",
   "parameters" :
   [
    {
     "referenced_type" : "_ZTIPv"
    },
    {
     "referenced_type" : "_ZTIj"
    },
    {
     "referenced_type" : "_ZTIj"
    }
   ],
   "return_type" : "_ZTIPv",
   "source_file" : "/bionic/libc/include/malloc.h"
  },
  {
   "function_name" : "regcomp",
   "linker_set_key" : "regcomp",
   "parameters" :
   [
    {
     "referenced_type" : "_ZTIP7regex_t"
    },
    {
     "referenced_type" : "_ZTIPKc"
    },
    {
     "referenced_type" : "_ZTIi"
    }
   ],
   "return_type" : "_ZTIi",
   "source_file" : "/bionic/libc/include/regex.h"
  },
  {
   "function_name" : "regerror",
   "linker_set_key" : "regerror",
   "parameters" :
   [
    {
     "referenced_type" : "_ZTIi"
    },
    {
     "referenced_type" : "_ZTIPK7regex_t"
    },
    {
     "referenced_type" : "_ZTIPc"
    },
    {
     "referenced_type" : "_ZTIj"
    }
   ],
   "return_type" : "_ZTIj",
   "source_file" : "/bionic/libc/include/regex.h"
  },
  {
   "function_name" : "regexec",
   "linker_set_key" : "regexec",
   "parameters" :
   [
    {
     "referenced_type" : "_ZTIPK7regex_t"
    },
    {
     "referenced_type" : "_ZTIPKc"
    },
    {
     "referenced_type" : "_ZTIj"
    },
    {
     "referenced_type" : "_ZTIP10regmatch_t"
    },
    {
     "referenced_type" : "_ZTIi"
    }
   ],
   "return_type" : "_ZTIi",
   "source_file" : "/bionic/libc/include/regex.h"
  },
  {
   "function_name" : "regfree",
   "linker_set_key" : "regfree",
   "parameters" :
   [
    {
     "referenced_type" : "_ZTIP7regex_t"
    }
   ],
   "return_type" : "_ZTIv",
   "source_file" : "/bionic/libc/include/regex.h"
  },
  {
   "function_name" : "remque",
   "linker_set_key" : "remque",
   "parameters" :
   [
    {
     "referenced_type" : "_ZTIPv"
    }
   ],
   "return_type" : "_ZTIv",
   "source_file" : "/bionic/libc/include/search.h"
  },
  {
   "function_name" : "res_init",
   "linker_set_key" : "res_init",
   "return_type" : "_ZTIi",
   "source_file" : "/bionic/libc/include/resolv.h"
  },
  {
   "function_name" : "res_mkquery",
   "linker_set_key" : "res_mkquery",
   "parameters" :
   [
    {
     "referenced_type" : "_ZTIi"
    },
    {
     "referenced_type" : "_ZTIPKc"
    },
    {
     "referenced_type" : "_ZTIi"
    },
    {
     "referenced_type" : "_ZTIi"
    },
    {
     "referenced_type" : "_ZTIPKh"
    },
    {
     "referenced_type" : "_ZTIi"
    },
    {
     "referenced_type" : "_ZTIPKh"
    },
    {
     "referenced_type" : "_ZTIPh"
    },
    {
     "referenced_type" : "_ZTIi"
    }
   ],
   "return_type" : "_ZTIi",
   "source_file" : "/bionic/libc/include/resolv.h"
  },
  {
   "function_name" : "res_query",
   "linker_set_key" : "res_query",
   "parameters" :
   [
    {
     "referenced_type" : "_ZTIPKc"
    },
    {
     "referenced_type" : "_ZTIi"
    },
    {
     "referenced_type" : "_ZTIi"
    },
    {
     "referenced_type" : "_ZTIPh"
    },
    {
     "referenced_type" : "_ZTIi"
    }
   ],
   "return_type" : "_ZTIi",
   "source_file" : "/bionic/libc/include/resolv.h"
  },
  {
   "function_name" : "res_search",
   "linker_set_key" : "res_search",
   "parameters" :
   [
    {
     "referenced_type" : "_ZTIPKc"
    },
    {
     "referenced_type" : "_ZTIi"
    },
    {
     "referenced_type" : "_ZTIi"
    },
    {
     "referenced_type" : "_ZTIPh"
    },
    {
     "referenced_type" : "_ZTIi"
    }
   ],
   "return_type" : "_ZTIi",
   "source_file" : "/bionic/libc/include/resolv.h"
  },
  {
   "function_name" : "seed48",
   "linker_set_key" : "seed48",
   "parameters" :
   [
    {
     "referenced_type" : "_ZTIPt"
    }
   ],
   "return_type" : "_ZTIPt",
   "source_file" : "/bionic/libc/include/stdlib.h"
  },
  {
   "function_name" : "setenv",
   "linker_set_key" : "setenv",
   "parameters" :
   [
    {
     "referenced_type" : "_ZTIPKc"
    },
    {
     "referenced_type" : "_ZTIPKc"
    },
    {
     "referenced_type" : "_ZTIi"
    }
   ],
   "return_type" : "_ZTIi",
   "source_file" : "/bionic/libc/include/stdlib.h"
  },
  {
   "function_name" : "sethostent",
   "linker_set_key" : "sethostent",
   "parameters" :
   [
    {
     "referenced_type" : "_ZTIi"
    }
   ],
   "return_type" : "_ZTIv",
   "source_file" : "/bionic/libc/include/netdb.h"
  },
  {
   "function_name" : "setprogname",
   "linker_set_key" : "setprogname",
   "parameters" :
   [
    {
     "referenced_type" : "_ZTIPKc"
    }
   ],
   "return_type" : "_ZTIv",
   "source_file" : "/bionic/libc/include/stdlib.h"
  },
  {
   "function_name" : "setservent",
   "linker_set_key" : "setservent",
   "parameters" :
   [
    {
     "referenced_type" : "_ZTIi"
    }
   ],
   "return_type" : "_ZTIv",
   "source_file" : "/bionic/libc/include/netdb.h"
  },
  {
   "function_name" : "setstate",
   "linker_set_key" : "setstate",
   "parameters" :
   [
    {
     "referenced_type" : "_ZTIPc"
    }
   ],
   "return_type" : "_ZTIPc",
   "source_file" : "/bionic/libc/include/stdlib.h"
  },
  {
   "function_name" : "setutent",
   "linker_set_key" : "setutent",
   "return_type" : "_ZTIv",
   "source_file" : "/bionic/libc/include/utmp.h"
  },
  {
   "function_name" : "setvbuf",
   "linker_set_key" : "setvbuf",
   "parameters" :
   [
    {
     "referenced_type" : "_ZTIP7__sFILE"
    },
    {
     "referenced_type" : "_ZTIPc"
    },
    {
     "referenced_type" : "_ZTIi"
    },
    {
     "referenced_type" : "_ZTIj"
    }
   ],
   "return_type" : "_ZTIi",
   "source_file" : "/bionic/libc/include/stdio.h"
  },
  {
   "function_name" : "srand48",
   "linker_set_key" : "srand48",
   "parameters" :
   [
    {
     "referenced_type" : "_ZTIl"
    }
   ],
   "return_type" : "_ZTIv",
   "source_file" : "/bionic/libc/include/stdlib.h"
  },
  {
   "function_name" : "srandom",
   "linker_set_key" : "srandom",
   "parameters" :
   [
    {
     "referenced_type" : "_ZTIj"
    }
   ],
   "return_type" : "_ZTIv",
   "source_file" : "/bionic/libc/include/stdlib.h"
  },
  {
   "function_name" : "stpncpy",
   "linker_set_key" : "stpncpy",
   "parameters" :
   [
    {
     "referenced_type" : "_ZTIPc"
    },
    {
     "referenced_type" : "_ZTIPKc"
    },
    {
     "referenced_type" : "_ZTIj"
    }
   ],
   "return_type" : "_ZTIPc",
   "source_file" : "/bionic/libc/include/string.h"
  },
  {
   "function_name" : "strcasecmp",
   "linker_set_key" : "strcasecmp",
   "parameters" :
   [
    {
     "referenced_type" : "_ZTIPKc"
    },
    {
     "referenced_type" : "_ZTIPKc"
    }
   ],
   "return_type" : "_ZTIi",
   "source_file" : "/bionic/libc/include/bits/strcasecmp.h"
  },
  {
   "function_name" : "strcasestr",
   "linker_set_key" : "strcasestr",
   "parameters" :
   [
    {
     "referenced_type" : "_ZTIPKc"
    },
    {
     "referenced_type" : "_ZTIPKc"
    }
   ],
   "return_type" : "_ZTIPc",
   "source_file" : "/bionic/libc/include/string.h"
  },
  {
   "function_name" : "strchr",
   "linker_set_key" : "strchr",
   "parameters" :
   [
    {
     "referenced_type" : "_ZTIPKc"
    },
    {
     "referenced_type" : "_ZTIi"
    }
   ],
   "return_type" : "_ZTIPc",
   "source_file" : "/bionic/libc/include/string.h"
  },
  {
   "function_name" : "strcoll",
   "linker_set_key" : "strcoll",
   "parameters" :
   [
    {
     "referenced_type" : "_ZTIPKc"
    },
    {
     "referenced_type" : "_ZTIPKc"
    }
   ],
   "return_type" : "_ZTIi",
   "source_file" : "/bionic/libc/include/string.h"
  },
  {
   "function_name" : "strcspn",
   "linker_set_key" : "strcspn",
   "parameters" :
   [
    {
     "referenced_type" : "_ZTIPKc"
    },
    {
     "referenced_type" : "_ZTIPKc"
    }
   ],
   "return_type" : "_ZTIj",
   "source_file" : "/bionic/libc/include/string.h"
  },
  {
   "function_name" : "strdup",
   "linker_set_key" : "strdup",
   "parameters" :
   [
    {
     "referenced_type" : "_ZTIPKc"
    }
   ],
   "return_type" : "_ZTIPc",
   "source_file" : "/bionic/libc/include/string.h"
  },
  {
   "function_name" : "strftime",
   "linker_set_key" : "strftime",
   "parameters" :
   [
    {
     "referenced_type" : "_ZTIPc"
    },
    {
     "referenced_type" : "_ZTIj"
    },
    {
     "referenced_type" : "_ZTIPKc"
    },
    {
     "referenced_type" : "_ZTIPK2tm"
    }
   ],
   "return_type" : "_ZTIj",
   "source_file" : "/bionic/libc/include/time.h"
  },
  {
   "function_name" : "strftime_l",
   "linker_set_key" : "strftime_l",
   "parameters" :
   [
    {
     "referenced_type" : "_ZTIPc"
    },
    {
     "referenced_type" : "_ZTIj"
    },
    {
     "referenced_type" : "_ZTIPKc"
    },
    {
     "referenced_type" : "_ZTIPK2tm"
    },
    {
     "referenced_type" : "_ZTIP10__locale_t"
    }
   ],
   "return_type" : "_ZTIj",
   "source_file" : "/bionic/libc/include/time.h"
  },
  {
   "function_name" : "strlcat",
   "linker_set_key" : "strlcat",
   "parameters" :
   [
    {
     "referenced_type" : "_ZTIPc"
    },
    {
     "referenced_type" : "_ZTIPKc"
    },
    {
     "referenced_type" : "_ZTIj"
    }
   ],
   "return_type" : "_ZTIj",
   "source_file" : "/bionic/libc/include/string.h"
  },
  {
   "function_name" : "strlcpy",
   "linker_set_key" : "strlcpy",
   "parameters" :
   [
    {
     "referenced_type" : "_ZTIPc"
    },
    {
     "referenced_type" : "_ZTIPKc"
    },
    {
     "referenced_type" : "_ZTIj"
    }
   ],
   "return_type" : "_ZTIj",
   "source_file" : "/bionic/libc/include/string.h"
  },
  {
   "function_name" : "strncasecmp",
   "linker_set_key" : "strncasecmp",
   "parameters" :
   [
    {
     "referenced_type" : "_ZTIPKc"
    },
    {
     "referenced_type" : "_ZTIPKc"
    },
    {
     "referenced_type" : "_ZTIj"
    }
   ],
   "return_type" : "_ZTIi",
   "source_file" : "/bionic/libc/include/bits/strcasecmp.h"
  },
  {
   "function_name" : "strncat",
   "linker_set_key" : "strncat",
   "parameters" :
   [
    {
     "referenced_type" : "_ZTIPc"
    },
    {
     "referenced_type" : "_ZTIPKc"
    },
    {
     "referenced_type" : "_ZTIj"
    }
   ],
   "return_type" : "_ZTIPc",
   "source_file" : "/bionic/libc/include/string.h"
  },
  {
   "function_name" : "strncmp",
   "linker_set_key" : "strncmp",
   "parameters" :
   [
    {
     "referenced_type" : "_ZTIPKc"
    },
    {
     "referenced_type" : "_ZTIPKc"
    },
    {
     "referenced_type" : "_ZTIj"
    }
   ],
   "return_type" : "_ZTIi",
   "source_file" : "/bionic/libc/include/string.h"
  },
  {
   "function_name" : "strncpy",
   "linker_set_key" : "strncpy",
   "parameters" :
   [
    {
     "referenced_type" : "_ZTIPc"
    },
    {
     "referenced_type" : "_ZTIPKc"
    },
    {
     "referenced_type" : "_ZTIj"
    }
   ],
   "return_type" : "_ZTIPc",
   "source_file" : "/bionic/libc/include/string.h"
  },
  {
   "function_name" : "strndup",
   "linker_set_key" : "strndup",
   "parameters" :
   [
    {
     "referenced_type" : "_ZTIPKc"
    },
    {
     "referenced_type" : "_ZTIj"
    }
   ],
   "return_type" : "_ZTIPc",
   "source_file" : "/bionic/libc/include/string.h"
  },
  {
   "function_name" : "strnlen",
   "linker_set_key" : "strnlen",
   "parameters" :
   [
    {
     "referenced_type" : "_ZTIPKc"
    },
    {
     "referenced_type" : "_ZTIj"
    }
   ],
   "return_type" : "_ZTIj",
   "source_file" : "/bionic/libc/include/string.h"
  },
  {
   "function_name" : "strpbrk",
   "linker_set_key" : "strpbrk",
   "parameters" :
   [
    {
     "referenced_type" : "_ZTIPKc"
    },
    {
     "referenced_type" : "_ZTIPKc"
    }
   ],
   "return_type" : "_ZTIPc",
   "source_file" : "/bionic/libc/include/string.h"
  },
  {
   "function_name" : "strptime",
   "linker_set_key" : "strptime",
   "parameters" :
   [
    {
     "referenced_type" : "_ZTIPKc"
    },
    {
     "referenced_type" : "_ZTIPKc"
    },
    {
     "referenced_type" : "_ZTIP2tm"
    }
   ],
   "return_type" : "_ZTIPc",
   "source_file" : "/bionic/libc/include/time.h"
  },
  {
   "function_name" : "strptime_l",
   "linker_set_key" : "strptime_l",
   "parameters" :
   [
    {
     "referenced_type" : "_ZTIPKc"
    },
    {
     "referenced_type" : "_ZTIPKc"
    },
    {
     "referenced_type" : "_ZTIP2tm"
    },
    {
     "referenced_type" : "_ZTIP10__locale_t"
    }
   ],
   "return_type" : "_ZTIPc",
   "source_file" : "/bionic/libc/include/time.h"
  },
  {
   "function_name" : "strrchr",
   "linker_set_key" : "strrchr",
   "parameters" :
   [
    {
     "referenced_type" : "_ZTIPKc"
    },
    {
     "referenced_type" : "_ZTIi"
    }
   ],
   "return_type" : "_ZTIPc",
   "source_file" : "/bionic/libc/include/string.h"
  },
  {
   "function_name" : "strsep",
   "linker_set_key" : "strsep",
   "parameters" :
   [
    {
     "referenced_type" : "_ZTIPPc"
    },
    {
     "referenced_type" : "_ZTIPKc"
    }
   ],
   "return_type" : "_ZTIPc",
   "source_file" : "/bionic/libc/include/string.h"
  },
  {
   "function_name" : "strspn",
   "linker_set_key" : "strspn",
   "parameters" :
   [
    {
     "referenced_type" : "_ZTIPKc"
    },
    {
     "referenced_type" : "_ZTIPKc"
    }
   ],
   "return_type" : "_ZTIj",
   "source_file" : "/bionic/libc/include/string.h"
  },
  {
   "function_name" : "strstr",
   "linker_set_key" : "strstr",
   "parameters" :
   [
    {
     "referenced_type" : "_ZTIPKc"
    },
    {
     "referenced_type" : "_ZTIPKc"
    }
   ],
   "return_type" : "_ZTIPc",
   "source_file" : "/bionic/libc/include/string.h"
  },
  {
   "function_name" : "strtok",
   "linker_set_key" : "strtok",
   "parameters" :
   [
    {
     "referenced_type" : "_ZTIPc"
    },
    {
     "referenced_type" : "_ZTIPKc"
    }
   ],
   "return_type" : "_ZTIPc",
   "source_file" : "/bionic/libc/include/string.h"
  },
  {
   "function_name" : "strtok_r",
   "linker_set_key" : "strtok_r",
   "parameters" :
   [
    {
     "referenced_type" : "_ZTIPc"
    },
    {
     "referenced_type" : "_ZTIPKc"
    },
    {
     "referenced_type" : "_ZTIPPc"
    }
   ],
   "return_type" : "_ZTIPc",
   "source_file" : "/bionic/libc/include/string.h"
  },
  {
   "function_name" : "strxfrm",
   "linker_set_key" : "strxfrm",
   "parameters" :
   [
    {
     "referenced_type" : "_ZTIPc"
    },
    {
     "referenced_type" : "_ZTIPKc"
    },
    {
     "referenced_type" : "_ZTIj"
    }
   ],
   "return_type" : "_ZTIj",
   "source_file" : "/bionic/libc/include/string.h"
  },
  {
   "function_name" : "sysconf",
   "linker_set_key" : "sysconf",
   "parameters" :
   [
    {
     "referenced_type" : "_ZTIi"
    }
   ],
   "return_type" : "_ZTIl",
   "source_file" : "/bionic/libc/include/bits/sysconf.h"
  },
  {
   "function_name" : "tdelete",
   "linker_set_key" : "tdelete",
   "parameters" :
   [
    {
     "referenced_type" : "_ZTIPKv"
    },
    {
     "referenced_type" : "_ZTIPPv"
    },
    {
     "referenced_type" : "_ZTIPFiPKvS0_E"
    }
   ],
   "return_type" : "_ZTIPv",
   "source_file" : "/bionic/libc/include/search.h"
  },
  {
   "function_name" : "tempnam",
   "linker_set_key" : "tempnam",
   "parameters" :
   [
    {
     "referenced_type" : "_ZTIPKc"
    },
    {
     "referenced_type" : "_ZTIPKc"
    }
   ],
   "return_type" : "_ZTIPc",
   "source_file" : "/bionic/libc/include/stdio.h"
  },
  {
   "function_name" : "tfind",
   "linker_set_key" : "tfind",
   "parameters" :
   [
    {
     "referenced_type" : "_ZTIPKv"
    },
    {
     "referenced_type" : "_ZTIPKPv"
    },
    {
     "referenced_type" : "_ZTIPFiPKvS0_E"
    }
   ],
   "return_type" : "_ZTIPv",
   "source_file" : "/bionic/libc/include/search.h"
  },
  {
   "function_name" : "time",
   "linker_set_key" : "time",
   "parameters" :
   [
    {
     "referenced_type" : "_ZTIPl"
    }
   ],
   "return_type" : "_ZTIl",
   "source_file" : "/bionic/libc/include/time.h"
  },
  {
   "function_name" : "timegm",
   "linker_set_key" : "timegm",
   "parameters" :
   [
    {
     "referenced_type" : "_ZTIP2tm"
    }
   ],
   "return_type" : "_ZTIl",
   "source_file" : "/bionic/libc/include/time.h"
  },
  {
   "function_name" : "timelocal",
   "linker_set_key" : "timelocal",
   "parameters" :
   [
    {
     "referenced_type" : "_ZTIP2tm"
    }
   ],
   "return_type" : "_ZTIl",
   "source_file" : "/bionic/libc/include/time.h"
  },
  {
   "function_name" : "tmpnam",
   "linker_set_key" : "tmpnam",
   "parameters" :
   [
    {
     "referenced_type" : "_ZTIPc"
    }
   ],
   "return_type" : "_ZTIPc",
   "source_file" : "/bionic/libc/include/stdio.h"
  },
  {
   "function_name" : "tsearch",
   "linker_set_key" : "tsearch",
   "parameters" :
   [
    {
     "referenced_type" : "_ZTIPKv"
    },
    {
     "referenced_type" : "_ZTIPPv"
    },
    {
     "referenced_type" : "_ZTIPFiPKvS0_E"
    }
   ],
   "return_type" : "_ZTIPv",
   "source_file" : "/bionic/libc/include/search.h"
  },
  {
   "function_name" : "twalk",
   "linker_set_key" : "twalk",
   "parameters" :
   [
    {
     "referenced_type" : "_ZTIPKv"
    },
    {
     "referenced_type" : "_ZTIPFvPKv5VISITiE"
    }
   ],
   "return_type" : "_ZTIv",
   "source_file" : "/bionic/libc/include/search.h"
  },
  {
   "function_name" : "tzset",
   "linker_set_key" : "tzset",
   "return_type" : "_ZTIv",
   "source_file" : "/bionic/libc/include/time.h"
  },
  {
   "function_name" : "ungetc",
   "linker_set_key" : "ungetc",
   "parameters" :
   [
    {
     "referenced_type" : "_ZTIi"
    },
    {
     "referenced_type" : "_ZTIP7__sFILE"
    }
   ],
   "return_type" : "_ZTIi",
   "source_file" : "/bionic/libc/include/stdio.h"
  },
  {
   "function_name" : "ungetwc",
   "linker_set_key" : "ungetwc",
   "parameters" :
   [
    {
     "referenced_type" : "_ZTIj"
    },
    {
     "referenced_type" : "_ZTIP7__sFILE"
    }
   ],
   "return_type" : "_ZTIj",
   "source_file" : "/bionic/libc/include/wchar.h"
  },
  {
   "function_name" : "unsetenv",
   "linker_set_key" : "unsetenv",
   "parameters" :
   [
    {
     "referenced_type" : "_ZTIPKc"
    }
   ],
   "return_type" : "_ZTIi",
   "source_file" : "/bionic/libc/include/stdlib.h"
  },
  {
   "function_name" : "utime",
   "linker_set_key" : "utime",
   "parameters" :
   [
    {
     "referenced_type" : "_ZTIPKc"
    },
    {
     "referenced_type" : "_ZTIPK7utimbuf"
    }
   ],
   "return_type" : "_ZTIi",
   "source_file" : "/bionic/libc/include/utime.h"
  },
  {
   "function_name" : "utmpname",
   "linker_set_key" : "utmpname",
   "parameters" :
   [
    {
     "referenced_type" : "_ZTIPKc"
    }
   ],
   "return_type" : "_ZTIi",
   "source_file" : "/bionic/libc/include/utmp.h"
  },
  {
   "function_name" : "vasprintf",
   "linker_set_key" : "vasprintf",
   "parameters" :
   [
    {
     "referenced_type" : "_ZTIPPc"
    },
    {
     "referenced_type" : "_ZTIPKc"
    },
    {
     "referenced_type" : "_ZTI9__va_list"
    }
   ],
   "return_type" : "_ZTIi",
   "source_file" : "/bionic/libc/include/stdio.h"
  },
  {
   "function_name" : "vdprintf",
   "linker_set_key" : "vdprintf",
   "parameters" :
   [
    {
     "referenced_type" : "_ZTIi"
    },
    {
     "referenced_type" : "_ZTIPKc"
    },
    {
     "referenced_type" : "_ZTI9__va_list"
    }
   ],
   "return_type" : "_ZTIi",
   "source_file" : "/bionic/libc/include/stdio.h"
  },
  {
   "function_name" : "verr",
   "linker_set_key" : "verr",
   "parameters" :
   [
    {
     "referenced_type" : "_ZTIi"
    },
    {
     "referenced_type" : "_ZTIPKc"
    },
    {
     "referenced_type" : "_ZTI9__va_list"
    }
   ],
   "return_type" : "_ZTIv",
   "source_file" : "/bionic/libc/include/err.h"
  },
  {
   "function_name" : "verrx",
   "linker_set_key" : "verrx",
   "parameters" :
   [
    {
     "referenced_type" : "_ZTIi"
    },
    {
     "referenced_type" : "_ZTIPKc"
    },
    {
     "referenced_type" : "_ZTI9__va_list"
    }
   ],
   "return_type" : "_ZTIv",
   "source_file" : "/bionic/libc/include/err.h"
  },
  {
   "function_name" : "vsscanf",
   "linker_set_key" : "vsscanf",
   "parameters" :
   [
    {
     "referenced_type" : "_ZTIPKc"
    },
    {
     "referenced_type" : "_ZTIPKc"
    },
    {
     "referenced_type" : "_ZTI9__va_list"
    }
   ],
   "return_type" : "_ZTIi",
   "source_file" : "/bionic/libc/include/stdio.h"
  },
  {
   "function_name" : "vswprintf",
   "linker_set_key" : "vswprintf",
   "parameters" :
   [
    {
     "referenced_type" : "_ZTIPj"
    },
    {
     "referenced_type" : "_ZTIj"
    },
    {
     "referenced_type" : "_ZTIPKj"
    },
    {
     "referenced_type" : "_ZTI9__va_list"
    }
   ],
   "return_type" : "_ZTIi",
   "source_file" : "/bionic/libc/include/wchar.h"
  },
  {
   "function_name" : "vswscanf",
   "linker_set_key" : "vswscanf",
   "parameters" :
   [
    {
     "referenced_type" : "_ZTIPKj"
    },
    {
     "referenced_type" : "_ZTIPKj"
    },
    {
     "referenced_type" : "_ZTI9__va_list"
    }
   ],
   "return_type" : "_ZTIi",
   "source_file" : "/bionic/libc/include/wchar.h"
  },
  {
   "function_name" : "vwarn",
   "linker_set_key" : "vwarn",
   "parameters" :
   [
    {
     "referenced_type" : "_ZTIPKc"
    },
    {
     "referenced_type" : "_ZTI9__va_list"
    }
   ],
   "return_type" : "_ZTIv",
   "source_file" : "/bionic/libc/include/err.h"
  },
  {
   "function_name" : "vwarnx",
   "linker_set_key" : "vwarnx",
   "parameters" :
   [
    {
     "referenced_type" : "_ZTIPKc"
    },
    {
     "referenced_type" : "_ZTI9__va_list"
    }
   ],
   "return_type" : "_ZTIv",
   "source_file" : "/bionic/libc/include/err.h"
  },
  {
   "function_name" : "warn",
   "linker_set_key" : "warn",
   "parameters" :
   [
    {
     "referenced_type" : "_ZTIPKc"
    }
   ],
   "return_type" : "_ZTIv",
   "source_file" : "/bionic/libc/include/err.h"
  },
  {
   "function_name" : "warnx",
   "linker_set_key" : "warnx",
   "parameters" :
   [
    {
     "referenced_type" : "_ZTIPKc"
    }
   ],
   "return_type" : "_ZTIv",
   "source_file" : "/bionic/libc/include/err.h"
  },
  {
   "function_name" : "wcpcpy",
   "linker_set_key" : "wcpcpy",
   "parameters" :
   [
    {
     "referenced_type" : "_ZTIPj"
    },
    {
     "referenced_type" : "_ZTIPKj"
    }
   ],
   "return_type" : "_ZTIPj",
   "source_file" : "/bionic/libc/include/wchar.h"
  },
  {
   "function_name" : "wcpncpy",
   "linker_set_key" : "wcpncpy",
   "parameters" :
   [
    {
     "referenced_type" : "_ZTIPj"
    },
    {
     "referenced_type" : "_ZTIPKj"
    },
    {
     "referenced_type" : "_ZTIj"
    }
   ],
   "return_type" : "_ZTIPj",
   "source_file" : "/bionic/libc/include/wchar.h"
  },
  {
   "function_name" : "wcscasecmp",
   "linker_set_key" : "wcscasecmp",
   "parameters" :
   [
    {
     "referenced_type" : "_ZTIPKj"
    },
    {
     "referenced_type" : "_ZTIPKj"
    }
   ],
   "return_type" : "_ZTIi",
   "source_file" : "/bionic/libc/include/wchar.h"
  },
  {
   "function_name" : "wcscat",
   "linker_set_key" : "wcscat",
   "parameters" :
   [
    {
     "referenced_type" : "_ZTIPj"
    },
    {
     "referenced_type" : "_ZTIPKj"
    }
   ],
   "return_type" : "_ZTIPj",
   "source_file" : "/bionic/libc/include/wchar.h"
  },
  {
   "function_name" : "wcschr",
   "linker_set_key" : "wcschr",
   "parameters" :
   [
    {
     "referenced_type" : "_ZTIPKj"
    },
    {
     "referenced_type" : "_ZTIj"
    }
   ],
   "return_type" : "_ZTIPj",
   "source_file" : "/bionic/libc/include/wchar.h"
  },
  {
   "function_name" : "wcscmp",
   "linker_set_key" : "wcscmp",
   "parameters" :
   [
    {
     "referenced_type" : "_ZTIPKj"
    },
    {
     "referenced_type" : "_ZTIPKj"
    }
   ],
   "return_type" : "_ZTIi",
   "source_file" : "/bionic/libc/include/wchar.h"
  },
  {
   "function_name" : "wcscoll",
   "linker_set_key" : "wcscoll",
   "parameters" :
   [
    {
     "referenced_type" : "_ZTIPKj"
    },
    {
     "referenced_type" : "_ZTIPKj"
    }
   ],
   "return_type" : "_ZTIi",
   "source_file" : "/bionic/libc/include/wchar.h"
  },
  {
   "function_name" : "wcscpy",
   "linker_set_key" : "wcscpy",
   "parameters" :
   [
    {
     "referenced_type" : "_ZTIPj"
    },
    {
     "referenced_type" : "_ZTIPKj"
    }
   ],
   "return_type" : "_ZTIPj",
   "source_file" : "/bionic/libc/include/wchar.h"
  },
  {
   "function_name" : "wcscspn",
   "linker_set_key" : "wcscspn",
   "parameters" :
   [
    {
     "referenced_type" : "_ZTIPKj"
    },
    {
     "referenced_type" : "_ZTIPKj"
    }
   ],
   "return_type" : "_ZTIj",
   "source_file" : "/bionic/libc/include/wchar.h"
  },
  {
   "function_name" : "wcsdup",
   "linker_set_key" : "wcsdup",
   "parameters" :
   [
    {
     "referenced_type" : "_ZTIPKj"
    }
   ],
   "return_type" : "_ZTIPj",
   "source_file" : "/bionic/libc/include/wchar.h"
  },
  {
   "function_name" : "wcsftime",
   "linker_set_key" : "wcsftime",
   "parameters" :
   [
    {
     "referenced_type" : "_ZTIPj"
    },
    {
     "referenced_type" : "_ZTIj"
    },
    {
     "referenced_type" : "_ZTIPKj"
    },
    {
     "referenced_type" : "_ZTIPK2tm"
    }
   ],
   "return_type" : "_ZTIj",
   "source_file" : "/bionic/libc/include/wchar.h"
  },
  {
   "function_name" : "wcslcat",
   "linker_set_key" : "wcslcat",
   "parameters" :
   [
    {
     "referenced_type" : "_ZTIPj"
    },
    {
     "referenced_type" : "_ZTIPKj"
    },
    {
     "referenced_type" : "_ZTIj"
    }
   ],
   "return_type" : "_ZTIj",
   "source_file" : "/bionic/libc/include/wchar.h"
  },
  {
   "function_name" : "wcslcpy",
   "linker_set_key" : "wcslcpy",
   "parameters" :
   [
    {
     "referenced_type" : "_ZTIPj"
    },
    {
     "referenced_type" : "_ZTIPKj"
    },
    {
     "referenced_type" : "_ZTIj"
    }
   ],
   "return_type" : "_ZTIj",
   "source_file" : "/bionic/libc/include/wchar.h"
  },
  {
   "function_name" : "wcslen",
   "linker_set_key" : "wcslen",
   "parameters" :
   [
    {
     "referenced_type" : "_ZTIPKj"
    }
   ],
   "return_type" : "_ZTIj",
   "source_file" : "/bionic/libc/include/wchar.h"
  },
  {
   "function_name" : "wcsncasecmp",
   "linker_set_key" : "wcsncasecmp",
   "parameters" :
   [
    {
     "referenced_type" : "_ZTIPKj"
    },
    {
     "referenced_type" : "_ZTIPKj"
    },
    {
     "referenced_type" : "_ZTIj"
    }
   ],
   "return_type" : "_ZTIi",
   "source_file" : "/bionic/libc/include/wchar.h"
  },
  {
   "function_name" : "wcsncat",
   "linker_set_key" : "wcsncat",
   "parameters" :
   [
    {
     "referenced_type" : "_ZTIPj"
    },
    {
     "referenced_type" : "_ZTIPKj"
    },
    {
     "referenced_type" : "_ZTIj"
    }
   ],
   "return_type" : "_ZTIPj",
   "source_file" : "/bionic/libc/include/wchar.h"
  },
  {
   "function_name" : "wcsncmp",
   "linker_set_key" : "wcsncmp",
   "parameters" :
   [
    {
     "referenced_type" : "_ZTIPKj"
    },
    {
     "referenced_type" : "_ZTIPKj"
    },
    {
     "referenced_type" : "_ZTIj"
    }
   ],
   "return_type" : "_ZTIi",
   "source_file" : "/bionic/libc/include/wchar.h"
  },
  {
   "function_name" : "wcsncpy",
   "linker_set_key" : "wcsncpy",
   "parameters" :
   [
    {
     "referenced_type" : "_ZTIPj"
    },
    {
     "referenced_type" : "_ZTIPKj"
    },
    {
     "referenced_type" : "_ZTIj"
    }
   ],
   "return_type" : "_ZTIPj",
   "source_file" : "/bionic/libc/include/wchar.h"
  },
  {
   "function_name" : "wcsnlen",
   "linker_set_key" : "wcsnlen",
   "parameters" :
   [
    {
     "referenced_type" : "_ZTIPKj"
    },
    {
     "referenced_type" : "_ZTIj"
    }
   ],
   "return_type" : "_ZTIj",
   "source_file" : "/bionic/libc/include/wchar.h"
  },
  {
   "function_name" : "wcspbrk",
   "linker_set_key" : "wcspbrk",
   "parameters" :
   [
    {
     "referenced_type" : "_ZTIPKj"
    },
    {
     "referenced_type" : "_ZTIPKj"
    }
   ],
   "return_type" : "_ZTIPj",
   "source_file" : "/bionic/libc/include/wchar.h"
  },
  {
   "function_name" : "wcsrchr",
   "linker_set_key" : "wcsrchr",
   "parameters" :
   [
    {
     "referenced_type" : "_ZTIPKj"
    },
    {
     "referenced_type" : "_ZTIj"
    }
   ],
   "return_type" : "_ZTIPj",
   "source_file" : "/bionic/libc/include/wchar.h"
  },
  {
   "function_name" : "wcsspn",
   "linker_set_key" : "wcsspn",
   "parameters" :
   [
    {
     "referenced_type" : "_ZTIPKj"
    },
    {
     "referenced_type" : "_ZTIPKj"
    }
   ],
   "return_type" : "_ZTIj",
   "source_file" : "/bionic/libc/include/wchar.h"
  },
  {
   "function_name" : "wcsstr",
   "linker_set_key" : "wcsstr",
   "parameters" :
   [
    {
     "referenced_type" : "_ZTIPKj"
    },
    {
     "referenced_type" : "_ZTIPKj"
    }
   ],
   "return_type" : "_ZTIPj",
   "source_file" : "/bionic/libc/include/wchar.h"
  },
  {
   "function_name" : "wcstoimax",
   "linker_set_key" : "wcstoimax",
   "parameters" :
   [
    {
     "referenced_type" : "_ZTIPKj"
    },
    {
     "referenced_type" : "_ZTIPPj"
    },
    {
     "referenced_type" : "_ZTIi"
    }
   ],
   "return_type" : "_ZTIx",
   "source_file" : "/bionic/libc/include/inttypes.h"
  },
  {
   "function_name" : "wcstok",
   "linker_set_key" : "wcstok",
   "parameters" :
   [
    {
     "referenced_type" : "_ZTIPj"
    },
    {
     "referenced_type" : "_ZTIPKj"
    },
    {
     "referenced_type" : "_ZTIPPj"
    }
   ],
   "return_type" : "_ZTIPj",
   "source_file" : "/bionic/libc/include/wchar.h"
  },
  {
   "function_name" : "wcstol",
   "linker_set_key" : "wcstol",
   "parameters" :
   [
    {
     "referenced_type" : "_ZTIPKj"
    },
    {
     "referenced_type" : "_ZTIPPj"
    },
    {
     "referenced_type" : "_ZTIi"
    }
   ],
   "return_type" : "_ZTIl",
   "source_file" : "/bionic/libc/include/wchar.h"
  },
  {
   "function_name" : "wcstoll",
   "linker_set_key" : "wcstoll",
   "parameters" :
   [
    {
     "referenced_type" : "_ZTIPKj"
    },
    {
     "referenced_type" : "_ZTIPPj"
    },
    {
     "referenced_type" : "_ZTIi"
    }
   ],
   "return_type" : "_ZTIx",
   "source_file" : "/bionic/libc/include/wchar.h"
  },
  {
   "function_name" : "wcstombs",
   "linker_set_key" : "wcstombs",
   "parameters" :
   [
    {
     "referenced_type" : "_ZTIPc"
    },
    {
     "referenced_type" : "_ZTIPKj"
    },
    {
     "referenced_type" : "_ZTIj"
    }
   ],
   "return_type" : "_ZTIj",
   "source_file" : "/bionic/libc/include/stdlib.h"
  },
  {
   "function_name" : "wcstoul",
   "linker_set_key" : "wcstoul",
   "parameters" :
   [
    {
     "referenced_type" : "_ZTIPKj"
    },
    {
     "referenced_type" : "_ZTIPPj"
    },
    {
     "referenced_type" : "_ZTIi"
    }
   ],
   "return_type" : "_ZTIm",
   "source_file" : "/bionic/libc/include/wchar.h"
  },
  {
   "function_name" : "wcstoull",
   "linker_set_key" : "wcstoull",
   "parameters" :
   [
    {
     "referenced_type" : "_ZTIPKj"
    },
    {
     "referenced_type" : "_ZTIPPj"
    },
    {
     "referenced_type" : "_ZTIi"
    }
   ],
   "return_type" : "_ZTIy",
   "source_file" : "/bionic/libc/include/wchar.h"
  },
  {
   "function_name" : "wcstoumax",
   "linker_set_key" : "wcstoumax",
   "parameters" :
   [
    {
     "referenced_type" : "_ZTIPKj"
    },
    {
     "referenced_type" : "_ZTIPPj"
    },
    {
     "referenced_type" : "_ZTIi"
    }
   ],
   "return_type" : "_ZTIy",
   "source_file" : "/bionic/libc/include/inttypes.h"
  },
  {
   "function_name" : "wcswidth",
   "linker_set_key" : "wcswidth",
   "parameters" :
   [
    {
     "referenced_type" : "_ZTIPKj"
    },
    {
     "referenced_type" : "_ZTIj"
    }
   ],
   "return_type" : "_ZTIi",
   "source_file" : "/bionic/libc/include/wchar.h"
  },
  {
   "function_name" : "wcsxfrm",
   "linker_set_key" : "wcsxfrm",
   "parameters" :
   [
    {
     "referenced_type" : "_ZTIPj"
    },
    {
     "referenced_type" : "_ZTIPKj"
    },
    {
     "referenced_type" : "_ZTIj"
    }
   ],
   "return_type" : "_ZTIj",
   "source_file" : "/bionic/libc/include/wchar.h"
  },
  {
   "function_name" : "wctob",
   "linker_set_key" : "wctob",
   "parameters" :
   [
    {
     "referenced_type" : "_ZTIj"
    }
   ],
   "return_type" : "_ZTIi",
   "source_file" : "/bionic/libc/include/wchar.h"
  },
  {
   "function_name" : "wctomb",
   "linker_set_key" : "wctomb",
   "parameters" :
   [
    {
     "referenced_type" : "_ZTIPc"
    },
    {
     "referenced_type" : "_ZTIj"
    }
   ],
   "return_type" : "_ZTIi",
   "source_file" : "/bionic/libc/include/stdlib.h"
  },
  {
   "function_name" : "wmemchr",
   "linker_set_key" : "wmemchr",
   "parameters" :
   [
    {
     "referenced_type" : "_ZTIPKj"
    },
    {
     "referenced_type" : "_ZTIj"
    },
    {
     "referenced_type" : "_ZTIj"
    }
   ],
   "return_type" : "_ZTIPj",
   "source_file" : "/bionic/libc/include/wchar.h"
  },
  {
   "function_name" : "wmemcmp",
   "linker_set_key" : "wmemcmp",
   "parameters" :
   [
    {
     "referenced_type" : "_ZTIPKj"
    },
    {
     "referenced_type" : "_ZTIPKj"
    },
    {
     "referenced_type" : "_ZTIj"
    }
   ],
   "return_type" : "_ZTIi",
   "source_file" : "/bionic/libc/include/wchar.h"
  },
  {
   "function_name" : "wmemcpy",
   "linker_set_key" : "wmemcpy",
   "parameters" :
   [
    {
     "referenced_type" : "_ZTIPj"
    },
    {
     "referenced_type" : "_ZTIPKj"
    },
    {
     "referenced_type" : "_ZTIj"
    }
   ],
   "return_type" : "_ZTIPj",
   "source_file" : "/bionic/libc/include/wchar.h"
  },
  {
   "function_name" : "wmemmove",
   "linker_set_key" : "wmemmove",
   "parameters" :
   [
    {
     "referenced_type" : "_ZTIPj"
    },
    {
     "referenced_type" : "_ZTIPKj"
    },
    {
     "referenced_type" : "_ZTIj"
    }
   ],
   "return_type" : "_ZTIPj",
   "source_file" : "/bionic/libc/include/wchar.h"
  },
  {
   "function_name" : "wmemset",
   "linker_set_key" : "wmemset",
   "parameters" :
   [
    {
     "referenced_type" : "_ZTIPj"
    },
    {
     "referenced_type" : "_ZTIj"
    },
    {
     "referenced_type" : "_ZTIj"
    }
   ],
   "return_type" : "_ZTIPj",
   "source_file" : "/bionic/libc/include/wchar.h"
  }
 ],
 "global_vars" :
 [
  {
   "linker_set_key" : "__free_hook",
   "name" : "__free_hook",
   "referenced_type" : "_ZTIVPFvPvPKvE",
   "source_file" : "/bionic/libc/include/malloc.h"
  },
  {
   "linker_set_key" : "__malloc_hook",
   "name" : "__malloc_hook",
   "referenced_type" : "_ZTIVPFPvjPKvE",
   "source_file" : "/bionic/libc/include/malloc.h"
  },
  {
   "linker_set_key" : "__memalign_hook",
   "name" : "__memalign_hook",
   "referenced_type" : "_ZTIVPFPvjjPKvE",
   "source_file" : "/bionic/libc/include/malloc.h"
  },
  {
   "linker_set_key" : "__realloc_hook",
   "name" : "__realloc_hook",
   "referenced_type" : "_ZTIVPFPvS_jPKvE",
   "source_file" : "/bionic/libc/include/malloc.h"
  },
  {
   "linker_set_key" : "_ctype_",
   "name" : "_ctype_",
   "referenced_type" : "_ZTIPKc",
   "source_file" : "/bionic/libc/include/bits/ctype_inlines.h"
  },
  {
   "linker_set_key" : "daylight",
   "name" : "daylight",
   "referenced_type" : "_ZTIi",
   "source_file" : "/bionic/libc/include/time.h"
  },
  {
   "linker_set_key" : "environ",
   "name" : "environ",
   "referenced_type" : "_ZTIPPc",
   "source_file" : "/bionic/libc/include/unistd.h"
  },
  {
   "linker_set_key" : "in6addr_any",
   "name" : "in6addr_any",
   "referenced_type" : "_ZTIK8in6_addr",
   "source_file" : "/bionic/libc/include/netinet/in.h"
  },
  {
   "linker_set_key" : "in6addr_loopback",
   "name" : "in6addr_loopback",
   "referenced_type" : "_ZTIK8in6_addr",
   "source_file" : "/bionic/libc/include/netinet/in.h"
  },
  {
   "linker_set_key" : "optarg",
   "name" : "optarg",
   "referenced_type" : "_ZTIPc",
   "source_file" : "/bionic/libc/include/bits/getopt.h"
  },
  {
   "linker_set_key" : "opterr",
   "name" : "opterr",
   "referenced_type" : "_ZTIi",
   "source_file" : "/bionic/libc/include/bits/getopt.h"
  },
  {
   "linker_set_key" : "optind",
   "name" : "optind",
   "referenced_type" : "_ZTIi",
   "source_file" : "/bionic/libc/include/bits/getopt.h"
  },
  {
   "linker_set_key" : "optopt",
   "name" : "optopt",
   "referenced_type" : "_ZTIi",
   "source_file" : "/bionic/libc/include/bits/getopt.h"
  },
  {
   "linker_set_key" : "optreset",
   "name" : "optreset",
   "referenced_type" : "_ZTIi",
   "source_file" : "/bionic/libc/include/getopt.h"
  },
  {
   "linker_set_key" : "stderr",
   "name" : "stderr",
   "referenced_type" : "_ZTIP7__sFILE",
   "source_file" : "/bionic/libc/include/stdio.h"
  },
  {
   "linker_set_key" : "stdin",
   "name" : "stdin",
   "referenced_type" : "_ZTIP7__sFILE",
   "source_file" : "/bionic/libc/include/stdio.h"
  },
  {
   "linker_set_key" : "stdout",
   "name" : "stdout",
   "referenced_type" : "_ZTIP7__sFILE",
   "source_file" : "/bionic/libc/include/stdio.h"
  },
  {
   "linker_set_key" : "sys_siglist",
   "name" : "sys_siglist",
   "referenced_type" : "_ZTIA65_KPKc",
   "source_file" : "/bionic/libc/include/signal.h"
  },
  {
   "linker_set_key" : "sys_signame",
   "name" : "sys_signame",
   "referenced_type" : "_ZTIA65_KPKc",
   "source_file" : "/bionic/libc/include/signal.h"
  },
  {
   "linker_set_key" : "timezone",
   "name" : "timezone",
   "referenced_type" : "_ZTIl",
   "source_file" : "/bionic/libc/include/time.h"
  },
  {
   "linker_set_key" : "tzname",
   "name" : "tzname",
   "referenced_type" : "_ZTIA_Pc",
   "source_file" : "/bionic/libc/include/time.h"
  }
 ],
 "lvalue_reference_types" :
 [
  {
   "alignment" : 4,
   "linker_set_key" : "_ZTIRKN7android10properties8TrieNodeE",
   "name" : "const android::properties::TrieNode &",
   "referenced_type" : "_ZTIKN7android10properties8TrieNodeE",
   "self_type" : "_ZTIRKN7android10properties8TrieNodeE",
   "size" : 4,
   "source_file" : "/system/core/property_service/libpropertyinfoparser/include/property_info_parser/property_info_parser.h"
  },
  {
   "alignment" : 4,
   "linker_set_key" : "_ZTIRN7android10properties20PropertyInfoAreaFileE",
   "name" : "android::properties::PropertyInfoAreaFile &",
   "referenced_type" : "_ZTIN7android10properties20PropertyInfoAreaFileE",
   "self_type" : "_ZTIRN7android10properties20PropertyInfoAreaFileE",
   "size" : 4,
   "source_file" : "/system/core/property_service/libpropertyinfoparser/include/property_info_parser/property_info_parser.h"
  }
 ],
 "pointer_types" :
 [
  {
   "alignment" : 4,
   "linker_set_key" : "_ZTIP10PrefixNode",
   "name" : "PrefixNode *",
   "referenced_type" : "_ZTI10PrefixNode",
   "self_type" : "_ZTIP10PrefixNode",
   "size" : 4,
   "source_file" : "/bionic/libc/system_properties/include/system_properties/contexts_split.h"
  },
  {
   "alignment" : 4,
   "linker_set_key" : "_ZTIP10__locale_t",
   "name" : "__locale_t *",
   "referenced_type" : "_ZTI10__locale_t",
   "self_type" : "_ZTIP10__locale_t",
   "size" : 4,
   "source_file" : "/bionic/libc/include/time.h"
  },
  {
   "alignment" : 4,
   "linker_set_key" : "_ZTIP10regmatch_t",
   "name" : "regmatch_t *",
   "referenced_type" : "_ZTI10regmatch_t",
   "self_type" : "_ZTIP10regmatch_t",
   "size" : 4,
   "source_file" : "/bionic/libc/include/regex.h"
  },
  {
   "alignment" : 4,
   "linker_set_key" : "_ZTIP11ContextNode",
   "name" : "ContextNode *",
   "referenced_type" : "_ZTI11ContextNode",
   "self_type" : "_ZTIP11ContextNode",
   "size" : 4,
   "source_file" : "/bionic/libc/system_properties/include/system_properties/context_node.h"
  },
  {
   "alignment" : 4,
   "linker_set_key" : "_ZTIP11sched_param",
   "name" : "sched_param *",
   "referenced_type" : "_ZTI11sched_param",
   "self_type" : "_ZTIP11sched_param",
   "size" : 4,
   "source_file" : "/bionic/libc/include/pthread.h"
  },
  {
   "alignment" : 4,
   "linker_set_key" : "_ZTIP11user_fpregs",
   "name" : "user_fpregs *",
   "referenced_type" : "_ZTI11user_fpregs",
   "self_type" : "_ZTIP11user_fpregs",
   "size" : 4,
   "source_file" : "/bionic/libc/include/sys/user.h"
  },
  {
   "alignment" : 4,
   "linker_set_key" : "_ZTIP12hsearch_data",
   "name" : "hsearch_data *",
   "referenced_type" : "_ZTI12hsearch_data",
   "self_type" : "_ZTIP12hsearch_data",
   "size" : 4,
   "source_file" : "/bionic/libc/include/search.h"
  },
  {
   "alignment" : 4,
   "linker_set_key" : "_ZTIP13ContextsSplit",
   "name" : "ContextsSplit *",
   "referenced_type" : "_ZTI13ContextsSplit",
   "self_type" : "_ZTIP13ContextsSplit",
   "size" : 4,
   "source_file" : "/bionic/libc/system_properties/include/system_properties/contexts_split.h"
  },
  {
   "alignment" : 4,
   "linker_set_key" : "_ZTIP14pthread_attr_t",
   "name" : "pthread_attr_t *",
   "referenced_type" : "_ZTI14pthread_attr_t",
   "self_type" : "_ZTIP14pthread_attr_t",
   "size" : 4,
   "source_file" : "/bionic/libc/include/pthread.h"
  },
  {
   "alignment" : 4,
   "linker_set_key" : "_ZTIP14pthread_cond_t",
   "name" : "pthread_cond_t *",
   "referenced_type" : "_ZTI14pthread_cond_t",
   "self_type" : "_ZTIP14pthread_cond_t",
   "size" : 4,
   "source_file" : "/bionic/libc/include/pthread.h"
  },
  {
   "alignment" : 4,
   "linker_set_key" : "_ZTIP15ContextListNode",
   "name" : "ContextListNode *",
   "referenced_type" : "_ZTI15ContextListNode",
   "self_type" : "_ZTIP15ContextListNode",
   "size" : 4,
   "source_file" : "/bionic/libc/system_properties/include/system_properties/contexts_split.h"
  },
  {
   "alignment" : 4,
   "linker_set_key" : "_ZTIP15pthread_mutex_t",
   "name" : "pthread_mutex_t *",
   "referenced_type" : "_ZTI15pthread_mutex_t",
   "self_type" : "_ZTIP15pthread_mutex_t",
   "size" : 4,
   "source_file" : "/bionic/libc/include/pthread.h"
  },
  {
   "alignment" : 4,
   "linker_set_key" : "_ZTIP16ContextsPreSplit",
   "name" : "ContextsPreSplit *",
   "referenced_type" : "_ZTI16ContextsPreSplit",
   "self_type" : "_ZTIP16ContextsPreSplit",
   "size" : 4,
   "source_file" : "/bionic/libc/system_properties/include/system_properties/contexts_pre_split.h"
  },
  {
   "alignment" : 4,
   "linker_set_key" : "_ZTIP16SystemProperties",
   "name" : "SystemProperties *",
   "referenced_type" : "_ZTI16SystemProperties",
   "self_type" : "_ZTIP16SystemProperties",
   "size" : 4,
   "source_file" : "/bionic/libc/system_properties/include/system_properties/system_properties.h"
  },
  {
   "alignment" : 4,
   "linker_set_key" : "_ZTIP16pthread_rwlock_t",
   "name" : "pthread_rwlock_t *",
   "referenced_type" : "_ZTI16pthread_rwlock_t",
   "self_type" : "_ZTIP16pthread_rwlock_t",
   "size" : 4,
   "source_file" : "/bionic/libc/include/pthread.h"
  },
  {
   "alignment" : 4,
   "linker_set_key" : "_ZTIP17pthread_barrier_t",
   "name" : "pthread_barrier_t *",
   "referenced_type" : "_ZTI17pthread_barrier_t",
   "self_type" : "_ZTIP17pthread_barrier_t",
   "size" : 4,
   "source_file" : "/bionic/libc/include/pthread.h"
  },
  {
   "alignment" : 4,
   "linker_set_key" : "_ZTIP18ContextsSerialized",
   "name" : "ContextsSerialized *",
   "referenced_type" : "_ZTI18ContextsSerialized",
   "self_type" : "_ZTIP18ContextsSerialized",
   "size" : 4,
   "source_file" : "/bionic/libc/system_properties/include/system_properties/contexts_serialized.h"
  },
  {
   "alignment" : 4,
   "linker_set_key" : "_ZTIP18pthread_spinlock_t",
   "name" : "pthread_spinlock_t *",
   "referenced_type" : "_ZTI18pthread_spinlock_t",
   "self_type" : "_ZTIP18pthread_spinlock_t",
   "size" : 4,
   "source_file" : "/bionic/libc/include/pthread.h"
  },
  {
   "alignment" : 4,
   "linker_set_key" : "_ZTIP19__pthread_cleanup_t",
   "name" : "__pthread_cleanup_t *",
   "referenced_type" : "_ZTI19__pthread_cleanup_t",
   "self_type" : "_ZTIP19__pthread_cleanup_t",
   "size" : 4,
   "source_file" : "/bionic/libc/include/pthread.h"
  },
  {
   "alignment" : 4,
   "linker_set_key" : "_ZTIP19android_namespace_t",
   "name" : "android_namespace_t *",
   "referenced_type" : "_ZTI19android_namespace_t",
   "self_type" : "_ZTIP19android_namespace_t",
   "size" : 4,
   "source_file" : "/bionic/libc/include/android/dlext.h"
  },
  {
   "alignment" : 4,
   "linker_set_key" : "_ZTIP2tm",
   "name" : "tm *",
   "referenced_type" : "_ZTI2tm",
   "self_type" : "_ZTIP2tm",
   "size" : 4,
   "source_file" : "/bionic/libc/include/time.h"
  },
  {
   "alignment" : 4,
   "linker_set_key" : "_ZTIP4stat",
   "name" : "stat *",
   "referenced_type" : "_ZTI4stat",
   "self_type" : "_ZTIP4stat",
   "size" : 4,
   "source_file" : "/bionic/libc/include/glob.h"
  },
  {
   "alignment" : 4,
   "linker_set_key" : "_ZTIP4utmp",
   "name" : "utmp *",
   "referenced_type" : "_ZTI4utmp",
   "self_type" : "_ZTIP4utmp",
   "size" : 4,
   "source_file" : "/bionic/libc/include/utmp.h"
  },
  {
   "alignment" : 4,
   "linker_set_key" : "_ZTIP5entry",
   "name" : "entry *",
   "referenced_type" : "_ZTI5entry",
   "self_type" : "_ZTIP5entry",
   "size" : 4,
   "source_file" : "/bionic/libc/include/search.h"
  },
  {
   "alignment" : 4,
   "linker_set_key" : "_ZTIP5iovec",
   "name" : "iovec *",
   "referenced_type" : "_ZTI5iovec",
   "self_type" : "_ZTIP5iovec",
   "size" : 4,
   "source_file" : "/bionic/libc/include/sys/socket.h"
  },
  {
   "alignment" : 4,
   "linker_set_key" : "_ZTIP6fd_set",
   "name" : "fd_set *",
   "referenced_type" : "_ZTI6fd_set",
   "self_type" : "_ZTIP6fd_set",
   "size" : 4,
   "source_file" : "/bionic/libc/include/sys/select.h"
  },
  {
   "alignment" : 4,
   "linker_set_key" : "_ZTIP6glob_t",
   "name" : "glob_t *",
   "referenced_type" : "_ZTI6glob_t",
   "self_type" : "_ZTIP6glob_t",
   "size" : 4,
   "source_file" : "/bionic/libc/include/glob.h"
  },
  {
   "alignment" : 4,
   "linker_set_key" : "_ZTIP6pollfd",
   "name" : "pollfd *",
   "referenced_type" : "_ZTI6pollfd",
   "self_type" : "_ZTIP6pollfd",
   "size" : 4,
   "source_file" : "/bionic/libc/include/bits/fortify/poll.h"
  },
  {
   "alignment" : 4,
   "linker_set_key" : "_ZTIP7__ns_rr",
   "name" : "__ns_rr *",
   "referenced_type" : "_ZTI7__ns_rr",
   "self_type" : "_ZTIP7__ns_rr",
   "size" : 4,
   "source_file" : "/bionic/libc/include/arpa/nameser.h"
  },
  {
   "alignment" : 4,
   "linker_set_key" : "_ZTIP7__sFILE",
   "name" : "__sFILE *",
   "referenced_type" : "_ZTI7__sFILE",
   "self_type" : "_ZTIP7__sFILE",
   "size" : 4,
   "source_file" : "/bionic/libc/include/stdio.h"
  },
  {
   "alignment" : 4,
   "linker_set_key" : "_ZTIP7dst_key",
   "name" : "dst_key *",
   "referenced_type" : "_ZTI7dst_key",
   "self_type" : "_ZTIP7dst_key",
   "size" : 4,
   "source_file" : "/bionic/libc/include/arpa/nameser.h"
  },
  {
   "alignment" : 4,
   "linker_set_key" : "_ZTIP7dynamic",
   "name" : "dynamic *",
   "referenced_type" : "_ZTI7dynamic",
   "self_type" : "_ZTIP7dynamic",
   "size" : 4,
   "source_file" : "/bionic/libc/include/link.h"
  },
  {
   "alignment" : 4,
   "linker_set_key" : "_ZTIP7prop_bt",
   "name" : "prop_bt *",
   "referenced_type" : "_ZTI7prop_bt",
   "self_type" : "_ZTIP7prop_bt",
   "size" : 4,
   "source_file" : "/bionic/libc/system_properties/include/system_properties/prop_area.h"
  },
  {
   "alignment" : 4,
   "linker_set_key" : "_ZTIP7re_guts",
   "name" : "re_guts *",
   "referenced_type" : "_ZTI7re_guts",
   "self_type" : "_ZTIP7re_guts",
   "size" : 4,
   "source_file" : "/bionic/libc/include/regex.h"
  },
  {
   "alignment" : 4,
   "linker_set_key" : "_ZTIP7regex_t",
   "name" : "regex_t *",
   "referenced_type" : "_ZTI7regex_t",
   "self_type" : "_ZTIP7regex_t",
   "size" : 4,
   "source_file" : "/bionic/libc/include/regex.h"
  },
  {
   "alignment" : 4,
   "linker_set_key" : "_ZTIP7servent",
   "name" : "servent *",
   "referenced_type" : "_ZTI7servent",
   "self_type" : "_ZTIP7servent",
   "size" : 4,
   "source_file" : "/bionic/libc/include/netdb.h"
  },
  {
   "alignment" : 4,
   "linker_set_key" : "_ZTIP7siginfo",
   "name" : "siginfo *",
   "referenced_type" : "_ZTI7siginfo",
   "self_type" : "_ZTIP7siginfo",
   "size" : 4,
   "source_file" : "/bionic/libc/include/bits/signal_types.h"
  },
  {
   "alignment" : 4,
   "linker_set_key" : "_ZTIP7timeval",
   "name" : "timeval *",
   "referenced_type" : "_ZTI7timeval",
   "self_type" : "_ZTIP7timeval",
   "size" : 4,
   "source_file" : "/bionic/libc/include/sys/time.h"
  },
  {
   "alignment" : 4,
   "linker_set_key" : "_ZTIP8Contexts",
   "name" : "Contexts *",
   "referenced_type" : "_ZTI8Contexts",
   "self_type" : "_ZTIP8Contexts",
   "size" : 4,
   "source_file" : "/bionic/libc/system_properties/include/system_properties/contexts.h"
  },
  {
   "alignment" : 4,
   "linker_set_key" : "_ZTIP8__ns_msg",
   "name" : "__ns_msg *",
   "referenced_type" : "_ZTI8__ns_msg",
   "self_type" : "_ZTIP8__ns_msg",
   "size" : 4,
   "source_file" : "/bionic/libc/include/arpa/nameser.h"
  },
  {
   "alignment" : 4,
   "linker_set_key" : "_ZTIP8addrinfo",
   "name" : "addrinfo *",
   "referenced_type" : "_ZTI8addrinfo",
   "self_type" : "_ZTIP8addrinfo",
   "size" : 4,
   "source_file" : "/bionic/libc/include/netdb.h"
  },
  {
   "alignment" : 4,
   "linker_set_key" : "_ZTIP8link_map",
   "name" : "link_map *",
   "referenced_type" : "_ZTI8link_map",
   "self_type" : "_ZTIP8link_map",
   "size" : 4,
   "source_file" : "/bionic/libc/include/link.h"
  },
  {
   "alignment" : 4,
   "linker_set_key" : "_ZTIP8sockaddr",
   "name" : "sockaddr *",
   "referenced_type" : "_ZTI8sockaddr",
   "self_type" : "_ZTIP8sockaddr",
   "size" : 4,
   "source_file" : "/bionic/libc/include/bits/fortify/socket.h"
  },
  {
   "alignment" : 4,
   "linker_set_key" : "_ZTIP8timespec",
   "name" : "timespec *",
   "referenced_type" : "_ZTI8timespec",
   "self_type" : "_ZTIP8timespec",
   "size" : 4,
   "source_file" : "/bionic/libc/include/time.h"
  },
  {
   "alignment" : 4,
   "linker_set_key" : "_ZTIP8timezone",
   "name" : "timezone *",
   "referenced_type" : "_ZTI8timezone",
   "self_type" : "_ZTIP8timezone",
   "size" : 4,
   "source_file" : "/bionic/libc/include/sys/time.h"
  },
  {
   "alignment" : 4,
   "linker_set_key" : "_ZTIP8ucontext",
   "name" : "ucontext *",
   "referenced_type" : "_ZTI8ucontext",
   "self_type" : "_ZTIP8ucontext",
   "size" : 4,
   "source_file" : "/bionic/libc/include/sys/ucontext.h"
  },
  {
   "alignment" : 4,
   "linker_set_key" : "_ZTIP9__hsearch",
   "name" : "__hsearch *",
   "referenced_type" : "_ZTI9__hsearch",
   "self_type" : "_ZTIP9__hsearch",
   "size" : 4,
   "source_file" : "/bionic/libc/include/search.h"
  },
  {
   "alignment" : 4,
   "linker_set_key" : "_ZTIP9mbstate_t",
   "name" : "mbstate_t *",
   "referenced_type" : "_ZTI9mbstate_t",
   "self_type" : "_ZTIP9mbstate_t",
   "size" : 4,
   "source_file" : "/bionic/libc/include/wchar.h"
  },
  {
   "alignment" : 4,
   "linker_set_key" : "_ZTIP9prop_area",
   "name" : "prop_area *",
   "referenced_type" : "_ZTI9prop_area",
   "self_type" : "_ZTIP9prop_area",
   "size" : 4,
   "source_file" : "/bionic/libc/system_properties/include/system_properties/prop_area.h"
  },
  {
   "alignment" : 4,
   "linker_set_key" : "_ZTIP9prop_info",
   "name" : "prop_info *",
   "referenced_type" : "_ZTI9prop_info",
   "self_type" : "_ZTIP9prop_info",
   "size" : 4,
   "source_file" : "/bionic/libc/system_properties/include/system_properties/prop_area.h"
  },
  {
   "alignment" : 4,
   "linker_set_key" : "_ZTIP9user_regs",
   "name" : "user_regs *",
   "referenced_type" : "_ZTI9user_regs",
   "self_type" : "_ZTIP9user_regs",
   "size" : 4,
   "source_file" : "/bionic/libc/include/sys/user.h"
  },
  {
   "alignment" : 4,
   "linker_set_key" : "_ZTIPFP6direntPvE",
   "name" : "dirent *(*)(void *)",
   "referenced_type" : "_ZTIFP6direntPvE",
   "self_type" : "_ZTIPFP6direntPvE",
   "size" : 4,
   "source_file" : "/bionic/libc/include/glob.h"
  },
  {
   "alignment" : 4,
   "linker_set_key" : "_ZTIPFPvPKcE",
   "name" : "void *(*)(const char *)",
   "referenced_type" : "_ZTIFPvPKcE",
   "self_type" : "_ZTIPFPvPKcE",
   "size" : 4,
   "source_file" : "/bionic/libc/include/glob.h"
  },
  {
   "alignment" : 4,
   "linker_set_key" : "_ZTIPFPvS_E",
   "name" : "void *(*)(void *)",
   "referenced_type" : "_ZTIFPvS_E",
   "self_type" : "_ZTIPFPvS_E",
   "size" : 4,
   "source_file" : "/bionic/libc/include/pthread.h"
  },
  {
   "alignment" : 4,
   "linker_set_key" : "_ZTIPFPvS_jPKvE",
   "name" : "void *(*)(void *, unsigned int, const void *)",
   "referenced_type" : "_ZTIFPvS_jPKvE",
   "self_type" : "_ZTIPFPvS_jPKvE",
   "size" : 4,
   "source_file" : "/bionic/libc/include/malloc.h"
  },
  {
   "alignment" : 4,
   "linker_set_key" : "_ZTIPFPvjPKvE",
   "name" : "void *(*)(unsigned int, const void *)",
   "referenced_type" : "_ZTIFPvjPKvE",
   "self_type" : "_ZTIPFPvjPKvE",
   "size" : 4,
   "source_file" : "/bionic/libc/include/malloc.h"
  },
  {
   "alignment" : 4,
   "linker_set_key" : "_ZTIPFPvjjPKvE",
   "name" : "void *(*)(unsigned int, unsigned int, const void *)",
   "referenced_type" : "_ZTIFPvjjPKvE",
   "self_type" : "_ZTIPFPvjjPKvE",
   "size" : 4,
   "source_file" : "/bionic/libc/include/malloc.h"
  },
  {
   "alignment" : 4,
   "linker_set_key" : "_ZTIPFiPKcP4statE",
   "name" : "int (*)(const char *, stat *)",
   "referenced_type" : "_ZTIFiPKcP4statE",
   "self_type" : "_ZTIPFiPKcP4statE",
   "size" : 4,
   "source_file" : "/bionic/libc/include/glob.h"
  },
  {
   "alignment" : 4,
   "linker_set_key" : "_ZTIPFiPKciE",
   "name" : "int (*)(const char *, int)",
   "referenced_type" : "_ZTIFiPKciE",
   "self_type" : "_ZTIPFiPKciE",
   "size" : 4,
   "source_file" : "/bionic/libc/include/glob.h"
  },
  {
   "alignment" : 4,
   "linker_set_key" : "_ZTIPFiPKvS0_E",
   "name" : "int (*)(const void *, const void *)",
   "referenced_type" : "_ZTIFiPKvS0_E",
   "self_type" : "_ZTIPFiPKvS0_E",
   "size" : 4,
   "source_file" : "/bionic/libc/include/search.h"
  },
  {
   "alignment" : 4,
   "linker_set_key" : "_ZTIPFvPK9prop_infoPvE",
   "name" : "void (*)(const prop_info *, void *)",
   "referenced_type" : "_ZTIFvPK9prop_infoPvE",
   "self_type" : "_ZTIPFvPK9prop_infoPvE",
   "size" : 4,
   "source_file" : "/bionic/libc/system_properties/include/system_properties/contexts_pre_split.h"
  },
  {
   "alignment" : 4,
   "linker_set_key" : "_ZTIPFvPKv5VISITiE",
   "name" : "void (*)(const void *, VISIT, int)",
   "referenced_type" : "_ZTIFvPKv5VISITiE",
   "self_type" : "_ZTIPFvPKv5VISITiE",
   "size" : 4,
   "source_file" : "/bionic/libc/include/search.h"
  },
  {
   "alignment" : 4,
   "linker_set_key" : "_ZTIPFvPvE",
   "name" : "void (*)(void *)",
   "referenced_type" : "_ZTIFvPvE",
   "self_type" : "_ZTIPFvPvE",
   "size" : 4,
   "source_file" : "/bionic/libc/include/pthread.h"
  },
  {
   "alignment" : 4,
   "linker_set_key" : "_ZTIPFvPvPKcS1_jE",
   "name" : "void (*)(void *, const char *, const char *, unsigned int)",
   "referenced_type" : "_ZTIFvPvPKcS1_jE",
   "self_type" : "_ZTIPFvPvPKcS1_jE",
   "size" : 4,
   "source_file" : "/bionic/libc/system_properties/include/system_properties/system_properties.h"
  },
  {
   "alignment" : 4,
   "linker_set_key" : "_ZTIPFvPvPKvE",
   "name" : "void (*)(void *, const void *)",
   "referenced_type" : "_ZTIFvPvPKvE",
   "self_type" : "_ZTIPFvPvPKvE",
   "size" : 4,
   "source_file" : "/bionic/libc/include/malloc.h"
  },
  {
   "alignment" : 4,
   "linker_set_key" : "_ZTIPFviE",
   "name" : "void (*)(int)",
   "referenced_type" : "_ZTIFviE",
   "self_type" : "_ZTIPFviE",
   "size" : 4,
   "source_file" : "/bionic/libc/include/bits/signal_types.h"
  },
  {
   "alignment" : 4,
   "linker_set_key" : "_ZTIPFviP7siginfoPvE",
   "name" : "void (*)(int, siginfo *, void *)",
   "referenced_type" : "_ZTIFviP7siginfoPvE",
   "self_type" : "_ZTIPFviP7siginfoPvE",
   "size" : 4,
   "source_file" : "/bionic/libc/include/bits/signal_types.h"
  },
  {
   "alignment" : 4,
   "linker_set_key" : "_ZTIPFvvE",
   "name" : "void (*)()",
   "referenced_type" : "_ZTIFvvE",
   "self_type" : "_ZTIPFvvE",
   "size" : 4,
   "source_file" : "/bionic/libc/include/bits/signal_types.h"
  },
  {
   "alignment" : 4,
   "linker_set_key" : "_ZTIPK10elf32_phdr",
   "name" : "const elf32_phdr *",
   "referenced_type" : "_ZTIK10elf32_phdr",
   "self_type" : "_ZTIPK10elf32_phdr",
   "size" : 4,
   "source_file" : "/bionic/libc/include/link.h"
  },
  {
   "alignment" : 4,
   "linker_set_key" : "_ZTIPK10sigset64_t",
   "name" : "const sigset64_t *",
   "referenced_type" : "_ZTIK10sigset64_t",
   "self_type" : "_ZTIPK10sigset64_t",
   "size" : 4,
   "source_file" : "/bionic/libc/include/bits/fortify/poll.h"
  },
  {
   "alignment" : 4,
   "linker_set_key" : "_ZTIPK11ContextNode",
   "name" : "const ContextNode *",
   "referenced_type" : "_ZTIK11ContextNode",
   "self_type" : "_ZTIPK11ContextNode",
   "size" : 4,
   "source_file" : "/bionic/libc/system_properties/include/system_properties/context_node.h"
  },
  {
   "alignment" : 4,
   "linker_set_key" : "_ZTIPK11sched_param",
   "name" : "const sched_param *",
   "referenced_type" : "_ZTIK11sched_param",
   "self_type" : "_ZTIPK11sched_param",
   "size" : 4,
   "source_file" : "/bionic/libc/include/pthread.h"
  },
  {
   "alignment" : 4,
   "linker_set_key" : "_ZTIPK14pthread_attr_t",
   "name" : "const pthread_attr_t *",
   "referenced_type" : "_ZTIK14pthread_attr_t",
   "self_type" : "_ZTIPK14pthread_attr_t",
   "size" : 4,
   "source_file" : "/bionic/libc/include/pthread.h"
  },
  {
   "alignment" : 4,
   "linker_set_key" : "_ZTIPK2tm",
   "name" : "const tm *",
   "referenced_type" : "_ZTIK2tm",
   "self_type" : "_ZTIPK2tm",
   "size" : 4,
   "source_file" : "/bionic/libc/include/time.h"
  },
  {
   "alignment" : 4,
   "linker_set_key" : "_ZTIPK6fd_set",
   "name" : "const fd_set *",
   "referenced_type" : "_ZTIK6fd_set",
   "self_type" : "_ZTIPK6fd_set",
   "size" : 4,
   "source_file" : "/bionic/libc/include/sys/select.h"
  },
  {
   "alignment" : 4,
   "linker_set_key" : "_ZTIPK6option",
   "name" : "const option *",
   "referenced_type" : "_ZTIK6option",
   "self_type" : "_ZTIPK6option",
   "size" : 4,
   "source_file" : "/bionic/libc/include/getopt.h"
  },
  {
   "alignment" : 4,
   "linker_set_key" : "_ZTIPK7__ns_rr",
   "name" : "const __ns_rr *",
   "referenced_type" : "_ZTIK7__ns_rr",
   "self_type" : "_ZTIPK7__ns_rr",
   "size" : 4,
   "source_file" : "/bionic/libc/include/arpa/nameser.h"
  },
  {
   "alignment" : 4,
   "linker_set_key" : "_ZTIPK7regex_t",
   "name" : "const regex_t *",
   "referenced_type" : "_ZTIK7regex_t",
   "self_type" : "_ZTIPK7regex_t",
   "size" : 4,
   "source_file" : "/bionic/libc/include/regex.h"
  },
  {
   "alignment" : 4,
   "linker_set_key" : "_ZTIPK7siginfo",
   "name" : "const siginfo *",
   "referenced_type" : "_ZTIK7siginfo",
   "self_type" : "_ZTIPK7siginfo",
   "size" : 4,
   "source_file" : "/bionic/libc/include/signal.h"
  },
  {
   "alignment" : 4,
   "linker_set_key" : "_ZTIPK7utimbuf",
   "name" : "const utimbuf *",
   "referenced_type" : "_ZTIK7utimbuf",
   "self_type" : "_ZTIPK7utimbuf",
   "size" : 4,
   "source_file" : "/bionic/libc/include/utime.h"
  },
  {
   "alignment" : 4,
   "linker_set_key" : "_ZTIPK8__ns_msg",
   "name" : "const __ns_msg *",
   "referenced_type" : "_ZTIK8__ns_msg",
   "self_type" : "_ZTIPK8__ns_msg",
   "size" : 4,
   "source_file" : "/bionic/libc/include/arpa/nameser.h"
  },
  {
   "alignment" : 4,
   "linker_set_key" : "_ZTIPK8addrinfo",
   "name" : "const addrinfo *",
   "referenced_type" : "_ZTIK8addrinfo",
   "self_type" : "_ZTIPK8addrinfo",
   "size" : 4,
   "source_file" : "/bionic/libc/include/netdb.h"
  },
  {
   "alignment" : 4,
   "linker_set_key" : "_ZTIPK8sockaddr",
   "name" : "const sockaddr *",
   "referenced_type" : "_ZTIK8sockaddr",
   "self_type" : "_ZTIPK8sockaddr",
   "size" : 4,
   "source_file" : "/bionic/libc/include/bits/fortify/socket.h"
  },
  {
   "alignment" : 4,
   "linker_set_key" : "_ZTIPK8timespec",
   "name" : "const timespec *",
   "referenced_type" : "_ZTIK8timespec",
   "self_type" : "_ZTIPK8timespec",
   "size" : 4,
   "source_file" : "/bionic/libc/system_properties/include/system_properties/system_properties.h"
  },
  {
   "alignment" : 4,
   "linker_set_key" : "_ZTIPK9prop_area",
   "name" : "const prop_area *",
   "referenced_type" : "_ZTIK9prop_area",
   "self_type" : "_ZTIPK9prop_area",
   "size" : 4,
   "source_file" : "/bionic/libc/system_properties/include/system_properties/prop_area.h"
  },
  {
   "alignment" : 4,
   "linker_set_key" : "_ZTIPK9prop_info",
   "name" : "const prop_info *",
   "referenced_type" : "_ZTIK9prop_info",
   "self_type" : "_ZTIPK9prop_info",
   "size" : 4,
   "source_file" : "/bionic/libc/system_properties/include/system_properties/prop_info.h"
  },
  {
   "alignment" : 4,
   "linker_set_key" : "_ZTIPKN7android10properties13PropertyEntryE",
   "name" : "const android::properties::PropertyEntry *",
   "referenced_type" : "_ZTIKN7android10properties13PropertyEntryE",
   "self_type" : "_ZTIPKN7android10properties13PropertyEntryE",
   "size" : 4,
   "source_file" : "/system/core/property_service/libpropertyinfoparser/include/property_info_parser/property_info_parser.h"
  },
  {
   "alignment" : 4,
   "linker_set_key" : "_ZTIPKN7android10properties14SerializedDataE",
   "name" : "const android::properties::SerializedData *",
   "referenced_type" : "_ZTIKN7android10properties14SerializedDataE",
   "self_type" : "_ZTIPKN7android10properties14SerializedDataE",
   "size" : 4,
   "source_file" : "/system/core/property_service/libpropertyinfoparser/include/property_info_parser/property_info_parser.h"
  },
  {
   "alignment" : 4,
   "linker_set_key" : "_ZTIPKN7android10properties16PropertyInfoAreaE",
   "name" : "const android::properties::PropertyInfoArea *",
   "referenced_type" : "_ZTIKN7android10properties16PropertyInfoAreaE",
   "self_type" : "_ZTIPKN7android10properties16PropertyInfoAreaE",
   "size" : 4,
   "source_file" : "/system/core/property_service/libpropertyinfoparser/include/property_info_parser/property_info_parser.h"
  },
  {
   "alignment" : 4,
   "linker_set_key" : "_ZTIPKN7android10properties16TrieNodeInternalE",
   "name" : "const android::properties::TrieNodeInternal *",
   "referenced_type" : "_ZTIKN7android10properties16TrieNodeInternalE",
   "self_type" : "_ZTIPKN7android10properties16TrieNodeInternalE",
   "size" : 4,
   "source_file" : "/system/core/property_service/libpropertyinfoparser/include/property_info_parser/property_info_parser.h"
  },
  {
   "alignment" : 4,
   "linker_set_key" : "_ZTIPKN7android10properties20PropertyInfoAreaFileE",
   "name" : "const android::properties::PropertyInfoAreaFile *",
   "referenced_type" : "_ZTIKN7android10properties20PropertyInfoAreaFileE",
   "self_type" : "_ZTIPKN7android10properties20PropertyInfoAreaFileE",
   "size" : 4,
   "source_file" : "/system/core/property_service/libpropertyinfoparser/include/property_info_parser/property_info_parser.h"
  },
  {
   "alignment" : 4,
   "linker_set_key" : "_ZTIPKN7android10properties22PropertyInfoAreaHeaderE",
   "name" : "const android::properties::PropertyInfoAreaHeader *",
   "referenced_type" : "_ZTIKN7android10properties22PropertyInfoAreaHeaderE",
   "self_type" : "_ZTIPKN7android10properties22PropertyInfoAreaHeaderE",
   "size" : 4,
   "source_file" : "/system/core/property_service/libpropertyinfoparser/include/property_info_parser/property_info_parser.h"
  },
  {
   "alignment" : 4,
   "linker_set_key" : "_ZTIPKN7android10properties8TrieNodeE",
   "name" : "const android::properties::TrieNode *",
   "referenced_type" : "_ZTIKN7android10properties8TrieNodeE",
   "self_type" : "_ZTIPKN7android10properties8TrieNodeE",
   "size" : 4,
   "source_file" : "/system/core/property_service/libpropertyinfoparser/include/property_info_parser/property_info_parser.h"
  },
  {
   "alignment" : 4,
   "linker_set_key" : "_ZTIPKPc",
   "name" : "char *const *",
   "referenced_type" : "_ZTIKPc",
   "self_type" : "_ZTIPKPc",
   "size" : 4,
   "source_file" : "/bionic/libc/include/stdlib.h"
  },
  {
   "alignment" : 4,
   "linker_set_key" : "_ZTIPKPv",
   "name" : "void *const *",
   "referenced_type" : "_ZTIKPv",
   "self_type" : "_ZTIPKPv",
   "size" : 4,
   "source_file" : "/bionic/libc/include/search.h"
  },
  {
   "alignment" : 4,
   "linker_set_key" : "_ZTIPKc",
   "name" : "const char *",
   "referenced_type" : "_ZTIKc",
   "self_type" : "_ZTIPKc",
   "size" : 4,
   "source_file" : "/bionic/libc/include/signal.h"
  },
  {
   "alignment" : 4,
   "linker_set_key" : "_ZTIPKh",
   "name" : "const unsigned char *",
   "referenced_type" : "_ZTIKh",
   "self_type" : "_ZTIPKh",
   "size" : 4,
   "source_file" : "/bionic/libc/include/arpa/nameser.h"
  },
  {
   "alignment" : 4,
   "linker_set_key" : "_ZTIPKi",
   "name" : "const int *",
   "referenced_type" : "_ZTIKi",
   "self_type" : "_ZTIPKi",
   "size" : 4,
   "source_file" : "/bionic/libc/include/pthread.h"
  },
  {
   "alignment" : 4,
   "linker_set_key" : "_ZTIPKj",
   "name" : "const unsigned int *",
   "referenced_type" : "_ZTIKj",
   "self_type" : "_ZTIPKj",
   "size" : 4,
   "source_file" : "/bionic/libc/include/wchar.h"
  },
  {
   "alignment" : 4,
   "linker_set_key" : "_ZTIPKl",
   "name" : "const long *",
   "referenced_type" : "_ZTIKl",
   "self_type" : "_ZTIPKl",
   "size" : 4,
   "source_file" : "/bionic/libc/include/time.h"
  },
  {
   "alignment" : 4,
   "linker_set_key" : "_ZTIPKm",
   "name" : "const unsigned long *",
   "referenced_type" : "_ZTIKm",
   "self_type" : "_ZTIPKm",
   "size" : 4,
   "source_file" : "/bionic/libc/include/bits/fortify/poll.h"
  },
  {
   "alignment" : 4,
   "linker_set_key" : "_ZTIPKv",
   "name" : "const void *",
   "referenced_type" : "_ZTIKv",
   "self_type" : "_ZTIPKv",
   "size" : 4,
   "source_file" : "/bionic/libc/include/malloc.h"
  },
  {
   "alignment" : 4,
   "linker_set_key" : "_ZTIPN7android10properties20PropertyInfoAreaFileE",
   "name" : "android::properties::PropertyInfoAreaFile *",
   "referenced_type" : "_ZTIN7android10properties20PropertyInfoAreaFileE",
   "self_type" : "_ZTIPN7android10properties20PropertyInfoAreaFileE",
   "size" : 4,
   "source_file" : "/system/core/property_service/libpropertyinfoparser/include/property_info_parser/property_info_parser.h"
  },
  {
   "alignment" : 4,
   "linker_set_key" : "_ZTIPN7android10properties8TrieNodeE",
   "name" : "android::properties::TrieNode *",
   "referenced_type" : "_ZTIN7android10properties8TrieNodeE",
   "self_type" : "_ZTIPN7android10properties8TrieNodeE",
   "size" : 4,
   "source_file" : "/system/core/property_service/libpropertyinfoparser/include/property_info_parser/property_info_parser.h"
  },
  {
   "alignment" : 4,
   "linker_set_key" : "_ZTIPP5entry",
   "name" : "entry **",
   "referenced_type" : "_ZTIP5entry",
   "self_type" : "_ZTIPP5entry",
   "size" : 4,
   "source_file" : "/bionic/libc/include/search.h"
  },
  {
   "alignment" : 4,
   "linker_set_key" : "_ZTIPP7hostent",
   "name" : "hostent **",
   "referenced_type" : "_ZTIP7hostent",
   "self_type" : "_ZTIPP7hostent",
   "size" : 4,
   "source_file" : "/bionic/libc/include/netdb.h"
  },
  {
   "alignment" : 4,
   "linker_set_key" : "_ZTIPP8addrinfo",
   "name" : "addrinfo **",
   "referenced_type" : "_ZTIP8addrinfo",
   "self_type" : "_ZTIPP8addrinfo",
   "size" : 4,
   "source_file" : "/bionic/libc/include/netdb.h"
  },
  {
   "alignment" : 4,
   "linker_set_key" : "_ZTIPP9prop_area",
   "name" : "prop_area **",
   "referenced_type" : "_ZTIP9prop_area",
   "self_type" : "_ZTIPP9prop_area",
   "size" : 4,
   "source_file" : "/bionic/libc/system_properties/include/system_properties/prop_area.h"
  },
  {
   "alignment" : 4,
   "linker_set_key" : "_ZTIPPKc",
   "name" : "const char **",
   "referenced_type" : "_ZTIPKc",
   "self_type" : "_ZTIPPKc",
   "size" : 4,
   "source_file" : "/system/core/property_service/libpropertyinfoparser/include/property_info_parser/property_info_parser.h"
  },
  {
   "alignment" : 4,
   "linker_set_key" : "_ZTIPPKh",
   "name" : "const unsigned char **",
   "referenced_type" : "_ZTIPKh",
   "self_type" : "_ZTIPPKh",
   "size" : 4,
   "source_file" : "/bionic/libc/include/arpa/nameser.h"
  },
  {
   "alignment" : 4,
   "linker_set_key" : "_ZTIPPc",
   "name" : "char **",
   "referenced_type" : "_ZTIPc",
   "self_type" : "_ZTIPPc",
   "size" : 4,
   "source_file" : "/bionic/libc/include/unistd.h"
  },
  {
   "alignment" : 4,
   "linker_set_key" : "_ZTIPPh",
   "name" : "unsigned char **",
   "referenced_type" : "_ZTIPh",
   "self_type" : "_ZTIPPh",
   "size" : 4,
   "source_file" : "/bionic/libc/include/resolv.h"
  },
  {
   "alignment" : 4,
   "linker_set_key" : "_ZTIPPj",
   "name" : "unsigned int **",
   "referenced_type" : "_ZTIPj",
   "self_type" : "_ZTIPPj",
   "size" : 4,
   "source_file" : "/bionic/libc/include/inttypes.h"
  },
  {
   "alignment" : 4,
   "linker_set_key" : "_ZTIPPv",
   "name" : "void **",
   "referenced_type" : "_ZTIPv",
   "self_type" : "_ZTIPPv",
   "size" : 4,
   "source_file" : "/bionic/libc/include/stdlib.h"
  },
  {
   "alignment" : 4,
   "linker_set_key" : "_ZTIPU7_Atomicj",
   "name" : "_Atomic(unsigned int) *",
   "referenced_type" : "_ZTIU7_Atomicj",
   "self_type" : "_ZTIPU7_Atomicj",
   "size" : 4,
   "source_file" : "/bionic/libc/system_properties/include/system_properties/prop_area.h"
  },
  {
   "alignment" : 4,
   "linker_set_key" : "_ZTIPb",
   "name" : "bool *",
   "referenced_type" : "_ZTIb",
   "self_type" : "_ZTIPb",
   "size" : 4,
   "source_file" : "/bionic/libc/system_properties/include/system_properties/contexts_pre_split.h"
  },
  {
   "alignment" : 4,
   "linker_set_key" : "_ZTIPc",
   "name" : "char *",
   "referenced_type" : "_ZTIc",
   "self_type" : "_ZTIPc",
   "size" : 4,
   "source_file" : "/bionic/libc/include/bits/getopt.h"
  },
  {
   "alignment" : 4,
   "linker_set_key" : "_ZTIPh",
   "name" : "unsigned char *",
   "referenced_type" : "_ZTIh",
   "self_type" : "_ZTIPh",
   "size" : 4,
   "source_file" : "/bionic/libc/include/arpa/nameser.h"
  },
  {
   "alignment" : 4,
   "linker_set_key" : "_ZTIPi",
   "name" : "int *",
   "referenced_type" : "_ZTIi",
   "self_type" : "_ZTIPi",
   "size" : 4,
   "source_file" : "/bionic/libc/include/bits/fortify/socket.h"
  },
  {
   "alignment" : 4,
   "linker_set_key" : "_ZTIPj",
   "name" : "unsigned int *",
   "referenced_type" : "_ZTIj",
   "self_type" : "_ZTIPj",
   "size" : 4,
   "source_file" : "/bionic/libc/include/wchar.h"
  },
  {
   "alignment" : 4,
   "linker_set_key" : "_ZTIPl",
   "name" : "long *",
   "referenced_type" : "_ZTIl",
   "self_type" : "_ZTIPl",
   "size" : 4,
   "source_file" : "/bionic/libc/include/pthread.h"
  },
  {
   "alignment" : 4,
   "linker_set_key" : "_ZTIPt",
   "name" : "unsigned short *",
   "referenced_type" : "_ZTIt",
   "self_type" : "_ZTIPt",
   "size" : 4,
   "source_file" : "/bionic/libc/include/stdlib.h"
  },
  {
   "alignment" : 4,
   "linker_set_key" : "_ZTIPv",
   "name" : "void *",
   "referenced_type" : "_ZTIv",
   "self_type" : "_ZTIPv",
   "size" : 4,
   "source_file" : "/bionic/libc/include/bits/pthread_types.h"
  }
 ],
 "qualified_types" :
 [
  {
   "alignment" : 1,
   "is_const" : true,
   "linker_set_key" : "_ZTIA0_Kc",
   "name" : "char const[0]",
   "referenced_type" : "_ZTIA0_c",
   "self_type" : "_ZTIA0_Kc",
   "source_file" : "/system/core/property_service/libpropertyinfoparser/include/property_info_parser/property_info_parser.h"
  },
  {
   "alignment" : 4,
   "is_const" : true,
   "linker_set_key" : "_ZTIA65_KPKc",
   "name" : "const char *const[65]",
   "referenced_type" : "_ZTIA65_PKc",
   "self_type" : "_ZTIA65_KPKc",
   "size" : 260,
   "source_file" : "/bionic/libc/include/signal.h"
  },
  {
   "alignment" : 4,
   "is_const" : true,
   "linker_set_key" : "_ZTIK10elf32_phdr",
   "name" : "const elf32_phdr",
   "referenced_type" : "_ZTI10elf32_phdr",
   "self_type" : "_ZTIK10elf32_phdr",
   "size" : 32,
   "source_file" : "/bionic/libc/include/link.h"
  },
  {
   "alignment" : 4,
   "is_const" : true,
   "linker_set_key" : "_ZTIK10sigset64_t",
   "name" : "const sigset64_t",
   "referenced_type" : "_ZTI10sigset64_t",
   "self_type" : "_ZTIK10sigset64_t",
   "size" : 8,
   "source_file" : "/bionic/libc/include/bits/fortify/poll.h"
  },
  {
   "alignment" : 4,
   "is_const" : true,
   "linker_set_key" : "_ZTIK11ContextNode",
   "name" : "const ContextNode",
   "referenced_type" : "_ZTI11ContextNode",
   "self_type" : "_ZTIK11ContextNode",
   "size" : 24,
   "source_file" : "/bionic/libc/system_properties/include/system_properties/context_node.h"
  },
  {
   "alignment" : 4,
   "is_const" : true,
   "linker_set_key" : "_ZTIK11sched_param",
   "name" : "const sched_param",
   "referenced_type" : "_ZTI11sched_param",
   "self_type" : "_ZTIK11sched_param",
   "size" : 4,
   "source_file" : "/bionic/libc/include/pthread.h"
  },
  {
   "alignment" : 4,
   "is_const" : true,
   "linker_set_key" : "_ZTIK14pthread_attr_t",
   "name" : "const pthread_attr_t",
   "referenced_type" : "_ZTI14pthread_attr_t",
   "self_type" : "_ZTIK14pthread_attr_t",
   "size" : 24,
   "source_file" : "/bionic/libc/include/pthread.h"
  },
  {
   "alignment" : 4,
   "is_const" : true,
   "linker_set_key" : "_ZTIK2tm",
   "name" : "const tm",
   "referenced_type" : "_ZTI2tm",
   "self_type" : "_ZTIK2tm",
   "size" : 44,
   "source_file" : "/bionic/libc/include/time.h"
  },
  {
   "alignment" : 4,
   "is_const" : true,
   "linker_set_key" : "_ZTIK6fd_set",
   "name" : "const fd_set",
   "referenced_type" : "_ZTI6fd_set",
   "self_type" : "_ZTIK6fd_set",
   "size" : 128,
   "source_file" : "/bionic/libc/include/sys/select.h"
  },
  {
   "alignment" : 4,
   "is_const" : true,
   "linker_set_key" : "_ZTIK6option",
   "name" : "const option",
   "referenced_type" : "_ZTI6option",
   "self_type" : "_ZTIK6option",
   "size" : 16,
   "source_file" : "/bionic/libc/include/getopt.h"
  },
  {
   "alignment" : 4,
   "is_const" : true,
   "linker_set_key" : "_ZTIK6sigval",
   "name" : "const sigval",
   "referenced_type" : "_ZTI6sigval",
   "self_type" : "_ZTIK6sigval",
   "size" : 4,
   "source_file" : "/bionic/libc/include/signal.h"
  },
  {
   "alignment" : 4,
   "is_const" : true,
   "linker_set_key" : "_ZTIK7__ns_rr",
   "name" : "const __ns_rr",
   "referenced_type" : "_ZTI7__ns_rr",
   "self_type" : "_ZTIK7__ns_rr",
   "size" : 1044,
   "source_file" : "/bionic/libc/include/arpa/nameser.h"
  },
  {
   "alignment" : 4,
   "is_const" : true,
   "linker_set_key" : "_ZTIK7regex_t",
   "name" : "const regex_t",
   "referenced_type" : "_ZTI7regex_t",
   "self_type" : "_ZTIK7regex_t",
   "size" : 16,
   "source_file" : "/bionic/libc/include/regex.h"
  },
  {
   "alignment" : 4,
   "is_const" : true,
   "linker_set_key" : "_ZTIK7siginfo",
   "name" : "const siginfo",
   "referenced_type" : "_ZTI7siginfo",
   "self_type" : "_ZTIK7siginfo",
   "size" : 128,
   "source_file" : "/bionic/libc/include/signal.h"
  },
  {
   "alignment" : 4,
   "is_const" : true,
   "linker_set_key" : "_ZTIK7utimbuf",
   "name" : "const utimbuf",
   "referenced_type" : "_ZTI7utimbuf",
   "self_type" : "_ZTIK7utimbuf",
   "size" : 8,
   "source_file" : "/bionic/libc/include/utime.h"
  },
  {
   "alignment" : 4,
   "is_const" : true,
   "linker_set_key" : "_ZTIK8__ns_msg",
   "name" : "const __ns_msg",
   "referenced_type" : "_ZTI8__ns_msg",
   "self_type" : "_ZTIK8__ns_msg",
   "size" : 48,
   "source_file" : "/bionic/libc/include/arpa/nameser.h"
  },
  {
   "alignment" : 4,
   "is_const" : true,
   "linker_set_key" : "_ZTIK8addrinfo",
   "name" : "const addrinfo",
   "referenced_type" : "_ZTI8addrinfo",
   "self_type" : "_ZTIK8addrinfo",
   "size" : 32,
   "source_file" : "/bionic/libc/include/netdb.h"
  },
  {
   "alignment" : 4,
   "is_const" : true,
   "linker_set_key" : "_ZTIK8in6_addr",
   "name" : "const in6_addr",
   "referenced_type" : "_ZTI8in6_addr",
   "self_type" : "_ZTIK8in6_addr",
   "size" : 16,
   "source_file" : "/bionic/libc/include/netinet/in.h"
  },
  {
   "alignment" : 2,
   "is_const" : true,
   "linker_set_key" : "_ZTIK8sockaddr",
   "name" : "const sockaddr",
   "referenced_type" : "_ZTI8sockaddr",
   "self_type" : "_ZTIK8sockaddr",
   "size" : 16,
   "source_file" : "/bionic/libc/include/bits/fortify/socket.h"
  },
  {
   "alignment" : 4,
   "is_const" : true,
   "linker_set_key" : "_ZTIK8timespec",
   "name" : "const timespec",
   "referenced_type" : "_ZTI8timespec",
   "self_type" : "_ZTIK8timespec",
   "size" : 8,
   "source_file" : "/bionic/libc/system_properties/include/system_properties/system_properties.h"
  },
  {
   "alignment" : 4,
   "is_const" : true,
   "linker_set_key" : "_ZTIK9prop_area",
   "name" : "const prop_area",
   "referenced_type" : "_ZTI9prop_area",
   "self_type" : "_ZTIK9prop_area",
   "size" : 128,
   "source_file" : "/bionic/libc/system_properties/include/system_properties/prop_area.h"
  },
  {
   "alignment" : 4,
   "is_const" : true,
   "linker_set_key" : "_ZTIK9prop_info",
   "name" : "const prop_info",
   "referenced_type" : "_ZTI9prop_info",
   "self_type" : "_ZTIK9prop_info",
   "size" : 96,
   "source_file" : "/bionic/libc/system_properties/include/system_properties/prop_info.h"
  },
  {
   "alignment" : 4,
   "is_const" : true,
   "linker_set_key" : "_ZTIKN7android10properties13PropertyEntryE",
   "name" : "const android::properties::PropertyEntry",
   "referenced_type" : "_ZTIN7android10properties13PropertyEntryE",
   "self_type" : "_ZTIKN7android10properties13PropertyEntryE",
   "size" : 16,
   "source_file" : "/system/core/property_service/libpropertyinfoparser/include/property_info_parser/property_info_parser.h"
  },
  {
   "alignment" : 1,
   "is_const" : true,
   "linker_set_key" : "_ZTIKN7android10properties14SerializedDataE",
   "name" : "const android::properties::SerializedData",
   "referenced_type" : "_ZTIN7android10properties14SerializedDataE",
   "self_type" : "_ZTIKN7android10properties14SerializedDataE",
   "source_file" : "/system/core/property_service/libpropertyinfoparser/include/property_info_parser/property_info_parser.h"
  },
  {
   "alignment" : 1,
   "is_const" : true,
   "linker_set_key" : "_ZTIKN7android10properties16PropertyInfoAreaE",
   "name" : "const android::properties::PropertyInfoArea",
   "referenced_type" : "_ZTIN7android10properties16PropertyInfoAreaE",
   "self_type" : "_ZTIKN7android10properties16PropertyInfoAreaE",
   "source_file" : "/system/core/property_service/libpropertyinfoparser/include/property_info_parser/property_info_parser.h"
  },
  {
   "alignment" : 4,
   "is_const" : true,
   "linker_set_key" : "_ZTIKN7android10properties16TrieNodeInternalE",
   "name" : "const android::properties::TrieNodeInternal",
   "referenced_type" : "_ZTIN7android10properties16TrieNodeInternalE",
   "self_type" : "_ZTIKN7android10properties16TrieNodeInternalE",
   "size" : 28,
   "source_file" : "/system/core/property_service/libpropertyinfoparser/include/property_info_parser/property_info_parser.h"
  },
  {
   "alignment" : 4,
   "is_const" : true,
   "linker_set_key" : "_ZTIKN7android10properties20PropertyInfoAreaFileE",
   "name" : "const android::properties::PropertyInfoAreaFile",
   "referenced_type" : "_ZTIN7android10properties20PropertyInfoAreaFileE",
   "self_type" : "_ZTIKN7android10properties20PropertyInfoAreaFileE",
   "size" : 8,
   "source_file" : "/system/core/property_service/libpropertyinfoparser/include/property_info_parser/property_info_parser.h"
  },
  {
   "alignment" : 4,
   "is_const" : true,
   "linker_set_key" : "_ZTIKN7android10properties22PropertyInfoAreaHeaderE",
   "name" : "const android::properties::PropertyInfoAreaHeader",
   "referenced_type" : "_ZTIN7android10properties22PropertyInfoAreaHeaderE",
   "self_type" : "_ZTIKN7android10properties22PropertyInfoAreaHeaderE",
   "size" : 24,
   "source_file" : "/system/core/property_service/libpropertyinfoparser/include/property_info_parser/property_info_parser.h"
  },
  {
   "alignment" : 4,
   "is_const" : true,
   "linker_set_key" : "_ZTIKN7android10properties8TrieNodeE",
   "name" : "const android::properties::TrieNode",
   "referenced_type" : "_ZTIN7android10properties8TrieNodeE",
   "self_type" : "_ZTIKN7android10properties8TrieNodeE",
   "size" : 8,
   "source_file" : "/system/core/property_service/libpropertyinfoparser/include/property_info_parser/property_info_parser.h"
  },
  {
   "alignment" : 4,
   "is_const" : true,
   "linker_set_key" : "_ZTIKP7prop_bt",
   "name" : "prop_bt *const",
   "referenced_type" : "_ZTIP7prop_bt",
   "self_type" : "_ZTIKP7prop_bt",
   "size" : 4,
   "source_file" : "/bionic/libc/system_properties/include/system_properties/prop_area.h"
  },
  {
   "alignment" : 4,
   "is_const" : true,
   "linker_set_key" : "_ZTIKPKc",
   "name" : "const char *const",
   "referenced_type" : "_ZTIPKc",
   "self_type" : "_ZTIKPKc",
   "size" : 4,
   "source_file" : "/bionic/libc/include/string.h"
  },
  {
   "alignment" : 4,
   "is_const" : true,
   "linker_set_key" : "_ZTIKPKv",
   "name" : "const void *const",
   "referenced_type" : "_ZTIPKv",
   "self_type" : "_ZTIKPKv",
   "size" : 4,
   "source_file" : "/bionic/libc/include/string.h"
  },
  {
   "alignment" : 4,
   "is_const" : true,
   "linker_set_key" : "_ZTIKPc",
   "name" : "char *const",
   "referenced_type" : "_ZTIPc",
   "self_type" : "_ZTIKPc",
   "size" : 4,
   "source_file" : "/bionic/libc/include/string.h"
  },
  {
   "alignment" : 4,
   "is_const" : true,
   "linker_set_key" : "_ZTIKPj",
   "name" : "unsigned int *const",
   "referenced_type" : "_ZTIPj",
   "self_type" : "_ZTIKPj",
   "size" : 4,
   "source_file" : "/bionic/libc/system_properties/include/system_properties/prop_area.h"
  },
  {
   "alignment" : 4,
   "is_const" : true,
   "linker_set_key" : "_ZTIKPv",
   "name" : "void *const",
   "referenced_type" : "_ZTIPv",
   "self_type" : "_ZTIKPv",
   "size" : 4,
   "source_file" : "/bionic/libc/include/string.h"
  },
  {
   "alignment" : 1,
   "is_const" : true,
   "linker_set_key" : "_ZTIKc",
   "name" : "const char",
   "referenced_type" : "_ZTIc",
   "self_type" : "_ZTIKc",
   "size" : 1,
   "source_file" : "/bionic/libc/include/signal.h"
  },
  {
   "alignment" : 1,
   "is_const" : true,
   "linker_set_key" : "_ZTIKh",
   "name" : "const unsigned char",
   "referenced_type" : "_ZTIh",
   "self_type" : "_ZTIKh",
   "size" : 1,
   "source_file" : "/bionic/libc/include/arpa/nameser.h"
  },
  {
   "alignment" : 4,
   "is_const" : true,
   "linker_set_key" : "_ZTIKi",
   "name" : "const int",
   "referenced_type" : "_ZTIi",
   "self_type" : "_ZTIKi",
   "size" : 4,
   "source_file" : "/bionic/libc/system_properties/include/system_properties/system_properties.h"
  },
  {
   "alignment" : 4,
   "is_const" : true,
   "linker_set_key" : "_ZTIKj",
   "name" : "const unsigned int",
   "referenced_type" : "_ZTIj",
   "self_type" : "_ZTIKj",
   "size" : 4,
   "source_file" : "/bionic/libc/include/wchar.h"
  },
  {
   "alignment" : 4,
   "is_const" : true,
   "linker_set_key" : "_ZTIKl",
   "name" : "const long",
   "referenced_type" : "_ZTIl",
   "self_type" : "_ZTIKl",
   "size" : 4,
   "source_file" : "/bionic/libc/include/time.h"
  },
  {
   "alignment" : 4,
   "is_const" : true,
   "linker_set_key" : "_ZTIKm",
   "name" : "const unsigned long",
   "referenced_type" : "_ZTIm",
   "self_type" : "_ZTIKm",
   "size" : 4,
   "source_file" : "/bionic/libc/include/bits/fortify/poll.h"
  },
  {
   "is_const" : true,
   "linker_set_key" : "_ZTIKv",
   "name" : "const void",
   "referenced_type" : "_ZTIv",
   "self_type" : "_ZTIKv",
   "source_file" : "/bionic/libc/include/malloc.h"
  },
  {
   "alignment" : 4,
   "is_volatile" : true,
   "linker_set_key" : "_ZTIVPFPvS_jPKvE",
   "name" : "void *(*volatile)(void *, unsigned int, const void *)",
   "referenced_type" : "_ZTIPFPvS_jPKvE",
   "self_type" : "_ZTIVPFPvS_jPKvE",
   "size" : 4,
   "source_file" : "/bionic/libc/include/malloc.h"
  },
  {
   "alignment" : 4,
   "is_volatile" : true,
   "linker_set_key" : "_ZTIVPFPvjPKvE",
   "name" : "void *(*volatile)(unsigned int, const void *)",
   "referenced_type" : "_ZTIPFPvjPKvE",
   "self_type" : "_ZTIVPFPvjPKvE",
   "size" : 4,
   "source_file" : "/bionic/libc/include/malloc.h"
  },
  {
   "alignment" : 4,
   "is_volatile" : true,
   "linker_set_key" : "_ZTIVPFPvjjPKvE",
   "name" : "void *(*volatile)(unsigned int, unsigned int, const void *)",
   "referenced_type" : "_ZTIPFPvjjPKvE",
   "self_type" : "_ZTIVPFPvjjPKvE",
   "size" : 4,
   "source_file" : "/bionic/libc/include/malloc.h"
  },
  {
   "alignment" : 4,
   "is_volatile" : true,
   "linker_set_key" : "_ZTIVPFvPvPKvE",
   "name" : "void (*volatile)(void *, const void *)",
   "referenced_type" : "_ZTIPFvPvPKvE",
   "self_type" : "_ZTIVPFvPvPKvE",
   "size" : 4,
   "source_file" : "/bionic/libc/include/malloc.h"
  }
 ],
 "record_types" :
 [
  {
   "alignment" : 4,
   "fields" :
   [
    {
     "field_name" : "ch_type",
     "referenced_type" : "_ZTIj"
    },
    {
     "field_name" : "ch_size",
     "field_offset" : 32,
     "referenced_type" : "_ZTIj"
    },
    {
     "field_name" : "ch_addralign",
     "field_offset" : 64,
     "referenced_type" : "_ZTIj"
    }
   ],
   "linker_set_key" : "_ZTI10Elf32_Chdr",
   "name" : "Elf32_Chdr",
   "referenced_type" : "_ZTI10Elf32_Chdr",
   "self_type" : "_ZTI10Elf32_Chdr",
   "size" : 12,
   "source_file" : "/bionic/libc/include/elf.h"
  },
  {
   "alignment" : 8,
   "fields" :
   [
    {
     "field_name" : "m_value",
     "referenced_type" : "_ZTIy"
    },
    {
     "field_name" : "m_info",
     "field_offset" : 64,
     "referenced_type" : "_ZTIj"
    },
    {
     "field_name" : "m_poffset",
     "field_offset" : 96,
     "referenced_type" : "_ZTIj"
    },
    {
     "field_name" : "m_repeat",
     "field_offset" : 128,
     "referenced_type" : "_ZTIt"
    },
    {
     "field_name" : "m_stride",
     "field_offset" : 144,
     "referenced_type" : "_ZTIt"
    }
   ],
   "linker_set_key" : "_ZTI10Elf32_Move",
   "name" : "Elf32_Move",
   "referenced_type" : "_ZTI10Elf32_Move",
   "self_type" : "_ZTI10Elf32_Move",
   "size" : 24,
   "source_file" : "/bionic/libc/include/elf.h"
  },
  {
   "alignment" : 8,
   "fields" :
   [
    {
     "field_name" : "ch_type",
     "referenced_type" : "_ZTIj"
    },
    {
     "field_name" : "ch_reserved",
     "field_offset" : 32,
     "referenced_type" : "_ZTIj"
    },
    {
     "field_name" : "ch_size",
     "field_offset" : 64,
     "referenced_type" : "_ZTIy"
    },
    {
     "field_name" : "ch_addralign",
     "field_offset" : 128,
     "referenced_type" : "_ZTIy"
    }
   ],
   "linker_set_key" : "_ZTI10Elf64_Chdr",
   "name" : "Elf64_Chdr",
   "referenced_type" : "_ZTI10Elf64_Chdr",
   "self_type" : "_ZTI10Elf64_Chdr",
   "size" : 24,
   "source_file" : "/bionic/libc/include/elf.h"
  },
  {
   "alignment" : 8,
   "fields" :
   [
    {
     "field_name" : "m_value",
     "referenced_type" : "_ZTIy"
    },
    {
     "field_name" : "m_info",
     "field_offset" : 64,
     "referenced_type" : "_ZTIy"
    },
    {
     "field_name" : "m_poffset",
     "field_offset" : 128,
     "referenced_type" : "_ZTIy"
    },
    {
     "field_name" : "m_repeat",
     "field_offset" : 192,
     "referenced_type" : "_ZTIt"
    },
    {
     "field_name" : "m_stride",
     "field_offset" : 208,
     "referenced_type" : "_ZTIt"
    }
   ],
   "linker_set_key" : "_ZTI10Elf64_Move",
   "name" : "Elf64_Move",
   "referenced_type" : "_ZTI10Elf64_Move",
   "self_type" : "_ZTI10Elf64_Move",
   "size" : 32,
   "source_file" : "/bionic/libc/include/elf.h"
  },
  {
   "alignment" : 4,
   "fields" :
   [
    {
     "field_name" : "base",
     "referenced_type" : "_ZTIPKh"
    },
    {
     "field_name" : "len",
     "field_offset" : 32,
     "referenced_type" : "_ZTIi"
    }
   ],
   "linker_set_key" : "_ZTI10ns_namemap",
   "name" : "ns_namemap",
   "referenced_type" : "_ZTI10ns_namemap",
   "self_type" : "_ZTI10ns_namemap",
   "size" : 8,
   "source_file" : "/bionic/libc/include/arpa/nameser.h"
  },
  {
   "alignment" : 4,
   "fields" :
   [
    {
     "field_name" : "rm_so",
     "referenced_type" : "_ZTIi"
    },
    {
     "field_name" : "rm_eo",
     "field_offset" : 32,
     "referenced_type" : "_ZTIi"
    }
   ],
   "linker_set_key" : "_ZTI10regmatch_t",
   "name" : "regmatch_t",
   "referenced_type" : "_ZTI10regmatch_t",
   "self_type" : "_ZTI10regmatch_t",
   "size" : 8,
   "source_file" : "/bionic/libc/include/regex.h"
  },
  {
   "alignment" : 4,
   "fields" :
   [
    {
     "field_name" : "__bits",
     "referenced_type" : "_ZTIA2_m"
    }
   ],
   "linker_set_key" : "_ZTI10sigset64_t",
   "name" : "sigset64_t",
   "referenced_type" : "_ZTI10sigset64_t",
   "self_type" : "_ZTI10sigset64_t",
   "size" : 8,
   "source_file" : "/bionic/libc/include/bits/signal_types.h"
  },
  {
   "alignment" : 4,
   "fields" :
   [
    {
     "access" : "private",
     "field_name" : "lock_",
     "referenced_type" : "_ZTI4Lock"
    },
    {
     "access" : "private",
     "field_name" : "context_",
     "field_offset" : 64,
     "referenced_type" : "_ZTIPKc"
    },
    {
     "access" : "private",
     "field_name" : "pa_",
     "field_offset" : 96,
     "referenced_type" : "_ZTIP9prop_area"
    },
    {
     "access" : "private",
     "field_name" : "no_access_",
     "field_offset" : 128,
     "referenced_type" : "_ZTIb"
    },
    {
     "access" : "private",
     "field_name" : "filename_",
     "field_offset" : 160,
     "referenced_type" : "_ZTIPKc"
    }
   ],
   "linker_set_key" : "_ZTI11ContextNode",
   "name" : "ContextNode",
   "record_kind" : "class",
   "referenced_type" : "_ZTI11ContextNode",
   "self_type" : "_ZTI11ContextNode",
   "size" : 24,
   "source_file" : "/bionic/libc/system_properties/include/system_properties/context_node.h"
  },
  {
   "alignment" : 1,
   "fields" :
   [
    {
     "field_name" : "__flag",
     "referenced_type" : "_ZTIU7_Atomicb"
    }
   ],
   "linker_set_key" : "_ZTI11atomic_flag",
   "name" : "atomic_flag",
   "referenced_type" : "_ZTI11atomic_flag",
   "self_type" : "_ZTI11atomic_flag",
   "size" : 1,
   "source_file" : "/bionic/libc/include/bits/stdatomic.h"
  },
  {
   "alignment" : 2,
   "fields" :
   [
    {
     "field_name" : "e_termination",
     "referenced_type" : "_ZTIs"
    },
    {
     "field_name" : "e_exit",
     "field_offset" : 16,
     "referenced_type" : "_ZTIs"
    }
   ],
   "linker_set_key" : "_ZTI11exit_status",
   "name" : "exit_status",
   "referenced_type" : "_ZTI11exit_status",
   "self_type" : "_ZTI11exit_status",
   "size" : 4,
   "source_file" : "/bionic/libc/include/utmp.h"
  },
  {
   "alignment" : 4,
   "fields" :
   [
    {
     "field_name" : "imsf_multiaddr",
     "referenced_type" : "_ZTI7in_addr"
    },
    {
     "field_name" : "imsf_interface",
     "field_offset" : 32,
     "referenced_type" : "_ZTI7in_addr"
    },
    {
     "field_name" : "imsf_fmode",
     "field_offset" : 64,
     "referenced_type" : "_ZTIj"
    },
    {
     "field_name" : "imsf_numsrc",
     "field_offset" : 96,
     "referenced_type" : "_ZTIj"
    },
    {
     "field_name" : "imsf_slist",
     "field_offset" : 128,
     "referenced_type" : "_ZTIA1_7in_addr"
    }
   ],
   "linker_set_key" : "_ZTI11ip_msfilter",
   "name" : "ip_msfilter",
   "referenced_type" : "_ZTI11ip_msfilter",
   "self_type" : "_ZTI11ip_msfilter",
   "size" : 20,
   "source_file" : "/bionic/libc/include/bits/ip_msfilter.h"
  },
  {
   "alignment" : 4,
   "fields" :
   [
    {
     "field_name" : "name",
     "referenced_type" : "_ZTIA1025_c"
    },
    {
     "field_name" : "alg",
     "field_offset" : 8200,
     "referenced_type" : "_ZTIA1025_c"
    },
    {
     "field_name" : "data",
     "field_offset" : 16416,
     "referenced_type" : "_ZTIPh"
    },
    {
     "field_name" : "len",
     "field_offset" : 16448,
     "referenced_type" : "_ZTIi"
    }
   ],
   "linker_set_key" : "_ZTI11ns_tsig_key",
   "name" : "ns_tsig_key",
   "referenced_type" : "_ZTI11ns_tsig_key",
   "self_type" : "_ZTI11ns_tsig_key",
   "size" : 2060,
   "source_file" : "/bionic/libc/include/arpa/nameser.h"
  },
  {
   "alignment" : 4,
   "fields" :
   [
    {
     "field_name" : "sched_priority",
     "referenced_type" : "_ZTIi"
    }
   ],
   "linker_set_key" : "_ZTI11sched_param",
   "name" : "sched_param",
   "referenced_type" : "_ZTI11sched_param",
   "self_type" : "_ZTI11sched_param",
   "size" : 4,
   "source_file" : "/bionic/libc/include/sched.h"
  },
  {
   "alignment" : 4,
   "fields" :
   [
    {
     "referenced_type" : "_ZTIN11sigaction64Ut_E"
    },
    {
     "field_name" : "sa_flags",
     "field_offset" : 32,
     "referenced_type" : "_ZTIi"
    },
    {
     "field_name" : "sa_restorer",
     "field_offset" : 64,
     "referenced_type" : "_ZTIPFvvE"
    },
    {
     "field_name" : "sa_mask",
     "field_offset" : 96,
     "referenced_type" : "_ZTI10sigset64_t"
    }
   ],
   "linker_set_key" : "_ZTI11sigaction64",
   "name" : "sigaction64",
   "referenced_type" : "_ZTI11sigaction64",
   "self_type" : "_ZTI11sigaction64",
   "size" : 20,
   "source_file" : "/bionic/libc/include/bits/signal_types.h"
  },
  {
   "alignment" : 4,
   "fields" :
   [
    {
     "field_name" : "fpregs",
     "referenced_type" : "_ZTIA8_6fp_reg"
    },
    {
     "field_name" : "fpsr",
     "field_offset" : 768,
     "referenced_type" : "_ZTIj"
    },
    {
     "field_name" : "fpcr",
     "field_offset" : 800,
     "referenced_type" : "_ZTIj"
    },
    {
     "field_name" : "ftype",
     "field_offset" : 832,
     "referenced_type" : "_ZTIA8_h"
    },
    {
     "field_name" : "init_flag",
     "field_offset" : 896,
     "referenced_type" : "_ZTIj"
    }
   ],
   "linker_set_key" : "_ZTI11user_fpregs",
   "name" : "user_fpregs",
   "referenced_type" : "_ZTI11user_fpregs",
   "self_type" : "_ZTI11user_fpregs",
   "size" : 116,
   "source_file" : "/bionic/libc/include/sys/user.h"
  },
  {
   "alignment" : 4,
   "fields" :
   [
    {
     "field_name" : "vd_version",
     "referenced_type" : "_ZTIt"
    },
    {
     "field_name" : "vd_flags",
     "field_offset" : 16,
     "referenced_type" : "_ZTIt"
    },
    {
     "field_name" : "vd_ndx",
     "field_offset" : 32,
     "referenced_type" : "_ZTIt"
    },
    {
     "field_name" : "vd_cnt",
     "field_offset" : 48,
     "referenced_type" : "_ZTIt"
    },
    {
     "field_name" : "vd_hash",
     "field_offset" : 64,
     "referenced_type" : "_ZTIj"
    },
    {
     "field_name" : "vd_aux",
     "field_offset" : 96,
     "referenced_type" : "_ZTIj"
    },
    {
     "field_name" : "vd_next",
     "field_offset" : 128,
     "referenced_type" : "_ZTIj"
    }
   ],
   "linker_set_key" : "_ZTI12Elf32_Verdef",
   "name" : "Elf32_Verdef",
   "referenced_type" : "_ZTI12Elf32_Verdef",
   "self_type" : "_ZTI12Elf32_Verdef",
   "size" : 20,
   "source_file" : "/bionic/libc/include/elf.h"
  },
  {
   "alignment" : 4,
   "fields" :
   [
    {
     "field_name" : "a_type",
     "referenced_type" : "_ZTIj"
    },
    {
     "field_name" : "a_un",
     "field_offset" : 32,
     "referenced_type" : "_ZTIN12Elf32_auxv_tUt_E"
    }
   ],
   "linker_set_key" : "_ZTI12Elf32_auxv_t",
   "name" : "Elf32_auxv_t",
   "referenced_type" : "_ZTI12Elf32_auxv_t",
   "self_type" : "_ZTI12Elf32_auxv_t",
   "size" : 8,
   "source_file" : "/bionic/libc/include/elf.h"
  },
  {
   "alignment" : 4,
   "fields" :
   [
    {
     "field_name" : "vd_version",
     "referenced_type" : "_ZTIt"
    },
    {
     "field_name" : "vd_flags",
     "field_offset" : 16,
     "referenced_type" : "_ZTIt"
    },
    {
     "field_name" : "vd_ndx",
     "field_offset" : 32,
     "referenced_type" : "_ZTIt"
    },
    {
     "field_name" : "vd_cnt",
     "field_offset" : 48,
     "referenced_type" : "_ZTIt"
    },
    {
     "field_name" : "vd_hash",
     "field_offset" : 64,
     "referenced_type" : "_ZTIj"
    },
    {
     "field_name" : "vd_aux",
     "field_offset" : 96,
     "referenced_type" : "_ZTIj"
    },
    {
     "field_name" : "vd_next",
     "field_offset" : 128,
     "referenced_type" : "_ZTIj"
    }
   ],
   "linker_set_key" : "_ZTI12Elf64_Verdef",
   "name" : "Elf64_Verdef",
   "referenced_type" : "_ZTI12Elf64_Verdef",
   "self_type" : "_ZTI12Elf64_Verdef",
   "size" : 20,
   "source_file" : "/bionic/libc/include/elf.h"
  },
  {
   "alignment" : 8,
   "fields" :
   [
    {
     "field_name" : "a_type",
     "referenced_type" : "_ZTIy"
    },
    {
     "field_name" : "a_un",
     "field_offset" : 64,
     "referenced_type" : "_ZTIN12Elf64_auxv_tUt_E"
    }
   ],
   "linker_set_key" : "_ZTI12Elf64_auxv_t",
   "name" : "Elf64_auxv_t",
   "referenced_type" : "_ZTI12Elf64_auxv_t",
   "self_type" : "_ZTI12Elf64_auxv_t",
   "size" : 16,
   "source_file" : "/bionic/libc/include/elf.h"
  },
  {
   "alignment" : 8,
   "fields" :
   [
    {
     "field_name" : "dlpi_addr",
     "referenced_type" : "_ZTIj"
    },
    {
     "field_name" : "dlpi_name",
     "field_offset" : 32,
     "referenced_type" : "_ZTIPKc"
    },
    {
     "field_name" : "dlpi_phdr",
     "field_offset" : 64,
     "referenced_type" : "_ZTIPK10elf32_phdr"
    },
    {
     "field_name" : "dlpi_phnum",
     "field_offset" : 96,
     "referenced_type" : "_ZTIt"
    },
    {
     "field_name" : "dlpi_adds",
     "field_offset" : 128,
     "referenced_type" : "_ZTIy"
    },
    {
     "field_name" : "dlpi_subs",
     "field_offset" : 192,
     "referenced_type" : "_ZTIy"
    },
    {
     "field_name" : "dlpi_tls_modid",
     "field_offset" : 256,
     "referenced_type" : "_ZTIj"
    },
    {
     "field_name" : "dlpi_tls_data",
     "field_offset" : 288,
     "referenced_type" : "_ZTIPv"
    }
   ],
   "linker_set_key" : "_ZTI12dl_phdr_info",
   "name" : "dl_phdr_info",
   "referenced_type" : "_ZTI12dl_phdr_info",
   "self_type" : "_ZTI12dl_phdr_info",
   "size" : 40,
   "source_file" : "/bionic/libc/include/link.h"
  },
  {
   "alignment" : 4,
   "fields" :
   [
    {
     "field_name" : "__hsearch",
     "referenced_type" : "_ZTIP9__hsearch"
    }
   ],
   "linker_set_key" : "_ZTI12hsearch_data",
   "name" : "hsearch_data",
   "referenced_type" : "_ZTI12hsearch_data",
   "self_type" : "_ZTI12hsearch_data",
   "size" : 4,
   "source_file" : "/bionic/libc/include/search.h"
  },
  {
   "alignment" : 4,
   "fields" :
   [
    {
     "field_name" : "if_index",
     "referenced_type" : "_ZTIj"
    },
    {
     "field_name" : "if_name",
     "field_offset" : 32,
     "referenced_type" : "_ZTIPc"
    }
   ],
   "linker_set_key" : "_ZTI12if_nameindex",
   "name" : "if_nameindex",
   "referenced_type" : "_ZTI12if_nameindex",
   "self_type" : "_ZTI12if_nameindex",
   "size" : 8,
   "source_file" : "/bionic/libc/include/net/if.h"
  },
  {
   "alignment" : 4,
   "fields" :
   [
    {
     "field_name" : "fpexc",
     "referenced_type" : "_ZTIm"
    },
    {
     "field_name" : "fpinst",
     "field_offset" : 32,
     "referenced_type" : "_ZTIm"
    },
    {
     "field_name" : "fpinst2",
     "field_offset" : 64,
     "referenced_type" : "_ZTIm"
    }
   ],
   "linker_set_key" : "_ZTI12user_vfp_exc",
   "name" : "user_vfp_exc",
   "referenced_type" : "_ZTI12user_vfp_exc",
   "self_type" : "_ZTI12user_vfp_exc",
   "size" : 12,
   "source_file" : "/bionic/libc/include/sys/user.h"
  },
  {
   "alignment" : 4,
   "base_specifiers" :
   [
    {
     "referenced_type" : "_ZTI8Contexts"
    }
   ],
   "fields" :
   [
    {
     "access" : "private",
     "field_name" : "prefixes_",
     "field_offset" : 32,
     "referenced_type" : "_ZTIP10PrefixNode"
    },
    {
     "access" : "private",
     "field_name" : "contexts_",
     "field_offset" : 64,
     "referenced_type" : "_ZTIP15ContextListNode"
    },
    {
     "access" : "private",
     "field_name" : "serial_prop_area_",
     "field_offset" : 96,
     "referenced_type" : "_ZTIP9prop_area"
    },
    {
     "access" : "private",
     "field_name" : "filename_",
     "field_offset" : 128,
     "referenced_type" : "_ZTIPKc"
    }
   ],
   "linker_set_key" : "_ZTI13ContextsSplit",
   "name" : "ContextsSplit",
   "record_kind" : "class",
   "referenced_type" : "_ZTI13ContextsSplit",
   "self_type" : "_ZTI13ContextsSplit",
   "size" : 20,
   "source_file" : "/bionic/libc/system_properties/include/system_properties/contexts_split.h",
   "vtable_components" :
   [
    {
     "kind" : "offset_to_top"
    },
    {
     "kind" : "rtti",
     "mangled_component_name" : "_ZTI13ContextsSplit"
    },
    {
     "kind" : "complete_dtor_pointer",
     "mangled_component_name" : "_ZN13ContextsSplitD1Ev"
    },
    {
     "kind" : "deleting_dtor_pointer",
     "mangled_component_name" : "_ZN13ContextsSplitD0Ev"
    },
    {
     "mangled_component_name" : "_ZN13ContextsSplit10InitializeEbPKcPb"
    },
    {
     "mangled_component_name" : "_ZN13ContextsSplit18GetPropAreaForNameEPKc"
    },
    {
     "mangled_component_name" : "_ZN13ContextsSplit17GetSerialPropAreaEv"
    },
    {
     "mangled_component_name" : "_ZN13ContextsSplit7ForEachEPFvPK9prop_infoPvES3_"
    },
    {
     "mangled_component_name" : "_ZN13ContextsSplit11ResetAccessEv"
    },
    {
     "mangled_component_name" : "_ZN13ContextsSplit12FreeAndUnmapEv"
    }
   ]
  },
  {
   "alignment" : 2,
   "fields" :
   [
    {
     "field_name" : "si_boundto",
     "referenced_type" : "_ZTIt"
    },
    {
     "field_name" : "si_flags",
     "field_offset" : 16,
     "referenced_type" : "_ZTIt"
    }
   ],
   "linker_set_key" : "_ZTI13Elf32_Syminfo",
   "name" : "Elf32_Syminfo",
   "referenced_type" : "_ZTI13Elf32_Syminfo",
   "self_type" : "_ZTI13Elf32_Syminfo",
   "size" : 4,
   "source_file" : "/bionic/libc/include/elf.h"
  },
  {
   "alignment" : 4,
   "fields" :
   [
    {
     "field_name" : "vda_name",
     "referenced_type" : "_ZTIj"
    },
    {
     "field_name" : "vda_next",
     "field_offset" : 32,
     "referenced_type" : "_ZTIj"
    }
   ],
   "linker_set_key" : "_ZTI13Elf32_Verdaux",
   "name" : "Elf32_Verdaux",
   "referenced_type" : "_ZTI13Elf32_Verdaux",
   "self_type" : "_ZTI13Elf32_Verdaux",
   "size" : 8,
   "source_file" : "/bionic/libc/include/elf.h"
  },
  {
   "alignment" : 4,
   "fields" :
   [
    {
     "field_name" : "vna_hash",
     "referenced_type" : "_ZTIj"
    },
    {
     "field_name" : "vna_flags",
     "field_offset" : 32,
     "referenced_type" : "_ZTIt"
    },
    {
     "field_name" : "vna_other",
     "field_offset" : 48,
     "referenced_type" : "_ZTIt"
    },
    {
     "field_name" : "vna_name",
     "field_offset" : 64,
     "referenced_type" : "_ZTIj"
    },
    {
     "field_name" : "vna_next",
     "field_offset" : 96,
     "referenced_type" : "_ZTIj"
    }
   ],
   "linker_set_key" : "_ZTI13Elf32_Vernaux",
   "name" : "Elf32_Vernaux",
   "referenced_type" : "_ZTI13Elf32_Vernaux",
   "self_type" : "_ZTI13Elf32_Vernaux",
   "size" : 16,
   "source_file" : "/bionic/libc/include/elf.h"
  },
  {
   "alignment" : 4,
   "fields" :
   [
    {
     "field_name" : "vn_version",
     "referenced_type" : "_ZTIt"
    },
    {
     "field_name" : "vn_cnt",
     "field_offset" : 16,
     "referenced_type" : "_ZTIt"
    },
    {
     "field_name" : "vn_file",
     "field_offset" : 32,
     "referenced_type" : "_ZTIj"
    },
    {
     "field_name" : "vn_aux",
     "field_offset" : 64,
     "referenced_type" : "_ZTIj"
    },
    {
     "field_name" : "vn_next",
     "field_offset" : 96,
     "referenced_type" : "_ZTIj"
    }
   ],
   "linker_set_key" : "_ZTI13Elf32_Verneed",
   "name" : "Elf32_Verneed",
   "referenced_type" : "_ZTI13Elf32_Verneed",
   "self_type" : "_ZTI13Elf32_Verneed",
   "size" : 16,
   "source_file" : "/bionic/libc/include/elf.h"
  },
  {
   "alignment" : 2,
   "fields" :
   [
    {
     "field_name" : "si_boundto",
     "referenced_type" : "_ZTIt"
    },
    {
     "field_name" : "si_flags",
     "field_offset" : 16,
     "referenced_type" : "_ZTIt"
    }
   ],
   "linker_set_key" : "_ZTI13Elf64_Syminfo",
   "name" : "Elf64_Syminfo",
   "referenced_type" : "_ZTI13Elf64_Syminfo",
   "self_type" : "_ZTI13Elf64_Syminfo",
   "size" : 4,
   "source_file" : "/bionic/libc/include/elf.h"
  },
  {
   "alignment" : 4,
   "fields" :
   [
    {
     "field_name" : "vda_name",
     "referenced_type" : "_ZTIj"
    },
    {
     "field_name" : "vda_next",
     "field_offset" : 32,
     "referenced_type" : "_ZTIj"
    }
   ],
   "linker_set_key" : "_ZTI13Elf64_Verdaux",
   "name" : "Elf64_Verdaux",
   "referenced_type" : "_ZTI13Elf64_Verdaux",
   "self_type" : "_ZTI13Elf64_Verdaux",
   "size" : 8,
   "source_file" : "/bionic/libc/include/elf.h"
  },
  {
   "alignment" : 4,
   "fields" :
   [
    {
     "field_name" : "vna_hash",
     "referenced_type" : "_ZTIj"
    },
    {
     "field_name" : "vna_flags",
     "field_offset" : 32,
     "referenced_type" : "_ZTIt"
    },
    {
     "field_name" : "vna_other",
     "field_offset" : 48,
     "referenced_type" : "_ZTIt"
    },
    {
     "field_name" : "vna_name",
     "field_offset" : 64,
     "referenced_type" : "_ZTIj"
    },
    {
     "field_name" : "vna_next",
     "field_offset" : 96,
     "referenced_type" : "_ZTIj"
    }
   ],
   "linker_set_key" : "_ZTI13Elf64_Vernaux",
   "name" : "Elf64_Vernaux",
   "referenced_type" : "_ZTI13Elf64_Vernaux",
   "self_type" : "_ZTI13Elf64_Vernaux",
   "size" : 16,
   "source_file" : "/bionic/libc/include/elf.h"
  },
  {
   "alignment" : 4,
   "fields" :
   [
    {
     "field_name" : "vn_version",
     "referenced_type" : "_ZTIt"
    },
    {
     "field_name" : "vn_cnt",
     "field_offset" : 16,
     "referenced_type" : "_ZTIt"
    },
    {
     "field_name" : "vn_file",
     "field_offset" : 32,
     "referenced_type" : "_ZTIj"
    },
    {
     "field_name" : "vn_aux",
     "field_offset" : 64,
     "referenced_type" : "_ZTIj"
    },
    {
     "field_name" : "vn_next",
     "field_offset" : 96,
     "referenced_type" : "_ZTIj"
    }
   ],
   "linker_set_key" : "_ZTI13Elf64_Verneed",
   "name" : "Elf64_Verneed",
   "referenced_type" : "_ZTI13Elf64_Verneed",
   "self_type" : "_ZTI13Elf64_Verneed",
   "size" : 16,
   "source_file" : "/bionic/libc/include/elf.h"
  },
  {
   "alignment" : 4,
   "fields" :
   [
    {
     "field_name" : "imr_multiaddr",
     "referenced_type" : "_ZTI7in_addr"
    },
    {
     "field_name" : "imr_interface",
     "field_offset" : 32,
     "referenced_type" : "_ZTI7in_addr"
    },
    {
     "field_name" : "imr_sourceaddr",
     "field_offset" : 64,
     "referenced_type" : "_ZTI7in_addr"
    }
   ],
   "linker_set_key" : "_ZTI14ip_mreq_source",
   "name" : "ip_mreq_source",
   "referenced_type" : "_ZTI14ip_mreq_source",
   "self_type" : "_ZTI14ip_mreq_source",
   "size" : 12,
   "source_file" : "/bionic/libc/include/bits/ip_mreq_source.h"
  },
  {
   "alignment" : 4,
   "fields" :
   [
    {
     "field_name" : "flags",
     "referenced_type" : "_ZTIj"
    },
    {
     "field_name" : "stack_base",
     "field_offset" : 32,
     "referenced_type" : "_ZTIPv"
    },
    {
     "field_name" : "stack_size",
     "field_offset" : 64,
     "referenced_type" : "_ZTIj"
    },
    {
     "field_name" : "guard_size",
     "field_offset" : 96,
     "referenced_type" : "_ZTIj"
    },
    {
     "field_name" : "sched_policy",
     "field_offset" : 128,
     "referenced_type" : "_ZTIi"
    },
    {
     "field_name" : "sched_priority",
     "field_offset" : 160,
     "referenced_type" : "_ZTIi"
    }
   ],
   "linker_set_key" : "_ZTI14pthread_attr_t",
   "name" : "pthread_attr_t",
   "referenced_type" : "_ZTI14pthread_attr_t",
   "self_type" : "_ZTI14pthread_attr_t",
   "size" : 24,
   "source_file" : "/bionic/libc/include/bits/pthread_types.h"
  },
  {
   "alignment" : 4,
   "fields" :
   [
    {
     "field_name" : "__private",
     "referenced_type" : "_ZTIA1_i"
    }
   ],
   "linker_set_key" : "_ZTI14pthread_cond_t",
   "name" : "pthread_cond_t",
   "referenced_type" : "_ZTI14pthread_cond_t",
   "self_type" : "_ZTI14pthread_cond_t",
   "size" : 4,
   "source_file" : "/bionic/libc/include/bits/pthread_types.h"
  },
  {
   "alignment" : 4,
   "fields" :
   [
    {
     "field_name" : "__private",
     "referenced_type" : "_ZTIA1_i"
    }
   ],
   "linker_set_key" : "_ZTI15pthread_mutex_t",
   "name" : "pthread_mutex_t",
   "referenced_type" : "_ZTI15pthread_mutex_t",
   "self_type" : "_ZTI15pthread_mutex_t",
   "size" : 4,
   "source_file" : "/bionic/libc/include/bits/pthread_types.h"
  },
  {
   "alignment" : 4,
   "base_specifiers" :
   [
    {
     "referenced_type" : "_ZTI8Contexts"
    }
   ],
   "fields" :
   [
    {
     "access" : "private",
     "field_name" : "pre_split_prop_area_",
     "field_offset" : 32,
     "referenced_type" : "_ZTIP9prop_area"
    }
   ],
   "linker_set_key" : "_ZTI16ContextsPreSplit",
   "name" : "ContextsPreSplit",
   "record_kind" : "class",
   "referenced_type" : "_ZTI16ContextsPreSplit",
   "self_type" : "_ZTI16ContextsPreSplit",
   "size" : 8,
   "source_file" : "/bionic/libc/system_properties/include/system_properties/contexts_pre_split.h",
   "vtable_components" :
   [
    {
     "kind" : "offset_to_top"
    },
    {
     "kind" : "rtti",
     "mangled_component_name" : "_ZTI16ContextsPreSplit"
    },
    {
     "kind" : "complete_dtor_pointer",
     "mangled_component_name" : "_ZN16ContextsPreSplitD1Ev"
    },
    {
     "kind" : "deleting_dtor_pointer",
     "mangled_component_name" : "_ZN16ContextsPreSplitD0Ev"
    },
    {
     "mangled_component_name" : "_ZN16ContextsPreSplit10InitializeEbPKcPb"
    },
    {
     "mangled_component_name" : "_ZN16ContextsPreSplit18GetPropAreaForNameEPKc"
    },
    {
     "mangled_component_name" : "_ZN16ContextsPreSplit17GetSerialPropAreaEv"
    },
    {
     "mangled_component_name" : "_ZN16ContextsPreSplit7ForEachEPFvPK9prop_infoPvES3_"
    },
    {
     "mangled_component_name" : "_ZN16ContextsPreSplit11ResetAccessEv"
    },
    {
     "mangled_component_name" : "_ZN16ContextsPreSplit12FreeAndUnmapEv"
    }
   ]
  },
  {
   "alignment" : 4,
   "fields" :
   [
    {
     "access" : "private",
     "field_name" : "contexts_data_",
     "referenced_type" : "_ZTIA32_c"
    },
    {
     "access" : "private",
     "field_name" : "contexts_",
     "field_offset" : 256,
     "referenced_type" : "_ZTIP8Contexts"
    },
    {
     "access" : "private",
     "field_name" : "initialized_",
     "field_offset" : 288,
     "referenced_type" : "_ZTIb"
    },
    {
     "access" : "private",
     "field_name" : "property_filename_",
     "field_offset" : 296,
     "referenced_type" : "_ZTIA1024_c"
    }
   ],
   "linker_set_key" : "_ZTI16SystemProperties",
   "name" : "SystemProperties",
   "record_kind" : "class",
   "referenced_type" : "_ZTI16SystemProperties",
   "self_type" : "_ZTI16SystemProperties",
   "size" : 1064,
   "source_file" : "/bionic/libc/system_properties/include/system_properties/system_properties.h"
  },
  {
   "alignment" : 4,
   "fields" :
   [
    {
     "field_name" : "__private",
     "referenced_type" : "_ZTIA10_i"
    }
   ],
   "linker_set_key" : "_ZTI16pthread_rwlock_t",
   "name" : "pthread_rwlock_t",
   "referenced_type" : "_ZTI16pthread_rwlock_t",
   "self_type" : "_ZTI16pthread_rwlock_t",
   "size" : 40,
   "source_file" : "/bionic/libc/include/bits/pthread_types.h"
  },
  {
   "alignment" : 8,
   "fields" :
   [
    {
     "field_name" : "flags",
     "referenced_type" : "_ZTIy"
    },
    {
     "field_name" : "reserved_addr",
     "field_offset" : 64,
     "referenced_type" : "_ZTIPv"
    },
    {
     "field_name" : "reserved_size",
     "field_offset" : 96,
     "referenced_type" : "_ZTIj"
    },
    {
     "field_name" : "relro_fd",
     "field_offset" : 128,
     "referenced_type" : "_ZTIi"
    },
    {
     "field_name" : "library_fd",
     "field_offset" : 160,
     "referenced_type" : "_ZTIi"
    },
    {
     "field_name" : "library_fd_offset",
     "field_offset" : 192,
     "referenced_type" : "_ZTIx"
    },
    {
     "field_name" : "library_namespace",
     "field_offset" : 256,
     "referenced_type" : "_ZTIP19android_namespace_t"
    }
   ],
   "linker_set_key" : "_ZTI17android_dlextinfo",
   "name" : "android_dlextinfo",
   "referenced_type" : "_ZTI17android_dlextinfo",
   "self_type" : "_ZTI17android_dlextinfo",
   "size" : 40,
   "source_file" : "/bionic/libc/include/android/dlext.h"
  },
  {
   "alignment" : 4,
   "fields" :
   [
    {
     "field_name" : "counter",
     "referenced_type" : "_ZTIi"
    },
    {
     "field_name" : "key",
     "field_offset" : 32,
     "referenced_type" : "_ZTIP7dst_key"
    },
    {
     "field_name" : "ctx",
     "field_offset" : 64,
     "referenced_type" : "_ZTIPv"
    },
    {
     "field_name" : "sig",
     "field_offset" : 96,
     "referenced_type" : "_ZTIA512_h"
    },
    {
     "field_name" : "siglen",
     "field_offset" : 4192,
     "referenced_type" : "_ZTIi"
    }
   ],
   "linker_set_key" : "_ZTI17ns_tcp_tsig_state",
   "name" : "ns_tcp_tsig_state",
   "referenced_type" : "_ZTI17ns_tcp_tsig_state",
   "self_type" : "_ZTI17ns_tcp_tsig_state",
   "size" : 528,
   "source_file" : "/bionic/libc/include/arpa/nameser.h"
  },
  {
   "alignment" : 4,
   "fields" :
   [
    {
     "field_name" : "__private",
     "referenced_type" : "_ZTIA8_i"
    }
   ],
   "linker_set_key" : "_ZTI17pthread_barrier_t",
   "name" : "pthread_barrier_t",
   "referenced_type" : "_ZTI17pthread_barrier_t",
   "self_type" : "_ZTI17pthread_barrier_t",
   "size" : 32,
   "source_file" : "/bionic/libc/include/bits/pthread_types.h"
  },
  {
   "alignment" : 4,
   "base_specifiers" :
   [
    {
     "referenced_type" : "_ZTI8Contexts"
    }
   ],
   "fields" :
   [
    {
     "access" : "private",
     "field_name" : "filename_",
     "field_offset" : 32,
     "referenced_type" : "_ZTIPKc"
    },
    {
     "access" : "private",
     "field_name" : "property_info_area_file_",
     "field_offset" : 64,
     "referenced_type" : "_ZTIN7android10properties20PropertyInfoAreaFileE"
    },
    {
     "access" : "private",
     "field_name" : "context_nodes_",
     "field_offset" : 128,
     "referenced_type" : "_ZTIP11ContextNode"
    },
    {
     "access" : "private",
     "field_name" : "num_context_nodes_",
     "field_offset" : 160,
     "referenced_type" : "_ZTIj"
    },
    {
     "access" : "private",
     "field_name" : "context_nodes_mmap_size_",
     "field_offset" : 192,
     "referenced_type" : "_ZTIj"
    },
    {
     "access" : "private",
     "field_name" : "serial_prop_area_",
     "field_offset" : 224,
     "referenced_type" : "_ZTIP9prop_area"
    }
   ],
   "linker_set_key" : "_ZTI18ContextsSerialized",
   "name" : "ContextsSerialized",
   "record_kind" : "class",
   "referenced_type" : "_ZTI18ContextsSerialized",
   "self_type" : "_ZTI18ContextsSerialized",
   "size" : 32,
   "source_file" : "/bionic/libc/system_properties/include/system_properties/contexts_serialized.h",
   "vtable_components" :
   [
    {
     "kind" : "offset_to_top"
    },
    {
     "kind" : "rtti",
     "mangled_component_name" : "_ZTI18ContextsSerialized"
    },
    {
     "kind" : "complete_dtor_pointer",
     "mangled_component_name" : "_ZN18ContextsSerializedD1Ev"
    },
    {
     "kind" : "deleting_dtor_pointer",
     "mangled_component_name" : "_ZN18ContextsSerializedD0Ev"
    },
    {
     "mangled_component_name" : "_ZN18ContextsSerialized10InitializeEbPKcPb"
    },
    {
     "mangled_component_name" : "_ZN18ContextsSerialized18GetPropAreaForNameEPKc"
    },
    {
     "mangled_component_name" : "_ZN18ContextsSerialized17GetSerialPropAreaEv"
    },
    {
     "mangled_component_name" : "_ZN18ContextsSerialized7ForEachEPFvPK9prop_infoPvES3_"
    },
    {
     "mangled_component_name" : "_ZN18ContextsSerialized11ResetAccessEv"
    },
    {
     "mangled_component_name" : "_ZN18ContextsSerialized12FreeAndUnmapEv"
    }
   ]
  },
  {
   "alignment" : 4,
   "fields" :
   [
    {
     "field_name" : "__private",
     "referenced_type" : "_ZTIA2_i"
    }
   ],
   "linker_set_key" : "_ZTI18pthread_spinlock_t",
   "name" : "pthread_spinlock_t",
   "referenced_type" : "_ZTI18pthread_spinlock_t",
   "self_type" : "_ZTI18pthread_spinlock_t",
   "size" : 8,
   "source_file" : "/bionic/libc/include/bits/pthread_types.h"
  },
  {
   "alignment" : 4,
   "fields" :
   [
    {
     "field_name" : "__cleanup_prev",
     "referenced_type" : "_ZTIP19__pthread_cleanup_t"
    },
    {
     "field_name" : "__cleanup_routine",
     "field_offset" : 32,
     "referenced_type" : "_ZTIPFvPvE"
    },
    {
     "field_name" : "__cleanup_arg",
     "field_offset" : 64,
     "referenced_type" : "_ZTIPv"
    }
   ],
   "linker_set_key" : "_ZTI19__pthread_cleanup_t",
   "name" : "__pthread_cleanup_t",
   "referenced_type" : "_ZTI19__pthread_cleanup_t",
   "self_type" : "_ZTI19__pthread_cleanup_t",
   "size" : 12,
   "source_file" : "/bionic/libc/include/pthread.h"
  },
  {
   "alignment" : 4,
   "fields" :
   [
    {
     "field_name" : "tm_sec",
     "referenced_type" : "_ZTIi"
    },
    {
     "field_name" : "tm_min",
     "field_offset" : 32,
     "referenced_type" : "_ZTIi"
    },
    {
     "field_name" : "tm_hour",
     "field_offset" : 64,
     "referenced_type" : "_ZTIi"
    },
    {
     "field_name" : "tm_mday",
     "field_offset" : 96,
     "referenced_type" : "_ZTIi"
    },
    {
     "field_name" : "tm_mon",
     "field_offset" : 128,
     "referenced_type" : "_ZTIi"
    },
    {
     "field_name" : "tm_year",
     "field_offset" : 160,
     "referenced_type" : "_ZTIi"
    },
    {
     "field_name" : "tm_wday",
     "field_offset" : 192,
     "referenced_type" : "_ZTIi"
    },
    {
     "field_name" : "tm_yday",
     "field_offset" : 224,
     "referenced_type" : "_ZTIi"
    },
    {
     "field_name" : "tm_isdst",
     "field_offset" : 256,
     "referenced_type" : "_ZTIi"
    },
    {
     "field_name" : "tm_gmtoff",
     "field_offset" : 288,
     "referenced_type" : "_ZTIl"
    },
    {
     "field_name" : "tm_zone",
     "field_offset" : 320,
     "referenced_type" : "_ZTIPKc"
    }
   ],
   "linker_set_key" : "_ZTI2tm",
   "name" : "tm",
   "referenced_type" : "_ZTI2tm",
   "self_type" : "_ZTI2tm",
   "size" : 44,
   "source_file" : "/bionic/libc/include/time.h"
  },
  {
   "alignment" : 8,
   "fields" :
   [
    {
     "field_name" : "st_dev",
     "referenced_type" : "_ZTIy"
    },
    {
     "field_name" : "__pad0",
     "field_offset" : 64,
     "referenced_type" : "_ZTIA4_h"
    },
    {
     "field_name" : "__st_ino",
     "field_offset" : 96,
     "referenced_type" : "_ZTIm"
    },
    {
     "field_name" : "st_mode",
     "field_offset" : 128,
     "referenced_type" : "_ZTIj"
    },
    {
     "field_name" : "st_nlink",
     "field_offset" : 160,
     "referenced_type" : "_ZTIj"
    },
    {
     "field_name" : "st_uid",
     "field_offset" : 192,
     "referenced_type" : "_ZTIj"
    },
    {
     "field_name" : "st_gid",
     "field_offset" : 224,
     "referenced_type" : "_ZTIj"
    },
    {
     "field_name" : "st_rdev",
     "field_offset" : 256,
     "referenced_type" : "_ZTIy"
    },
    {
     "field_name" : "__pad3",
     "field_offset" : 320,
     "referenced_type" : "_ZTIA4_h"
    },
    {
     "field_name" : "st_size",
     "field_offset" : 384,
     "referenced_type" : "_ZTIx"
    },
    {
     "field_name" : "st_blksize",
     "field_offset" : 448,
     "referenced_type" : "_ZTIm"
    },
    {
     "field_name" : "st_blocks",
     "field_offset" : 512,
     "referenced_type" : "_ZTIy"
    },
    {
     "field_name" : "st_atim",
     "field_offset" : 576,
     "referenced_type" : "_ZTI8timespec"
    },
    {
     "field_name" : "st_mtim",
     "field_offset" : 640,
     "referenced_type" : "_ZTI8timespec"
    },
    {
     "field_name" : "st_ctim",
     "field_offset" : 704,
     "referenced_type" : "_ZTI8timespec"
    },
    {
     "field_name" : "st_ino",
     "field_offset" : 768,
     "referenced_type" : "_ZTIy"
    }
   ],
   "linker_set_key" : "_ZTI4stat",
   "name" : "stat",
   "referenced_type" : "_ZTI4stat",
   "self_type" : "_ZTI4stat",
   "size" : 104,
   "source_file" : "/bionic/libc/include/sys/stat.h"
  },
  {
   "alignment" : 4,
   "fields" :
   [
    {
     "field_name" : "regs",
     "referenced_type" : "_ZTI9user_regs"
    },
    {
     "field_name" : "u_fpvalid",
     "field_offset" : 576,
     "referenced_type" : "_ZTIi"
    },
    {
     "field_name" : "u_tsize",
     "field_offset" : 608,
     "referenced_type" : "_ZTIm"
    },
    {
     "field_name" : "u_dsize",
     "field_offset" : 640,
     "referenced_type" : "_ZTIm"
    },
    {
     "field_name" : "u_ssize",
     "field_offset" : 672,
     "referenced_type" : "_ZTIm"
    },
    {
     "field_name" : "start_code",
     "field_offset" : 704,
     "referenced_type" : "_ZTIm"
    },
    {
     "field_name" : "start_stack",
     "field_offset" : 736,
     "referenced_type" : "_ZTIm"
    },
    {
     "field_name" : "signal",
     "field_offset" : 768,
     "referenced_type" : "_ZTIl"
    },
    {
     "field_name" : "reserved",
     "field_offset" : 800,
     "referenced_type" : "_ZTIi"
    },
    {
     "field_name" : "u_ar0",
     "field_offset" : 832,
     "referenced_type" : "_ZTIP9user_regs"
    },
    {
     "field_name" : "magic",
     "field_offset" : 864,
     "referenced_type" : "_ZTIm"
    },
    {
     "field_name" : "u_comm",
     "field_offset" : 896,
     "referenced_type" : "_ZTIA32_c"
    },
    {
     "field_name" : "u_debugreg",
     "field_offset" : 1152,
     "referenced_type" : "_ZTIA8_i"
    },
    {
     "field_name" : "u_fp",
     "field_offset" : 1408,
     "referenced_type" : "_ZTI11user_fpregs"
    },
    {
     "field_name" : "u_fp0",
     "field_offset" : 2336,
     "referenced_type" : "_ZTIP11user_fpregs"
    }
   ],
   "linker_set_key" : "_ZTI4user",
   "name" : "user",
   "referenced_type" : "_ZTI4user",
   "self_type" : "_ZTI4user",
   "size" : 296,
   "source_file" : "/bionic/libc/include/sys/user.h"
  },
  {
   "alignment" : 4,
   "fields" :
   [
    {
     "field_name" : "ut_type",
     "referenced_type" : "_ZTIs"
    },
    {
     "field_name" : "ut_pid",
     "field_offset" : 32,
     "referenced_type" : "_ZTIi"
    },
    {
     "field_name" : "ut_line",
     "field_offset" : 64,
     "referenced_type" : "_ZTIA8_c"
    },
    {
     "field_name" : "ut_id",
     "field_offset" : 128,
     "referenced_type" : "_ZTIA4_c"
    },
    {
     "field_name" : "ut_user",
     "field_offset" : 160,
     "referenced_type" : "_ZTIA8_c"
    },
    {
     "field_name" : "ut_host",
     "field_offset" : 224,
     "referenced_type" : "_ZTIA16_c"
    },
    {
     "field_name" : "ut_exit",
     "field_offset" : 352,
     "referenced_type" : "_ZTI11exit_status"
    },
    {
     "field_name" : "ut_session",
     "field_offset" : 384,
     "referenced_type" : "_ZTIl"
    },
    {
     "field_name" : "ut_tv",
     "field_offset" : 416,
     "referenced_type" : "_ZTI7timeval"
    },
    {
     "field_name" : "ut_addr_v6",
     "field_offset" : 480,
     "referenced_type" : "_ZTIA4_i"
    },
    {
     "field_name" : "unsed",
     "field_offset" : 608,
     "referenced_type" : "_ZTIA20_c"
    }
   ],
   "linker_set_key" : "_ZTI4utmp",
   "name" : "utmp",
   "referenced_type" : "_ZTI4utmp",
   "self_type" : "_ZTI4utmp",
   "size" : 96,
   "source_file" : "/bionic/libc/include/utmp.h"
  },
  {
   "alignment" : 4,
   "fields" :
   [
    {
     "field_name" : "quot",
     "referenced_type" : "_ZTIi"
    },
    {
     "field_name" : "rem",
     "field_offset" : 32,
     "referenced_type" : "_ZTIi"
    }
   ],
   "linker_set_key" : "_ZTI5div_t",
   "name" : "div_t",
   "referenced_type" : "_ZTI5div_t",
   "self_type" : "_ZTI5div_t",
   "size" : 8,
   "source_file" : "/bionic/libc/include/stdlib.h"
  },
  {
   "alignment" : 4,
   "fields" :
   [
    {
     "field_name" : "key",
     "referenced_type" : "_ZTIPc"
    },
    {
     "field_name" : "data",
     "field_offset" : 32,
     "referenced_type" : "_ZTIPv"
    }
   ],
   "linker_set_key" : "_ZTI5entry",
   "name" : "entry",
   "referenced_type" : "_ZTI5entry",
   "self_type" : "_ZTI5entry",
   "size" : 8,
   "source_file" : "/bionic/libc/include/search.h"
  },
  {
   "alignment" : 4,
   "fields" :
   [
    {
     "field_name" : "l_type",
     "referenced_type" : "_ZTIs"
    },
    {
     "field_name" : "l_whence",
     "field_offset" : 16,
     "referenced_type" : "_ZTIs"
    },
    {
     "field_name" : "l_start",
     "field_offset" : 32,
     "referenced_type" : "_ZTIl"
    },
    {
     "field_name" : "l_len",
     "field_offset" : 64,
     "referenced_type" : "_ZTIl"
    },
    {
     "field_name" : "l_pid",
     "field_offset" : 96,
     "referenced_type" : "_ZTIi"
    }
   ],
   "linker_set_key" : "_ZTI5flock",
   "name" : "flock",
   "referenced_type" : "_ZTI5flock",
   "self_type" : "_ZTI5flock",
   "size" : 16,
   "source_file" : "/bionic/libc/include/bits/flock.h"
  },
  {
   "alignment" : 4,
   "fields" :
   [
    {
     "field_name" : "gr_name",
     "referenced_type" : "_ZTIPc"
    },
    {
     "field_name" : "gr_passwd",
     "field_offset" : 32,
     "referenced_type" : "_ZTIPc"
    },
    {
     "field_name" : "gr_gid",
     "field_offset" : 64,
     "referenced_type" : "_ZTIj"
    },
    {
     "field_name" : "gr_mem",
     "field_offset" : 96,
     "referenced_type" : "_ZTIPPc"
    }
   ],
   "linker_set_key" : "_ZTI5group",
   "name" : "group",
   "referenced_type" : "_ZTI5group",
   "self_type" : "_ZTI5group",
   "size" : 16,
   "source_file" : "/bionic/libc/include/grp.h"
  },
  {
   "alignment" : 4,
   "fields" :
   [
    {
     "field_name" : "decimal_point",
     "referenced_type" : "_ZTIPc"
    },
    {
     "field_name" : "thousands_sep",
     "field_offset" : 32,
     "referenced_type" : "_ZTIPc"
    },
    {
     "field_name" : "grouping",
     "field_offset" : 64,
     "referenced_type" : "_ZTIPc"
    },
    {
     "field_name" : "int_curr_symbol",
     "field_offset" : 96,
     "referenced_type" : "_ZTIPc"
    },
    {
     "field_name" : "currency_symbol",
     "field_offset" : 128,
     "referenced_type" : "_ZTIPc"
    },
    {
     "field_name" : "mon_decimal_point",
     "field_offset" : 160,
     "referenced_type" : "_ZTIPc"
    },
    {
     "field_name" : "mon_thousands_sep",
     "field_offset" : 192,
     "referenced_type" : "_ZTIPc"
    },
    {
     "field_name" : "mon_grouping",
     "field_offset" : 224,
     "referenced_type" : "_ZTIPc"
    },
    {
     "field_name" : "positive_sign",
     "field_offset" : 256,
     "referenced_type" : "_ZTIPc"
    },
    {
     "field_name" : "negative_sign",
     "field_offset" : 288,
     "referenced_type" : "_ZTIPc"
    },
    {
     "field_name" : "int_frac_digits",
     "field_offset" : 320,
     "referenced_type" : "_ZTIc"
    },
    {
     "field_name" : "frac_digits",
     "field_offset" : 328,
     "referenced_type" : "_ZTIc"
    },
    {
     "field_name" : "p_cs_precedes",
     "field_offset" : 336,
     "referenced_type" : "_ZTIc"
    },
    {
     "field_name" : "p_sep_by_space",
     "field_offset" : 344,
     "referenced_type" : "_ZTIc"
    },
    {
     "field_name" : "n_cs_precedes",
     "field_offset" : 352,
     "referenced_type" : "_ZTIc"
    },
    {
     "field_name" : "n_sep_by_space",
     "field_offset" : 360,
     "referenced_type" : "_ZTIc"
    },
    {
     "field_name" : "p_sign_posn",
     "field_offset" : 368,
     "referenced_type" : "_ZTIc"
    },
    {
     "field_name" : "n_sign_posn",
     "field_offset" : 376,
     "referenced_type" : "_ZTIc"
    },
    {
     "field_name" : "int_p_cs_precedes",
     "field_offset" : 384,
     "referenced_type" : "_ZTIc"
    },
    {
     "field_name" : "int_p_sep_by_space",
     "field_offset" : 392,
     "referenced_type" : "_ZTIc"
    },
    {
     "field_name" : "int_n_cs_precedes",
     "field_offset" : 400,
     "referenced_type" : "_ZTIc"
    },
    {
     "field_name" : "int_n_sep_by_space",
     "field_offset" : 408,
     "referenced_type" : "_ZTIc"
    },
    {
     "field_name" : "int_p_sign_posn",
     "field_offset" : 416,
     "referenced_type" : "_ZTIc"
    },
    {
     "field_name" : "int_n_sign_posn",
     "field_offset" : 424,
     "referenced_type" : "_ZTIc"
    }
   ],
   "linker_set_key" : "_ZTI5lconv",
   "name" : "lconv",
   "referenced_type" : "_ZTI5lconv",
   "self_type" : "_ZTI5lconv",
   "size" : 56,
   "source_file" : "/bionic/libc/include/locale.h"
  },
  {
   "alignment" : 4,
   "fields" :
   [
    {
     "field_name" : "pid",
     "referenced_type" : "_ZTIi"
    },
    {
     "field_name" : "uid",
     "field_offset" : 32,
     "referenced_type" : "_ZTIj"
    },
    {
     "field_name" : "gid",
     "field_offset" : 64,
     "referenced_type" : "_ZTIj"
    }
   ],
   "linker_set_key" : "_ZTI5ucred",
   "name" : "ucred",
   "referenced_type" : "_ZTI5ucred",
   "self_type" : "_ZTI5ucred",
   "size" : 12,
   "source_file" : "/bionic/libc/include/sys/socket.h"
  },
  {
   "alignment" : 4,
   "fields" :
   [
    {
     "field_name" : "id",
     "referenced_type" : "_ZTIj"
    },
    {
     "field_name" : "rd",
     "field_offset" : 16,
     "referenced_type" : "_ZTIj"
    },
    {
     "field_name" : "tc",
     "field_offset" : 17,
     "referenced_type" : "_ZTIj"
    },
    {
     "field_name" : "aa",
     "field_offset" : 18,
     "referenced_type" : "_ZTIj"
    },
    {
     "field_name" : "opcode",
     "field_offset" : 19,
     "referenced_type" : "_ZTIj"
    },
    {
     "field_name" : "qr",
     "field_offset" : 23,
     "referenced_type" : "_ZTIj"
    },
    {
     "field_name" : "rcode",
     "field_offset" : 24,
     "referenced_type" : "_ZTIj"
    },
    {
     "field_name" : "cd",
     "field_offset" : 28,
     "referenced_type" : "_ZTIj"
    },
    {
     "field_name" : "ad",
     "field_offset" : 29,
     "referenced_type" : "_ZTIj"
    },
    {
     "field_name" : "unused",
     "field_offset" : 30,
     "referenced_type" : "_ZTIj"
    },
    {
     "field_name" : "ra",
     "field_offset" : 31,
     "referenced_type" : "_ZTIj"
    },
    {
     "field_name" : "qdcount",
     "field_offset" : 32,
     "referenced_type" : "_ZTIj"
    },
    {
     "field_name" : "ancount",
     "field_offset" : 48,
     "referenced_type" : "_ZTIj"
    },
    {
     "field_name" : "nscount",
     "field_offset" : 64,
     "referenced_type" : "_ZTIj"
    },
    {
     "field_name" : "arcount",
     "field_offset" : 80,
     "referenced_type" : "_ZTIj"
    }
   ],
   "linker_set_key" : "_ZTI6HEADER",
   "name" : "HEADER",
   "referenced_type" : "_ZTI6HEADER",
   "self_type" : "_ZTI6HEADER",
   "size" : 12,
   "source_file" : "/bionic/libc/include/arpa/nameser_compat.h"
  },
  {
   "alignment" : 8,
   "fields" :
   [
    {
     "field_name" : "d_ino",
     "referenced_type" : "_ZTIy"
    },
    {
     "field_name" : "d_off",
     "field_offset" : 64,
     "referenced_type" : "_ZTIx"
    },
    {
     "field_name" : "d_reclen",
     "field_offset" : 128,
     "referenced_type" : "_ZTIt"
    },
    {
     "field_name" : "d_type",
     "field_offset" : 144,
     "referenced_type" : "_ZTIh"
    },
    {
     "field_name" : "d_name",
     "field_offset" : 152,
     "referenced_type" : "_ZTIA256_c"
    }
   ],
   "linker_set_key" : "_ZTI6dirent",
   "name" : "dirent",
   "referenced_type" : "_ZTI6dirent",
   "self_type" : "_ZTI6dirent",
   "size" : 280,
   "source_file" : "/bionic/libc/include/dirent.h"
  },
  {
   "alignment" : 4,
   "fields" :
   [
    {
     "field_name" : "fds_bits",
     "referenced_type" : "_ZTIA32_m"
    }
   ],
   "linker_set_key" : "_ZTI6fd_set",
   "name" : "fd_set",
   "referenced_type" : "_ZTI6fd_set",
   "self_type" : "_ZTI6fd_set",
   "size" : 128,
   "source_file" : "/bionic/libc/include/sys/select.h"
  },
  {
   "alignment" : 4,
   "fields" :
   [
    {
     "field_name" : "sign1",
     "referenced_type" : "_ZTIj"
    },
    {
     "field_name" : "unused",
     "field_offset" : 1,
     "referenced_type" : "_ZTIj"
    },
    {
     "field_name" : "sign2",
     "field_offset" : 16,
     "referenced_type" : "_ZTIj"
    },
    {
     "field_name" : "exponent",
     "field_offset" : 17,
     "referenced_type" : "_ZTIj"
    },
    {
     "field_name" : "j",
     "field_offset" : 31,
     "referenced_type" : "_ZTIj"
    },
    {
     "field_name" : "mantissa1",
     "field_offset" : 32,
     "referenced_type" : "_ZTIj"
    },
    {
     "field_name" : "mantissa0",
     "field_offset" : 64,
     "referenced_type" : "_ZTIj"
    }
   ],
   "linker_set_key" : "_ZTI6fp_reg",
   "name" : "fp_reg",
   "referenced_type" : "_ZTI6fp_reg",
   "self_type" : "_ZTI6fp_reg",
   "size" : 12,
   "source_file" : "/bionic/libc/include/sys/user.h"
  },
  {
   "alignment" : 4,
   "fields" :
   [
    {
     "field_name" : "gl_pathc",
     "referenced_type" : "_ZTIj"
    },
    {
     "field_name" : "gl_matchc",
     "field_offset" : 32,
     "referenced_type" : "_ZTIj"
    },
    {
     "field_name" : "gl_offs",
     "field_offset" : 64,
     "referenced_type" : "_ZTIj"
    },
    {
     "field_name" : "gl_flags",
     "field_offset" : 96,
     "referenced_type" : "_ZTIi"
    },
    {
     "field_name" : "gl_pathv",
     "field_offset" : 128,
     "referenced_type" : "_ZTIPPc"
    },
    {
     "field_name" : "gl_errfunc",
     "field_offset" : 160,
     "referenced_type" : "_ZTIPFiPKciE"
    },
    {
     "field_name" : "gl_closedir",
     "field_offset" : 192,
     "referenced_type" : "_ZTIPFvPvE"
    },
    {
     "field_name" : "gl_readdir",
     "field_offset" : 224,
     "referenced_type" : "_ZTIPFP6direntPvE"
    },
    {
     "field_name" : "gl_opendir",
     "field_offset" : 256,
     "referenced_type" : "_ZTIPFPvPKcE"
    },
    {
     "field_name" : "gl_lstat",
     "field_offset" : 288,
     "referenced_type" : "_ZTIPFiPKcP4statE"
    },
    {
     "field_name" : "gl_stat",
     "field_offset" : 320,
     "referenced_type" : "_ZTIPFiPKcP4statE"
    }
   ],
   "linker_set_key" : "_ZTI6glob_t",
   "name" : "glob_t",
   "referenced_type" : "_ZTI6glob_t",
   "self_type" : "_ZTI6glob_t",
   "size" : 44,
   "source_file" : "/bionic/libc/include/glob.h"
  },
  {
   "alignment" : 4,
   "fields" :
   [
    {
     "field_name" : "quot",
     "referenced_type" : "_ZTIl"
    },
    {
     "field_name" : "rem",
     "field_offset" : 32,
     "referenced_type" : "_ZTIl"
    }
   ],
   "linker_set_key" : "_ZTI6ldiv_t",
   "name" : "ldiv_t",
   "referenced_type" : "_ZTI6ldiv_t",
   "self_type" : "_ZTI6ldiv_t",
   "size" : 8,
   "source_file" : "/bionic/libc/include/stdlib.h"
  },
  {
   "alignment" : 4,
   "fields" :
   [
    {
     "field_name" : "l_onoff",
     "referenced_type" : "_ZTIi"
    },
    {
     "field_name" : "l_linger",
     "field_offset" : 32,
     "referenced_type" : "_ZTIi"
    }
   ],
   "linker_set_key" : "_ZTI6linger",
   "name" : "linger",
   "referenced_type" : "_ZTI6linger",
   "self_type" : "_ZTI6linger",
   "size" : 8,
   "source_file" : "/bionic/libc/include/sys/socket.h"
  },
  {
   "alignment" : 4,
   "fields" :
   [
    {
     "field_name" : "mnt_fsname",
     "referenced_type" : "_ZTIPc"
    },
    {
     "field_name" : "mnt_dir",
     "field_offset" : 32,
     "referenced_type" : "_ZTIPc"
    },
    {
     "field_name" : "mnt_type",
     "field_offset" : 64,
     "referenced_type" : "_ZTIPc"
    },
    {
     "field_name" : "mnt_opts",
     "field_offset" : 96,
     "referenced_type" : "_ZTIPc"
    },
    {
     "field_name" : "mnt_freq",
     "field_offset" : 128,
     "referenced_type" : "_ZTIi"
    },
    {
     "field_name" : "mnt_passno",
     "field_offset" : 160,
     "referenced_type" : "_ZTIi"
    }
   ],
   "linker_set_key" : "_ZTI6mntent",
   "name" : "mntent",
   "referenced_type" : "_ZTI6mntent",
   "self_type" : "_ZTI6mntent",
   "size" : 24,
   "source_file" : "/bionic/libc/include/mntent.h"
  },
  {
   "alignment" : 4,
   "fields" :
   [
    {
     "field_name" : "msg_name",
     "referenced_type" : "_ZTIPv"
    },
    {
     "field_name" : "msg_namelen",
     "field_offset" : 32,
     "referenced_type" : "_ZTIi"
    },
    {
     "field_name" : "msg_iov",
     "field_offset" : 64,
     "referenced_type" : "_ZTIP5iovec"
    },
    {
     "field_name" : "msg_iovlen",
     "field_offset" : 96,
     "referenced_type" : "_ZTIj"
    },
    {
     "field_name" : "msg_control",
     "field_offset" : 128,
     "referenced_type" : "_ZTIPv"
    },
    {
     "field_name" : "msg_controllen",
     "field_offset" : 160,
     "referenced_type" : "_ZTIj"
    },
    {
     "field_name" : "msg_flags",
     "field_offset" : 192,
     "referenced_type" : "_ZTIi"
    }
   ],
   "linker_set_key" : "_ZTI6msghdr",
   "name" : "msghdr",
   "referenced_type" : "_ZTI6msghdr",
   "self_type" : "_ZTI6msghdr",
   "size" : 28,
   "source_file" : "/bionic/libc/include/sys/socket.h"
  },
  {
   "alignment" : 4,
   "fields" :
   [
    {
     "field_name" : "n_name",
     "referenced_type" : "_ZTIPc"
    },
    {
     "field_name" : "n_aliases",
     "field_offset" : 32,
     "referenced_type" : "_ZTIPPc"
    },
    {
     "field_name" : "n_addrtype",
     "field_offset" : 64,
     "referenced_type" : "_ZTIi"
    },
    {
     "field_name" : "n_net",
     "field_offset" : 96,
     "referenced_type" : "_ZTIj"
    }
   ],
   "linker_set_key" : "_ZTI6netent",
   "name" : "netent",
   "referenced_type" : "_ZTI6netent",
   "self_type" : "_ZTI6netent",
   "size" : 16,
   "source_file" : "/bionic/libc/include/netdb.h"
  },
  {
   "alignment" : 4,
   "fields" :
   [
    {
     "field_name" : "name",
     "referenced_type" : "_ZTIPKc"
    },
    {
     "field_name" : "has_arg",
     "field_offset" : 32,
     "referenced_type" : "_ZTIi"
    },
    {
     "field_name" : "flag",
     "field_offset" : 64,
     "referenced_type" : "_ZTIPi"
    },
    {
     "field_name" : "val",
     "field_offset" : 96,
     "referenced_type" : "_ZTIi"
    }
   ],
   "linker_set_key" : "_ZTI6option",
   "name" : "option",
   "referenced_type" : "_ZTI6option",
   "self_type" : "_ZTI6option",
   "size" : 16,
   "source_file" : "/bionic/libc/include/getopt.h"
  },
  {
   "alignment" : 4,
   "fields" :
   [
    {
     "field_name" : "pw_name",
     "referenced_type" : "_ZTIPc"
    },
    {
     "field_name" : "pw_passwd",
     "field_offset" : 32,
     "referenced_type" : "_ZTIPc"
    },
    {
     "field_name" : "pw_uid",
     "field_offset" : 64,
     "referenced_type" : "_ZTIj"
    },
    {
     "field_name" : "pw_gid",
     "field_offset" : 96,
     "referenced_type" : "_ZTIj"
    },
    {
     "field_name" : "pw_dir",
     "field_offset" : 128,
     "referenced_type" : "_ZTIPc"
    },
    {
     "field_name" : "pw_shell",
     "field_offset" : 160,
     "referenced_type" : "_ZTIPc"
    }
   ],
   "linker_set_key" : "_ZTI6passwd",
   "name" : "passwd",
   "referenced_type" : "_ZTI6passwd",
   "self_type" : "_ZTI6passwd",
   "size" : 24,
   "source_file" : "/bionic/libc/include/pwd.h"
  },
  {
   "alignment" : 8,
   "fields" :
   [
    {
     "field_name" : "st_dev",
     "referenced_type" : "_ZTIy"
    },
    {
     "field_name" : "__pad0",
     "field_offset" : 64,
     "referenced_type" : "_ZTIA4_h"
    },
    {
     "field_name" : "__st_ino",
     "field_offset" : 96,
     "referenced_type" : "_ZTIm"
    },
    {
     "field_name" : "st_mode",
     "field_offset" : 128,
     "referenced_type" : "_ZTIj"
    },
    {
     "field_name" : "st_nlink",
     "field_offset" : 160,
     "referenced_type" : "_ZTIj"
    },
    {
     "field_name" : "st_uid",
     "field_offset" : 192,
     "referenced_type" : "_ZTIj"
    },
    {
     "field_name" : "st_gid",
     "field_offset" : 224,
     "referenced_type" : "_ZTIj"
    },
    {
     "field_name" : "st_rdev",
     "field_offset" : 256,
     "referenced_type" : "_ZTIy"
    },
    {
     "field_name" : "__pad3",
     "field_offset" : 320,
     "referenced_type" : "_ZTIA4_h"
    },
    {
     "field_name" : "st_size",
     "field_offset" : 384,
     "referenced_type" : "_ZTIx"
    },
    {
     "field_name" : "st_blksize",
     "field_offset" : 448,
     "referenced_type" : "_ZTIm"
    },
    {
     "field_name" : "st_blocks",
     "field_offset" : 512,
     "referenced_type" : "_ZTIy"
    },
    {
     "field_name" : "st_atim",
     "field_offset" : 576,
     "referenced_type" : "_ZTI8timespec"
    },
    {
     "field_name" : "st_mtim",
     "field_offset" : 640,
     "referenced_type" : "_ZTI8timespec"
    },
    {
     "field_name" : "st_ctim",
     "field_offset" : 704,
     "referenced_type" : "_ZTI8timespec"
    },
    {
     "field_name" : "st_ino",
     "field_offset" : 768,
     "referenced_type" : "_ZTIy"
    }
   ],
   "linker_set_key" : "_ZTI6stat64",
   "name" : "stat64",
   "referenced_type" : "_ZTI6stat64",
   "self_type" : "_ZTI6stat64",
   "size" : 104,
   "source_file" : "/bionic/libc/include/sys/stat.h"
  },
  {
   "alignment" : 4,
   "fields" :
   [
    {
     "field_name" : "dli_fname",
     "referenced_type" : "_ZTIPKc"
    },
    {
     "field_name" : "dli_fbase",
     "field_offset" : 32,
     "referenced_type" : "_ZTIPv"
    },
    {
     "field_name" : "dli_sname",
     "field_offset" : 64,
     "referenced_type" : "_ZTIPKc"
    },
    {
     "field_name" : "dli_saddr",
     "field_offset" : 96,
     "referenced_type" : "_ZTIPv"
    }
   ],
   "linker_set_key" : "_ZTI7Dl_info",
   "name" : "Dl_info",
   "referenced_type" : "_ZTI7Dl_info",
   "self_type" : "_ZTI7Dl_info",
   "size" : 16,
   "source_file" : "/bionic/libc/include/dlfcn.h"
  },
  {
   "alignment" : 4,
   "fields" :
   [
    {
     "field_name" : "name",
     "referenced_type" : "_ZTIA1025_c"
    },
    {
     "field_name" : "type",
     "field_offset" : 8208,
     "referenced_type" : "_ZTIt"
    },
    {
     "field_name" : "rr_class",
     "field_offset" : 8224,
     "referenced_type" : "_ZTIt"
    },
    {
     "field_name" : "ttl",
     "field_offset" : 8256,
     "referenced_type" : "_ZTIj"
    },
    {
     "field_name" : "rdlength",
     "field_offset" : 8288,
     "referenced_type" : "_ZTIt"
    },
    {
     "field_name" : "rdata",
     "field_offset" : 8320,
     "referenced_type" : "_ZTIPKh"
    }
   ],
   "linker_set_key" : "_ZTI7__ns_rr",
   "name" : "__ns_rr",
   "referenced_type" : "_ZTI7__ns_rr",
   "self_type" : "_ZTI7__ns_rr",
   "size" : 1044,
   "source_file" : "/bionic/libc/include/arpa/nameser.h"
  },
  {
   "alignment" : 4,
   "fields" :
   [
    {
     "field_name" : "cmsg_len",
     "referenced_type" : "_ZTIj"
    },
    {
     "field_name" : "cmsg_level",
     "field_offset" : 32,
     "referenced_type" : "_ZTIi"
    },
    {
     "field_name" : "cmsg_type",
     "field_offset" : 64,
     "referenced_type" : "_ZTIi"
    }
   ],
   "linker_set_key" : "_ZTI7cmsghdr",
   "name" : "cmsghdr",
   "referenced_type" : "_ZTI7cmsghdr",
   "self_type" : "_ZTI7cmsghdr",
   "size" : 12,
   "source_file" : "/bionic/libc/include/sys/socket.h"
  },
  {
   "alignment" : 8,
   "fields" :
   [
    {
     "field_name" : "l_type",
     "referenced_type" : "_ZTIs"
    },
    {
     "field_name" : "l_whence",
     "field_offset" : 16,
     "referenced_type" : "_ZTIs"
    },
    {
     "field_name" : "l_start",
     "field_offset" : 64,
     "referenced_type" : "_ZTIx"
    },
    {
     "field_name" : "l_len",
     "field_offset" : 128,
     "referenced_type" : "_ZTIx"
    },
    {
     "field_name" : "l_pid",
     "field_offset" : 192,
     "referenced_type" : "_ZTIi"
    }
   ],
   "linker_set_key" : "_ZTI7flock64",
   "name" : "flock64",
   "referenced_type" : "_ZTI7flock64",
   "self_type" : "_ZTI7flock64",
   "size" : 32,
   "source_file" : "/bionic/libc/include/bits/flock.h"
  },
  {
   "alignment" : 4,
   "fields" :
   [
    {
     "field_name" : "h_name",
     "referenced_type" : "_ZTIPc"
    },
    {
     "field_name" : "h_aliases",
     "field_offset" : 32,
     "referenced_type" : "_ZTIPPc"
    },
    {
     "field_name" : "h_addrtype",
     "field_offset" : 64,
     "referenced_type" : "_ZTIi"
    },
    {
     "field_name" : "h_length",
     "field_offset" : 96,
     "referenced_type" : "_ZTIi"
    },
    {
     "field_name" : "h_addr_list",
     "field_offset" : 128,
     "referenced_type" : "_ZTIPPc"
    }
   ],
   "linker_set_key" : "_ZTI7hostent",
   "name" : "hostent",
   "referenced_type" : "_ZTI7hostent",
   "self_type" : "_ZTI7hostent",
   "size" : 20,
   "source_file" : "/bionic/libc/include/netdb.h"
  },
  {
   "alignment" : 4,
   "fields" :
   [
    {
     "field_name" : "s_addr",
     "referenced_type" : "_ZTIj"
    }
   ],
   "linker_set_key" : "_ZTI7in_addr",
   "name" : "in_addr",
   "referenced_type" : "_ZTI7in_addr",
   "self_type" : "_ZTI7in_addr",
   "size" : 4,
   "source_file" : "/bionic/libc/include/bits/in_addr.h"
  },
  {
   "alignment" : 4,
   "fields" :
   [
    {
     "field_name" : "ll_time",
     "referenced_type" : "_ZTIl"
    },
    {
     "field_name" : "ll_line",
     "field_offset" : 32,
     "referenced_type" : "_ZTIA8_c"
    },
    {
     "field_name" : "ll_host",
     "field_offset" : 96,
     "referenced_type" : "_ZTIA16_c"
    }
   ],
   "linker_set_key" : "_ZTI7lastlog",
   "name" : "lastlog",
   "referenced_type" : "_ZTI7lastlog",
   "self_type" : "_ZTI7lastlog",
   "size" : 28,
   "source_file" : "/bionic/libc/include/utmp.h"
  },
  {
   "alignment" : 8,
   "fields" :
   [
    {
     "field_name" : "quot",
     "referenced_type" : "_ZTIx"
    },
    {
     "field_name" : "rem",
     "field_offset" : 64,
     "referenced_type" : "_ZTIx"
    }
   ],
   "linker_set_key" : "_ZTI7lldiv_t",
   "name" : "lldiv_t",
   "referenced_type" : "_ZTI7lldiv_t",
   "self_type" : "_ZTI7lldiv_t",
   "size" : 16,
   "source_file" : "/bionic/libc/include/stdlib.h"
  },
  {
   "alignment" : 4,
   "fields" :
   [
    {
     "field_name" : "msg_hdr",
     "referenced_type" : "_ZTI6msghdr"
    },
    {
     "field_name" : "msg_len",
     "field_offset" : 224,
     "referenced_type" : "_ZTIj"
    }
   ],
   "linker_set_key" : "_ZTI7mmsghdr",
   "name" : "mmsghdr",
   "referenced_type" : "_ZTI7mmsghdr",
   "self_type" : "_ZTI7mmsghdr",
   "size" : 32,
   "source_file" : "/bionic/libc/include/sys/socket.h"
  },
  {
   "alignment" : 4,
   "fields" :
   [
    {
     "field_name" : "namelen",
     "referenced_type" : "_ZTIj"
    },
    {
     "field_name" : "prop",
     "field_offset" : 32,
     "referenced_type" : "_ZTIU7_Atomicj"
    },
    {
     "field_name" : "left",
     "field_offset" : 64,
     "referenced_type" : "_ZTIU7_Atomicj"
    },
    {
     "field_name" : "right",
     "field_offset" : 96,
     "referenced_type" : "_ZTIU7_Atomicj"
    },
    {
     "field_name" : "children",
     "field_offset" : 128,
     "referenced_type" : "_ZTIU7_Atomicj"
    },
    {
     "field_name" : "name",
     "field_offset" : 160,
     "referenced_type" : "_ZTIA0_c"
    }
   ],
   "linker_set_key" : "_ZTI7prop_bt",
   "name" : "prop_bt",
   "referenced_type" : "_ZTI7prop_bt",
   "self_type" : "_ZTI7prop_bt",
   "size" : 20,
   "source_file" : "/bionic/libc/system_properties/include/system_properties/prop_area.h"
  },
  {
   "alignment" : 4,
   "fields" :
   [
    {
     "field_name" : "r_version",
     "referenced_type" : "_ZTIi"
    },
    {
     "field_name" : "r_map",
     "field_offset" : 32,
     "referenced_type" : "_ZTIP8link_map"
    },
    {
     "field_name" : "r_brk",
     "field_offset" : 64,
     "referenced_type" : "_ZTIj"
    },
    {
     "field_name" : "r_state",
     "field_offset" : 96,
     "referenced_type" : "_ZTIN7r_debug7$RT_ADDE"
    },
    {
     "field_name" : "r_ldbase",
     "field_offset" : 128,
     "referenced_type" : "_ZTIj"
    }
   ],
   "linker_set_key" : "_ZTI7r_debug",
   "name" : "r_debug",
   "referenced_type" : "_ZTI7r_debug",
   "self_type" : "_ZTI7r_debug",
   "size" : 20,
   "source_file" : "/bionic/libc/include/link.h"
  },
  {
   "alignment" : 4,
   "fields" :
   [
    {
     "field_name" : "re_magic",
     "referenced_type" : "_ZTIi"
    },
    {
     "field_name" : "re_nsub",
     "field_offset" : 32,
     "referenced_type" : "_ZTIj"
    },
    {
     "field_name" : "re_endp",
     "field_offset" : 64,
     "referenced_type" : "_ZTIPKc"
    },
    {
     "field_name" : "re_g",
     "field_offset" : 96,
     "referenced_type" : "_ZTIP7re_guts"
    }
   ],
   "linker_set_key" : "_ZTI7regex_t",
   "name" : "regex_t",
   "referenced_type" : "_ZTI7regex_t",
   "self_type" : "_ZTI7regex_t",
   "size" : 16,
   "source_file" : "/bionic/libc/include/regex.h"
  },
  {
   "alignment" : 4,
   "fields" :
   [
    {
     "field_name" : "s_name",
     "referenced_type" : "_ZTIPc"
    },
    {
     "field_name" : "s_aliases",
     "field_offset" : 32,
     "referenced_type" : "_ZTIPPc"
    },
    {
     "field_name" : "s_port",
     "field_offset" : 64,
     "referenced_type" : "_ZTIi"
    },
    {
     "field_name" : "s_proto",
     "field_offset" : 96,
     "referenced_type" : "_ZTIPc"
    }
   ],
   "linker_set_key" : "_ZTI7servent",
   "name" : "servent",
   "referenced_type" : "_ZTI7servent",
   "self_type" : "_ZTI7servent",
   "size" : 16,
   "source_file" : "/bionic/libc/include/netdb.h"
  },
  {
   "alignment" : 4,
   "linker_set_key" : "_ZTI8Contexts",
   "name" : "Contexts",
   "record_kind" : "class",
   "referenced_type" : "_ZTI8Contexts",
   "self_type" : "_ZTI8Contexts",
   "size" : 4,
   "source_file" : "/bionic/libc/system_properties/include/system_properties/contexts.h",
   "vtable_components" :
   [
    {
     "kind" : "offset_to_top"
    },
    {
     "kind" : "rtti",
     "mangled_component_name" : "_ZTI8Contexts"
    },
    {
     "kind" : "complete_dtor_pointer",
     "mangled_component_name" : "_ZN8ContextsD1Ev"
    },
    {
     "kind" : "deleting_dtor_pointer",
     "mangled_component_name" : "_ZN8ContextsD0Ev"
    },
    {
     "is_pure" : true,
     "mangled_component_name" : "_ZN8Contexts10InitializeEbPKcPb"
    },
    {
     "is_pure" : true,
     "mangled_component_name" : "_ZN8Contexts18GetPropAreaForNameEPKc"
    },
    {
     "is_pure" : true,
     "mangled_component_name" : "_ZN8Contexts17GetSerialPropAreaEv"
    },
    {
     "is_pure" : true,
     "mangled_component_name" : "_ZN8Contexts7ForEachEPFvPK9prop_infoPvES3_"
    },
    {
     "is_pure" : true,
     "mangled_component_name" : "_ZN8Contexts11ResetAccessEv"
    },
    {
     "is_pure" : true,
     "mangled_component_name" : "_ZN8Contexts12FreeAndUnmapEv"
    }
   ]
  },
  {
   "alignment" : 4,
   "fields" :
   [
    {
     "field_name" : "_msg",
     "referenced_type" : "_ZTIPKh"
    },
    {
     "field_name" : "_eom",
     "field_offset" : 32,
     "referenced_type" : "_ZTIPKh"
    },
    {
     "field_name" : "_id",
     "field_offset" : 64,
     "referenced_type" : "_ZTIt"
    },
    {
     "field_name" : "_flags",
     "field_offset" : 80,
     "referenced_type" : "_ZTIt"
    },
    {
     "field_name" : "_counts",
     "field_offset" : 96,
     "referenced_type" : "_ZTIA4_t"
    },
    {
     "field_name" : "_sections",
     "field_offset" : 160,
     "referenced_type" : "_ZTIA4_PKh"
    },
    {
     "field_name" : "_sect",
     "field_offset" : 288,
     "referenced_type" : "_ZTI9__ns_sect"
    },
    {
     "field_name" : "_rrnum",
     "field_offset" : 320,
     "referenced_type" : "_ZTIi"
    },
    {
     "field_name" : "_msg_ptr",
     "field_offset" : 352,
     "referenced_type" : "_ZTIPKh"
    }
   ],
   "linker_set_key" : "_ZTI8__ns_msg",
   "name" : "__ns_msg",
   "referenced_type" : "_ZTI8__ns_msg",
   "self_type" : "_ZTI8__ns_msg",
   "size" : 48,
   "source_file" : "/bionic/libc/include/arpa/nameser.h"
  },
  {
   "alignment" : 4,
   "fields" :
   [
    {
     "field_name" : "nname",
     "referenced_type" : "_ZTIA256_h"
    },
    {
     "field_name" : "nnamel",
     "field_offset" : 2048,
     "referenced_type" : "_ZTIj"
    },
    {
     "field_name" : "type",
     "field_offset" : 2080,
     "referenced_type" : "_ZTIi"
    },
    {
     "field_name" : "rr_class",
     "field_offset" : 2112,
     "referenced_type" : "_ZTIi"
    },
    {
     "field_name" : "ttl",
     "field_offset" : 2144,
     "referenced_type" : "_ZTIj"
    },
    {
     "field_name" : "rdlength",
     "field_offset" : 2176,
     "referenced_type" : "_ZTIi"
    },
    {
     "field_name" : "rdata",
     "field_offset" : 2208,
     "referenced_type" : "_ZTIPKh"
    }
   ],
   "linker_set_key" : "_ZTI8__ns_rr2",
   "name" : "__ns_rr2",
   "referenced_type" : "_ZTI8__ns_rr2",
   "self_type" : "_ZTI8__ns_rr2",
   "size" : 280,
   "source_file" : "/bionic/libc/include/arpa/nameser.h"
  },
  {
   "alignment" : 4,
   "fields" :
   [
    {
     "field_name" : "ai_flags",
     "referenced_type" : "_ZTIi"
    },
    {
     "field_name" : "ai_family",
     "field_offset" : 32,
     "referenced_type" : "_ZTIi"
    },
    {
     "field_name" : "ai_socktype",
     "field_offset" : 64,
     "referenced_type" : "_ZTIi"
    },
    {
     "field_name" : "ai_protocol",
     "field_offset" : 96,
     "referenced_type" : "_ZTIi"
    },
    {
     "field_name" : "ai_addrlen",
     "field_offset" : 128,
     "referenced_type" : "_ZTIi"
    },
    {
     "field_name" : "ai_canonname",
     "field_offset" : 160,
     "referenced_type" : "_ZTIPc"
    },
    {
     "field_name" : "ai_addr",
     "field_offset" : 192,
     "referenced_type" : "_ZTIP8sockaddr"
    },
    {
     "field_name" : "ai_next",
     "field_offset" : 224,
     "referenced_type" : "_ZTIP8addrinfo"
    }
   ],
   "linker_set_key" : "_ZTI8addrinfo",
   "name" : "addrinfo",
   "referenced_type" : "_ZTI8addrinfo",
   "self_type" : "_ZTI8addrinfo",
   "size" : 32,
   "source_file" : "/bionic/libc/include/netdb.h"
  },
  {
   "alignment" : 8,
   "fields" :
   [
    {
     "field_name" : "d_ino",
     "referenced_type" : "_ZTIy"
    },
    {
     "field_name" : "d_off",
     "field_offset" : 64,
     "referenced_type" : "_ZTIx"
    },
    {
     "field_name" : "d_reclen",
     "field_offset" : 128,
     "referenced_type" : "_ZTIt"
    },
    {
     "field_name" : "d_type",
     "field_offset" : 144,
     "referenced_type" : "_ZTIh"
    },
    {
     "field_name" : "d_name",
     "field_offset" : 152,
     "referenced_type" : "_ZTIA256_c"
    }
   ],
   "linker_set_key" : "_ZTI8dirent64",
   "name" : "dirent64",
   "referenced_type" : "_ZTI8dirent64",
   "self_type" : "_ZTI8dirent64",
   "size" : 280,
   "source_file" : "/bionic/libc/include/dirent.h"
  },
  {
   "alignment" : 4,
   "fields" :
   [
    {
     "field_name" : "l_addr",
     "referenced_type" : "_ZTIj"
    },
    {
     "field_name" : "l_name",
     "field_offset" : 32,
     "referenced_type" : "_ZTIPc"
    },
    {
     "field_name" : "l_ld",
     "field_offset" : 64,
     "referenced_type" : "_ZTIP7dynamic"
    },
    {
     "field_name" : "l_next",
     "field_offset" : 96,
     "referenced_type" : "_ZTIP8link_map"
    },
    {
     "field_name" : "l_prev",
     "field_offset" : 128,
     "referenced_type" : "_ZTIP8link_map"
    }
   ],
   "linker_set_key" : "_ZTI8link_map",
   "name" : "link_map",
   "referenced_type" : "_ZTI8link_map",
   "self_type" : "_ZTI8link_map",
   "size" : 20,
   "source_file" : "/bionic/libc/include/link.h"
  },
  {
   "alignment" : 4,
   "fields" :
   [
    {
     "field_name" : "arena",
     "referenced_type" : "_ZTIj"
    },
    {
     "field_name" : "ordblks",
     "field_offset" : 32,
     "referenced_type" : "_ZTIj"
    },
    {
     "field_name" : "smblks",
     "field_offset" : 64,
     "referenced_type" : "_ZTIj"
    },
    {
     "field_name" : "hblks",
     "field_offset" : 96,
     "referenced_type" : "_ZTIj"
    },
    {
     "field_name" : "hblkhd",
     "field_offset" : 128,
     "referenced_type" : "_ZTIj"
    },
    {
     "field_name" : "usmblks",
     "field_offset" : 160,
     "referenced_type" : "_ZTIj"
    },
    {
     "field_name" : "fsmblks",
     "field_offset" : 192,
     "referenced_type" : "_ZTIj"
    },
    {
     "field_name" : "uordblks",
     "field_offset" : 224,
     "referenced_type" : "_ZTIj"
    },
    {
     "field_name" : "fordblks",
     "field_offset" : 256,
     "referenced_type" : "_ZTIj"
    },
    {
     "field_name" : "keepcost",
     "field_offset" : 288,
     "referenced_type" : "_ZTIj"
    }
   ],
   "linker_set_key" : "_ZTI8mallinfo",
   "name" : "mallinfo",
   "referenced_type" : "_ZTI8mallinfo",
   "self_type" : "_ZTI8mallinfo",
   "size" : 40,
   "source_file" : "/bionic/libc/include/malloc.h"
  },
  {
   "alignment" : 4,
   "fields" :
   [
    {
     "field_name" : "p_name",
     "referenced_type" : "_ZTIPc"
    },
    {
     "field_name" : "p_aliases",
     "field_offset" : 32,
     "referenced_type" : "_ZTIPPc"
    },
    {
     "field_name" : "p_proto",
     "field_offset" : 64,
     "referenced_type" : "_ZTIi"
    }
   ],
   "linker_set_key" : "_ZTI8protoent",
   "name" : "protoent",
   "referenced_type" : "_ZTI8protoent",
   "self_type" : "_ZTI8protoent",
   "size" : 12,
   "source_file" : "/bionic/libc/include/netdb.h"
  },
  {
   "alignment" : 2,
   "fields" :
   [
    {
     "field_name" : "sa_family",
     "referenced_type" : "_ZTIt"
    },
    {
     "field_name" : "sa_data",
     "field_offset" : 16,
     "referenced_type" : "_ZTIA14_c"
    }
   ],
   "linker_set_key" : "_ZTI8sockaddr",
   "name" : "sockaddr",
   "referenced_type" : "_ZTI8sockaddr",
   "self_type" : "_ZTI8sockaddr",
   "size" : 16,
   "source_file" : "/bionic/libc/include/sys/socket.h"
  },
  {
   "alignment" : 4,
   "fields" :
   [
    {
     "field_name" : "tv_sec",
     "referenced_type" : "_ZTIl"
    },
    {
     "field_name" : "tv_nsec",
     "field_offset" : 32,
     "referenced_type" : "_ZTIl"
    }
   ],
   "linker_set_key" : "_ZTI8timespec",
   "name" : "timespec",
   "referenced_type" : "_ZTI8timespec",
   "self_type" : "_ZTI8timespec",
   "size" : 8,
   "source_file" : "/bionic/libc/include/bits/timespec.h"
  },
  {
   "alignment" : 8,
   "fields" :
   [
    {
     "field_name" : "uc_flags",
     "referenced_type" : "_ZTIm"
    },
    {
     "field_name" : "uc_link",
     "field_offset" : 32,
     "referenced_type" : "_ZTIP8ucontext"
    },
    {
     "field_name" : "uc_stack",
     "field_offset" : 64,
     "referenced_type" : "_ZTI11sigaltstack"
    },
    {
     "field_name" : "uc_mcontext",
     "field_offset" : 160,
     "referenced_type" : "_ZTI10sigcontext"
    },
    {
     "field_offset" : 832,
     "referenced_type" : "_ZTIN8ucontextUt_E"
    },
    {
     "field_name" : "__padding",
     "field_offset" : 896,
     "referenced_type" : "_ZTIA120_c"
    },
    {
     "field_name" : "uc_regspace",
     "field_offset" : 1856,
     "referenced_type" : "_ZTIA128_m"
    }
   ],
   "linker_set_key" : "_ZTI8ucontext",
   "name" : "ucontext",
   "referenced_type" : "_ZTI8ucontext",
   "self_type" : "_ZTI8ucontext",
   "size" : 744,
   "source_file" : "/bionic/libc/include/sys/ucontext.h"
  },
  {
   "alignment" : 8,
   "fields" :
   [
    {
     "field_name" : "fpregs",
     "referenced_type" : "_ZTIA32_y"
    },
    {
     "field_name" : "fpscr",
     "field_offset" : 2048,
     "referenced_type" : "_ZTIm"
    }
   ],
   "linker_set_key" : "_ZTI8user_vfp",
   "name" : "user_vfp",
   "referenced_type" : "_ZTI8user_vfp",
   "self_type" : "_ZTI8user_vfp",
   "size" : 264,
   "source_file" : "/bionic/libc/include/sys/user.h"
  },
  {
   "alignment" : 4,
   "fields" :
   [
    {
     "field_name" : "l_name",
     "referenced_type" : "_ZTIj"
    },
    {
     "field_name" : "l_time_stamp",
     "field_offset" : 32,
     "referenced_type" : "_ZTIj"
    },
    {
     "field_name" : "l_checksum",
     "field_offset" : 64,
     "referenced_type" : "_ZTIj"
    },
    {
     "field_name" : "l_version",
     "field_offset" : 96,
     "referenced_type" : "_ZTIj"
    },
    {
     "field_name" : "l_flags",
     "field_offset" : 128,
     "referenced_type" : "_ZTIj"
    }
   ],
   "linker_set_key" : "_ZTI9Elf32_Lib",
   "name" : "Elf32_Lib",
   "referenced_type" : "_ZTI9Elf32_Lib",
   "self_type" : "_ZTI9Elf32_Lib",
   "size" : 20,
   "source_file" : "/bionic/libc/include/elf.h"
  },
  {
   "alignment" : 4,
   "fields" :
   [
    {
     "field_name" : "l_name",
     "referenced_type" : "_ZTIj"
    },
    {
     "field_name" : "l_time_stamp",
     "field_offset" : 32,
     "referenced_type" : "_ZTIj"
    },
    {
     "field_name" : "l_checksum",
     "field_offset" : 64,
     "referenced_type" : "_ZTIj"
    },
    {
     "field_name" : "l_version",
     "field_offset" : 96,
     "referenced_type" : "_ZTIj"
    },
    {
     "field_name" : "l_flags",
     "field_offset" : 128,
     "referenced_type" : "_ZTIj"
    }
   ],
   "linker_set_key" : "_ZTI9Elf64_Lib",
   "name" : "Elf64_Lib",
   "referenced_type" : "_ZTI9Elf64_Lib",
   "self_type" : "_ZTI9Elf64_Lib",
   "size" : 20,
   "source_file" : "/bionic/libc/include/elf.h"
  },
  {
   "alignment" : 4,
   "fields" :
   [
    {
     "field_name" : "__bits",
     "referenced_type" : "_ZTIA1_m"
    }
   ],
   "linker_set_key" : "_ZTI9cpu_set_t",
   "name" : "cpu_set_t",
   "referenced_type" : "_ZTI9cpu_set_t",
   "self_type" : "_ZTI9cpu_set_t",
   "size" : 4,
   "source_file" : "/bionic/libc/include/sched.h"
  },
  {
   "alignment" : 8,
   "fields" :
   [
    {
     "field_name" : "quot",
     "referenced_type" : "_ZTIx"
    },
    {
     "field_name" : "rem",
     "field_offset" : 64,
     "referenced_type" : "_ZTIx"
    }
   ],
   "linker_set_key" : "_ZTI9imaxdiv_t",
   "name" : "imaxdiv_t",
   "referenced_type" : "_ZTI9imaxdiv_t",
   "self_type" : "_ZTI9imaxdiv_t",
   "size" : 16,
   "source_file" : "/bionic/libc/include/inttypes.h"
  },
  {
   "alignment" : 1,
   "fields" :
   [
    {
     "field_name" : "__seq",
     "referenced_type" : "_ZTIA4_h"
    }
   ],
   "linker_set_key" : "_ZTI9mbstate_t",
   "name" : "mbstate_t",
   "referenced_type" : "_ZTI9mbstate_t",
   "self_type" : "_ZTI9mbstate_t",
   "size" : 4,
   "source_file" : "/bionic/libc/include/bits/mbstate_t.h"
  },
  {
   "alignment" : 4,
   "fields" :
   [
    {
     "field_name" : "msg",
     "referenced_type" : "_ZTI8__ns_msg"
    },
    {
     "field_name" : "dnptrs",
     "field_offset" : 384,
     "referenced_type" : "_ZTIA25_PKh"
    },
    {
     "field_name" : "lastdnptr",
     "field_offset" : 1184,
     "referenced_type" : "_ZTIPPKh"
    }
   ],
   "linker_set_key" : "_ZTI9ns_newmsg",
   "name" : "ns_newmsg",
   "referenced_type" : "_ZTI9ns_newmsg",
   "self_type" : "_ZTI9ns_newmsg",
   "size" : 152,
   "source_file" : "/bionic/libc/include/arpa/nameser.h"
  },
  {
   "alignment" : 4,
   "fields" :
   [
    {
     "access" : "private",
     "field_name" : "bytes_used_",
     "referenced_type" : "_ZTIj"
    },
    {
     "access" : "private",
     "field_name" : "serial_",
     "field_offset" : 32,
     "referenced_type" : "_ZTIU7_Atomicj"
    },
    {
     "access" : "private",
     "field_name" : "magic_",
     "field_offset" : 64,
     "referenced_type" : "_ZTIj"
    },
    {
     "access" : "private",
     "field_name" : "version_",
     "field_offset" : 96,
     "referenced_type" : "_ZTIj"
    },
    {
     "access" : "private",
     "field_name" : "reserved_",
     "field_offset" : 128,
     "referenced_type" : "_ZTIA28_j"
    },
    {
     "access" : "private",
     "field_name" : "data_",
     "field_offset" : 1024,
     "referenced_type" : "_ZTIA0_c"
    }
   ],
   "linker_set_key" : "_ZTI9prop_area",
   "name" : "prop_area",
   "record_kind" : "class",
   "referenced_type" : "_ZTI9prop_area",
   "self_type" : "_ZTI9prop_area",
   "size" : 128,
   "source_file" : "/bionic/libc/system_properties/include/system_properties/prop_area.h"
  },
  {
   "alignment" : 4,
   "fields" :
   [
    {
     "field_name" : "serial",
     "referenced_type" : "_ZTIU7_Atomicj"
    },
    {
     "field_offset" : 32,
     "referenced_type" : "_ZTIN9prop_infoUt_E"
    },
    {
     "field_name" : "name",
     "field_offset" : 768,
     "referenced_type" : "_ZTIA0_c"
    }
   ],
   "linker_set_key" : "_ZTI9prop_info",
   "name" : "prop_info",
   "referenced_type" : "_ZTI9prop_info",
   "self_type" : "_ZTI9prop_info",
   "size" : 96,
   "source_file" : "/bionic/libc/system_properties/include/system_properties/prop_info.h"
  },
  {
   "alignment" : 4,
   "fields" :
   [
    {
     "referenced_type" : "_ZTIN9sigactionUt_E"
    },
    {
     "field_name" : "sa_mask",
     "field_offset" : 32,
     "referenced_type" : "_ZTIm"
    },
    {
     "field_name" : "sa_flags",
     "field_offset" : 64,
     "referenced_type" : "_ZTIi"
    },
    {
     "field_name" : "sa_restorer",
     "field_offset" : 96,
     "referenced_type" : "_ZTIPFvvE"
    }
   ],
   "linker_set_key" : "_ZTI9sigaction",
   "name" : "sigaction",
   "referenced_type" : "_ZTI9sigaction",
   "self_type" : "_ZTI9sigaction",
   "size" : 16,
   "source_file" : "/bionic/libc/include/bits/signal_types.h"
  },
  {
   "alignment" : 4,
   "fields" :
   [
    {
     "field_name" : "uregs",
     "referenced_type" : "_ZTIA18_m"
    }
   ],
   "linker_set_key" : "_ZTI9user_regs",
   "name" : "user_regs",
   "referenced_type" : "_ZTI9user_regs",
   "self_type" : "_ZTI9user_regs",
   "size" : 72,
   "source_file" : "/bionic/libc/include/sys/user.h"
  },
  {
   "alignment" : 4,
   "fields" :
   [
    {
     "field_name" : "sa_handler",
     "referenced_type" : "_ZTIPFviE"
    },
    {
     "field_name" : "sa_sigaction",
     "referenced_type" : "_ZTIPFviP7siginfoPvE"
    }
   ],
   "is_anonymous" : true,
   "linker_set_key" : "_ZTIN11sigaction64Ut_E",
   "name" : "sigaction64::(anonymous union at bionic/libc/include/bits/signal_types.h:100:3)",
   "record_kind" : "union",
   "referenced_type" : "_ZTIN11sigaction64Ut_E",
   "self_type" : "_ZTIN11sigaction64Ut_E",
   "size" : 4,
   "source_file" : "/bionic/libc/include/bits/signal_types.h"
  },
  {
   "alignment" : 4,
   "fields" :
   [
    {
     "field_name" : "sign1",
     "referenced_type" : "_ZTIj"
    },
    {
     "field_name" : "unused",
     "field_offset" : 1,
     "referenced_type" : "_ZTIj"
    },
    {
     "field_name" : "sign2",
     "field_offset" : 16,
     "referenced_type" : "_ZTIj"
    },
    {
     "field_name" : "exponent",
     "field_offset" : 17,
     "referenced_type" : "_ZTIj"
    },
    {
     "field_name" : "j",
     "field_offset" : 31,
     "referenced_type" : "_ZTIj"
    },
    {
     "field_name" : "mantissa1",
     "field_offset" : 32,
     "referenced_type" : "_ZTIj"
    },
    {
     "field_name" : "mantissa0",
     "field_offset" : 64,
     "referenced_type" : "_ZTIj"
    }
   ],
   "linker_set_key" : "_ZTIN11user_fpregs6fp_regE",
   "name" : "user_fpregs::fp_reg",
   "referenced_type" : "_ZTIN11user_fpregs6fp_regE",
   "self_type" : "_ZTIN11user_fpregs6fp_regE",
   "size" : 12,
   "source_file" : "/bionic/libc/include/sys/user.h"
  },
  {
   "alignment" : 4,
   "fields" :
   [
    {
     "field_name" : "a_val",
     "referenced_type" : "_ZTIj"
    }
   ],
   "is_anonymous" : true,
   "linker_set_key" : "_ZTIN12Elf32_auxv_tUt_E",
   "name" : "Elf32_auxv_t::(anonymous union at bionic/libc/include/elf.h:47:3)",
   "record_kind" : "union",
   "referenced_type" : "_ZTIN12Elf32_auxv_tUt_E",
   "self_type" : "_ZTIN12Elf32_auxv_tUt_E",
   "size" : 4,
   "source_file" : "/bionic/libc/include/elf.h"
  },
  {
   "alignment" : 8,
   "fields" :
   [
    {
     "field_name" : "a_val",
     "referenced_type" : "_ZTIy"
    }
   ],
   "is_anonymous" : true,
   "linker_set_key" : "_ZTIN12Elf64_auxv_tUt_E",
   "name" : "Elf64_auxv_t::(anonymous union at bionic/libc/include/elf.h:54:3)",
   "record_kind" : "union",
   "referenced_type" : "_ZTIN12Elf64_auxv_tUt_E",
   "self_type" : "_ZTIN12Elf64_auxv_tUt_E",
   "size" : 8,
   "source_file" : "/bionic/libc/include/elf.h"
  },
  {
   "alignment" : 4,
   "fields" :
   [
    {
     "field_name" : "name_offset",
     "referenced_type" : "_ZTIj"
    },
    {
     "field_name" : "namelen",
     "field_offset" : 32,
     "referenced_type" : "_ZTIj"
    },
    {
     "field_name" : "context_index",
     "field_offset" : 64,
     "referenced_type" : "_ZTIj"
    },
    {
     "field_name" : "type_index",
     "field_offset" : 96,
     "referenced_type" : "_ZTIj"
    }
   ],
   "linker_set_key" : "_ZTIN7android10properties13PropertyEntryE",
   "name" : "android::properties::PropertyEntry",
   "referenced_type" : "_ZTIN7android10properties13PropertyEntryE",
   "self_type" : "_ZTIN7android10properties13PropertyEntryE",
   "size" : 16,
   "source_file" : "/system/core/property_service/libpropertyinfoparser/include/property_info_parser/property_info_parser.h"
  },
  {
   "alignment" : 1,
   "fields" :
   [
    {
     "access" : "private",
     "field_name" : "data_base_",
     "referenced_type" : "_ZTIA0_Kc"
    }
   ],
   "linker_set_key" : "_ZTIN7android10properties14SerializedDataE",
   "name" : "android::properties::SerializedData",
   "record_kind" : "class",
   "referenced_type" : "_ZTIN7android10properties14SerializedDataE",
   "self_type" : "_ZTIN7android10properties14SerializedDataE",
   "source_file" : "/system/core/property_service/libpropertyinfoparser/include/property_info_parser/property_info_parser.h"
  },
  {
   "alignment" : 1,
   "base_specifiers" :
   [
    {
     "access" : "private",
     "referenced_type" : "_ZTIN7android10properties14SerializedDataE"
    }
   ],
   "linker_set_key" : "_ZTIN7android10properties16PropertyInfoAreaE",
   "name" : "android::properties::PropertyInfoArea",
   "record_kind" : "class",
   "referenced_type" : "_ZTIN7android10properties16PropertyInfoAreaE",
   "self_type" : "_ZTIN7android10properties16PropertyInfoAreaE",
   "source_file" : "/system/core/property_service/libpropertyinfoparser/include/property_info_parser/property_info_parser.h"
  },
  {
   "alignment" : 4,
   "fields" :
   [
    {
     "field_name" : "property_entry",
     "referenced_type" : "_ZTIj"
    },
    {
     "field_name" : "num_child_nodes",
     "field_offset" : 32,
     "referenced_type" : "_ZTIj"
    },
    {
     "field_name" : "child_nodes",
     "field_offset" : 64,
     "referenced_type" : "_ZTIj"
    },
    {
     "field_name" : "num_prefixes",
     "field_offset" : 96,
     "referenced_type" : "_ZTIj"
    },
    {
     "field_name" : "prefix_entries",
     "field_offset" : 128,
     "referenced_type" : "_ZTIj"
    },
    {
     "field_name" : "num_exact_matches",
     "field_offset" : 160,
     "referenced_type" : "_ZTIj"
    },
    {
     "field_name" : "exact_match_entries",
     "field_offset" : 192,
     "referenced_type" : "_ZTIj"
    }
   ],
   "linker_set_key" : "_ZTIN7android10properties16TrieNodeInternalE",
   "name" : "android::properties::TrieNodeInternal",
   "referenced_type" : "_ZTIN7android10properties16TrieNodeInternalE",
   "self_type" : "_ZTIN7android10properties16TrieNodeInternalE",
   "size" : 28,
   "source_file" : "/system/core/property_service/libpropertyinfoparser/include/property_info_parser/property_info_parser.h"
  },
  {
   "alignment" : 4,
   "fields" :
   [
    {
     "access" : "private",
     "field_name" : "mmap_base_",
     "referenced_type" : "_ZTIPv"
    },
    {
     "access" : "private",
     "field_name" : "mmap_size_",
     "field_offset" : 32,
     "referenced_type" : "_ZTIj"
    }
   ],
   "linker_set_key" : "_ZTIN7android10properties20PropertyInfoAreaFileE",
   "name" : "android::properties::PropertyInfoAreaFile",
   "record_kind" : "class",
   "referenced_type" : "_ZTIN7android10properties20PropertyInfoAreaFileE",
   "self_type" : "_ZTIN7android10properties20PropertyInfoAreaFileE",
   "size" : 8,
   "source_file" : "/system/core/property_service/libpropertyinfoparser/include/property_info_parser/property_info_parser.h"
  },
  {
   "alignment" : 4,
   "fields" :
   [
    {
     "field_name" : "current_version",
     "referenced_type" : "_ZTIj"
    },
    {
     "field_name" : "minimum_supported_version",
     "field_offset" : 32,
     "referenced_type" : "_ZTIj"
    },
    {
     "field_name" : "size",
     "field_offset" : 64,
     "referenced_type" : "_ZTIj"
    },
    {
     "field_name" : "contexts_offset",
     "field_offset" : 96,
     "referenced_type" : "_ZTIj"
    },
    {
     "field_name" : "types_offset",
     "field_offset" : 128,
     "referenced_type" : "_ZTIj"
    },
    {
     "field_name" : "root_offset",
     "field_offset" : 160,
     "referenced_type" : "_ZTIj"
    }
   ],
   "linker_set_key" : "_ZTIN7android10properties22PropertyInfoAreaHeaderE",
   "name" : "android::properties::PropertyInfoAreaHeader",
   "referenced_type" : "_ZTIN7android10properties22PropertyInfoAreaHeaderE",
   "self_type" : "_ZTIN7android10properties22PropertyInfoAreaHeaderE",
   "size" : 24,
   "source_file" : "/system/core/property_service/libpropertyinfoparser/include/property_info_parser/property_info_parser.h"
  },
  {
   "alignment" : 4,
   "fields" :
   [
    {
     "access" : "private",
     "field_name" : "serialized_data_",
     "referenced_type" : "_ZTIPKN7android10properties14SerializedDataE"
    },
    {
     "access" : "private",
     "field_name" : "trie_node_base_",
     "field_offset" : 32,
     "referenced_type" : "_ZTIPKN7android10properties16TrieNodeInternalE"
    }
   ],
   "linker_set_key" : "_ZTIN7android10properties8TrieNodeE",
   "name" : "android::properties::TrieNode",
   "record_kind" : "class",
   "referenced_type" : "_ZTIN7android10properties8TrieNodeE",
   "self_type" : "_ZTIN7android10properties8TrieNodeE",
   "size" : 8,
   "source_file" : "/system/core/property_service/libpropertyinfoparser/include/property_info_parser/property_info_parser.h"
  },
  {
   "alignment" : 4,
   "fields" :
   [
    {
     "referenced_type" : "_ZTIN8ucontextUt_Ut_E"
    },
    {
     "field_name" : "uc_sigmask64",
     "referenced_type" : "_ZTI10sigset64_t"
    }
   ],
   "is_anonymous" : true,
   "linker_set_key" : "_ZTIN8ucontextUt_E",
   "name" : "ucontext::(anonymous union at bionic/libc/include/sys/ucontext.h:90:3)",
   "record_kind" : "union",
   "referenced_type" : "_ZTIN8ucontextUt_E",
   "self_type" : "_ZTIN8ucontextUt_E",
   "size" : 8,
   "source_file" : "/bionic/libc/include/sys/ucontext.h"
  },
  {
   "alignment" : 4,
   "fields" :
   [
    {
     "field_name" : "uc_sigmask",
     "referenced_type" : "_ZTIm"
    },
    {
     "field_name" : "__padding_rt_sigset",
     "field_offset" : 32,
     "referenced_type" : "_ZTIj"
    }
   ],
   "is_anonymous" : true,
   "linker_set_key" : "_ZTIN8ucontextUt_Ut_E",
   "name" : "ucontext::(anonymous union at bionic/libc/include/sys/ucontext.h:90:3)::(anonymous struct at bionic/libc/include/sys/ucontext.h:91:5)",
   "referenced_type" : "_ZTIN8ucontextUt_Ut_E",
   "self_type" : "_ZTIN8ucontextUt_Ut_E",
   "size" : 8,
   "source_file" : "/bionic/libc/include/sys/ucontext.h"
  },
  {
   "alignment" : 4,
   "fields" :
   [
    {
     "field_name" : "value",
     "referenced_type" : "_ZTIA92_c"
    },
    {
     "field_name" : "long_property",
     "referenced_type" : "_ZTIN9prop_infoUt_Ut_E"
    }
   ],
   "is_anonymous" : true,
   "linker_set_key" : "_ZTIN9prop_infoUt_E",
   "name" : "prop_info::(anonymous union at bionic/libc/system_properties/include/system_properties/prop_info.h:61:3)",
   "record_kind" : "union",
   "referenced_type" : "_ZTIN9prop_infoUt_E",
   "self_type" : "_ZTIN9prop_infoUt_E",
   "size" : 92,
   "source_file" : "/bionic/libc/system_properties/include/system_properties/prop_info.h"
  },
  {
   "alignment" : 4,
   "fields" :
   [
    {
     "field_name" : "error_message",
     "referenced_type" : "_ZTIA56_c"
    },
    {
     "field_name" : "offset",
     "field_offset" : 448,
     "referenced_type" : "_ZTIj"
    }
   ],
   "is_anonymous" : true,
   "linker_set_key" : "_ZTIN9prop_infoUt_Ut_E",
   "name" : "prop_info::(anonymous union at bionic/libc/system_properties/include/system_properties/prop_info.h:61:3)::(anonymous struct at bionic/libc/system_properties/include/system_properties/prop_info.h:63:5)",
   "referenced_type" : "_ZTIN9prop_infoUt_Ut_E",
   "self_type" : "_ZTIN9prop_infoUt_Ut_E",
   "size" : 60,
   "source_file" : "/bionic/libc/system_properties/include/system_properties/prop_info.h"
  },
  {
   "alignment" : 4,
   "fields" :
   [
    {
     "field_name" : "sa_handler",
     "referenced_type" : "_ZTIPFviE"
    },
    {
     "field_name" : "sa_sigaction",
     "referenced_type" : "_ZTIPFviP7siginfoPvE"
    }
   ],
   "is_anonymous" : true,
   "linker_set_key" : "_ZTIN9sigactionUt_E",
   "name" : "sigaction::(anonymous union at bionic/libc/include/bits/signal_types.h:89:3)",
   "record_kind" : "union",
   "referenced_type" : "_ZTIN9sigactionUt_E",
   "self_type" : "_ZTIN9sigactionUt_E",
   "size" : 4,
   "source_file" : "/bionic/libc/include/bits/signal_types.h"
  }
 ],
 "rvalue_reference_types" :
 [
  {
   "alignment" : 4,
   "linker_set_key" : "_ZTION7android10properties20PropertyInfoAreaFileE",
   "name" : "android::properties::PropertyInfoAreaFile &&",
   "referenced_type" : "_ZTIN7android10properties20PropertyInfoAreaFileE",
   "self_type" : "_ZTION7android10properties20PropertyInfoAreaFileE",
   "size" : 4,
   "source_file" : "/system/core/property_service/libpropertyinfoparser/include/property_info_parser/property_info_parser.h"
  }
 ]
}
