{
 "array_types" :
 [
  {
   "alignment" : 1,
   "linker_set_key" : "char [0]",
   "name" : "char [0]",
   "referenced_type" : "type-53",
   "self_type" : "type-84",
   "source_file" : "/system/core/liblog/include/log/log_read.h"
  },
  {
   "linker_set_key" : "float []",
   "name" : "float []",
   "referenced_type" : "type-222",
   "self_type" : "type-467",
   "source_file" : "/system/core/libsystem/include/system/graphics.h"
  },
  {
   "alignment" : 4,
   "linker_set_key" : "int [0]",
   "name" : "int [0]",
   "referenced_type" : "type-20",
   "self_type" : "type-159",
   "source_file" : "/system/core/libcutils/include/cutils/native_handle.h"
  },
  {
   "alignment" : 1,
   "linker_set_key" : "unsigned char [32]",
   "name" : "unsigned char [32]",
   "referenced_type" : "type-81",
   "self_type" : "type-299",
   "size" : 32,
   "source_file" : "/system/libhidl/base/include/hidl/HidlSupport.h"
  },
  {
   "alignment" : 1,
   "linker_set_key" : "unsigned char [5121]",
   "name" : "unsigned char [5121]",
   "referenced_type" : "type-81",
   "self_type" : "type-80",
   "size" : 5121,
   "source_file" : "/system/core/liblog/include/log/log_read.h"
  },
  {
   "alignment" : 4,
   "linker_set_key" : "unsigned int [8]",
   "name" : "unsigned int [8]",
   "referenced_type" : "type-2",
   "self_type" : "type-460",
   "size" : 32,
   "source_file" : "/system/core/libsystem/include/system/graphics.h"
  }
 ],
 "builtin_types" :
 [
  {
   "alignment" : 1,
   "is_integral" : true,
   "is_unsigned" : true,
   "linker_set_key" : "bool",
   "name" : "bool",
   "referenced_type" : "type-36",
   "self_type" : "type-36",
   "size" : 1
  },
  {
   "alignment" : 1,
   "is_integral" : true,
   "is_unsigned" : true,
   "linker_set_key" : "char",
   "name" : "char",
   "referenced_type" : "type-53",
   "self_type" : "type-53",
   "size" : 1
  },
  {
   "alignment" : 2,
   "is_integral" : true,
   "is_unsigned" : true,
   "linker_set_key" : "char16_t",
   "name" : "char16_t",
   "referenced_type" : "type-44",
   "self_type" : "type-44",
   "size" : 2
  },
  {
   "alignment" : 8,
   "linker_set_key" : "double",
   "name" : "double",
   "referenced_type" : "type-227",
   "self_type" : "type-227",
   "size" : 8
  },
  {
   "alignment" : 4,
   "linker_set_key" : "float",
   "name" : "float",
   "referenced_type" : "type-222",
   "self_type" : "type-222",
   "size" : 4
  },
  {
   "alignment" : 4,
   "is_integral" : true,
   "linker_set_key" : "int",
   "name" : "int",
   "referenced_type" : "type-20",
   "self_type" : "type-20",
   "size" : 4
  },
  {
   "alignment" : 8,
   "is_integral" : true,
   "linker_set_key" : "long",
   "name" : "long",
   "referenced_type" : "type-26",
   "self_type" : "type-26",
   "size" : 8
  },
  {
   "alignment" : 8,
   "is_integral" : true,
   "linker_set_key" : "long long",
   "name" : "long long",
   "referenced_type" : "type-209",
   "self_type" : "type-209",
   "size" : 8
  },
  {
   "alignment" : 2,
   "is_integral" : true,
   "linker_set_key" : "short",
   "name" : "short",
   "referenced_type" : "type-181",
   "self_type" : "type-181",
   "size" : 2
  },
  {
   "alignment" : 1,
   "is_integral" : true,
   "linker_set_key" : "signed char",
   "name" : "signed char",
   "referenced_type" : "type-234",
   "self_type" : "type-234",
   "size" : 1
  },
  {
   "alignment" : 1,
   "is_integral" : true,
   "is_unsigned" : true,
   "linker_set_key" : "unsigned char",
   "name" : "unsigned char",
   "referenced_type" : "type-81",
   "self_type" : "type-81",
   "size" : 1
  },
  {
   "alignment" : 4,
   "is_integral" : true,
   "is_unsigned" : true,
   "linker_set_key" : "unsigned int",
   "name" : "unsigned int",
   "referenced_type" : "type-2",
   "self_type" : "type-2",
   "size" : 4
  },
  {
   "alignment" : 8,
   "is_integral" : true,
   "is_unsigned" : true,
   "linker_set_key" : "unsigned long",
   "name" : "unsigned long",
   "referenced_type" : "type-25",
   "self_type" : "type-25",
   "size" : 8
  },
  {
   "alignment" : 8,
   "is_integral" : true,
   "is_unsigned" : true,
   "linker_set_key" : "unsigned long long",
   "name" : "unsigned long long",
   "referenced_type" : "type-216",
   "self_type" : "type-216",
   "size" : 8
  },
  {
   "alignment" : 2,
   "is_integral" : true,
   "is_unsigned" : true,
   "linker_set_key" : "unsigned short",
   "name" : "unsigned short",
   "referenced_type" : "type-83",
   "self_type" : "type-83",
   "size" : 2
  },
  {
   "linker_set_key" : "void",
   "name" : "void",
   "referenced_type" : "type-22",
   "self_type" : "type-22"
  }
 ],
 "elf_functions" :
 [
  {
   "name" : "_ZN7android10frameworks5stats4V1_010VendorAtom5Value10floatValueEf"
  },
  {
   "name" : "_ZN7android10frameworks5stats4V1_010VendorAtom5Value10floatValueEv"
  },
  {
   "name" : "_ZN7android10frameworks5stats4V1_010VendorAtom5Value10hidl_unionC1Ev"
  },
  {
   "name" : "_ZN7android10frameworks5stats4V1_010VendorAtom5Value10hidl_unionC2Ev"
  },
  {
   "name" : "_ZN7android10frameworks5stats4V1_010VendorAtom5Value10hidl_unionD1Ev"
  },
  {
   "name" : "_ZN7android10frameworks5stats4V1_010VendorAtom5Value10hidl_unionD2Ev"
  },
  {
   "name" : "_ZN7android10frameworks5stats4V1_010VendorAtom5Value11stringValueEONS_8hardware11hidl_stringE"
  },
  {
   "name" : "_ZN7android10frameworks5stats4V1_010VendorAtom5Value11stringValueERKNS_8hardware11hidl_stringE"
  },
  {
   "name" : "_ZN7android10frameworks5stats4V1_010VendorAtom5Value11stringValueEv"
  },
  {
   "name" : "_ZN7android10frameworks5stats4V1_010VendorAtom5Value18hidl_destructUnionEv"
  },
  {
   "name" : "_ZN7android10frameworks5stats4V1_010VendorAtom5Value8intValueEi"
  },
  {
   "name" : "_ZN7android10frameworks5stats4V1_010VendorAtom5Value8intValueEv"
  },
  {
   "name" : "_ZN7android10frameworks5stats4V1_010VendorAtom5Value9longValueEl"
  },
  {
   "name" : "_ZN7android10frameworks5stats4V1_010VendorAtom5Value9longValueEv"
  },
  {
   "name" : "_ZN7android10frameworks5stats4V1_010VendorAtom5ValueC1EOS4_"
  },
  {
   "name" : "_ZN7android10frameworks5stats4V1_010VendorAtom5ValueC1ERKS4_"
  },
  {
   "name" : "_ZN7android10frameworks5stats4V1_010VendorAtom5ValueC1Ev"
  },
  {
   "name" : "_ZN7android10frameworks5stats4V1_010VendorAtom5ValueC2EOS4_"
  },
  {
   "name" : "_ZN7android10frameworks5stats4V1_010VendorAtom5ValueC2ERKS4_"
  },
  {
   "name" : "_ZN7android10frameworks5stats4V1_010VendorAtom5ValueC2Ev"
  },
  {
   "name" : "_ZN7android10frameworks5stats4V1_010VendorAtom5ValueD1Ev"
  },
  {
   "name" : "_ZN7android10frameworks5stats4V1_010VendorAtom5ValueD2Ev"
  },
  {
   "name" : "_ZN7android10frameworks5stats4V1_010VendorAtom5ValueaSEOS4_"
  },
  {
   "name" : "_ZN7android10frameworks5stats4V1_010VendorAtom5ValueaSERKS4_"
  },
  {
   "name" : "_ZN7android10frameworks5stats4V1_021writeEmbeddedToParcelERKNS2_10VendorAtom5ValueEPNS_8hardware6ParcelEmm"
  },
  {
   "name" : "_ZN7android10frameworks5stats4V1_021writeEmbeddedToParcelERKNS2_10VendorAtomEPNS_8hardware6ParcelEmm"
  },
  {
   "name" : "_ZN7android10frameworks5stats4V1_021writeEmbeddedToParcelERKNS2_12ChargeCyclesEPNS_8hardware6ParcelEmm"
  },
  {
   "name" : "_ZN7android10frameworks5stats4V1_022readEmbeddedFromParcelERKNS2_10VendorAtom5ValueERKNS_8hardware6ParcelEmm"
  },
  {
   "name" : "_ZN7android10frameworks5stats4V1_022readEmbeddedFromParcelERKNS2_10VendorAtomERKNS_8hardware6ParcelEmm"
  },
  {
   "name" : "_ZN7android10frameworks5stats4V1_022readEmbeddedFromParcelERKNS2_12ChargeCyclesERKNS_8hardware6ParcelEmm"
  },
  {
   "name" : "_ZN7android10frameworks5stats4V1_06IStats10getServiceERKNSt3__112basic_stringIcNS4_11char_traitsIcEENS4_9allocatorIcEEEEb"
  },
  {
   "name" : "_ZN7android10frameworks5stats4V1_06IStats11linkToDeathERKNS_2spINS_8hardware20hidl_death_recipientEEEm"
  },
  {
   "name" : "_ZN7android10frameworks5stats4V1_06IStats12getDebugInfoENSt3__18functionIFvRKNS_4hidl4base4V1_09DebugInfoEEEE"
  },
  {
   "name" : "_ZN7android10frameworks5stats4V1_06IStats12getHashChainENSt3__18functionIFvRKNS_8hardware8hidl_vecINS6_10hidl_arrayIhLm32EJEEEEEEEE"
  },
  {
   "name" : "_ZN7android10frameworks5stats4V1_06IStats13tryGetServiceERKNSt3__112basic_stringIcNS4_11char_traitsIcEENS4_9allocatorIcEEEEb"
  },
  {
   "name" : "_ZN7android10frameworks5stats4V1_06IStats13unlinkToDeathERKNS_2spINS_8hardware20hidl_death_recipientEEE"
  },
  {
   "name" : "_ZN7android10frameworks5stats4V1_06IStats14interfaceChainENSt3__18functionIFvRKNS_8hardware8hidl_vecINS6_11hidl_stringEEEEEE"
  },
  {
   "name" : "_ZN7android10frameworks5stats4V1_06IStats17registerAsServiceERKNSt3__112basic_stringIcNS4_11char_traitsIcEENS4_9allocatorIcEEEE"
  },
  {
   "name" : "_ZN7android10frameworks5stats4V1_06IStats19interfaceDescriptorENSt3__18functionIFvRKNS_8hardware11hidl_stringEEEE"
  },
  {
   "name" : "_ZN7android10frameworks5stats4V1_06IStats21notifySyspropsChangedEv"
  },
  {
   "name" : "_ZN7android10frameworks5stats4V1_06IStats21setHALInstrumentationEv"
  },
  {
   "name" : "_ZN7android10frameworks5stats4V1_06IStats24registerForNotificationsERKNSt3__112basic_stringIcNS4_11char_traitsIcEENS4_9allocatorIcEEEERKNS_2spINS_4hidl7manager4V1_020IServiceNotificationEEE"
  },
  {
   "name" : "_ZN7android10frameworks5stats4V1_06IStats4pingEv"
  },
  {
   "name" : "_ZN7android10frameworks5stats4V1_06IStats5debugERKNS_8hardware11hidl_handleERKNS4_8hidl_vecINS4_11hidl_stringEEE"
  },
  {
   "name" : "_ZN7android10frameworks5stats4V1_06IStats8castFromERKNS_2spINS_4hidl4base4V1_05IBaseEEEb"
  },
  {
   "name" : "_ZN7android10frameworks5stats4V1_06IStats8castFromERKNS_2spIS3_EEb"
  },
  {
   "name" : "_ZN7android10frameworks5stats4V1_07BsStats13addOnewayTaskENSt3__18functionIFvvEEE"
  },
  {
   "name" : "_ZN7android10frameworks5stats4V1_07BsStatsC1ENS_2spINS2_6IStatsEEE"
  },
  {
   "name" : "_ZN7android10frameworks5stats4V1_07BsStatsC2ENS_2spINS2_6IStatsEEE"
  },
  {
   "name" : "_ZN7android10frameworks5stats4V1_09BnHwStats10onTransactEjRKNS_8hardware6ParcelEPS5_jNSt3__18functionIFvRS5_EEE"
  },
  {
   "name" : "_ZN7android10frameworks5stats4V1_09BnHwStats12getDebugInfoENSt3__18functionIFvRKNS_4hidl4base4V1_09DebugInfoEEEE"
  },
  {
   "name" : "_ZN7android10frameworks5stats4V1_09BnHwStats18_hidl_reportSlowIoEPNS_4hidl4base4V1_08BnHwBaseERKNS_8hardware6ParcelEPSA_NSt3__18functionIFvRSA_EEE"
  },
  {
   "name" : "_ZN7android10frameworks5stats4V1_09BnHwStats22_hidl_reportVendorAtomEPNS_4hidl4base4V1_08BnHwBaseERKNS_8hardware6ParcelEPSA_NSt3__18functionIFvRSA_EEE"
  },
  {
   "name" : "_ZN7android10frameworks5stats4V1_09BnHwStats24_hidl_reportChargeCyclesEPNS_4hidl4base4V1_08BnHwBaseERKNS_8hardware6ParcelEPSA_NSt3__18functionIFvRSA_EEE"
  },
  {
   "name" : "_ZN7android10frameworks5stats4V1_09BnHwStats25_hidl_reportSpeechDspStatEPNS_4hidl4base4V1_08BnHwBaseERKNS_8hardware6ParcelEPSA_NSt3__18functionIFvRSA_EEE"
  },
  {
   "name" : "_ZN7android10frameworks5stats4V1_09BnHwStats26_hidl_reportHardwareFailedEPNS_4hidl4base4V1_08BnHwBaseERKNS_8hardware6ParcelEPSA_NSt3__18functionIFvRSA_EEE"
  },
  {
   "name" : "_ZN7android10frameworks5stats4V1_09BnHwStats28_hidl_reportSpeakerImpedanceEPNS_4hidl4base4V1_08BnHwBaseERKNS_8hardware6ParcelEPSA_NSt3__18functionIFvRSA_EEE"
  },
  {
   "name" : "_ZN7android10frameworks5stats4V1_09BnHwStats32_hidl_reportPhysicalDropDetectedEPNS_4hidl4base4V1_08BnHwBaseERKNS_8hardware6ParcelEPSA_NSt3__18functionIFvRSA_EEE"
  },
  {
   "name" : "_ZN7android10frameworks5stats4V1_09BnHwStats32_hidl_reportUsbPortOverheatEventEPNS_4hidl4base4V1_08BnHwBaseERKNS_8hardware6ParcelEPSA_NSt3__18functionIFvRSA_EEE"
  },
  {
   "name" : "_ZN7android10frameworks5stats4V1_09BnHwStats33_hidl_reportBatteryCausedShutdownEPNS_4hidl4base4V1_08BnHwBaseERKNS_8hardware6ParcelEPSA_NSt3__18functionIFvRSA_EEE"
  },
  {
   "name" : "_ZN7android10frameworks5stats4V1_09BnHwStats33_hidl_reportBatteryHealthSnapshotEPNS_4hidl4base4V1_08BnHwBaseERKNS_8hardware6ParcelEPSA_NSt3__18functionIFvRSA_EEE"
  },
  {
   "name" : "_ZN7android10frameworks5stats4V1_09BnHwStats4pingEv"
  },
  {
   "name" : "_ZN7android10frameworks5stats4V1_09BnHwStatsC1ERKNS_2spINS2_6IStatsEEE"
  },
  {
   "name" : "_ZN7android10frameworks5stats4V1_09BnHwStatsC2ERKNS_2spINS2_6IStatsEEE"
  },
  {
   "name" : "_ZN7android10frameworks5stats4V1_09BnHwStatsD0Ev"
  },
  {
   "name" : "_ZN7android10frameworks5stats4V1_09BnHwStatsD1Ev"
  },
  {
   "name" : "_ZN7android10frameworks5stats4V1_09BnHwStatsD2Ev"
  },
  {
   "name" : "_ZN7android10frameworks5stats4V1_09BpHwStats11linkToDeathERKNS_2spINS_8hardware20hidl_death_recipientEEEm"
  },
  {
   "name" : "_ZN7android10frameworks5stats4V1_09BpHwStats12getDebugInfoENSt3__18functionIFvRKNS_4hidl4base4V1_09DebugInfoEEEE"
  },
  {
   "name" : "_ZN7android10frameworks5stats4V1_09BpHwStats12getHashChainENSt3__18functionIFvRKNS_8hardware8hidl_vecINS6_10hidl_arrayIhLm32EJEEEEEEEE"
  },
  {
   "name" : "_ZN7android10frameworks5stats4V1_09BpHwStats12reportSlowIoERKNS2_6SlowIoE"
  },
  {
   "name" : "_ZN7android10frameworks5stats4V1_09BpHwStats13unlinkToDeathERKNS_2spINS_8hardware20hidl_death_recipientEEE"
  },
  {
   "name" : "_ZN7android10frameworks5stats4V1_09BpHwStats14interfaceChainENSt3__18functionIFvRKNS_8hardware8hidl_vecINS6_11hidl_stringEEEEEE"
  },
  {
   "name" : "_ZN7android10frameworks5stats4V1_09BpHwStats16reportVendorAtomERKNS2_10VendorAtomE"
  },
  {
   "name" : "_ZN7android10frameworks5stats4V1_09BpHwStats18_hidl_reportSlowIoEPNS_8hardware10IInterfaceEPNS4_7details16HidlInstrumentorERKNS2_6SlowIoE"
  },
  {
   "name" : "_ZN7android10frameworks5stats4V1_09BpHwStats18reportChargeCyclesERKNS2_12ChargeCyclesE"
  },
  {
   "name" : "_ZN7android10frameworks5stats4V1_09BpHwStats19interfaceDescriptorENSt3__18functionIFvRKNS_8hardware11hidl_stringEEEE"
  },
  {
   "name" : "_ZN7android10frameworks5stats4V1_09BpHwStats19reportSpeechDspStatERKNS2_13SpeechDspStatE"
  },
  {
   "name" : "_ZN7android10frameworks5stats4V1_09BpHwStats20reportHardwareFailedERKNS2_14HardwareFailedE"
  },
  {
   "name" : "_ZN7android10frameworks5stats4V1_09BpHwStats21notifySyspropsChangedEv"
  },
  {
   "name" : "_ZN7android10frameworks5stats4V1_09BpHwStats21setHALInstrumentationEv"
  },
  {
   "name" : "_ZN7android10frameworks5stats4V1_09BpHwStats22_hidl_reportVendorAtomEPNS_8hardware10IInterfaceEPNS4_7details16HidlInstrumentorERKNS2_10VendorAtomE"
  },
  {
   "name" : "_ZN7android10frameworks5stats4V1_09BpHwStats22reportSpeakerImpedanceERKNS2_16SpeakerImpedanceE"
  },
  {
   "name" : "_ZN7android10frameworks5stats4V1_09BpHwStats24_hidl_reportChargeCyclesEPNS_8hardware10IInterfaceEPNS4_7details16HidlInstrumentorERKNS2_12ChargeCyclesE"
  },
  {
   "name" : "_ZN7android10frameworks5stats4V1_09BpHwStats25_hidl_reportSpeechDspStatEPNS_8hardware10IInterfaceEPNS4_7details16HidlInstrumentorERKNS2_13SpeechDspStatE"
  },
  {
   "name" : "_ZN7android10frameworks5stats4V1_09BpHwStats26_hidl_reportHardwareFailedEPNS_8hardware10IInterfaceEPNS4_7details16HidlInstrumentorERKNS2_14HardwareFailedE"
  },
  {
   "name" : "_ZN7android10frameworks5stats4V1_09BpHwStats26reportPhysicalDropDetectedERKNS2_20PhysicalDropDetectedE"
  },
  {
   "name" : "_ZN7android10frameworks5stats4V1_09BpHwStats26reportUsbPortOverheatEventERKNS2_20UsbPortOverheatEventE"
  },
  {
   "name" : "_ZN7android10frameworks5stats4V1_09BpHwStats27reportBatteryCausedShutdownERKNS2_21BatteryCausedShutdownE"
  },
  {
   "name" : "_ZN7android10frameworks5stats4V1_09BpHwStats27reportBatteryHealthSnapshotERKNS2_25BatteryHealthSnapshotArgsE"
  },
  {
   "name" : "_ZN7android10frameworks5stats4V1_09BpHwStats28_hidl_reportSpeakerImpedanceEPNS_8hardware10IInterfaceEPNS4_7details16HidlInstrumentorERKNS2_16SpeakerImpedanceE"
  },
  {
   "name" : "_ZN7android10frameworks5stats4V1_09BpHwStats32_hidl_reportPhysicalDropDetectedEPNS_8hardware10IInterfaceEPNS4_7details16HidlInstrumentorERKNS2_20PhysicalDropDetectedE"
  },
  {
   "name" : "_ZN7android10frameworks5stats4V1_09BpHwStats32_hidl_reportUsbPortOverheatEventEPNS_8hardware10IInterfaceEPNS4_7details16HidlInstrumentorERKNS2_20UsbPortOverheatEventE"
  },
  {
   "name" : "_ZN7android10frameworks5stats4V1_09BpHwStats33_hidl_reportBatteryCausedShutdownEPNS_8hardware10IInterfaceEPNS4_7details16HidlInstrumentorERKNS2_21BatteryCausedShutdownE"
  },
  {
   "name" : "_ZN7android10frameworks5stats4V1_09BpHwStats33_hidl_reportBatteryHealthSnapshotEPNS_8hardware10IInterfaceEPNS4_7details16HidlInstrumentorERKNS2_25BatteryHealthSnapshotArgsE"
  },
  {
   "name" : "_ZN7android10frameworks5stats4V1_09BpHwStats4pingEv"
  },
  {
   "name" : "_ZN7android10frameworks5stats4V1_09BpHwStats5debugERKNS_8hardware11hidl_handleERKNS4_8hidl_vecINS4_11hidl_stringEEE"
  },
  {
   "name" : "_ZN7android10frameworks5stats4V1_09BpHwStatsC1ERKNS_2spINS_8hardware7IBinderEEE"
  },
  {
   "name" : "_ZN7android10frameworks5stats4V1_09BpHwStatsC2ERKNS_2spINS_8hardware7IBinderEEE"
  },
  {
   "binding" : "weak",
   "name" : "_ZN7android8hardware7details13castInterfaceINS_10frameworks5stats4V1_06IStatsENS_4hidl4base4V1_05IBaseENS5_9BpHwStatsEEENS0_6ReturnINS_2spIT_EEEENSD_IT0_EEPKcb"
  },
  {
   "binding" : "weak",
   "name" : "_ZN7android8hardware7details18getServiceInternalINS_10frameworks5stats4V1_09BpHwStatsENS5_6IStatsEvvEENS_2spIT0_EERKNSt3__112basic_stringIcNSB_11char_traitsIcEENSB_9allocatorIcEEEEbb"
  },
  {
   "name" : "_ZNK7android10frameworks5stats4V1_010VendorAtom5Value10floatValueEv"
  },
  {
   "name" : "_ZNK7android10frameworks5stats4V1_010VendorAtom5Value11stringValueEv"
  },
  {
   "name" : "_ZNK7android10frameworks5stats4V1_010VendorAtom5Value16getDiscriminatorEv"
  },
  {
   "name" : "_ZNK7android10frameworks5stats4V1_010VendorAtom5Value8intValueEv"
  },
  {
   "name" : "_ZNK7android10frameworks5stats4V1_010VendorAtom5Value9longValueEv"
  },
  {
   "binding" : "weak",
   "name" : "_ZNSt3__113__tree_removeIPNS_16__tree_node_baseIPvEEEEvT_S5_"
  },
  {
   "binding" : "weak",
   "name" : "_ZNSt3__127__tree_balance_after_insertIPNS_16__tree_node_baseIPvEEEEvT_S5_"
  },
  {
   "binding" : "weak",
   "name" : "_ZNSt3__16__treeINS_12__value_typeINS_12basic_stringIcNS_11char_traitsIcEENS_9allocatorIcEEEENS_8functionIFN7android2spINS9_4hidl4base4V1_05IBaseEEEPvEEEEENS_19__map_value_compareIS7_SJ_NS_4lessIS7_EELb1EEENS5_ISJ_EEE12__find_equalIS7_EERPNS_16__tree_node_baseISG_EERPNS_15__tree_end_nodeIST_EERKT_"
  },
  {
   "binding" : "weak",
   "name" : "_ZNSt3__16__treeINS_12__value_typeINS_12basic_stringIcNS_11char_traitsIcEENS_9allocatorIcEEEENS_8functionIFN7android2spINS9_4hidl4base4V1_05IBaseEEEPvEEEEENS_19__map_value_compareIS7_SJ_NS_4lessIS7_EELb1EEENS5_ISJ_EEE4findIS7_EENS_15__tree_iteratorISJ_PNS_11__tree_nodeISJ_SG_EElEERKT_"
  },
  {
   "binding" : "weak",
   "name" : "_ZNSt3__16__treeINS_12__value_typeINS_12basic_stringIcNS_11char_traitsIcEENS_9allocatorIcEEEENS_8functionIFN7android2spINS9_4hidl4base4V1_05IBaseEEEPvEEEEENS_19__map_value_compareIS7_SJ_NS_4lessIS7_EELb1EEENS5_ISJ_EEE5eraseENS_21__tree_const_iteratorISJ_PNS_11__tree_nodeISJ_SG_EElEE"
  },
  {
   "binding" : "weak",
   "name" : "_ZNSt3__16__treeINS_12__value_typeINS_12basic_stringIcNS_11char_traitsIcEENS_9allocatorIcEEEENS_8functionIFN7android2spINS9_8hardware7IBinderEEEPvEEEEENS_19__map_value_compareIS7_SH_NS_4lessIS7_EELb1EEENS5_ISH_EEE12__find_equalIS7_EERPNS_16__tree_node_baseISE_EERPNS_15__tree_end_nodeISR_EERKT_"
  },
  {
   "binding" : "weak",
   "name" : "_ZNSt3__16__treeINS_12__value_typeINS_12basic_stringIcNS_11char_traitsIcEENS_9allocatorIcEEEENS_8functionIFN7android2spINS9_8hardware7IBinderEEEPvEEEEENS_19__map_value_compareIS7_SH_NS_4lessIS7_EELb1EEENS5_ISH_EEE4findIS7_EENS_15__tree_iteratorISH_PNS_11__tree_nodeISH_SE_EElEERKT_"
  },
  {
   "binding" : "weak",
   "name" : "_ZNSt3__16__treeINS_12__value_typeINS_12basic_stringIcNS_11char_traitsIcEENS_9allocatorIcEEEENS_8functionIFN7android2spINS9_8hardware7IBinderEEEPvEEEEENS_19__map_value_compareIS7_SH_NS_4lessIS7_EELb1EEENS5_ISH_EEE5eraseENS_21__tree_const_iteratorISH_PNS_11__tree_nodeISH_SE_EElEE"
  },
  {
   "binding" : "weak",
   "name" : "_ZNSt3__16vectorIN7android2spINS1_8hardware27hidl_binder_death_recipientEEENS_9allocatorIS5_EEE21__push_back_slow_pathIS5_EEvOT_"
  },
  {
   "binding" : "weak",
   "name" : "_ZNSt3__16vectorINS_8functionIFvN7android8hardware7details16HidlInstrumentor20InstrumentationEventEPKcS8_S8_S8_PNS0_IPvNS_9allocatorIS9_EEEEEEENSA_ISF_EEEC2ERKSH_"
  },
  {
   "binding" : "weak",
   "name" : "_ZNSt3__16vectorIPvNS_9allocatorIS1_EEE21__push_back_slow_pathIS1_EEvOT_"
  },
  {
   "name" : "_ZThn32_N7android10frameworks5stats4V1_09BnHwStatsD0Ev"
  },
  {
   "name" : "_ZThn32_N7android10frameworks5stats4V1_09BnHwStatsD1Ev"
  },
  {
   "name" : "_ZTv0_n24_N7android10frameworks5stats4V1_09BnHwStatsD0Ev"
  },
  {
   "name" : "_ZTv0_n24_N7android10frameworks5stats4V1_09BnHwStatsD1Ev"
  }
 ],
 "elf_objects" :
 [
  {
   "name" : "_ZN7android10frameworks5stats4V1_06IStats10descriptorE"
  },
  {
   "name" : "_ZTCN7android10frameworks5stats4V1_06IStatsE0_NS_4hidl4base4V1_05IBaseE"
  },
  {
   "binding" : "weak",
   "name" : "_ZTCN7android10frameworks5stats4V1_07BsStatsE0_NS2_6IStatsE"
  },
  {
   "name" : "_ZTCN7android10frameworks5stats4V1_09BnHwStatsE0_NS_4hidl4base4V1_08BnHwBaseE"
  },
  {
   "name" : "_ZTCN7android10frameworks5stats4V1_09BnHwStatsE0_NS_8hardware7IBinderE"
  },
  {
   "name" : "_ZTCN7android10frameworks5stats4V1_09BnHwStatsE0_NS_8hardware9BHwBinderE"
  },
  {
   "name" : "_ZTCN7android10frameworks5stats4V1_09BpHwStatsE0_NS2_6IStatsE"
  },
  {
   "name" : "_ZTCN7android10frameworks5stats4V1_09BpHwStatsE0_NS_4hidl4base4V1_05IBaseE"
  },
  {
   "name" : "_ZTCN7android10frameworks5stats4V1_09BpHwStatsE0_NS_8hardware11BpInterfaceINS2_6IStatsEEE"
  },
  {
   "name" : "_ZTCN7android10frameworks5stats4V1_09BpHwStatsE16_NS_8hardware11BpHwRefBaseE"
  },
  {
   "name" : "_ZTCN7android10frameworks5stats4V1_09BpHwStatsE8_NS_8hardware10IInterfaceE"
  },
  {
   "name" : "_ZTTN7android10frameworks5stats4V1_06IStatsE"
  },
  {
   "name" : "_ZTTN7android10frameworks5stats4V1_09BnHwStatsE"
  },
  {
   "name" : "_ZTTN7android10frameworks5stats4V1_09BpHwStatsE"
  },
  {
   "name" : "_ZTVN7android10frameworks5stats4V1_06IStatsE"
  },
  {
   "binding" : "weak",
   "name" : "_ZTVN7android10frameworks5stats4V1_07BsStatsE"
  },
  {
   "name" : "_ZTVN7android10frameworks5stats4V1_09BnHwStatsE"
  },
  {
   "name" : "_ZTVN7android10frameworks5stats4V1_09BpHwStatsE"
  }
 ],
 "enum_types" :
 [
  {
   "alignment" : 4,
   "enum_fields" :
   [
    {
     "enum_field_value" : 0,
     "name" : "android::Condition::WAKE_UP_ONE"
    },
    {
     "enum_field_value" : 1,
     "name" : "android::Condition::WAKE_UP_ALL"
    }
   ],
   "linker_set_key" : "android::Condition::WakeUpType",
   "name" : "android::Condition::WakeUpType",
   "referenced_type" : "type-479",
   "self_type" : "type-479",
   "size" : 4,
   "source_file" : "/system/core/libutils/include/utils/Condition.h",
   "underlying_type" : "type-2",
   "unique_id" : "_ZTSN7android9Condition10WakeUpTypeE"
  },
  {
   "alignment" : 4,
   "enum_fields" :
   [
    {
     "enum_field_value" : 0,
     "name" : "android::String16::kEmptyString"
    }
   ],
   "linker_set_key" : "android::String16::StaticLinkage",
   "name" : "android::String16::StaticLinkage",
   "referenced_type" : "type-360",
   "self_type" : "type-360",
   "size" : 4,
   "source_file" : "/system/core/libutils/include/utils/String16.h",
   "underlying_type" : "type-2",
   "unique_id" : "_ZTSN7android8String1613StaticLinkageE"
  },
  {
   "alignment" : 4,
   "enum_fields" :
   [
    {
     "enum_field_value" : 0,
     "name" : "android::String8::kEmptyString"
    }
   ],
   "linker_set_key" : "android::String8::StaticLinkage",
   "name" : "android::String8::StaticLinkage",
   "referenced_type" : "type-352",
   "self_type" : "type-352",
   "size" : 4,
   "source_file" : "/system/core/libutils/include/utils/String8.h",
   "underlying_type" : "type-2",
   "unique_id" : "_ZTSN7android7String813StaticLinkageE"
  },
  {
   "alignment" : 4,
   "enum_fields" :
   [
    {
     "enum_field_value" : 1,
     "name" : "android::frameworks::stats::V1_0::BatteryHealthSnapshotArgs::BatterySnapshotType::MIN_TEMP"
    },
    {
     "enum_field_value" : 2,
     "name" : "android::frameworks::stats::V1_0::BatteryHealthSnapshotArgs::BatterySnapshotType::MAX_TEMP"
    },
    {
     "enum_field_value" : 3,
     "name" : "android::frameworks::stats::V1_0::BatteryHealthSnapshotArgs::BatterySnapshotType::MIN_RESISTANCE"
    },
    {
     "enum_field_value" : 4,
     "name" : "android::frameworks::stats::V1_0::BatteryHealthSnapshotArgs::BatterySnapshotType::MAX_RESISTANCE"
    },
    {
     "enum_field_value" : 5,
     "name" : "android::frameworks::stats::V1_0::BatteryHealthSnapshotArgs::BatterySnapshotType::MIN_VOLTAGE"
    },
    {
     "enum_field_value" : 6,
     "name" : "android::frameworks::stats::V1_0::BatteryHealthSnapshotArgs::BatterySnapshotType::MAX_VOLTAGE"
    },
    {
     "enum_field_value" : 7,
     "name" : "android::frameworks::stats::V1_0::BatteryHealthSnapshotArgs::BatterySnapshotType::MIN_CURRENT"
    },
    {
     "enum_field_value" : 8,
     "name" : "android::frameworks::stats::V1_0::BatteryHealthSnapshotArgs::BatterySnapshotType::MAX_CURRENT"
    },
    {
     "enum_field_value" : 9,
     "name" : "android::frameworks::stats::V1_0::BatteryHealthSnapshotArgs::BatterySnapshotType::MIN_BATT_LEVEL"
    },
    {
     "enum_field_value" : 10,
     "name" : "android::frameworks::stats::V1_0::BatteryHealthSnapshotArgs::BatterySnapshotType::MAX_BATT_LEVEL"
    },
    {
     "enum_field_value" : 11,
     "name" : "android::frameworks::stats::V1_0::BatteryHealthSnapshotArgs::BatterySnapshotType::AVG_RESISTANCE"
    }
   ],
   "linker_set_key" : "android::frameworks::stats::V1_0::BatteryHealthSnapshotArgs::BatterySnapshotType",
   "name" : "android::frameworks::stats::V1_0::BatteryHealthSnapshotArgs::BatterySnapshotType",
   "referenced_type" : "type-514",
   "self_type" : "type-514",
   "size" : 4,
   "source_file" : "/out/soong/.intermediates/frameworks/hardware/interfaces/stats/1.0/android.frameworks.stats@1.0_genc++_headers/gen/android/frameworks/stats/1.0/types.h",
   "underlying_type" : "type-20",
   "unique_id" : "_ZTSN7android10frameworks5stats4V1_025BatteryHealthSnapshotArgs19BatterySnapshotTypeE"
  },
  {
   "alignment" : 4,
   "enum_fields" :
   [
    {
     "enum_field_value" : 0,
     "name" : "android::frameworks::stats::V1_0::HardwareFailed::HardwareErrorCode::UNKNOWN"
    },
    {
     "enum_field_value" : 1,
     "name" : "android::frameworks::stats::V1_0::HardwareFailed::HardwareErrorCode::COMPLETE"
    },
    {
     "enum_field_value" : 2,
     "name" : "android::frameworks::stats::V1_0::HardwareFailed::HardwareErrorCode::SPEAKER_HIGH_Z"
    },
    {
     "enum_field_value" : 3,
     "name" : "android::frameworks::stats::V1_0::HardwareFailed::HardwareErrorCode::SPEAKER_SHORT"
    },
    {
     "enum_field_value" : 4,
     "name" : "android::frameworks::stats::V1_0::HardwareFailed::HardwareErrorCode::FINGERPRINT_SENSOR_BROKEN"
    },
    {
     "enum_field_value" : 5,
     "name" : "android::frameworks::stats::V1_0::HardwareFailed::HardwareErrorCode::FINGERPRINT_TOO_MANY_DEAD_PIXELS"
    },
    {
     "enum_field_value" : 6,
     "name" : "android::frameworks::stats::V1_0::HardwareFailed::HardwareErrorCode::DEGRADE"
    }
   ],
   "linker_set_key" : "android::frameworks::stats::V1_0::HardwareFailed::HardwareErrorCode",
   "name" : "android::frameworks::stats::V1_0::HardwareFailed::HardwareErrorCode",
   "referenced_type" : "type-509",
   "self_type" : "type-509",
   "size" : 4,
   "source_file" : "/out/soong/.intermediates/frameworks/hardware/interfaces/stats/1.0/android.frameworks.stats@1.0_genc++_headers/gen/android/frameworks/stats/1.0/types.h",
   "underlying_type" : "type-20",
   "unique_id" : "_ZTSN7android10frameworks5stats4V1_014HardwareFailed17HardwareErrorCodeE"
  },
  {
   "alignment" : 4,
   "enum_fields" :
   [
    {
     "enum_field_value" : 0,
     "name" : "android::frameworks::stats::V1_0::HardwareFailed::HardwareType::UNKNOWN"
    },
    {
     "enum_field_value" : 1,
     "name" : "android::frameworks::stats::V1_0::HardwareFailed::HardwareType::MICROPHONE"
    },
    {
     "enum_field_value" : 2,
     "name" : "android::frameworks::stats::V1_0::HardwareFailed::HardwareType::CODEC"
    },
    {
     "enum_field_value" : 3,
     "name" : "android::frameworks::stats::V1_0::HardwareFailed::HardwareType::SPEAKER"
    },
    {
     "enum_field_value" : 4,
     "name" : "android::frameworks::stats::V1_0::HardwareFailed::HardwareType::FINGERPRINT"
    }
   ],
   "linker_set_key" : "android::frameworks::stats::V1_0::HardwareFailed::HardwareType",
   "name" : "android::frameworks::stats::V1_0::HardwareFailed::HardwareType",
   "referenced_type" : "type-508",
   "self_type" : "type-508",
   "size" : 4,
   "source_file" : "/out/soong/.intermediates/frameworks/hardware/interfaces/stats/1.0/android.frameworks.stats@1.0_genc++_headers/gen/android/frameworks/stats/1.0/types.h",
   "underlying_type" : "type-20",
   "unique_id" : "_ZTSN7android10frameworks5stats4V1_014HardwareFailed12HardwareTypeE"
  },
  {
   "alignment" : 4,
   "enum_fields" :
   [
    {
     "enum_field_value" : 0,
     "name" : "android::frameworks::stats::V1_0::SlowIo::IoOperation::UNKNOWN"
    },
    {
     "enum_field_value" : 1,
     "name" : "android::frameworks::stats::V1_0::SlowIo::IoOperation::READ"
    },
    {
     "enum_field_value" : 2,
     "name" : "android::frameworks::stats::V1_0::SlowIo::IoOperation::WRITE"
    },
    {
     "enum_field_value" : 3,
     "name" : "android::frameworks::stats::V1_0::SlowIo::IoOperation::UNMAP"
    },
    {
     "enum_field_value" : 4,
     "name" : "android::frameworks::stats::V1_0::SlowIo::IoOperation::SYNC"
    }
   ],
   "linker_set_key" : "android::frameworks::stats::V1_0::SlowIo::IoOperation",
   "name" : "android::frameworks::stats::V1_0::SlowIo::IoOperation",
   "referenced_type" : "type-517",
   "self_type" : "type-517",
   "size" : 4,
   "source_file" : "/out/soong/.intermediates/frameworks/hardware/interfaces/stats/1.0/android.frameworks.stats@1.0_genc++_headers/gen/android/frameworks/stats/1.0/types.h",
   "underlying_type" : "type-20",
   "unique_id" : "_ZTSN7android10frameworks5stats4V1_06SlowIo11IoOperationE"
  },
  {
   "alignment" : 1,
   "enum_fields" :
   [
    {
     "enum_field_value" : 0,
     "name" : "android::frameworks::stats::V1_0::VendorAtom::Value::hidl_discriminator::intValue"
    },
    {
     "enum_field_value" : 1,
     "name" : "android::frameworks::stats::V1_0::VendorAtom::Value::hidl_discriminator::longValue"
    },
    {
     "enum_field_value" : 2,
     "name" : "android::frameworks::stats::V1_0::VendorAtom::Value::hidl_discriminator::floatValue"
    },
    {
     "enum_field_value" : 3,
     "name" : "android::frameworks::stats::V1_0::VendorAtom::Value::hidl_discriminator::stringValue"
    }
   ],
   "linker_set_key" : "android::frameworks::stats::V1_0::VendorAtom::Value::hidl_discriminator",
   "name" : "android::frameworks::stats::V1_0::VendorAtom::Value::hidl_discriminator",
   "referenced_type" : "type-318",
   "self_type" : "type-318",
   "size" : 1,
   "source_file" : "/out/soong/.intermediates/frameworks/hardware/interfaces/stats/1.0/android.frameworks.stats@1.0_genc++_headers/gen/android/frameworks/stats/1.0/types.h",
   "underlying_type" : "type-81",
   "unique_id" : "_ZTSN7android10frameworks5stats4V1_010VendorAtom5Value18hidl_discriminatorE"
  },
  {
   "alignment" : 4,
   "enum_fields" :
   [
    {
     "enum_field_value" : 0,
     "name" : "android::hardware::HidlReturnRestriction::NONE"
    },
    {
     "enum_field_value" : 1,
     "name" : "android::hardware::HidlReturnRestriction::ERROR_IF_UNCHECKED"
    },
    {
     "enum_field_value" : 2,
     "name" : "android::hardware::HidlReturnRestriction::FATAL_IF_UNCHECKED"
    }
   ],
   "linker_set_key" : "android::hardware::HidlReturnRestriction",
   "name" : "android::hardware::HidlReturnRestriction",
   "referenced_type" : "type-145",
   "self_type" : "type-145",
   "size" : 4,
   "source_file" : "/system/libhidl/base/include/hidl/Status.h",
   "underlying_type" : "type-20",
   "unique_id" : "_ZTSN7android8hardware21HidlReturnRestrictionE"
  },
  {
   "alignment" : 4,
   "enum_fields" :
   [
    {
     "enum_field_value" : 0,
     "name" : "android::hardware::MQDescriptor<char, android::hardware::kSynchronizedReadWrite>::READPTRPOS"
    },
    {
     "enum_field_value" : 1,
     "name" : "android::hardware::MQDescriptor<char, android::hardware::kSynchronizedReadWrite>::WRITEPTRPOS"
    },
    {
     "enum_field_value" : 2,
     "name" : "android::hardware::MQDescriptor<char, android::hardware::kSynchronizedReadWrite>::DATAPTRPOS"
    },
    {
     "enum_field_value" : 3,
     "name" : "android::hardware::MQDescriptor<char, android::hardware::kSynchronizedReadWrite>::EVFLAGWORDPOS"
    }
   ],
   "linker_set_key" : "android::hardware::MQDescriptor<char, android::hardware::kSynchronizedReadWrite>::GrantorType",
   "name" : "android::hardware::MQDescriptor<char, android::hardware::kSynchronizedReadWrite>::GrantorType",
   "referenced_type" : "type-343",
   "self_type" : "type-343",
   "size" : 4,
   "source_file" : "/system/libhidl/base/include/hidl/MQDescriptor.h",
   "underlying_type" : "type-20",
   "unique_id" : "_ZTSN7android8hardware12MQDescriptorIcLNS0_8MQFlavorE1EE11GrantorTypeE"
  },
  {
   "alignment" : 4,
   "enum_fields" :
   [
    {
     "enum_field_value" : 1,
     "name" : "android::hardware::kSynchronizedReadWrite"
    },
    {
     "enum_field_value" : 2,
     "name" : "android::hardware::kUnsynchronizedWrite"
    }
   ],
   "linker_set_key" : "android::hardware::MQFlavor",
   "name" : "android::hardware::MQFlavor",
   "referenced_type" : "type-339",
   "self_type" : "type-339",
   "size" : 4,
   "source_file" : "/system/libhidl/base/include/hidl/MQDescriptor.h",
   "underlying_type" : "type-2",
   "unique_id" : "_ZTSN7android8hardware8MQFlavorE"
  },
  {
   "alignment" : 4,
   "enum_fields" :
   [
    {
     "enum_field_value" : 0,
     "name" : "android::hardware::ProcessState::CallRestriction::NONE"
    },
    {
     "enum_field_value" : 1,
     "name" : "android::hardware::ProcessState::CallRestriction::ERROR_IF_NOT_ONEWAY"
    },
    {
     "enum_field_value" : 2,
     "name" : "android::hardware::ProcessState::CallRestriction::FATAL_IF_NOT_ONEWAY"
    }
   ],
   "linker_set_key" : "android::hardware::ProcessState::CallRestriction",
   "name" : "android::hardware::ProcessState::CallRestriction",
   "referenced_type" : "type-55",
   "self_type" : "type-55",
   "size" : 4,
   "source_file" : "/system/libhwbinder/include/hwbinder/ProcessState.h",
   "underlying_type" : "type-20",
   "unique_id" : "_ZTSN7android8hardware12ProcessState15CallRestrictionE"
  },
  {
   "alignment" : 4,
   "enum_fields" :
   [
    {
     "enum_field_value" : 0,
     "name" : "android::hardware::Status::EX_NONE"
    },
    {
     "enum_field_value" : -1,
     "name" : "android::hardware::Status::EX_SECURITY"
    },
    {
     "enum_field_value" : -2,
     "name" : "android::hardware::Status::EX_BAD_PARCELABLE"
    },
    {
     "enum_field_value" : -3,
     "name" : "android::hardware::Status::EX_ILLEGAL_ARGUMENT"
    },
    {
     "enum_field_value" : -4,
     "name" : "android::hardware::Status::EX_NULL_POINTER"
    },
    {
     "enum_field_value" : -5,
     "name" : "android::hardware::Status::EX_ILLEGAL_STATE"
    },
    {
     "enum_field_value" : -6,
     "name" : "android::hardware::Status::EX_NETWORK_MAIN_THREAD"
    },
    {
     "enum_field_value" : -7,
     "name" : "android::hardware::Status::EX_UNSUPPORTED_OPERATION"
    },
    {
     "enum_field_value" : -128,
     "name" : "android::hardware::Status::EX_HAS_REPLY_HEADER"
    },
    {
     "enum_field_value" : -129,
     "name" : "android::hardware::Status::EX_TRANSACTION_FAILED"
    }
   ],
   "linker_set_key" : "android::hardware::Status::Exception",
   "name" : "android::hardware::Status::Exception",
   "referenced_type" : "type-119",
   "self_type" : "type-119",
   "size" : 4,
   "source_file" : "/system/libhidl/base/include/hidl/Status.h",
   "underlying_type" : "type-20",
   "unique_id" : "_ZTSN7android8hardware6Status9ExceptionE"
  },
  {
   "alignment" : 4,
   "enum_fields" :
   [
    {
     "enum_field_value" : 0,
     "name" : "android::hardware::details::HidlInstrumentor::SERVER_API_ENTRY"
    },
    {
     "enum_field_value" : 1,
     "name" : "android::hardware::details::HidlInstrumentor::SERVER_API_EXIT"
    },
    {
     "enum_field_value" : 2,
     "name" : "android::hardware::details::HidlInstrumentor::CLIENT_API_ENTRY"
    },
    {
     "enum_field_value" : 3,
     "name" : "android::hardware::details::HidlInstrumentor::CLIENT_API_EXIT"
    },
    {
     "enum_field_value" : 4,
     "name" : "android::hardware::details::HidlInstrumentor::SYNC_CALLBACK_ENTRY"
    },
    {
     "enum_field_value" : 5,
     "name" : "android::hardware::details::HidlInstrumentor::SYNC_CALLBACK_EXIT"
    },
    {
     "enum_field_value" : 6,
     "name" : "android::hardware::details::HidlInstrumentor::ASYNC_CALLBACK_ENTRY"
    },
    {
     "enum_field_value" : 7,
     "name" : "android::hardware::details::HidlInstrumentor::ASYNC_CALLBACK_EXIT"
    },
    {
     "enum_field_value" : 8,
     "name" : "android::hardware::details::HidlInstrumentor::PASSTHROUGH_ENTRY"
    },
    {
     "enum_field_value" : 9,
     "name" : "android::hardware::details::HidlInstrumentor::PASSTHROUGH_EXIT"
    }
   ],
   "linker_set_key" : "android::hardware::details::HidlInstrumentor::InstrumentationEvent",
   "name" : "android::hardware::details::HidlInstrumentor::InstrumentationEvent",
   "referenced_type" : "type-590",
   "self_type" : "type-590",
   "size" : 4,
   "source_file" : "/system/libhidl/base/include/hidl/HidlInternal.h",
   "underlying_type" : "type-2",
   "unique_id" : "_ZTSN7android8hardware7details16HidlInstrumentor20InstrumentationEventE"
  },
  {
   "alignment" : 4,
   "enum_fields" :
   [
    {
     "enum_field_value" : 0,
     "name" : "android::hidl::base::V1_0::DebugInfo::Architecture::UNKNOWN"
    },
    {
     "enum_field_value" : 1,
     "name" : "android::hidl::base::V1_0::DebugInfo::Architecture::IS_64BIT"
    },
    {
     "enum_field_value" : 2,
     "name" : "android::hidl::base::V1_0::DebugInfo::Architecture::IS_32BIT"
    }
   ],
   "linker_set_key" : "android::hidl::base::V1_0::DebugInfo::Architecture",
   "name" : "android::hidl::base::V1_0::DebugInfo::Architecture",
   "referenced_type" : "type-348",
   "self_type" : "type-348",
   "size" : 4,
   "source_file" : "/out/soong/.intermediates/system/libhidl/transport/base/1.0/android.hidl.base@1.0_genc++_headers/gen/android/hidl/base/1.0/types.h",
   "underlying_type" : "type-20",
   "unique_id" : "_ZTSN7android4hidl4base4V1_09DebugInfo12ArchitectureE"
  },
  {
   "alignment" : 4,
   "enum_fields" :
   [
    {
     "enum_field_value" : -1,
     "name" : "android::hidl::manager::V1_0::IServiceManager::PidConstant::NO_PID"
    }
   ],
   "linker_set_key" : "android::hidl::manager::V1_0::IServiceManager::PidConstant",
   "name" : "android::hidl::manager::V1_0::IServiceManager::PidConstant",
   "referenced_type" : "type-496",
   "self_type" : "type-496",
   "size" : 4,
   "source_file" : "/out/soong/.intermediates/system/libhidl/transport/manager/1.0/android.hidl.manager@1.0_genc++_headers/gen/android/hidl/manager/1.0/IServiceManager.h",
   "underlying_type" : "type-20",
   "unique_id" : "_ZTSN7android4hidl7manager4V1_015IServiceManager11PidConstantE"
  },
  {
   "alignment" : 1,
   "enum_fields" :
   [
    {
     "enum_field_value" : 0,
     "name" : "android::hidl::manager::V1_0::IServiceManager::Transport::EMPTY"
    },
    {
     "enum_field_value" : 1,
     "name" : "android::hidl::manager::V1_0::IServiceManager::Transport::HWBINDER"
    },
    {
     "enum_field_value" : 2,
     "name" : "android::hidl::manager::V1_0::IServiceManager::Transport::PASSTHROUGH"
    }
   ],
   "linker_set_key" : "android::hidl::manager::V1_0::IServiceManager::Transport",
   "name" : "android::hidl::manager::V1_0::IServiceManager::Transport",
   "referenced_type" : "type-495",
   "self_type" : "type-495",
   "size" : 1,
   "source_file" : "/out/soong/.intermediates/system/libhidl/transport/manager/1.0/android.hidl.manager@1.0_genc++_headers/gen/android/hidl/manager/1.0/IServiceManager.h",
   "underlying_type" : "type-81",
   "unique_id" : "_ZTSN7android4hidl7manager4V1_015IServiceManager9TransportE"
  },
  {
   "alignment" : 4,
   "enum_fields" :
   [
    {
     "enum_field_value" : 0,
     "name" : "ANDROID_LOG_UNKNOWN"
    },
    {
     "enum_field_value" : 1,
     "name" : "ANDROID_LOG_DEFAULT"
    },
    {
     "enum_field_value" : 2,
     "name" : "ANDROID_LOG_VERBOSE"
    },
    {
     "enum_field_value" : 3,
     "name" : "ANDROID_LOG_DEBUG"
    },
    {
     "enum_field_value" : 4,
     "name" : "ANDROID_LOG_INFO"
    },
    {
     "enum_field_value" : 5,
     "name" : "ANDROID_LOG_WARN"
    },
    {
     "enum_field_value" : 6,
     "name" : "ANDROID_LOG_ERROR"
    },
    {
     "enum_field_value" : 7,
     "name" : "ANDROID_LOG_FATAL"
    },
    {
     "enum_field_value" : 8,
     "name" : "ANDROID_LOG_SILENT"
    }
   ],
   "linker_set_key" : "android_LogPriority",
   "name" : "android_LogPriority",
   "referenced_type" : "type-1",
   "self_type" : "type-1",
   "size" : 4,
   "source_file" : "/system/core/liblog/include/android/log.h",
   "underlying_type" : "type-2",
   "unique_id" : "android_LogPriority"
  },
  {
   "alignment" : 4,
   "enum_fields" :
   [
    {
     "enum_field_value" : 0,
     "name" : "HAL_COLOR_MODE_NATIVE"
    },
    {
     "enum_field_value" : 1,
     "name" : "HAL_COLOR_MODE_STANDARD_BT601_625"
    },
    {
     "enum_field_value" : 2,
     "name" : "HAL_COLOR_MODE_STANDARD_BT601_625_UNADJUSTED"
    },
    {
     "enum_field_value" : 3,
     "name" : "HAL_COLOR_MODE_STANDARD_BT601_525"
    },
    {
     "enum_field_value" : 4,
     "name" : "HAL_COLOR_MODE_STANDARD_BT601_525_UNADJUSTED"
    },
    {
     "enum_field_value" : 5,
     "name" : "HAL_COLOR_MODE_STANDARD_BT709"
    },
    {
     "enum_field_value" : 6,
     "name" : "HAL_COLOR_MODE_DCI_P3"
    },
    {
     "enum_field_value" : 7,
     "name" : "HAL_COLOR_MODE_SRGB"
    },
    {
     "enum_field_value" : 8,
     "name" : "HAL_COLOR_MODE_ADOBE_RGB"
    },
    {
     "enum_field_value" : 9,
     "name" : "HAL_COLOR_MODE_DISPLAY_P3"
    }
   ],
   "linker_set_key" : "android_color_mode_t",
   "name" : "android_color_mode_t",
   "referenced_type" : "type-448",
   "self_type" : "type-448",
   "size" : 4,
   "source_file" : "/system/core/libsystem/include/system/graphics-base-v1.0.h",
   "underlying_type" : "type-2",
   "unique_id" : "android_color_mode_t"
  },
  {
   "alignment" : 4,
   "enum_fields" :
   [
    {
     "enum_field_value" : 10,
     "name" : "HAL_COLOR_MODE_BT2020"
    },
    {
     "enum_field_value" : 11,
     "name" : "HAL_COLOR_MODE_BT2100_PQ"
    },
    {
     "enum_field_value" : 12,
     "name" : "HAL_COLOR_MODE_BT2100_HLG"
    }
   ],
   "linker_set_key" : "android_color_mode_v1_1_t",
   "name" : "android_color_mode_v1_1_t",
   "referenced_type" : "type-453",
   "self_type" : "type-453",
   "size" : 4,
   "source_file" : "/system/core/libsystem/include/system/graphics-base-v1.1.h",
   "underlying_type" : "type-2",
   "unique_id" : "android_color_mode_v1_1_t"
  },
  {
   "alignment" : 4,
   "enum_fields" :
   [
    {
     "enum_field_value" : 0,
     "name" : "HAL_COLOR_TRANSFORM_IDENTITY"
    },
    {
     "enum_field_value" : 1,
     "name" : "HAL_COLOR_TRANSFORM_ARBITRARY_MATRIX"
    },
    {
     "enum_field_value" : 2,
     "name" : "HAL_COLOR_TRANSFORM_VALUE_INVERSE"
    },
    {
     "enum_field_value" : 3,
     "name" : "HAL_COLOR_TRANSFORM_GRAYSCALE"
    },
    {
     "enum_field_value" : 4,
     "name" : "HAL_COLOR_TRANSFORM_CORRECT_PROTANOPIA"
    },
    {
     "enum_field_value" : 5,
     "name" : "HAL_COLOR_TRANSFORM_CORRECT_DEUTERANOPIA"
    },
    {
     "enum_field_value" : 6,
     "name" : "HAL_COLOR_TRANSFORM_CORRECT_TRITANOPIA"
    }
   ],
   "linker_set_key" : "android_color_transform_t",
   "name" : "android_color_transform_t",
   "referenced_type" : "type-449",
   "self_type" : "type-449",
   "size" : 4,
   "source_file" : "/system/core/libsystem/include/system/graphics-base-v1.0.h",
   "underlying_type" : "type-2",
   "unique_id" : "android_color_transform_t"
  },
  {
   "alignment" : 4,
   "enum_fields" :
   [
    {
     "enum_field_value" : 0,
     "name" : "HAL_DATASPACE_UNKNOWN"
    },
    {
     "enum_field_value" : 1,
     "name" : "HAL_DATASPACE_ARBITRARY"
    },
    {
     "enum_field_value" : 16,
     "name" : "HAL_DATASPACE_STANDARD_SHIFT"
    },
    {
     "enum_field_value" : 4128768,
     "name" : "HAL_DATASPACE_STANDARD_MASK"
    },
    {
     "enum_field_value" : 0,
     "name" : "HAL_DATASPACE_STANDARD_UNSPECIFIED"
    },
    {
     "enum_field_value" : 65536,
     "name" : "HAL_DATASPACE_STANDARD_BT709"
    },
    {
     "enum_field_value" : 131072,
     "name" : "HAL_DATASPACE_STANDARD_BT601_625"
    },
    {
     "enum_field_value" : 196608,
     "name" : "HAL_DATASPACE_STANDARD_BT601_625_UNADJUSTED"
    },
    {
     "enum_field_value" : 262144,
     "name" : "HAL_DATASPACE_STANDARD_BT601_525"
    },
    {
     "enum_field_value" : 327680,
     "name" : "HAL_DATASPACE_STANDARD_BT601_525_UNADJUSTED"
    },
    {
     "enum_field_value" : 393216,
     "name" : "HAL_DATASPACE_STANDARD_BT2020"
    },
    {
     "enum_field_value" : 458752,
     "name" : "HAL_DATASPACE_STANDARD_BT2020_CONSTANT_LUMINANCE"
    },
    {
     "enum_field_value" : 524288,
     "name" : "HAL_DATASPACE_STANDARD_BT470M"
    },
    {
     "enum_field_value" : 589824,
     "name" : "HAL_DATASPACE_STANDARD_FILM"
    },
    {
     "enum_field_value" : 655360,
     "name" : "HAL_DATASPACE_STANDARD_DCI_P3"
    },
    {
     "enum_field_value" : 720896,
     "name" : "HAL_DATASPACE_STANDARD_ADOBE_RGB"
    },
    {
     "enum_field_value" : 22,
     "name" : "HAL_DATASPACE_TRANSFER_SHIFT"
    },
    {
     "enum_field_value" : 130023424,
     "name" : "HAL_DATASPACE_TRANSFER_MASK"
    },
    {
     "enum_field_value" : 0,
     "name" : "HAL_DATASPACE_TRANSFER_UNSPECIFIED"
    },
    {
     "enum_field_value" : 4194304,
     "name" : "HAL_DATASPACE_TRANSFER_LINEAR"
    },
    {
     "enum_field_value" : 8388608,
     "name" : "HAL_DATASPACE_TRANSFER_SRGB"
    },
    {
     "enum_field_value" : 12582912,
     "name" : "HAL_DATASPACE_TRANSFER_SMPTE_170M"
    },
    {
     "enum_field_value" : 16777216,
     "name" : "HAL_DATASPACE_TRANSFER_GAMMA2_2"
    },
    {
     "enum_field_value" : 20971520,
     "name" : "HAL_DATASPACE_TRANSFER_GAMMA2_6"
    },
    {
     "enum_field_value" : 25165824,
     "name" : "HAL_DATASPACE_TRANSFER_GAMMA2_8"
    },
    {
     "enum_field_value" : 29360128,
     "name" : "HAL_DATASPACE_TRANSFER_ST2084"
    },
    {
     "enum_field_value" : 33554432,
     "name" : "HAL_DATASPACE_TRANSFER_HLG"
    },
    {
     "enum_field_value" : 27,
     "name" : "HAL_DATASPACE_RANGE_SHIFT"
    },
    {
     "enum_field_value" : 939524096,
     "name" : "HAL_DATASPACE_RANGE_MASK"
    },
    {
     "enum_field_value" : 0,
     "name" : "HAL_DATASPACE_RANGE_UNSPECIFIED"
    },
    {
     "enum_field_value" : 134217728,
     "name" : "HAL_DATASPACE_RANGE_FULL"
    },
    {
     "enum_field_value" : 268435456,
     "name" : "HAL_DATASPACE_RANGE_LIMITED"
    },
    {
     "enum_field_value" : 402653184,
     "name" : "HAL_DATASPACE_RANGE_EXTENDED"
    },
    {
     "enum_field_value" : 512,
     "name" : "HAL_DATASPACE_SRGB_LINEAR"
    },
    {
     "enum_field_value" : 138477568,
     "name" : "HAL_DATASPACE_V0_SRGB_LINEAR"
    },
    {
     "enum_field_value" : 406913024,
     "name" : "HAL_DATASPACE_V0_SCRGB_LINEAR"
    },
    {
     "enum_field_value" : 513,
     "name" : "HAL_DATASPACE_SRGB"
    },
    {
     "enum_field_value" : 142671872,
     "name" : "HAL_DATASPACE_V0_SRGB"
    },
    {
     "enum_field_value" : 411107328,
     "name" : "HAL_DATASPACE_V0_SCRGB"
    },
    {
     "enum_field_value" : 257,
     "name" : "HAL_DATASPACE_JFIF"
    },
    {
     "enum_field_value" : 146931712,
     "name" : "HAL_DATASPACE_V0_JFIF"
    },
    {
     "enum_field_value" : 258,
     "name" : "HAL_DATASPACE_BT601_625"
    },
    {
     "enum_field_value" : 281149440,
     "name" : "HAL_DATASPACE_V0_BT601_625"
    },
    {
     "enum_field_value" : 259,
     "name" : "HAL_DATASPACE_BT601_525"
    },
    {
     "enum_field_value" : 281280512,
     "name" : "HAL_DATASPACE_V0_BT601_525"
    },
    {
     "enum_field_value" : 260,
     "name" : "HAL_DATASPACE_BT709"
    },
    {
     "enum_field_value" : 281083904,
     "name" : "HAL_DATASPACE_V0_BT709"
    },
    {
     "enum_field_value" : 139067392,
     "name" : "HAL_DATASPACE_DCI_P3_LINEAR"
    },
    {
     "enum_field_value" : 155844608,
     "name" : "HAL_DATASPACE_DCI_P3"
    },
    {
     "enum_field_value" : 139067392,
     "name" : "HAL_DATASPACE_DISPLAY_P3_LINEAR"
    },
    {
     "enum_field_value" : 143261696,
     "name" : "HAL_DATASPACE_DISPLAY_P3"
    },
    {
     "enum_field_value" : 151715840,
     "name" : "HAL_DATASPACE_ADOBE_RGB"
    },
    {
     "enum_field_value" : 138805248,
     "name" : "HAL_DATASPACE_BT2020_LINEAR"
    },
    {
     "enum_field_value" : 147193856,
     "name" : "HAL_DATASPACE_BT2020"
    },
    {
     "enum_field_value" : 163971072,
     "name" : "HAL_DATASPACE_BT2020_PQ"
    },
    {
     "enum_field_value" : 4096,
     "name" : "HAL_DATASPACE_DEPTH"
    },
    {
     "enum_field_value" : 4097,
     "name" : "HAL_DATASPACE_SENSOR"
    }
   ],
   "linker_set_key" : "android_dataspace_t",
   "name" : "android_dataspace_t",
   "referenced_type" : "type-447",
   "self_type" : "type-447",
   "size" : 4,
   "source_file" : "/system/core/libsystem/include/system/graphics-base-v1.0.h",
   "underlying_type" : "type-2",
   "unique_id" : "android_dataspace_t"
  },
  {
   "alignment" : 4,
   "enum_fields" :
   [
    {
     "enum_field_value" : 281411584,
     "name" : "HAL_DATASPACE_BT2020_ITU"
    },
    {
     "enum_field_value" : 298188800,
     "name" : "HAL_DATASPACE_BT2020_ITU_PQ"
    },
    {
     "enum_field_value" : 302383104,
     "name" : "HAL_DATASPACE_BT2020_ITU_HLG"
    },
    {
     "enum_field_value" : 168165376,
     "name" : "HAL_DATASPACE_BT2020_HLG"
    }
   ],
   "linker_set_key" : "android_dataspace_v1_1_t",
   "name" : "android_dataspace_v1_1_t",
   "referenced_type" : "type-452",
   "self_type" : "type-452",
   "size" : 4,
   "source_file" : "/system/core/libsystem/include/system/graphics-base-v1.1.h",
   "underlying_type" : "type-2",
   "unique_id" : "android_dataspace_v1_1_t"
  },
  {
   "alignment" : 4,
   "enum_fields" :
   [
    {
     "enum_field_value" : 142999552,
     "name" : "HAL_DATASPACE_DISPLAY_BT2020"
    },
    {
     "enum_field_value" : 4098,
     "name" : "HAL_DATASPACE_DYNAMIC_DEPTH"
    },
    {
     "enum_field_value" : 4099,
     "name" : "HAL_DATASPACE_JPEG_APP_SEGMENTS"
    },
    {
     "enum_field_value" : 4100,
     "name" : "HAL_DATASPACE_HEIF"
    }
   ],
   "linker_set_key" : "android_dataspace_v1_2_t",
   "name" : "android_dataspace_v1_2_t",
   "referenced_type" : "type-456",
   "self_type" : "type-456",
   "size" : 4,
   "source_file" : "/system/core/libsystem/include/system/graphics-base-v1.2.h",
   "underlying_type" : "type-2",
   "unique_id" : "android_dataspace_v1_2_t"
  },
  {
   "alignment" : 4,
   "enum_fields" :
   [
    {
     "enum_field_value" : 1,
     "name" : "FLEX_COMPONENT_Y"
    },
    {
     "enum_field_value" : 2,
     "name" : "FLEX_COMPONENT_Cb"
    },
    {
     "enum_field_value" : 4,
     "name" : "FLEX_COMPONENT_Cr"
    },
    {
     "enum_field_value" : 1024,
     "name" : "FLEX_COMPONENT_R"
    },
    {
     "enum_field_value" : 2048,
     "name" : "FLEX_COMPONENT_G"
    },
    {
     "enum_field_value" : 4096,
     "name" : "FLEX_COMPONENT_B"
    },
    {
     "enum_field_value" : 1073741824,
     "name" : "FLEX_COMPONENT_A"
    }
   ],
   "linker_set_key" : "android_flex_component",
   "name" : "android_flex_component",
   "referenced_type" : "type-461",
   "self_type" : "type-461",
   "size" : 4,
   "source_file" : "/system/core/libsystem/include/system/graphics.h",
   "underlying_type" : "type-2",
   "unique_id" : "android_flex_component"
  },
  {
   "alignment" : 4,
   "enum_fields" :
   [
    {
     "enum_field_value" : 0,
     "name" : "FLEX_FORMAT_INVALID"
    },
    {
     "enum_field_value" : 1,
     "name" : "FLEX_FORMAT_Y"
    },
    {
     "enum_field_value" : 7,
     "name" : "FLEX_FORMAT_YCbCr"
    },
    {
     "enum_field_value" : 1073741831,
     "name" : "FLEX_FORMAT_YCbCrA"
    },
    {
     "enum_field_value" : 7168,
     "name" : "FLEX_FORMAT_RGB"
    },
    {
     "enum_field_value" : 1073748992,
     "name" : "FLEX_FORMAT_RGBA"
    }
   ],
   "linker_set_key" : "android_flex_format",
   "name" : "android_flex_format",
   "referenced_type" : "type-463",
   "self_type" : "type-463",
   "size" : 4,
   "source_file" : "/system/core/libsystem/include/system/graphics.h",
   "underlying_type" : "type-2",
   "unique_id" : "android_flex_format"
  },
  {
   "alignment" : 4,
   "enum_fields" :
   [
    {
     "enum_field_value" : 1,
     "name" : "HAL_HDR_DOLBY_VISION"
    },
    {
     "enum_field_value" : 2,
     "name" : "HAL_HDR_HDR10"
    },
    {
     "enum_field_value" : 3,
     "name" : "HAL_HDR_HLG"
    }
   ],
   "linker_set_key" : "android_hdr_t",
   "name" : "android_hdr_t",
   "referenced_type" : "type-450",
   "self_type" : "type-450",
   "size" : 4,
   "source_file" : "/system/core/libsystem/include/system/graphics-base-v1.0.h",
   "underlying_type" : "type-2",
   "unique_id" : "android_hdr_t"
  },
  {
   "alignment" : 4,
   "enum_fields" :
   [
    {
     "enum_field_value" : 4,
     "name" : "HAL_HDR_HDR10_PLUS"
    }
   ],
   "linker_set_key" : "android_hdr_v1_2_t",
   "name" : "android_hdr_v1_2_t",
   "referenced_type" : "type-455",
   "self_type" : "type-455",
   "size" : 4,
   "source_file" : "/system/core/libsystem/include/system/graphics-base-v1.2.h",
   "underlying_type" : "type-2",
   "unique_id" : "android_hdr_v1_2_t"
  },
  {
   "alignment" : 4,
   "enum_fields" :
   [
    {
     "enum_field_value" : 39,
     "name" : "HAL_PIXEL_FORMAT_YCBCR_422_888"
    },
    {
     "enum_field_value" : 40,
     "name" : "HAL_PIXEL_FORMAT_YCBCR_444_888"
    },
    {
     "enum_field_value" : 41,
     "name" : "HAL_PIXEL_FORMAT_FLEX_RGB_888"
    },
    {
     "enum_field_value" : 42,
     "name" : "HAL_PIXEL_FORMAT_FLEX_RGBA_8888"
    }
   ],
   "linker_set_key" : "android_pixel_format_sw_t",
   "name" : "android_pixel_format_sw_t",
   "referenced_type" : "type-458",
   "self_type" : "type-458",
   "size" : 4,
   "source_file" : "/system/core/libsystem/include/system/graphics-sw.h",
   "underlying_type" : "type-2",
   "unique_id" : "_ZTS25android_pixel_format_sw_t"
  },
  {
   "alignment" : 4,
   "enum_fields" :
   [
    {
     "enum_field_value" : 1,
     "name" : "HAL_PIXEL_FORMAT_RGBA_8888"
    },
    {
     "enum_field_value" : 2,
     "name" : "HAL_PIXEL_FORMAT_RGBX_8888"
    },
    {
     "enum_field_value" : 3,
     "name" : "HAL_PIXEL_FORMAT_RGB_888"
    },
    {
     "enum_field_value" : 4,
     "name" : "HAL_PIXEL_FORMAT_RGB_565"
    },
    {
     "enum_field_value" : 5,
     "name" : "HAL_PIXEL_FORMAT_BGRA_8888"
    },
    {
     "enum_field_value" : 16,
     "name" : "HAL_PIXEL_FORMAT_YCBCR_422_SP"
    },
    {
     "enum_field_value" : 17,
     "name" : "HAL_PIXEL_FORMAT_YCRCB_420_SP"
    },
    {
     "enum_field_value" : 20,
     "name" : "HAL_PIXEL_FORMAT_YCBCR_422_I"
    },
    {
     "enum_field_value" : 22,
     "name" : "HAL_PIXEL_FORMAT_RGBA_FP16"
    },
    {
     "enum_field_value" : 32,
     "name" : "HAL_PIXEL_FORMAT_RAW16"
    },
    {
     "enum_field_value" : 33,
     "name" : "HAL_PIXEL_FORMAT_BLOB"
    },
    {
     "enum_field_value" : 34,
     "name" : "HAL_PIXEL_FORMAT_IMPLEMENTATION_DEFINED"
    },
    {
     "enum_field_value" : 35,
     "name" : "HAL_PIXEL_FORMAT_YCBCR_420_888"
    },
    {
     "enum_field_value" : 36,
     "name" : "HAL_PIXEL_FORMAT_RAW_OPAQUE"
    },
    {
     "enum_field_value" : 37,
     "name" : "HAL_PIXEL_FORMAT_RAW10"
    },
    {
     "enum_field_value" : 38,
     "name" : "HAL_PIXEL_FORMAT_RAW12"
    },
    {
     "enum_field_value" : 43,
     "name" : "HAL_PIXEL_FORMAT_RGBA_1010102"
    },
    {
     "enum_field_value" : 538982489,
     "name" : "HAL_PIXEL_FORMAT_Y8"
    },
    {
     "enum_field_value" : 540422489,
     "name" : "HAL_PIXEL_FORMAT_Y16"
    },
    {
     "enum_field_value" : 842094169,
     "name" : "HAL_PIXEL_FORMAT_YV12"
    }
   ],
   "linker_set_key" : "android_pixel_format_t",
   "name" : "android_pixel_format_t",
   "referenced_type" : "type-445",
   "self_type" : "type-445",
   "size" : 4,
   "source_file" : "/system/core/libsystem/include/system/graphics-base-v1.0.h",
   "underlying_type" : "type-2",
   "unique_id" : "android_pixel_format_t"
  },
  {
   "alignment" : 4,
   "enum_fields" :
   [
    {
     "enum_field_value" : 48,
     "name" : "HAL_PIXEL_FORMAT_DEPTH_16"
    },
    {
     "enum_field_value" : 49,
     "name" : "HAL_PIXEL_FORMAT_DEPTH_24"
    },
    {
     "enum_field_value" : 50,
     "name" : "HAL_PIXEL_FORMAT_DEPTH_24_STENCIL_8"
    },
    {
     "enum_field_value" : 51,
     "name" : "HAL_PIXEL_FORMAT_DEPTH_32F"
    },
    {
     "enum_field_value" : 52,
     "name" : "HAL_PIXEL_FORMAT_DEPTH_32F_STENCIL_8"
    },
    {
     "enum_field_value" : 53,
     "name" : "HAL_PIXEL_FORMAT_STENCIL_8"
    },
    {
     "enum_field_value" : 54,
     "name" : "HAL_PIXEL_FORMAT_YCBCR_P010"
    }
   ],
   "linker_set_key" : "android_pixel_format_v1_1_t",
   "name" : "android_pixel_format_v1_1_t",
   "referenced_type" : "type-451",
   "self_type" : "type-451",
   "size" : 4,
   "source_file" : "/system/core/libsystem/include/system/graphics-base-v1.1.h",
   "underlying_type" : "type-2",
   "unique_id" : "android_pixel_format_v1_1_t"
  },
  {
   "alignment" : 4,
   "enum_fields" :
   [
    {
     "enum_field_value" : 55,
     "name" : "HAL_PIXEL_FORMAT_HSV_888"
    }
   ],
   "linker_set_key" : "android_pixel_format_v1_2_t",
   "name" : "android_pixel_format_v1_2_t",
   "referenced_type" : "type-457",
   "self_type" : "type-457",
   "size" : 4,
   "source_file" : "/system/core/libsystem/include/system/graphics-base-v1.2.h",
   "underlying_type" : "type-2",
   "unique_id" : "android_pixel_format_v1_2_t"
  },
  {
   "alignment" : 4,
   "enum_fields" :
   [
    {
     "enum_field_value" : 0,
     "name" : "HAL_RENDER_INTENT_COLORIMETRIC"
    },
    {
     "enum_field_value" : 1,
     "name" : "HAL_RENDER_INTENT_ENHANCE"
    },
    {
     "enum_field_value" : 2,
     "name" : "HAL_RENDER_INTENT_TONE_MAP_COLORIMETRIC"
    },
    {
     "enum_field_value" : 3,
     "name" : "HAL_RENDER_INTENT_TONE_MAP_ENHANCE"
    }
   ],
   "linker_set_key" : "android_render_intent_v1_1_t",
   "name" : "android_render_intent_v1_1_t",
   "referenced_type" : "type-454",
   "self_type" : "type-454",
   "size" : 4,
   "source_file" : "/system/core/libsystem/include/system/graphics-base-v1.1.h",
   "underlying_type" : "type-2",
   "unique_id" : "android_render_intent_v1_1_t"
  },
  {
   "alignment" : 4,
   "enum_fields" :
   [
    {
     "enum_field_value" : 1,
     "name" : "HAL_TRANSFORM_FLIP_H"
    },
    {
     "enum_field_value" : 2,
     "name" : "HAL_TRANSFORM_FLIP_V"
    },
    {
     "enum_field_value" : 4,
     "name" : "HAL_TRANSFORM_ROT_90"
    },
    {
     "enum_field_value" : 3,
     "name" : "HAL_TRANSFORM_ROT_180"
    },
    {
     "enum_field_value" : 7,
     "name" : "HAL_TRANSFORM_ROT_270"
    }
   ],
   "linker_set_key" : "android_transform_t",
   "name" : "android_transform_t",
   "referenced_type" : "type-446",
   "self_type" : "type-446",
   "size" : 4,
   "source_file" : "/system/core/libsystem/include/system/graphics-base-v1.0.h",
   "underlying_type" : "type-2",
   "unique_id" : "android_transform_t"
  },
  {
   "alignment" : 4,
   "enum_fields" :
   [
    {
     "enum_field_value" : 0,
     "name" : "LOG_ID_MIN"
    },
    {
     "enum_field_value" : 0,
     "name" : "LOG_ID_MAIN"
    },
    {
     "enum_field_value" : 1,
     "name" : "LOG_ID_RADIO"
    },
    {
     "enum_field_value" : 2,
     "name" : "LOG_ID_EVENTS"
    },
    {
     "enum_field_value" : 3,
     "name" : "LOG_ID_SYSTEM"
    },
    {
     "enum_field_value" : 4,
     "name" : "LOG_ID_CRASH"
    },
    {
     "enum_field_value" : 5,
     "name" : "LOG_ID_STATS"
    },
    {
     "enum_field_value" : 6,
     "name" : "LOG_ID_SECURITY"
    },
    {
     "enum_field_value" : 7,
     "name" : "LOG_ID_KERNEL"
    },
    {
     "enum_field_value" : 8,
     "name" : "LOG_ID_MAX"
    }
   ],
   "linker_set_key" : "log_id",
   "name" : "log_id",
   "referenced_type" : "type-239",
   "self_type" : "type-239",
   "size" : 4,
   "source_file" : "/system/core/liblog/include/android/log.h",
   "underlying_type" : "type-2",
   "unique_id" : "log_id"
  }
 ],
 "function_types" :
 [
  {
   "alignment" : 4,
   "linker_set_key" : "bool (const android::String16 &, const android::sp<android::hardware::IBinder> &, void *)",
   "name" : "bool (const android::String16 &, const android::sp<android::hardware::IBinder> &, void *)",
   "parameters" :
   [
    {
     "referenced_type" : "type-39"
    },
    {
     "referenced_type" : "type-45"
    },
    {
     "referenced_type" : "type-21"
    }
   ],
   "referenced_type" : "type-38",
   "return_type" : "type-36",
   "self_type" : "type-38",
   "source_file" : "/system/libhwbinder/include/hwbinder/ProcessState.h"
  },
  {
   "alignment" : 4,
   "linker_set_key" : "int (void *)",
   "name" : "int (void *)",
   "parameters" :
   [
    {
     "referenced_type" : "type-21"
    }
   ],
   "referenced_type" : "type-471",
   "return_type" : "type-20",
   "self_type" : "type-471",
   "source_file" : "/system/core/libutils/include/utils/AndroidThreads.h"
  },
  {
   "alignment" : 4,
   "linker_set_key" : "void (android::hardware::Parcel *, const unsigned char *, unsigned long, const unsigned long long *, unsigned long, void *)",
   "name" : "void (android::hardware::Parcel *, const unsigned char *, unsigned long, const unsigned long long *, unsigned long, void *)",
   "parameters" :
   [
    {
     "referenced_type" : "type-380"
    },
    {
     "referenced_type" : "type-329"
    },
    {
     "referenced_type" : "type-25"
    },
    {
     "referenced_type" : "type-381"
    },
    {
     "referenced_type" : "type-25"
    },
    {
     "referenced_type" : "type-21"
    }
   ],
   "referenced_type" : "type-379",
   "return_type" : "type-22",
   "self_type" : "type-379",
   "source_file" : "/system/libhwbinder/include/hwbinder/Parcel.h"
  }
 ],
 "functions" :
 [
  {
   "function_name" : "android::frameworks::stats::V1_0::VendorAtom::Value::floatValue",
   "linker_set_key" : "_ZN7android10frameworks5stats4V1_010VendorAtom5Value10floatValueEf",
   "parameters" :
   [
    {
     "is_this_ptr" : true,
     "referenced_type" : "type-316"
    },
    {
     "referenced_type" : "type-222"
    }
   ],
   "return_type" : "type-22",
   "source_file" : "/out/soong/.intermediates/frameworks/hardware/interfaces/stats/1.0/android.frameworks.stats@1.0_genc++_headers/gen/android/frameworks/stats/1.0/types.h"
  },
  {
   "function_name" : "android::frameworks::stats::V1_0::VendorAtom::Value::floatValue",
   "linker_set_key" : "_ZN7android10frameworks5stats4V1_010VendorAtom5Value10floatValueEv",
   "parameters" :
   [
    {
     "is_this_ptr" : true,
     "referenced_type" : "type-316"
    }
   ],
   "return_type" : "type-625",
   "source_file" : "/out/soong/.intermediates/frameworks/hardware/interfaces/stats/1.0/android.frameworks.stats@1.0_genc++_headers/gen/android/frameworks/stats/1.0/types.h"
  },
  {
   "function_name" : "android::frameworks::stats::V1_0::VendorAtom::Value::hidl_union::hidl_union",
   "linker_set_key" : "_ZN7android10frameworks5stats4V1_010VendorAtom5Value10hidl_unionC1Ev",
   "parameters" :
   [
    {
     "is_this_ptr" : true,
     "referenced_type" : "type-628"
    }
   ],
   "return_type" : "type-22",
   "source_file" : "/out/soong/.intermediates/frameworks/hardware/interfaces/stats/1.0/android.frameworks.stats@1.0_genc++_headers/gen/android/frameworks/stats/1.0/types.h"
  },
  {
   "function_name" : "android::frameworks::stats::V1_0::VendorAtom::Value::hidl_union::hidl_union",
   "linker_set_key" : "_ZN7android10frameworks5stats4V1_010VendorAtom5Value10hidl_unionC2Ev",
   "parameters" :
   [
    {
     "is_this_ptr" : true,
     "referenced_type" : "type-628"
    }
   ],
   "return_type" : "type-22",
   "source_file" : "/out/soong/.intermediates/frameworks/hardware/interfaces/stats/1.0/android.frameworks.stats@1.0_genc++_headers/gen/android/frameworks/stats/1.0/types.h"
  },
  {
   "function_name" : "android::frameworks::stats::V1_0::VendorAtom::Value::hidl_union::~hidl_union",
   "linker_set_key" : "_ZN7android10frameworks5stats4V1_010VendorAtom5Value10hidl_unionD1Ev",
   "parameters" :
   [
    {
     "is_this_ptr" : true,
     "referenced_type" : "type-628"
    }
   ],
   "return_type" : "type-22",
   "source_file" : "/out/soong/.intermediates/frameworks/hardware/interfaces/stats/1.0/android.frameworks.stats@1.0_genc++_headers/gen/android/frameworks/stats/1.0/types.h"
  },
  {
   "function_name" : "android::frameworks::stats::V1_0::VendorAtom::Value::hidl_union::~hidl_union",
   "linker_set_key" : "_ZN7android10frameworks5stats4V1_010VendorAtom5Value10hidl_unionD2Ev",
   "parameters" :
   [
    {
     "is_this_ptr" : true,
     "referenced_type" : "type-628"
    }
   ],
   "return_type" : "type-22",
   "source_file" : "/out/soong/.intermediates/frameworks/hardware/interfaces/stats/1.0/android.frameworks.stats@1.0_genc++_headers/gen/android/frameworks/stats/1.0/types.h"
  },
  {
   "function_name" : "android::frameworks::stats::V1_0::VendorAtom::Value::stringValue",
   "linker_set_key" : "_ZN7android10frameworks5stats4V1_010VendorAtom5Value11stringValueEONS_8hardware11hidl_stringE",
   "parameters" :
   [
    {
     "is_this_ptr" : true,
     "referenced_type" : "type-316"
    },
    {
     "referenced_type" : "type-627"
    }
   ],
   "return_type" : "type-22",
   "source_file" : "/out/soong/.intermediates/frameworks/hardware/interfaces/stats/1.0/android.frameworks.stats@1.0_genc++_headers/gen/android/frameworks/stats/1.0/types.h"
  },
  {
   "function_name" : "android::frameworks::stats::V1_0::VendorAtom::Value::stringValue",
   "linker_set_key" : "_ZN7android10frameworks5stats4V1_010VendorAtom5Value11stringValueERKNS_8hardware11hidl_stringE",
   "parameters" :
   [
    {
     "is_this_ptr" : true,
     "referenced_type" : "type-316"
    },
    {
     "referenced_type" : "type-268"
    }
   ],
   "return_type" : "type-22",
   "source_file" : "/out/soong/.intermediates/frameworks/hardware/interfaces/stats/1.0/android.frameworks.stats@1.0_genc++_headers/gen/android/frameworks/stats/1.0/types.h"
  },
  {
   "function_name" : "android::frameworks::stats::V1_0::VendorAtom::Value::stringValue",
   "linker_set_key" : "_ZN7android10frameworks5stats4V1_010VendorAtom5Value11stringValueEv",
   "parameters" :
   [
    {
     "is_this_ptr" : true,
     "referenced_type" : "type-316"
    }
   ],
   "return_type" : "type-584",
   "source_file" : "/out/soong/.intermediates/frameworks/hardware/interfaces/stats/1.0/android.frameworks.stats@1.0_genc++_headers/gen/android/frameworks/stats/1.0/types.h"
  },
  {
   "access" : "private",
   "function_name" : "android::frameworks::stats::V1_0::VendorAtom::Value::hidl_destructUnion",
   "linker_set_key" : "_ZN7android10frameworks5stats4V1_010VendorAtom5Value18hidl_destructUnionEv",
   "parameters" :
   [
    {
     "is_this_ptr" : true,
     "referenced_type" : "type-316"
    }
   ],
   "return_type" : "type-22",
   "source_file" : "/out/soong/.intermediates/frameworks/hardware/interfaces/stats/1.0/android.frameworks.stats@1.0_genc++_headers/gen/android/frameworks/stats/1.0/types.h"
  },
  {
   "function_name" : "android::frameworks::stats::V1_0::VendorAtom::Value::intValue",
   "linker_set_key" : "_ZN7android10frameworks5stats4V1_010VendorAtom5Value8intValueEi",
   "parameters" :
   [
    {
     "is_this_ptr" : true,
     "referenced_type" : "type-316"
    },
    {
     "referenced_type" : "type-20"
    }
   ],
   "return_type" : "type-22",
   "source_file" : "/out/soong/.intermediates/frameworks/hardware/interfaces/stats/1.0/android.frameworks.stats@1.0_genc++_headers/gen/android/frameworks/stats/1.0/types.h"
  },
  {
   "function_name" : "android::frameworks::stats::V1_0::VendorAtom::Value::intValue",
   "linker_set_key" : "_ZN7android10frameworks5stats4V1_010VendorAtom5Value8intValueEv",
   "parameters" :
   [
    {
     "is_this_ptr" : true,
     "referenced_type" : "type-316"
    }
   ],
   "return_type" : "type-511",
   "source_file" : "/out/soong/.intermediates/frameworks/hardware/interfaces/stats/1.0/android.frameworks.stats@1.0_genc++_headers/gen/android/frameworks/stats/1.0/types.h"
  },
  {
   "function_name" : "android::frameworks::stats::V1_0::VendorAtom::Value::longValue",
   "linker_set_key" : "_ZN7android10frameworks5stats4V1_010VendorAtom5Value9longValueEl",
   "parameters" :
   [
    {
     "is_this_ptr" : true,
     "referenced_type" : "type-316"
    },
    {
     "referenced_type" : "type-26"
    }
   ],
   "return_type" : "type-22",
   "source_file" : "/out/soong/.intermediates/frameworks/hardware/interfaces/stats/1.0/android.frameworks.stats@1.0_genc++_headers/gen/android/frameworks/stats/1.0/types.h"
  },
  {
   "function_name" : "android::frameworks::stats::V1_0::VendorAtom::Value::longValue",
   "linker_set_key" : "_ZN7android10frameworks5stats4V1_010VendorAtom5Value9longValueEv",
   "parameters" :
   [
    {
     "is_this_ptr" : true,
     "referenced_type" : "type-316"
    }
   ],
   "return_type" : "type-624",
   "source_file" : "/out/soong/.intermediates/frameworks/hardware/interfaces/stats/1.0/android.frameworks.stats@1.0_genc++_headers/gen/android/frameworks/stats/1.0/types.h"
  },
  {
   "function_name" : "android::frameworks::stats::V1_0::VendorAtom::Value::Value",
   "linker_set_key" : "_ZN7android10frameworks5stats4V1_010VendorAtom5ValueC1EOS4_",
   "parameters" :
   [
    {
     "is_this_ptr" : true,
     "referenced_type" : "type-316"
    },
    {
     "referenced_type" : "type-623"
    }
   ],
   "return_type" : "type-22",
   "source_file" : "/out/soong/.intermediates/frameworks/hardware/interfaces/stats/1.0/android.frameworks.stats@1.0_genc++_headers/gen/android/frameworks/stats/1.0/types.h"
  },
  {
   "function_name" : "android::frameworks::stats::V1_0::VendorAtom::Value::Value",
   "linker_set_key" : "_ZN7android10frameworks5stats4V1_010VendorAtom5ValueC1ERKS4_",
   "parameters" :
   [
    {
     "is_this_ptr" : true,
     "referenced_type" : "type-316"
    },
    {
     "referenced_type" : "type-579"
    }
   ],
   "return_type" : "type-22",
   "source_file" : "/out/soong/.intermediates/frameworks/hardware/interfaces/stats/1.0/android.frameworks.stats@1.0_genc++_headers/gen/android/frameworks/stats/1.0/types.h"
  },
  {
   "function_name" : "android::frameworks::stats::V1_0::VendorAtom::Value::Value",
   "linker_set_key" : "_ZN7android10frameworks5stats4V1_010VendorAtom5ValueC1Ev",
   "parameters" :
   [
    {
     "is_this_ptr" : true,
     "referenced_type" : "type-316"
    }
   ],
   "return_type" : "type-22",
   "source_file" : "/out/soong/.intermediates/frameworks/hardware/interfaces/stats/1.0/android.frameworks.stats@1.0_genc++_headers/gen/android/frameworks/stats/1.0/types.h"
  },
  {
   "function_name" : "android::frameworks::stats::V1_0::VendorAtom::Value::Value",
   "linker_set_key" : "_ZN7android10frameworks5stats4V1_010VendorAtom5ValueC2EOS4_",
   "parameters" :
   [
    {
     "is_this_ptr" : true,
     "referenced_type" : "type-316"
    },
    {
     "referenced_type" : "type-623"
    }
   ],
   "return_type" : "type-22",
   "source_file" : "/out/soong/.intermediates/frameworks/hardware/interfaces/stats/1.0/android.frameworks.stats@1.0_genc++_headers/gen/android/frameworks/stats/1.0/types.h"
  },
  {
   "function_name" : "android::frameworks::stats::V1_0::VendorAtom::Value::Value",
   "linker_set_key" : "_ZN7android10frameworks5stats4V1_010VendorAtom5ValueC2ERKS4_",
   "parameters" :
   [
    {
     "is_this_ptr" : true,
     "referenced_type" : "type-316"
    },
    {
     "referenced_type" : "type-579"
    }
   ],
   "return_type" : "type-22",
   "source_file" : "/out/soong/.intermediates/frameworks/hardware/interfaces/stats/1.0/android.frameworks.stats@1.0_genc++_headers/gen/android/frameworks/stats/1.0/types.h"
  },
  {
   "function_name" : "android::frameworks::stats::V1_0::VendorAtom::Value::Value",
   "linker_set_key" : "_ZN7android10frameworks5stats4V1_010VendorAtom5ValueC2Ev",
   "parameters" :
   [
    {
     "is_this_ptr" : true,
     "referenced_type" : "type-316"
    }
   ],
   "return_type" : "type-22",
   "source_file" : "/out/soong/.intermediates/frameworks/hardware/interfaces/stats/1.0/android.frameworks.stats@1.0_genc++_headers/gen/android/frameworks/stats/1.0/types.h"
  },
  {
   "function_name" : "android::frameworks::stats::V1_0::VendorAtom::Value::~Value",
   "linker_set_key" : "_ZN7android10frameworks5stats4V1_010VendorAtom5ValueD1Ev",
   "parameters" :
   [
    {
     "is_this_ptr" : true,
     "referenced_type" : "type-316"
    }
   ],
   "return_type" : "type-22",
   "source_file" : "/out/soong/.intermediates/frameworks/hardware/interfaces/stats/1.0/android.frameworks.stats@1.0_genc++_headers/gen/android/frameworks/stats/1.0/types.h"
  },
  {
   "function_name" : "android::frameworks::stats::V1_0::VendorAtom::Value::~Value",
   "linker_set_key" : "_ZN7android10frameworks5stats4V1_010VendorAtom5ValueD2Ev",
   "parameters" :
   [
    {
     "is_this_ptr" : true,
     "referenced_type" : "type-316"
    }
   ],
   "return_type" : "type-22",
   "source_file" : "/out/soong/.intermediates/frameworks/hardware/interfaces/stats/1.0/android.frameworks.stats@1.0_genc++_headers/gen/android/frameworks/stats/1.0/types.h"
  },
  {
   "function_name" : "android::frameworks::stats::V1_0::VendorAtom::Value::operator=",
   "linker_set_key" : "_ZN7android10frameworks5stats4V1_010VendorAtom5ValueaSEOS4_",
   "parameters" :
   [
    {
     "is_this_ptr" : true,
     "referenced_type" : "type-316"
    },
    {
     "referenced_type" : "type-623"
    }
   ],
   "return_type" : "type-578",
   "source_file" : "/out/soong/.intermediates/frameworks/hardware/interfaces/stats/1.0/android.frameworks.stats@1.0_genc++_headers/gen/android/frameworks/stats/1.0/types.h"
  },
  {
   "function_name" : "android::frameworks::stats::V1_0::VendorAtom::Value::operator=",
   "linker_set_key" : "_ZN7android10frameworks5stats4V1_010VendorAtom5ValueaSERKS4_",
   "parameters" :
   [
    {
     "is_this_ptr" : true,
     "referenced_type" : "type-316"
    },
    {
     "referenced_type" : "type-579"
    }
   ],
   "return_type" : "type-578",
   "source_file" : "/out/soong/.intermediates/frameworks/hardware/interfaces/stats/1.0/android.frameworks.stats@1.0_genc++_headers/gen/android/frameworks/stats/1.0/types.h"
  },
  {
   "function_name" : "android::frameworks::stats::V1_0::writeEmbeddedToParcel",
   "linker_set_key" : "_ZN7android10frameworks5stats4V1_021writeEmbeddedToParcelERKNS2_10VendorAtomEPNS_8hardware6ParcelEmm",
   "parameters" :
   [
    {
     "referenced_type" : "type-573"
    },
    {
     "referenced_type" : "type-380"
    },
    {
     "referenced_type" : "type-25"
    },
    {
     "referenced_type" : "type-25"
    }
   ],
   "return_type" : "type-20",
   "source_file" : "/out/soong/.intermediates/frameworks/hardware/interfaces/stats/1.0/android.frameworks.stats@1.0_genc++_headers/gen/android/frameworks/stats/1.0/hwtypes.h"
  },
  {
   "function_name" : "android::frameworks::stats::V1_0::writeEmbeddedToParcel",
   "linker_set_key" : "_ZN7android10frameworks5stats4V1_021writeEmbeddedToParcelERKNS2_12ChargeCyclesEPNS_8hardware6ParcelEmm",
   "parameters" :
   [
    {
     "referenced_type" : "type-561"
    },
    {
     "referenced_type" : "type-380"
    },
    {
     "referenced_type" : "type-25"
    },
    {
     "referenced_type" : "type-25"
    }
   ],
   "return_type" : "type-20",
   "source_file" : "/out/soong/.intermediates/frameworks/hardware/interfaces/stats/1.0/android.frameworks.stats@1.0_genc++_headers/gen/android/frameworks/stats/1.0/hwtypes.h"
  },
  {
   "function_name" : "android::frameworks::stats::V1_0::readEmbeddedFromParcel",
   "linker_set_key" : "_ZN7android10frameworks5stats4V1_022readEmbeddedFromParcelERKNS2_10VendorAtomERKNS_8hardware6ParcelEmm",
   "parameters" :
   [
    {
     "referenced_type" : "type-573"
    },
    {
     "referenced_type" : "type-388"
    },
    {
     "referenced_type" : "type-25"
    },
    {
     "referenced_type" : "type-25"
    }
   ],
   "return_type" : "type-20",
   "source_file" : "/out/soong/.intermediates/frameworks/hardware/interfaces/stats/1.0/android.frameworks.stats@1.0_genc++_headers/gen/android/frameworks/stats/1.0/hwtypes.h"
  },
  {
   "function_name" : "android::frameworks::stats::V1_0::readEmbeddedFromParcel",
   "linker_set_key" : "_ZN7android10frameworks5stats4V1_022readEmbeddedFromParcelERKNS2_12ChargeCyclesERKNS_8hardware6ParcelEmm",
   "parameters" :
   [
    {
     "referenced_type" : "type-561"
    },
    {
     "referenced_type" : "type-388"
    },
    {
     "referenced_type" : "type-25"
    },
    {
     "referenced_type" : "type-25"
    }
   ],
   "return_type" : "type-20",
   "source_file" : "/out/soong/.intermediates/frameworks/hardware/interfaces/stats/1.0/android.frameworks.stats@1.0_genc++_headers/gen/android/frameworks/stats/1.0/hwtypes.h"
  },
  {
   "function_name" : "android::frameworks::stats::V1_0::IStats::getService",
   "linker_set_key" : "_ZN7android10frameworks5stats4V1_06IStats10getServiceERKNSt3__112basic_stringIcNS4_11char_traitsIcEENS4_9allocatorIcEEEEb",
   "parameters" :
   [
    {
     "default_arg" : true,
     "referenced_type" : "type-399"
    },
    {
     "default_arg" : true,
     "referenced_type" : "type-36"
    }
   ],
   "return_type" : "type-92",
   "source_file" : "/out/soong/.intermediates/frameworks/hardware/interfaces/stats/1.0/android.frameworks.stats@1.0_genc++_headers/gen/android/frameworks/stats/1.0/IStats.h"
  },
  {
   "function_name" : "android::frameworks::stats::V1_0::IStats::linkToDeath",
   "linker_set_key" : "_ZN7android10frameworks5stats4V1_06IStats11linkToDeathERKNS_2spINS_8hardware20hidl_death_recipientEEEm",
   "parameters" :
   [
    {
     "is_this_ptr" : true,
     "referenced_type" : "type-93"
    },
    {
     "referenced_type" : "type-434"
    },
    {
     "referenced_type" : "type-25"
    }
   ],
   "return_type" : "type-127",
   "source_file" : "/out/soong/.intermediates/frameworks/hardware/interfaces/stats/1.0/android.frameworks.stats@1.0_genc++_headers/gen/android/frameworks/stats/1.0/IStats.h"
  },
  {
   "function_name" : "android::frameworks::stats::V1_0::IStats::getDebugInfo",
   "linker_set_key" : "_ZN7android10frameworks5stats4V1_06IStats12getDebugInfoENSt3__18functionIFvRKNS_4hidl4base4V1_09DebugInfoEEEE",
   "parameters" :
   [
    {
     "is_this_ptr" : true,
     "referenced_type" : "type-93"
    },
    {
     "referenced_type" : "type-645"
    }
   ],
   "return_type" : "type-147",
   "source_file" : "/out/soong/.intermediates/frameworks/hardware/interfaces/stats/1.0/android.frameworks.stats@1.0_genc++_headers/gen/android/frameworks/stats/1.0/IStats.h"
  },
  {
   "function_name" : "android::frameworks::stats::V1_0::IStats::getHashChain",
   "linker_set_key" : "_ZN7android10frameworks5stats4V1_06IStats12getHashChainENSt3__18functionIFvRKNS_8hardware8hidl_vecINS6_10hidl_arrayIhLm32EJEEEEEEEE",
   "parameters" :
   [
    {
     "is_this_ptr" : true,
     "referenced_type" : "type-93"
    },
    {
     "referenced_type" : "type-646"
    }
   ],
   "return_type" : "type-147",
   "source_file" : "/out/soong/.intermediates/frameworks/hardware/interfaces/stats/1.0/android.frameworks.stats@1.0_genc++_headers/gen/android/frameworks/stats/1.0/IStats.h"
  },
  {
   "function_name" : "android::frameworks::stats::V1_0::IStats::tryGetService",
   "linker_set_key" : "_ZN7android10frameworks5stats4V1_06IStats13tryGetServiceERKNSt3__112basic_stringIcNS4_11char_traitsIcEENS4_9allocatorIcEEEEb",
   "parameters" :
   [
    {
     "default_arg" : true,
     "referenced_type" : "type-399"
    },
    {
     "default_arg" : true,
     "referenced_type" : "type-36"
    }
   ],
   "return_type" : "type-92",
   "source_file" : "/out/soong/.intermediates/frameworks/hardware/interfaces/stats/1.0/android.frameworks.stats@1.0_genc++_headers/gen/android/frameworks/stats/1.0/IStats.h"
  },
  {
   "function_name" : "android::frameworks::stats::V1_0::IStats::unlinkToDeath",
   "linker_set_key" : "_ZN7android10frameworks5stats4V1_06IStats13unlinkToDeathERKNS_2spINS_8hardware20hidl_death_recipientEEE",
   "parameters" :
   [
    {
     "is_this_ptr" : true,
     "referenced_type" : "type-93"
    },
    {
     "referenced_type" : "type-434"
    }
   ],
   "return_type" : "type-127",
   "source_file" : "/out/soong/.intermediates/frameworks/hardware/interfaces/stats/1.0/android.frameworks.stats@1.0_genc++_headers/gen/android/frameworks/stats/1.0/IStats.h"
  },
  {
   "function_name" : "android::frameworks::stats::V1_0::IStats::interfaceChain",
   "linker_set_key" : "_ZN7android10frameworks5stats4V1_06IStats14interfaceChainENSt3__18functionIFvRKNS_8hardware8hidl_vecINS6_11hidl_stringEEEEEE",
   "parameters" :
   [
    {
     "is_this_ptr" : true,
     "referenced_type" : "type-93"
    },
    {
     "referenced_type" : "type-647"
    }
   ],
   "return_type" : "type-147",
   "source_file" : "/out/soong/.intermediates/frameworks/hardware/interfaces/stats/1.0/android.frameworks.stats@1.0_genc++_headers/gen/android/frameworks/stats/1.0/IStats.h"
  },
  {
   "function_name" : "android::frameworks::stats::V1_0::IStats::registerAsService",
   "linker_set_key" : "_ZN7android10frameworks5stats4V1_06IStats17registerAsServiceERKNSt3__112basic_stringIcNS4_11char_traitsIcEENS4_9allocatorIcEEEE",
   "parameters" :
   [
    {
     "is_this_ptr" : true,
     "referenced_type" : "type-93"
    },
    {
     "default_arg" : true,
     "referenced_type" : "type-399"
    }
   ],
   "return_type" : "type-20",
   "source_file" : "/out/soong/.intermediates/frameworks/hardware/interfaces/stats/1.0/android.frameworks.stats@1.0_genc++_headers/gen/android/frameworks/stats/1.0/IStats.h"
  },
  {
   "function_name" : "android::frameworks::stats::V1_0::IStats::interfaceDescriptor",
   "linker_set_key" : "_ZN7android10frameworks5stats4V1_06IStats19interfaceDescriptorENSt3__18functionIFvRKNS_8hardware11hidl_stringEEEE",
   "parameters" :
   [
    {
     "is_this_ptr" : true,
     "referenced_type" : "type-93"
    },
    {
     "referenced_type" : "type-648"
    }
   ],
   "return_type" : "type-147",
   "source_file" : "/out/soong/.intermediates/frameworks/hardware/interfaces/stats/1.0/android.frameworks.stats@1.0_genc++_headers/gen/android/frameworks/stats/1.0/IStats.h"
  },
  {
   "function_name" : "android::frameworks::stats::V1_0::IStats::notifySyspropsChanged",
   "linker_set_key" : "_ZN7android10frameworks5stats4V1_06IStats21notifySyspropsChangedEv",
   "parameters" :
   [
    {
     "is_this_ptr" : true,
     "referenced_type" : "type-93"
    }
   ],
   "return_type" : "type-147",
   "source_file" : "/out/soong/.intermediates/frameworks/hardware/interfaces/stats/1.0/android.frameworks.stats@1.0_genc++_headers/gen/android/frameworks/stats/1.0/IStats.h"
  },
  {
   "function_name" : "android::frameworks::stats::V1_0::IStats::setHALInstrumentation",
   "linker_set_key" : "_ZN7android10frameworks5stats4V1_06IStats21setHALInstrumentationEv",
   "parameters" :
   [
    {
     "is_this_ptr" : true,
     "referenced_type" : "type-93"
    }
   ],
   "return_type" : "type-147",
   "source_file" : "/out/soong/.intermediates/frameworks/hardware/interfaces/stats/1.0/android.frameworks.stats@1.0_genc++_headers/gen/android/frameworks/stats/1.0/IStats.h"
  },
  {
   "function_name" : "android::frameworks::stats::V1_0::IStats::registerForNotifications",
   "linker_set_key" : "_ZN7android10frameworks5stats4V1_06IStats24registerForNotificationsERKNSt3__112basic_stringIcNS4_11char_traitsIcEENS4_9allocatorIcEEEERKNS_2spINS_4hidl7manager4V1_020IServiceNotificationEEE",
   "parameters" :
   [
    {
     "referenced_type" : "type-399"
    },
    {
     "referenced_type" : "type-543"
    }
   ],
   "return_type" : "type-36",
   "source_file" : "/out/soong/.intermediates/frameworks/hardware/interfaces/stats/1.0/android.frameworks.stats@1.0_genc++_headers/gen/android/frameworks/stats/1.0/IStats.h"
  },
  {
   "function_name" : "android::frameworks::stats::V1_0::IStats::ping",
   "linker_set_key" : "_ZN7android10frameworks5stats4V1_06IStats4pingEv",
   "parameters" :
   [
    {
     "is_this_ptr" : true,
     "referenced_type" : "type-93"
    }
   ],
   "return_type" : "type-147",
   "source_file" : "/out/soong/.intermediates/frameworks/hardware/interfaces/stats/1.0/android.frameworks.stats@1.0_genc++_headers/gen/android/frameworks/stats/1.0/IStats.h"
  },
  {
   "function_name" : "android::frameworks::stats::V1_0::IStats::debug",
   "linker_set_key" : "_ZN7android10frameworks5stats4V1_06IStats5debugERKNS_8hardware11hidl_handleERKNS4_8hidl_vecINS4_11hidl_stringEEE",
   "parameters" :
   [
    {
     "is_this_ptr" : true,
     "referenced_type" : "type-93"
    },
    {
     "referenced_type" : "type-338"
    },
    {
     "referenced_type" : "type-542"
    }
   ],
   "return_type" : "type-147",
   "source_file" : "/out/soong/.intermediates/frameworks/hardware/interfaces/stats/1.0/android.frameworks.stats@1.0_genc++_headers/gen/android/frameworks/stats/1.0/IStats.h"
  },
  {
   "function_name" : "android::frameworks::stats::V1_0::IStats::castFrom",
   "linker_set_key" : "_ZN7android10frameworks5stats4V1_06IStats8castFromERKNS_2spINS_4hidl4base4V1_05IBaseEEEb",
   "parameters" :
   [
    {
     "referenced_type" : "type-613"
    },
    {
     "default_arg" : true,
     "referenced_type" : "type-36"
    }
   ],
   "return_type" : "type-134",
   "source_file" : "/out/soong/.intermediates/frameworks/hardware/interfaces/stats/1.0/android.frameworks.stats@1.0_genc++_headers/gen/android/frameworks/stats/1.0/IStats.h"
  },
  {
   "function_name" : "android::frameworks::stats::V1_0::IStats::castFrom",
   "linker_set_key" : "_ZN7android10frameworks5stats4V1_06IStats8castFromERKNS_2spIS3_EEb",
   "parameters" :
   [
    {
     "referenced_type" : "type-168"
    },
    {
     "default_arg" : true,
     "referenced_type" : "type-36"
    }
   ],
   "return_type" : "type-134",
   "source_file" : "/out/soong/.intermediates/frameworks/hardware/interfaces/stats/1.0/android.frameworks.stats@1.0_genc++_headers/gen/android/frameworks/stats/1.0/IStats.h"
  },
  {
   "access" : "private",
   "function_name" : "android::frameworks::stats::V1_0::BsStats::addOnewayTask",
   "linker_set_key" : "_ZN7android10frameworks5stats4V1_07BsStats13addOnewayTaskENSt3__18functionIFvvEEE",
   "parameters" :
   [
    {
     "is_this_ptr" : true,
     "referenced_type" : "type-626"
    },
    {
     "referenced_type" : "type-651"
    }
   ],
   "return_type" : "type-147",
   "source_file" : "/out/soong/.intermediates/frameworks/hardware/interfaces/stats/1.0/android.frameworks.stats@1.0_genc++_headers/gen/android/frameworks/stats/1.0/BsStats.h"
  },
  {
   "function_name" : "android::frameworks::stats::V1_0::BsStats::BsStats",
   "linker_set_key" : "_ZN7android10frameworks5stats4V1_07BsStatsC1ENS_2spINS2_6IStatsEEE",
   "parameters" :
   [
    {
     "is_this_ptr" : true,
     "referenced_type" : "type-626"
    },
    {
     "referenced_type" : "type-98"
    }
   ],
   "return_type" : "type-22",
   "source_file" : "/out/soong/.intermediates/frameworks/hardware/interfaces/stats/1.0/android.frameworks.stats@1.0_genc++_headers/gen/android/frameworks/stats/1.0/BsStats.h"
  },
  {
   "function_name" : "android::frameworks::stats::V1_0::BsStats::BsStats",
   "linker_set_key" : "_ZN7android10frameworks5stats4V1_07BsStatsC2ENS_2spINS2_6IStatsEEE",
   "parameters" :
   [
    {
     "is_this_ptr" : true,
     "referenced_type" : "type-626"
    },
    {
     "referenced_type" : "type-98"
    }
   ],
   "return_type" : "type-22",
   "source_file" : "/out/soong/.intermediates/frameworks/hardware/interfaces/stats/1.0/android.frameworks.stats@1.0_genc++_headers/gen/android/frameworks/stats/1.0/BsStats.h"
  },
  {
   "function_name" : "android::frameworks::stats::V1_0::BnHwStats::onTransact",
   "linker_set_key" : "_ZN7android10frameworks5stats4V1_09BnHwStats10onTransactEjRKNS_8hardware6ParcelEPS5_jNSt3__18functionIFvRS5_EEE",
   "parameters" :
   [
    {
     "is_this_ptr" : true,
     "referenced_type" : "type-595"
    },
    {
     "referenced_type" : "type-2"
    },
    {
     "referenced_type" : "type-388"
    },
    {
     "referenced_type" : "type-380"
    },
    {
     "default_arg" : true,
     "referenced_type" : "type-2"
    },
    {
     "default_arg" : true,
     "referenced_type" : "type-654"
    }
   ],
   "return_type" : "type-20",
   "source_file" : "/out/soong/.intermediates/frameworks/hardware/interfaces/stats/1.0/android.frameworks.stats@1.0_genc++_headers/gen/android/frameworks/stats/1.0/BnHwStats.h"
  },
  {
   "access" : "private",
   "function_name" : "android::frameworks::stats::V1_0::BnHwStats::getDebugInfo",
   "linker_set_key" : "_ZN7android10frameworks5stats4V1_09BnHwStats12getDebugInfoENSt3__18functionIFvRKNS_4hidl4base4V1_09DebugInfoEEEE",
   "parameters" :
   [
    {
     "is_this_ptr" : true,
     "referenced_type" : "type-595"
    },
    {
     "referenced_type" : "type-655"
    }
   ],
   "return_type" : "type-147",
   "source_file" : "/out/soong/.intermediates/frameworks/hardware/interfaces/stats/1.0/android.frameworks.stats@1.0_genc++_headers/gen/android/frameworks/stats/1.0/BnHwStats.h"
  },
  {
   "function_name" : "android::frameworks::stats::V1_0::BnHwStats::_hidl_reportSlowIo",
   "linker_set_key" : "_ZN7android10frameworks5stats4V1_09BnHwStats18_hidl_reportSlowIoEPNS_4hidl4base4V1_08BnHwBaseERKNS_8hardware6ParcelEPSA_NSt3__18functionIFvRSA_EEE",
   "parameters" :
   [
    {
     "referenced_type" : "type-389"
    },
    {
     "referenced_type" : "type-388"
    },
    {
     "referenced_type" : "type-380"
    },
    {
     "referenced_type" : "type-656"
    }
   ],
   "return_type" : "type-20",
   "source_file" : "/out/soong/.intermediates/frameworks/hardware/interfaces/stats/1.0/android.frameworks.stats@1.0_genc++_headers/gen/android/frameworks/stats/1.0/BnHwStats.h"
  },
  {
   "function_name" : "android::frameworks::stats::V1_0::BnHwStats::_hidl_reportVendorAtom",
   "linker_set_key" : "_ZN7android10frameworks5stats4V1_09BnHwStats22_hidl_reportVendorAtomEPNS_4hidl4base4V1_08BnHwBaseERKNS_8hardware6ParcelEPSA_NSt3__18functionIFvRSA_EEE",
   "parameters" :
   [
    {
     "referenced_type" : "type-389"
    },
    {
     "referenced_type" : "type-388"
    },
    {
     "referenced_type" : "type-380"
    },
    {
     "referenced_type" : "type-657"
    }
   ],
   "return_type" : "type-20",
   "source_file" : "/out/soong/.intermediates/frameworks/hardware/interfaces/stats/1.0/android.frameworks.stats@1.0_genc++_headers/gen/android/frameworks/stats/1.0/BnHwStats.h"
  },
  {
   "function_name" : "android::frameworks::stats::V1_0::BnHwStats::_hidl_reportChargeCycles",
   "linker_set_key" : "_ZN7android10frameworks5stats4V1_09BnHwStats24_hidl_reportChargeCyclesEPNS_4hidl4base4V1_08BnHwBaseERKNS_8hardware6ParcelEPSA_NSt3__18functionIFvRSA_EEE",
   "parameters" :
   [
    {
     "referenced_type" : "type-389"
    },
    {
     "referenced_type" : "type-388"
    },
    {
     "referenced_type" : "type-380"
    },
    {
     "referenced_type" : "type-658"
    }
   ],
   "return_type" : "type-20",
   "source_file" : "/out/soong/.intermediates/frameworks/hardware/interfaces/stats/1.0/android.frameworks.stats@1.0_genc++_headers/gen/android/frameworks/stats/1.0/BnHwStats.h"
  },
  {
   "function_name" : "android::frameworks::stats::V1_0::BnHwStats::_hidl_reportSpeechDspStat",
   "linker_set_key" : "_ZN7android10frameworks5stats4V1_09BnHwStats25_hidl_reportSpeechDspStatEPNS_4hidl4base4V1_08BnHwBaseERKNS_8hardware6ParcelEPSA_NSt3__18functionIFvRSA_EEE",
   "parameters" :
   [
    {
     "referenced_type" : "type-389"
    },
    {
     "referenced_type" : "type-388"
    },
    {
     "referenced_type" : "type-380"
    },
    {
     "referenced_type" : "type-659"
    }
   ],
   "return_type" : "type-20",
   "source_file" : "/out/soong/.intermediates/frameworks/hardware/interfaces/stats/1.0/android.frameworks.stats@1.0_genc++_headers/gen/android/frameworks/stats/1.0/BnHwStats.h"
  },
  {
   "function_name" : "android::frameworks::stats::V1_0::BnHwStats::_hidl_reportHardwareFailed",
   "linker_set_key" : "_ZN7android10frameworks5stats4V1_09BnHwStats26_hidl_reportHardwareFailedEPNS_4hidl4base4V1_08BnHwBaseERKNS_8hardware6ParcelEPSA_NSt3__18functionIFvRSA_EEE",
   "parameters" :
   [
    {
     "referenced_type" : "type-389"
    },
    {
     "referenced_type" : "type-388"
    },
    {
     "referenced_type" : "type-380"
    },
    {
     "referenced_type" : "type-660"
    }
   ],
   "return_type" : "type-20",
   "source_file" : "/out/soong/.intermediates/frameworks/hardware/interfaces/stats/1.0/android.frameworks.stats@1.0_genc++_headers/gen/android/frameworks/stats/1.0/BnHwStats.h"
  },
  {
   "function_name" : "android::frameworks::stats::V1_0::BnHwStats::_hidl_reportSpeakerImpedance",
   "linker_set_key" : "_ZN7android10frameworks5stats4V1_09BnHwStats28_hidl_reportSpeakerImpedanceEPNS_4hidl4base4V1_08BnHwBaseERKNS_8hardware6ParcelEPSA_NSt3__18functionIFvRSA_EEE",
   "parameters" :
   [
    {
     "referenced_type" : "type-389"
    },
    {
     "referenced_type" : "type-388"
    },
    {
     "referenced_type" : "type-380"
    },
    {
     "referenced_type" : "type-661"
    }
   ],
   "return_type" : "type-20",
   "source_file" : "/out/soong/.intermediates/frameworks/hardware/interfaces/stats/1.0/android.frameworks.stats@1.0_genc++_headers/gen/android/frameworks/stats/1.0/BnHwStats.h"
  },
  {
   "function_name" : "android::frameworks::stats::V1_0::BnHwStats::_hidl_reportPhysicalDropDetected",
   "linker_set_key" : "_ZN7android10frameworks5stats4V1_09BnHwStats32_hidl_reportPhysicalDropDetectedEPNS_4hidl4base4V1_08BnHwBaseERKNS_8hardware6ParcelEPSA_NSt3__18functionIFvRSA_EEE",
   "parameters" :
   [
    {
     "referenced_type" : "type-389"
    },
    {
     "referenced_type" : "type-388"
    },
    {
     "referenced_type" : "type-380"
    },
    {
     "referenced_type" : "type-662"
    }
   ],
   "return_type" : "type-20",
   "source_file" : "/out/soong/.intermediates/frameworks/hardware/interfaces/stats/1.0/android.frameworks.stats@1.0_genc++_headers/gen/android/frameworks/stats/1.0/BnHwStats.h"
  },
  {
   "function_name" : "android::frameworks::stats::V1_0::BnHwStats::_hidl_reportUsbPortOverheatEvent",
   "linker_set_key" : "_ZN7android10frameworks5stats4V1_09BnHwStats32_hidl_reportUsbPortOverheatEventEPNS_4hidl4base4V1_08BnHwBaseERKNS_8hardware6ParcelEPSA_NSt3__18functionIFvRSA_EEE",
   "parameters" :
   [
    {
     "referenced_type" : "type-389"
    },
    {
     "referenced_type" : "type-388"
    },
    {
     "referenced_type" : "type-380"
    },
    {
     "referenced_type" : "type-663"
    }
   ],
   "return_type" : "type-20",
   "source_file" : "/out/soong/.intermediates/frameworks/hardware/interfaces/stats/1.0/android.frameworks.stats@1.0_genc++_headers/gen/android/frameworks/stats/1.0/BnHwStats.h"
  },
  {
   "function_name" : "android::frameworks::stats::V1_0::BnHwStats::_hidl_reportBatteryCausedShutdown",
   "linker_set_key" : "_ZN7android10frameworks5stats4V1_09BnHwStats33_hidl_reportBatteryCausedShutdownEPNS_4hidl4base4V1_08BnHwBaseERKNS_8hardware6ParcelEPSA_NSt3__18functionIFvRSA_EEE",
   "parameters" :
   [
    {
     "referenced_type" : "type-389"
    },
    {
     "referenced_type" : "type-388"
    },
    {
     "referenced_type" : "type-380"
    },
    {
     "referenced_type" : "type-664"
    }
   ],
   "return_type" : "type-20",
   "source_file" : "/out/soong/.intermediates/frameworks/hardware/interfaces/stats/1.0/android.frameworks.stats@1.0_genc++_headers/gen/android/frameworks/stats/1.0/BnHwStats.h"
  },
  {
   "function_name" : "android::frameworks::stats::V1_0::BnHwStats::_hidl_reportBatteryHealthSnapshot",
   "linker_set_key" : "_ZN7android10frameworks5stats4V1_09BnHwStats33_hidl_reportBatteryHealthSnapshotEPNS_4hidl4base4V1_08BnHwBaseERKNS_8hardware6ParcelEPSA_NSt3__18functionIFvRSA_EEE",
   "parameters" :
   [
    {
     "referenced_type" : "type-389"
    },
    {
     "referenced_type" : "type-388"
    },
    {
     "referenced_type" : "type-380"
    },
    {
     "referenced_type" : "type-665"
    }
   ],
   "return_type" : "type-20",
   "source_file" : "/out/soong/.intermediates/frameworks/hardware/interfaces/stats/1.0/android.frameworks.stats@1.0_genc++_headers/gen/android/frameworks/stats/1.0/BnHwStats.h"
  },
  {
   "access" : "private",
   "function_name" : "android::frameworks::stats::V1_0::BnHwStats::ping",
   "linker_set_key" : "_ZN7android10frameworks5stats4V1_09BnHwStats4pingEv",
   "parameters" :
   [
    {
     "is_this_ptr" : true,
     "referenced_type" : "type-595"
    }
   ],
   "return_type" : "type-147",
   "source_file" : "/out/soong/.intermediates/frameworks/hardware/interfaces/stats/1.0/android.frameworks.stats@1.0_genc++_headers/gen/android/frameworks/stats/1.0/BnHwStats.h"
  },
  {
   "function_name" : "android::frameworks::stats::V1_0::BnHwStats::BnHwStats",
   "linker_set_key" : "_ZN7android10frameworks5stats4V1_09BnHwStatsC1ERKNS_2spINS2_6IStatsEEE",
   "parameters" :
   [
    {
     "is_this_ptr" : true,
     "referenced_type" : "type-595"
    },
    {
     "referenced_type" : "type-168"
    }
   ],
   "return_type" : "type-22",
   "source_file" : "/out/soong/.intermediates/frameworks/hardware/interfaces/stats/1.0/android.frameworks.stats@1.0_genc++_headers/gen/android/frameworks/stats/1.0/BnHwStats.h"
  },
  {
   "function_name" : "android::frameworks::stats::V1_0::BnHwStats::BnHwStats",
   "linker_set_key" : "_ZN7android10frameworks5stats4V1_09BnHwStatsC2ERKNS_2spINS2_6IStatsEEE",
   "parameters" :
   [
    {
     "is_this_ptr" : true,
     "referenced_type" : "type-595"
    },
    {
     "referenced_type" : "type-168"
    }
   ],
   "return_type" : "type-22",
   "source_file" : "/out/soong/.intermediates/frameworks/hardware/interfaces/stats/1.0/android.frameworks.stats@1.0_genc++_headers/gen/android/frameworks/stats/1.0/BnHwStats.h"
  },
  {
   "function_name" : "android::frameworks::stats::V1_0::BnHwStats::~BnHwStats",
   "linker_set_key" : "_ZN7android10frameworks5stats4V1_09BnHwStatsD0Ev",
   "parameters" :
   [
    {
     "is_this_ptr" : true,
     "referenced_type" : "type-595"
    }
   ],
   "return_type" : "type-22",
   "source_file" : "/out/soong/.intermediates/frameworks/hardware/interfaces/stats/1.0/android.frameworks.stats@1.0_genc++_headers/gen/android/frameworks/stats/1.0/BnHwStats.h"
  },
  {
   "function_name" : "android::frameworks::stats::V1_0::BnHwStats::~BnHwStats",
   "linker_set_key" : "_ZN7android10frameworks5stats4V1_09BnHwStatsD1Ev",
   "parameters" :
   [
    {
     "is_this_ptr" : true,
     "referenced_type" : "type-595"
    }
   ],
   "return_type" : "type-22",
   "source_file" : "/out/soong/.intermediates/frameworks/hardware/interfaces/stats/1.0/android.frameworks.stats@1.0_genc++_headers/gen/android/frameworks/stats/1.0/BnHwStats.h"
  },
  {
   "function_name" : "android::frameworks::stats::V1_0::BnHwStats::~BnHwStats",
   "linker_set_key" : "_ZN7android10frameworks5stats4V1_09BnHwStatsD2Ev",
   "parameters" :
   [
    {
     "is_this_ptr" : true,
     "referenced_type" : "type-595"
    }
   ],
   "return_type" : "type-22",
   "source_file" : "/out/soong/.intermediates/frameworks/hardware/interfaces/stats/1.0/android.frameworks.stats@1.0_genc++_headers/gen/android/frameworks/stats/1.0/BnHwStats.h"
  },
  {
   "function_name" : "android::frameworks::stats::V1_0::BpHwStats::linkToDeath",
   "linker_set_key" : "_ZN7android10frameworks5stats4V1_09BpHwStats11linkToDeathERKNS_2spINS_8hardware20hidl_death_recipientEEEm",
   "parameters" :
   [
    {
     "is_this_ptr" : true,
     "referenced_type" : "type-640"
    },
    {
     "referenced_type" : "type-434"
    },
    {
     "referenced_type" : "type-25"
    }
   ],
   "return_type" : "type-127",
   "source_file" : "/out/soong/.intermediates/frameworks/hardware/interfaces/stats/1.0/android.frameworks.stats@1.0_genc++_headers/gen/android/frameworks/stats/1.0/BpHwStats.h"
  },
  {
   "function_name" : "android::frameworks::stats::V1_0::BpHwStats::getDebugInfo",
   "linker_set_key" : "_ZN7android10frameworks5stats4V1_09BpHwStats12getDebugInfoENSt3__18functionIFvRKNS_4hidl4base4V1_09DebugInfoEEEE",
   "parameters" :
   [
    {
     "is_this_ptr" : true,
     "referenced_type" : "type-640"
    },
    {
     "referenced_type" : "type-666"
    }
   ],
   "return_type" : "type-147",
   "source_file" : "/out/soong/.intermediates/frameworks/hardware/interfaces/stats/1.0/android.frameworks.stats@1.0_genc++_headers/gen/android/frameworks/stats/1.0/BpHwStats.h"
  },
  {
   "function_name" : "android::frameworks::stats::V1_0::BpHwStats::getHashChain",
   "linker_set_key" : "_ZN7android10frameworks5stats4V1_09BpHwStats12getHashChainENSt3__18functionIFvRKNS_8hardware8hidl_vecINS6_10hidl_arrayIhLm32EJEEEEEEEE",
   "parameters" :
   [
    {
     "is_this_ptr" : true,
     "referenced_type" : "type-640"
    },
    {
     "referenced_type" : "type-667"
    }
   ],
   "return_type" : "type-147",
   "source_file" : "/out/soong/.intermediates/frameworks/hardware/interfaces/stats/1.0/android.frameworks.stats@1.0_genc++_headers/gen/android/frameworks/stats/1.0/BpHwStats.h"
  },
  {
   "function_name" : "android::frameworks::stats::V1_0::BpHwStats::reportSlowIo",
   "linker_set_key" : "_ZN7android10frameworks5stats4V1_09BpHwStats12reportSlowIoERKNS2_6SlowIoE",
   "parameters" :
   [
    {
     "is_this_ptr" : true,
     "referenced_type" : "type-640"
    },
    {
     "referenced_type" : "type-565"
    }
   ],
   "return_type" : "type-147",
   "source_file" : "/out/soong/.intermediates/frameworks/hardware/interfaces/stats/1.0/android.frameworks.stats@1.0_genc++_headers/gen/android/frameworks/stats/1.0/BpHwStats.h"
  },
  {
   "function_name" : "android::frameworks::stats::V1_0::BpHwStats::unlinkToDeath",
   "linker_set_key" : "_ZN7android10frameworks5stats4V1_09BpHwStats13unlinkToDeathERKNS_2spINS_8hardware20hidl_death_recipientEEE",
   "parameters" :
   [
    {
     "is_this_ptr" : true,
     "referenced_type" : "type-640"
    },
    {
     "referenced_type" : "type-434"
    }
   ],
   "return_type" : "type-127",
   "source_file" : "/out/soong/.intermediates/frameworks/hardware/interfaces/stats/1.0/android.frameworks.stats@1.0_genc++_headers/gen/android/frameworks/stats/1.0/BpHwStats.h"
  },
  {
   "function_name" : "android::frameworks::stats::V1_0::BpHwStats::interfaceChain",
   "linker_set_key" : "_ZN7android10frameworks5stats4V1_09BpHwStats14interfaceChainENSt3__18functionIFvRKNS_8hardware8hidl_vecINS6_11hidl_stringEEEEEE",
   "parameters" :
   [
    {
     "is_this_ptr" : true,
     "referenced_type" : "type-640"
    },
    {
     "referenced_type" : "type-668"
    }
   ],
   "return_type" : "type-147",
   "source_file" : "/out/soong/.intermediates/frameworks/hardware/interfaces/stats/1.0/android.frameworks.stats@1.0_genc++_headers/gen/android/frameworks/stats/1.0/BpHwStats.h"
  },
  {
   "function_name" : "android::frameworks::stats::V1_0::BpHwStats::reportVendorAtom",
   "linker_set_key" : "_ZN7android10frameworks5stats4V1_09BpHwStats16reportVendorAtomERKNS2_10VendorAtomE",
   "parameters" :
   [
    {
     "is_this_ptr" : true,
     "referenced_type" : "type-640"
    },
    {
     "referenced_type" : "type-573"
    }
   ],
   "return_type" : "type-147",
   "source_file" : "/out/soong/.intermediates/frameworks/hardware/interfaces/stats/1.0/android.frameworks.stats@1.0_genc++_headers/gen/android/frameworks/stats/1.0/BpHwStats.h"
  },
  {
   "function_name" : "android::frameworks::stats::V1_0::BpHwStats::_hidl_reportSlowIo",
   "linker_set_key" : "_ZN7android10frameworks5stats4V1_09BpHwStats18_hidl_reportSlowIoEPNS_8hardware10IInterfaceEPNS4_7details16HidlInstrumentorERKNS2_6SlowIoE",
   "parameters" :
   [
    {
     "referenced_type" : "type-15"
    },
    {
     "referenced_type" : "type-594"
    },
    {
     "referenced_type" : "type-565"
    }
   ],
   "return_type" : "type-147",
   "source_file" : "/out/soong/.intermediates/frameworks/hardware/interfaces/stats/1.0/android.frameworks.stats@1.0_genc++_headers/gen/android/frameworks/stats/1.0/BpHwStats.h"
  },
  {
   "function_name" : "android::frameworks::stats::V1_0::BpHwStats::reportChargeCycles",
   "linker_set_key" : "_ZN7android10frameworks5stats4V1_09BpHwStats18reportChargeCyclesERKNS2_12ChargeCyclesE",
   "parameters" :
   [
    {
     "is_this_ptr" : true,
     "referenced_type" : "type-640"
    },
    {
     "referenced_type" : "type-561"
    }
   ],
   "return_type" : "type-147",
   "source_file" : "/out/soong/.intermediates/frameworks/hardware/interfaces/stats/1.0/android.frameworks.stats@1.0_genc++_headers/gen/android/frameworks/stats/1.0/BpHwStats.h"
  },
  {
   "function_name" : "android::frameworks::stats::V1_0::BpHwStats::interfaceDescriptor",
   "linker_set_key" : "_ZN7android10frameworks5stats4V1_09BpHwStats19interfaceDescriptorENSt3__18functionIFvRKNS_8hardware11hidl_stringEEEE",
   "parameters" :
   [
    {
     "is_this_ptr" : true,
     "referenced_type" : "type-640"
    },
    {
     "referenced_type" : "type-669"
    }
   ],
   "return_type" : "type-147",
   "source_file" : "/out/soong/.intermediates/frameworks/hardware/interfaces/stats/1.0/android.frameworks.stats@1.0_genc++_headers/gen/android/frameworks/stats/1.0/BpHwStats.h"
  },
  {
   "function_name" : "android::frameworks::stats::V1_0::BpHwStats::reportSpeechDspStat",
   "linker_set_key" : "_ZN7android10frameworks5stats4V1_09BpHwStats19reportSpeechDspStatERKNS2_13SpeechDspStatE",
   "parameters" :
   [
    {
     "is_this_ptr" : true,
     "referenced_type" : "type-640"
    },
    {
     "referenced_type" : "type-571"
    }
   ],
   "return_type" : "type-147",
   "source_file" : "/out/soong/.intermediates/frameworks/hardware/interfaces/stats/1.0/android.frameworks.stats@1.0_genc++_headers/gen/android/frameworks/stats/1.0/BpHwStats.h"
  },
  {
   "function_name" : "android::frameworks::stats::V1_0::BpHwStats::reportHardwareFailed",
   "linker_set_key" : "_ZN7android10frameworks5stats4V1_09BpHwStats20reportHardwareFailedERKNS2_14HardwareFailedE",
   "parameters" :
   [
    {
     "is_this_ptr" : true,
     "referenced_type" : "type-640"
    },
    {
     "referenced_type" : "type-557"
    }
   ],
   "return_type" : "type-147",
   "source_file" : "/out/soong/.intermediates/frameworks/hardware/interfaces/stats/1.0/android.frameworks.stats@1.0_genc++_headers/gen/android/frameworks/stats/1.0/BpHwStats.h"
  },
  {
   "function_name" : "android::frameworks::stats::V1_0::BpHwStats::notifySyspropsChanged",
   "linker_set_key" : "_ZN7android10frameworks5stats4V1_09BpHwStats21notifySyspropsChangedEv",
   "parameters" :
   [
    {
     "is_this_ptr" : true,
     "referenced_type" : "type-640"
    }
   ],
   "return_type" : "type-147",
   "source_file" : "/out/soong/.intermediates/frameworks/hardware/interfaces/stats/1.0/android.frameworks.stats@1.0_genc++_headers/gen/android/frameworks/stats/1.0/BpHwStats.h"
  },
  {
   "function_name" : "android::frameworks::stats::V1_0::BpHwStats::setHALInstrumentation",
   "linker_set_key" : "_ZN7android10frameworks5stats4V1_09BpHwStats21setHALInstrumentationEv",
   "parameters" :
   [
    {
     "is_this_ptr" : true,
     "referenced_type" : "type-640"
    }
   ],
   "return_type" : "type-147",
   "source_file" : "/out/soong/.intermediates/frameworks/hardware/interfaces/stats/1.0/android.frameworks.stats@1.0_genc++_headers/gen/android/frameworks/stats/1.0/BpHwStats.h"
  },
  {
   "function_name" : "android::frameworks::stats::V1_0::BpHwStats::_hidl_reportVendorAtom",
   "linker_set_key" : "_ZN7android10frameworks5stats4V1_09BpHwStats22_hidl_reportVendorAtomEPNS_8hardware10IInterfaceEPNS4_7details16HidlInstrumentorERKNS2_10VendorAtomE",
   "parameters" :
   [
    {
     "referenced_type" : "type-15"
    },
    {
     "referenced_type" : "type-594"
    },
    {
     "referenced_type" : "type-573"
    }
   ],
   "return_type" : "type-147",
   "source_file" : "/out/soong/.intermediates/frameworks/hardware/interfaces/stats/1.0/android.frameworks.stats@1.0_genc++_headers/gen/android/frameworks/stats/1.0/BpHwStats.h"
  },
  {
   "function_name" : "android::frameworks::stats::V1_0::BpHwStats::reportSpeakerImpedance",
   "linker_set_key" : "_ZN7android10frameworks5stats4V1_09BpHwStats22reportSpeakerImpedanceERKNS2_16SpeakerImpedanceE",
   "parameters" :
   [
    {
     "is_this_ptr" : true,
     "referenced_type" : "type-640"
    },
    {
     "referenced_type" : "type-555"
    }
   ],
   "return_type" : "type-147",
   "source_file" : "/out/soong/.intermediates/frameworks/hardware/interfaces/stats/1.0/android.frameworks.stats@1.0_genc++_headers/gen/android/frameworks/stats/1.0/BpHwStats.h"
  },
  {
   "function_name" : "android::frameworks::stats::V1_0::BpHwStats::_hidl_reportChargeCycles",
   "linker_set_key" : "_ZN7android10frameworks5stats4V1_09BpHwStats24_hidl_reportChargeCyclesEPNS_8hardware10IInterfaceEPNS4_7details16HidlInstrumentorERKNS2_12ChargeCyclesE",
   "parameters" :
   [
    {
     "referenced_type" : "type-15"
    },
    {
     "referenced_type" : "type-594"
    },
    {
     "referenced_type" : "type-561"
    }
   ],
   "return_type" : "type-147",
   "source_file" : "/out/soong/.intermediates/frameworks/hardware/interfaces/stats/1.0/android.frameworks.stats@1.0_genc++_headers/gen/android/frameworks/stats/1.0/BpHwStats.h"
  },
  {
   "function_name" : "android::frameworks::stats::V1_0::BpHwStats::_hidl_reportSpeechDspStat",
   "linker_set_key" : "_ZN7android10frameworks5stats4V1_09BpHwStats25_hidl_reportSpeechDspStatEPNS_8hardware10IInterfaceEPNS4_7details16HidlInstrumentorERKNS2_13SpeechDspStatE",
   "parameters" :
   [
    {
     "referenced_type" : "type-15"
    },
    {
     "referenced_type" : "type-594"
    },
    {
     "referenced_type" : "type-571"
    }
   ],
   "return_type" : "type-147",
   "source_file" : "/out/soong/.intermediates/frameworks/hardware/interfaces/stats/1.0/android.frameworks.stats@1.0_genc++_headers/gen/android/frameworks/stats/1.0/BpHwStats.h"
  },
  {
   "function_name" : "android::frameworks::stats::V1_0::BpHwStats::_hidl_reportHardwareFailed",
   "linker_set_key" : "_ZN7android10frameworks5stats4V1_09BpHwStats26_hidl_reportHardwareFailedEPNS_8hardware10IInterfaceEPNS4_7details16HidlInstrumentorERKNS2_14HardwareFailedE",
   "parameters" :
   [
    {
     "referenced_type" : "type-15"
    },
    {
     "referenced_type" : "type-594"
    },
    {
     "referenced_type" : "type-557"
    }
   ],
   "return_type" : "type-147",
   "source_file" : "/out/soong/.intermediates/frameworks/hardware/interfaces/stats/1.0/android.frameworks.stats@1.0_genc++_headers/gen/android/frameworks/stats/1.0/BpHwStats.h"
  },
  {
   "function_name" : "android::frameworks::stats::V1_0::BpHwStats::reportPhysicalDropDetected",
   "linker_set_key" : "_ZN7android10frameworks5stats4V1_09BpHwStats26reportPhysicalDropDetectedERKNS2_20PhysicalDropDetectedE",
   "parameters" :
   [
    {
     "is_this_ptr" : true,
     "referenced_type" : "type-640"
    },
    {
     "referenced_type" : "type-559"
    }
   ],
   "return_type" : "type-147",
   "source_file" : "/out/soong/.intermediates/frameworks/hardware/interfaces/stats/1.0/android.frameworks.stats@1.0_genc++_headers/gen/android/frameworks/stats/1.0/BpHwStats.h"
  },
  {
   "function_name" : "android::frameworks::stats::V1_0::BpHwStats::reportUsbPortOverheatEvent",
   "linker_set_key" : "_ZN7android10frameworks5stats4V1_09BpHwStats26reportUsbPortOverheatEventERKNS2_20UsbPortOverheatEventE",
   "parameters" :
   [
    {
     "is_this_ptr" : true,
     "referenced_type" : "type-640"
    },
    {
     "referenced_type" : "type-569"
    }
   ],
   "return_type" : "type-147",
   "source_file" : "/out/soong/.intermediates/frameworks/hardware/interfaces/stats/1.0/android.frameworks.stats@1.0_genc++_headers/gen/android/frameworks/stats/1.0/BpHwStats.h"
  },
  {
   "function_name" : "android::frameworks::stats::V1_0::BpHwStats::reportBatteryCausedShutdown",
   "linker_set_key" : "_ZN7android10frameworks5stats4V1_09BpHwStats27reportBatteryCausedShutdownERKNS2_21BatteryCausedShutdownE",
   "parameters" :
   [
    {
     "is_this_ptr" : true,
     "referenced_type" : "type-640"
    },
    {
     "referenced_type" : "type-567"
    }
   ],
   "return_type" : "type-147",
   "source_file" : "/out/soong/.intermediates/frameworks/hardware/interfaces/stats/1.0/android.frameworks.stats@1.0_genc++_headers/gen/android/frameworks/stats/1.0/BpHwStats.h"
  },
  {
   "function_name" : "android::frameworks::stats::V1_0::BpHwStats::reportBatteryHealthSnapshot",
   "linker_set_key" : "_ZN7android10frameworks5stats4V1_09BpHwStats27reportBatteryHealthSnapshotERKNS2_25BatteryHealthSnapshotArgsE",
   "parameters" :
   [
    {
     "is_this_ptr" : true,
     "referenced_type" : "type-640"
    },
    {
     "referenced_type" : "type-563"
    }
   ],
   "return_type" : "type-147",
   "source_file" : "/out/soong/.intermediates/frameworks/hardware/interfaces/stats/1.0/android.frameworks.stats@1.0_genc++_headers/gen/android/frameworks/stats/1.0/BpHwStats.h"
  },
  {
   "function_name" : "android::frameworks::stats::V1_0::BpHwStats::_hidl_reportSpeakerImpedance",
   "linker_set_key" : "_ZN7android10frameworks5stats4V1_09BpHwStats28_hidl_reportSpeakerImpedanceEPNS_8hardware10IInterfaceEPNS4_7details16HidlInstrumentorERKNS2_16SpeakerImpedanceE",
   "parameters" :
   [
    {
     "referenced_type" : "type-15"
    },
    {
     "referenced_type" : "type-594"
    },
    {
     "referenced_type" : "type-555"
    }
   ],
   "return_type" : "type-147",
   "source_file" : "/out/soong/.intermediates/frameworks/hardware/interfaces/stats/1.0/android.frameworks.stats@1.0_genc++_headers/gen/android/frameworks/stats/1.0/BpHwStats.h"
  },
  {
   "function_name" : "android::frameworks::stats::V1_0::BpHwStats::_hidl_reportPhysicalDropDetected",
   "linker_set_key" : "_ZN7android10frameworks5stats4V1_09BpHwStats32_hidl_reportPhysicalDropDetectedEPNS_8hardware10IInterfaceEPNS4_7details16HidlInstrumentorERKNS2_20PhysicalDropDetectedE",
   "parameters" :
   [
    {
     "referenced_type" : "type-15"
    },
    {
     "referenced_type" : "type-594"
    },
    {
     "referenced_type" : "type-559"
    }
   ],
   "return_type" : "type-147",
   "source_file" : "/out/soong/.intermediates/frameworks/hardware/interfaces/stats/1.0/android.frameworks.stats@1.0_genc++_headers/gen/android/frameworks/stats/1.0/BpHwStats.h"
  },
  {
   "function_name" : "android::frameworks::stats::V1_0::BpHwStats::_hidl_reportUsbPortOverheatEvent",
   "linker_set_key" : "_ZN7android10frameworks5stats4V1_09BpHwStats32_hidl_reportUsbPortOverheatEventEPNS_8hardware10IInterfaceEPNS4_7details16HidlInstrumentorERKNS2_20UsbPortOverheatEventE",
   "parameters" :
   [
    {
     "referenced_type" : "type-15"
    },
    {
     "referenced_type" : "type-594"
    },
    {
     "referenced_type" : "type-569"
    }
   ],
   "return_type" : "type-147",
   "source_file" : "/out/soong/.intermediates/frameworks/hardware/interfaces/stats/1.0/android.frameworks.stats@1.0_genc++_headers/gen/android/frameworks/stats/1.0/BpHwStats.h"
  },
  {
   "function_name" : "android::frameworks::stats::V1_0::BpHwStats::_hidl_reportBatteryCausedShutdown",
   "linker_set_key" : "_ZN7android10frameworks5stats4V1_09BpHwStats33_hidl_reportBatteryCausedShutdownEPNS_8hardware10IInterfaceEPNS4_7details16HidlInstrumentorERKNS2_21BatteryCausedShutdownE",
   "parameters" :
   [
    {
     "referenced_type" : "type-15"
    },
    {
     "referenced_type" : "type-594"
    },
    {
     "referenced_type" : "type-567"
    }
   ],
   "return_type" : "type-147",
   "source_file" : "/out/soong/.intermediates/frameworks/hardware/interfaces/stats/1.0/android.frameworks.stats@1.0_genc++_headers/gen/android/frameworks/stats/1.0/BpHwStats.h"
  },
  {
   "function_name" : "android::frameworks::stats::V1_0::BpHwStats::_hidl_reportBatteryHealthSnapshot",
   "linker_set_key" : "_ZN7android10frameworks5stats4V1_09BpHwStats33_hidl_reportBatteryHealthSnapshotEPNS_8hardware10IInterfaceEPNS4_7details16HidlInstrumentorERKNS2_25BatteryHealthSnapshotArgsE",
   "parameters" :
   [
    {
     "referenced_type" : "type-15"
    },
    {
     "referenced_type" : "type-594"
    },
    {
     "referenced_type" : "type-563"
    }
   ],
   "return_type" : "type-147",
   "source_file" : "/out/soong/.intermediates/frameworks/hardware/interfaces/stats/1.0/android.frameworks.stats@1.0_genc++_headers/gen/android/frameworks/stats/1.0/BpHwStats.h"
  },
  {
   "function_name" : "android::frameworks::stats::V1_0::BpHwStats::ping",
   "linker_set_key" : "_ZN7android10frameworks5stats4V1_09BpHwStats4pingEv",
   "parameters" :
   [
    {
     "is_this_ptr" : true,
     "referenced_type" : "type-640"
    }
   ],
   "return_type" : "type-147",
   "source_file" : "/out/soong/.intermediates/frameworks/hardware/interfaces/stats/1.0/android.frameworks.stats@1.0_genc++_headers/gen/android/frameworks/stats/1.0/BpHwStats.h"
  },
  {
   "function_name" : "android::frameworks::stats::V1_0::BpHwStats::debug",
   "linker_set_key" : "_ZN7android10frameworks5stats4V1_09BpHwStats5debugERKNS_8hardware11hidl_handleERKNS4_8hidl_vecINS4_11hidl_stringEEE",
   "parameters" :
   [
    {
     "is_this_ptr" : true,
     "referenced_type" : "type-640"
    },
    {
     "referenced_type" : "type-338"
    },
    {
     "referenced_type" : "type-542"
    }
   ],
   "return_type" : "type-147",
   "source_file" : "/out/soong/.intermediates/frameworks/hardware/interfaces/stats/1.0/android.frameworks.stats@1.0_genc++_headers/gen/android/frameworks/stats/1.0/BpHwStats.h"
  },
  {
   "function_name" : "android::frameworks::stats::V1_0::BpHwStats::BpHwStats",
   "linker_set_key" : "_ZN7android10frameworks5stats4V1_09BpHwStatsC1ERKNS_2spINS_8hardware7IBinderEEE",
   "parameters" :
   [
    {
     "is_this_ptr" : true,
     "referenced_type" : "type-640"
    },
    {
     "referenced_type" : "type-45"
    }
   ],
   "return_type" : "type-22",
   "source_file" : "/out/soong/.intermediates/frameworks/hardware/interfaces/stats/1.0/android.frameworks.stats@1.0_genc++_headers/gen/android/frameworks/stats/1.0/BpHwStats.h"
  },
  {
   "function_name" : "android::frameworks::stats::V1_0::BpHwStats::BpHwStats",
   "linker_set_key" : "_ZN7android10frameworks5stats4V1_09BpHwStatsC2ERKNS_2spINS_8hardware7IBinderEEE",
   "parameters" :
   [
    {
     "is_this_ptr" : true,
     "referenced_type" : "type-640"
    },
    {
     "referenced_type" : "type-45"
    }
   ],
   "return_type" : "type-22",
   "source_file" : "/out/soong/.intermediates/frameworks/hardware/interfaces/stats/1.0/android.frameworks.stats@1.0_genc++_headers/gen/android/frameworks/stats/1.0/BpHwStats.h"
  },
  {
   "function_name" : "android::hardware::details::castInterface",
   "linker_set_key" : "_ZN7android8hardware7details13castInterfaceINS_10frameworks5stats4V1_06IStatsENS_4hidl4base4V1_05IBaseENS5_9BpHwStatsEEENS0_6ReturnINS_2spIT_EEEENSD_IT0_EEPKcb",
   "parameters" :
   [
    {
     "referenced_type" : "type-391"
    },
    {
     "referenced_type" : "type-51"
    },
    {
     "referenced_type" : "type-36"
    }
   ],
   "return_type" : "type-134",
   "source_file" : "/system/libhidl/transport/include/hidl/HidlTransportSupport.h",
   "template_args" : [ "type-94", "type-4", "type-550" ]
  },
  {
   "function_name" : "android::hardware::details::getServiceInternal",
   "linker_set_key" : "_ZN7android8hardware7details18getServiceInternalINS_10frameworks5stats4V1_09BpHwStatsENS5_6IStatsEvvEENS_2spIT0_EERKNSt3__112basic_stringIcNSB_11char_traitsIcEENSB_9allocatorIcEEEEbb",
   "parameters" :
   [
    {
     "referenced_type" : "type-399"
    },
    {
     "referenced_type" : "type-36"
    },
    {
     "referenced_type" : "type-36"
    }
   ],
   "return_type" : "type-92",
   "source_file" : "/system/libhidl/transport/include/hidl/HidlTransportSupport.h",
   "template_args" : [ "type-550", "type-94", "type-22", "type-22" ]
  },
  {
   "function_name" : "android::frameworks::stats::V1_0::VendorAtom::Value::floatValue",
   "linker_set_key" : "_ZNK7android10frameworks5stats4V1_010VendorAtom5Value10floatValueEv",
   "parameters" :
   [
    {
     "is_this_ptr" : true,
     "referenced_type" : "type-524"
    }
   ],
   "return_type" : "type-222",
   "source_file" : "/out/soong/.intermediates/frameworks/hardware/interfaces/stats/1.0/android.frameworks.stats@1.0_genc++_headers/gen/android/frameworks/stats/1.0/types.h"
  },
  {
   "function_name" : "android::frameworks::stats::V1_0::VendorAtom::Value::stringValue",
   "linker_set_key" : "_ZNK7android10frameworks5stats4V1_010VendorAtom5Value11stringValueEv",
   "parameters" :
   [
    {
     "is_this_ptr" : true,
     "referenced_type" : "type-524"
    }
   ],
   "return_type" : "type-268",
   "source_file" : "/out/soong/.intermediates/frameworks/hardware/interfaces/stats/1.0/android.frameworks.stats@1.0_genc++_headers/gen/android/frameworks/stats/1.0/types.h"
  },
  {
   "function_name" : "android::frameworks::stats::V1_0::VendorAtom::Value::getDiscriminator",
   "linker_set_key" : "_ZNK7android10frameworks5stats4V1_010VendorAtom5Value16getDiscriminatorEv",
   "parameters" :
   [
    {
     "is_this_ptr" : true,
     "referenced_type" : "type-524"
    }
   ],
   "return_type" : "type-318",
   "source_file" : "/out/soong/.intermediates/frameworks/hardware/interfaces/stats/1.0/android.frameworks.stats@1.0_genc++_headers/gen/android/frameworks/stats/1.0/types.h"
  },
  {
   "function_name" : "android::frameworks::stats::V1_0::VendorAtom::Value::intValue",
   "linker_set_key" : "_ZNK7android10frameworks5stats4V1_010VendorAtom5Value8intValueEv",
   "parameters" :
   [
    {
     "is_this_ptr" : true,
     "referenced_type" : "type-524"
    }
   ],
   "return_type" : "type-20",
   "source_file" : "/out/soong/.intermediates/frameworks/hardware/interfaces/stats/1.0/android.frameworks.stats@1.0_genc++_headers/gen/android/frameworks/stats/1.0/types.h"
  },
  {
   "function_name" : "android::frameworks::stats::V1_0::VendorAtom::Value::longValue",
   "linker_set_key" : "_ZNK7android10frameworks5stats4V1_010VendorAtom5Value9longValueEv",
   "parameters" :
   [
    {
     "is_this_ptr" : true,
     "referenced_type" : "type-524"
    }
   ],
   "return_type" : "type-26",
   "source_file" : "/out/soong/.intermediates/frameworks/hardware/interfaces/stats/1.0/android.frameworks.stats@1.0_genc++_headers/gen/android/frameworks/stats/1.0/types.h"
  }
 ],
 "global_vars" :
 [
  {
   "linker_set_key" : "_ZN7android10frameworks5stats4V1_06IStats10descriptorE",
   "name" : "android::frameworks::stats::V1_0::IStats::descriptor",
   "referenced_type" : "type-51",
   "source_file" : "/out/soong/.intermediates/frameworks/hardware/interfaces/stats/1.0/android.frameworks.stats@1.0_genc++_headers/gen/android/frameworks/stats/1.0/IStats.h"
  }
 ],
 "lvalue_reference_types" :
 [
  {
   "alignment" : 8,
   "linker_set_key" : "android::Mutex &",
   "name" : "android::Mutex &",
   "referenced_type" : "type-27",
   "self_type" : "type-477",
   "size" : 8,
   "source_file" : "/system/core/libutils/include/utils/Mutex.h"
  },
  {
   "alignment" : 8,
   "linker_set_key" : "android::RWLock &",
   "name" : "android::RWLock &",
   "referenced_type" : "type-481",
   "self_type" : "type-486",
   "size" : 8,
   "source_file" : "/system/core/libutils/include/utils/RWLock.h"
  },
  {
   "alignment" : 8,
   "linker_set_key" : "android::String16 &",
   "name" : "android::String16 &",
   "referenced_type" : "type-41",
   "self_type" : "type-363",
   "size" : 8,
   "source_file" : "/system/core/libutils/include/utils/String16.h"
  },
  {
   "alignment" : 8,
   "linker_set_key" : "android::String8 &",
   "name" : "android::String8 &",
   "referenced_type" : "type-50",
   "self_type" : "type-357",
   "size" : 8,
   "source_file" : "/system/core/libutils/include/utils/String8.h"
  },
  {
   "alignment" : 8,
   "linker_set_key" : "android::frameworks::stats::V1_0::VendorAtom::Value &",
   "name" : "android::frameworks::stats::V1_0::VendorAtom::Value &",
   "referenced_type" : "type-317",
   "self_type" : "type-578",
   "size" : 8,
   "source_file" : "/system/libhidl/base/include/hidl/HidlInternal.h"
  },
  {
   "alignment" : 8,
   "linker_set_key" : "android::hardware::Return<android::sp<android::frameworks::stats::V1_0::IStats> > &",
   "name" : "android::hardware::Return<android::sp<android::frameworks::stats::V1_0::IStats> > &",
   "referenced_type" : "type-134",
   "self_type" : "type-137",
   "size" : 8,
   "source_file" : "/system/libhidl/base/include/hidl/Status.h"
  },
  {
   "alignment" : 8,
   "linker_set_key" : "android::hardware::Return<bool> &",
   "name" : "android::hardware::Return<bool> &",
   "referenced_type" : "type-127",
   "self_type" : "type-131",
   "size" : 8,
   "source_file" : "/system/libhidl/base/include/hidl/Status.h"
  },
  {
   "alignment" : 8,
   "linker_set_key" : "android::hardware::Return<void> &",
   "name" : "android::hardware::Return<void> &",
   "referenced_type" : "type-147",
   "self_type" : "type-150",
   "size" : 8,
   "source_file" : "/system/libhidl/base/include/hidl/Status.h"
  },
  {
   "alignment" : 8,
   "linker_set_key" : "android::hardware::Status &",
   "name" : "android::hardware::Status &",
   "referenced_type" : "type-117",
   "self_type" : "type-124",
   "size" : 8,
   "source_file" : "/system/libhidl/base/include/hidl/Status.h"
  },
  {
   "alignment" : 8,
   "linker_set_key" : "android::hardware::TextOutput &",
   "name" : "android::hardware::TextOutput &",
   "referenced_type" : "type-386",
   "self_type" : "type-385",
   "size" : 8,
   "source_file" : "/system/libhwbinder/include/hwbinder/Parcel.h"
  },
  {
   "alignment" : 8,
   "linker_set_key" : "android::hardware::TextOutput &",
   "name" : "android::hardware::TextOutput &",
   "referenced_type" : "type-615",
   "self_type" : "type-614",
   "size" : 8,
   "source_file" : "/system/libhwbinder/include/hwbinder/Parcel.h"
  },
  {
   "alignment" : 8,
   "linker_set_key" : "android::hardware::details::hidl_pointer<android::frameworks::stats::V1_0::VendorAtom::Value> &",
   "name" : "android::hardware::details::hidl_pointer<android::frameworks::stats::V1_0::VendorAtom::Value> &",
   "referenced_type" : "type-314",
   "self_type" : "type-575",
   "size" : 8,
   "source_file" : "/system/libhidl/base/include/hidl/HidlInternal.h"
  },
  {
   "alignment" : 8,
   "linker_set_key" : "android::hardware::details::hidl_pointer<android::hardware::hidl_array<unsigned char, 32> > &",
   "name" : "android::hardware::details::hidl_pointer<android::hardware::hidl_array<unsigned char, 32> > &",
   "referenced_type" : "type-295",
   "self_type" : "type-586",
   "size" : 8,
   "source_file" : "/system/libhidl/base/include/hidl/HidlInternal.h"
  },
  {
   "alignment" : 8,
   "linker_set_key" : "android::hardware::details::hidl_pointer<android::hardware::hidl_string> &",
   "name" : "android::hardware::details::hidl_pointer<android::hardware::hidl_string> &",
   "referenced_type" : "type-287",
   "self_type" : "type-581",
   "size" : 8,
   "source_file" : "/system/libhidl/base/include/hidl/HidlInternal.h"
  },
  {
   "alignment" : 8,
   "linker_set_key" : "android::hardware::details::hidl_pointer<int> &",
   "name" : "android::hardware::details::hidl_pointer<int> &",
   "referenced_type" : "type-305",
   "self_type" : "type-483",
   "size" : 8,
   "source_file" : "/system/libhidl/base/include/hidl/HidlInternal.h"
  },
  {
   "alignment" : 8,
   "linker_set_key" : "android::hardware::hidl_array<unsigned char, 32> &",
   "name" : "android::hardware::hidl_array<unsigned char, 32> &",
   "referenced_type" : "type-298",
   "self_type" : "type-589",
   "size" : 8,
   "source_file" : "/system/libhidl/base/include/hidl/HidlInternal.h"
  },
  {
   "alignment" : 8,
   "linker_set_key" : "android::hardware::hidl_memory &",
   "name" : "android::hardware::hidl_memory &",
   "referenced_type" : "type-269",
   "self_type" : "type-274",
   "size" : 8,
   "source_file" : "/system/libhidl/base/include/hidl/HidlSupport.h"
  },
  {
   "alignment" : 8,
   "linker_set_key" : "android::hardware::hidl_string &",
   "name" : "android::hardware::hidl_string &",
   "referenced_type" : "type-265",
   "self_type" : "type-584",
   "size" : 8,
   "source_file" : "/system/libhidl/base/include/hidl/HidlInternal.h"
  },
  {
   "alignment" : 8,
   "linker_set_key" : "android::hardware::hidl_vec<android::frameworks::stats::V1_0::VendorAtom::Value> &",
   "name" : "android::hardware::hidl_vec<android::frameworks::stats::V1_0::VendorAtom::Value> &",
   "referenced_type" : "type-313",
   "self_type" : "type-323",
   "size" : 8,
   "source_file" : "/system/libhidl/base/include/hidl/HidlSupport.h"
  },
  {
   "alignment" : 8,
   "linker_set_key" : "android::hardware::hidl_vec<android::hardware::hidl_array<unsigned char, 32> > &",
   "name" : "android::hardware::hidl_vec<android::hardware::hidl_array<unsigned char, 32> > &",
   "referenced_type" : "type-294",
   "self_type" : "type-303",
   "size" : 8,
   "source_file" : "/system/libhidl/base/include/hidl/HidlSupport.h"
  },
  {
   "alignment" : 8,
   "linker_set_key" : "android::hardware::hidl_vec<android::hardware::hidl_string> &",
   "name" : "android::hardware::hidl_vec<android::hardware::hidl_string> &",
   "referenced_type" : "type-286",
   "self_type" : "type-293",
   "size" : 8,
   "source_file" : "/system/libhidl/base/include/hidl/HidlSupport.h"
  },
  {
   "alignment" : 8,
   "linker_set_key" : "android::hardware::hidl_vec<int> &",
   "name" : "android::hardware::hidl_vec<int> &",
   "referenced_type" : "type-304",
   "self_type" : "type-311",
   "size" : 8,
   "source_file" : "/system/libhidl/base/include/hidl/HidlSupport.h"
  },
  {
   "alignment" : 8,
   "linker_set_key" : "android::sp<android::frameworks::stats::V1_0::IStats> &",
   "name" : "android::sp<android::frameworks::stats::V1_0::IStats> &",
   "referenced_type" : "type-92",
   "self_type" : "type-96",
   "size" : 8,
   "source_file" : "/system/core/libutils/include/utils/StrongPointer.h"
  },
  {
   "alignment" : 8,
   "linker_set_key" : "android::sp<android::hardware::hidl_binder_death_recipient> &",
   "name" : "android::sp<android::hardware::hidl_binder_death_recipient> &",
   "referenced_type" : "type-100",
   "self_type" : "type-110",
   "size" : 8,
   "source_file" : "/system/core/libutils/include/utils/StrongPointer.h"
  },
  {
   "alignment" : 8,
   "linker_set_key" : "const android::String16 &",
   "name" : "const android::String16 &",
   "referenced_type" : "type-40",
   "self_type" : "type-39",
   "size" : 8,
   "source_file" : "/system/core/libutils/include/utils/String16.h"
  },
  {
   "alignment" : 8,
   "linker_set_key" : "const android::String8 &",
   "name" : "const android::String8 &",
   "referenced_type" : "type-353",
   "self_type" : "type-355",
   "size" : 8,
   "source_file" : "/system/core/libutils/include/utils/String8.h"
  },
  {
   "alignment" : 8,
   "linker_set_key" : "const android::frameworks::stats::V1_0::BatteryCausedShutdown &",
   "name" : "const android::frameworks::stats::V1_0::BatteryCausedShutdown &",
   "referenced_type" : "type-566",
   "self_type" : "type-567",
   "size" : 8,
   "source_file" : "/out/soong/.intermediates/frameworks/hardware/interfaces/stats/1.0/android.frameworks.stats@1.0_genc++_headers/gen/android/frameworks/stats/1.0/BpHwStats.h"
  },
  {
   "alignment" : 8,
   "linker_set_key" : "const android::frameworks::stats::V1_0::BatteryHealthSnapshotArgs &",
   "name" : "const android::frameworks::stats::V1_0::BatteryHealthSnapshotArgs &",
   "referenced_type" : "type-562",
   "self_type" : "type-563",
   "size" : 8,
   "source_file" : "/out/soong/.intermediates/frameworks/hardware/interfaces/stats/1.0/android.frameworks.stats@1.0_genc++_headers/gen/android/frameworks/stats/1.0/BpHwStats.h"
  },
  {
   "alignment" : 8,
   "linker_set_key" : "const android::frameworks::stats::V1_0::ChargeCycles &",
   "name" : "const android::frameworks::stats::V1_0::ChargeCycles &",
   "referenced_type" : "type-560",
   "self_type" : "type-561",
   "size" : 8,
   "source_file" : "/out/soong/.intermediates/frameworks/hardware/interfaces/stats/1.0/android.frameworks.stats@1.0_genc++_headers/gen/android/frameworks/stats/1.0/BpHwStats.h"
  },
  {
   "alignment" : 8,
   "linker_set_key" : "const android::frameworks::stats::V1_0::HardwareFailed &",
   "name" : "const android::frameworks::stats::V1_0::HardwareFailed &",
   "referenced_type" : "type-556",
   "self_type" : "type-557",
   "size" : 8,
   "source_file" : "/out/soong/.intermediates/frameworks/hardware/interfaces/stats/1.0/android.frameworks.stats@1.0_genc++_headers/gen/android/frameworks/stats/1.0/BpHwStats.h"
  },
  {
   "alignment" : 8,
   "linker_set_key" : "const android::frameworks::stats::V1_0::PhysicalDropDetected &",
   "name" : "const android::frameworks::stats::V1_0::PhysicalDropDetected &",
   "referenced_type" : "type-558",
   "self_type" : "type-559",
   "size" : 8,
   "source_file" : "/out/soong/.intermediates/frameworks/hardware/interfaces/stats/1.0/android.frameworks.stats@1.0_genc++_headers/gen/android/frameworks/stats/1.0/BpHwStats.h"
  },
  {
   "alignment" : 8,
   "linker_set_key" : "const android::frameworks::stats::V1_0::SlowIo &",
   "name" : "const android::frameworks::stats::V1_0::SlowIo &",
   "referenced_type" : "type-564",
   "self_type" : "type-565",
   "size" : 8,
   "source_file" : "/out/soong/.intermediates/frameworks/hardware/interfaces/stats/1.0/android.frameworks.stats@1.0_genc++_headers/gen/android/frameworks/stats/1.0/BpHwStats.h"
  },
  {
   "alignment" : 8,
   "linker_set_key" : "const android::frameworks::stats::V1_0::SpeakerImpedance &",
   "name" : "const android::frameworks::stats::V1_0::SpeakerImpedance &",
   "referenced_type" : "type-554",
   "self_type" : "type-555",
   "size" : 8,
   "source_file" : "/out/soong/.intermediates/frameworks/hardware/interfaces/stats/1.0/android.frameworks.stats@1.0_genc++_headers/gen/android/frameworks/stats/1.0/BpHwStats.h"
  },
  {
   "alignment" : 8,
   "linker_set_key" : "const android::frameworks::stats::V1_0::SpeechDspStat &",
   "name" : "const android::frameworks::stats::V1_0::SpeechDspStat &",
   "referenced_type" : "type-570",
   "self_type" : "type-571",
   "size" : 8,
   "source_file" : "/out/soong/.intermediates/frameworks/hardware/interfaces/stats/1.0/android.frameworks.stats@1.0_genc++_headers/gen/android/frameworks/stats/1.0/BpHwStats.h"
  },
  {
   "alignment" : 8,
   "linker_set_key" : "const android::frameworks::stats::V1_0::UsbPortOverheatEvent &",
   "name" : "const android::frameworks::stats::V1_0::UsbPortOverheatEvent &",
   "referenced_type" : "type-568",
   "self_type" : "type-569",
   "size" : 8,
   "source_file" : "/out/soong/.intermediates/frameworks/hardware/interfaces/stats/1.0/android.frameworks.stats@1.0_genc++_headers/gen/android/frameworks/stats/1.0/BpHwStats.h"
  },
  {
   "alignment" : 8,
   "linker_set_key" : "const android::frameworks::stats::V1_0::VendorAtom &",
   "name" : "const android::frameworks::stats::V1_0::VendorAtom &",
   "referenced_type" : "type-572",
   "self_type" : "type-573",
   "size" : 8,
   "source_file" : "/out/soong/.intermediates/frameworks/hardware/interfaces/stats/1.0/android.frameworks.stats@1.0_genc++_headers/gen/android/frameworks/stats/1.0/BpHwStats.h"
  },
  {
   "alignment" : 8,
   "linker_set_key" : "const android::frameworks::stats::V1_0::VendorAtom::Value &",
   "name" : "const android::frameworks::stats::V1_0::VendorAtom::Value &",
   "referenced_type" : "type-525",
   "self_type" : "type-579",
   "size" : 8,
   "source_file" : "/system/libhidl/base/include/hidl/HidlInternal.h"
  },
  {
   "alignment" : 8,
   "linker_set_key" : "const android::hardware::Parcel &",
   "name" : "const android::hardware::Parcel &",
   "referenced_type" : "type-387",
   "self_type" : "type-388",
   "size" : 8,
   "source_file" : "/system/libhwbinder/include/hwbinder/Parcel.h"
  },
  {
   "alignment" : 8,
   "linker_set_key" : "const android::hardware::Return<bool> &",
   "name" : "const android::hardware::Return<bool> &",
   "referenced_type" : "type-132",
   "self_type" : "type-140",
   "size" : 8,
   "source_file" : "/system/libhidl/base/include/hidl/Status.h"
  },
  {
   "alignment" : 8,
   "linker_set_key" : "const android::hardware::Status &",
   "name" : "const android::hardware::Status &",
   "referenced_type" : "type-121",
   "self_type" : "type-122",
   "size" : 8,
   "source_file" : "/system/libhidl/base/include/hidl/Status.h"
  },
  {
   "alignment" : 8,
   "linker_set_key" : "const android::hardware::details::SchedPrio &",
   "name" : "const android::hardware::details::SchedPrio &",
   "referenced_type" : "type-405",
   "self_type" : "type-404",
   "size" : 8,
   "source_file" : "/system/libhidl/transport/include/hidl/ConcurrentMap.h"
  },
  {
   "alignment" : 8,
   "linker_set_key" : "const android::hardware::hidl_handle &",
   "name" : "const android::hardware::hidl_handle &",
   "referenced_type" : "type-337",
   "self_type" : "type-338",
   "size" : 8,
   "source_file" : "/system/libhidl/base/include/hidl/HidlSupport.h"
  },
  {
   "alignment" : 8,
   "linker_set_key" : "const android::hardware::hidl_memory &",
   "name" : "const android::hardware::hidl_memory &",
   "referenced_type" : "type-272",
   "self_type" : "type-273",
   "size" : 8,
   "source_file" : "/system/libhidl/base/include/hidl/HidlSupport.h"
  },
  {
   "alignment" : 8,
   "linker_set_key" : "const android::hardware::hidl_string &",
   "name" : "const android::hardware::hidl_string &",
   "referenced_type" : "type-264",
   "self_type" : "type-268",
   "size" : 8,
   "source_file" : "/system/libhidl/base/include/hidl/HidlSupport.h"
  },
  {
   "alignment" : 8,
   "linker_set_key" : "const android::hardware::hidl_vec<android::frameworks::stats::V1_0::VendorAtom::Value> &",
   "name" : "const android::hardware::hidl_vec<android::frameworks::stats::V1_0::VendorAtom::Value> &",
   "referenced_type" : "type-321",
   "self_type" : "type-322",
   "size" : 8,
   "source_file" : "/system/libhidl/base/include/hidl/HidlSupport.h"
  },
  {
   "alignment" : 8,
   "linker_set_key" : "const android::hardware::hidl_vec<android::hardware::hidl_string> &",
   "name" : "const android::hardware::hidl_vec<android::hardware::hidl_string> &",
   "referenced_type" : "type-541",
   "self_type" : "type-542",
   "size" : 8,
   "source_file" : "/out/soong/.intermediates/frameworks/hardware/interfaces/stats/1.0/android.frameworks.stats@1.0_genc++_headers/gen/android/frameworks/stats/1.0/IStats.h"
  },
  {
   "alignment" : 8,
   "linker_set_key" : "const android::hardware::hidl_vec<int> &",
   "name" : "const android::hardware::hidl_vec<int> &",
   "referenced_type" : "type-309",
   "self_type" : "type-310",
   "size" : 8,
   "source_file" : "/system/libhidl/base/include/hidl/HidlSupport.h"
  },
  {
   "alignment" : 8,
   "linker_set_key" : "const android::hardware::hidl_version &",
   "name" : "const android::hardware::hidl_version &",
   "referenced_type" : "type-332",
   "self_type" : "type-334",
   "size" : 8,
   "source_file" : "/system/libhidl/base/include/hidl/HidlSupport.h"
  },
  {
   "alignment" : 8,
   "linker_set_key" : "const android::hidl::base::V1_0::IBase *const &",
   "name" : "const android::hidl::base::V1_0::IBase *const &",
   "referenced_type" : "type-422",
   "self_type" : "type-423",
   "size" : 8,
   "source_file" : "/system/libhidl/transport/include/hidl/ConcurrentMap.h"
  },
  {
   "alignment" : 8,
   "linker_set_key" : "const android::sp<android::frameworks::stats::V1_0::IStats> &",
   "name" : "const android::sp<android::frameworks::stats::V1_0::IStats> &",
   "referenced_type" : "type-98",
   "self_type" : "type-168",
   "size" : 8,
   "source_file" : "/system/core/libutils/include/utils/RefBase.h"
  },
  {
   "alignment" : 8,
   "linker_set_key" : "const android::sp<android::hardware::IBinder> &",
   "name" : "const android::sp<android::hardware::IBinder> &",
   "referenced_type" : "type-10",
   "self_type" : "type-45",
   "size" : 8,
   "source_file" : "/system/libhwbinder/include/hwbinder/IInterface.h"
  },
  {
   "alignment" : 8,
   "linker_set_key" : "const android::sp<android::hardware::hidl_binder_death_recipient> &",
   "name" : "const android::sp<android::hardware::hidl_binder_death_recipient> &",
   "referenced_type" : "type-112",
   "self_type" : "type-345",
   "size" : 8,
   "source_file" : "/system/core/libutils/include/utils/RefBase.h"
  },
  {
   "alignment" : 8,
   "linker_set_key" : "const android::sp<android::hardware::hidl_death_recipient> &",
   "name" : "const android::sp<android::hardware::hidl_death_recipient> &",
   "referenced_type" : "type-411",
   "self_type" : "type-434",
   "size" : 8,
   "source_file" : "/system/core/libutils/include/utils/RefBase.h"
  },
  {
   "alignment" : 8,
   "linker_set_key" : "const android::sp<android::hidl::base::V1_0::IBase> &",
   "name" : "const android::sp<android::hidl::base::V1_0::IBase> &",
   "referenced_type" : "type-612",
   "self_type" : "type-613",
   "size" : 8,
   "source_file" : "/system/core/libutils/include/utils/StrongPointer.h"
  },
  {
   "alignment" : 8,
   "linker_set_key" : "const android::sp<android::hidl::manager::V1_0::IServiceNotification> &",
   "name" : "const android::sp<android::hidl::manager::V1_0::IServiceNotification> &",
   "referenced_type" : "type-89",
   "self_type" : "type-543",
   "size" : 8,
   "source_file" : "/out/soong/.intermediates/frameworks/hardware/interfaces/stats/1.0/android.frameworks.stats@1.0_genc++_headers/gen/android/frameworks/stats/1.0/IStats.h"
  },
  {
   "alignment" : 8,
   "linker_set_key" : "const android::wp<android::hardware::BHwBinder> &",
   "name" : "const android::wp<android::hardware::BHwBinder> &",
   "referenced_type" : "type-596",
   "self_type" : "type-601",
   "size" : 8,
   "source_file" : "/system/core/libutils/include/utils/RefBase.h"
  },
  {
   "alignment" : 8,
   "linker_set_key" : "const android::wp<android::hidl::base::V1_0::IBase> &",
   "name" : "const android::wp<android::hidl::base::V1_0::IBase> &",
   "referenced_type" : "type-179",
   "self_type" : "type-201",
   "size" : 8,
   "source_file" : "/system/core/libutils/include/utils/RefBase.h"
  },
  {
   "alignment" : 8,
   "linker_set_key" : "const bool &",
   "name" : "const bool &",
   "referenced_type" : "type-70",
   "self_type" : "type-232",
   "size" : 8,
   "source_file" : "/system/core/libutils/include/utils/TypeHelpers.h"
  },
  {
   "alignment" : 8,
   "linker_set_key" : "const double &",
   "name" : "const double &",
   "referenced_type" : "type-255",
   "self_type" : "type-256",
   "size" : 8,
   "source_file" : "/system/core/libutils/include/utils/TypeHelpers.h"
  },
  {
   "alignment" : 8,
   "linker_set_key" : "const float &",
   "name" : "const float &",
   "referenced_type" : "type-248",
   "self_type" : "type-253",
   "size" : 8,
   "source_file" : "/system/core/libutils/include/utils/TypeHelpers.h"
  },
  {
   "alignment" : 8,
   "linker_set_key" : "const int &",
   "name" : "const int &",
   "referenced_type" : "type-523",
   "self_type" : "type-522",
   "size" : 8,
   "source_file" : "/system/libhidl/base/include/hidl/HidlInternal.h"
  },
  {
   "linker_set_key" : "const iter<is_const> &",
   "name" : "const iter<is_const> &",
   "referenced_type" : "type-278",
   "self_type" : "type-280",
   "source_file" : "/system/libhidl/base/include/hidl/HidlSupport.h"
  },
  {
   "linker_set_key" : "const iter<is_const> &",
   "name" : "const iter<is_const> &",
   "referenced_type" : "type-603",
   "self_type" : "type-605",
   "source_file" : "/system/libhidl/base/include/hidl/HidlSupport.h"
  },
  {
   "alignment" : 8,
   "linker_set_key" : "const log_msg &",
   "name" : "const log_msg &",
   "referenced_type" : "type-77",
   "self_type" : "type-125",
   "size" : 8,
   "source_file" : "/system/core/liblog/include/log/log_read.h"
  },
  {
   "alignment" : 8,
   "linker_set_key" : "const long &",
   "name" : "const long &",
   "referenced_type" : "type-245",
   "self_type" : "type-246",
   "size" : 8,
   "source_file" : "/system/core/libutils/include/utils/TypeHelpers.h"
  },
  {
   "alignment" : 8,
   "linker_set_key" : "const short &",
   "name" : "const short &",
   "referenced_type" : "type-238",
   "self_type" : "type-241",
   "size" : 8,
   "source_file" : "/system/core/libutils/include/utils/TypeHelpers.h"
  },
  {
   "alignment" : 8,
   "linker_set_key" : "const signed char &",
   "name" : "const signed char &",
   "referenced_type" : "type-233",
   "self_type" : "type-235",
   "size" : 8,
   "source_file" : "/system/core/libutils/include/utils/TypeHelpers.h"
  },
  {
   "alignment" : 8,
   "linker_set_key" : "const std::basic_string<char, std::char_traits<char>, std::allocator<char> > &",
   "name" : "const std::basic_string<char, std::char_traits<char>, std::allocator<char> > &",
   "referenced_type" : "type-396",
   "self_type" : "type-399",
   "size" : 8,
   "source_file" : "/system/libhidl/transport/include/hidl/HidlTransportSupport.h"
  },
  {
   "alignment" : 8,
   "linker_set_key" : "const std::vector<std::function<void (InstrumentationEvent, const char *, const char *, const char *, const char *, vector<void *, allocator<void *> > *)>, std::allocator<std::function<void (InstrumentationEvent, const char *, const char *, const char *, const char *, vector<void *, allocator<void *> > *)> > > &",
   "name" : "const std::vector<std::function<void (InstrumentationEvent, const char *, const char *, const char *, const char *, vector<void *, allocator<void *> > *)>, std::allocator<std::function<void (InstrumentationEvent, const char *, const char *, const char *, const char *, vector<void *, allocator<void *> > *)> > > &",
   "referenced_type" : "type-592",
   "self_type" : "type-591",
   "size" : 8,
   "source_file" : "/system/libhidl/base/include/hidl/HidlInternal.h"
  },
  {
   "alignment" : 8,
   "linker_set_key" : "const std::vector<std::function<void (InstrumentationEvent, const char *, const char *, const char *, const char *, vector<void *, allocator<void *> > *)>, std::allocator<std::function<void (InstrumentationEvent, const char *, const char *, const char *, const char *, vector<void *, allocator<void *> > *)> > > &",
   "name" : "const std::vector<std::function<void (InstrumentationEvent, const char *, const char *, const char *, const char *, vector<void *, allocator<void *> > *)>, std::allocator<std::function<void (InstrumentationEvent, const char *, const char *, const char *, const char *, vector<void *, allocator<void *> > *)> > > &",
   "referenced_type" : "type-638",
   "self_type" : "type-637",
   "size" : 8,
   "source_file" : "/system/libhidl/base/include/hidl/HidlInternal.h"
  },
  {
   "alignment" : 8,
   "linker_set_key" : "const unsigned char &",
   "name" : "const unsigned char &",
   "referenced_type" : "type-236",
   "self_type" : "type-237",
   "size" : 8,
   "source_file" : "/system/core/libutils/include/utils/TypeHelpers.h"
  },
  {
   "alignment" : 8,
   "linker_set_key" : "const unsigned int &",
   "name" : "const unsigned int &",
   "referenced_type" : "type-31",
   "self_type" : "type-244",
   "size" : 8,
   "source_file" : "/system/core/libutils/include/utils/TypeHelpers.h"
  },
  {
   "alignment" : 8,
   "linker_set_key" : "const unsigned long &",
   "name" : "const unsigned long &",
   "referenced_type" : "type-32",
   "self_type" : "type-247",
   "size" : 8,
   "source_file" : "/system/core/libutils/include/utils/TypeHelpers.h"
  },
  {
   "alignment" : 8,
   "linker_set_key" : "const unsigned short &",
   "name" : "const unsigned short &",
   "referenced_type" : "type-242",
   "self_type" : "type-243",
   "size" : 8,
   "source_file" : "/system/core/libutils/include/utils/TypeHelpers.h"
  },
  {
   "alignment" : 8,
   "linker_set_key" : "float &",
   "name" : "float &",
   "referenced_type" : "type-222",
   "self_type" : "type-625",
   "size" : 8,
   "source_file" : "/out/soong/.intermediates/frameworks/hardware/interfaces/stats/1.0/android.frameworks.stats@1.0_genc++_headers/gen/android/frameworks/stats/1.0/types.h"
  },
  {
   "alignment" : 8,
   "linker_set_key" : "int &",
   "name" : "int &",
   "referenced_type" : "type-20",
   "self_type" : "type-511",
   "size" : 8,
   "source_file" : "/system/libhidl/base/include/hidl/HidlInternal.h"
  },
  {
   "alignment" : 8,
   "linker_set_key" : "long &",
   "name" : "long &",
   "referenced_type" : "type-26",
   "self_type" : "type-624",
   "size" : 8,
   "source_file" : "/out/soong/.intermediates/frameworks/hardware/interfaces/stats/1.0/android.frameworks.stats@1.0_genc++_headers/gen/android/frameworks/stats/1.0/types.h"
  },
  {
   "alignment" : 8,
   "linker_set_key" : "unsigned char &",
   "name" : "unsigned char &",
   "referenced_type" : "type-81",
   "self_type" : "type-499",
   "size" : 8,
   "source_file" : "/out/soong/.intermediates/system/libhidl/transport/manager/1.0/android.hidl.manager@1.0_genc++_headers/gen/android/hidl/manager/1.0/IServiceManager.h"
  }
 ],
 "pointer_types" :
 [
  {
   "alignment" : 8,
   "linker_set_key" : "android::Condition *",
   "name" : "android::Condition *",
   "referenced_type" : "type-71",
   "self_type" : "type-480",
   "size" : 8,
   "source_file" : "/system/core/libutils/include/utils/Condition.h"
  },
  {
   "alignment" : 8,
   "linker_set_key" : "android::Mutex *",
   "name" : "android::Mutex *",
   "referenced_type" : "type-27",
   "self_type" : "type-475",
   "size" : 8,
   "source_file" : "/system/core/libutils/include/utils/Mutex.h"
  },
  {
   "alignment" : 8,
   "linker_set_key" : "android::Mutex::Autolock *",
   "name" : "android::Mutex::Autolock *",
   "referenced_type" : "type-476",
   "self_type" : "type-478",
   "size" : 8,
   "source_file" : "/system/core/libutils/include/utils/Mutex.h"
  },
  {
   "alignment" : 8,
   "linker_set_key" : "android::RWLock *",
   "name" : "android::RWLock *",
   "referenced_type" : "type-481",
   "self_type" : "type-484",
   "size" : 8,
   "source_file" : "/system/core/libutils/include/utils/RWLock.h"
  },
  {
   "alignment" : 8,
   "linker_set_key" : "android::RWLock::AutoRLock *",
   "name" : "android::RWLock::AutoRLock *",
   "referenced_type" : "type-485",
   "self_type" : "type-487",
   "size" : 8,
   "source_file" : "/system/core/libutils/include/utils/RWLock.h"
  },
  {
   "alignment" : 8,
   "linker_set_key" : "android::RWLock::AutoWLock *",
   "name" : "android::RWLock::AutoWLock *",
   "referenced_type" : "type-488",
   "self_type" : "type-489",
   "size" : 8,
   "source_file" : "/system/core/libutils/include/utils/RWLock.h"
  },
  {
   "alignment" : 8,
   "linker_set_key" : "android::RefBase *",
   "name" : "android::RefBase *",
   "referenced_type" : "type-5",
   "self_type" : "type-261",
   "size" : 8,
   "source_file" : "/system/core/libutils/include/utils/RefBase.h"
  },
  {
   "alignment" : 8,
   "linker_set_key" : "android::RefBase::weakref_impl *",
   "name" : "android::RefBase::weakref_impl *",
   "referenced_type" : "type-599",
   "self_type" : "type-598",
   "size" : 8,
   "source_file" : "/system/core/libutils/include/utils/RefBase.h"
  },
  {
   "alignment" : 8,
   "linker_set_key" : "android::RefBase::weakref_impl *",
   "name" : "android::RefBase::weakref_impl *",
   "referenced_type" : "type-8",
   "self_type" : "type-7",
   "size" : 8,
   "source_file" : "/system/core/libutils/include/utils/RefBase.h"
  },
  {
   "alignment" : 8,
   "linker_set_key" : "android::RefBase::weakref_type *",
   "name" : "android::RefBase::weakref_type *",
   "referenced_type" : "type-35",
   "self_type" : "type-34",
   "size" : 8,
   "source_file" : "/system/core/libutils/include/utils/RefBase.h"
  },
  {
   "alignment" : 8,
   "linker_set_key" : "android::ReferenceRenamer *",
   "name" : "android::ReferenceRenamer *",
   "referenced_type" : "type-257",
   "self_type" : "type-258",
   "size" : 8,
   "source_file" : "/system/core/libutils/include/utils/RefBase.h"
  },
  {
   "alignment" : 8,
   "linker_set_key" : "android::ScopedTrace *",
   "name" : "android::ScopedTrace *",
   "referenced_type" : "type-491",
   "self_type" : "type-492",
   "size" : 8,
   "source_file" : "/system/core/libutils/include/utils/Trace.h"
  },
  {
   "alignment" : 8,
   "linker_set_key" : "android::String16 *",
   "name" : "android::String16 *",
   "referenced_type" : "type-41",
   "self_type" : "type-364",
   "size" : 8,
   "source_file" : "/system/core/libutils/include/utils/String16.h"
  },
  {
   "alignment" : 8,
   "linker_set_key" : "android::String8 *",
   "name" : "android::String8 *",
   "referenced_type" : "type-50",
   "self_type" : "type-358",
   "size" : 8,
   "source_file" : "/system/core/libutils/include/utils/String8.h"
  },
  {
   "alignment" : 8,
   "linker_set_key" : "android::Thread *",
   "name" : "android::Thread *",
   "referenced_type" : "type-69",
   "self_type" : "type-68",
   "size" : 8,
   "source_file" : "/system/core/libutils/include/utils/StrongPointer.h"
  },
  {
   "alignment" : 8,
   "linker_set_key" : "android::VirtualLightRefBase *",
   "name" : "android::VirtualLightRefBase *",
   "referenced_type" : "type-153",
   "self_type" : "type-160",
   "size" : 8,
   "source_file" : "/system/core/libutils/include/utils/LightRefBase.h"
  },
  {
   "alignment" : 8,
   "linker_set_key" : "android::frameworks::stats::V1_0::BnHwStats *",
   "name" : "android::frameworks::stats::V1_0::BnHwStats *",
   "referenced_type" : "type-526",
   "self_type" : "type-595",
   "size" : 8,
   "source_file" : "/system/core/libutils/include/utils/RefBase.h"
  },
  {
   "alignment" : 8,
   "linker_set_key" : "android::frameworks::stats::V1_0::BpHwStats *",
   "name" : "android::frameworks::stats::V1_0::BpHwStats *",
   "referenced_type" : "type-550",
   "self_type" : "type-640",
   "size" : 8,
   "source_file" : "/system/core/libutils/include/utils/StrongPointer.h"
  },
  {
   "alignment" : 8,
   "linker_set_key" : "android::frameworks::stats::V1_0::BsStats *",
   "name" : "android::frameworks::stats::V1_0::BsStats *",
   "referenced_type" : "type-616",
   "self_type" : "type-626",
   "size" : 8,
   "source_file" : "/system/core/libutils/include/utils/StrongPointer.h"
  },
  {
   "alignment" : 8,
   "linker_set_key" : "android::frameworks::stats::V1_0::IStats *",
   "name" : "android::frameworks::stats::V1_0::IStats *",
   "referenced_type" : "type-94",
   "self_type" : "type-93",
   "size" : 8,
   "source_file" : "/system/core/libutils/include/utils/StrongPointer.h"
  },
  {
   "alignment" : 8,
   "linker_set_key" : "android::frameworks::stats::V1_0::VendorAtom::Value *",
   "name" : "android::frameworks::stats::V1_0::VendorAtom::Value *",
   "referenced_type" : "type-317",
   "self_type" : "type-316",
   "size" : 8,
   "source_file" : "/system/libhidl/base/include/hidl/HidlInternal.h"
  },
  {
   "alignment" : 8,
   "linker_set_key" : "android::frameworks::stats::V1_0::VendorAtom::Value::hidl_union *",
   "name" : "android::frameworks::stats::V1_0::VendorAtom::Value::hidl_union *",
   "referenced_type" : "type-319",
   "self_type" : "type-628",
   "size" : 8,
   "source_file" : "/out/soong/.intermediates/frameworks/hardware/interfaces/stats/1.0/android.frameworks.stats@1.0_genc++_headers/gen/android/frameworks/stats/1.0/types.h"
  },
  {
   "alignment" : 8,
   "linker_set_key" : "android::hardware::BHwBinder *",
   "name" : "android::hardware::BHwBinder *",
   "referenced_type" : "type-115",
   "self_type" : "type-114",
   "size" : 8,
   "source_file" : "/system/core/libutils/include/utils/RefBase.h"
  },
  {
   "alignment" : 8,
   "linker_set_key" : "android::hardware::BpInterface<android::frameworks::stats::V1_0::IStats> *",
   "name" : "android::hardware::BpInterface<android::frameworks::stats::V1_0::IStats> *",
   "referenced_type" : "type-373",
   "self_type" : "type-372",
   "size" : 8,
   "source_file" : "/system/libhwbinder/include/hwbinder/IInterface.h"
  },
  {
   "alignment" : 8,
   "linker_set_key" : "android::hardware::ConcurrentMap<const android::hidl::base::V1_0::IBase *, android::wp<android::hardware::BHwBinder> > *",
   "name" : "android::hardware::ConcurrentMap<const android::hidl::base::V1_0::IBase *, android::wp<android::hardware::BHwBinder> > *",
   "referenced_type" : "type-415",
   "self_type" : "type-421",
   "size" : 8,
   "source_file" : "/system/libhidl/transport/include/hidl/ConcurrentMap.h"
  },
  {
   "alignment" : 8,
   "linker_set_key" : "android::hardware::ConcurrentMap<std::basic_string<char, std::char_traits<char>, std::allocator<char> >, std::function<sp<IBase> (void *)> > *",
   "name" : "android::hardware::ConcurrentMap<std::basic_string<char, std::char_traits<char>, std::allocator<char> >, std::function<sp<IBase> (void *)> > *",
   "referenced_type" : "type-435",
   "self_type" : "type-440",
   "size" : 8,
   "source_file" : "/system/libhidl/transport/include/hidl/ConcurrentMap.h"
  },
  {
   "alignment" : 8,
   "linker_set_key" : "android::hardware::ConcurrentMap<std::basic_string<char, std::char_traits<char>, std::allocator<char> >, std::function<sp<IBinder> (void *)> > *",
   "name" : "android::hardware::ConcurrentMap<std::basic_string<char, std::char_traits<char>, std::allocator<char> >, std::function<sp<IBinder> (void *)> > *",
   "referenced_type" : "type-424",
   "self_type" : "type-429",
   "size" : 8,
   "source_file" : "/system/libhidl/transport/include/hidl/ConcurrentMap.h"
  },
  {
   "alignment" : 8,
   "linker_set_key" : "android::hardware::GrantorDescriptor *",
   "name" : "android::hardware::GrantorDescriptor *",
   "referenced_type" : "type-285",
   "self_type" : "type-284",
   "size" : 8,
   "source_file" : "/system/libhidl/base/include/hidl/HidlInternal.h"
  },
  {
   "alignment" : 8,
   "linker_set_key" : "android::hardware::IBinder *",
   "name" : "android::hardware::IBinder *",
   "referenced_type" : "type-13",
   "self_type" : "type-12",
   "size" : 8,
   "source_file" : "/system/core/libutils/include/utils/StrongPointer.h"
  },
  {
   "alignment" : 8,
   "linker_set_key" : "android::hardware::IBinder::DeathRecipient *",
   "name" : "android::hardware::IBinder::DeathRecipient *",
   "referenced_type" : "type-107",
   "self_type" : "type-213",
   "size" : 8,
   "source_file" : "/system/core/libutils/include/utils/RefBase.h"
  },
  {
   "alignment" : 8,
   "linker_set_key" : "android::hardware::IInterface *",
   "name" : "android::hardware::IInterface *",
   "referenced_type" : "type-16",
   "self_type" : "type-15",
   "size" : 8,
   "source_file" : "/system/core/libutils/include/utils/StrongPointer.h"
  },
  {
   "alignment" : 8,
   "linker_set_key" : "android::hardware::Parcel *",
   "name" : "android::hardware::Parcel *",
   "referenced_type" : "type-374",
   "self_type" : "type-380",
   "size" : 8,
   "source_file" : "/system/libhwbinder/include/hwbinder/Parcel.h"
  },
  {
   "alignment" : 8,
   "linker_set_key" : "android::hardware::ProcessState *",
   "name" : "android::hardware::ProcessState *",
   "referenced_type" : "type-19",
   "self_type" : "type-18",
   "size" : 8,
   "source_file" : "/system/core/libutils/include/utils/StrongPointer.h"
  },
  {
   "alignment" : 8,
   "linker_set_key" : "android::hardware::Return<android::sp<android::frameworks::stats::V1_0::IStats> > *",
   "name" : "android::hardware::Return<android::sp<android::frameworks::stats::V1_0::IStats> > *",
   "referenced_type" : "type-134",
   "self_type" : "type-135",
   "size" : 8,
   "source_file" : "/system/libhidl/base/include/hidl/Status.h"
  },
  {
   "alignment" : 8,
   "linker_set_key" : "android::hardware::Return<bool> *",
   "name" : "android::hardware::Return<bool> *",
   "referenced_type" : "type-127",
   "self_type" : "type-129",
   "size" : 8,
   "source_file" : "/system/libhidl/base/include/hidl/Status.h"
  },
  {
   "alignment" : 8,
   "linker_set_key" : "android::hardware::Return<void> *",
   "name" : "android::hardware::Return<void> *",
   "referenced_type" : "type-147",
   "self_type" : "type-148",
   "size" : 8,
   "source_file" : "/system/libhidl/base/include/hidl/Status.h"
  },
  {
   "alignment" : 8,
   "linker_set_key" : "android::hardware::Status *",
   "name" : "android::hardware::Status *",
   "referenced_type" : "type-117",
   "self_type" : "type-120",
   "size" : 8,
   "source_file" : "/system/libhidl/base/include/hidl/Status.h"
  },
  {
   "alignment" : 8,
   "linker_set_key" : "android::hardware::details::HidlInstrumentor *",
   "name" : "android::hardware::details::HidlInstrumentor *",
   "referenced_type" : "type-392",
   "self_type" : "type-594",
   "size" : 8,
   "source_file" : "/system/libhidl/base/include/hidl/HidlInternal.h"
  },
  {
   "alignment" : 8,
   "linker_set_key" : "android::hardware::details::hidl_pointer<android::frameworks::stats::V1_0::VendorAtom::Value> *",
   "name" : "android::hardware::details::hidl_pointer<android::frameworks::stats::V1_0::VendorAtom::Value> *",
   "referenced_type" : "type-314",
   "self_type" : "type-574",
   "size" : 8,
   "source_file" : "/system/libhidl/base/include/hidl/HidlInternal.h"
  },
  {
   "alignment" : 8,
   "linker_set_key" : "android::hardware::details::hidl_pointer<android::hardware::hidl_array<unsigned char, 32> > *",
   "name" : "android::hardware::details::hidl_pointer<android::hardware::hidl_array<unsigned char, 32> > *",
   "referenced_type" : "type-295",
   "self_type" : "type-585",
   "size" : 8,
   "source_file" : "/system/libhidl/base/include/hidl/HidlInternal.h"
  },
  {
   "alignment" : 8,
   "linker_set_key" : "android::hardware::details::hidl_pointer<android::hardware::hidl_string> *",
   "name" : "android::hardware::details::hidl_pointer<android::hardware::hidl_string> *",
   "referenced_type" : "type-287",
   "self_type" : "type-580",
   "size" : 8,
   "source_file" : "/system/libhidl/base/include/hidl/HidlInternal.h"
  },
  {
   "alignment" : 8,
   "linker_set_key" : "android::hardware::details::hidl_pointer<int> *",
   "name" : "android::hardware::details::hidl_pointer<int> *",
   "referenced_type" : "type-305",
   "self_type" : "type-474",
   "size" : 8,
   "source_file" : "/system/libhidl/base/include/hidl/HidlInternal.h"
  },
  {
   "alignment" : 8,
   "linker_set_key" : "android::hardware::details::return_status *",
   "name" : "android::hardware::details::return_status *",
   "referenced_type" : "type-128",
   "self_type" : "type-141",
   "size" : 8,
   "source_file" : "/system/libhidl/base/include/hidl/Status.h"
  },
  {
   "alignment" : 8,
   "linker_set_key" : "android::hardware::hidl_array<unsigned char, 32> *",
   "name" : "android::hardware::hidl_array<unsigned char, 32> *",
   "referenced_type" : "type-298",
   "self_type" : "type-297",
   "size" : 8,
   "source_file" : "/system/libhidl/base/include/hidl/HidlInternal.h"
  },
  {
   "alignment" : 8,
   "linker_set_key" : "android::hardware::hidl_binder_death_recipient *",
   "name" : "android::hardware::hidl_binder_death_recipient *",
   "referenced_type" : "type-102",
   "self_type" : "type-101",
   "size" : 8,
   "source_file" : "/system/core/libutils/include/utils/StrongPointer.h"
  },
  {
   "alignment" : 8,
   "linker_set_key" : "android::hardware::hidl_death_recipient *",
   "name" : "android::hardware::hidl_death_recipient *",
   "referenced_type" : "type-105",
   "self_type" : "type-104",
   "size" : 8,
   "source_file" : "/system/core/libutils/include/utils/RefBase.h"
  },
  {
   "alignment" : 8,
   "linker_set_key" : "android::hardware::hidl_memory *",
   "name" : "android::hardware::hidl_memory *",
   "referenced_type" : "type-269",
   "self_type" : "type-270",
   "size" : 8,
   "source_file" : "/system/libhidl/base/include/hidl/HidlSupport.h"
  },
  {
   "alignment" : 8,
   "linker_set_key" : "android::hardware::hidl_string *",
   "name" : "android::hardware::hidl_string *",
   "referenced_type" : "type-265",
   "self_type" : "type-289",
   "size" : 8,
   "source_file" : "/system/libhidl/base/include/hidl/HidlInternal.h"
  },
  {
   "alignment" : 8,
   "linker_set_key" : "android::hardware::hidl_vec<android::frameworks::stats::V1_0::VendorAtom::Value> *",
   "name" : "android::hardware::hidl_vec<android::frameworks::stats::V1_0::VendorAtom::Value> *",
   "referenced_type" : "type-313",
   "self_type" : "type-320",
   "size" : 8,
   "source_file" : "/system/libhidl/base/include/hidl/HidlSupport.h"
  },
  {
   "alignment" : 8,
   "linker_set_key" : "android::hardware::hidl_vec<android::hardware::hidl_array<unsigned char, 32> > *",
   "name" : "android::hardware::hidl_vec<android::hardware::hidl_array<unsigned char, 32> > *",
   "referenced_type" : "type-294",
   "self_type" : "type-300",
   "size" : 8,
   "source_file" : "/system/libhidl/base/include/hidl/HidlSupport.h"
  },
  {
   "alignment" : 8,
   "linker_set_key" : "android::hardware::hidl_vec<android::hardware::hidl_string> *",
   "name" : "android::hardware::hidl_vec<android::hardware::hidl_string> *",
   "referenced_type" : "type-286",
   "self_type" : "type-290",
   "size" : 8,
   "source_file" : "/system/libhidl/base/include/hidl/HidlSupport.h"
  },
  {
   "alignment" : 8,
   "linker_set_key" : "android::hardware::hidl_vec<int> *",
   "name" : "android::hardware::hidl_vec<int> *",
   "referenced_type" : "type-304",
   "self_type" : "type-308",
   "size" : 8,
   "source_file" : "/system/libhidl/base/include/hidl/HidlSupport.h"
  },
  {
   "alignment" : 8,
   "linker_set_key" : "android::hardware::hidl_version *",
   "name" : "android::hardware::hidl_version *",
   "referenced_type" : "type-330",
   "self_type" : "type-331",
   "size" : 8,
   "source_file" : "/system/libhidl/base/include/hidl/HidlSupport.h"
  },
  {
   "alignment" : 8,
   "linker_set_key" : "android::hidl::base::V1_0::BnHwBase *",
   "name" : "android::hidl::base::V1_0::BnHwBase *",
   "referenced_type" : "type-390",
   "self_type" : "type-389",
   "size" : 8,
   "source_file" : "/out/soong/.intermediates/system/libhidl/transport/base/1.0/android.hidl.base@1.0_genc++_headers/gen/android/hidl/base/1.0/BnHwBase.h"
  },
  {
   "alignment" : 8,
   "linker_set_key" : "android::hidl::base::V1_0::IBase *",
   "name" : "android::hidl::base::V1_0::IBase *",
   "referenced_type" : "type-4",
   "self_type" : "type-3",
   "size" : 8,
   "source_file" : "/system/core/libutils/include/utils/RefBase.h"
  },
  {
   "alignment" : 8,
   "linker_set_key" : "android::hidl::manager::V1_0::IServiceManager *",
   "name" : "android::hidl::manager::V1_0::IServiceManager *",
   "referenced_type" : "type-61",
   "self_type" : "type-60",
   "size" : 8,
   "source_file" : "/system/core/libutils/include/utils/StrongPointer.h"
  },
  {
   "alignment" : 8,
   "linker_set_key" : "android::hidl::manager::V1_0::IServiceNotification *",
   "name" : "android::hidl::manager::V1_0::IServiceNotification *",
   "referenced_type" : "type-76",
   "self_type" : "type-75",
   "size" : 8,
   "source_file" : "/system/core/libutils/include/utils/StrongPointer.h"
  },
  {
   "alignment" : 8,
   "linker_set_key" : "android::sp<android::frameworks::stats::V1_0::IStats> *",
   "name" : "android::sp<android::frameworks::stats::V1_0::IStats> *",
   "referenced_type" : "type-92",
   "self_type" : "type-91",
   "size" : 8,
   "source_file" : "/system/core/libutils/include/utils/StrongPointer.h"
  },
  {
   "alignment" : 8,
   "linker_set_key" : "android::sp<android::hardware::IBinder::DeathRecipient> *",
   "name" : "android::sp<android::hardware::IBinder::DeathRecipient> *",
   "referenced_type" : "type-642",
   "self_type" : "type-643",
   "size" : 8,
   "source_file" : "/system/core/libutils/include/utils/StrongPointer.h"
  },
  {
   "alignment" : 8,
   "linker_set_key" : "android::sp<android::hardware::IBinder> *",
   "name" : "android::sp<android::hardware::IBinder> *",
   "referenced_type" : "type-11",
   "self_type" : "type-644",
   "size" : 8,
   "source_file" : "/system/core/libutils/include/utils/StrongPointer.h"
  },
  {
   "alignment" : 8,
   "linker_set_key" : "android::sp<android::hardware::ProcessState> *",
   "name" : "android::sp<android::hardware::ProcessState> *",
   "referenced_type" : "type-17",
   "self_type" : "type-56",
   "size" : 8,
   "source_file" : "/system/core/libutils/include/utils/StrongPointer.h"
  },
  {
   "alignment" : 8,
   "linker_set_key" : "android::sp<android::hardware::hidl_binder_death_recipient> *",
   "name" : "android::sp<android::hardware::hidl_binder_death_recipient> *",
   "referenced_type" : "type-100",
   "self_type" : "type-99",
   "size" : 8,
   "source_file" : "/system/core/libutils/include/utils/StrongPointer.h"
  },
  {
   "alignment" : 8,
   "linker_set_key" : "android::sp<android::hidl::base::V1_0::IBase> *",
   "name" : "android::sp<android::hidl::base::V1_0::IBase> *",
   "referenced_type" : "type-391",
   "self_type" : "type-611",
   "size" : 8,
   "source_file" : "/system/core/libutils/include/utils/StrongPointer.h"
  },
  {
   "alignment" : 8,
   "linker_set_key" : "android::sp<android::hidl::manager::V1_0::IServiceManager> *",
   "name" : "android::sp<android::hidl::manager::V1_0::IServiceManager> *",
   "referenced_type" : "type-59",
   "self_type" : "type-62",
   "size" : 8,
   "source_file" : "/system/core/libutils/include/utils/StrongPointer.h"
  },
  {
   "alignment" : 8,
   "linker_set_key" : "android::sp<android::hidl::manager::V1_0::IServiceNotification> *",
   "name" : "android::sp<android::hidl::manager::V1_0::IServiceNotification> *",
   "referenced_type" : "type-74",
   "self_type" : "type-88",
   "size" : 8,
   "source_file" : "/system/core/libutils/include/utils/StrongPointer.h"
  },
  {
   "alignment" : 8,
   "linker_set_key" : "android::wp<android::hardware::BHwBinder> *",
   "name" : "android::wp<android::hardware::BHwBinder> *",
   "referenced_type" : "type-420",
   "self_type" : "type-515",
   "size" : 8,
   "source_file" : "/system/core/libutils/include/utils/RefBase.h"
  },
  {
   "alignment" : 8,
   "linker_set_key" : "android::wp<android::hardware::IBinder::DeathRecipient> *",
   "name" : "android::wp<android::hardware::IBinder::DeathRecipient> *",
   "referenced_type" : "type-212",
   "self_type" : "type-254",
   "size" : 8,
   "source_file" : "/system/core/libutils/include/utils/RefBase.h"
  },
  {
   "alignment" : 8,
   "linker_set_key" : "android::wp<android::hardware::hidl_death_recipient> *",
   "name" : "android::wp<android::hardware::hidl_death_recipient> *",
   "referenced_type" : "type-103",
   "self_type" : "type-356",
   "size" : 8,
   "source_file" : "/system/core/libutils/include/utils/RefBase.h"
  },
  {
   "alignment" : 8,
   "linker_set_key" : "android::wp<android::hidl::base::V1_0::IBase> *",
   "name" : "android::wp<android::hidl::base::V1_0::IBase> *",
   "referenced_type" : "type-106",
   "self_type" : "type-622",
   "size" : 8,
   "source_file" : "/system/core/libutils/include/utils/RefBase.h"
  },
  {
   "alignment" : 8,
   "linker_set_key" : "android_flex_plane *",
   "name" : "android_flex_plane *",
   "referenced_type" : "type-462",
   "self_type" : "type-465",
   "size" : 8,
   "source_file" : "/system/core/libsystem/include/system/graphics.h"
  },
  {
   "alignment" : 8,
   "linker_set_key" : "bool (*)(const android::String16 &, const android::sp<android::hardware::IBinder> &, void *)",
   "name" : "bool (*)(const android::String16 &, const android::sp<android::hardware::IBinder> &, void *)",
   "referenced_type" : "type-38",
   "self_type" : "type-37",
   "size" : 8,
   "source_file" : "/system/libhwbinder/include/hwbinder/ProcessState.h"
  },
  {
   "alignment" : 8,
   "linker_set_key" : "char *",
   "name" : "char *",
   "referenced_type" : "type-53",
   "self_type" : "type-161",
   "size" : 8,
   "source_file" : "/system/core/liblog/include/log/log_read.h"
  },
  {
   "alignment" : 8,
   "linker_set_key" : "const android::NativeHandle *",
   "name" : "const android::NativeHandle *",
   "referenced_type" : "type-344",
   "self_type" : "type-346",
   "size" : 8,
   "source_file" : "/system/core/libutils/include/utils/NativeHandle.h"
  },
  {
   "alignment" : 8,
   "linker_set_key" : "const android::RefBase *",
   "name" : "const android::RefBase *",
   "referenced_type" : "type-259",
   "self_type" : "type-260",
   "size" : 8,
   "source_file" : "/system/core/libutils/include/utils/RefBase.h"
  },
  {
   "alignment" : 8,
   "linker_set_key" : "const android::String16 *",
   "name" : "const android::String16 *",
   "referenced_type" : "type-40",
   "self_type" : "type-361",
   "size" : 8,
   "source_file" : "/system/core/libutils/include/utils/String16.h"
  },
  {
   "alignment" : 8,
   "linker_set_key" : "const android::String8 *",
   "name" : "const android::String8 *",
   "referenced_type" : "type-353",
   "self_type" : "type-354",
   "size" : 8,
   "source_file" : "/system/core/libutils/include/utils/String8.h"
  },
  {
   "alignment" : 8,
   "linker_set_key" : "const android::VectorImpl *",
   "name" : "const android::VectorImpl *",
   "referenced_type" : "type-443",
   "self_type" : "type-444",
   "size" : 8,
   "source_file" : "/system/core/libutils/include/utils/VectorImpl.h"
  },
  {
   "alignment" : 8,
   "linker_set_key" : "const android::frameworks::stats::V1_0::BpHwStats *",
   "name" : "const android::frameworks::stats::V1_0::BpHwStats *",
   "referenced_type" : "type-549",
   "self_type" : "type-553",
   "size" : 8,
   "source_file" : "/out/soong/.intermediates/frameworks/hardware/interfaces/stats/1.0/android.frameworks.stats@1.0_genc++_headers/gen/android/frameworks/stats/1.0/BpHwStats.h"
  },
  {
   "alignment" : 8,
   "linker_set_key" : "const android::frameworks::stats::V1_0::IStats *",
   "name" : "const android::frameworks::stats::V1_0::IStats *",
   "referenced_type" : "type-539",
   "self_type" : "type-540",
   "size" : 8,
   "source_file" : "/out/soong/.intermediates/frameworks/hardware/interfaces/stats/1.0/android.frameworks.stats@1.0_genc++_headers/gen/android/frameworks/stats/1.0/IStats.h"
  },
  {
   "alignment" : 8,
   "linker_set_key" : "const android::frameworks::stats::V1_0::VendorAtom::Value *",
   "name" : "const android::frameworks::stats::V1_0::VendorAtom::Value *",
   "referenced_type" : "type-525",
   "self_type" : "type-524",
   "size" : 8,
   "source_file" : "/out/soong/.intermediates/frameworks/hardware/interfaces/stats/1.0/android.frameworks.stats@1.0_genc++_headers/gen/android/frameworks/stats/1.0/types.h"
  },
  {
   "alignment" : 8,
   "linker_set_key" : "const android::hardware::BpHwRefBase *",
   "name" : "const android::hardware::BpHwRefBase *",
   "referenced_type" : "type-366",
   "self_type" : "type-370",
   "size" : 8,
   "source_file" : "/system/libhwbinder/include/hwbinder/Binder.h"
  },
  {
   "alignment" : 8,
   "linker_set_key" : "const android::hardware::ConcurrentMap<android::wp<android::hidl::base::V1_0::IBase>, android::hardware::details::SchedPrio> *",
   "name" : "const android::hardware::ConcurrentMap<android::wp<android::hidl::base::V1_0::IBase>, android::hardware::details::SchedPrio> *",
   "referenced_type" : "type-406",
   "self_type" : "type-407",
   "size" : 8,
   "source_file" : "/system/libhidl/transport/include/hidl/ConcurrentMap.h"
  },
  {
   "alignment" : 8,
   "linker_set_key" : "const android::hardware::ConcurrentMap<android::wp<android::hidl::base::V1_0::IBase>, bool> *",
   "name" : "const android::hardware::ConcurrentMap<android::wp<android::hidl::base::V1_0::IBase>, bool> *",
   "referenced_type" : "type-413",
   "self_type" : "type-414",
   "size" : 8,
   "source_file" : "/system/libhidl/transport/include/hidl/ConcurrentMap.h"
  },
  {
   "alignment" : 8,
   "linker_set_key" : "const android::hardware::Return<android::sp<android::frameworks::stats::V1_0::IStats> > *",
   "name" : "const android::hardware::Return<android::sp<android::frameworks::stats::V1_0::IStats> > *",
   "referenced_type" : "type-138",
   "self_type" : "type-139",
   "size" : 8,
   "source_file" : "/system/libhidl/base/include/hidl/Status.h"
  },
  {
   "alignment" : 8,
   "linker_set_key" : "const android::hardware::Return<bool> *",
   "name" : "const android::hardware::Return<bool> *",
   "referenced_type" : "type-132",
   "self_type" : "type-133",
   "size" : 8,
   "source_file" : "/system/libhidl/base/include/hidl/Status.h"
  },
  {
   "alignment" : 8,
   "linker_set_key" : "const android::hardware::Status *",
   "name" : "const android::hardware::Status *",
   "referenced_type" : "type-121",
   "self_type" : "type-126",
   "size" : 8,
   "source_file" : "/system/libhidl/base/include/hidl/Status.h"
  },
  {
   "alignment" : 8,
   "linker_set_key" : "const android::hardware::details::hidl_pointer<android::frameworks::stats::V1_0::VendorAtom::Value> *",
   "name" : "const android::hardware::details::hidl_pointer<android::frameworks::stats::V1_0::VendorAtom::Value> *",
   "referenced_type" : "type-576",
   "self_type" : "type-577",
   "size" : 8,
   "source_file" : "/system/libhidl/base/include/hidl/HidlInternal.h"
  },
  {
   "alignment" : 8,
   "linker_set_key" : "const android::hardware::details::hidl_pointer<android::hardware::hidl_array<unsigned char, 32> > *",
   "name" : "const android::hardware::details::hidl_pointer<android::hardware::hidl_array<unsigned char, 32> > *",
   "referenced_type" : "type-587",
   "self_type" : "type-588",
   "size" : 8,
   "source_file" : "/system/libhidl/base/include/hidl/HidlInternal.h"
  },
  {
   "alignment" : 8,
   "linker_set_key" : "const android::hardware::details::hidl_pointer<android::hardware::hidl_string> *",
   "name" : "const android::hardware::details::hidl_pointer<android::hardware::hidl_string> *",
   "referenced_type" : "type-582",
   "self_type" : "type-583",
   "size" : 8,
   "source_file" : "/system/libhidl/base/include/hidl/HidlInternal.h"
  },
  {
   "alignment" : 8,
   "linker_set_key" : "const android::hardware::details::hidl_pointer<int> *",
   "name" : "const android::hardware::details::hidl_pointer<int> *",
   "referenced_type" : "type-490",
   "self_type" : "type-500",
   "size" : 8,
   "source_file" : "/system/libhidl/base/include/hidl/HidlInternal.h"
  },
  {
   "alignment" : 8,
   "linker_set_key" : "const android::hardware::details::return_status *",
   "name" : "const android::hardware::details::return_status *",
   "referenced_type" : "type-143",
   "self_type" : "type-144",
   "size" : 8,
   "source_file" : "/system/libhidl/base/include/hidl/Status.h"
  },
  {
   "alignment" : 8,
   "linker_set_key" : "const android::hardware::hidl_death_recipient *",
   "name" : "const android::hardware::hidl_death_recipient *",
   "referenced_type" : "type-607",
   "self_type" : "type-608",
   "size" : 8,
   "source_file" : "/system/core/libutils/include/utils/StrongPointer.h"
  },
  {
   "alignment" : 8,
   "linker_set_key" : "const android::hardware::hidl_memory *",
   "name" : "const android::hardware::hidl_memory *",
   "referenced_type" : "type-272",
   "self_type" : "type-276",
   "size" : 8,
   "source_file" : "/system/libhidl/base/include/hidl/HidlSupport.h"
  },
  {
   "alignment" : 8,
   "linker_set_key" : "const android::hardware::hidl_vec<android::frameworks::stats::V1_0::VendorAtom::Value> *",
   "name" : "const android::hardware::hidl_vec<android::frameworks::stats::V1_0::VendorAtom::Value> *",
   "referenced_type" : "type-321",
   "self_type" : "type-324",
   "size" : 8,
   "source_file" : "/system/libhidl/base/include/hidl/HidlSupport.h"
  },
  {
   "alignment" : 8,
   "linker_set_key" : "const android::hardware::hidl_vec<int> *",
   "name" : "const android::hardware::hidl_vec<int> *",
   "referenced_type" : "type-309",
   "self_type" : "type-312",
   "size" : 8,
   "source_file" : "/system/libhidl/base/include/hidl/HidlSupport.h"
  },
  {
   "alignment" : 8,
   "linker_set_key" : "const android::hardware::hidl_version *",
   "name" : "const android::hardware::hidl_version *",
   "referenced_type" : "type-332",
   "self_type" : "type-333",
   "size" : 8,
   "source_file" : "/system/libhidl/base/include/hidl/HidlSupport.h"
  },
  {
   "alignment" : 8,
   "linker_set_key" : "const android::hidl::base::V1_0::BpHwBase *",
   "name" : "const android::hidl::base::V1_0::BpHwBase *",
   "referenced_type" : "type-547",
   "self_type" : "type-548",
   "size" : 8,
   "source_file" : "/out/soong/.intermediates/system/libhidl/transport/base/1.0/android.hidl.base@1.0_genc++_headers/gen/android/hidl/base/1.0/BpHwBase.h"
  },
  {
   "alignment" : 8,
   "linker_set_key" : "const android::hidl::base::V1_0::IBase *",
   "name" : "const android::hidl::base::V1_0::IBase *",
   "referenced_type" : "type-419",
   "self_type" : "type-418",
   "size" : 8,
   "source_file" : "/system/core/libutils/include/utils/StrongPointer.h"
  },
  {
   "alignment" : 8,
   "linker_set_key" : "const android::hidl::manager::V1_0::IServiceManager *",
   "name" : "const android::hidl::manager::V1_0::IServiceManager *",
   "referenced_type" : "type-65",
   "self_type" : "type-66",
   "size" : 8,
   "source_file" : "/system/core/libutils/include/utils/StrongPointer.h"
  },
  {
   "alignment" : 8,
   "linker_set_key" : "const android::hidl::manager::V1_0::IServiceNotification *",
   "name" : "const android::hidl::manager::V1_0::IServiceNotification *",
   "referenced_type" : "type-493",
   "self_type" : "type-494",
   "size" : 8,
   "source_file" : "/out/soong/.intermediates/system/libhidl/transport/manager/1.0/android.hidl.manager@1.0_genc++_headers/gen/android/hidl/manager/1.0/IServiceNotification.h"
  },
  {
   "alignment" : 8,
   "linker_set_key" : "const android::sp<android::frameworks::stats::V1_0::IStats> *",
   "name" : "const android::sp<android::frameworks::stats::V1_0::IStats> *",
   "referenced_type" : "type-98",
   "self_type" : "type-97",
   "size" : 8,
   "source_file" : "/system/core/libutils/include/utils/StrongPointer.h"
  },
  {
   "alignment" : 8,
   "linker_set_key" : "const android::sp<android::hardware::IBinder> *",
   "name" : "const android::sp<android::hardware::IBinder> *",
   "referenced_type" : "type-10",
   "self_type" : "type-9",
   "size" : 8,
   "source_file" : "/system/core/libutils/include/utils/StrongPointer.h"
  },
  {
   "alignment" : 8,
   "linker_set_key" : "const android::sp<android::hardware::ProcessState> *",
   "name" : "const android::sp<android::hardware::ProcessState> *",
   "referenced_type" : "type-57",
   "self_type" : "type-58",
   "size" : 8,
   "source_file" : "/system/core/libutils/include/utils/StrongPointer.h"
  },
  {
   "alignment" : 8,
   "linker_set_key" : "const android::sp<android::hardware::hidl_binder_death_recipient> *",
   "name" : "const android::sp<android::hardware::hidl_binder_death_recipient> *",
   "referenced_type" : "type-112",
   "self_type" : "type-111",
   "size" : 8,
   "source_file" : "/system/core/libutils/include/utils/StrongPointer.h"
  },
  {
   "alignment" : 8,
   "linker_set_key" : "const android::sp<android::hardware::hidl_death_recipient> *",
   "name" : "const android::sp<android::hardware::hidl_death_recipient> *",
   "referenced_type" : "type-411",
   "self_type" : "type-602",
   "size" : 8,
   "source_file" : "/system/core/libutils/include/utils/StrongPointer.h"
  },
  {
   "alignment" : 8,
   "linker_set_key" : "const android::sp<android::hidl::base::V1_0::IBase> *",
   "name" : "const android::sp<android::hidl::base::V1_0::IBase> *",
   "referenced_type" : "type-612",
   "self_type" : "type-641",
   "size" : 8,
   "source_file" : "/system/core/libutils/include/utils/StrongPointer.h"
  },
  {
   "alignment" : 8,
   "linker_set_key" : "const android::sp<android::hidl::manager::V1_0::IServiceManager> *",
   "name" : "const android::sp<android::hidl::manager::V1_0::IServiceManager> *",
   "referenced_type" : "type-63",
   "self_type" : "type-64",
   "size" : 8,
   "source_file" : "/system/core/libutils/include/utils/StrongPointer.h"
  },
  {
   "alignment" : 8,
   "linker_set_key" : "const android::sp<android::hidl::manager::V1_0::IServiceNotification> *",
   "name" : "const android::sp<android::hidl::manager::V1_0::IServiceNotification> *",
   "referenced_type" : "type-89",
   "self_type" : "type-90",
   "size" : 8,
   "source_file" : "/system/core/libutils/include/utils/StrongPointer.h"
  },
  {
   "alignment" : 8,
   "linker_set_key" : "const android::wp<android::hardware::BHwBinder> *",
   "name" : "const android::wp<android::hardware::BHwBinder> *",
   "referenced_type" : "type-596",
   "self_type" : "type-597",
   "size" : 8,
   "source_file" : "/system/core/libutils/include/utils/RefBase.h"
  },
  {
   "alignment" : 8,
   "linker_set_key" : "const android::wp<android::hardware::hidl_death_recipient> *",
   "name" : "const android::wp<android::hardware::hidl_death_recipient> *",
   "referenced_type" : "type-383",
   "self_type" : "type-398",
   "size" : 8,
   "source_file" : "/system/core/libutils/include/utils/RefBase.h"
  },
  {
   "alignment" : 8,
   "linker_set_key" : "const android::wp<android::hidl::base::V1_0::IBase> *",
   "name" : "const android::wp<android::hidl::base::V1_0::IBase> *",
   "referenced_type" : "type-179",
   "self_type" : "type-190",
   "size" : 8,
   "source_file" : "/system/core/libutils/include/utils/RefBase.h"
  },
  {
   "alignment" : 8,
   "linker_set_key" : "const char *",
   "name" : "const char *",
   "referenced_type" : "type-52",
   "self_type" : "type-51",
   "size" : 8,
   "source_file" : "/system/libhidl/base/include/hidl/HidlInternal.h"
  },
  {
   "alignment" : 8,
   "linker_set_key" : "const char16_t *",
   "name" : "const char16_t *",
   "referenced_type" : "type-43",
   "self_type" : "type-42",
   "size" : 8,
   "source_file" : "/system/core/libutils/include/utils/String16.h"
  },
  {
   "alignment" : 8,
   "linker_set_key" : "const int *",
   "name" : "const int *",
   "referenced_type" : "type-523",
   "self_type" : "type-606",
   "size" : 8,
   "source_file" : "/system/libhidl/base/include/hidl/HidlSupport.h"
  },
  {
   "alignment" : 8,
   "linker_set_key" : "const log_msg *",
   "name" : "const log_msg *",
   "referenced_type" : "type-77",
   "self_type" : "type-109",
   "size" : 8,
   "source_file" : "/system/core/liblog/include/log/log_read.h"
  },
  {
   "alignment" : 8,
   "linker_set_key" : "const native_handle *",
   "name" : "const native_handle *",
   "referenced_type" : "type-252",
   "self_type" : "type-251",
   "size" : 8,
   "source_file" : "/system/libhidl/base/include/hidl/HidlInternal.h"
  },
  {
   "alignment" : 8,
   "linker_set_key" : "const unsigned char *",
   "name" : "const unsigned char *",
   "referenced_type" : "type-236",
   "self_type" : "type-329",
   "size" : 8,
   "source_file" : "/system/libhidl/base/include/hidl/HidlSupport.h"
  },
  {
   "alignment" : 8,
   "linker_set_key" : "const unsigned long long *",
   "name" : "const unsigned long long *",
   "referenced_type" : "type-382",
   "self_type" : "type-381",
   "size" : 8,
   "source_file" : "/system/libhwbinder/include/hwbinder/Parcel.h"
  },
  {
   "alignment" : 8,
   "linker_set_key" : "const void *",
   "name" : "const void *",
   "referenced_type" : "type-335",
   "self_type" : "type-336",
   "size" : 8,
   "source_file" : "/system/libhidl/base/include/hidl/HidlSupport.h"
  },
  {
   "alignment" : 8,
   "linker_set_key" : "float *",
   "name" : "float *",
   "referenced_type" : "type-222",
   "self_type" : "type-621",
   "size" : 8,
   "source_file" : "/system/libhidl/base/include/hidl/HidlInternal.h"
  },
  {
   "alignment" : 8,
   "linker_set_key" : "int (*)(void *)",
   "name" : "int (*)(void *)",
   "referenced_type" : "type-471",
   "self_type" : "type-472",
   "size" : 8,
   "source_file" : "/system/core/libutils/include/utils/AndroidThreads.h"
  },
  {
   "alignment" : 8,
   "linker_set_key" : "int *",
   "name" : "int *",
   "referenced_type" : "type-20",
   "self_type" : "type-307",
   "size" : 8,
   "source_file" : "/system/libhidl/base/include/hidl/HidlInternal.h"
  },
  {
   "alignment" : 8,
   "linker_set_key" : "log_msg *",
   "name" : "log_msg *",
   "referenced_type" : "type-78",
   "self_type" : "type-146",
   "size" : 8,
   "source_file" : "/system/core/liblog/include/log/log_read.h"
  },
  {
   "alignment" : 8,
   "linker_set_key" : "long *",
   "name" : "long *",
   "referenced_type" : "type-26",
   "self_type" : "type-620",
   "size" : 8,
   "source_file" : "/system/libhidl/base/include/hidl/HidlInternal.h"
  },
  {
   "alignment" : 8,
   "linker_set_key" : "native_handle *",
   "name" : "native_handle *",
   "referenced_type" : "type-158",
   "self_type" : "type-157",
   "size" : 8,
   "source_file" : "/system/libhidl/base/include/hidl/HidlInternal.h"
  },
  {
   "alignment" : 8,
   "linker_set_key" : "unsigned char *",
   "name" : "unsigned char *",
   "referenced_type" : "type-81",
   "self_type" : "type-376",
   "size" : 8,
   "source_file" : "/system/libhwbinder/include/hwbinder/Parcel.h"
  },
  {
   "alignment" : 8,
   "linker_set_key" : "unsigned long *",
   "name" : "unsigned long *",
   "referenced_type" : "type-25",
   "self_type" : "type-619",
   "size" : 8,
   "source_file" : "/system/libhidl/transport/include/hidl/HidlBinderSupport.h"
  },
  {
   "alignment" : 8,
   "linker_set_key" : "unsigned long long *",
   "name" : "unsigned long long *",
   "referenced_type" : "type-216",
   "self_type" : "type-377",
   "size" : 8,
   "source_file" : "/system/libhwbinder/include/hwbinder/Parcel.h"
  },
  {
   "alignment" : 8,
   "linker_set_key" : "void (*)(android::hardware::Parcel *, const unsigned char *, unsigned long, const unsigned long long *, unsigned long, void *)",
   "name" : "void (*)(android::hardware::Parcel *, const unsigned char *, unsigned long, const unsigned long long *, unsigned long, void *)",
   "referenced_type" : "type-379",
   "self_type" : "type-378",
   "size" : 8,
   "source_file" : "/system/libhwbinder/include/hwbinder/Parcel.h"
  },
  {
   "alignment" : 8,
   "linker_set_key" : "void *",
   "name" : "void *",
   "referenced_type" : "type-22",
   "self_type" : "type-21",
   "size" : 8,
   "source_file" : "/system/libhwbinder/include/hwbinder/Binder.h"
  },
  {
   "alignment" : 8,
   "linker_set_key" : "void **",
   "name" : "void **",
   "referenced_type" : "type-21",
   "self_type" : "type-473",
   "size" : 8,
   "source_file" : "/system/core/libutils/include/utils/AndroidThreads.h"
  }
 ],
 "qualified_types" :
 [
  {
   "alignment" : 8,
   "is_const" : true,
   "linker_set_key" : "android::RefBase::weakref_impl *const",
   "name" : "android::RefBase::weakref_impl *const",
   "referenced_type" : "type-598",
   "self_type" : "type-600",
   "size" : 8,
   "source_file" : "/system/core/libutils/include/utils/RefBase.h"
  },
  {
   "alignment" : 8,
   "is_const" : true,
   "linker_set_key" : "android::RefBase::weakref_impl *const",
   "name" : "android::RefBase::weakref_impl *const",
   "referenced_type" : "type-7",
   "self_type" : "type-6",
   "size" : 8,
   "source_file" : "/system/core/libutils/include/utils/RefBase.h"
  },
  {
   "alignment" : 8,
   "is_const" : true,
   "linker_set_key" : "android::hardware::IBinder *const",
   "name" : "android::hardware::IBinder *const",
   "referenced_type" : "type-12",
   "self_type" : "type-368",
   "size" : 8,
   "source_file" : "/system/libhwbinder/include/hwbinder/Binder.h"
  },
  {
   "alignment" : 8,
   "is_const" : true,
   "linker_set_key" : "const android::NativeHandle",
   "name" : "const android::NativeHandle",
   "referenced_type" : "type-156",
   "self_type" : "type-344",
   "size" : 24,
   "source_file" : "/system/core/libutils/include/utils/NativeHandle.h"
  },
  {
   "alignment" : 8,
   "is_const" : true,
   "linker_set_key" : "const android::RefBase",
   "name" : "const android::RefBase",
   "referenced_type" : "type-5",
   "self_type" : "type-259",
   "size" : 16,
   "source_file" : "/system/core/libutils/include/utils/RefBase.h"
  },
  {
   "alignment" : 8,
   "is_const" : true,
   "linker_set_key" : "const android::String16",
   "name" : "const android::String16",
   "referenced_type" : "type-41",
   "self_type" : "type-40",
   "size" : 8,
   "source_file" : "/system/core/libutils/include/utils/String16.h"
  },
  {
   "alignment" : 8,
   "is_const" : true,
   "linker_set_key" : "const android::String8",
   "name" : "const android::String8",
   "referenced_type" : "type-50",
   "self_type" : "type-353",
   "size" : 8,
   "source_file" : "/system/core/libutils/include/utils/String8.h"
  },
  {
   "alignment" : 8,
   "is_const" : true,
   "linker_set_key" : "const android::VectorImpl",
   "name" : "const android::VectorImpl",
   "referenced_type" : "type-30",
   "self_type" : "type-443",
   "size" : 40,
   "source_file" : "/system/core/libutils/include/utils/VectorImpl.h"
  },
  {
   "alignment" : 4,
   "is_const" : true,
   "linker_set_key" : "const android::frameworks::stats::V1_0::BatteryCausedShutdown",
   "name" : "const android::frameworks::stats::V1_0::BatteryCausedShutdown",
   "referenced_type" : "type-518",
   "self_type" : "type-566",
   "size" : 4,
   "source_file" : "/out/soong/.intermediates/frameworks/hardware/interfaces/stats/1.0/android.frameworks.stats@1.0_genc++_headers/gen/android/frameworks/stats/1.0/BpHwStats.h"
  },
  {
   "alignment" : 4,
   "is_const" : true,
   "linker_set_key" : "const android::frameworks::stats::V1_0::BatteryHealthSnapshotArgs",
   "name" : "const android::frameworks::stats::V1_0::BatteryHealthSnapshotArgs",
   "referenced_type" : "type-513",
   "self_type" : "type-562",
   "size" : 28,
   "source_file" : "/out/soong/.intermediates/frameworks/hardware/interfaces/stats/1.0/android.frameworks.stats@1.0_genc++_headers/gen/android/frameworks/stats/1.0/BpHwStats.h"
  },
  {
   "alignment" : 4,
   "is_const" : true,
   "linker_set_key" : "const android::frameworks::stats::V1_0::BatteryHealthSnapshotArgs::BatterySnapshotType",
   "name" : "const android::frameworks::stats::V1_0::BatteryHealthSnapshotArgs::BatterySnapshotType",
   "referenced_type" : "type-514",
   "self_type" : "type-529",
   "size" : 4,
   "source_file" : "/out/soong/.intermediates/frameworks/hardware/interfaces/stats/1.0/android.frameworks.stats@1.0_genc++_headers/gen/android/frameworks/stats/1.0/types.h"
  },
  {
   "alignment" : 8,
   "is_const" : true,
   "linker_set_key" : "const android::frameworks::stats::V1_0::BpHwStats",
   "name" : "const android::frameworks::stats::V1_0::BpHwStats",
   "referenced_type" : "type-550",
   "self_type" : "type-549",
   "size" : 216,
   "source_file" : "/out/soong/.intermediates/frameworks/hardware/interfaces/stats/1.0/android.frameworks.stats@1.0_genc++_headers/gen/android/frameworks/stats/1.0/BpHwStats.h"
  },
  {
   "alignment" : 8,
   "is_const" : true,
   "linker_set_key" : "const android::frameworks::stats::V1_0::ChargeCycles",
   "name" : "const android::frameworks::stats::V1_0::ChargeCycles",
   "referenced_type" : "type-512",
   "self_type" : "type-560",
   "size" : 16,
   "source_file" : "/out/soong/.intermediates/frameworks/hardware/interfaces/stats/1.0/android.frameworks.stats@1.0_genc++_headers/gen/android/frameworks/stats/1.0/BpHwStats.h"
  },
  {
   "alignment" : 4,
   "is_const" : true,
   "linker_set_key" : "const android::frameworks::stats::V1_0::HardwareFailed",
   "name" : "const android::frameworks::stats::V1_0::HardwareFailed",
   "referenced_type" : "type-507",
   "self_type" : "type-556",
   "size" : 12,
   "source_file" : "/out/soong/.intermediates/frameworks/hardware/interfaces/stats/1.0/android.frameworks.stats@1.0_genc++_headers/gen/android/frameworks/stats/1.0/BpHwStats.h"
  },
  {
   "alignment" : 4,
   "is_const" : true,
   "linker_set_key" : "const android::frameworks::stats::V1_0::HardwareFailed::HardwareErrorCode",
   "name" : "const android::frameworks::stats::V1_0::HardwareFailed::HardwareErrorCode",
   "referenced_type" : "type-509",
   "self_type" : "type-528",
   "size" : 4,
   "source_file" : "/out/soong/.intermediates/frameworks/hardware/interfaces/stats/1.0/android.frameworks.stats@1.0_genc++_headers/gen/android/frameworks/stats/1.0/types.h"
  },
  {
   "alignment" : 4,
   "is_const" : true,
   "linker_set_key" : "const android::frameworks::stats::V1_0::HardwareFailed::HardwareType",
   "name" : "const android::frameworks::stats::V1_0::HardwareFailed::HardwareType",
   "referenced_type" : "type-508",
   "self_type" : "type-527",
   "size" : 4,
   "source_file" : "/out/soong/.intermediates/frameworks/hardware/interfaces/stats/1.0/android.frameworks.stats@1.0_genc++_headers/gen/android/frameworks/stats/1.0/types.h"
  },
  {
   "alignment" : 8,
   "is_const" : true,
   "linker_set_key" : "const android::frameworks::stats::V1_0::IStats",
   "name" : "const android::frameworks::stats::V1_0::IStats",
   "referenced_type" : "type-94",
   "self_type" : "type-539",
   "size" : 24,
   "source_file" : "/out/soong/.intermediates/frameworks/hardware/interfaces/stats/1.0/android.frameworks.stats@1.0_genc++_headers/gen/android/frameworks/stats/1.0/IStats.h"
  },
  {
   "alignment" : 4,
   "is_const" : true,
   "linker_set_key" : "const android::frameworks::stats::V1_0::PhysicalDropDetected",
   "name" : "const android::frameworks::stats::V1_0::PhysicalDropDetected",
   "referenced_type" : "type-510",
   "self_type" : "type-558",
   "size" : 12,
   "source_file" : "/out/soong/.intermediates/frameworks/hardware/interfaces/stats/1.0/android.frameworks.stats@1.0_genc++_headers/gen/android/frameworks/stats/1.0/BpHwStats.h"
  },
  {
   "alignment" : 4,
   "is_const" : true,
   "linker_set_key" : "const android::frameworks::stats::V1_0::SlowIo",
   "name" : "const android::frameworks::stats::V1_0::SlowIo",
   "referenced_type" : "type-516",
   "self_type" : "type-564",
   "size" : 8,
   "source_file" : "/out/soong/.intermediates/frameworks/hardware/interfaces/stats/1.0/android.frameworks.stats@1.0_genc++_headers/gen/android/frameworks/stats/1.0/BpHwStats.h"
  },
  {
   "alignment" : 4,
   "is_const" : true,
   "linker_set_key" : "const android::frameworks::stats::V1_0::SlowIo::IoOperation",
   "name" : "const android::frameworks::stats::V1_0::SlowIo::IoOperation",
   "referenced_type" : "type-517",
   "self_type" : "type-530",
   "size" : 4,
   "source_file" : "/out/soong/.intermediates/frameworks/hardware/interfaces/stats/1.0/android.frameworks.stats@1.0_genc++_headers/gen/android/frameworks/stats/1.0/types.h"
  },
  {
   "alignment" : 4,
   "is_const" : true,
   "linker_set_key" : "const android::frameworks::stats::V1_0::SpeakerImpedance",
   "name" : "const android::frameworks::stats::V1_0::SpeakerImpedance",
   "referenced_type" : "type-506",
   "self_type" : "type-554",
   "size" : 8,
   "source_file" : "/out/soong/.intermediates/frameworks/hardware/interfaces/stats/1.0/android.frameworks.stats@1.0_genc++_headers/gen/android/frameworks/stats/1.0/BpHwStats.h"
  },
  {
   "alignment" : 4,
   "is_const" : true,
   "linker_set_key" : "const android::frameworks::stats::V1_0::SpeechDspStat",
   "name" : "const android::frameworks::stats::V1_0::SpeechDspStat",
   "referenced_type" : "type-520",
   "self_type" : "type-570",
   "size" : 16,
   "source_file" : "/out/soong/.intermediates/frameworks/hardware/interfaces/stats/1.0/android.frameworks.stats@1.0_genc++_headers/gen/android/frameworks/stats/1.0/BpHwStats.h"
  },
  {
   "alignment" : 4,
   "is_const" : true,
   "linker_set_key" : "const android::frameworks::stats::V1_0::UsbPortOverheatEvent",
   "name" : "const android::frameworks::stats::V1_0::UsbPortOverheatEvent",
   "referenced_type" : "type-519",
   "self_type" : "type-568",
   "size" : 20,
   "source_file" : "/out/soong/.intermediates/frameworks/hardware/interfaces/stats/1.0/android.frameworks.stats@1.0_genc++_headers/gen/android/frameworks/stats/1.0/BpHwStats.h"
  },
  {
   "alignment" : 8,
   "is_const" : true,
   "linker_set_key" : "const android::frameworks::stats::V1_0::VendorAtom",
   "name" : "const android::frameworks::stats::V1_0::VendorAtom",
   "referenced_type" : "type-521",
   "self_type" : "type-572",
   "size" : 40,
   "source_file" : "/out/soong/.intermediates/frameworks/hardware/interfaces/stats/1.0/android.frameworks.stats@1.0_genc++_headers/gen/android/frameworks/stats/1.0/BpHwStats.h"
  },
  {
   "alignment" : 8,
   "is_const" : true,
   "linker_set_key" : "const android::frameworks::stats::V1_0::VendorAtom::Value",
   "name" : "const android::frameworks::stats::V1_0::VendorAtom::Value",
   "referenced_type" : "type-317",
   "self_type" : "type-525",
   "size" : 24,
   "source_file" : "/system/libhidl/base/include/hidl/HidlInternal.h"
  },
  {
   "alignment" : 8,
   "is_const" : true,
   "linker_set_key" : "const android::hardware::BpHwRefBase",
   "name" : "const android::hardware::BpHwRefBase",
   "referenced_type" : "type-367",
   "self_type" : "type-366",
   "size" : 48,
   "source_file" : "/system/libhwbinder/include/hwbinder/Binder.h"
  },
  {
   "alignment" : 8,
   "is_const" : true,
   "linker_set_key" : "const android::hardware::ConcurrentMap<android::wp<android::hidl::base::V1_0::IBase>, android::hardware::details::SchedPrio>",
   "name" : "const android::hardware::ConcurrentMap<android::wp<android::hidl::base::V1_0::IBase>, android::hardware::details::SchedPrio>",
   "referenced_type" : "type-400",
   "self_type" : "type-406",
   "size" : 64,
   "source_file" : "/system/libhidl/transport/include/hidl/ConcurrentMap.h"
  },
  {
   "alignment" : 8,
   "is_const" : true,
   "linker_set_key" : "const android::hardware::ConcurrentMap<android::wp<android::hidl::base::V1_0::IBase>, bool>",
   "name" : "const android::hardware::ConcurrentMap<android::wp<android::hidl::base::V1_0::IBase>, bool>",
   "referenced_type" : "type-408",
   "self_type" : "type-413",
   "size" : 64,
   "source_file" : "/system/libhidl/transport/include/hidl/ConcurrentMap.h"
  },
  {
   "alignment" : 8,
   "is_const" : true,
   "linker_set_key" : "const android::hardware::Parcel",
   "name" : "const android::hardware::Parcel",
   "referenced_type" : "type-374",
   "self_type" : "type-387",
   "size" : 136,
   "source_file" : "/system/libhwbinder/include/hwbinder/Parcel.h"
  },
  {
   "alignment" : 8,
   "is_const" : true,
   "linker_set_key" : "const android::hardware::Return<android::sp<android::frameworks::stats::V1_0::IStats> >",
   "name" : "const android::hardware::Return<android::sp<android::frameworks::stats::V1_0::IStats> >",
   "referenced_type" : "type-134",
   "self_type" : "type-138",
   "size" : 48,
   "source_file" : "/system/libhidl/base/include/hidl/Status.h"
  },
  {
   "alignment" : 8,
   "is_const" : true,
   "linker_set_key" : "const android::hardware::Return<bool>",
   "name" : "const android::hardware::Return<bool>",
   "referenced_type" : "type-127",
   "self_type" : "type-132",
   "size" : 40,
   "source_file" : "/system/libhidl/base/include/hidl/Status.h"
  },
  {
   "alignment" : 8,
   "is_const" : true,
   "linker_set_key" : "const android::hardware::Status",
   "name" : "const android::hardware::Status",
   "referenced_type" : "type-117",
   "self_type" : "type-121",
   "size" : 32,
   "source_file" : "/system/libhidl/base/include/hidl/Status.h"
  },
  {
   "alignment" : 4,
   "is_const" : true,
   "linker_set_key" : "const android::hardware::details::SchedPrio",
   "name" : "const android::hardware::details::SchedPrio",
   "referenced_type" : "type-403",
   "self_type" : "type-405",
   "size" : 8,
   "source_file" : "/system/libhidl/transport/include/hidl/ConcurrentMap.h"
  },
  {
   "alignment" : 8,
   "is_const" : true,
   "linker_set_key" : "const android::hardware::details::hidl_pointer<android::frameworks::stats::V1_0::VendorAtom::Value>",
   "name" : "const android::hardware::details::hidl_pointer<android::frameworks::stats::V1_0::VendorAtom::Value>",
   "referenced_type" : "type-314",
   "self_type" : "type-576",
   "size" : 8,
   "source_file" : "/system/libhidl/base/include/hidl/HidlInternal.h"
  },
  {
   "alignment" : 8,
   "is_const" : true,
   "linker_set_key" : "const android::hardware::details::hidl_pointer<android::hardware::hidl_array<unsigned char, 32> >",
   "name" : "const android::hardware::details::hidl_pointer<android::hardware::hidl_array<unsigned char, 32> >",
   "referenced_type" : "type-295",
   "self_type" : "type-587",
   "size" : 8,
   "source_file" : "/system/libhidl/base/include/hidl/HidlInternal.h"
  },
  {
   "alignment" : 8,
   "is_const" : true,
   "linker_set_key" : "const android::hardware::details::hidl_pointer<android::hardware::hidl_string>",
   "name" : "const android::hardware::details::hidl_pointer<android::hardware::hidl_string>",
   "referenced_type" : "type-287",
   "self_type" : "type-582",
   "size" : 8,
   "source_file" : "/system/libhidl/base/include/hidl/HidlInternal.h"
  },
  {
   "alignment" : 8,
   "is_const" : true,
   "linker_set_key" : "const android::hardware::details::hidl_pointer<int>",
   "name" : "const android::hardware::details::hidl_pointer<int>",
   "referenced_type" : "type-305",
   "self_type" : "type-490",
   "size" : 8,
   "source_file" : "/system/libhidl/base/include/hidl/HidlInternal.h"
  },
  {
   "alignment" : 8,
   "is_const" : true,
   "linker_set_key" : "const android::hardware::details::return_status",
   "name" : "const android::hardware::details::return_status",
   "referenced_type" : "type-128",
   "self_type" : "type-143",
   "size" : 40,
   "source_file" : "/system/libhidl/base/include/hidl/Status.h"
  },
  {
   "alignment" : 8,
   "is_const" : true,
   "linker_set_key" : "const android::hardware::hidl_death_recipient",
   "name" : "const android::hardware::hidl_death_recipient",
   "referenced_type" : "type-105",
   "self_type" : "type-607",
   "size" : 24,
   "source_file" : "/system/core/libutils/include/utils/StrongPointer.h"
  },
  {
   "alignment" : 8,
   "is_const" : true,
   "linker_set_key" : "const android::hardware::hidl_handle",
   "name" : "const android::hardware::hidl_handle",
   "referenced_type" : "type-263",
   "self_type" : "type-337",
   "size" : 16,
   "source_file" : "/system/libhidl/base/include/hidl/HidlSupport.h"
  },
  {
   "alignment" : 8,
   "is_const" : true,
   "linker_set_key" : "const android::hardware::hidl_memory",
   "name" : "const android::hardware::hidl_memory",
   "referenced_type" : "type-269",
   "self_type" : "type-272",
   "size" : 40,
   "source_file" : "/system/libhidl/base/include/hidl/HidlSupport.h"
  },
  {
   "alignment" : 8,
   "is_const" : true,
   "linker_set_key" : "const android::hardware::hidl_string",
   "name" : "const android::hardware::hidl_string",
   "referenced_type" : "type-265",
   "self_type" : "type-264",
   "size" : 16,
   "source_file" : "/system/libhidl/base/include/hidl/HidlSupport.h"
  },
  {
   "alignment" : 8,
   "is_const" : true,
   "linker_set_key" : "const android::hardware::hidl_vec<android::frameworks::stats::V1_0::VendorAtom::Value>",
   "name" : "const android::hardware::hidl_vec<android::frameworks::stats::V1_0::VendorAtom::Value>",
   "referenced_type" : "type-313",
   "self_type" : "type-321",
   "size" : 16,
   "source_file" : "/system/libhidl/base/include/hidl/HidlSupport.h"
  },
  {
   "alignment" : 8,
   "is_const" : true,
   "linker_set_key" : "const android::hardware::hidl_vec<android::hardware::hidl_string>",
   "name" : "const android::hardware::hidl_vec<android::hardware::hidl_string>",
   "referenced_type" : "type-286",
   "self_type" : "type-541",
   "size" : 16,
   "source_file" : "/out/soong/.intermediates/frameworks/hardware/interfaces/stats/1.0/android.frameworks.stats@1.0_genc++_headers/gen/android/frameworks/stats/1.0/IStats.h"
  },
  {
   "alignment" : 8,
   "is_const" : true,
   "linker_set_key" : "const android::hardware::hidl_vec<int>",
   "name" : "const android::hardware::hidl_vec<int>",
   "referenced_type" : "type-304",
   "self_type" : "type-309",
   "size" : 16,
   "source_file" : "/system/libhidl/base/include/hidl/HidlSupport.h"
  },
  {
   "alignment" : 2,
   "is_const" : true,
   "linker_set_key" : "const android::hardware::hidl_version",
   "name" : "const android::hardware::hidl_version",
   "referenced_type" : "type-330",
   "self_type" : "type-332",
   "size" : 4,
   "source_file" : "/system/libhidl/base/include/hidl/HidlSupport.h"
  },
  {
   "alignment" : 8,
   "is_const" : true,
   "linker_set_key" : "const android::hidl::base::V1_0::BpHwBase",
   "name" : "const android::hidl::base::V1_0::BpHwBase",
   "referenced_type" : "type-544",
   "self_type" : "type-547",
   "size" : 216,
   "source_file" : "/out/soong/.intermediates/system/libhidl/transport/base/1.0/android.hidl.base@1.0_genc++_headers/gen/android/hidl/base/1.0/BpHwBase.h"
  },
  {
   "alignment" : 4,
   "is_const" : true,
   "linker_set_key" : "const android::hidl::base::V1_0::DebugInfo::Architecture",
   "name" : "const android::hidl::base::V1_0::DebugInfo::Architecture",
   "referenced_type" : "type-348",
   "self_type" : "type-349",
   "size" : 4,
   "source_file" : "/out/soong/.intermediates/system/libhidl/transport/base/1.0/android.hidl.base@1.0_genc++_headers/gen/android/hidl/base/1.0/types.h"
  },
  {
   "alignment" : 8,
   "is_const" : true,
   "linker_set_key" : "const android::hidl::base::V1_0::IBase",
   "name" : "const android::hidl::base::V1_0::IBase",
   "referenced_type" : "type-4",
   "self_type" : "type-419",
   "size" : 24,
   "source_file" : "/system/core/libutils/include/utils/StrongPointer.h"
  },
  {
   "alignment" : 8,
   "is_const" : true,
   "linker_set_key" : "const android::hidl::base::V1_0::IBase *const",
   "name" : "const android::hidl::base::V1_0::IBase *const",
   "referenced_type" : "type-418",
   "self_type" : "type-422",
   "size" : 8,
   "source_file" : "/system/libhidl/transport/include/hidl/ConcurrentMap.h"
  },
  {
   "alignment" : 8,
   "is_const" : true,
   "linker_set_key" : "const android::hidl::manager::V1_0::IServiceManager",
   "name" : "const android::hidl::manager::V1_0::IServiceManager",
   "referenced_type" : "type-61",
   "self_type" : "type-65",
   "size" : 24,
   "source_file" : "/system/core/libutils/include/utils/StrongPointer.h"
  },
  {
   "alignment" : 4,
   "is_const" : true,
   "linker_set_key" : "const android::hidl::manager::V1_0::IServiceManager::PidConstant",
   "name" : "const android::hidl::manager::V1_0::IServiceManager::PidConstant",
   "referenced_type" : "type-496",
   "self_type" : "type-501",
   "size" : 4,
   "source_file" : "/out/soong/.intermediates/system/libhidl/transport/manager/1.0/android.hidl.manager@1.0_genc++_headers/gen/android/hidl/manager/1.0/IServiceManager.h"
  },
  {
   "alignment" : 1,
   "is_const" : true,
   "linker_set_key" : "const android::hidl::manager::V1_0::IServiceManager::Transport",
   "name" : "const android::hidl::manager::V1_0::IServiceManager::Transport",
   "referenced_type" : "type-495",
   "self_type" : "type-498",
   "size" : 1,
   "source_file" : "/out/soong/.intermediates/system/libhidl/transport/manager/1.0/android.hidl.manager@1.0_genc++_headers/gen/android/hidl/manager/1.0/IServiceManager.h"
  },
  {
   "alignment" : 8,
   "is_const" : true,
   "linker_set_key" : "const android::hidl::manager::V1_0::IServiceNotification",
   "name" : "const android::hidl::manager::V1_0::IServiceNotification",
   "referenced_type" : "type-76",
   "self_type" : "type-493",
   "size" : 24,
   "source_file" : "/out/soong/.intermediates/system/libhidl/transport/manager/1.0/android.hidl.manager@1.0_genc++_headers/gen/android/hidl/manager/1.0/IServiceNotification.h"
  },
  {
   "alignment" : 8,
   "is_const" : true,
   "linker_set_key" : "const android::sp<android::frameworks::stats::V1_0::IStats>",
   "name" : "const android::sp<android::frameworks::stats::V1_0::IStats>",
   "referenced_type" : "type-92",
   "self_type" : "type-98",
   "size" : 8,
   "source_file" : "/system/core/libutils/include/utils/RefBase.h"
  },
  {
   "alignment" : 8,
   "is_const" : true,
   "linker_set_key" : "const android::sp<android::hardware::IBinder>",
   "name" : "const android::sp<android::hardware::IBinder>",
   "referenced_type" : "type-11",
   "self_type" : "type-10",
   "size" : 8,
   "source_file" : "/system/core/libutils/include/utils/StrongPointer.h"
  },
  {
   "alignment" : 8,
   "is_const" : true,
   "linker_set_key" : "const android::sp<android::hardware::ProcessState>",
   "name" : "const android::sp<android::hardware::ProcessState>",
   "referenced_type" : "type-17",
   "self_type" : "type-57",
   "size" : 8,
   "source_file" : "/system/core/libutils/include/utils/StrongPointer.h"
  },
  {
   "alignment" : 8,
   "is_const" : true,
   "linker_set_key" : "const android::sp<android::hardware::hidl_binder_death_recipient>",
   "name" : "const android::sp<android::hardware::hidl_binder_death_recipient>",
   "referenced_type" : "type-100",
   "self_type" : "type-112",
   "size" : 8,
   "source_file" : "/system/core/libutils/include/utils/RefBase.h"
  },
  {
   "alignment" : 8,
   "is_const" : true,
   "linker_set_key" : "const android::sp<android::hardware::hidl_death_recipient>",
   "name" : "const android::sp<android::hardware::hidl_death_recipient>",
   "referenced_type" : "type-412",
   "self_type" : "type-411",
   "size" : 8,
   "source_file" : "/system/core/libutils/include/utils/RefBase.h"
  },
  {
   "alignment" : 8,
   "is_const" : true,
   "linker_set_key" : "const android::sp<android::hidl::base::V1_0::IBase>",
   "name" : "const android::sp<android::hidl::base::V1_0::IBase>",
   "referenced_type" : "type-391",
   "self_type" : "type-612",
   "size" : 8,
   "source_file" : "/system/core/libutils/include/utils/StrongPointer.h"
  },
  {
   "alignment" : 8,
   "is_const" : true,
   "linker_set_key" : "const android::sp<android::hidl::manager::V1_0::IServiceManager>",
   "name" : "const android::sp<android::hidl::manager::V1_0::IServiceManager>",
   "referenced_type" : "type-59",
   "self_type" : "type-63",
   "size" : 8,
   "source_file" : "/system/core/libutils/include/utils/StrongPointer.h"
  },
  {
   "alignment" : 8,
   "is_const" : true,
   "linker_set_key" : "const android::sp<android::hidl::manager::V1_0::IServiceNotification>",
   "name" : "const android::sp<android::hidl::manager::V1_0::IServiceNotification>",
   "referenced_type" : "type-74",
   "self_type" : "type-89",
   "size" : 8,
   "source_file" : "/system/core/libutils/include/utils/StrongPointer.h"
  },
  {
   "alignment" : 8,
   "is_const" : true,
   "linker_set_key" : "const android::wp<android::hardware::BHwBinder>",
   "name" : "const android::wp<android::hardware::BHwBinder>",
   "referenced_type" : "type-420",
   "self_type" : "type-596",
   "size" : 16,
   "source_file" : "/system/core/libutils/include/utils/RefBase.h"
  },
  {
   "alignment" : 8,
   "is_const" : true,
   "linker_set_key" : "const android::wp<android::hardware::hidl_death_recipient>",
   "name" : "const android::wp<android::hardware::hidl_death_recipient>",
   "referenced_type" : "type-103",
   "self_type" : "type-383",
   "size" : 16,
   "source_file" : "/system/core/libutils/include/utils/RefBase.h"
  },
  {
   "alignment" : 8,
   "is_const" : true,
   "linker_set_key" : "const android::wp<android::hidl::base::V1_0::IBase>",
   "name" : "const android::wp<android::hidl::base::V1_0::IBase>",
   "referenced_type" : "type-106",
   "self_type" : "type-179",
   "size" : 16,
   "source_file" : "/system/core/libutils/include/utils/RefBase.h"
  },
  {
   "alignment" : 1,
   "is_const" : true,
   "linker_set_key" : "const bool",
   "name" : "const bool",
   "referenced_type" : "type-36",
   "self_type" : "type-70",
   "size" : 1,
   "source_file" : "/system/core/libutils/include/utils/TypeHelpers.h"
  },
  {
   "alignment" : 1,
   "is_const" : true,
   "linker_set_key" : "const char",
   "name" : "const char",
   "referenced_type" : "type-53",
   "self_type" : "type-52",
   "size" : 1,
   "source_file" : "/system/libhidl/base/include/hidl/HidlInternal.h"
  },
  {
   "alignment" : 2,
   "is_const" : true,
   "linker_set_key" : "const char16_t",
   "name" : "const char16_t",
   "referenced_type" : "type-44",
   "self_type" : "type-43",
   "size" : 2,
   "source_file" : "/system/core/libutils/include/utils/String16.h"
  },
  {
   "alignment" : 8,
   "is_const" : true,
   "linker_set_key" : "const double",
   "name" : "const double",
   "referenced_type" : "type-227",
   "self_type" : "type-255",
   "size" : 8,
   "source_file" : "/system/core/libutils/include/utils/TypeHelpers.h"
  },
  {
   "alignment" : 4,
   "is_const" : true,
   "linker_set_key" : "const float",
   "name" : "const float",
   "referenced_type" : "type-222",
   "self_type" : "type-248",
   "size" : 4,
   "source_file" : "/system/core/libutils/include/utils/TypeHelpers.h"
  },
  {
   "alignment" : 4,
   "is_const" : true,
   "linker_set_key" : "const int",
   "name" : "const int",
   "referenced_type" : "type-20",
   "self_type" : "type-523",
   "size" : 4,
   "source_file" : "/system/libhidl/base/include/hidl/HidlInternal.h"
  },
  {
   "is_const" : true,
   "linker_set_key" : "const iter<is_const>",
   "name" : "const iter<is_const>",
   "referenced_type" : "type-279",
   "self_type" : "type-278",
   "source_file" : "/system/libhidl/base/include/hidl/HidlSupport.h"
  },
  {
   "is_const" : true,
   "linker_set_key" : "const iter<is_const>",
   "name" : "const iter<is_const>",
   "referenced_type" : "type-604",
   "self_type" : "type-603",
   "source_file" : "/system/libhidl/base/include/hidl/HidlSupport.h"
  },
  {
   "alignment" : 4,
   "is_const" : true,
   "linker_set_key" : "const log_msg",
   "name" : "const log_msg",
   "referenced_type" : "type-78",
   "self_type" : "type-77",
   "size" : 5124,
   "source_file" : "/system/core/liblog/include/log/log_read.h"
  },
  {
   "alignment" : 8,
   "is_const" : true,
   "linker_set_key" : "const long",
   "name" : "const long",
   "referenced_type" : "type-26",
   "self_type" : "type-245",
   "size" : 8,
   "source_file" : "/system/core/libutils/include/utils/TypeHelpers.h"
  },
  {
   "alignment" : 4,
   "is_const" : true,
   "linker_set_key" : "const native_handle",
   "name" : "const native_handle",
   "referenced_type" : "type-158",
   "self_type" : "type-252",
   "size" : 12,
   "source_file" : "/system/libhidl/base/include/hidl/HidlInternal.h"
  },
  {
   "alignment" : 2,
   "is_const" : true,
   "linker_set_key" : "const short",
   "name" : "const short",
   "referenced_type" : "type-181",
   "self_type" : "type-238",
   "size" : 2,
   "source_file" : "/system/core/libutils/include/utils/TypeHelpers.h"
  },
  {
   "alignment" : 1,
   "is_const" : true,
   "linker_set_key" : "const signed char",
   "name" : "const signed char",
   "referenced_type" : "type-234",
   "self_type" : "type-233",
   "size" : 1,
   "source_file" : "/system/core/libutils/include/utils/TypeHelpers.h"
  },
  {
   "alignment" : 4,
   "is_const" : true,
   "linker_set_key" : "const std::array<android::frameworks::stats::V1_0::BatteryHealthSnapshotArgs::BatterySnapshotType, 11>",
   "name" : "const std::array<android::frameworks::stats::V1_0::BatteryHealthSnapshotArgs::BatterySnapshotType, 11>",
   "referenced_type" : "type-536",
   "self_type" : "type-535",
   "size" : 44,
   "source_file" : "/out/soong/.intermediates/frameworks/hardware/interfaces/stats/1.0/android.frameworks.stats@1.0_genc++_headers/gen/android/frameworks/stats/1.0/types.h"
  },
  {
   "alignment" : 4,
   "is_const" : true,
   "linker_set_key" : "const std::array<android::frameworks::stats::V1_0::BatteryHealthSnapshotArgs::BatterySnapshotType, 11>",
   "name" : "const std::array<android::frameworks::stats::V1_0::BatteryHealthSnapshotArgs::BatterySnapshotType, 11>",
   "referenced_type" : "type-634",
   "self_type" : "type-633",
   "size" : 44,
   "source_file" : "/out/soong/.intermediates/frameworks/hardware/interfaces/stats/1.0/android.frameworks.stats@1.0_genc++_headers/gen/android/frameworks/stats/1.0/types.h"
  },
  {
   "alignment" : 4,
   "is_const" : true,
   "linker_set_key" : "const std::array<android::frameworks::stats::V1_0::HardwareFailed::HardwareErrorCode, 7>",
   "name" : "const std::array<android::frameworks::stats::V1_0::HardwareFailed::HardwareErrorCode, 7>",
   "referenced_type" : "type-534",
   "self_type" : "type-533",
   "size" : 28,
   "source_file" : "/out/soong/.intermediates/frameworks/hardware/interfaces/stats/1.0/android.frameworks.stats@1.0_genc++_headers/gen/android/frameworks/stats/1.0/types.h"
  },
  {
   "alignment" : 4,
   "is_const" : true,
   "linker_set_key" : "const std::array<android::frameworks::stats::V1_0::HardwareFailed::HardwareErrorCode, 7>",
   "name" : "const std::array<android::frameworks::stats::V1_0::HardwareFailed::HardwareErrorCode, 7>",
   "referenced_type" : "type-632",
   "self_type" : "type-631",
   "size" : 28,
   "source_file" : "/out/soong/.intermediates/frameworks/hardware/interfaces/stats/1.0/android.frameworks.stats@1.0_genc++_headers/gen/android/frameworks/stats/1.0/types.h"
  },
  {
   "alignment" : 4,
   "is_const" : true,
   "linker_set_key" : "const std::array<android::frameworks::stats::V1_0::HardwareFailed::HardwareType, 5>",
   "name" : "const std::array<android::frameworks::stats::V1_0::HardwareFailed::HardwareType, 5>",
   "referenced_type" : "type-532",
   "self_type" : "type-531",
   "size" : 20,
   "source_file" : "/out/soong/.intermediates/frameworks/hardware/interfaces/stats/1.0/android.frameworks.stats@1.0_genc++_headers/gen/android/frameworks/stats/1.0/types.h"
  },
  {
   "alignment" : 4,
   "is_const" : true,
   "linker_set_key" : "const std::array<android::frameworks::stats::V1_0::HardwareFailed::HardwareType, 5>",
   "name" : "const std::array<android::frameworks::stats::V1_0::HardwareFailed::HardwareType, 5>",
   "referenced_type" : "type-630",
   "self_type" : "type-629",
   "size" : 20,
   "source_file" : "/out/soong/.intermediates/frameworks/hardware/interfaces/stats/1.0/android.frameworks.stats@1.0_genc++_headers/gen/android/frameworks/stats/1.0/types.h"
  },
  {
   "alignment" : 4,
   "is_const" : true,
   "linker_set_key" : "const std::array<android::frameworks::stats::V1_0::SlowIo::IoOperation, 5>",
   "name" : "const std::array<android::frameworks::stats::V1_0::SlowIo::IoOperation, 5>",
   "referenced_type" : "type-538",
   "self_type" : "type-537",
   "size" : 20,
   "source_file" : "/out/soong/.intermediates/frameworks/hardware/interfaces/stats/1.0/android.frameworks.stats@1.0_genc++_headers/gen/android/frameworks/stats/1.0/types.h"
  },
  {
   "alignment" : 4,
   "is_const" : true,
   "linker_set_key" : "const std::array<android::frameworks::stats::V1_0::SlowIo::IoOperation, 5>",
   "name" : "const std::array<android::frameworks::stats::V1_0::SlowIo::IoOperation, 5>",
   "referenced_type" : "type-636",
   "self_type" : "type-635",
   "size" : 20,
   "source_file" : "/out/soong/.intermediates/frameworks/hardware/interfaces/stats/1.0/android.frameworks.stats@1.0_genc++_headers/gen/android/frameworks/stats/1.0/types.h"
  },
  {
   "alignment" : 4,
   "is_const" : true,
   "linker_set_key" : "const std::array<android::hidl::base::V1_0::DebugInfo::Architecture, 3>",
   "name" : "const std::array<android::hidl::base::V1_0::DebugInfo::Architecture, 3>",
   "referenced_type" : "type-351",
   "self_type" : "type-350",
   "size" : 12,
   "source_file" : "/out/soong/.intermediates/system/libhidl/transport/base/1.0/android.hidl.base@1.0_genc++_headers/gen/android/hidl/base/1.0/types.h"
  },
  {
   "alignment" : 4,
   "is_const" : true,
   "linker_set_key" : "const std::array<android::hidl::base::V1_0::DebugInfo::Architecture, 3>",
   "name" : "const std::array<android::hidl::base::V1_0::DebugInfo::Architecture, 3>",
   "referenced_type" : "type-610",
   "self_type" : "type-609",
   "size" : 12,
   "source_file" : "/out/soong/.intermediates/system/libhidl/transport/base/1.0/android.hidl.base@1.0_genc++_headers/gen/android/hidl/base/1.0/types.h"
  },
  {
   "alignment" : 4,
   "is_const" : true,
   "linker_set_key" : "const std::array<android::hidl::manager::V1_0::IServiceManager::PidConstant, 1>",
   "name" : "const std::array<android::hidl::manager::V1_0::IServiceManager::PidConstant, 1>",
   "referenced_type" : "type-505",
   "self_type" : "type-504",
   "size" : 4,
   "source_file" : "/out/soong/.intermediates/system/libhidl/transport/manager/1.0/android.hidl.manager@1.0_genc++_headers/gen/android/hidl/manager/1.0/IServiceManager.h"
  },
  {
   "alignment" : 1,
   "is_const" : true,
   "linker_set_key" : "const std::array<android::hidl::manager::V1_0::IServiceManager::Transport, 3>",
   "name" : "const std::array<android::hidl::manager::V1_0::IServiceManager::Transport, 3>",
   "referenced_type" : "type-503",
   "self_type" : "type-502",
   "size" : 3,
   "source_file" : "/out/soong/.intermediates/system/libhidl/transport/manager/1.0/android.hidl.manager@1.0_genc++_headers/gen/android/hidl/manager/1.0/IServiceManager.h"
  },
  {
   "alignment" : 8,
   "is_const" : true,
   "linker_set_key" : "const std::basic_string<char, std::char_traits<char>, std::allocator<char> >",
   "name" : "const std::basic_string<char, std::char_traits<char>, std::allocator<char> >",
   "referenced_type" : "type-397",
   "self_type" : "type-396",
   "size" : 24,
   "source_file" : "/system/libhidl/transport/include/hidl/HidlTransportSupport.h"
  },
  {
   "alignment" : 8,
   "is_const" : true,
   "linker_set_key" : "const std::initializer_list<android::hardware::hidl_array<unsigned char, 32> >",
   "name" : "const std::initializer_list<android::hardware::hidl_array<unsigned char, 32> >",
   "referenced_type" : "type-302",
   "self_type" : "type-301",
   "size" : 16,
   "source_file" : "/system/libhidl/base/include/hidl/HidlSupport.h"
  },
  {
   "alignment" : 8,
   "is_const" : true,
   "linker_set_key" : "const std::initializer_list<android::hardware::hidl_string>",
   "name" : "const std::initializer_list<android::hardware::hidl_string>",
   "referenced_type" : "type-292",
   "self_type" : "type-291",
   "size" : 16,
   "source_file" : "/system/libhidl/base/include/hidl/HidlSupport.h"
  },
  {
   "alignment" : 8,
   "is_const" : true,
   "linker_set_key" : "const std::vector<std::function<void (InstrumentationEvent, const char *, const char *, const char *, const char *, vector<void *, allocator<void *> > *)>, std::allocator<std::function<void (InstrumentationEvent, const char *, const char *, const char *, const char *, vector<void *, allocator<void *> > *)> > >",
   "name" : "const std::vector<std::function<void (InstrumentationEvent, const char *, const char *, const char *, const char *, vector<void *, allocator<void *> > *)>, std::allocator<std::function<void (InstrumentationEvent, const char *, const char *, const char *, const char *, vector<void *, allocator<void *> > *)> > >",
   "referenced_type" : "type-593",
   "self_type" : "type-592",
   "size" : 24,
   "source_file" : "/system/libhidl/base/include/hidl/HidlInternal.h"
  },
  {
   "alignment" : 8,
   "is_const" : true,
   "linker_set_key" : "const std::vector<std::function<void (InstrumentationEvent, const char *, const char *, const char *, const char *, vector<void *, allocator<void *> > *)>, std::allocator<std::function<void (InstrumentationEvent, const char *, const char *, const char *, const char *, vector<void *, allocator<void *> > *)> > >",
   "name" : "const std::vector<std::function<void (InstrumentationEvent, const char *, const char *, const char *, const char *, vector<void *, allocator<void *> > *)>, std::allocator<std::function<void (InstrumentationEvent, const char *, const char *, const char *, const char *, vector<void *, allocator<void *> > *)> > >",
   "referenced_type" : "type-639",
   "self_type" : "type-638",
   "size" : 24,
   "source_file" : "/system/libhidl/base/include/hidl/HidlInternal.h"
  },
  {
   "alignment" : 1,
   "is_const" : true,
   "linker_set_key" : "const unsigned char",
   "name" : "const unsigned char",
   "referenced_type" : "type-81",
   "self_type" : "type-236",
   "size" : 1,
   "source_file" : "/system/core/libutils/include/utils/TypeHelpers.h"
  },
  {
   "alignment" : 4,
   "is_const" : true,
   "linker_set_key" : "const unsigned int",
   "name" : "const unsigned int",
   "referenced_type" : "type-2",
   "self_type" : "type-31",
   "size" : 4,
   "source_file" : "/system/core/libutils/include/utils/TypeHelpers.h"
  },
  {
   "alignment" : 8,
   "is_const" : true,
   "linker_set_key" : "const unsigned long",
   "name" : "const unsigned long",
   "referenced_type" : "type-25",
   "self_type" : "type-32",
   "size" : 8,
   "source_file" : "/system/core/libutils/include/utils/TypeHelpers.h"
  },
  {
   "alignment" : 8,
   "is_const" : true,
   "linker_set_key" : "const unsigned long long",
   "name" : "const unsigned long long",
   "referenced_type" : "type-216",
   "self_type" : "type-382",
   "size" : 8,
   "source_file" : "/system/libhwbinder/include/hwbinder/Parcel.h"
  },
  {
   "alignment" : 2,
   "is_const" : true,
   "linker_set_key" : "const unsigned short",
   "name" : "const unsigned short",
   "referenced_type" : "type-83",
   "self_type" : "type-242",
   "size" : 2,
   "source_file" : "/system/core/libutils/include/utils/TypeHelpers.h"
  },
  {
   "is_const" : true,
   "linker_set_key" : "const void",
   "name" : "const void",
   "referenced_type" : "type-22",
   "self_type" : "type-335",
   "source_file" : "/system/libhidl/base/include/hidl/HidlSupport.h"
  },
  {
   "alignment" : 1,
   "is_volatile" : true,
   "linker_set_key" : "volatile bool",
   "name" : "volatile bool",
   "referenced_type" : "type-36",
   "self_type" : "type-73",
   "size" : 1,
   "source_file" : "/system/core/libutils/include/utils/Thread.h"
  },
  {
   "alignment" : 4,
   "is_volatile" : true,
   "linker_set_key" : "volatile int",
   "name" : "volatile int",
   "referenced_type" : "type-20",
   "self_type" : "type-54",
   "size" : 4,
   "source_file" : "/system/libhwbinder/include/hwbinder/ProcessState.h"
  }
 ],
 "record_types" :
 [
  {
   "alignment" : 4,
   "fields" :
   [
    {
     "access" : "private",
     "field_name" : "mCond",
     "referenced_type" : "type-72"
    }
   ],
   "linker_set_key" : "android::Condition",
   "name" : "android::Condition",
   "record_kind" : "class",
   "referenced_type" : "type-71",
   "self_type" : "type-71",
   "size" : 48,
   "source_file" : "/system/core/libutils/include/utils/Condition.h",
   "unique_id" : "_ZTSN7android9ConditionE"
  },
  {
   "alignment" : 8,
   "fields" :
   [
    {
     "access" : "private",
     "field_name" : "mVector",
     "referenced_type" : "type-47"
    }
   ],
   "linker_set_key" : "android::KeyedVector<android::String16, android::sp<android::hardware::IBinder> >",
   "name" : "android::KeyedVector<android::String16, android::sp<android::hardware::IBinder> >",
   "record_kind" : "class",
   "referenced_type" : "type-46",
   "self_type" : "type-46",
   "size" : 40,
   "source_file" : "/system/core/libutils/include/utils/KeyedVector.h",
   "template_args" : [ "type-41", "type-11" ],
   "unique_id" : "_ZTSN7android11KeyedVectorINS_8String16ENS_2spINS_8hardware7IBinderEEEEE"
  },
  {
   "alignment" : 4,
   "fields" :
   [
    {
     "access" : "private",
     "field_name" : "mCount",
     "referenced_type" : "type-155"
    }
   ],
   "linker_set_key" : "android::LightRefBase<android::NativeHandle>",
   "name" : "android::LightRefBase<android::NativeHandle>",
   "record_kind" : "class",
   "referenced_type" : "type-154",
   "self_type" : "type-154",
   "size" : 4,
   "source_file" : "/system/core/libutils/include/utils/LightRefBase.h",
   "template_args" : [ "type-156" ],
   "unique_id" : "_ZTSN7android12LightRefBaseINS_12NativeHandleEEE"
  },
  {
   "alignment" : 4,
   "fields" :
   [
    {
     "access" : "private",
     "field_name" : "mCount",
     "referenced_type" : "type-152"
    }
   ],
   "linker_set_key" : "android::LightRefBase<android::VirtualLightRefBase>",
   "name" : "android::LightRefBase<android::VirtualLightRefBase>",
   "record_kind" : "class",
   "referenced_type" : "type-151",
   "self_type" : "type-151",
   "size" : 4,
   "source_file" : "/system/core/libutils/include/utils/LightRefBase.h",
   "template_args" : [ "type-153" ],
   "unique_id" : "_ZTSN7android12LightRefBaseINS_19VirtualLightRefBaseEEE"
  },
  {
   "alignment" : 4,
   "fields" :
   [
    {
     "access" : "private",
     "field_name" : "mMutex",
     "referenced_type" : "type-28"
    }
   ],
   "linker_set_key" : "android::Mutex",
   "name" : "android::Mutex",
   "record_kind" : "class",
   "referenced_type" : "type-27",
   "self_type" : "type-27",
   "size" : 40,
   "source_file" : "/system/core/libutils/include/utils/Mutex.h",
   "unique_id" : "_ZTSN7android5MutexE"
  },
  {
   "alignment" : 8,
   "fields" :
   [
    {
     "access" : "private",
     "field_name" : "mLock",
     "referenced_type" : "type-477"
    }
   ],
   "linker_set_key" : "android::Mutex::Autolock",
   "name" : "android::Mutex::Autolock",
   "record_kind" : "class",
   "referenced_type" : "type-476",
   "self_type" : "type-476",
   "size" : 8,
   "source_file" : "/system/core/libutils/include/utils/Mutex.h",
   "unique_id" : "_ZTSN7android5Mutex8AutolockE"
  },
  {
   "alignment" : 8,
   "base_specifiers" :
   [
    {
     "referenced_type" : "type-154"
    }
   ],
   "fields" :
   [
    {
     "access" : "private",
     "field_name" : "mHandle",
     "field_offset" : 64,
     "referenced_type" : "type-157"
    },
    {
     "access" : "private",
     "field_name" : "mOwnsHandle",
     "field_offset" : 128,
     "referenced_type" : "type-36"
    }
   ],
   "linker_set_key" : "android::NativeHandle",
   "name" : "android::NativeHandle",
   "record_kind" : "class",
   "referenced_type" : "type-156",
   "self_type" : "type-156",
   "size" : 24,
   "source_file" : "/system/core/libutils/include/utils/NativeHandle.h",
   "unique_id" : "_ZTSN7android12NativeHandleE"
  },
  {
   "alignment" : 4,
   "fields" :
   [
    {
     "access" : "private",
     "field_name" : "mRWLock",
     "referenced_type" : "type-482"
    }
   ],
   "linker_set_key" : "android::RWLock",
   "name" : "android::RWLock",
   "record_kind" : "class",
   "referenced_type" : "type-481",
   "self_type" : "type-481",
   "size" : 56,
   "source_file" : "/system/core/libutils/include/utils/RWLock.h",
   "unique_id" : "_ZTSN7android6RWLockE"
  },
  {
   "alignment" : 8,
   "fields" :
   [
    {
     "access" : "private",
     "field_name" : "mLock",
     "referenced_type" : "type-486"
    }
   ],
   "linker_set_key" : "android::RWLock::AutoRLock",
   "name" : "android::RWLock::AutoRLock",
   "record_kind" : "class",
   "referenced_type" : "type-485",
   "self_type" : "type-485",
   "size" : 8,
   "source_file" : "/system/core/libutils/include/utils/RWLock.h",
   "unique_id" : "_ZTSN7android6RWLock9AutoRLockE"
  },
  {
   "alignment" : 8,
   "fields" :
   [
    {
     "access" : "private",
     "field_name" : "mLock",
     "referenced_type" : "type-486"
    }
   ],
   "linker_set_key" : "android::RWLock::AutoWLock",
   "name" : "android::RWLock::AutoWLock",
   "record_kind" : "class",
   "referenced_type" : "type-488",
   "self_type" : "type-488",
   "size" : 8,
   "source_file" : "/system/core/libutils/include/utils/RWLock.h",
   "unique_id" : "_ZTSN7android6RWLock9AutoWLockE"
  },
  {
   "alignment" : 8,
   "fields" :
   [
    {
     "access" : "private",
     "field_name" : "mRefs",
     "field_offset" : 64,
     "referenced_type" : "type-6"
    }
   ],
   "linker_set_key" : "android::RefBase",
   "name" : "android::RefBase",
   "record_kind" : "class",
   "referenced_type" : "type-5",
   "self_type" : "type-5",
   "size" : 16,
   "source_file" : "/system/core/libutils/include/utils/RefBase.h",
   "unique_id" : "_ZTSN7android7RefBaseE",
   "vtable_components" :
   [
    {
     "kind" : "offset_to_top"
    },
    {
     "kind" : "rtti",
     "mangled_component_name" : "_ZTIN7android7RefBaseE"
    },
    {
     "kind" : "complete_dtor_pointer",
     "mangled_component_name" : "_ZN7android7RefBaseD1Ev"
    },
    {
     "kind" : "deleting_dtor_pointer",
     "mangled_component_name" : "_ZN7android7RefBaseD0Ev"
    },
    {
     "mangled_component_name" : "_ZN7android7RefBase10onFirstRefEv"
    },
    {
     "mangled_component_name" : "_ZN7android7RefBase15onLastStrongRefEPKv"
    },
    {
     "mangled_component_name" : "_ZN7android7RefBase20onIncStrongAttemptedEjPKv"
    },
    {
     "mangled_component_name" : "_ZN7android7RefBase13onLastWeakRefEPKv"
    }
   ]
  },
  {
   "alignment" : 1,
   "linker_set_key" : "android::RefBase::weakref_type",
   "name" : "android::RefBase::weakref_type",
   "record_kind" : "class",
   "referenced_type" : "type-35",
   "self_type" : "type-35",
   "size" : 1,
   "source_file" : "/system/core/libutils/include/utils/RefBase.h",
   "unique_id" : "_ZTSN7android7RefBase12weakref_typeE"
  },
  {
   "alignment" : 1,
   "linker_set_key" : "android::ReferenceMover",
   "name" : "android::ReferenceMover",
   "record_kind" : "class",
   "referenced_type" : "type-262",
   "self_type" : "type-262",
   "size" : 1,
   "source_file" : "/system/core/libutils/include/utils/RefBase.h",
   "unique_id" : "_ZTSN7android14ReferenceMoverE"
  },
  {
   "alignment" : 8,
   "linker_set_key" : "android::ReferenceRenamer",
   "name" : "android::ReferenceRenamer",
   "record_kind" : "class",
   "referenced_type" : "type-257",
   "self_type" : "type-257",
   "size" : 8,
   "source_file" : "/system/core/libutils/include/utils/RefBase.h",
   "unique_id" : "_ZTSN7android16ReferenceRenamerE",
   "vtable_components" :
   [
    {
     "kind" : "offset_to_top"
    },
    {
     "kind" : "rtti",
     "mangled_component_name" : "_ZTIN7android16ReferenceRenamerE"
    },
    {
     "is_pure" : true,
     "mangled_component_name" : "_ZNK7android16ReferenceRenamerclEm"
    }
   ]
  },
  {
   "alignment" : 8,
   "fields" :
   [
    {
     "access" : "private",
     "field_name" : "mTag",
     "referenced_type" : "type-25"
    }
   ],
   "linker_set_key" : "android::ScopedTrace",
   "name" : "android::ScopedTrace",
   "record_kind" : "class",
   "referenced_type" : "type-491",
   "self_type" : "type-491",
   "size" : 8,
   "source_file" : "/system/core/libutils/include/utils/Trace.h",
   "unique_id" : "_ZTSN7android11ScopedTraceE"
  },
  {
   "alignment" : 8,
   "base_specifiers" :
   [
    {
     "access" : "private",
     "referenced_type" : "type-48"
    }
   ],
   "linker_set_key" : "android::SortedVector<android::key_value_pair_t<android::String16, android::sp<android::hardware::IBinder> > >",
   "name" : "android::SortedVector<android::key_value_pair_t<android::String16, android::sp<android::hardware::IBinder> > >",
   "record_kind" : "class",
   "referenced_type" : "type-47",
   "self_type" : "type-47",
   "size" : 40,
   "source_file" : "/system/core/libutils/include/utils/SortedVector.h",
   "template_args" : [ "type-49" ],
   "unique_id" : "_ZTSN7android12SortedVectorINS_16key_value_pair_tINS_8String16ENS_2spINS_8hardware7IBinderEEEEEEE",
   "vtable_components" :
   [
    {
     "kind" : "offset_to_top"
    },
    {
     "kind" : "rtti",
     "mangled_component_name" : "_ZTIN7android12SortedVectorINS_16key_value_pair_tINS_8String16ENS_2spINS_8hardware7IBinderEEEEEEE"
    },
    {
     "kind" : "complete_dtor_pointer",
     "mangled_component_name" : "_ZN7android12SortedVectorINS_16key_value_pair_tINS_8String16ENS_2spINS_8hardware7IBinderEEEEEED1Ev"
    },
    {
     "kind" : "deleting_dtor_pointer",
     "mangled_component_name" : "_ZN7android12SortedVectorINS_16key_value_pair_tINS_8String16ENS_2spINS_8hardware7IBinderEEEEEED0Ev"
    },
    {
     "mangled_component_name" : "_ZNK7android12SortedVectorINS_16key_value_pair_tINS_8String16ENS_2spINS_8hardware7IBinderEEEEEE12do_constructEPvm"
    },
    {
     "mangled_component_name" : "_ZNK7android12SortedVectorINS_16key_value_pair_tINS_8String16ENS_2spINS_8hardware7IBinderEEEEEE10do_destroyEPvm"
    },
    {
     "mangled_component_name" : "_ZNK7android12SortedVectorINS_16key_value_pair_tINS_8String16ENS_2spINS_8hardware7IBinderEEEEEE7do_copyEPvPKvm"
    },
    {
     "mangled_component_name" : "_ZNK7android12SortedVectorINS_16key_value_pair_tINS_8String16ENS_2spINS_8hardware7IBinderEEEEEE8do_splatEPvPKvm"
    },
    {
     "mangled_component_name" : "_ZNK7android12SortedVectorINS_16key_value_pair_tINS_8String16ENS_2spINS_8hardware7IBinderEEEEEE15do_move_forwardEPvPKvm"
    },
    {
     "mangled_component_name" : "_ZNK7android12SortedVectorINS_16key_value_pair_tINS_8String16ENS_2spINS_8hardware7IBinderEEEEEE16do_move_backwardEPvPKvm"
    },
    {
     "mangled_component_name" : "_ZNK7android12SortedVectorINS_16key_value_pair_tINS_8String16ENS_2spINS_8hardware7IBinderEEEEEE10do_compareEPKvSA_"
    }
   ]
  },
  {
   "alignment" : 8,
   "base_specifiers" :
   [
    {
     "referenced_type" : "type-30"
    }
   ],
   "linker_set_key" : "android::SortedVectorImpl",
   "name" : "android::SortedVectorImpl",
   "record_kind" : "class",
   "referenced_type" : "type-48",
   "self_type" : "type-48",
   "size" : 40,
   "source_file" : "/system/core/libutils/include/utils/VectorImpl.h",
   "unique_id" : "_ZTSN7android16SortedVectorImplE",
   "vtable_components" :
   [
    {
     "kind" : "offset_to_top"
    },
    {
     "kind" : "rtti",
     "mangled_component_name" : "_ZTIN7android16SortedVectorImplE"
    },
    {
     "kind" : "complete_dtor_pointer",
     "mangled_component_name" : "_ZN7android16SortedVectorImplD1Ev"
    },
    {
     "kind" : "deleting_dtor_pointer",
     "mangled_component_name" : "_ZN7android16SortedVectorImplD0Ev"
    },
    {
     "is_pure" : true,
     "mangled_component_name" : "_ZNK7android10VectorImpl12do_constructEPvm"
    },
    {
     "is_pure" : true,
     "mangled_component_name" : "_ZNK7android10VectorImpl10do_destroyEPvm"
    },
    {
     "is_pure" : true,
     "mangled_component_name" : "_ZNK7android10VectorImpl7do_copyEPvPKvm"
    },
    {
     "is_pure" : true,
     "mangled_component_name" : "_ZNK7android10VectorImpl8do_splatEPvPKvm"
    },
    {
     "is_pure" : true,
     "mangled_component_name" : "_ZNK7android10VectorImpl15do_move_forwardEPvPKvm"
    },
    {
     "is_pure" : true,
     "mangled_component_name" : "_ZNK7android10VectorImpl16do_move_backwardEPvPKvm"
    },
    {
     "is_pure" : true,
     "mangled_component_name" : "_ZNK7android16SortedVectorImpl10do_compareEPKvS2_"
    }
   ]
  },
  {
   "alignment" : 8,
   "fields" :
   [
    {
     "access" : "private",
     "field_name" : "mString",
     "referenced_type" : "type-42"
    }
   ],
   "linker_set_key" : "android::String16",
   "name" : "android::String16",
   "record_kind" : "class",
   "referenced_type" : "type-41",
   "self_type" : "type-41",
   "size" : 8,
   "source_file" : "/system/core/libutils/include/utils/String16.h",
   "unique_id" : "_ZTSN7android8String16E"
  },
  {
   "alignment" : 8,
   "fields" :
   [
    {
     "access" : "private",
     "field_name" : "mString",
     "referenced_type" : "type-51"
    }
   ],
   "linker_set_key" : "android::String8",
   "name" : "android::String8",
   "record_kind" : "class",
   "referenced_type" : "type-50",
   "self_type" : "type-50",
   "size" : 8,
   "source_file" : "/system/core/libutils/include/utils/String8.h",
   "unique_id" : "_ZTSN7android7String8E"
  },
  {
   "alignment" : 8,
   "base_specifiers" :
   [
    {
     "is_virtual" : true,
     "referenced_type" : "type-5"
    }
   ],
   "fields" :
   [
    {
     "access" : "private",
     "field_name" : "mCanCallJava",
     "field_offset" : 64,
     "referenced_type" : "type-70"
    },
    {
     "access" : "private",
     "field_name" : "mThread",
     "field_offset" : 128,
     "referenced_type" : "type-21"
    },
    {
     "access" : "private",
     "field_name" : "mLock",
     "field_offset" : 192,
     "referenced_type" : "type-27"
    },
    {
     "access" : "private",
     "field_name" : "mThreadExitedCondition",
     "field_offset" : 512,
     "referenced_type" : "type-71"
    },
    {
     "access" : "private",
     "field_name" : "mStatus",
     "field_offset" : 896,
     "referenced_type" : "type-20"
    },
    {
     "access" : "private",
     "field_name" : "mExitPending",
     "field_offset" : 928,
     "referenced_type" : "type-73"
    },
    {
     "access" : "private",
     "field_name" : "mRunning",
     "field_offset" : 936,
     "referenced_type" : "type-73"
    },
    {
     "access" : "private",
     "field_name" : "mHoldSelf",
     "field_offset" : 960,
     "referenced_type" : "type-67"
    },
    {
     "access" : "private",
     "field_name" : "mTid",
     "field_offset" : 1024,
     "referenced_type" : "type-20"
    }
   ],
   "linker_set_key" : "android::Thread",
   "name" : "android::Thread",
   "record_kind" : "class",
   "referenced_type" : "type-69",
   "self_type" : "type-69",
   "size" : 152,
   "source_file" : "/system/core/libutils/include/utils/Thread.h",
   "unique_id" : "_ZTSN7android6ThreadE",
   "vtable_components" :
   [
    {
     "component_value" : 136,
     "kind" : "vbase_offset"
    },
    {
     "kind" : "offset_to_top"
    },
    {
     "kind" : "rtti",
     "mangled_component_name" : "_ZTIN7android6ThreadE"
    },
    {
     "kind" : "complete_dtor_pointer",
     "mangled_component_name" : "_ZN7android6ThreadD1Ev"
    },
    {
     "kind" : "deleting_dtor_pointer",
     "mangled_component_name" : "_ZN7android6ThreadD0Ev"
    },
    {
     "mangled_component_name" : "_ZN7android6Thread3runEPKcim"
    },
    {
     "mangled_component_name" : "_ZN7android6Thread11requestExitEv"
    },
    {
     "mangled_component_name" : "_ZN7android6Thread10readyToRunEv"
    },
    {
     "is_pure" : true,
     "mangled_component_name" : "_ZN7android6Thread10threadLoopEv"
    },
    {
     "kind" : "vcall_offset"
    },
    {
     "kind" : "vcall_offset"
    },
    {
     "kind" : "vcall_offset"
    },
    {
     "kind" : "vcall_offset"
    },
    {
     "component_value" : -136,
     "kind" : "vcall_offset"
    },
    {
     "component_value" : -136,
     "kind" : "offset_to_top"
    },
    {
     "kind" : "rtti",
     "mangled_component_name" : "_ZTIN7android6ThreadE"
    },
    {
     "kind" : "complete_dtor_pointer",
     "mangled_component_name" : "_ZTv0_n24_N7android6ThreadD1Ev"
    },
    {
     "kind" : "deleting_dtor_pointer",
     "mangled_component_name" : "_ZTv0_n24_N7android6ThreadD0Ev"
    },
    {
     "mangled_component_name" : "_ZN7android7RefBase10onFirstRefEv"
    },
    {
     "mangled_component_name" : "_ZN7android7RefBase15onLastStrongRefEPKv"
    },
    {
     "mangled_component_name" : "_ZN7android7RefBase20onIncStrongAttemptedEjPKv"
    },
    {
     "mangled_component_name" : "_ZN7android7RefBase13onLastWeakRefEPKv"
    }
   ]
  },
  {
   "alignment" : 8,
   "base_specifiers" :
   [
    {
     "access" : "private",
     "referenced_type" : "type-30"
    }
   ],
   "linker_set_key" : "android::Vector<android::hardware::ProcessState::handle_entry>",
   "name" : "android::Vector<android::hardware::ProcessState::handle_entry>",
   "record_kind" : "class",
   "referenced_type" : "type-29",
   "self_type" : "type-29",
   "size" : 40,
   "source_file" : "/system/core/libutils/include/utils/Vector.h",
   "template_args" : [ "type-33" ],
   "unique_id" : "_ZTSN7android6VectorINS_8hardware12ProcessState12handle_entryEEE",
   "vtable_components" :
   [
    {
     "kind" : "offset_to_top"
    },
    {
     "kind" : "rtti",
     "mangled_component_name" : "_ZTIN7android6VectorINS_8hardware12ProcessState12handle_entryEEE"
    },
    {
     "kind" : "complete_dtor_pointer",
     "mangled_component_name" : "_ZN7android6VectorINS_8hardware12ProcessState12handle_entryEED1Ev"
    },
    {
     "kind" : "deleting_dtor_pointer",
     "mangled_component_name" : "_ZN7android6VectorINS_8hardware12ProcessState12handle_entryEED0Ev"
    },
    {
     "mangled_component_name" : "_ZNK7android6VectorINS_8hardware12ProcessState12handle_entryEE12do_constructEPvm"
    },
    {
     "mangled_component_name" : "_ZNK7android6VectorINS_8hardware12ProcessState12handle_entryEE10do_destroyEPvm"
    },
    {
     "mangled_component_name" : "_ZNK7android6VectorINS_8hardware12ProcessState12handle_entryEE7do_copyEPvPKvm"
    },
    {
     "mangled_component_name" : "_ZNK7android6VectorINS_8hardware12ProcessState12handle_entryEE8do_splatEPvPKvm"
    },
    {
     "mangled_component_name" : "_ZNK7android6VectorINS_8hardware12ProcessState12handle_entryEE15do_move_forwardEPvPKvm"
    },
    {
     "mangled_component_name" : "_ZNK7android6VectorINS_8hardware12ProcessState12handle_entryEE16do_move_backwardEPvPKvm"
    }
   ]
  },
  {
   "alignment" : 8,
   "fields" :
   [
    {
     "access" : "private",
     "field_name" : "mStorage",
     "field_offset" : 64,
     "referenced_type" : "type-21"
    },
    {
     "access" : "private",
     "field_name" : "mCount",
     "field_offset" : 128,
     "referenced_type" : "type-25"
    },
    {
     "access" : "private",
     "field_name" : "mFlags",
     "field_offset" : 192,
     "referenced_type" : "type-31"
    },
    {
     "access" : "private",
     "field_name" : "mItemSize",
     "field_offset" : 256,
     "referenced_type" : "type-32"
    }
   ],
   "linker_set_key" : "android::VectorImpl",
   "name" : "android::VectorImpl",
   "record_kind" : "class",
   "referenced_type" : "type-30",
   "self_type" : "type-30",
   "size" : 40,
   "source_file" : "/system/core/libutils/include/utils/VectorImpl.h",
   "unique_id" : "_ZTSN7android10VectorImplE",
   "vtable_components" :
   [
    {
     "kind" : "offset_to_top"
    },
    {
     "kind" : "rtti",
     "mangled_component_name" : "_ZTIN7android10VectorImplE"
    },
    {
     "kind" : "complete_dtor_pointer",
     "mangled_component_name" : "_ZN7android10VectorImplD1Ev"
    },
    {
     "kind" : "deleting_dtor_pointer",
     "mangled_component_name" : "_ZN7android10VectorImplD0Ev"
    },
    {
     "is_pure" : true,
     "mangled_component_name" : "_ZNK7android10VectorImpl12do_constructEPvm"
    },
    {
     "is_pure" : true,
     "mangled_component_name" : "_ZNK7android10VectorImpl10do_destroyEPvm"
    },
    {
     "is_pure" : true,
     "mangled_component_name" : "_ZNK7android10VectorImpl7do_copyEPvPKvm"
    },
    {
     "is_pure" : true,
     "mangled_component_name" : "_ZNK7android10VectorImpl8do_splatEPvPKvm"
    },
    {
     "is_pure" : true,
     "mangled_component_name" : "_ZNK7android10VectorImpl15do_move_forwardEPvPKvm"
    },
    {
     "is_pure" : true,
     "mangled_component_name" : "_ZNK7android10VectorImpl16do_move_backwardEPvPKvm"
    }
   ]
  },
  {
   "alignment" : 8,
   "base_specifiers" :
   [
    {
     "referenced_type" : "type-151"
    }
   ],
   "linker_set_key" : "android::VirtualLightRefBase",
   "name" : "android::VirtualLightRefBase",
   "record_kind" : "class",
   "referenced_type" : "type-153",
   "self_type" : "type-153",
   "size" : 16,
   "source_file" : "/system/core/libutils/include/utils/LightRefBase.h",
   "unique_id" : "_ZTSN7android19VirtualLightRefBaseE",
   "vtable_components" :
   [
    {
     "kind" : "offset_to_top"
    },
    {
     "kind" : "rtti",
     "mangled_component_name" : "_ZTIN7android19VirtualLightRefBaseE"
    },
    {
     "kind" : "complete_dtor_pointer",
     "mangled_component_name" : "_ZN7android19VirtualLightRefBaseD1Ev"
    },
    {
     "kind" : "deleting_dtor_pointer",
     "mangled_component_name" : "_ZN7android19VirtualLightRefBaseD0Ev"
    }
   ]
  },
  {
   "alignment" : 4,
   "fields" :
   [
    {
     "field_name" : "voltageMicroV",
     "referenced_type" : "type-20"
    }
   ],
   "linker_set_key" : "android::frameworks::stats::V1_0::BatteryCausedShutdown",
   "name" : "android::frameworks::stats::V1_0::BatteryCausedShutdown",
   "referenced_type" : "type-518",
   "self_type" : "type-518",
   "size" : 4,
   "source_file" : "/out/soong/.intermediates/frameworks/hardware/interfaces/stats/1.0/android.frameworks.stats@1.0_genc++_headers/gen/android/frameworks/stats/1.0/types.h",
   "unique_id" : "_ZTSN7android10frameworks5stats4V1_021BatteryCausedShutdownE"
  },
  {
   "alignment" : 4,
   "fields" :
   [
    {
     "field_name" : "type",
     "referenced_type" : "type-514"
    },
    {
     "field_name" : "temperatureDeciC",
     "field_offset" : 32,
     "referenced_type" : "type-20"
    },
    {
     "field_name" : "voltageMicroV",
     "field_offset" : 64,
     "referenced_type" : "type-20"
    },
    {
     "field_name" : "currentMicroA",
     "field_offset" : 96,
     "referenced_type" : "type-20"
    },
    {
     "field_name" : "openCircuitVoltageMicroV",
     "field_offset" : 128,
     "referenced_type" : "type-20"
    },
    {
     "field_name" : "resistanceMicroOhm",
     "field_offset" : 160,
     "referenced_type" : "type-20"
    },
    {
     "field_name" : "levelPercent",
     "field_offset" : 192,
     "referenced_type" : "type-20"
    }
   ],
   "linker_set_key" : "android::frameworks::stats::V1_0::BatteryHealthSnapshotArgs",
   "name" : "android::frameworks::stats::V1_0::BatteryHealthSnapshotArgs",
   "referenced_type" : "type-513",
   "self_type" : "type-513",
   "size" : 28,
   "source_file" : "/out/soong/.intermediates/frameworks/hardware/interfaces/stats/1.0/android.frameworks.stats@1.0_genc++_headers/gen/android/frameworks/stats/1.0/types.h",
   "unique_id" : "_ZTSN7android10frameworks5stats4V1_025BatteryHealthSnapshotArgsE"
  },
  {
   "alignment" : 8,
   "base_specifiers" :
   [
    {
     "referenced_type" : "type-390"
    }
   ],
   "fields" :
   [
    {
     "access" : "private",
     "field_name" : "_hidl_mImpl",
     "field_offset" : 1024,
     "referenced_type" : "type-92"
    }
   ],
   "linker_set_key" : "android::frameworks::stats::V1_0::BnHwStats",
   "name" : "android::frameworks::stats::V1_0::BnHwStats",
   "referenced_type" : "type-526",
   "self_type" : "type-526",
   "size" : 152,
   "source_file" : "/out/soong/.intermediates/frameworks/hardware/interfaces/stats/1.0/android.frameworks.stats@1.0_genc++_headers/gen/android/frameworks/stats/1.0/BnHwStats.h",
   "unique_id" : "_ZTSN7android10frameworks5stats4V1_09BnHwStatsE",
   "vtable_components" :
   [
    {
     "component_value" : 136,
     "kind" : "vbase_offset"
    },
    {
     "kind" : "offset_to_top"
    },
    {
     "kind" : "rtti",
     "mangled_component_name" : "_ZTIN7android10frameworks5stats4V1_09BnHwStatsE"
    },
    {
     "mangled_component_name" : "_ZN7android8hardware9BHwBinder8transactEjRKNS0_6ParcelEPS2_jNSt3__18functionIFvRS2_EEE"
    },
    {
     "mangled_component_name" : "_ZN7android8hardware9BHwBinder11linkToDeathERKNS_2spINS0_7IBinder14DeathRecipientEEEPvj"
    },
    {
     "mangled_component_name" : "_ZN7android8hardware9BHwBinder13unlinkToDeathERKNS_2wpINS0_7IBinder14DeathRecipientEEEPvjPS5_"
    },
    {
     "mangled_component_name" : "_ZNK7android8hardware7IBinder13checkSubclassEPKv"
    },
    {
     "mangled_component_name" : "_ZN7android8hardware9BHwBinder12attachObjectEPKvPvS4_PFvS3_S4_S4_E"
    },
    {
     "mangled_component_name" : "_ZNK7android8hardware9BHwBinder10findObjectEPKv"
    },
    {
     "mangled_component_name" : "_ZN7android8hardware9BHwBinder12detachObjectEPKv"
    },
    {
     "mangled_component_name" : "_ZN7android8hardware9BHwBinder11localBinderEv"
    },
    {
     "mangled_component_name" : "_ZN7android8hardware7IBinder12remoteBinderEv"
    },
    {
     "kind" : "complete_dtor_pointer",
     "mangled_component_name" : "_ZN7android10frameworks5stats4V1_09BnHwStatsD1Ev"
    },
    {
     "kind" : "deleting_dtor_pointer",
     "mangled_component_name" : "_ZN7android10frameworks5stats4V1_09BnHwStatsD0Ev"
    },
    {
     "mangled_component_name" : "_ZN7android10frameworks5stats4V1_09BnHwStats10onTransactEjRKNS_8hardware6ParcelEPS5_jNSt3__18functionIFvRS5_EEE"
    },
    {
     "component_value" : -32,
     "kind" : "offset_to_top"
    },
    {
     "kind" : "rtti",
     "mangled_component_name" : "_ZTIN7android10frameworks5stats4V1_09BnHwStatsE"
    },
    {
     "kind" : "complete_dtor_pointer",
     "mangled_component_name" : "_ZThn32_N7android10frameworks5stats4V1_09BnHwStatsD1Ev"
    },
    {
     "kind" : "deleting_dtor_pointer",
     "mangled_component_name" : "_ZThn32_N7android10frameworks5stats4V1_09BnHwStatsD0Ev"
    },
    {
     "kind" : "vcall_offset"
    },
    {
     "kind" : "vcall_offset"
    },
    {
     "kind" : "vcall_offset"
    },
    {
     "kind" : "vcall_offset"
    },
    {
     "component_value" : -136,
     "kind" : "vcall_offset"
    },
    {
     "component_value" : -136,
     "kind" : "offset_to_top"
    },
    {
     "kind" : "rtti",
     "mangled_component_name" : "_ZTIN7android10frameworks5stats4V1_09BnHwStatsE"
    },
    {
     "kind" : "complete_dtor_pointer",
     "mangled_component_name" : "_ZTv0_n24_N7android10frameworks5stats4V1_09BnHwStatsD1Ev"
    },
    {
     "kind" : "deleting_dtor_pointer",
     "mangled_component_name" : "_ZTv0_n24_N7android10frameworks5stats4V1_09BnHwStatsD0Ev"
    },
    {
     "mangled_component_name" : "_ZN7android7RefBase10onFirstRefEv"
    },
    {
     "mangled_component_name" : "_ZN7android7RefBase15onLastStrongRefEPKv"
    },
    {
     "mangled_component_name" : "_ZN7android7RefBase20onIncStrongAttemptedEjPKv"
    },
    {
     "mangled_component_name" : "_ZN7android7RefBase13onLastWeakRefEPKv"
    }
   ]
  },
  {
   "alignment" : 8,
   "base_specifiers" :
   [
    {
     "referenced_type" : "type-373"
    },
    {
     "referenced_type" : "type-392"
    }
   ],
   "fields" :
   [
    {
     "access" : "private",
     "field_name" : "_hidl_mMutex",
     "field_offset" : 1088,
     "referenced_type" : "type-551"
    },
    {
     "access" : "private",
     "field_name" : "_hidl_mDeathRecipients",
     "field_offset" : 1408,
     "referenced_type" : "type-552"
    }
   ],
   "linker_set_key" : "android::frameworks::stats::V1_0::BpHwStats",
   "name" : "android::frameworks::stats::V1_0::BpHwStats",
   "referenced_type" : "type-550",
   "self_type" : "type-550",
   "size" : 216,
   "source_file" : "/out/soong/.intermediates/frameworks/hardware/interfaces/stats/1.0/android.frameworks.stats@1.0_genc++_headers/gen/android/frameworks/stats/1.0/BpHwStats.h",
   "unique_id" : "_ZTSN7android10frameworks5stats4V1_09BpHwStatsE",
   "vtable_components" :
   [
    {
     "component_value" : 200,
     "kind" : "vbase_offset"
    },
    {
     "kind" : "offset_to_top"
    },
    {
     "kind" : "rtti",
     "mangled_component_name" : "_ZTIN7android10frameworks5stats4V1_09BpHwStatsE"
    },
    {
     "mangled_component_name" : "_ZNK7android10frameworks5stats4V1_09BpHwStats8isRemoteEv"
    },
    {
     "mangled_component_name" : "_ZN7android10frameworks5stats4V1_09BpHwStats14interfaceChainENSt3__18functionIFvRKNS_8hardware8hidl_vecINS6_11hidl_stringEEEEEE"
    },
    {
     "mangled_component_name" : "_ZN7android10frameworks5stats4V1_09BpHwStats5debugERKNS_8hardware11hidl_handleERKNS4_8hidl_vecINS4_11hidl_stringEEE"
    },
    {
     "mangled_component_name" : "_ZN7android10frameworks5stats4V1_09BpHwStats19interfaceDescriptorENSt3__18functionIFvRKNS_8hardware11hidl_stringEEEE"
    },
    {
     "mangled_component_name" : "_ZN7android10frameworks5stats4V1_09BpHwStats12getHashChainENSt3__18functionIFvRKNS_8hardware8hidl_vecINS6_10hidl_arrayIhLm32EJEEEEEEEE"
    },
    {
     "mangled_component_name" : "_ZN7android10frameworks5stats4V1_09BpHwStats21setHALInstrumentationEv"
    },
    {
     "mangled_component_name" : "_ZN7android10frameworks5stats4V1_09BpHwStats11linkToDeathERKNS_2spINS_8hardware20hidl_death_recipientEEEm"
    },
    {
     "mangled_component_name" : "_ZN7android10frameworks5stats4V1_09BpHwStats4pingEv"
    },
    {
     "mangled_component_name" : "_ZN7android10frameworks5stats4V1_09BpHwStats12getDebugInfoENSt3__18functionIFvRKNS_4hidl4base4V1_09DebugInfoEEEE"
    },
    {
     "mangled_component_name" : "_ZN7android10frameworks5stats4V1_09BpHwStats21notifySyspropsChangedEv"
    },
    {
     "mangled_component_name" : "_ZN7android10frameworks5stats4V1_09BpHwStats13unlinkToDeathERKNS_2spINS_8hardware20hidl_death_recipientEEE"
    },
    {
     "kind" : "complete_dtor_pointer",
     "mangled_component_name" : "_ZN7android10frameworks5stats4V1_09BpHwStatsD1Ev"
    },
    {
     "kind" : "deleting_dtor_pointer",
     "mangled_component_name" : "_ZN7android10frameworks5stats4V1_09BpHwStatsD0Ev"
    },
    {
     "mangled_component_name" : "_ZN7android10frameworks5stats4V1_09BpHwStats22reportSpeakerImpedanceERKNS2_16SpeakerImpedanceE"
    },
    {
     "mangled_component_name" : "_ZN7android10frameworks5stats4V1_09BpHwStats20reportHardwareFailedERKNS2_14HardwareFailedE"
    },
    {
     "mangled_component_name" : "_ZN7android10frameworks5stats4V1_09BpHwStats26reportPhysicalDropDetectedERKNS2_20PhysicalDropDetectedE"
    },
    {
     "mangled_component_name" : "_ZN7android10frameworks5stats4V1_09BpHwStats18reportChargeCyclesERKNS2_12ChargeCyclesE"
    },
    {
     "mangled_component_name" : "_ZN7android10frameworks5stats4V1_09BpHwStats27reportBatteryHealthSnapshotERKNS2_25BatteryHealthSnapshotArgsE"
    },
    {
     "mangled_component_name" : "_ZN7android10frameworks5stats4V1_09BpHwStats12reportSlowIoERKNS2_6SlowIoE"
    },
    {
     "mangled_component_name" : "_ZN7android10frameworks5stats4V1_09BpHwStats27reportBatteryCausedShutdownERKNS2_21BatteryCausedShutdownE"
    },
    {
     "mangled_component_name" : "_ZN7android10frameworks5stats4V1_09BpHwStats26reportUsbPortOverheatEventERKNS2_20UsbPortOverheatEventE"
    },
    {
     "mangled_component_name" : "_ZN7android10frameworks5stats4V1_09BpHwStats19reportSpeechDspStatERKNS2_13SpeechDspStatE"
    },
    {
     "mangled_component_name" : "_ZN7android10frameworks5stats4V1_09BpHwStats16reportVendorAtomERKNS2_10VendorAtomE"
    },
    {
     "mangled_component_name" : "_ZN7android8hardware11BpInterfaceINS_10frameworks5stats4V1_06IStatsEE10onAsBinderEv"
    },
    {
     "component_value" : 192,
     "kind" : "vbase_offset"
    },
    {
     "component_value" : -8,
     "kind" : "offset_to_top"
    },
    {
     "kind" : "rtti",
     "mangled_component_name" : "_ZTIN7android10frameworks5stats4V1_09BpHwStatsE"
    },
    {
     "kind" : "complete_dtor_pointer",
     "mangled_component_name" : "_ZThn8_N7android10frameworks5stats4V1_09BpHwStatsD1Ev"
    },
    {
     "kind" : "deleting_dtor_pointer",
     "mangled_component_name" : "_ZThn8_N7android10frameworks5stats4V1_09BpHwStatsD0Ev"
    },
    {
     "mangled_component_name" : "_ZThn8_N7android8hardware11BpInterfaceINS_10frameworks5stats4V1_06IStatsEE10onAsBinderEv"
    },
    {
     "component_value" : 184,
     "kind" : "vbase_offset"
    },
    {
     "component_value" : -16,
     "kind" : "offset_to_top"
    },
    {
     "kind" : "rtti",
     "mangled_component_name" : "_ZTIN7android10frameworks5stats4V1_09BpHwStatsE"
    },
    {
     "kind" : "complete_dtor_pointer",
     "mangled_component_name" : "_ZThn16_N7android10frameworks5stats4V1_09BpHwStatsD1Ev"
    },
    {
     "kind" : "deleting_dtor_pointer",
     "mangled_component_name" : "_ZThn16_N7android10frameworks5stats4V1_09BpHwStatsD0Ev"
    },
    {
     "mangled_component_name" : "_ZN7android8hardware11BpHwRefBase10onFirstRefEv"
    },
    {
     "mangled_component_name" : "_ZN7android8hardware11BpHwRefBase15onLastStrongRefEPKv"
    },
    {
     "mangled_component_name" : "_ZN7android8hardware11BpHwRefBase20onIncStrongAttemptedEjPKv"
    },
    {
     "component_value" : -48,
     "kind" : "offset_to_top"
    },
    {
     "kind" : "rtti",
     "mangled_component_name" : "_ZTIN7android10frameworks5stats4V1_09BpHwStatsE"
    },
    {
     "kind" : "complete_dtor_pointer",
     "mangled_component_name" : "_ZThn48_N7android10frameworks5stats4V1_09BpHwStatsD1Ev"
    },
    {
     "kind" : "deleting_dtor_pointer",
     "mangled_component_name" : "_ZThn48_N7android10frameworks5stats4V1_09BpHwStatsD0Ev"
    },
    {
     "kind" : "vcall_offset"
    },
    {
     "component_value" : -184,
     "kind" : "vcall_offset"
    },
    {
     "component_value" : -184,
     "kind" : "vcall_offset"
    },
    {
     "component_value" : -184,
     "kind" : "vcall_offset"
    },
    {
     "component_value" : -200,
     "kind" : "vcall_offset"
    },
    {
     "component_value" : -200,
     "kind" : "offset_to_top"
    },
    {
     "kind" : "rtti",
     "mangled_component_name" : "_ZTIN7android10frameworks5stats4V1_09BpHwStatsE"
    },
    {
     "kind" : "complete_dtor_pointer",
     "mangled_component_name" : "_ZTv0_n24_N7android10frameworks5stats4V1_09BpHwStatsD1Ev"
    },
    {
     "kind" : "deleting_dtor_pointer",
     "mangled_component_name" : "_ZTv0_n24_N7android10frameworks5stats4V1_09BpHwStatsD0Ev"
    },
    {
     "mangled_component_name" : "_ZTv0_n32_N7android8hardware11BpHwRefBase10onFirstRefEv"
    },
    {
     "mangled_component_name" : "_ZTv0_n40_N7android8hardware11BpHwRefBase15onLastStrongRefEPKv"
    },
    {
     "mangled_component_name" : "_ZTv0_n48_N7android8hardware11BpHwRefBase20onIncStrongAttemptedEjPKv"
    },
    {
     "mangled_component_name" : "_ZN7android7RefBase13onLastWeakRefEPKv"
    }
   ]
  },
  {
   "alignment" : 8,
   "base_specifiers" :
   [
    {
     "referenced_type" : "type-94"
    },
    {
     "referenced_type" : "type-392"
    }
   ],
   "fields" :
   [
    {
     "access" : "private",
     "field_name" : "mImpl",
     "field_offset" : 768,
     "referenced_type" : "type-98"
    },
    {
     "access" : "private",
     "field_name" : "mOnewayQueue",
     "field_offset" : 832,
     "referenced_type" : "type-617"
    }
   ],
   "linker_set_key" : "android::frameworks::stats::V1_0::BsStats",
   "name" : "android::frameworks::stats::V1_0::BsStats",
   "referenced_type" : "type-616",
   "self_type" : "type-616",
   "size" : 136,
   "source_file" : "/out/soong/.intermediates/frameworks/hardware/interfaces/stats/1.0/android.frameworks.stats@1.0_genc++_headers/gen/android/frameworks/stats/1.0/BsStats.h",
   "unique_id" : "_ZTSN7android10frameworks5stats4V1_07BsStatsE",
   "vtable_components" :
   [
    {
     "component_value" : 120,
     "kind" : "vbase_offset"
    },
    {
     "kind" : "offset_to_top"
    },
    {
     "kind" : "rtti",
     "mangled_component_name" : "_ZTIN7android10frameworks5stats4V1_07BsStatsE"
    },
    {
     "mangled_component_name" : "_ZNK7android10frameworks5stats4V1_06IStats8isRemoteEv"
    },
    {
     "mangled_component_name" : "_ZN7android10frameworks5stats4V1_07BsStats14interfaceChainENSt3__18functionIFvRKNS_8hardware8hidl_vecINS6_11hidl_stringEEEEEE"
    },
    {
     "mangled_component_name" : "_ZN7android10frameworks5stats4V1_07BsStats5debugERKNS_8hardware11hidl_handleERKNS4_8hidl_vecINS4_11hidl_stringEEE"
    },
    {
     "mangled_component_name" : "_ZN7android10frameworks5stats4V1_07BsStats19interfaceDescriptorENSt3__18functionIFvRKNS_8hardware11hidl_stringEEEE"
    },
    {
     "mangled_component_name" : "_ZN7android10frameworks5stats4V1_07BsStats12getHashChainENSt3__18functionIFvRKNS_8hardware8hidl_vecINS6_10hidl_arrayIhLm32EJEEEEEEEE"
    },
    {
     "mangled_component_name" : "_ZN7android10frameworks5stats4V1_07BsStats21setHALInstrumentationEv"
    },
    {
     "mangled_component_name" : "_ZN7android10frameworks5stats4V1_07BsStats11linkToDeathERKNS_2spINS_8hardware20hidl_death_recipientEEEm"
    },
    {
     "mangled_component_name" : "_ZN7android10frameworks5stats4V1_07BsStats4pingEv"
    },
    {
     "mangled_component_name" : "_ZN7android10frameworks5stats4V1_07BsStats12getDebugInfoENSt3__18functionIFvRKNS_4hidl4base4V1_09DebugInfoEEEE"
    },
    {
     "mangled_component_name" : "_ZN7android10frameworks5stats4V1_07BsStats21notifySyspropsChangedEv"
    },
    {
     "mangled_component_name" : "_ZN7android10frameworks5stats4V1_07BsStats13unlinkToDeathERKNS_2spINS_8hardware20hidl_death_recipientEEE"
    },
    {
     "kind" : "complete_dtor_pointer",
     "mangled_component_name" : "_ZN7android10frameworks5stats4V1_07BsStatsD1Ev"
    },
    {
     "kind" : "deleting_dtor_pointer",
     "mangled_component_name" : "_ZN7android10frameworks5stats4V1_07BsStatsD0Ev"
    },
    {
     "mangled_component_name" : "_ZN7android10frameworks5stats4V1_07BsStats22reportSpeakerImpedanceERKNS2_16SpeakerImpedanceE"
    },
    {
     "mangled_component_name" : "_ZN7android10frameworks5stats4V1_07BsStats20reportHardwareFailedERKNS2_14HardwareFailedE"
    },
    {
     "mangled_component_name" : "_ZN7android10frameworks5stats4V1_07BsStats26reportPhysicalDropDetectedERKNS2_20PhysicalDropDetectedE"
    },
    {
     "mangled_component_name" : "_ZN7android10frameworks5stats4V1_07BsStats18reportChargeCyclesERKNS2_12ChargeCyclesE"
    },
    {
     "mangled_component_name" : "_ZN7android10frameworks5stats4V1_07BsStats27reportBatteryHealthSnapshotERKNS2_25BatteryHealthSnapshotArgsE"
    },
    {
     "mangled_component_name" : "_ZN7android10frameworks5stats4V1_07BsStats12reportSlowIoERKNS2_6SlowIoE"
    },
    {
     "mangled_component_name" : "_ZN7android10frameworks5stats4V1_07BsStats27reportBatteryCausedShutdownERKNS2_21BatteryCausedShutdownE"
    },
    {
     "mangled_component_name" : "_ZN7android10frameworks5stats4V1_07BsStats26reportUsbPortOverheatEventERKNS2_20UsbPortOverheatEventE"
    },
    {
     "mangled_component_name" : "_ZN7android10frameworks5stats4V1_07BsStats19reportSpeechDspStatERKNS2_13SpeechDspStatE"
    },
    {
     "mangled_component_name" : "_ZN7android10frameworks5stats4V1_07BsStats16reportVendorAtomERKNS2_10VendorAtomE"
    },
    {
     "component_value" : -8,
     "kind" : "offset_to_top"
    },
    {
     "kind" : "rtti",
     "mangled_component_name" : "_ZTIN7android10frameworks5stats4V1_07BsStatsE"
    },
    {
     "kind" : "complete_dtor_pointer",
     "mangled_component_name" : "_ZThn8_N7android10frameworks5stats4V1_07BsStatsD1Ev"
    },
    {
     "kind" : "deleting_dtor_pointer",
     "mangled_component_name" : "_ZThn8_N7android10frameworks5stats4V1_07BsStatsD0Ev"
    },
    {
     "kind" : "vcall_offset"
    },
    {
     "kind" : "vcall_offset"
    },
    {
     "kind" : "vcall_offset"
    },
    {
     "kind" : "vcall_offset"
    },
    {
     "component_value" : -120,
     "kind" : "vcall_offset"
    },
    {
     "component_value" : -120,
     "kind" : "offset_to_top"
    },
    {
     "kind" : "rtti",
     "mangled_component_name" : "_ZTIN7android10frameworks5stats4V1_07BsStatsE"
    },
    {
     "kind" : "complete_dtor_pointer",
     "mangled_component_name" : "_ZTv0_n24_N7android10frameworks5stats4V1_07BsStatsD1Ev"
    },
    {
     "kind" : "deleting_dtor_pointer",
     "mangled_component_name" : "_ZTv0_n24_N7android10frameworks5stats4V1_07BsStatsD0Ev"
    },
    {
     "mangled_component_name" : "_ZN7android7RefBase10onFirstRefEv"
    },
    {
     "mangled_component_name" : "_ZN7android7RefBase15onLastStrongRefEPKv"
    },
    {
     "mangled_component_name" : "_ZN7android7RefBase20onIncStrongAttemptedEjPKv"
    },
    {
     "mangled_component_name" : "_ZN7android7RefBase13onLastWeakRefEPKv"
    }
   ]
  },
  {
   "alignment" : 8,
   "fields" :
   [
    {
     "field_name" : "cycleBucket",
     "referenced_type" : "type-304"
    }
   ],
   "linker_set_key" : "android::frameworks::stats::V1_0::ChargeCycles",
   "name" : "android::frameworks::stats::V1_0::ChargeCycles",
   "referenced_type" : "type-512",
   "self_type" : "type-512",
   "size" : 16,
   "source_file" : "/out/soong/.intermediates/frameworks/hardware/interfaces/stats/1.0/android.frameworks.stats@1.0_genc++_headers/gen/android/frameworks/stats/1.0/types.h",
   "unique_id" : "_ZTSN7android10frameworks5stats4V1_012ChargeCyclesE"
  },
  {
   "alignment" : 4,
   "fields" :
   [
    {
     "field_name" : "hardwareType",
     "referenced_type" : "type-508"
    },
    {
     "field_name" : "hardwareLocation",
     "field_offset" : 32,
     "referenced_type" : "type-20"
    },
    {
     "field_name" : "errorCode",
     "field_offset" : 64,
     "referenced_type" : "type-509"
    }
   ],
   "linker_set_key" : "android::frameworks::stats::V1_0::HardwareFailed",
   "name" : "android::frameworks::stats::V1_0::HardwareFailed",
   "referenced_type" : "type-507",
   "self_type" : "type-507",
   "size" : 12,
   "source_file" : "/out/soong/.intermediates/frameworks/hardware/interfaces/stats/1.0/android.frameworks.stats@1.0_genc++_headers/gen/android/frameworks/stats/1.0/types.h",
   "unique_id" : "_ZTSN7android10frameworks5stats4V1_014HardwareFailedE"
  },
  {
   "alignment" : 8,
   "base_specifiers" :
   [
    {
     "referenced_type" : "type-4"
    }
   ],
   "linker_set_key" : "android::frameworks::stats::V1_0::IStats",
   "name" : "android::frameworks::stats::V1_0::IStats",
   "referenced_type" : "type-94",
   "self_type" : "type-94",
   "size" : 24,
   "source_file" : "/out/soong/.intermediates/frameworks/hardware/interfaces/stats/1.0/android.frameworks.stats@1.0_genc++_headers/gen/android/frameworks/stats/1.0/IStats.h",
   "unique_id" : "_ZTSN7android10frameworks5stats4V1_06IStatsE",
   "vtable_components" :
   [
    {
     "component_value" : 8,
     "kind" : "vbase_offset"
    },
    {
     "kind" : "offset_to_top"
    },
    {
     "kind" : "rtti",
     "mangled_component_name" : "_ZTIN7android10frameworks5stats4V1_06IStatsE"
    },
    {
     "mangled_component_name" : "_ZNK7android10frameworks5stats4V1_06IStats8isRemoteEv"
    },
    {
     "mangled_component_name" : "_ZN7android10frameworks5stats4V1_06IStats14interfaceChainENSt3__18functionIFvRKNS_8hardware8hidl_vecINS6_11hidl_stringEEEEEE"
    },
    {
     "mangled_component_name" : "_ZN7android10frameworks5stats4V1_06IStats5debugERKNS_8hardware11hidl_handleERKNS4_8hidl_vecINS4_11hidl_stringEEE"
    },
    {
     "mangled_component_name" : "_ZN7android10frameworks5stats4V1_06IStats19interfaceDescriptorENSt3__18functionIFvRKNS_8hardware11hidl_stringEEEE"
    },
    {
     "mangled_component_name" : "_ZN7android10frameworks5stats4V1_06IStats12getHashChainENSt3__18functionIFvRKNS_8hardware8hidl_vecINS6_10hidl_arrayIhLm32EJEEEEEEEE"
    },
    {
     "mangled_component_name" : "_ZN7android10frameworks5stats4V1_06IStats21setHALInstrumentationEv"
    },
    {
     "mangled_component_name" : "_ZN7android10frameworks5stats4V1_06IStats11linkToDeathERKNS_2spINS_8hardware20hidl_death_recipientEEEm"
    },
    {
     "mangled_component_name" : "_ZN7android10frameworks5stats4V1_06IStats4pingEv"
    },
    {
     "mangled_component_name" : "_ZN7android10frameworks5stats4V1_06IStats12getDebugInfoENSt3__18functionIFvRKNS_4hidl4base4V1_09DebugInfoEEEE"
    },
    {
     "mangled_component_name" : "_ZN7android10frameworks5stats4V1_06IStats21notifySyspropsChangedEv"
    },
    {
     "mangled_component_name" : "_ZN7android10frameworks5stats4V1_06IStats13unlinkToDeathERKNS_2spINS_8hardware20hidl_death_recipientEEE"
    },
    {
     "kind" : "complete_dtor_pointer",
     "mangled_component_name" : "_ZN7android10frameworks5stats4V1_06IStatsD1Ev"
    },
    {
     "kind" : "deleting_dtor_pointer",
     "mangled_component_name" : "_ZN7android10frameworks5stats4V1_06IStatsD0Ev"
    },
    {
     "is_pure" : true,
     "mangled_component_name" : "_ZN7android10frameworks5stats4V1_06IStats22reportSpeakerImpedanceERKNS2_16SpeakerImpedanceE"
    },
    {
     "is_pure" : true,
     "mangled_component_name" : "_ZN7android10frameworks5stats4V1_06IStats20reportHardwareFailedERKNS2_14HardwareFailedE"
    },
    {
     "is_pure" : true,
     "mangled_component_name" : "_ZN7android10frameworks5stats4V1_06IStats26reportPhysicalDropDetectedERKNS2_20PhysicalDropDetectedE"
    },
    {
     "is_pure" : true,
     "mangled_component_name" : "_ZN7android10frameworks5stats4V1_06IStats18reportChargeCyclesERKNS2_12ChargeCyclesE"
    },
    {
     "is_pure" : true,
     "mangled_component_name" : "_ZN7android10frameworks5stats4V1_06IStats27reportBatteryHealthSnapshotERKNS2_25BatteryHealthSnapshotArgsE"
    },
    {
     "is_pure" : true,
     "mangled_component_name" : "_ZN7android10frameworks5stats4V1_06IStats12reportSlowIoERKNS2_6SlowIoE"
    },
    {
     "is_pure" : true,
     "mangled_component_name" : "_ZN7android10frameworks5stats4V1_06IStats27reportBatteryCausedShutdownERKNS2_21BatteryCausedShutdownE"
    },
    {
     "is_pure" : true,
     "mangled_component_name" : "_ZN7android10frameworks5stats4V1_06IStats26reportUsbPortOverheatEventERKNS2_20UsbPortOverheatEventE"
    },
    {
     "is_pure" : true,
     "mangled_component_name" : "_ZN7android10frameworks5stats4V1_06IStats19reportSpeechDspStatERKNS2_13SpeechDspStatE"
    },
    {
     "is_pure" : true,
     "mangled_component_name" : "_ZN7android10frameworks5stats4V1_06IStats16reportVendorAtomERKNS2_10VendorAtomE"
    },
    {
     "kind" : "vcall_offset"
    },
    {
     "kind" : "vcall_offset"
    },
    {
     "kind" : "vcall_offset"
    },
    {
     "kind" : "vcall_offset"
    },
    {
     "component_value" : -8,
     "kind" : "vcall_offset"
    },
    {
     "component_value" : -8,
     "kind" : "offset_to_top"
    },
    {
     "kind" : "rtti",
     "mangled_component_name" : "_ZTIN7android10frameworks5stats4V1_06IStatsE"
    },
    {
     "kind" : "complete_dtor_pointer",
     "mangled_component_name" : "_ZTv0_n24_N7android10frameworks5stats4V1_06IStatsD1Ev"
    },
    {
     "kind" : "deleting_dtor_pointer",
     "mangled_component_name" : "_ZTv0_n24_N7android10frameworks5stats4V1_06IStatsD0Ev"
    },
    {
     "mangled_component_name" : "_ZN7android7RefBase10onFirstRefEv"
    },
    {
     "mangled_component_name" : "_ZN7android7RefBase15onLastStrongRefEPKv"
    },
    {
     "mangled_component_name" : "_ZN7android7RefBase20onIncStrongAttemptedEjPKv"
    },
    {
     "mangled_component_name" : "_ZN7android7RefBase13onLastWeakRefEPKv"
    }
   ]
  },
  {
   "alignment" : 4,
   "fields" :
   [
    {
     "field_name" : "confidencePctg",
     "referenced_type" : "type-81"
    },
    {
     "field_name" : "accelPeak",
     "field_offset" : 32,
     "referenced_type" : "type-20"
    },
    {
     "field_name" : "freefallDuration",
     "field_offset" : 64,
     "referenced_type" : "type-20"
    }
   ],
   "linker_set_key" : "android::frameworks::stats::V1_0::PhysicalDropDetected",
   "name" : "android::frameworks::stats::V1_0::PhysicalDropDetected",
   "referenced_type" : "type-510",
   "self_type" : "type-510",
   "size" : 12,
   "source_file" : "/out/soong/.intermediates/frameworks/hardware/interfaces/stats/1.0/android.frameworks.stats@1.0_genc++_headers/gen/android/frameworks/stats/1.0/types.h",
   "unique_id" : "_ZTSN7android10frameworks5stats4V1_020PhysicalDropDetectedE"
  },
  {
   "alignment" : 4,
   "fields" :
   [
    {
     "field_name" : "operation",
     "referenced_type" : "type-517"
    },
    {
     "field_name" : "count",
     "field_offset" : 32,
     "referenced_type" : "type-20"
    }
   ],
   "linker_set_key" : "android::frameworks::stats::V1_0::SlowIo",
   "name" : "android::frameworks::stats::V1_0::SlowIo",
   "referenced_type" : "type-516",
   "self_type" : "type-516",
   "size" : 8,
   "source_file" : "/out/soong/.intermediates/frameworks/hardware/interfaces/stats/1.0/android.frameworks.stats@1.0_genc++_headers/gen/android/frameworks/stats/1.0/types.h",
   "unique_id" : "_ZTSN7android10frameworks5stats4V1_06SlowIoE"
  },
  {
   "alignment" : 4,
   "fields" :
   [
    {
     "field_name" : "speakerLocation",
     "referenced_type" : "type-20"
    },
    {
     "field_name" : "milliOhms",
     "field_offset" : 32,
     "referenced_type" : "type-20"
    }
   ],
   "linker_set_key" : "android::frameworks::stats::V1_0::SpeakerImpedance",
   "name" : "android::frameworks::stats::V1_0::SpeakerImpedance",
   "referenced_type" : "type-506",
   "self_type" : "type-506",
   "size" : 8,
   "source_file" : "/out/soong/.intermediates/frameworks/hardware/interfaces/stats/1.0/android.frameworks.stats@1.0_genc++_headers/gen/android/frameworks/stats/1.0/types.h",
   "unique_id" : "_ZTSN7android10frameworks5stats4V1_016SpeakerImpedanceE"
  },
  {
   "alignment" : 4,
   "fields" :
   [
    {
     "field_name" : "totalUptimeMillis",
     "referenced_type" : "type-20"
    },
    {
     "field_name" : "totalDowntimeMillis",
     "field_offset" : 32,
     "referenced_type" : "type-20"
    },
    {
     "field_name" : "totalCrashCount",
     "field_offset" : 64,
     "referenced_type" : "type-20"
    },
    {
     "field_name" : "totalRecoverCount",
     "field_offset" : 96,
     "referenced_type" : "type-20"
    }
   ],
   "linker_set_key" : "android::frameworks::stats::V1_0::SpeechDspStat",
   "name" : "android::frameworks::stats::V1_0::SpeechDspStat",
   "referenced_type" : "type-520",
   "self_type" : "type-520",
   "size" : 16,
   "source_file" : "/out/soong/.intermediates/frameworks/hardware/interfaces/stats/1.0/android.frameworks.stats@1.0_genc++_headers/gen/android/frameworks/stats/1.0/types.h",
   "unique_id" : "_ZTSN7android10frameworks5stats4V1_013SpeechDspStatE"
  },
  {
   "alignment" : 4,
   "fields" :
   [
    {
     "field_name" : "plugTemperatureDeciC",
     "referenced_type" : "type-20"
    },
    {
     "field_name" : "maxTemperatureDeciC",
     "field_offset" : 32,
     "referenced_type" : "type-20"
    },
    {
     "field_name" : "timeToOverheat",
     "field_offset" : 64,
     "referenced_type" : "type-20"
    },
    {
     "field_name" : "timeToHysteresis",
     "field_offset" : 96,
     "referenced_type" : "type-20"
    },
    {
     "field_name" : "timeToInactive",
     "field_offset" : 128,
     "referenced_type" : "type-20"
    }
   ],
   "linker_set_key" : "android::frameworks::stats::V1_0::UsbPortOverheatEvent",
   "name" : "android::frameworks::stats::V1_0::UsbPortOverheatEvent",
   "referenced_type" : "type-519",
   "self_type" : "type-519",
   "size" : 20,
   "source_file" : "/out/soong/.intermediates/frameworks/hardware/interfaces/stats/1.0/android.frameworks.stats@1.0_genc++_headers/gen/android/frameworks/stats/1.0/types.h",
   "unique_id" : "_ZTSN7android10frameworks5stats4V1_020UsbPortOverheatEventE"
  },
  {
   "alignment" : 8,
   "fields" :
   [
    {
     "field_name" : "reverseDomainName",
     "referenced_type" : "type-265"
    },
    {
     "field_name" : "atomId",
     "field_offset" : 128,
     "referenced_type" : "type-20"
    },
    {
     "field_name" : "values",
     "field_offset" : 192,
     "referenced_type" : "type-313"
    }
   ],
   "linker_set_key" : "android::frameworks::stats::V1_0::VendorAtom",
   "name" : "android::frameworks::stats::V1_0::VendorAtom",
   "referenced_type" : "type-521",
   "self_type" : "type-521",
   "size" : 40,
   "source_file" : "/out/soong/.intermediates/frameworks/hardware/interfaces/stats/1.0/android.frameworks.stats@1.0_genc++_headers/gen/android/frameworks/stats/1.0/types.h",
   "unique_id" : "_ZTSN7android10frameworks5stats4V1_010VendorAtomE"
  },
  {
   "alignment" : 8,
   "fields" :
   [
    {
     "access" : "private",
     "field_name" : "hidl_d",
     "referenced_type" : "type-318"
    },
    {
     "access" : "private",
     "field_name" : "hidl_u",
     "field_offset" : 64,
     "referenced_type" : "type-319"
    }
   ],
   "linker_set_key" : "android::frameworks::stats::V1_0::VendorAtom::Value",
   "name" : "android::frameworks::stats::V1_0::VendorAtom::Value",
   "referenced_type" : "type-317",
   "self_type" : "type-317",
   "size" : 24,
   "source_file" : "/out/soong/.intermediates/frameworks/hardware/interfaces/stats/1.0/android.frameworks.stats@1.0_genc++_headers/gen/android/frameworks/stats/1.0/types.h",
   "unique_id" : "_ZTSN7android10frameworks5stats4V1_010VendorAtom5ValueE"
  },
  {
   "access" : "private",
   "alignment" : 8,
   "fields" :
   [
    {
     "field_name" : "intValue",
     "referenced_type" : "type-20"
    },
    {
     "field_name" : "longValue",
     "referenced_type" : "type-26"
    },
    {
     "field_name" : "floatValue",
     "referenced_type" : "type-222"
    },
    {
     "field_name" : "stringValue",
     "referenced_type" : "type-265"
    }
   ],
   "linker_set_key" : "android::frameworks::stats::V1_0::VendorAtom::Value::hidl_union",
   "name" : "android::frameworks::stats::V1_0::VendorAtom::Value::hidl_union",
   "record_kind" : "union",
   "referenced_type" : "type-319",
   "self_type" : "type-319",
   "size" : 16,
   "source_file" : "/out/soong/.intermediates/frameworks/hardware/interfaces/stats/1.0/android.frameworks.stats@1.0_genc++_headers/gen/android/frameworks/stats/1.0/types.h",
   "unique_id" : "_ZTSN7android10frameworks5stats4V1_010VendorAtom5Value10hidl_unionE"
  },
  {
   "alignment" : 8,
   "base_specifiers" :
   [
    {
     "referenced_type" : "type-13"
    }
   ],
   "fields" :
   [
    {
     "access" : "protected",
     "field_name" : "mSchedPolicy",
     "field_offset" : 64,
     "referenced_type" : "type-20"
    },
    {
     "access" : "protected",
     "field_name" : "mSchedPriority",
     "field_offset" : 96,
     "referenced_type" : "type-20"
    },
    {
     "access" : "private",
     "field_name" : "mExtras",
     "field_offset" : 128,
     "referenced_type" : "type-116"
    },
    {
     "access" : "private",
     "field_name" : "mReserved0",
     "field_offset" : 192,
     "referenced_type" : "type-21"
    }
   ],
   "linker_set_key" : "android::hardware::BHwBinder",
   "name" : "android::hardware::BHwBinder",
   "record_kind" : "class",
   "referenced_type" : "type-115",
   "self_type" : "type-115",
   "size" : 48,
   "source_file" : "/system/libhwbinder/include/hwbinder/Binder.h",
   "unique_id" : "_ZTSN7android8hardware9BHwBinderE",
   "vtable_components" :
   [
    {
     "component_value" : 32,
     "kind" : "vbase_offset"
    },
    {
     "kind" : "offset_to_top"
    },
    {
     "kind" : "rtti",
     "mangled_component_name" : "_ZTIN7android8hardware9BHwBinderE"
    },
    {
     "mangled_component_name" : "_ZN7android8hardware9BHwBinder8transactEjRKNS0_6ParcelEPS2_jNSt3__18functionIFvRS2_EEE"
    },
    {
     "mangled_component_name" : "_ZN7android8hardware9BHwBinder11linkToDeathERKNS_2spINS0_7IBinder14DeathRecipientEEEPvj"
    },
    {
     "mangled_component_name" : "_ZN7android8hardware9BHwBinder13unlinkToDeathERKNS_2wpINS0_7IBinder14DeathRecipientEEEPvjPS5_"
    },
    {
     "mangled_component_name" : "_ZNK7android8hardware7IBinder13checkSubclassEPKv"
    },
    {
     "mangled_component_name" : "_ZN7android8hardware9BHwBinder12attachObjectEPKvPvS4_PFvS3_S4_S4_E"
    },
    {
     "mangled_component_name" : "_ZNK7android8hardware9BHwBinder10findObjectEPKv"
    },
    {
     "mangled_component_name" : "_ZN7android8hardware9BHwBinder12detachObjectEPKv"
    },
    {
     "mangled_component_name" : "_ZN7android8hardware9BHwBinder11localBinderEv"
    },
    {
     "mangled_component_name" : "_ZN7android8hardware7IBinder12remoteBinderEv"
    },
    {
     "kind" : "complete_dtor_pointer",
     "mangled_component_name" : "_ZN7android8hardware9BHwBinderD1Ev"
    },
    {
     "kind" : "deleting_dtor_pointer",
     "mangled_component_name" : "_ZN7android8hardware9BHwBinderD0Ev"
    },
    {
     "mangled_component_name" : "_ZN7android8hardware9BHwBinder10onTransactEjRKNS0_6ParcelEPS2_jNSt3__18functionIFvRS2_EEE"
    },
    {
     "kind" : "vcall_offset"
    },
    {
     "kind" : "vcall_offset"
    },
    {
     "kind" : "vcall_offset"
    },
    {
     "kind" : "vcall_offset"
    },
    {
     "component_value" : -32,
     "kind" : "vcall_offset"
    },
    {
     "component_value" : -32,
     "kind" : "offset_to_top"
    },
    {
     "kind" : "rtti",
     "mangled_component_name" : "_ZTIN7android8hardware9BHwBinderE"
    },
    {
     "kind" : "complete_dtor_pointer",
     "mangled_component_name" : "_ZTv0_n24_N7android8hardware9BHwBinderD1Ev"
    },
    {
     "kind" : "deleting_dtor_pointer",
     "mangled_component_name" : "_ZTv0_n24_N7android8hardware9BHwBinderD0Ev"
    },
    {
     "mangled_component_name" : "_ZN7android7RefBase10onFirstRefEv"
    },
    {
     "mangled_component_name" : "_ZN7android7RefBase15onLastStrongRefEPKv"
    },
    {
     "mangled_component_name" : "_ZN7android7RefBase20onIncStrongAttemptedEjPKv"
    },
    {
     "mangled_component_name" : "_ZN7android7RefBase13onLastWeakRefEPKv"
    }
   ]
  },
  {
   "alignment" : 8,
   "base_specifiers" :
   [
    {
     "is_virtual" : true,
     "referenced_type" : "type-5"
    }
   ],
   "fields" :
   [
    {
     "access" : "private",
     "field_name" : "mRemote",
     "field_offset" : 64,
     "referenced_type" : "type-368"
    },
    {
     "access" : "private",
     "field_name" : "mRefs",
     "field_offset" : 128,
     "referenced_type" : "type-34"
    },
    {
     "access" : "private",
     "field_name" : "mState",
     "field_offset" : 192,
     "referenced_type" : "type-369"
    }
   ],
   "linker_set_key" : "android::hardware::BpHwRefBase",
   "name" : "android::hardware::BpHwRefBase",
   "record_kind" : "class",
   "referenced_type" : "type-367",
   "self_type" : "type-367",
   "size" : 48,
   "source_file" : "/system/libhwbinder/include/hwbinder/Binder.h",
   "unique_id" : "_ZTSN7android8hardware11BpHwRefBaseE",
   "vtable_components" :
   [
    {
     "component_value" : 32,
     "kind" : "vbase_offset"
    },
    {
     "kind" : "offset_to_top"
    },
    {
     "kind" : "rtti",
     "mangled_component_name" : "_ZTIN7android8hardware11BpHwRefBaseE"
    },
    {
     "kind" : "complete_dtor_pointer",
     "mangled_component_name" : "_ZN7android8hardware11BpHwRefBaseD1Ev"
    },
    {
     "kind" : "deleting_dtor_pointer",
     "mangled_component_name" : "_ZN7android8hardware11BpHwRefBaseD0Ev"
    },
    {
     "mangled_component_name" : "_ZN7android8hardware11BpHwRefBase10onFirstRefEv"
    },
    {
     "mangled_component_name" : "_ZN7android8hardware11BpHwRefBase15onLastStrongRefEPKv"
    },
    {
     "mangled_component_name" : "_ZN7android8hardware11BpHwRefBase20onIncStrongAttemptedEjPKv"
    },
    {
     "kind" : "vcall_offset"
    },
    {
     "component_value" : -32,
     "kind" : "vcall_offset"
    },
    {
     "component_value" : -32,
     "kind" : "vcall_offset"
    },
    {
     "component_value" : -32,
     "kind" : "vcall_offset"
    },
    {
     "component_value" : -32,
     "kind" : "vcall_offset"
    },
    {
     "component_value" : -32,
     "kind" : "offset_to_top"
    },
    {
     "kind" : "rtti",
     "mangled_component_name" : "_ZTIN7android8hardware11BpHwRefBaseE"
    },
    {
     "kind" : "complete_dtor_pointer",
     "mangled_component_name" : "_ZTv0_n24_N7android8hardware11BpHwRefBaseD1Ev"
    },
    {
     "kind" : "deleting_dtor_pointer",
     "mangled_component_name" : "_ZTv0_n24_N7android8hardware11BpHwRefBaseD0Ev"
    },
    {
     "mangled_component_name" : "_ZTv0_n32_N7android8hardware11BpHwRefBase10onFirstRefEv"
    },
    {
     "mangled_component_name" : "_ZTv0_n40_N7android8hardware11BpHwRefBase15onLastStrongRefEPKv"
    },
    {
     "mangled_component_name" : "_ZTv0_n48_N7android8hardware11BpHwRefBase20onIncStrongAttemptedEjPKv"
    },
    {
     "mangled_component_name" : "_ZN7android7RefBase13onLastWeakRefEPKv"
    }
   ]
  },
  {
   "alignment" : 8,
   "base_specifiers" :
   [
    {
     "referenced_type" : "type-94"
    },
    {
     "referenced_type" : "type-16"
    },
    {
     "referenced_type" : "type-367"
    }
   ],
   "linker_set_key" : "android::hardware::BpInterface<android::frameworks::stats::V1_0::IStats>",
   "name" : "android::hardware::BpInterface<android::frameworks::stats::V1_0::IStats>",
   "record_kind" : "class",
   "referenced_type" : "type-373",
   "self_type" : "type-373",
   "size" : 64,
   "source_file" : "/system/libhwbinder/include/hwbinder/IInterface.h",
   "template_args" : [ "type-94" ],
   "unique_id" : "_ZTSN7android8hardware11BpInterfaceINS_10frameworks5stats4V1_06IStatsEEE",
   "vtable_components" :
   [
    {
     "component_value" : 48,
     "kind" : "vbase_offset"
    },
    {
     "kind" : "offset_to_top"
    },
    {
     "kind" : "rtti",
     "mangled_component_name" : "_ZTIN7android8hardware11BpInterfaceINS_10frameworks5stats4V1_06IStatsEEE"
    },
    {
     "mangled_component_name" : "_ZNK7android10frameworks5stats4V1_06IStats8isRemoteEv"
    },
    {
     "mangled_component_name" : "_ZN7android10frameworks5stats4V1_06IStats14interfaceChainENSt3__18functionIFvRKNS_8hardware8hidl_vecINS6_11hidl_stringEEEEEE"
    },
    {
     "mangled_component_name" : "_ZN7android10frameworks5stats4V1_06IStats5debugERKNS_8hardware11hidl_handleERKNS4_8hidl_vecINS4_11hidl_stringEEE"
    },
    {
     "mangled_component_name" : "_ZN7android10frameworks5stats4V1_06IStats19interfaceDescriptorENSt3__18functionIFvRKNS_8hardware11hidl_stringEEEE"
    },
    {
     "mangled_component_name" : "_ZN7android10frameworks5stats4V1_06IStats12getHashChainENSt3__18functionIFvRKNS_8hardware8hidl_vecINS6_10hidl_arrayIhLm32EJEEEEEEEE"
    },
    {
     "mangled_component_name" : "_ZN7android10frameworks5stats4V1_06IStats21setHALInstrumentationEv"
    },
    {
     "mangled_component_name" : "_ZN7android10frameworks5stats4V1_06IStats11linkToDeathERKNS_2spINS_8hardware20hidl_death_recipientEEEm"
    },
    {
     "mangled_component_name" : "_ZN7android10frameworks5stats4V1_06IStats4pingEv"
    },
    {
     "mangled_component_name" : "_ZN7android10frameworks5stats4V1_06IStats12getDebugInfoENSt3__18functionIFvRKNS_4hidl4base4V1_09DebugInfoEEEE"
    },
    {
     "mangled_component_name" : "_ZN7android10frameworks5stats4V1_06IStats21notifySyspropsChangedEv"
    },
    {
     "mangled_component_name" : "_ZN7android10frameworks5stats4V1_06IStats13unlinkToDeathERKNS_2spINS_8hardware20hidl_death_recipientEEE"
    },
    {
     "kind" : "complete_dtor_pointer",
     "mangled_component_name" : "_ZN7android8hardware11BpInterfaceINS_10frameworks5stats4V1_06IStatsEED1Ev"
    },
    {
     "kind" : "deleting_dtor_pointer",
     "mangled_component_name" : "_ZN7android8hardware11BpInterfaceINS_10frameworks5stats4V1_06IStatsEED0Ev"
    },
    {
     "is_pure" : true,
     "mangled_component_name" : "_ZN7android10frameworks5stats4V1_06IStats22reportSpeakerImpedanceERKNS2_16SpeakerImpedanceE"
    },
    {
     "is_pure" : true,
     "mangled_component_name" : "_ZN7android10frameworks5stats4V1_06IStats20reportHardwareFailedERKNS2_14HardwareFailedE"
    },
    {
     "is_pure" : true,
     "mangled_component_name" : "_ZN7android10frameworks5stats4V1_06IStats26reportPhysicalDropDetectedERKNS2_20PhysicalDropDetectedE"
    },
    {
     "is_pure" : true,
     "mangled_component_name" : "_ZN7android10frameworks5stats4V1_06IStats18reportChargeCyclesERKNS2_12ChargeCyclesE"
    },
    {
     "is_pure" : true,
     "mangled_component_name" : "_ZN7android10frameworks5stats4V1_06IStats27reportBatteryHealthSnapshotERKNS2_25BatteryHealthSnapshotArgsE"
    },
    {
     "is_pure" : true,
     "mangled_component_name" : "_ZN7android10frameworks5stats4V1_06IStats12reportSlowIoERKNS2_6SlowIoE"
    },
    {
     "is_pure" : true,
     "mangled_component_name" : "_ZN7android10frameworks5stats4V1_06IStats27reportBatteryCausedShutdownERKNS2_21BatteryCausedShutdownE"
    },
    {
     "is_pure" : true,
     "mangled_component_name" : "_ZN7android10frameworks5stats4V1_06IStats26reportUsbPortOverheatEventERKNS2_20UsbPortOverheatEventE"
    },
    {
     "is_pure" : true,
     "mangled_component_name" : "_ZN7android10frameworks5stats4V1_06IStats19reportSpeechDspStatERKNS2_13SpeechDspStatE"
    },
    {
     "is_pure" : true,
     "mangled_component_name" : "_ZN7android10frameworks5stats4V1_06IStats16reportVendorAtomERKNS2_10VendorAtomE"
    },
    {
     "mangled_component_name" : "_ZN7android8hardware11BpInterfaceINS_10frameworks5stats4V1_06IStatsEE10onAsBinderEv"
    },
    {
     "component_value" : 40,
     "kind" : "vbase_offset"
    },
    {
     "component_value" : -8,
     "kind" : "offset_to_top"
    },
    {
     "kind" : "rtti",
     "mangled_component_name" : "_ZTIN7android8hardware11BpInterfaceINS_10frameworks5stats4V1_06IStatsEEE"
    },
    {
     "kind" : "complete_dtor_pointer",
     "mangled_component_name" : "_ZThn8_N7android8hardware11BpInterfaceINS_10frameworks5stats4V1_06IStatsEED1Ev"
    },
    {
     "kind" : "deleting_dtor_pointer",
     "mangled_component_name" : "_ZThn8_N7android8hardware11BpInterfaceINS_10frameworks5stats4V1_06IStatsEED0Ev"
    },
    {
     "mangled_component_name" : "_ZThn8_N7android8hardware11BpInterfaceINS_10frameworks5stats4V1_06IStatsEE10onAsBinderEv"
    },
    {
     "component_value" : 32,
     "kind" : "vbase_offset"
    },
    {
     "component_value" : -16,
     "kind" : "offset_to_top"
    },
    {
     "kind" : "rtti",
     "mangled_component_name" : "_ZTIN7android8hardware11BpInterfaceINS_10frameworks5stats4V1_06IStatsEEE"
    },
    {
     "kind" : "complete_dtor_pointer",
     "mangled_component_name" : "_ZThn16_N7android8hardware11BpInterfaceINS_10frameworks5stats4V1_06IStatsEED1Ev"
    },
    {
     "kind" : "deleting_dtor_pointer",
     "mangled_component_name" : "_ZThn16_N7android8hardware11BpInterfaceINS_10frameworks5stats4V1_06IStatsEED0Ev"
    },
    {
     "mangled_component_name" : "_ZN7android8hardware11BpHwRefBase10onFirstRefEv"
    },
    {
     "mangled_component_name" : "_ZN7android8hardware11BpHwRefBase15onLastStrongRefEPKv"
    },
    {
     "mangled_component_name" : "_ZN7android8hardware11BpHwRefBase20onIncStrongAttemptedEjPKv"
    },
    {
     "kind" : "vcall_offset"
    },
    {
     "component_value" : -32,
     "kind" : "vcall_offset"
    },
    {
     "component_value" : -32,
     "kind" : "vcall_offset"
    },
    {
     "component_value" : -32,
     "kind" : "vcall_offset"
    },
    {
     "component_value" : -48,
     "kind" : "vcall_offset"
    },
    {
     "component_value" : -48,
     "kind" : "offset_to_top"
    },
    {
     "kind" : "rtti",
     "mangled_component_name" : "_ZTIN7android8hardware11BpInterfaceINS_10frameworks5stats4V1_06IStatsEEE"
    },
    {
     "kind" : "complete_dtor_pointer",
     "mangled_component_name" : "_ZTv0_n24_N7android8hardware11BpInterfaceINS_10frameworks5stats4V1_06IStatsEED1Ev"
    },
    {
     "kind" : "deleting_dtor_pointer",
     "mangled_component_name" : "_ZTv0_n24_N7android8hardware11BpInterfaceINS_10frameworks5stats4V1_06IStatsEED0Ev"
    },
    {
     "mangled_component_name" : "_ZTv0_n32_N7android8hardware11BpHwRefBase10onFirstRefEv"
    },
    {
     "mangled_component_name" : "_ZTv0_n40_N7android8hardware11BpHwRefBase15onLastStrongRefEPKv"
    },
    {
     "mangled_component_name" : "_ZTv0_n48_N7android8hardware11BpHwRefBase20onIncStrongAttemptedEjPKv"
    },
    {
     "mangled_component_name" : "_ZN7android7RefBase13onLastWeakRefEPKv"
    }
   ]
  },
  {
   "alignment" : 8,
   "base_specifiers" :
   [
    {
     "referenced_type" : "type-4"
    },
    {
     "referenced_type" : "type-16"
    },
    {
     "referenced_type" : "type-367"
    }
   ],
   "linker_set_key" : "android::hardware::BpInterface<android::hidl::base::V1_0::IBase>",
   "name" : "android::hardware::BpInterface<android::hidl::base::V1_0::IBase>",
   "record_kind" : "class",
   "referenced_type" : "type-371",
   "self_type" : "type-371",
   "size" : 64,
   "source_file" : "/system/libhwbinder/include/hwbinder/IInterface.h",
   "template_args" : [ "type-4" ],
   "unique_id" : "_ZTSN7android8hardware11BpInterfaceINS_4hidl4base4V1_05IBaseEEE",
   "vtable_components" :
   [
    {
     "component_value" : 48,
     "kind" : "vbase_offset"
    },
    {
     "kind" : "offset_to_top"
    },
    {
     "kind" : "rtti",
     "mangled_component_name" : "_ZTIN7android8hardware11BpInterfaceINS_4hidl4base4V1_05IBaseEEE"
    },
    {
     "mangled_component_name" : "_ZNK7android4hidl4base4V1_05IBase8isRemoteEv"
    },
    {
     "mangled_component_name" : "_ZN7android4hidl4base4V1_05IBase14interfaceChainENSt3__18functionIFvRKNS_8hardware8hidl_vecINS6_11hidl_stringEEEEEE"
    },
    {
     "mangled_component_name" : "_ZN7android4hidl4base4V1_05IBase5debugERKNS_8hardware11hidl_handleERKNS4_8hidl_vecINS4_11hidl_stringEEE"
    },
    {
     "mangled_component_name" : "_ZN7android4hidl4base4V1_05IBase19interfaceDescriptorENSt3__18functionIFvRKNS_8hardware11hidl_stringEEEE"
    },
    {
     "mangled_component_name" : "_ZN7android4hidl4base4V1_05IBase12getHashChainENSt3__18functionIFvRKNS_8hardware8hidl_vecINS6_10hidl_arrayIhLm32EJEEEEEEEE"
    },
    {
     "mangled_component_name" : "_ZN7android4hidl4base4V1_05IBase21setHALInstrumentationEv"
    },
    {
     "mangled_component_name" : "_ZN7android4hidl4base4V1_05IBase11linkToDeathERKNS_2spINS_8hardware20hidl_death_recipientEEEm"
    },
    {
     "mangled_component_name" : "_ZN7android4hidl4base4V1_05IBase4pingEv"
    },
    {
     "mangled_component_name" : "_ZN7android4hidl4base4V1_05IBase12getDebugInfoENSt3__18functionIFvRKNS2_9DebugInfoEEEE"
    },
    {
     "mangled_component_name" : "_ZN7android4hidl4base4V1_05IBase21notifySyspropsChangedEv"
    },
    {
     "mangled_component_name" : "_ZN7android4hidl4base4V1_05IBase13unlinkToDeathERKNS_2spINS_8hardware20hidl_death_recipientEEE"
    },
    {
     "kind" : "complete_dtor_pointer",
     "mangled_component_name" : "_ZN7android8hardware11BpInterfaceINS_4hidl4base4V1_05IBaseEED1Ev"
    },
    {
     "kind" : "deleting_dtor_pointer",
     "mangled_component_name" : "_ZN7android8hardware11BpInterfaceINS_4hidl4base4V1_05IBaseEED0Ev"
    },
    {
     "mangled_component_name" : "_ZN7android8hardware11BpInterfaceINS_4hidl4base4V1_05IBaseEE10onAsBinderEv"
    },
    {
     "component_value" : 40,
     "kind" : "vbase_offset"
    },
    {
     "component_value" : -8,
     "kind" : "offset_to_top"
    },
    {
     "kind" : "rtti",
     "mangled_component_name" : "_ZTIN7android8hardware11BpInterfaceINS_4hidl4base4V1_05IBaseEEE"
    },
    {
     "kind" : "complete_dtor_pointer",
     "mangled_component_name" : "_ZThn8_N7android8hardware11BpInterfaceINS_4hidl4base4V1_05IBaseEED1Ev"
    },
    {
     "kind" : "deleting_dtor_pointer",
     "mangled_component_name" : "_ZThn8_N7android8hardware11BpInterfaceINS_4hidl4base4V1_05IBaseEED0Ev"
    },
    {
     "mangled_component_name" : "_ZThn8_N7android8hardware11BpInterfaceINS_4hidl4base4V1_05IBaseEE10onAsBinderEv"
    },
    {
     "component_value" : 32,
     "kind" : "vbase_offset"
    },
    {
     "component_value" : -16,
     "kind" : "offset_to_top"
    },
    {
     "kind" : "rtti",
     "mangled_component_name" : "_ZTIN7android8hardware11BpInterfaceINS_4hidl4base4V1_05IBaseEEE"
    },
    {
     "kind" : "complete_dtor_pointer",
     "mangled_component_name" : "_ZThn16_N7android8hardware11BpInterfaceINS_4hidl4base4V1_05IBaseEED1Ev"
    },
    {
     "kind" : "deleting_dtor_pointer",
     "mangled_component_name" : "_ZThn16_N7android8hardware11BpInterfaceINS_4hidl4base4V1_05IBaseEED0Ev"
    },
    {
     "mangled_component_name" : "_ZN7android8hardware11BpHwRefBase10onFirstRefEv"
    },
    {
     "mangled_component_name" : "_ZN7android8hardware11BpHwRefBase15onLastStrongRefEPKv"
    },
    {
     "mangled_component_name" : "_ZN7android8hardware11BpHwRefBase20onIncStrongAttemptedEjPKv"
    },
    {
     "kind" : "vcall_offset"
    },
    {
     "component_value" : -32,
     "kind" : "vcall_offset"
    },
    {
     "component_value" : -32,
     "kind" : "vcall_offset"
    },
    {
     "component_value" : -32,
     "kind" : "vcall_offset"
    },
    {
     "component_value" : -48,
     "kind" : "vcall_offset"
    },
    {
     "component_value" : -48,
     "kind" : "offset_to_top"
    },
    {
     "kind" : "rtti",
     "mangled_component_name" : "_ZTIN7android8hardware11BpInterfaceINS_4hidl4base4V1_05IBaseEEE"
    },
    {
     "kind" : "complete_dtor_pointer",
     "mangled_component_name" : "_ZTv0_n24_N7android8hardware11BpInterfaceINS_4hidl4base4V1_05IBaseEED1Ev"
    },
    {
     "kind" : "deleting_dtor_pointer",
     "mangled_component_name" : "_ZTv0_n24_N7android8hardware11BpInterfaceINS_4hidl4base4V1_05IBaseEED0Ev"
    },
    {
     "mangled_component_name" : "_ZTv0_n32_N7android8hardware11BpHwRefBase10onFirstRefEv"
    },
    {
     "mangled_component_name" : "_ZTv0_n40_N7android8hardware11BpHwRefBase15onLastStrongRefEPKv"
    },
    {
     "mangled_component_name" : "_ZTv0_n48_N7android8hardware11BpHwRefBase20onIncStrongAttemptedEjPKv"
    },
    {
     "mangled_component_name" : "_ZN7android7RefBase13onLastWeakRefEPKv"
    }
   ]
  },
  {
   "alignment" : 8,
   "fields" :
   [
    {
     "access" : "private",
     "field_name" : "mMutex",
     "referenced_type" : "type-401"
    },
    {
     "access" : "private",
     "field_name" : "mMap",
     "field_offset" : 320,
     "referenced_type" : "type-402"
    }
   ],
   "linker_set_key" : "android::hardware::ConcurrentMap<android::wp<android::hidl::base::V1_0::IBase>, android::hardware::details::SchedPrio>",
   "name" : "android::hardware::ConcurrentMap<android::wp<android::hidl::base::V1_0::IBase>, android::hardware::details::SchedPrio>",
   "record_kind" : "class",
   "referenced_type" : "type-400",
   "self_type" : "type-400",
   "size" : 64,
   "source_file" : "/system/libhidl/transport/include/hidl/ConcurrentMap.h",
   "template_args" : [ "type-106", "type-403" ],
   "unique_id" : "_ZTSN7android8hardware13ConcurrentMapINS_2wpINS_4hidl4base4V1_05IBaseEEENS0_7details9SchedPrioEEE"
  },
  {
   "alignment" : 8,
   "fields" :
   [
    {
     "access" : "private",
     "field_name" : "mMutex",
     "referenced_type" : "type-409"
    },
    {
     "access" : "private",
     "field_name" : "mMap",
     "field_offset" : 320,
     "referenced_type" : "type-410"
    }
   ],
   "linker_set_key" : "android::hardware::ConcurrentMap<android::wp<android::hidl::base::V1_0::IBase>, bool>",
   "name" : "android::hardware::ConcurrentMap<android::wp<android::hidl::base::V1_0::IBase>, bool>",
   "record_kind" : "class",
   "referenced_type" : "type-408",
   "self_type" : "type-408",
   "size" : 64,
   "source_file" : "/system/libhidl/transport/include/hidl/ConcurrentMap.h",
   "template_args" : [ "type-106", "type-36" ],
   "unique_id" : "_ZTSN7android8hardware13ConcurrentMapINS_2wpINS_4hidl4base4V1_05IBaseEEEbEE"
  },
  {
   "alignment" : 8,
   "fields" :
   [
    {
     "access" : "private",
     "field_name" : "mMutex",
     "referenced_type" : "type-416"
    },
    {
     "access" : "private",
     "field_name" : "mMap",
     "field_offset" : 320,
     "referenced_type" : "type-417"
    }
   ],
   "linker_set_key" : "android::hardware::ConcurrentMap<const android::hidl::base::V1_0::IBase *, android::wp<android::hardware::BHwBinder> >",
   "name" : "android::hardware::ConcurrentMap<const android::hidl::base::V1_0::IBase *, android::wp<android::hardware::BHwBinder> >",
   "record_kind" : "class",
   "referenced_type" : "type-415",
   "self_type" : "type-415",
   "size" : 64,
   "source_file" : "/system/libhidl/transport/include/hidl/ConcurrentMap.h",
   "template_args" : [ "type-418", "type-420" ],
   "unique_id" : "_ZTSN7android8hardware13ConcurrentMapIPKNS_4hidl4base4V1_05IBaseENS_2wpINS0_9BHwBinderEEEEE"
  },
  {
   "alignment" : 8,
   "fields" :
   [
    {
     "access" : "private",
     "field_name" : "mMutex",
     "referenced_type" : "type-436"
    },
    {
     "access" : "private",
     "field_name" : "mMap",
     "field_offset" : 320,
     "referenced_type" : "type-437"
    }
   ],
   "linker_set_key" : "android::hardware::ConcurrentMap<std::basic_string<char, std::char_traits<char>, std::allocator<char> >, std::function<sp<IBase> (void *)> >",
   "name" : "android::hardware::ConcurrentMap<std::basic_string<char, std::char_traits<char>, std::allocator<char> >, std::function<sp<IBase> (void *)> >",
   "record_kind" : "class",
   "referenced_type" : "type-435",
   "self_type" : "type-435",
   "size" : 64,
   "source_file" : "/system/libhidl/transport/include/hidl/ConcurrentMap.h",
   "template_args" : [ "type-438", "type-439" ],
   "unique_id" : "_ZTSN7android8hardware13ConcurrentMapINSt3__112basic_stringIcNS2_11char_traitsIcEENS2_9allocatorIcEEEENS2_8functionIFNS_2spINS_4hidl4base4V1_05IBaseEEEPvEEEEE"
  },
  {
   "alignment" : 8,
   "fields" :
   [
    {
     "access" : "private",
     "field_name" : "mMutex",
     "referenced_type" : "type-425"
    },
    {
     "access" : "private",
     "field_name" : "mMap",
     "field_offset" : 320,
     "referenced_type" : "type-426"
    }
   ],
   "linker_set_key" : "android::hardware::ConcurrentMap<std::basic_string<char, std::char_traits<char>, std::allocator<char> >, std::function<sp<IBinder> (void *)> >",
   "name" : "android::hardware::ConcurrentMap<std::basic_string<char, std::char_traits<char>, std::allocator<char> >, std::function<sp<IBinder> (void *)> >",
   "record_kind" : "class",
   "referenced_type" : "type-424",
   "self_type" : "type-424",
   "size" : 64,
   "source_file" : "/system/libhidl/transport/include/hidl/ConcurrentMap.h",
   "template_args" : [ "type-427", "type-428" ],
   "unique_id" : "_ZTSN7android8hardware13ConcurrentMapINSt3__112basic_stringIcNS2_11char_traitsIcEENS2_9allocatorIcEEEENS2_8functionIFNS_2spINS0_7IBinderEEEPvEEEEE"
  },
  {
   "alignment" : 8,
   "fields" :
   [
    {
     "field_name" : "flags",
     "referenced_type" : "type-2"
    },
    {
     "field_name" : "fdIndex",
     "field_offset" : 32,
     "referenced_type" : "type-2"
    },
    {
     "field_name" : "offset",
     "field_offset" : 64,
     "referenced_type" : "type-2"
    },
    {
     "field_name" : "extent",
     "field_offset" : 128,
     "referenced_type" : "type-25"
    }
   ],
   "linker_set_key" : "android::hardware::GrantorDescriptor",
   "name" : "android::hardware::GrantorDescriptor",
   "referenced_type" : "type-285",
   "self_type" : "type-285",
   "size" : 24,
   "source_file" : "/system/libhidl/base/include/hidl/MQDescriptor.h",
   "unique_id" : "_ZTSN7android8hardware17GrantorDescriptorE"
  },
  {
   "alignment" : 8,
   "base_specifiers" :
   [
    {
     "is_virtual" : true,
     "referenced_type" : "type-269"
    },
    {
     "is_virtual" : true,
     "referenced_type" : "type-5"
    }
   ],
   "linker_set_key" : "android::hardware::HidlMemory",
   "name" : "android::hardware::HidlMemory",
   "record_kind" : "class",
   "referenced_type" : "type-277",
   "self_type" : "type-277",
   "size" : 64,
   "source_file" : "/system/libhidl/base/include/hidl/HidlSupport.h",
   "unique_id" : "_ZTSN7android8hardware10HidlMemoryE",
   "vtable_components" :
   [
    {
     "component_value" : 48,
     "kind" : "vbase_offset"
    },
    {
     "component_value" : 8,
     "kind" : "vbase_offset"
    },
    {
     "kind" : "offset_to_top"
    },
    {
     "kind" : "rtti",
     "mangled_component_name" : "_ZTIN7android8hardware10HidlMemoryE"
    },
    {
     "kind" : "complete_dtor_pointer",
     "mangled_component_name" : "_ZN7android8hardware10HidlMemoryD1Ev"
    },
    {
     "kind" : "deleting_dtor_pointer",
     "mangled_component_name" : "_ZN7android8hardware10HidlMemoryD0Ev"
    },
    {
     "kind" : "vcall_offset"
    },
    {
     "kind" : "vcall_offset"
    },
    {
     "kind" : "vcall_offset"
    },
    {
     "kind" : "vcall_offset"
    },
    {
     "component_value" : -48,
     "kind" : "vcall_offset"
    },
    {
     "component_value" : -48,
     "kind" : "offset_to_top"
    },
    {
     "kind" : "rtti",
     "mangled_component_name" : "_ZTIN7android8hardware10HidlMemoryE"
    },
    {
     "kind" : "complete_dtor_pointer",
     "mangled_component_name" : "_ZTv0_n24_N7android8hardware10HidlMemoryD1Ev"
    },
    {
     "kind" : "deleting_dtor_pointer",
     "mangled_component_name" : "_ZTv0_n24_N7android8hardware10HidlMemoryD0Ev"
    },
    {
     "mangled_component_name" : "_ZN7android7RefBase10onFirstRefEv"
    },
    {
     "mangled_component_name" : "_ZN7android7RefBase15onLastStrongRefEPKv"
    },
    {
     "mangled_component_name" : "_ZN7android7RefBase20onIncStrongAttemptedEjPKv"
    },
    {
     "mangled_component_name" : "_ZN7android7RefBase13onLastWeakRefEPKv"
    }
   ]
  },
  {
   "alignment" : 8,
   "base_specifiers" :
   [
    {
     "is_virtual" : true,
     "referenced_type" : "type-5"
    }
   ],
   "linker_set_key" : "android::hardware::IBinder",
   "name" : "android::hardware::IBinder",
   "record_kind" : "class",
   "referenced_type" : "type-13",
   "self_type" : "type-13",
   "size" : 24,
   "source_file" : "/system/libhwbinder/include/hwbinder/IBinder.h",
   "unique_id" : "_ZTSN7android8hardware7IBinderE",
   "vtable_components" :
   [
    {
     "component_value" : 8,
     "kind" : "vbase_offset"
    },
    {
     "kind" : "offset_to_top"
    },
    {
     "kind" : "rtti",
     "mangled_component_name" : "_ZTIN7android8hardware7IBinderE"
    },
    {
     "is_pure" : true,
     "mangled_component_name" : "_ZN7android8hardware7IBinder8transactEjRKNS0_6ParcelEPS2_jNSt3__18functionIFvRS2_EEE"
    },
    {
     "is_pure" : true,
     "mangled_component_name" : "_ZN7android8hardware7IBinder11linkToDeathERKNS_2spINS1_14DeathRecipientEEEPvj"
    },
    {
     "is_pure" : true,
     "mangled_component_name" : "_ZN7android8hardware7IBinder13unlinkToDeathERKNS_2wpINS1_14DeathRecipientEEEPvjPS4_"
    },
    {
     "mangled_component_name" : "_ZNK7android8hardware7IBinder13checkSubclassEPKv"
    },
    {
     "is_pure" : true,
     "mangled_component_name" : "_ZN7android8hardware7IBinder12attachObjectEPKvPvS4_PFvS3_S4_S4_E"
    },
    {
     "is_pure" : true,
     "mangled_component_name" : "_ZNK7android8hardware7IBinder10findObjectEPKv"
    },
    {
     "is_pure" : true,
     "mangled_component_name" : "_ZN7android8hardware7IBinder12detachObjectEPKv"
    },
    {
     "mangled_component_name" : "_ZN7android8hardware7IBinder11localBinderEv"
    },
    {
     "mangled_component_name" : "_ZN7android8hardware7IBinder12remoteBinderEv"
    },
    {
     "kind" : "complete_dtor_pointer",
     "mangled_component_name" : "_ZN7android8hardware7IBinderD1Ev"
    },
    {
     "kind" : "deleting_dtor_pointer",
     "mangled_component_name" : "_ZN7android8hardware7IBinderD0Ev"
    },
    {
     "kind" : "vcall_offset"
    },
    {
     "kind" : "vcall_offset"
    },
    {
     "kind" : "vcall_offset"
    },
    {
     "kind" : "vcall_offset"
    },
    {
     "component_value" : -8,
     "kind" : "vcall_offset"
    },
    {
     "component_value" : -8,
     "kind" : "offset_to_top"
    },
    {
     "kind" : "rtti",
     "mangled_component_name" : "_ZTIN7android8hardware7IBinderE"
    },
    {
     "kind" : "complete_dtor_pointer",
     "mangled_component_name" : "_ZTv0_n24_N7android8hardware7IBinderD1Ev"
    },
    {
     "kind" : "deleting_dtor_pointer",
     "mangled_component_name" : "_ZTv0_n24_N7android8hardware7IBinderD0Ev"
    },
    {
     "mangled_component_name" : "_ZN7android7RefBase10onFirstRefEv"
    },
    {
     "mangled_component_name" : "_ZN7android7RefBase15onLastStrongRefEPKv"
    },
    {
     "mangled_component_name" : "_ZN7android7RefBase20onIncStrongAttemptedEjPKv"
    },
    {
     "mangled_component_name" : "_ZN7android7RefBase13onLastWeakRefEPKv"
    }
   ]
  },
  {
   "alignment" : 8,
   "base_specifiers" :
   [
    {
     "is_virtual" : true,
     "referenced_type" : "type-5"
    }
   ],
   "linker_set_key" : "android::hardware::IBinder::DeathRecipient",
   "name" : "android::hardware::IBinder::DeathRecipient",
   "record_kind" : "class",
   "referenced_type" : "type-107",
   "self_type" : "type-107",
   "size" : 24,
   "source_file" : "/system/libhwbinder/include/hwbinder/IBinder.h",
   "unique_id" : "_ZTSN7android8hardware7IBinder14DeathRecipientE",
   "vtable_components" :
   [
    {
     "component_value" : 8,
     "kind" : "vbase_offset"
    },
    {
     "kind" : "offset_to_top"
    },
    {
     "kind" : "rtti",
     "mangled_component_name" : "_ZTIN7android8hardware7IBinder14DeathRecipientE"
    },
    {
     "is_pure" : true,
     "mangled_component_name" : "_ZN7android8hardware7IBinder14DeathRecipient10binderDiedERKNS_2wpIS1_EE"
    },
    {
     "kind" : "complete_dtor_pointer",
     "mangled_component_name" : "_ZN7android8hardware7IBinder14DeathRecipientD1Ev"
    },
    {
     "kind" : "deleting_dtor_pointer",
     "mangled_component_name" : "_ZN7android8hardware7IBinder14DeathRecipientD0Ev"
    },
    {
     "kind" : "vcall_offset"
    },
    {
     "kind" : "vcall_offset"
    },
    {
     "kind" : "vcall_offset"
    },
    {
     "kind" : "vcall_offset"
    },
    {
     "component_value" : -8,
     "kind" : "vcall_offset"
    },
    {
     "component_value" : -8,
     "kind" : "offset_to_top"
    },
    {
     "kind" : "rtti",
     "mangled_component_name" : "_ZTIN7android8hardware7IBinder14DeathRecipientE"
    },
    {
     "kind" : "complete_dtor_pointer",
     "mangled_component_name" : "_ZTv0_n24_N7android8hardware7IBinder14DeathRecipientD1Ev"
    },
    {
     "kind" : "deleting_dtor_pointer",
     "mangled_component_name" : "_ZTv0_n24_N7android8hardware7IBinder14DeathRecipientD0Ev"
    },
    {
     "mangled_component_name" : "_ZN7android7RefBase10onFirstRefEv"
    },
    {
     "mangled_component_name" : "_ZN7android7RefBase15onLastStrongRefEPKv"
    },
    {
     "mangled_component_name" : "_ZN7android7RefBase20onIncStrongAttemptedEjPKv"
    },
    {
     "mangled_component_name" : "_ZN7android7RefBase13onLastWeakRefEPKv"
    }
   ]
  },
  {
   "alignment" : 8,
   "base_specifiers" :
   [
    {
     "is_virtual" : true,
     "referenced_type" : "type-5"
    }
   ],
   "linker_set_key" : "android::hardware::IInterface",
   "name" : "android::hardware::IInterface",
   "record_kind" : "class",
   "referenced_type" : "type-16",
   "self_type" : "type-16",
   "size" : 24,
   "source_file" : "/system/libhwbinder/include/hwbinder/IInterface.h",
   "unique_id" : "_ZTSN7android8hardware10IInterfaceE",
   "vtable_components" :
   [
    {
     "component_value" : 8,
     "kind" : "vbase_offset"
    },
    {
     "kind" : "offset_to_top"
    },
    {
     "kind" : "rtti",
     "mangled_component_name" : "_ZTIN7android8hardware10IInterfaceE"
    },
    {
     "kind" : "complete_dtor_pointer",
     "mangled_component_name" : "_ZN7android8hardware10IInterfaceD1Ev"
    },
    {
     "kind" : "deleting_dtor_pointer",
     "mangled_component_name" : "_ZN7android8hardware10IInterfaceD0Ev"
    },
    {
     "is_pure" : true,
     "mangled_component_name" : "_ZN7android8hardware10IInterface10onAsBinderEv"
    },
    {
     "kind" : "vcall_offset"
    },
    {
     "kind" : "vcall_offset"
    },
    {
     "kind" : "vcall_offset"
    },
    {
     "kind" : "vcall_offset"
    },
    {
     "component_value" : -8,
     "kind" : "vcall_offset"
    },
    {
     "component_value" : -8,
     "kind" : "offset_to_top"
    },
    {
     "kind" : "rtti",
     "mangled_component_name" : "_ZTIN7android8hardware10IInterfaceE"
    },
    {
     "kind" : "complete_dtor_pointer",
     "mangled_component_name" : "_ZTv0_n24_N7android8hardware10IInterfaceD1Ev"
    },
    {
     "kind" : "deleting_dtor_pointer",
     "mangled_component_name" : "_ZTv0_n24_N7android8hardware10IInterfaceD0Ev"
    },
    {
     "mangled_component_name" : "_ZN7android7RefBase10onFirstRefEv"
    },
    {
     "mangled_component_name" : "_ZN7android7RefBase15onLastStrongRefEPKv"
    },
    {
     "mangled_component_name" : "_ZN7android7RefBase20onIncStrongAttemptedEjPKv"
    },
    {
     "mangled_component_name" : "_ZN7android7RefBase13onLastWeakRefEPKv"
    }
   ]
  },
  {
   "alignment" : 8,
   "fields" :
   [
    {
     "access" : "private",
     "field_name" : "mGrantors",
     "referenced_type" : "type-281"
    },
    {
     "access" : "private",
     "field_name" : "mHandle",
     "field_offset" : 128,
     "referenced_type" : "type-341"
    },
    {
     "access" : "private",
     "field_name" : "mQuantum",
     "field_offset" : 192,
     "referenced_type" : "type-2"
    },
    {
     "access" : "private",
     "field_name" : "mFlags",
     "field_offset" : 224,
     "referenced_type" : "type-2"
    }
   ],
   "linker_set_key" : "android::hardware::MQDescriptor<char, android::hardware::kSynchronizedReadWrite>",
   "name" : "android::hardware::MQDescriptor<char, android::hardware::kSynchronizedReadWrite>",
   "referenced_type" : "type-340",
   "self_type" : "type-340",
   "size" : 32,
   "source_file" : "/system/libhidl/base/include/hidl/MQDescriptor.h",
   "template_args" : [ "type-53" ],
   "unique_id" : "_ZTSN7android8hardware12MQDescriptorIcLNS0_8MQFlavorE1EEE"
  },
  {
   "alignment" : 8,
   "fields" :
   [
    {
     "access" : "private",
     "field_name" : "mBufCachePos",
     "referenced_type" : "type-25"
    },
    {
     "access" : "private",
     "field_name" : "mBufCache",
     "field_offset" : 64,
     "referenced_type" : "type-375"
    },
    {
     "access" : "private",
     "field_name" : "mError",
     "field_offset" : 256,
     "referenced_type" : "type-20"
    },
    {
     "access" : "private",
     "field_name" : "mData",
     "field_offset" : 320,
     "referenced_type" : "type-376"
    },
    {
     "access" : "private",
     "field_name" : "mDataSize",
     "field_offset" : 384,
     "referenced_type" : "type-25"
    },
    {
     "access" : "private",
     "field_name" : "mDataCapacity",
     "field_offset" : 448,
     "referenced_type" : "type-25"
    },
    {
     "access" : "private",
     "field_name" : "mDataPos",
     "field_offset" : 512,
     "referenced_type" : "type-25"
    },
    {
     "access" : "private",
     "field_name" : "mObjects",
     "field_offset" : 576,
     "referenced_type" : "type-377"
    },
    {
     "access" : "private",
     "field_name" : "mObjectsSize",
     "field_offset" : 640,
     "referenced_type" : "type-25"
    },
    {
     "access" : "private",
     "field_name" : "mObjectsCapacity",
     "field_offset" : 704,
     "referenced_type" : "type-25"
    },
    {
     "access" : "private",
     "field_name" : "mNextObjectHint",
     "field_offset" : 768,
     "referenced_type" : "type-25"
    },
    {
     "access" : "private",
     "field_name" : "mNumRef",
     "field_offset" : 832,
     "referenced_type" : "type-25"
    },
    {
     "access" : "private",
     "field_name" : "mFdsKnown",
     "field_offset" : 896,
     "referenced_type" : "type-36"
    },
    {
     "access" : "private",
     "field_name" : "mHasFds",
     "field_offset" : 904,
     "referenced_type" : "type-36"
    },
    {
     "access" : "private",
     "field_name" : "mAllowFds",
     "field_offset" : 912,
     "referenced_type" : "type-36"
    },
    {
     "access" : "private",
     "field_name" : "mOwner",
     "field_offset" : 960,
     "referenced_type" : "type-378"
    },
    {
     "access" : "private",
     "field_name" : "mOwnerCookie",
     "field_offset" : 1024,
     "referenced_type" : "type-21"
    }
   ],
   "linker_set_key" : "android::hardware::Parcel",
   "name" : "android::hardware::Parcel",
   "record_kind" : "class",
   "referenced_type" : "type-374",
   "self_type" : "type-374",
   "size" : 136,
   "source_file" : "/system/libhwbinder/include/hwbinder/Parcel.h",
   "unique_id" : "_ZTSN7android8hardware6ParcelE"
  },
  {
   "access" : "private",
   "alignment" : 8,
   "fields" :
   [
    {
     "field_name" : "index",
     "referenced_type" : "type-25"
    },
    {
     "field_name" : "buffer",
     "field_offset" : 64,
     "referenced_type" : "type-216"
    },
    {
     "field_name" : "bufend",
     "field_offset" : 128,
     "referenced_type" : "type-216"
    }
   ],
   "linker_set_key" : "android::hardware::Parcel::BufferInfo",
   "name" : "android::hardware::Parcel::BufferInfo",
   "referenced_type" : "type-384",
   "self_type" : "type-384",
   "size" : 24,
   "source_file" : "/system/libhwbinder/include/hwbinder/Parcel.h",
   "unique_id" : "_ZTSN7android8hardware6Parcel10BufferInfoE"
  },
  {
   "alignment" : 8,
   "base_specifiers" :
   [
    {
     "is_virtual" : true,
     "referenced_type" : "type-5"
    }
   ],
   "fields" :
   [
    {
     "access" : "private",
     "field_name" : "mDriverFD",
     "field_offset" : 64,
     "referenced_type" : "type-20"
    },
    {
     "access" : "private",
     "field_name" : "mVMStart",
     "field_offset" : 128,
     "referenced_type" : "type-21"
    },
    {
     "access" : "private",
     "field_name" : "mThreadCountLock",
     "field_offset" : 192,
     "referenced_type" : "type-23"
    },
    {
     "access" : "private",
     "field_name" : "mThreadCountDecrement",
     "field_offset" : 512,
     "referenced_type" : "type-24"
    },
    {
     "access" : "private",
     "field_name" : "mExecutingThreadsCount",
     "field_offset" : 896,
     "referenced_type" : "type-25"
    },
    {
     "access" : "private",
     "field_name" : "mMaxThreads",
     "field_offset" : 960,
     "referenced_type" : "type-25"
    },
    {
     "access" : "private",
     "field_name" : "mStarvationStartTimeMs",
     "field_offset" : 1024,
     "referenced_type" : "type-26"
    },
    {
     "access" : "private",
     "field_name" : "mLock",
     "field_offset" : 1088,
     "referenced_type" : "type-27"
    },
    {
     "access" : "private",
     "field_name" : "mHandleToObject",
     "field_offset" : 1408,
     "referenced_type" : "type-29"
    },
    {
     "access" : "private",
     "field_name" : "mManagesContexts",
     "field_offset" : 1728,
     "referenced_type" : "type-36"
    },
    {
     "access" : "private",
     "field_name" : "mBinderContextCheckFunc",
     "field_offset" : 1792,
     "referenced_type" : "type-37"
    },
    {
     "access" : "private",
     "field_name" : "mBinderContextUserData",
     "field_offset" : 1856,
     "referenced_type" : "type-21"
    },
    {
     "access" : "private",
     "field_name" : "mContexts",
     "field_offset" : 1920,
     "referenced_type" : "type-46"
    },
    {
     "access" : "private",
     "field_name" : "mRootDir",
     "field_offset" : 2240,
     "referenced_type" : "type-50"
    },
    {
     "access" : "private",
     "field_name" : "mThreadPoolStarted",
     "field_offset" : 2304,
     "referenced_type" : "type-36"
    },
    {
     "access" : "private",
     "field_name" : "mSpawnThreadOnStart",
     "field_offset" : 2312,
     "referenced_type" : "type-36"
    },
    {
     "access" : "private",
     "field_name" : "mThreadPoolSeq",
     "field_offset" : 2336,
     "referenced_type" : "type-54"
    },
    {
     "access" : "private",
     "field_name" : "mMmapSize",
     "field_offset" : 2368,
     "referenced_type" : "type-32"
    },
    {
     "access" : "private",
     "field_name" : "mCallRestriction",
     "field_offset" : 2432,
     "referenced_type" : "type-55"
    }
   ],
   "linker_set_key" : "android::hardware::ProcessState",
   "name" : "android::hardware::ProcessState",
   "record_kind" : "class",
   "referenced_type" : "type-19",
   "self_type" : "type-19",
   "size" : 328,
   "source_file" : "/system/libhwbinder/include/hwbinder/ProcessState.h",
   "unique_id" : "_ZTSN7android8hardware12ProcessStateE",
   "vtable_components" :
   [
    {
     "component_value" : 312,
     "kind" : "vbase_offset"
    },
    {
     "kind" : "offset_to_top"
    },
    {
     "kind" : "rtti",
     "mangled_component_name" : "_ZTIN7android8hardware12ProcessStateE"
    },
    {
     "kind" : "complete_dtor_pointer",
     "mangled_component_name" : "_ZN7android8hardware12ProcessStateD1Ev"
    },
    {
     "kind" : "deleting_dtor_pointer",
     "mangled_component_name" : "_ZN7android8hardware12ProcessStateD0Ev"
    },
    {
     "kind" : "vcall_offset"
    },
    {
     "kind" : "vcall_offset"
    },
    {
     "kind" : "vcall_offset"
    },
    {
     "kind" : "vcall_offset"
    },
    {
     "component_value" : -312,
     "kind" : "vcall_offset"
    },
    {
     "component_value" : -312,
     "kind" : "offset_to_top"
    },
    {
     "kind" : "rtti",
     "mangled_component_name" : "_ZTIN7android8hardware12ProcessStateE"
    },
    {
     "kind" : "complete_dtor_pointer",
     "mangled_component_name" : "_ZTv0_n24_N7android8hardware12ProcessStateD1Ev"
    },
    {
     "kind" : "deleting_dtor_pointer",
     "mangled_component_name" : "_ZTv0_n24_N7android8hardware12ProcessStateD0Ev"
    },
    {
     "mangled_component_name" : "_ZN7android7RefBase10onFirstRefEv"
    },
    {
     "mangled_component_name" : "_ZN7android7RefBase15onLastStrongRefEPKv"
    },
    {
     "mangled_component_name" : "_ZN7android7RefBase20onIncStrongAttemptedEjPKv"
    },
    {
     "mangled_component_name" : "_ZN7android7RefBase13onLastWeakRefEPKv"
    }
   ]
  },
  {
   "access" : "private",
   "alignment" : 8,
   "fields" :
   [
    {
     "field_name" : "binder",
     "referenced_type" : "type-12"
    },
    {
     "field_name" : "refs",
     "field_offset" : 64,
     "referenced_type" : "type-34"
    }
   ],
   "linker_set_key" : "android::hardware::ProcessState::handle_entry",
   "name" : "android::hardware::ProcessState::handle_entry",
   "referenced_type" : "type-33",
   "self_type" : "type-33",
   "size" : 16,
   "source_file" : "/system/libhwbinder/include/hwbinder/ProcessState.h",
   "unique_id" : "_ZTSN7android8hardware12ProcessState12handle_entryE"
  },
  {
   "alignment" : 8,
   "base_specifiers" :
   [
    {
     "referenced_type" : "type-128"
    }
   ],
   "fields" :
   [
    {
     "access" : "private",
     "field_name" : "mVal",
     "field_offset" : 320,
     "referenced_type" : "type-92"
    }
   ],
   "linker_set_key" : "android::hardware::Return<android::sp<android::frameworks::stats::V1_0::IStats> >",
   "name" : "android::hardware::Return<android::sp<android::frameworks::stats::V1_0::IStats> >",
   "record_kind" : "class",
   "referenced_type" : "type-134",
   "self_type" : "type-134",
   "size" : 48,
   "source_file" : "/system/libhidl/base/include/hidl/Status.h",
   "template_args" : [ "type-92" ],
   "unique_id" : "_ZTSN7android8hardware6ReturnINS_2spINS_10frameworks5stats4V1_06IStatsEEEEE"
  },
  {
   "alignment" : 8,
   "base_specifiers" :
   [
    {
     "referenced_type" : "type-128"
    }
   ],
   "fields" :
   [
    {
     "access" : "private",
     "field_name" : "mVal",
     "field_offset" : 264,
     "referenced_type" : "type-36"
    }
   ],
   "linker_set_key" : "android::hardware::Return<bool>",
   "name" : "android::hardware::Return<bool>",
   "record_kind" : "class",
   "referenced_type" : "type-127",
   "self_type" : "type-127",
   "size" : 40,
   "source_file" : "/system/libhidl/base/include/hidl/Status.h",
   "template_args" : [ "type-36" ],
   "unique_id" : "_ZTSN7android8hardware6ReturnIbEE"
  },
  {
   "alignment" : 8,
   "base_specifiers" :
   [
    {
     "referenced_type" : "type-128"
    }
   ],
   "linker_set_key" : "android::hardware::Return<void>",
   "name" : "android::hardware::Return<void>",
   "record_kind" : "class",
   "referenced_type" : "type-147",
   "self_type" : "type-147",
   "size" : 40,
   "source_file" : "/system/libhidl/base/include/hidl/Status.h",
   "template_args" : [ "type-22" ],
   "unique_id" : "_ZTSN7android8hardware6ReturnIvEE"
  },
  {
   "alignment" : 8,
   "fields" :
   [
    {
     "access" : "private",
     "field_name" : "mException",
     "referenced_type" : "type-20"
    },
    {
     "access" : "private",
     "field_name" : "mErrorCode",
     "field_offset" : 32,
     "referenced_type" : "type-20"
    },
    {
     "access" : "private",
     "field_name" : "mMessage",
     "field_offset" : 64,
     "referenced_type" : "type-118"
    }
   ],
   "linker_set_key" : "android::hardware::Status",
   "name" : "android::hardware::Status",
   "record_kind" : "class",
   "referenced_type" : "type-117",
   "self_type" : "type-117",
   "size" : 32,
   "source_file" : "/system/libhidl/base/include/hidl/Status.h",
   "unique_id" : "_ZTSN7android8hardware6StatusE"
  },
  {
   "alignment" : 8,
   "fields" :
   [
    {
     "access" : "protected",
     "field_name" : "mInstrumentationCallbacks",
     "field_offset" : 64,
     "referenced_type" : "type-393"
    },
    {
     "access" : "protected",
     "field_name" : "mEnableInstrumentation",
     "field_offset" : 256,
     "referenced_type" : "type-36"
    },
    {
     "access" : "protected",
     "field_name" : "mInstrumentationLibPackage",
     "field_offset" : 320,
     "referenced_type" : "type-394"
    },
    {
     "access" : "protected",
     "field_name" : "mInterfaceName",
     "field_offset" : 512,
     "referenced_type" : "type-395"
    }
   ],
   "linker_set_key" : "android::hardware::details::HidlInstrumentor",
   "name" : "android::hardware::details::HidlInstrumentor",
   "referenced_type" : "type-392",
   "self_type" : "type-392",
   "size" : 88,
   "source_file" : "/system/libhidl/base/include/hidl/HidlInternal.h",
   "unique_id" : "_ZTSN7android8hardware7details16HidlInstrumentorE",
   "vtable_components" :
   [
    {
     "kind" : "offset_to_top"
    },
    {
     "kind" : "rtti",
     "mangled_component_name" : "_ZTIN7android8hardware7details16HidlInstrumentorE"
    },
    {
     "kind" : "complete_dtor_pointer",
     "mangled_component_name" : "_ZN7android8hardware7details16HidlInstrumentorD1Ev"
    },
    {
     "kind" : "deleting_dtor_pointer",
     "mangled_component_name" : "_ZN7android8hardware7details16HidlInstrumentorD0Ev"
    }
   ]
  },
  {
   "alignment" : 4,
   "fields" :
   [
    {
     "field_name" : "sched_policy",
     "referenced_type" : "type-20"
    },
    {
     "field_name" : "prio",
     "field_offset" : 32,
     "referenced_type" : "type-20"
    }
   ],
   "linker_set_key" : "android::hardware::details::SchedPrio",
   "name" : "android::hardware::details::SchedPrio",
   "referenced_type" : "type-403",
   "self_type" : "type-403",
   "size" : 8,
   "source_file" : "/system/libhidl/transport/include/hidl/Static.h",
   "unique_id" : "_ZTSN7android8hardware7details9SchedPrioE"
  },
  {
   "alignment" : 8,
   "fields" :
   [
    {
     "access" : "private",
     "field_name" : "mQueue",
     "referenced_type" : "type-618"
    }
   ],
   "linker_set_key" : "android::hardware::details::TaskRunner",
   "name" : "android::hardware::details::TaskRunner",
   "record_kind" : "class",
   "referenced_type" : "type-617",
   "self_type" : "type-617",
   "size" : 16,
   "source_file" : "/system/libhidl/base/include/hidl/TaskRunner.h",
   "unique_id" : "_ZTSN7android8hardware7details10TaskRunnerE"
  },
  {
   "alignment" : 1,
   "linker_set_key" : "android::hardware::details::bnhw_tag",
   "name" : "android::hardware::details::bnhw_tag",
   "referenced_type" : "type-218",
   "self_type" : "type-218",
   "size" : 1,
   "source_file" : "/system/libhidl/base/include/hidl/HidlInternal.h",
   "unique_id" : "_ZTSN7android8hardware7details8bnhw_tagE"
  },
  {
   "alignment" : 1,
   "linker_set_key" : "android::hardware::details::bphw_tag",
   "name" : "android::hardware::details::bphw_tag",
   "referenced_type" : "type-229",
   "self_type" : "type-229",
   "size" : 1,
   "source_file" : "/system/libhidl/base/include/hidl/HidlInternal.h",
   "unique_id" : "_ZTSN7android8hardware7details8bphw_tagE"
  },
  {
   "alignment" : 1,
   "linker_set_key" : "android::hardware::details::bs_tag",
   "name" : "android::hardware::details::bs_tag",
   "referenced_type" : "type-240",
   "self_type" : "type-240",
   "size" : 1,
   "source_file" : "/system/libhidl/base/include/hidl/HidlInternal.h",
   "unique_id" : "_ZTSN7android8hardware7details6bs_tagE"
  },
  {
   "access" : "private",
   "alignment" : 8,
   "fields" :
   [
    {
     "field_name" : "mPointer",
     "referenced_type" : "type-284"
    },
    {
     "field_name" : "_pad",
     "referenced_type" : "type-25"
    }
   ],
   "is_anonymous" : true,
   "linker_set_key" : "android::hardware::details::hidl_pointer<GrantorDescriptor>::(anonymous union at system/libhidl/base/include/hidl/HidlInternal.h:110:5) at system/libhidl/base/include/hidl/HidlInternal.h:110:5",
   "name" : "android::hardware::details::hidl_pointer<GrantorDescriptor>::(anonymous union at system/libhidl/base/include/hidl/HidlInternal.h:110:5) at system/libhidl/base/include/hidl/HidlInternal.h:110:5",
   "record_kind" : "union",
   "referenced_type" : "type-283",
   "self_type" : "type-283",
   "size" : 8,
   "source_file" : "/system/libhidl/base/include/hidl/HidlInternal.h",
   "unique_id" : "_ZTSN7android8hardware7details12hidl_pointerINS0_17GrantorDescriptorEEUt_E"
  },
  {
   "access" : "private",
   "alignment" : 8,
   "fields" :
   [
    {
     "field_name" : "mPointer",
     "referenced_type" : "type-316"
    },
    {
     "field_name" : "_pad",
     "referenced_type" : "type-25"
    }
   ],
   "is_anonymous" : true,
   "linker_set_key" : "android::hardware::details::hidl_pointer<Value>::(anonymous union at system/libhidl/base/include/hidl/HidlInternal.h:110:5) at system/libhidl/base/include/hidl/HidlInternal.h:110:5",
   "name" : "android::hardware::details::hidl_pointer<Value>::(anonymous union at system/libhidl/base/include/hidl/HidlInternal.h:110:5) at system/libhidl/base/include/hidl/HidlInternal.h:110:5",
   "record_kind" : "union",
   "referenced_type" : "type-315",
   "self_type" : "type-315",
   "size" : 8,
   "source_file" : "/system/libhidl/base/include/hidl/HidlInternal.h",
   "unique_id" : "_ZTSN7android8hardware7details12hidl_pointerINS_10frameworks5stats4V1_010VendorAtom5ValueEEUt_E"
  },
  {
   "alignment" : 8,
   "fields" :
   [
    {
     "access" : "private",
     "referenced_type" : "type-315"
    }
   ],
   "linker_set_key" : "android::hardware::details::hidl_pointer<android::frameworks::stats::V1_0::VendorAtom::Value>",
   "name" : "android::hardware::details::hidl_pointer<android::frameworks::stats::V1_0::VendorAtom::Value>",
   "referenced_type" : "type-314",
   "self_type" : "type-314",
   "size" : 8,
   "source_file" : "/system/libhidl/base/include/hidl/HidlInternal.h",
   "template_args" : [ "type-317" ],
   "unique_id" : "_ZTSN7android8hardware7details12hidl_pointerINS_10frameworks5stats4V1_010VendorAtom5ValueEEE"
  },
  {
   "alignment" : 8,
   "fields" :
   [
    {
     "access" : "private",
     "referenced_type" : "type-283"
    }
   ],
   "linker_set_key" : "android::hardware::details::hidl_pointer<android::hardware::GrantorDescriptor>",
   "name" : "android::hardware::details::hidl_pointer<android::hardware::GrantorDescriptor>",
   "referenced_type" : "type-282",
   "self_type" : "type-282",
   "size" : 8,
   "source_file" : "/system/libhidl/base/include/hidl/HidlInternal.h",
   "template_args" : [ "type-285" ],
   "unique_id" : "_ZTSN7android8hardware7details12hidl_pointerINS0_17GrantorDescriptorEEE"
  },
  {
   "alignment" : 8,
   "fields" :
   [
    {
     "access" : "private",
     "referenced_type" : "type-296"
    }
   ],
   "linker_set_key" : "android::hardware::details::hidl_pointer<android::hardware::hidl_array<unsigned char, 32> >",
   "name" : "android::hardware::details::hidl_pointer<android::hardware::hidl_array<unsigned char, 32> >",
   "referenced_type" : "type-295",
   "self_type" : "type-295",
   "size" : 8,
   "source_file" : "/system/libhidl/base/include/hidl/HidlInternal.h",
   "template_args" : [ "type-298" ],
   "unique_id" : "_ZTSN7android8hardware7details12hidl_pointerINS0_10hidl_arrayIhLm32EJEEEEE"
  },
  {
   "alignment" : 8,
   "fields" :
   [
    {
     "access" : "private",
     "referenced_type" : "type-288"
    }
   ],
   "linker_set_key" : "android::hardware::details::hidl_pointer<android::hardware::hidl_string>",
   "name" : "android::hardware::details::hidl_pointer<android::hardware::hidl_string>",
   "referenced_type" : "type-287",
   "self_type" : "type-287",
   "size" : 8,
   "source_file" : "/system/libhidl/base/include/hidl/HidlInternal.h",
   "template_args" : [ "type-265" ],
   "unique_id" : "_ZTSN7android8hardware7details12hidl_pointerINS0_11hidl_stringEEE"
  },
  {
   "alignment" : 8,
   "fields" :
   [
    {
     "access" : "private",
     "referenced_type" : "type-327"
    }
   ],
   "linker_set_key" : "android::hardware::details::hidl_pointer<char>",
   "name" : "android::hardware::details::hidl_pointer<char>",
   "referenced_type" : "type-326",
   "self_type" : "type-326",
   "size" : 8,
   "source_file" : "/system/libhidl/base/include/hidl/HidlInternal.h",
   "template_args" : [ "type-53" ],
   "unique_id" : "_ZTSN7android8hardware7details12hidl_pointerIcEE"
  },
  {
   "access" : "private",
   "alignment" : 8,
   "fields" :
   [
    {
     "field_name" : "mPointer",
     "referenced_type" : "type-161"
    },
    {
     "field_name" : "_pad",
     "referenced_type" : "type-25"
    }
   ],
   "is_anonymous" : true,
   "linker_set_key" : "android::hardware::details::hidl_pointer<char>::(anonymous union at system/libhidl/base/include/hidl/HidlInternal.h:110:5) at system/libhidl/base/include/hidl/HidlInternal.h:110:5",
   "name" : "android::hardware::details::hidl_pointer<char>::(anonymous union at system/libhidl/base/include/hidl/HidlInternal.h:110:5) at system/libhidl/base/include/hidl/HidlInternal.h:110:5",
   "record_kind" : "union",
   "referenced_type" : "type-327",
   "self_type" : "type-327",
   "size" : 8,
   "source_file" : "/system/libhidl/base/include/hidl/HidlInternal.h",
   "unique_id" : "_ZTSN7android8hardware7details12hidl_pointerIcEUt_E"
  },
  {
   "alignment" : 8,
   "fields" :
   [
    {
     "access" : "private",
     "referenced_type" : "type-267"
    }
   ],
   "linker_set_key" : "android::hardware::details::hidl_pointer<const char>",
   "name" : "android::hardware::details::hidl_pointer<const char>",
   "referenced_type" : "type-266",
   "self_type" : "type-266",
   "size" : 8,
   "source_file" : "/system/libhidl/base/include/hidl/HidlInternal.h",
   "template_args" : [ "type-52" ],
   "unique_id" : "_ZTSN7android8hardware7details12hidl_pointerIKcEE"
  },
  {
   "access" : "private",
   "alignment" : 8,
   "fields" :
   [
    {
     "field_name" : "mPointer",
     "referenced_type" : "type-51"
    },
    {
     "field_name" : "_pad",
     "referenced_type" : "type-25"
    }
   ],
   "is_anonymous" : true,
   "linker_set_key" : "android::hardware::details::hidl_pointer<const char>::(anonymous union at system/libhidl/base/include/hidl/HidlInternal.h:110:5) at system/libhidl/base/include/hidl/HidlInternal.h:110:5",
   "name" : "android::hardware::details::hidl_pointer<const char>::(anonymous union at system/libhidl/base/include/hidl/HidlInternal.h:110:5) at system/libhidl/base/include/hidl/HidlInternal.h:110:5",
   "record_kind" : "union",
   "referenced_type" : "type-267",
   "self_type" : "type-267",
   "size" : 8,
   "source_file" : "/system/libhidl/base/include/hidl/HidlInternal.h",
   "unique_id" : "_ZTSN7android8hardware7details12hidl_pointerIKcEUt_E"
  },
  {
   "alignment" : 8,
   "fields" :
   [
    {
     "access" : "private",
     "referenced_type" : "type-250"
    }
   ],
   "linker_set_key" : "android::hardware::details::hidl_pointer<const native_handle>",
   "name" : "android::hardware::details::hidl_pointer<const native_handle>",
   "referenced_type" : "type-249",
   "self_type" : "type-249",
   "size" : 8,
   "source_file" : "/system/libhidl/base/include/hidl/HidlInternal.h",
   "template_args" : [ "type-252" ],
   "unique_id" : "_ZTSN7android8hardware7details12hidl_pointerIK13native_handleEE"
  },
  {
   "access" : "private",
   "alignment" : 8,
   "fields" :
   [
    {
     "field_name" : "mPointer",
     "referenced_type" : "type-251"
    },
    {
     "field_name" : "_pad",
     "referenced_type" : "type-25"
    }
   ],
   "is_anonymous" : true,
   "linker_set_key" : "android::hardware::details::hidl_pointer<const native_handle>::(anonymous union at system/libhidl/base/include/hidl/HidlInternal.h:110:5) at system/libhidl/base/include/hidl/HidlInternal.h:110:5",
   "name" : "android::hardware::details::hidl_pointer<const native_handle>::(anonymous union at system/libhidl/base/include/hidl/HidlInternal.h:110:5) at system/libhidl/base/include/hidl/HidlInternal.h:110:5",
   "record_kind" : "union",
   "referenced_type" : "type-250",
   "self_type" : "type-250",
   "size" : 8,
   "source_file" : "/system/libhidl/base/include/hidl/HidlInternal.h",
   "unique_id" : "_ZTSN7android8hardware7details12hidl_pointerIK13native_handleEUt_E"
  },
  {
   "access" : "private",
   "alignment" : 8,
   "fields" :
   [
    {
     "field_name" : "mPointer",
     "referenced_type" : "type-297"
    },
    {
     "field_name" : "_pad",
     "referenced_type" : "type-25"
    }
   ],
   "is_anonymous" : true,
   "linker_set_key" : "android::hardware::details::hidl_pointer<hidl_array<unsigned char, 32> >::(anonymous union at system/libhidl/base/include/hidl/HidlInternal.h:110:5) at system/libhidl/base/include/hidl/HidlInternal.h:110:5",
   "name" : "android::hardware::details::hidl_pointer<hidl_array<unsigned char, 32> >::(anonymous union at system/libhidl/base/include/hidl/HidlInternal.h:110:5) at system/libhidl/base/include/hidl/HidlInternal.h:110:5",
   "record_kind" : "union",
   "referenced_type" : "type-296",
   "self_type" : "type-296",
   "size" : 8,
   "source_file" : "/system/libhidl/base/include/hidl/HidlInternal.h",
   "unique_id" : "_ZTSN7android8hardware7details12hidl_pointerINS0_10hidl_arrayIhLm32EJEEEEUt_E"
  },
  {
   "access" : "private",
   "alignment" : 8,
   "fields" :
   [
    {
     "field_name" : "mPointer",
     "referenced_type" : "type-289"
    },
    {
     "field_name" : "_pad",
     "referenced_type" : "type-25"
    }
   ],
   "is_anonymous" : true,
   "linker_set_key" : "android::hardware::details::hidl_pointer<hidl_string>::(anonymous union at system/libhidl/base/include/hidl/HidlInternal.h:110:5) at system/libhidl/base/include/hidl/HidlInternal.h:110:5",
   "name" : "android::hardware::details::hidl_pointer<hidl_string>::(anonymous union at system/libhidl/base/include/hidl/HidlInternal.h:110:5) at system/libhidl/base/include/hidl/HidlInternal.h:110:5",
   "record_kind" : "union",
   "referenced_type" : "type-288",
   "self_type" : "type-288",
   "size" : 8,
   "source_file" : "/system/libhidl/base/include/hidl/HidlInternal.h",
   "unique_id" : "_ZTSN7android8hardware7details12hidl_pointerINS0_11hidl_stringEEUt_E"
  },
  {
   "alignment" : 8,
   "fields" :
   [
    {
     "access" : "private",
     "referenced_type" : "type-306"
    }
   ],
   "linker_set_key" : "android::hardware::details::hidl_pointer<int>",
   "name" : "android::hardware::details::hidl_pointer<int>",
   "referenced_type" : "type-305",
   "self_type" : "type-305",
   "size" : 8,
   "source_file" : "/system/libhidl/base/include/hidl/HidlInternal.h",
   "template_args" : [ "type-20" ],
   "unique_id" : "_ZTSN7android8hardware7details12hidl_pointerIiEE"
  },
  {
   "access" : "private",
   "alignment" : 8,
   "fields" :
   [
    {
     "field_name" : "mPointer",
     "referenced_type" : "type-307"
    },
    {
     "field_name" : "_pad",
     "referenced_type" : "type-25"
    }
   ],
   "is_anonymous" : true,
   "linker_set_key" : "android::hardware::details::hidl_pointer<int>::(anonymous union at system/libhidl/base/include/hidl/HidlInternal.h:110:5) at system/libhidl/base/include/hidl/HidlInternal.h:110:5",
   "name" : "android::hardware::details::hidl_pointer<int>::(anonymous union at system/libhidl/base/include/hidl/HidlInternal.h:110:5) at system/libhidl/base/include/hidl/HidlInternal.h:110:5",
   "record_kind" : "union",
   "referenced_type" : "type-306",
   "self_type" : "type-306",
   "size" : 8,
   "source_file" : "/system/libhidl/base/include/hidl/HidlInternal.h",
   "unique_id" : "_ZTSN7android8hardware7details12hidl_pointerIiEUt_E"
  },
  {
   "alignment" : 8,
   "fields" :
   [
    {
     "access" : "private",
     "referenced_type" : "type-342"
    }
   ],
   "linker_set_key" : "android::hardware::details::hidl_pointer<native_handle>",
   "name" : "android::hardware::details::hidl_pointer<native_handle>",
   "referenced_type" : "type-341",
   "self_type" : "type-341",
   "size" : 8,
   "source_file" : "/system/libhidl/base/include/hidl/HidlInternal.h",
   "template_args" : [ "type-158" ],
   "unique_id" : "_ZTSN7android8hardware7details12hidl_pointerI13native_handleEE"
  },
  {
   "access" : "private",
   "alignment" : 8,
   "fields" :
   [
    {
     "field_name" : "mPointer",
     "referenced_type" : "type-157"
    },
    {
     "field_name" : "_pad",
     "referenced_type" : "type-25"
    }
   ],
   "is_anonymous" : true,
   "linker_set_key" : "android::hardware::details::hidl_pointer<native_handle>::(anonymous union at system/libhidl/base/include/hidl/HidlInternal.h:110:5) at system/libhidl/base/include/hidl/HidlInternal.h:110:5",
   "name" : "android::hardware::details::hidl_pointer<native_handle>::(anonymous union at system/libhidl/base/include/hidl/HidlInternal.h:110:5) at system/libhidl/base/include/hidl/HidlInternal.h:110:5",
   "record_kind" : "union",
   "referenced_type" : "type-342",
   "self_type" : "type-342",
   "size" : 8,
   "source_file" : "/system/libhidl/base/include/hidl/HidlInternal.h",
   "unique_id" : "_ZTSN7android8hardware7details12hidl_pointerI13native_handleEUt_E"
  },
  {
   "alignment" : 1,
   "linker_set_key" : "android::hardware::details::i_tag",
   "name" : "android::hardware::details::i_tag",
   "referenced_type" : "type-205",
   "self_type" : "type-205",
   "size" : 1,
   "source_file" : "/system/libhidl/base/include/hidl/HidlInternal.h",
   "unique_id" : "_ZTSN7android8hardware7details5i_tagE"
  },
  {
   "alignment" : 8,
   "fields" :
   [
    {
     "access" : "private",
     "field_name" : "mStatus",
     "referenced_type" : "type-117"
    },
    {
     "access" : "private",
     "field_name" : "mCheckedStatus",
     "field_offset" : 256,
     "referenced_type" : "type-36"
    }
   ],
   "linker_set_key" : "android::hardware::details::return_status",
   "name" : "android::hardware::details::return_status",
   "record_kind" : "class",
   "referenced_type" : "type-128",
   "self_type" : "type-128",
   "size" : 40,
   "source_file" : "/system/libhidl/base/include/hidl/Status.h",
   "unique_id" : "_ZTSN7android8hardware7details13return_statusE"
  },
  {
   "alignment" : 1,
   "linker_set_key" : "android::hardware::details::std_array<unsigned char, 32>",
   "name" : "android::hardware::details::std_array<unsigned char, 32>",
   "referenced_type" : "type-328",
   "self_type" : "type-328",
   "size" : 1,
   "source_file" : "/system/libhidl/base/include/hidl/HidlSupport.h",
   "template_args" : [ "type-81" ],
   "unique_id" : "_ZTSN7android8hardware7details9std_arrayIhLm32EJEEE"
  },
  {
   "alignment" : 1,
   "fields" :
   [
    {
     "access" : "private",
     "field_name" : "mBuffer",
     "referenced_type" : "type-299"
    }
   ],
   "linker_set_key" : "android::hardware::hidl_array<unsigned char, 32>",
   "name" : "android::hardware::hidl_array<unsigned char, 32>",
   "referenced_type" : "type-298",
   "self_type" : "type-298",
   "size" : 32,
   "source_file" : "/system/libhidl/base/include/hidl/HidlSupport.h",
   "template_args" : [ "type-81" ],
   "unique_id" : "_ZTSN7android8hardware10hidl_arrayIhLm32EJEEE"
  },
  {
   "alignment" : 8,
   "base_specifiers" :
   [
    {
     "referenced_type" : "type-107"
    }
   ],
   "fields" :
   [
    {
     "access" : "private",
     "field_name" : "mRecipient",
     "field_offset" : 64,
     "referenced_type" : "type-103"
    },
    {
     "access" : "private",
     "field_name" : "mCookie",
     "field_offset" : 192,
     "referenced_type" : "type-25"
    },
    {
     "access" : "private",
     "field_name" : "mBase",
     "field_offset" : 256,
     "referenced_type" : "type-106"
    }
   ],
   "linker_set_key" : "android::hardware::hidl_binder_death_recipient",
   "name" : "android::hardware::hidl_binder_death_recipient",
   "referenced_type" : "type-102",
   "self_type" : "type-102",
   "size" : 64,
   "source_file" : "/system/libhidl/transport/include/hidl/HidlBinderSupport.h",
   "unique_id" : "_ZTSN7android8hardware27hidl_binder_death_recipientE",
   "vtable_components" :
   [
    {
     "component_value" : 48,
     "kind" : "vbase_offset"
    },
    {
     "kind" : "offset_to_top"
    },
    {
     "kind" : "rtti",
     "mangled_component_name" : "_ZTIN7android8hardware27hidl_binder_death_recipientE"
    },
    {
     "mangled_component_name" : "_ZN7android8hardware27hidl_binder_death_recipient10binderDiedERKNS_2wpINS0_7IBinderEEE"
    },
    {
     "kind" : "complete_dtor_pointer",
     "mangled_component_name" : "_ZN7android8hardware27hidl_binder_death_recipientD1Ev"
    },
    {
     "kind" : "deleting_dtor_pointer",
     "mangled_component_name" : "_ZN7android8hardware27hidl_binder_death_recipientD0Ev"
    },
    {
     "kind" : "vcall_offset"
    },
    {
     "kind" : "vcall_offset"
    },
    {
     "kind" : "vcall_offset"
    },
    {
     "kind" : "vcall_offset"
    },
    {
     "component_value" : -48,
     "kind" : "vcall_offset"
    },
    {
     "component_value" : -48,
     "kind" : "offset_to_top"
    },
    {
     "kind" : "rtti",
     "mangled_component_name" : "_ZTIN7android8hardware27hidl_binder_death_recipientE"
    },
    {
     "kind" : "complete_dtor_pointer",
     "mangled_component_name" : "_ZTv0_n24_N7android8hardware27hidl_binder_death_recipientD1Ev"
    },
    {
     "kind" : "deleting_dtor_pointer",
     "mangled_component_name" : "_ZTv0_n24_N7android8hardware27hidl_binder_death_recipientD0Ev"
    },
    {
     "mangled_component_name" : "_ZN7android7RefBase10onFirstRefEv"
    },
    {
     "mangled_component_name" : "_ZN7android7RefBase15onLastStrongRefEPKv"
    },
    {
     "mangled_component_name" : "_ZN7android7RefBase20onIncStrongAttemptedEjPKv"
    },
    {
     "mangled_component_name" : "_ZN7android7RefBase13onLastWeakRefEPKv"
    }
   ]
  },
  {
   "alignment" : 8,
   "base_specifiers" :
   [
    {
     "is_virtual" : true,
     "referenced_type" : "type-5"
    }
   ],
   "linker_set_key" : "android::hardware::hidl_death_recipient",
   "name" : "android::hardware::hidl_death_recipient",
   "referenced_type" : "type-105",
   "self_type" : "type-105",
   "size" : 24,
   "source_file" : "/system/libhidl/base/include/hidl/HidlSupport.h",
   "unique_id" : "_ZTSN7android8hardware20hidl_death_recipientE",
   "vtable_components" :
   [
    {
     "component_value" : 8,
     "kind" : "vbase_offset"
    },
    {
     "kind" : "offset_to_top"
    },
    {
     "kind" : "rtti",
     "mangled_component_name" : "_ZTIN7android8hardware20hidl_death_recipientE"
    },
    {
     "is_pure" : true,
     "mangled_component_name" : "_ZN7android8hardware20hidl_death_recipient11serviceDiedEmRKNS_2wpINS_4hidl4base4V1_05IBaseEEE"
    },
    {
     "kind" : "complete_dtor_pointer",
     "mangled_component_name" : "_ZN7android8hardware20hidl_death_recipientD1Ev"
    },
    {
     "kind" : "deleting_dtor_pointer",
     "mangled_component_name" : "_ZN7android8hardware20hidl_death_recipientD0Ev"
    },
    {
     "kind" : "vcall_offset"
    },
    {
     "kind" : "vcall_offset"
    },
    {
     "kind" : "vcall_offset"
    },
    {
     "kind" : "vcall_offset"
    },
    {
     "component_value" : -8,
     "kind" : "vcall_offset"
    },
    {
     "component_value" : -8,
     "kind" : "offset_to_top"
    },
    {
     "kind" : "rtti",
     "mangled_component_name" : "_ZTIN7android8hardware20hidl_death_recipientE"
    },
    {
     "kind" : "complete_dtor_pointer",
     "mangled_component_name" : "_ZTv0_n24_N7android8hardware20hidl_death_recipientD1Ev"
    },
    {
     "kind" : "deleting_dtor_pointer",
     "mangled_component_name" : "_ZTv0_n24_N7android8hardware20hidl_death_recipientD0Ev"
    },
    {
     "mangled_component_name" : "_ZN7android7RefBase10onFirstRefEv"
    },
    {
     "mangled_component_name" : "_ZN7android7RefBase15onLastStrongRefEPKv"
    },
    {
     "mangled_component_name" : "_ZN7android7RefBase20onIncStrongAttemptedEjPKv"
    },
    {
     "mangled_component_name" : "_ZN7android7RefBase13onLastWeakRefEPKv"
    }
   ]
  },
  {
   "alignment" : 8,
   "fields" :
   [
    {
     "access" : "private",
     "field_name" : "mHandle",
     "referenced_type" : "type-249"
    },
    {
     "access" : "private",
     "field_name" : "mOwnsHandle",
     "field_offset" : 64,
     "referenced_type" : "type-36"
    }
   ],
   "linker_set_key" : "android::hardware::hidl_handle",
   "name" : "android::hardware::hidl_handle",
   "referenced_type" : "type-263",
   "self_type" : "type-263",
   "size" : 16,
   "source_file" : "/system/libhidl/base/include/hidl/HidlSupport.h",
   "unique_id" : "_ZTSN7android8hardware11hidl_handleE"
  },
  {
   "alignment" : 8,
   "fields" :
   [
    {
     "access" : "private",
     "field_name" : "mHandle",
     "referenced_type" : "type-263"
    },
    {
     "access" : "private",
     "field_name" : "mSize",
     "field_offset" : 128,
     "referenced_type" : "type-25"
    },
    {
     "access" : "private",
     "field_name" : "mName",
     "field_offset" : 192,
     "referenced_type" : "type-265"
    }
   ],
   "linker_set_key" : "android::hardware::hidl_memory",
   "name" : "android::hardware::hidl_memory",
   "referenced_type" : "type-269",
   "self_type" : "type-269",
   "size" : 40,
   "source_file" : "/system/libhidl/base/include/hidl/HidlSupport.h",
   "unique_id" : "_ZTSN7android8hardware11hidl_memoryE"
  },
  {
   "alignment" : 8,
   "fields" :
   [
    {
     "access" : "private",
     "field_name" : "mBuffer",
     "referenced_type" : "type-266"
    },
    {
     "access" : "private",
     "field_name" : "mSize",
     "field_offset" : 64,
     "referenced_type" : "type-2"
    },
    {
     "access" : "private",
     "field_name" : "mOwnsBuffer",
     "field_offset" : 96,
     "referenced_type" : "type-36"
    }
   ],
   "linker_set_key" : "android::hardware::hidl_string",
   "name" : "android::hardware::hidl_string",
   "referenced_type" : "type-265",
   "self_type" : "type-265",
   "size" : 16,
   "source_file" : "/system/libhidl/base/include/hidl/HidlSupport.h",
   "unique_id" : "_ZTSN7android8hardware11hidl_stringE"
  },
  {
   "alignment" : 8,
   "fields" :
   [
    {
     "access" : "private",
     "field_name" : "mBuffer",
     "referenced_type" : "type-314"
    },
    {
     "access" : "private",
     "field_name" : "mSize",
     "field_offset" : 64,
     "referenced_type" : "type-2"
    },
    {
     "access" : "private",
     "field_name" : "mOwnsBuffer",
     "field_offset" : 96,
     "referenced_type" : "type-36"
    }
   ],
   "linker_set_key" : "android::hardware::hidl_vec<android::frameworks::stats::V1_0::VendorAtom::Value>",
   "name" : "android::hardware::hidl_vec<android::frameworks::stats::V1_0::VendorAtom::Value>",
   "referenced_type" : "type-313",
   "self_type" : "type-313",
   "size" : 16,
   "source_file" : "/system/libhidl/base/include/hidl/HidlSupport.h",
   "template_args" : [ "type-317" ],
   "unique_id" : "_ZTSN7android8hardware8hidl_vecINS_10frameworks5stats4V1_010VendorAtom5ValueEEE"
  },
  {
   "alignment" : 8,
   "fields" :
   [
    {
     "access" : "private",
     "field_name" : "mBuffer",
     "referenced_type" : "type-282"
    },
    {
     "access" : "private",
     "field_name" : "mSize",
     "field_offset" : 64,
     "referenced_type" : "type-2"
    },
    {
     "access" : "private",
     "field_name" : "mOwnsBuffer",
     "field_offset" : 96,
     "referenced_type" : "type-36"
    }
   ],
   "linker_set_key" : "android::hardware::hidl_vec<android::hardware::GrantorDescriptor>",
   "name" : "android::hardware::hidl_vec<android::hardware::GrantorDescriptor>",
   "referenced_type" : "type-281",
   "self_type" : "type-281",
   "size" : 16,
   "source_file" : "/system/libhidl/base/include/hidl/HidlSupport.h",
   "template_args" : [ "type-285" ],
   "unique_id" : "_ZTSN7android8hardware8hidl_vecINS0_17GrantorDescriptorEEE"
  },
  {
   "alignment" : 8,
   "fields" :
   [
    {
     "access" : "private",
     "field_name" : "mBuffer",
     "referenced_type" : "type-295"
    },
    {
     "access" : "private",
     "field_name" : "mSize",
     "field_offset" : 64,
     "referenced_type" : "type-2"
    },
    {
     "access" : "private",
     "field_name" : "mOwnsBuffer",
     "field_offset" : 96,
     "referenced_type" : "type-36"
    }
   ],
   "linker_set_key" : "android::hardware::hidl_vec<android::hardware::hidl_array<unsigned char, 32> >",
   "name" : "android::hardware::hidl_vec<android::hardware::hidl_array<unsigned char, 32> >",
   "referenced_type" : "type-294",
   "self_type" : "type-294",
   "size" : 16,
   "source_file" : "/system/libhidl/base/include/hidl/HidlSupport.h",
   "template_args" : [ "type-298" ],
   "unique_id" : "_ZTSN7android8hardware8hidl_vecINS0_10hidl_arrayIhLm32EJEEEEE"
  },
  {
   "alignment" : 8,
   "fields" :
   [
    {
     "access" : "private",
     "field_name" : "mBuffer",
     "referenced_type" : "type-287"
    },
    {
     "access" : "private",
     "field_name" : "mSize",
     "field_offset" : 64,
     "referenced_type" : "type-2"
    },
    {
     "access" : "private",
     "field_name" : "mOwnsBuffer",
     "field_offset" : 96,
     "referenced_type" : "type-36"
    }
   ],
   "linker_set_key" : "android::hardware::hidl_vec<android::hardware::hidl_string>",
   "name" : "android::hardware::hidl_vec<android::hardware::hidl_string>",
   "referenced_type" : "type-286",
   "self_type" : "type-286",
   "size" : 16,
   "source_file" : "/system/libhidl/base/include/hidl/HidlSupport.h",
   "template_args" : [ "type-265" ],
   "unique_id" : "_ZTSN7android8hardware8hidl_vecINS0_11hidl_stringEEE"
  },
  {
   "alignment" : 8,
   "fields" :
   [
    {
     "access" : "private",
     "field_name" : "mBuffer",
     "referenced_type" : "type-326"
    },
    {
     "access" : "private",
     "field_name" : "mSize",
     "field_offset" : 64,
     "referenced_type" : "type-2"
    },
    {
     "access" : "private",
     "field_name" : "mOwnsBuffer",
     "field_offset" : 96,
     "referenced_type" : "type-36"
    }
   ],
   "linker_set_key" : "android::hardware::hidl_vec<char>",
   "name" : "android::hardware::hidl_vec<char>",
   "referenced_type" : "type-325",
   "self_type" : "type-325",
   "size" : 16,
   "source_file" : "/system/libhidl/base/include/hidl/HidlSupport.h",
   "template_args" : [ "type-53" ],
   "unique_id" : "_ZTSN7android8hardware8hidl_vecIcEE"
  },
  {
   "alignment" : 8,
   "fields" :
   [
    {
     "access" : "private",
     "field_name" : "mBuffer",
     "referenced_type" : "type-305"
    },
    {
     "access" : "private",
     "field_name" : "mSize",
     "field_offset" : 64,
     "referenced_type" : "type-2"
    },
    {
     "access" : "private",
     "field_name" : "mOwnsBuffer",
     "field_offset" : 96,
     "referenced_type" : "type-36"
    }
   ],
   "linker_set_key" : "android::hardware::hidl_vec<int>",
   "name" : "android::hardware::hidl_vec<int>",
   "referenced_type" : "type-304",
   "self_type" : "type-304",
   "size" : 16,
   "source_file" : "/system/libhidl/base/include/hidl/HidlSupport.h",
   "template_args" : [ "type-20" ],
   "unique_id" : "_ZTSN7android8hardware8hidl_vecIiEE"
  },
  {
   "alignment" : 2,
   "fields" :
   [
    {
     "access" : "private",
     "field_name" : "mMajor",
     "referenced_type" : "type-83"
    },
    {
     "access" : "private",
     "field_name" : "mMinor",
     "field_offset" : 16,
     "referenced_type" : "type-83"
    }
   ],
   "linker_set_key" : "android::hardware::hidl_version",
   "name" : "android::hardware::hidl_version",
   "referenced_type" : "type-330",
   "self_type" : "type-330",
   "size" : 4,
   "source_file" : "/system/libhidl/base/include/hidl/HidlSupport.h",
   "unique_id" : "_ZTSN7android8hardware12hidl_versionE"
  },
  {
   "alignment" : 8,
   "base_specifiers" :
   [
    {
     "referenced_type" : "type-115"
    },
    {
     "referenced_type" : "type-392"
    }
   ],
   "fields" :
   [
    {
     "access" : "private",
     "field_name" : "_hidl_mImpl",
     "field_offset" : 960,
     "referenced_type" : "type-391"
    }
   ],
   "linker_set_key" : "android::hidl::base::V1_0::BnHwBase",
   "name" : "android::hidl::base::V1_0::BnHwBase",
   "referenced_type" : "type-390",
   "self_type" : "type-390",
   "size" : 144,
   "source_file" : "/out/soong/.intermediates/system/libhidl/transport/base/1.0/android.hidl.base@1.0_genc++_headers/gen/android/hidl/base/1.0/BnHwBase.h",
   "unique_id" : "_ZTSN7android4hidl4base4V1_08BnHwBaseE",
   "vtable_components" :
   [
    {
     "component_value" : 128,
     "kind" : "vbase_offset"
    },
    {
     "kind" : "offset_to_top"
    },
    {
     "kind" : "rtti",
     "mangled_component_name" : "_ZTIN7android4hidl4base4V1_08BnHwBaseE"
    },
    {
     "mangled_component_name" : "_ZN7android8hardware9BHwBinder8transactEjRKNS0_6ParcelEPS2_jNSt3__18functionIFvRS2_EEE"
    },
    {
     "mangled_component_name" : "_ZN7android8hardware9BHwBinder11linkToDeathERKNS_2spINS0_7IBinder14DeathRecipientEEEPvj"
    },
    {
     "mangled_component_name" : "_ZN7android8hardware9BHwBinder13unlinkToDeathERKNS_2wpINS0_7IBinder14DeathRecipientEEEPvjPS5_"
    },
    {
     "mangled_component_name" : "_ZNK7android8hardware7IBinder13checkSubclassEPKv"
    },
    {
     "mangled_component_name" : "_ZN7android8hardware9BHwBinder12attachObjectEPKvPvS4_PFvS3_S4_S4_E"
    },
    {
     "mangled_component_name" : "_ZNK7android8hardware9BHwBinder10findObjectEPKv"
    },
    {
     "mangled_component_name" : "_ZN7android8hardware9BHwBinder12detachObjectEPKv"
    },
    {
     "mangled_component_name" : "_ZN7android8hardware9BHwBinder11localBinderEv"
    },
    {
     "mangled_component_name" : "_ZN7android8hardware7IBinder12remoteBinderEv"
    },
    {
     "kind" : "complete_dtor_pointer",
     "mangled_component_name" : "_ZN7android4hidl4base4V1_08BnHwBaseD1Ev"
    },
    {
     "kind" : "deleting_dtor_pointer",
     "mangled_component_name" : "_ZN7android4hidl4base4V1_08BnHwBaseD0Ev"
    },
    {
     "mangled_component_name" : "_ZN7android4hidl4base4V1_08BnHwBase10onTransactEjRKNS_8hardware6ParcelEPS5_jNSt3__18functionIFvRS5_EEE"
    },
    {
     "component_value" : -32,
     "kind" : "offset_to_top"
    },
    {
     "kind" : "rtti",
     "mangled_component_name" : "_ZTIN7android4hidl4base4V1_08BnHwBaseE"
    },
    {
     "kind" : "complete_dtor_pointer",
     "mangled_component_name" : "_ZThn32_N7android4hidl4base4V1_08BnHwBaseD1Ev"
    },
    {
     "kind" : "deleting_dtor_pointer",
     "mangled_component_name" : "_ZThn32_N7android4hidl4base4V1_08BnHwBaseD0Ev"
    },
    {
     "kind" : "vcall_offset"
    },
    {
     "kind" : "vcall_offset"
    },
    {
     "kind" : "vcall_offset"
    },
    {
     "kind" : "vcall_offset"
    },
    {
     "component_value" : -128,
     "kind" : "vcall_offset"
    },
    {
     "component_value" : -128,
     "kind" : "offset_to_top"
    },
    {
     "kind" : "rtti",
     "mangled_component_name" : "_ZTIN7android4hidl4base4V1_08BnHwBaseE"
    },
    {
     "kind" : "complete_dtor_pointer",
     "mangled_component_name" : "_ZTv0_n24_N7android4hidl4base4V1_08BnHwBaseD1Ev"
    },
    {
     "kind" : "deleting_dtor_pointer",
     "mangled_component_name" : "_ZTv0_n24_N7android4hidl4base4V1_08BnHwBaseD0Ev"
    },
    {
     "mangled_component_name" : "_ZN7android7RefBase10onFirstRefEv"
    },
    {
     "mangled_component_name" : "_ZN7android7RefBase15onLastStrongRefEPKv"
    },
    {
     "mangled_component_name" : "_ZN7android7RefBase20onIncStrongAttemptedEjPKv"
    },
    {
     "mangled_component_name" : "_ZN7android7RefBase13onLastWeakRefEPKv"
    }
   ]
  },
  {
   "alignment" : 8,
   "base_specifiers" :
   [
    {
     "referenced_type" : "type-371"
    },
    {
     "referenced_type" : "type-392"
    }
   ],
   "fields" :
   [
    {
     "access" : "private",
     "field_name" : "_hidl_mMutex",
     "field_offset" : 1088,
     "referenced_type" : "type-545"
    },
    {
     "access" : "private",
     "field_name" : "_hidl_mDeathRecipients",
     "field_offset" : 1408,
     "referenced_type" : "type-546"
    }
   ],
   "linker_set_key" : "android::hidl::base::V1_0::BpHwBase",
   "name" : "android::hidl::base::V1_0::BpHwBase",
   "referenced_type" : "type-544",
   "self_type" : "type-544",
   "size" : 216,
   "source_file" : "/out/soong/.intermediates/system/libhidl/transport/base/1.0/android.hidl.base@1.0_genc++_headers/gen/android/hidl/base/1.0/BpHwBase.h",
   "unique_id" : "_ZTSN7android4hidl4base4V1_08BpHwBaseE",
   "vtable_components" :
   [
    {
     "component_value" : 200,
     "kind" : "vbase_offset"
    },
    {
     "kind" : "offset_to_top"
    },
    {
     "kind" : "rtti",
     "mangled_component_name" : "_ZTIN7android4hidl4base4V1_08BpHwBaseE"
    },
    {
     "mangled_component_name" : "_ZNK7android4hidl4base4V1_08BpHwBase8isRemoteEv"
    },
    {
     "mangled_component_name" : "_ZN7android4hidl4base4V1_08BpHwBase14interfaceChainENSt3__18functionIFvRKNS_8hardware8hidl_vecINS6_11hidl_stringEEEEEE"
    },
    {
     "mangled_component_name" : "_ZN7android4hidl4base4V1_08BpHwBase5debugERKNS_8hardware11hidl_handleERKNS4_8hidl_vecINS4_11hidl_stringEEE"
    },
    {
     "mangled_component_name" : "_ZN7android4hidl4base4V1_08BpHwBase19interfaceDescriptorENSt3__18functionIFvRKNS_8hardware11hidl_stringEEEE"
    },
    {
     "mangled_component_name" : "_ZN7android4hidl4base4V1_08BpHwBase12getHashChainENSt3__18functionIFvRKNS_8hardware8hidl_vecINS6_10hidl_arrayIhLm32EJEEEEEEEE"
    },
    {
     "mangled_component_name" : "_ZN7android4hidl4base4V1_08BpHwBase21setHALInstrumentationEv"
    },
    {
     "mangled_component_name" : "_ZN7android4hidl4base4V1_08BpHwBase11linkToDeathERKNS_2spINS_8hardware20hidl_death_recipientEEEm"
    },
    {
     "mangled_component_name" : "_ZN7android4hidl4base4V1_08BpHwBase4pingEv"
    },
    {
     "mangled_component_name" : "_ZN7android4hidl4base4V1_08BpHwBase12getDebugInfoENSt3__18functionIFvRKNS2_9DebugInfoEEEE"
    },
    {
     "mangled_component_name" : "_ZN7android4hidl4base4V1_08BpHwBase21notifySyspropsChangedEv"
    },
    {
     "mangled_component_name" : "_ZN7android4hidl4base4V1_08BpHwBase13unlinkToDeathERKNS_2spINS_8hardware20hidl_death_recipientEEE"
    },
    {
     "kind" : "complete_dtor_pointer",
     "mangled_component_name" : "_ZN7android4hidl4base4V1_08BpHwBaseD1Ev"
    },
    {
     "kind" : "deleting_dtor_pointer",
     "mangled_component_name" : "_ZN7android4hidl4base4V1_08BpHwBaseD0Ev"
    },
    {
     "mangled_component_name" : "_ZN7android8hardware11BpInterfaceINS_4hidl4base4V1_05IBaseEE10onAsBinderEv"
    },
    {
     "component_value" : 192,
     "kind" : "vbase_offset"
    },
    {
     "component_value" : -8,
     "kind" : "offset_to_top"
    },
    {
     "kind" : "rtti",
     "mangled_component_name" : "_ZTIN7android4hidl4base4V1_08BpHwBaseE"
    },
    {
     "kind" : "complete_dtor_pointer",
     "mangled_component_name" : "_ZThn8_N7android4hidl4base4V1_08BpHwBaseD1Ev"
    },
    {
     "kind" : "deleting_dtor_pointer",
     "mangled_component_name" : "_ZThn8_N7android4hidl4base4V1_08BpHwBaseD0Ev"
    },
    {
     "mangled_component_name" : "_ZThn8_N7android8hardware11BpInterfaceINS_4hidl4base4V1_05IBaseEE10onAsBinderEv"
    },
    {
     "component_value" : 184,
     "kind" : "vbase_offset"
    },
    {
     "component_value" : -16,
     "kind" : "offset_to_top"
    },
    {
     "kind" : "rtti",
     "mangled_component_name" : "_ZTIN7android4hidl4base4V1_08BpHwBaseE"
    },
    {
     "kind" : "complete_dtor_pointer",
     "mangled_component_name" : "_ZThn16_N7android4hidl4base4V1_08BpHwBaseD1Ev"
    },
    {
     "kind" : "deleting_dtor_pointer",
     "mangled_component_name" : "_ZThn16_N7android4hidl4base4V1_08BpHwBaseD0Ev"
    },
    {
     "mangled_component_name" : "_ZN7android8hardware11BpHwRefBase10onFirstRefEv"
    },
    {
     "mangled_component_name" : "_ZN7android8hardware11BpHwRefBase15onLastStrongRefEPKv"
    },
    {
     "mangled_component_name" : "_ZN7android8hardware11BpHwRefBase20onIncStrongAttemptedEjPKv"
    },
    {
     "component_value" : -48,
     "kind" : "offset_to_top"
    },
    {
     "kind" : "rtti",
     "mangled_component_name" : "_ZTIN7android4hidl4base4V1_08BpHwBaseE"
    },
    {
     "kind" : "complete_dtor_pointer",
     "mangled_component_name" : "_ZThn48_N7android4hidl4base4V1_08BpHwBaseD1Ev"
    },
    {
     "kind" : "deleting_dtor_pointer",
     "mangled_component_name" : "_ZThn48_N7android4hidl4base4V1_08BpHwBaseD0Ev"
    },
    {
     "kind" : "vcall_offset"
    },
    {
     "component_value" : -184,
     "kind" : "vcall_offset"
    },
    {
     "component_value" : -184,
     "kind" : "vcall_offset"
    },
    {
     "component_value" : -184,
     "kind" : "vcall_offset"
    },
    {
     "component_value" : -200,
     "kind" : "vcall_offset"
    },
    {
     "component_value" : -200,
     "kind" : "offset_to_top"
    },
    {
     "kind" : "rtti",
     "mangled_component_name" : "_ZTIN7android4hidl4base4V1_08BpHwBaseE"
    },
    {
     "kind" : "complete_dtor_pointer",
     "mangled_component_name" : "_ZTv0_n24_N7android4hidl4base4V1_08BpHwBaseD1Ev"
    },
    {
     "kind" : "deleting_dtor_pointer",
     "mangled_component_name" : "_ZTv0_n24_N7android4hidl4base4V1_08BpHwBaseD0Ev"
    },
    {
     "mangled_component_name" : "_ZTv0_n32_N7android8hardware11BpHwRefBase10onFirstRefEv"
    },
    {
     "mangled_component_name" : "_ZTv0_n40_N7android8hardware11BpHwRefBase15onLastStrongRefEPKv"
    },
    {
     "mangled_component_name" : "_ZTv0_n48_N7android8hardware11BpHwRefBase20onIncStrongAttemptedEjPKv"
    },
    {
     "mangled_component_name" : "_ZN7android7RefBase13onLastWeakRefEPKv"
    }
   ]
  },
  {
   "alignment" : 8,
   "fields" :
   [
    {
     "field_name" : "pid",
     "referenced_type" : "type-20"
    },
    {
     "field_name" : "ptr",
     "field_offset" : 64,
     "referenced_type" : "type-25"
    },
    {
     "field_name" : "arch",
     "field_offset" : 128,
     "referenced_type" : "type-348"
    }
   ],
   "linker_set_key" : "android::hidl::base::V1_0::DebugInfo",
   "name" : "android::hidl::base::V1_0::DebugInfo",
   "referenced_type" : "type-347",
   "self_type" : "type-347",
   "size" : 24,
   "source_file" : "/out/soong/.intermediates/system/libhidl/transport/base/1.0/android.hidl.base@1.0_genc++_headers/gen/android/hidl/base/1.0/types.h",
   "unique_id" : "_ZTSN7android4hidl4base4V1_09DebugInfoE"
  },
  {
   "alignment" : 8,
   "base_specifiers" :
   [
    {
     "is_virtual" : true,
     "referenced_type" : "type-5"
    }
   ],
   "linker_set_key" : "android::hidl::base::V1_0::IBase",
   "name" : "android::hidl::base::V1_0::IBase",
   "referenced_type" : "type-4",
   "self_type" : "type-4",
   "size" : 24,
   "source_file" : "/out/soong/.intermediates/system/libhidl/transport/base/1.0/android.hidl.base@1.0_genc++_headers/gen/android/hidl/base/1.0/IBase.h",
   "unique_id" : "_ZTSN7android4hidl4base4V1_05IBaseE",
   "vtable_components" :
   [
    {
     "component_value" : 8,
     "kind" : "vbase_offset"
    },
    {
     "kind" : "offset_to_top"
    },
    {
     "kind" : "rtti",
     "mangled_component_name" : "_ZTIN7android4hidl4base4V1_05IBaseE"
    },
    {
     "mangled_component_name" : "_ZNK7android4hidl4base4V1_05IBase8isRemoteEv"
    },
    {
     "mangled_component_name" : "_ZN7android4hidl4base4V1_05IBase14interfaceChainENSt3__18functionIFvRKNS_8hardware8hidl_vecINS6_11hidl_stringEEEEEE"
    },
    {
     "mangled_component_name" : "_ZN7android4hidl4base4V1_05IBase5debugERKNS_8hardware11hidl_handleERKNS4_8hidl_vecINS4_11hidl_stringEEE"
    },
    {
     "mangled_component_name" : "_ZN7android4hidl4base4V1_05IBase19interfaceDescriptorENSt3__18functionIFvRKNS_8hardware11hidl_stringEEEE"
    },
    {
     "mangled_component_name" : "_ZN7android4hidl4base4V1_05IBase12getHashChainENSt3__18functionIFvRKNS_8hardware8hidl_vecINS6_10hidl_arrayIhLm32EJEEEEEEEE"
    },
    {
     "mangled_component_name" : "_ZN7android4hidl4base4V1_05IBase21setHALInstrumentationEv"
    },
    {
     "mangled_component_name" : "_ZN7android4hidl4base4V1_05IBase11linkToDeathERKNS_2spINS_8hardware20hidl_death_recipientEEEm"
    },
    {
     "mangled_component_name" : "_ZN7android4hidl4base4V1_05IBase4pingEv"
    },
    {
     "mangled_component_name" : "_ZN7android4hidl4base4V1_05IBase12getDebugInfoENSt3__18functionIFvRKNS2_9DebugInfoEEEE"
    },
    {
     "mangled_component_name" : "_ZN7android4hidl4base4V1_05IBase21notifySyspropsChangedEv"
    },
    {
     "mangled_component_name" : "_ZN7android4hidl4base4V1_05IBase13unlinkToDeathERKNS_2spINS_8hardware20hidl_death_recipientEEE"
    },
    {
     "kind" : "complete_dtor_pointer",
     "mangled_component_name" : "_ZN7android4hidl4base4V1_05IBaseD1Ev"
    },
    {
     "kind" : "deleting_dtor_pointer",
     "mangled_component_name" : "_ZN7android4hidl4base4V1_05IBaseD0Ev"
    },
    {
     "kind" : "vcall_offset"
    },
    {
     "kind" : "vcall_offset"
    },
    {
     "kind" : "vcall_offset"
    },
    {
     "kind" : "vcall_offset"
    },
    {
     "component_value" : -8,
     "kind" : "vcall_offset"
    },
    {
     "component_value" : -8,
     "kind" : "offset_to_top"
    },
    {
     "kind" : "rtti",
     "mangled_component_name" : "_ZTIN7android4hidl4base4V1_05IBaseE"
    },
    {
     "kind" : "complete_dtor_pointer",
     "mangled_component_name" : "_ZTv0_n24_N7android4hidl4base4V1_05IBaseD1Ev"
    },
    {
     "kind" : "deleting_dtor_pointer",
     "mangled_component_name" : "_ZTv0_n24_N7android4hidl4base4V1_05IBaseD0Ev"
    },
    {
     "mangled_component_name" : "_ZN7android7RefBase10onFirstRefEv"
    },
    {
     "mangled_component_name" : "_ZN7android7RefBase15onLastStrongRefEPKv"
    },
    {
     "mangled_component_name" : "_ZN7android7RefBase20onIncStrongAttemptedEjPKv"
    },
    {
     "mangled_component_name" : "_ZN7android7RefBase13onLastWeakRefEPKv"
    }
   ]
  },
  {
   "alignment" : 8,
   "base_specifiers" :
   [
    {
     "referenced_type" : "type-4"
    }
   ],
   "linker_set_key" : "android::hidl::manager::V1_0::IServiceManager",
   "name" : "android::hidl::manager::V1_0::IServiceManager",
   "referenced_type" : "type-61",
   "self_type" : "type-61",
   "size" : 24,
   "source_file" : "/out/soong/.intermediates/system/libhidl/transport/manager/1.0/android.hidl.manager@1.0_genc++_headers/gen/android/hidl/manager/1.0/IServiceManager.h",
   "unique_id" : "_ZTSN7android4hidl7manager4V1_015IServiceManagerE",
   "vtable_components" :
   [
    {
     "component_value" : 8,
     "kind" : "vbase_offset"
    },
    {
     "kind" : "offset_to_top"
    },
    {
     "kind" : "rtti",
     "mangled_component_name" : "_ZTIN7android4hidl7manager4V1_015IServiceManagerE"
    },
    {
     "mangled_component_name" : "_ZNK7android4hidl7manager4V1_015IServiceManager8isRemoteEv"
    },
    {
     "mangled_component_name" : "_ZN7android4hidl7manager4V1_015IServiceManager14interfaceChainENSt3__18functionIFvRKNS_8hardware8hidl_vecINS6_11hidl_stringEEEEEE"
    },
    {
     "mangled_component_name" : "_ZN7android4hidl7manager4V1_015IServiceManager5debugERKNS_8hardware11hidl_handleERKNS4_8hidl_vecINS4_11hidl_stringEEE"
    },
    {
     "mangled_component_name" : "_ZN7android4hidl7manager4V1_015IServiceManager19interfaceDescriptorENSt3__18functionIFvRKNS_8hardware11hidl_stringEEEE"
    },
    {
     "mangled_component_name" : "_ZN7android4hidl7manager4V1_015IServiceManager12getHashChainENSt3__18functionIFvRKNS_8hardware8hidl_vecINS6_10hidl_arrayIhLm32EJEEEEEEEE"
    },
    {
     "mangled_component_name" : "_ZN7android4hidl7manager4V1_015IServiceManager21setHALInstrumentationEv"
    },
    {
     "mangled_component_name" : "_ZN7android4hidl7manager4V1_015IServiceManager11linkToDeathERKNS_2spINS_8hardware20hidl_death_recipientEEEm"
    },
    {
     "mangled_component_name" : "_ZN7android4hidl7manager4V1_015IServiceManager4pingEv"
    },
    {
     "mangled_component_name" : "_ZN7android4hidl7manager4V1_015IServiceManager12getDebugInfoENSt3__18functionIFvRKNS0_4base4V1_09DebugInfoEEEE"
    },
    {
     "mangled_component_name" : "_ZN7android4hidl7manager4V1_015IServiceManager21notifySyspropsChangedEv"
    },
    {
     "mangled_component_name" : "_ZN7android4hidl7manager4V1_015IServiceManager13unlinkToDeathERKNS_2spINS_8hardware20hidl_death_recipientEEE"
    },
    {
     "kind" : "complete_dtor_pointer",
     "mangled_component_name" : "_ZN7android4hidl7manager4V1_015IServiceManagerD1Ev"
    },
    {
     "kind" : "deleting_dtor_pointer",
     "mangled_component_name" : "_ZN7android4hidl7manager4V1_015IServiceManagerD0Ev"
    },
    {
     "is_pure" : true,
     "mangled_component_name" : "_ZN7android4hidl7manager4V1_015IServiceManager3getERKNS_8hardware11hidl_stringES7_"
    },
    {
     "is_pure" : true,
     "mangled_component_name" : "_ZN7android4hidl7manager4V1_015IServiceManager3addERKNS_8hardware11hidl_stringERKNS_2spINS0_4base4V1_05IBaseEEE"
    },
    {
     "is_pure" : true,
     "mangled_component_name" : "_ZN7android4hidl7manager4V1_015IServiceManager12getTransportERKNS_8hardware11hidl_stringES7_"
    },
    {
     "is_pure" : true,
     "mangled_component_name" : "_ZN7android4hidl7manager4V1_015IServiceManager4listENSt3__18functionIFvRKNS_8hardware8hidl_vecINS6_11hidl_stringEEEEEE"
    },
    {
     "is_pure" : true,
     "mangled_component_name" : "_ZN7android4hidl7manager4V1_015IServiceManager15listByInterfaceERKNS_8hardware11hidl_stringENSt3__18functionIFvRKNS4_8hidl_vecIS5_EEEEE"
    },
    {
     "is_pure" : true,
     "mangled_component_name" : "_ZN7android4hidl7manager4V1_015IServiceManager24registerForNotificationsERKNS_8hardware11hidl_stringES7_RKNS_2spINS2_20IServiceNotificationEEE"
    },
    {
     "is_pure" : true,
     "mangled_component_name" : "_ZN7android4hidl7manager4V1_015IServiceManager9debugDumpENSt3__18functionIFvRKNS_8hardware8hidl_vecINS3_17InstanceDebugInfoEEEEEE"
    },
    {
     "is_pure" : true,
     "mangled_component_name" : "_ZN7android4hidl7manager4V1_015IServiceManager25registerPassthroughClientERKNS_8hardware11hidl_stringES7_"
    },
    {
     "kind" : "vcall_offset"
    },
    {
     "kind" : "vcall_offset"
    },
    {
     "kind" : "vcall_offset"
    },
    {
     "kind" : "vcall_offset"
    },
    {
     "component_value" : -8,
     "kind" : "vcall_offset"
    },
    {
     "component_value" : -8,
     "kind" : "offset_to_top"
    },
    {
     "kind" : "rtti",
     "mangled_component_name" : "_ZTIN7android4hidl7manager4V1_015IServiceManagerE"
    },
    {
     "kind" : "complete_dtor_pointer",
     "mangled_component_name" : "_ZTv0_n24_N7android4hidl7manager4V1_015IServiceManagerD1Ev"
    },
    {
     "kind" : "deleting_dtor_pointer",
     "mangled_component_name" : "_ZTv0_n24_N7android4hidl7manager4V1_015IServiceManagerD0Ev"
    },
    {
     "mangled_component_name" : "_ZN7android7RefBase10onFirstRefEv"
    },
    {
     "mangled_component_name" : "_ZN7android7RefBase15onLastStrongRefEPKv"
    },
    {
     "mangled_component_name" : "_ZN7android7RefBase20onIncStrongAttemptedEjPKv"
    },
    {
     "mangled_component_name" : "_ZN7android7RefBase13onLastWeakRefEPKv"
    }
   ]
  },
  {
   "alignment" : 8,
   "fields" :
   [
    {
     "field_name" : "interfaceName",
     "referenced_type" : "type-265"
    },
    {
     "field_name" : "instanceName",
     "field_offset" : 128,
     "referenced_type" : "type-265"
    },
    {
     "field_name" : "pid",
     "field_offset" : 256,
     "referenced_type" : "type-20"
    },
    {
     "field_name" : "clientPids",
     "field_offset" : 320,
     "referenced_type" : "type-304"
    },
    {
     "field_name" : "arch",
     "field_offset" : 448,
     "referenced_type" : "type-348"
    }
   ],
   "linker_set_key" : "android::hidl::manager::V1_0::IServiceManager::InstanceDebugInfo",
   "name" : "android::hidl::manager::V1_0::IServiceManager::InstanceDebugInfo",
   "referenced_type" : "type-497",
   "self_type" : "type-497",
   "size" : 64,
   "source_file" : "/out/soong/.intermediates/system/libhidl/transport/manager/1.0/android.hidl.manager@1.0_genc++_headers/gen/android/hidl/manager/1.0/IServiceManager.h",
   "unique_id" : "_ZTSN7android4hidl7manager4V1_015IServiceManager17InstanceDebugInfoE"
  },
  {
   "alignment" : 8,
   "base_specifiers" :
   [
    {
     "referenced_type" : "type-4"
    }
   ],
   "linker_set_key" : "android::hidl::manager::V1_0::IServiceNotification",
   "name" : "android::hidl::manager::V1_0::IServiceNotification",
   "referenced_type" : "type-76",
   "self_type" : "type-76",
   "size" : 24,
   "source_file" : "/out/soong/.intermediates/system/libhidl/transport/manager/1.0/android.hidl.manager@1.0_genc++_headers/gen/android/hidl/manager/1.0/IServiceNotification.h",
   "unique_id" : "_ZTSN7android4hidl7manager4V1_020IServiceNotificationE",
   "vtable_components" :
   [
    {
     "component_value" : 8,
     "kind" : "vbase_offset"
    },
    {
     "kind" : "offset_to_top"
    },
    {
     "kind" : "rtti",
     "mangled_component_name" : "_ZTIN7android4hidl7manager4V1_020IServiceNotificationE"
    },
    {
     "mangled_component_name" : "_ZNK7android4hidl7manager4V1_020IServiceNotification8isRemoteEv"
    },
    {
     "mangled_component_name" : "_ZN7android4hidl7manager4V1_020IServiceNotification14interfaceChainENSt3__18functionIFvRKNS_8hardware8hidl_vecINS6_11hidl_stringEEEEEE"
    },
    {
     "mangled_component_name" : "_ZN7android4hidl7manager4V1_020IServiceNotification5debugERKNS_8hardware11hidl_handleERKNS4_8hidl_vecINS4_11hidl_stringEEE"
    },
    {
     "mangled_component_name" : "_ZN7android4hidl7manager4V1_020IServiceNotification19interfaceDescriptorENSt3__18functionIFvRKNS_8hardware11hidl_stringEEEE"
    },
    {
     "mangled_component_name" : "_ZN7android4hidl7manager4V1_020IServiceNotification12getHashChainENSt3__18functionIFvRKNS_8hardware8hidl_vecINS6_10hidl_arrayIhLm32EJEEEEEEEE"
    },
    {
     "mangled_component_name" : "_ZN7android4hidl7manager4V1_020IServiceNotification21setHALInstrumentationEv"
    },
    {
     "mangled_component_name" : "_ZN7android4hidl7manager4V1_020IServiceNotification11linkToDeathERKNS_2spINS_8hardware20hidl_death_recipientEEEm"
    },
    {
     "mangled_component_name" : "_ZN7android4hidl7manager4V1_020IServiceNotification4pingEv"
    },
    {
     "mangled_component_name" : "_ZN7android4hidl7manager4V1_020IServiceNotification12getDebugInfoENSt3__18functionIFvRKNS0_4base4V1_09DebugInfoEEEE"
    },
    {
     "mangled_component_name" : "_ZN7android4hidl7manager4V1_020IServiceNotification21notifySyspropsChangedEv"
    },
    {
     "mangled_component_name" : "_ZN7android4hidl7manager4V1_020IServiceNotification13unlinkToDeathERKNS_2spINS_8hardware20hidl_death_recipientEEE"
    },
    {
     "kind" : "complete_dtor_pointer",
     "mangled_component_name" : "_ZN7android4hidl7manager4V1_020IServiceNotificationD1Ev"
    },
    {
     "kind" : "deleting_dtor_pointer",
     "mangled_component_name" : "_ZN7android4hidl7manager4V1_020IServiceNotificationD0Ev"
    },
    {
     "is_pure" : true,
     "mangled_component_name" : "_ZN7android4hidl7manager4V1_020IServiceNotification14onRegistrationERKNS_8hardware11hidl_stringES7_b"
    },
    {
     "kind" : "vcall_offset"
    },
    {
     "kind" : "vcall_offset"
    },
    {
     "kind" : "vcall_offset"
    },
    {
     "kind" : "vcall_offset"
    },
    {
     "component_value" : -8,
     "kind" : "vcall_offset"
    },
    {
     "component_value" : -8,
     "kind" : "offset_to_top"
    },
    {
     "kind" : "rtti",
     "mangled_component_name" : "_ZTIN7android4hidl7manager4V1_020IServiceNotificationE"
    },
    {
     "kind" : "complete_dtor_pointer",
     "mangled_component_name" : "_ZTv0_n24_N7android4hidl7manager4V1_020IServiceNotificationD1Ev"
    },
    {
     "kind" : "deleting_dtor_pointer",
     "mangled_component_name" : "_ZTv0_n24_N7android4hidl7manager4V1_020IServiceNotificationD0Ev"
    },
    {
     "mangled_component_name" : "_ZN7android7RefBase10onFirstRefEv"
    },
    {
     "mangled_component_name" : "_ZN7android7RefBase15onLastStrongRefEPKv"
    },
    {
     "mangled_component_name" : "_ZN7android7RefBase20onIncStrongAttemptedEjPKv"
    },
    {
     "mangled_component_name" : "_ZN7android7RefBase13onLastWeakRefEPKv"
    }
   ]
  },
  {
   "alignment" : 8,
   "fields" :
   [
    {
     "access" : "private",
     "field_name" : "m_ptr",
     "referenced_type" : "type-68"
    }
   ],
   "linker_set_key" : "android::sp<android::Thread>",
   "name" : "android::sp<android::Thread>",
   "record_kind" : "class",
   "referenced_type" : "type-67",
   "self_type" : "type-67",
   "size" : 8,
   "source_file" : "/system/core/libutils/include/utils/StrongPointer.h",
   "template_args" : [ "type-69" ],
   "unique_id" : "_ZTSN7android2spINS_6ThreadEEE"
  },
  {
   "alignment" : 8,
   "fields" :
   [
    {
     "access" : "private",
     "field_name" : "m_ptr",
     "referenced_type" : "type-93"
    }
   ],
   "linker_set_key" : "android::sp<android::frameworks::stats::V1_0::IStats>",
   "name" : "android::sp<android::frameworks::stats::V1_0::IStats>",
   "record_kind" : "class",
   "referenced_type" : "type-92",
   "self_type" : "type-92",
   "size" : 8,
   "source_file" : "/system/core/libutils/include/utils/StrongPointer.h",
   "template_args" : [ "type-94" ],
   "unique_id" : "_ZTSN7android2spINS_10frameworks5stats4V1_06IStatsEEE"
  },
  {
   "alignment" : 8,
   "fields" :
   [
    {
     "access" : "private",
     "field_name" : "m_ptr",
     "referenced_type" : "type-114"
    }
   ],
   "linker_set_key" : "android::sp<android::hardware::BHwBinder>",
   "name" : "android::sp<android::hardware::BHwBinder>",
   "record_kind" : "class",
   "referenced_type" : "type-113",
   "self_type" : "type-113",
   "size" : 8,
   "source_file" : "/system/core/libutils/include/utils/StrongPointer.h",
   "template_args" : [ "type-115" ],
   "unique_id" : "_ZTSN7android2spINS_8hardware9BHwBinderEEE"
  },
  {
   "alignment" : 8,
   "fields" :
   [
    {
     "access" : "private",
     "field_name" : "m_ptr",
     "referenced_type" : "type-213"
    }
   ],
   "linker_set_key" : "android::sp<android::hardware::IBinder::DeathRecipient>",
   "name" : "android::sp<android::hardware::IBinder::DeathRecipient>",
   "record_kind" : "class",
   "referenced_type" : "type-642",
   "self_type" : "type-642",
   "size" : 8,
   "source_file" : "/system/core/libutils/include/utils/StrongPointer.h",
   "template_args" : [ "type-107" ],
   "unique_id" : "_ZTSN7android2spINS_8hardware7IBinder14DeathRecipientEEE"
  },
  {
   "alignment" : 8,
   "fields" :
   [
    {
     "access" : "private",
     "field_name" : "m_ptr",
     "referenced_type" : "type-12"
    }
   ],
   "linker_set_key" : "android::sp<android::hardware::IBinder>",
   "name" : "android::sp<android::hardware::IBinder>",
   "record_kind" : "class",
   "referenced_type" : "type-11",
   "self_type" : "type-11",
   "size" : 8,
   "source_file" : "/system/core/libutils/include/utils/StrongPointer.h",
   "template_args" : [ "type-13" ],
   "unique_id" : "_ZTSN7android2spINS_8hardware7IBinderEEE"
  },
  {
   "alignment" : 8,
   "fields" :
   [
    {
     "access" : "private",
     "field_name" : "m_ptr",
     "referenced_type" : "type-15"
    }
   ],
   "linker_set_key" : "android::sp<android::hardware::IInterface>",
   "name" : "android::sp<android::hardware::IInterface>",
   "record_kind" : "class",
   "referenced_type" : "type-14",
   "self_type" : "type-14",
   "size" : 8,
   "source_file" : "/system/core/libutils/include/utils/StrongPointer.h",
   "template_args" : [ "type-16" ],
   "unique_id" : "_ZTSN7android2spINS_8hardware10IInterfaceEEE"
  },
  {
   "alignment" : 8,
   "fields" :
   [
    {
     "access" : "private",
     "field_name" : "m_ptr",
     "referenced_type" : "type-18"
    }
   ],
   "linker_set_key" : "android::sp<android::hardware::ProcessState>",
   "name" : "android::sp<android::hardware::ProcessState>",
   "record_kind" : "class",
   "referenced_type" : "type-17",
   "self_type" : "type-17",
   "size" : 8,
   "source_file" : "/system/core/libutils/include/utils/StrongPointer.h",
   "template_args" : [ "type-19" ],
   "unique_id" : "_ZTSN7android2spINS_8hardware12ProcessStateEEE"
  },
  {
   "alignment" : 8,
   "fields" :
   [
    {
     "access" : "private",
     "field_name" : "m_ptr",
     "referenced_type" : "type-101"
    }
   ],
   "linker_set_key" : "android::sp<android::hardware::hidl_binder_death_recipient>",
   "name" : "android::sp<android::hardware::hidl_binder_death_recipient>",
   "record_kind" : "class",
   "referenced_type" : "type-100",
   "self_type" : "type-100",
   "size" : 8,
   "source_file" : "/system/core/libutils/include/utils/StrongPointer.h",
   "template_args" : [ "type-102" ],
   "unique_id" : "_ZTSN7android2spINS_8hardware27hidl_binder_death_recipientEEE"
  },
  {
   "alignment" : 8,
   "fields" :
   [
    {
     "access" : "private",
     "field_name" : "m_ptr",
     "referenced_type" : "type-104"
    }
   ],
   "linker_set_key" : "android::sp<android::hardware::hidl_death_recipient>",
   "name" : "android::sp<android::hardware::hidl_death_recipient>",
   "record_kind" : "class",
   "referenced_type" : "type-412",
   "self_type" : "type-412",
   "size" : 8,
   "source_file" : "/system/core/libutils/include/utils/StrongPointer.h",
   "template_args" : [ "type-105" ],
   "unique_id" : "_ZTSN7android2spINS_8hardware20hidl_death_recipientEEE"
  },
  {
   "alignment" : 8,
   "fields" :
   [
    {
     "access" : "private",
     "field_name" : "m_ptr",
     "referenced_type" : "type-3"
    }
   ],
   "linker_set_key" : "android::sp<android::hidl::base::V1_0::IBase>",
   "name" : "android::sp<android::hidl::base::V1_0::IBase>",
   "record_kind" : "class",
   "referenced_type" : "type-391",
   "self_type" : "type-391",
   "size" : 8,
   "source_file" : "/system/core/libutils/include/utils/StrongPointer.h",
   "template_args" : [ "type-4" ],
   "unique_id" : "_ZTSN7android2spINS_4hidl4base4V1_05IBaseEEE"
  },
  {
   "alignment" : 8,
   "fields" :
   [
    {
     "access" : "private",
     "field_name" : "m_ptr",
     "referenced_type" : "type-60"
    }
   ],
   "linker_set_key" : "android::sp<android::hidl::manager::V1_0::IServiceManager>",
   "name" : "android::sp<android::hidl::manager::V1_0::IServiceManager>",
   "record_kind" : "class",
   "referenced_type" : "type-59",
   "self_type" : "type-59",
   "size" : 8,
   "source_file" : "/system/core/libutils/include/utils/StrongPointer.h",
   "template_args" : [ "type-61" ],
   "unique_id" : "_ZTSN7android2spINS_4hidl7manager4V1_015IServiceManagerEEE"
  },
  {
   "alignment" : 8,
   "fields" :
   [
    {
     "access" : "private",
     "field_name" : "m_ptr",
     "referenced_type" : "type-75"
    }
   ],
   "linker_set_key" : "android::sp<android::hidl::manager::V1_0::IServiceNotification>",
   "name" : "android::sp<android::hidl::manager::V1_0::IServiceNotification>",
   "record_kind" : "class",
   "referenced_type" : "type-74",
   "self_type" : "type-74",
   "size" : 8,
   "source_file" : "/system/core/libutils/include/utils/StrongPointer.h",
   "template_args" : [ "type-76" ],
   "unique_id" : "_ZTSN7android2spINS_4hidl7manager4V1_020IServiceNotificationEEE"
  },
  {
   "alignment" : 1,
   "linker_set_key" : "android::trait_trivial_copy<bool>",
   "name" : "android::trait_trivial_copy<bool>",
   "referenced_type" : "type-169",
   "self_type" : "type-169",
   "size" : 1,
   "source_file" : "/system/core/libutils/include/utils/TypeHelpers.h",
   "template_args" : [ "type-36" ],
   "unique_id" : "_ZTSN7android18trait_trivial_copyIbEE"
  },
  {
   "alignment" : 1,
   "linker_set_key" : "android::trait_trivial_copy<char>",
   "name" : "android::trait_trivial_copy<char>",
   "referenced_type" : "type-173",
   "self_type" : "type-173",
   "size" : 1,
   "source_file" : "/system/core/libutils/include/utils/TypeHelpers.h",
   "template_args" : [ "type-53" ],
   "unique_id" : "_ZTSN7android18trait_trivial_copyIcEE"
  },
  {
   "alignment" : 1,
   "linker_set_key" : "android::trait_trivial_copy<double>",
   "name" : "android::trait_trivial_copy<double>",
   "referenced_type" : "type-230",
   "self_type" : "type-230",
   "size" : 1,
   "source_file" : "/system/core/libutils/include/utils/TypeHelpers.h",
   "template_args" : [ "type-227" ],
   "unique_id" : "_ZTSN7android18trait_trivial_copyIdEE"
  },
  {
   "alignment" : 1,
   "linker_set_key" : "android::trait_trivial_copy<float>",
   "name" : "android::trait_trivial_copy<float>",
   "referenced_type" : "type-224",
   "self_type" : "type-224",
   "size" : 1,
   "source_file" : "/system/core/libutils/include/utils/TypeHelpers.h",
   "template_args" : [ "type-222" ],
   "unique_id" : "_ZTSN7android18trait_trivial_copyIfEE"
  },
  {
   "alignment" : 1,
   "linker_set_key" : "android::trait_trivial_copy<int>",
   "name" : "android::trait_trivial_copy<int>",
   "referenced_type" : "type-192",
   "self_type" : "type-192",
   "size" : 1,
   "source_file" : "/system/core/libutils/include/utils/TypeHelpers.h",
   "template_args" : [ "type-20" ],
   "unique_id" : "_ZTSN7android18trait_trivial_copyIiEE"
  },
  {
   "alignment" : 1,
   "linker_set_key" : "android::trait_trivial_copy<long long>",
   "name" : "android::trait_trivial_copy<long long>",
   "referenced_type" : "type-211",
   "self_type" : "type-211",
   "size" : 1,
   "source_file" : "/system/core/libutils/include/utils/TypeHelpers.h",
   "template_args" : [ "type-209" ],
   "unique_id" : "_ZTSN7android18trait_trivial_copyIxEE"
  },
  {
   "alignment" : 1,
   "linker_set_key" : "android::trait_trivial_copy<long>",
   "name" : "android::trait_trivial_copy<long>",
   "referenced_type" : "type-200",
   "self_type" : "type-200",
   "size" : 1,
   "source_file" : "/system/core/libutils/include/utils/TypeHelpers.h",
   "template_args" : [ "type-26" ],
   "unique_id" : "_ZTSN7android18trait_trivial_copyIlEE"
  },
  {
   "alignment" : 1,
   "linker_set_key" : "android::trait_trivial_copy<short>",
   "name" : "android::trait_trivial_copy<short>",
   "referenced_type" : "type-183",
   "self_type" : "type-183",
   "size" : 1,
   "source_file" : "/system/core/libutils/include/utils/TypeHelpers.h",
   "template_args" : [ "type-181" ],
   "unique_id" : "_ZTSN7android18trait_trivial_copyIsEE"
  },
  {
   "alignment" : 1,
   "linker_set_key" : "android::trait_trivial_copy<unsigned char>",
   "name" : "android::trait_trivial_copy<unsigned char>",
   "referenced_type" : "type-177",
   "self_type" : "type-177",
   "size" : 1,
   "source_file" : "/system/core/libutils/include/utils/TypeHelpers.h",
   "template_args" : [ "type-81" ],
   "unique_id" : "_ZTSN7android18trait_trivial_copyIhEE"
  },
  {
   "alignment" : 1,
   "linker_set_key" : "android::trait_trivial_copy<unsigned int>",
   "name" : "android::trait_trivial_copy<unsigned int>",
   "referenced_type" : "type-196",
   "self_type" : "type-196",
   "size" : 1,
   "source_file" : "/system/core/libutils/include/utils/TypeHelpers.h",
   "template_args" : [ "type-2" ],
   "unique_id" : "_ZTSN7android18trait_trivial_copyIjEE"
  },
  {
   "alignment" : 1,
   "linker_set_key" : "android::trait_trivial_copy<unsigned long long>",
   "name" : "android::trait_trivial_copy<unsigned long long>",
   "referenced_type" : "type-219",
   "self_type" : "type-219",
   "size" : 1,
   "source_file" : "/system/core/libutils/include/utils/TypeHelpers.h",
   "template_args" : [ "type-216" ],
   "unique_id" : "_ZTSN7android18trait_trivial_copyIyEE"
  },
  {
   "alignment" : 1,
   "linker_set_key" : "android::trait_trivial_copy<unsigned long>",
   "name" : "android::trait_trivial_copy<unsigned long>",
   "referenced_type" : "type-206",
   "self_type" : "type-206",
   "size" : 1,
   "source_file" : "/system/core/libutils/include/utils/TypeHelpers.h",
   "template_args" : [ "type-25" ],
   "unique_id" : "_ZTSN7android18trait_trivial_copyImEE"
  },
  {
   "alignment" : 1,
   "linker_set_key" : "android::trait_trivial_copy<unsigned short>",
   "name" : "android::trait_trivial_copy<unsigned short>",
   "referenced_type" : "type-187",
   "self_type" : "type-187",
   "size" : 1,
   "source_file" : "/system/core/libutils/include/utils/TypeHelpers.h",
   "template_args" : [ "type-83" ],
   "unique_id" : "_ZTSN7android18trait_trivial_copyItEE"
  },
  {
   "alignment" : 1,
   "linker_set_key" : "android::trait_trivial_copy<void>",
   "name" : "android::trait_trivial_copy<void>",
   "referenced_type" : "type-164",
   "self_type" : "type-164",
   "size" : 1,
   "source_file" : "/system/core/libutils/include/utils/TypeHelpers.h",
   "template_args" : [ "type-22" ],
   "unique_id" : "_ZTSN7android18trait_trivial_copyIvEE"
  },
  {
   "alignment" : 1,
   "linker_set_key" : "android::trait_trivial_ctor<bool>",
   "name" : "android::trait_trivial_ctor<bool>",
   "referenced_type" : "type-166",
   "self_type" : "type-166",
   "size" : 1,
   "source_file" : "/system/core/libutils/include/utils/TypeHelpers.h",
   "template_args" : [ "type-36" ],
   "unique_id" : "_ZTSN7android18trait_trivial_ctorIbEE"
  },
  {
   "alignment" : 1,
   "linker_set_key" : "android::trait_trivial_ctor<char>",
   "name" : "android::trait_trivial_ctor<char>",
   "referenced_type" : "type-171",
   "self_type" : "type-171",
   "size" : 1,
   "source_file" : "/system/core/libutils/include/utils/TypeHelpers.h",
   "template_args" : [ "type-53" ],
   "unique_id" : "_ZTSN7android18trait_trivial_ctorIcEE"
  },
  {
   "alignment" : 1,
   "linker_set_key" : "android::trait_trivial_ctor<double>",
   "name" : "android::trait_trivial_ctor<double>",
   "referenced_type" : "type-226",
   "self_type" : "type-226",
   "size" : 1,
   "source_file" : "/system/core/libutils/include/utils/TypeHelpers.h",
   "template_args" : [ "type-227" ],
   "unique_id" : "_ZTSN7android18trait_trivial_ctorIdEE"
  },
  {
   "alignment" : 1,
   "linker_set_key" : "android::trait_trivial_ctor<float>",
   "name" : "android::trait_trivial_ctor<float>",
   "referenced_type" : "type-221",
   "self_type" : "type-221",
   "size" : 1,
   "source_file" : "/system/core/libutils/include/utils/TypeHelpers.h",
   "template_args" : [ "type-222" ],
   "unique_id" : "_ZTSN7android18trait_trivial_ctorIfEE"
  },
  {
   "alignment" : 1,
   "linker_set_key" : "android::trait_trivial_ctor<int>",
   "name" : "android::trait_trivial_ctor<int>",
   "referenced_type" : "type-189",
   "self_type" : "type-189",
   "size" : 1,
   "source_file" : "/system/core/libutils/include/utils/TypeHelpers.h",
   "template_args" : [ "type-20" ],
   "unique_id" : "_ZTSN7android18trait_trivial_ctorIiEE"
  },
  {
   "alignment" : 1,
   "linker_set_key" : "android::trait_trivial_ctor<long long>",
   "name" : "android::trait_trivial_ctor<long long>",
   "referenced_type" : "type-208",
   "self_type" : "type-208",
   "size" : 1,
   "source_file" : "/system/core/libutils/include/utils/TypeHelpers.h",
   "template_args" : [ "type-209" ],
   "unique_id" : "_ZTSN7android18trait_trivial_ctorIxEE"
  },
  {
   "alignment" : 1,
   "linker_set_key" : "android::trait_trivial_ctor<long>",
   "name" : "android::trait_trivial_ctor<long>",
   "referenced_type" : "type-198",
   "self_type" : "type-198",
   "size" : 1,
   "source_file" : "/system/core/libutils/include/utils/TypeHelpers.h",
   "template_args" : [ "type-26" ],
   "unique_id" : "_ZTSN7android18trait_trivial_ctorIlEE"
  },
  {
   "alignment" : 1,
   "linker_set_key" : "android::trait_trivial_ctor<short>",
   "name" : "android::trait_trivial_ctor<short>",
   "referenced_type" : "type-180",
   "self_type" : "type-180",
   "size" : 1,
   "source_file" : "/system/core/libutils/include/utils/TypeHelpers.h",
   "template_args" : [ "type-181" ],
   "unique_id" : "_ZTSN7android18trait_trivial_ctorIsEE"
  },
  {
   "alignment" : 1,
   "linker_set_key" : "android::trait_trivial_ctor<unsigned char>",
   "name" : "android::trait_trivial_ctor<unsigned char>",
   "referenced_type" : "type-175",
   "self_type" : "type-175",
   "size" : 1,
   "source_file" : "/system/core/libutils/include/utils/TypeHelpers.h",
   "template_args" : [ "type-81" ],
   "unique_id" : "_ZTSN7android18trait_trivial_ctorIhEE"
  },
  {
   "alignment" : 1,
   "linker_set_key" : "android::trait_trivial_ctor<unsigned int>",
   "name" : "android::trait_trivial_ctor<unsigned int>",
   "referenced_type" : "type-194",
   "self_type" : "type-194",
   "size" : 1,
   "source_file" : "/system/core/libutils/include/utils/TypeHelpers.h",
   "template_args" : [ "type-2" ],
   "unique_id" : "_ZTSN7android18trait_trivial_ctorIjEE"
  },
  {
   "alignment" : 1,
   "linker_set_key" : "android::trait_trivial_ctor<unsigned long long>",
   "name" : "android::trait_trivial_ctor<unsigned long long>",
   "referenced_type" : "type-215",
   "self_type" : "type-215",
   "size" : 1,
   "source_file" : "/system/core/libutils/include/utils/TypeHelpers.h",
   "template_args" : [ "type-216" ],
   "unique_id" : "_ZTSN7android18trait_trivial_ctorIyEE"
  },
  {
   "alignment" : 1,
   "linker_set_key" : "android::trait_trivial_ctor<unsigned long>",
   "name" : "android::trait_trivial_ctor<unsigned long>",
   "referenced_type" : "type-203",
   "self_type" : "type-203",
   "size" : 1,
   "source_file" : "/system/core/libutils/include/utils/TypeHelpers.h",
   "template_args" : [ "type-25" ],
   "unique_id" : "_ZTSN7android18trait_trivial_ctorImEE"
  },
  {
   "alignment" : 1,
   "linker_set_key" : "android::trait_trivial_ctor<unsigned short>",
   "name" : "android::trait_trivial_ctor<unsigned short>",
   "referenced_type" : "type-185",
   "self_type" : "type-185",
   "size" : 1,
   "source_file" : "/system/core/libutils/include/utils/TypeHelpers.h",
   "template_args" : [ "type-83" ],
   "unique_id" : "_ZTSN7android18trait_trivial_ctorItEE"
  },
  {
   "alignment" : 1,
   "linker_set_key" : "android::trait_trivial_ctor<void>",
   "name" : "android::trait_trivial_ctor<void>",
   "referenced_type" : "type-162",
   "self_type" : "type-162",
   "size" : 1,
   "source_file" : "/system/core/libutils/include/utils/TypeHelpers.h",
   "template_args" : [ "type-22" ],
   "unique_id" : "_ZTSN7android18trait_trivial_ctorIvEE"
  },
  {
   "alignment" : 1,
   "linker_set_key" : "android::trait_trivial_dtor<bool>",
   "name" : "android::trait_trivial_dtor<bool>",
   "referenced_type" : "type-167",
   "self_type" : "type-167",
   "size" : 1,
   "source_file" : "/system/core/libutils/include/utils/TypeHelpers.h",
   "template_args" : [ "type-36" ],
   "unique_id" : "_ZTSN7android18trait_trivial_dtorIbEE"
  },
  {
   "alignment" : 1,
   "linker_set_key" : "android::trait_trivial_dtor<char>",
   "name" : "android::trait_trivial_dtor<char>",
   "referenced_type" : "type-172",
   "self_type" : "type-172",
   "size" : 1,
   "source_file" : "/system/core/libutils/include/utils/TypeHelpers.h",
   "template_args" : [ "type-53" ],
   "unique_id" : "_ZTSN7android18trait_trivial_dtorIcEE"
  },
  {
   "alignment" : 1,
   "linker_set_key" : "android::trait_trivial_dtor<double>",
   "name" : "android::trait_trivial_dtor<double>",
   "referenced_type" : "type-228",
   "self_type" : "type-228",
   "size" : 1,
   "source_file" : "/system/core/libutils/include/utils/TypeHelpers.h",
   "template_args" : [ "type-227" ],
   "unique_id" : "_ZTSN7android18trait_trivial_dtorIdEE"
  },
  {
   "alignment" : 1,
   "linker_set_key" : "android::trait_trivial_dtor<float>",
   "name" : "android::trait_trivial_dtor<float>",
   "referenced_type" : "type-223",
   "self_type" : "type-223",
   "size" : 1,
   "source_file" : "/system/core/libutils/include/utils/TypeHelpers.h",
   "template_args" : [ "type-222" ],
   "unique_id" : "_ZTSN7android18trait_trivial_dtorIfEE"
  },
  {
   "alignment" : 1,
   "linker_set_key" : "android::trait_trivial_dtor<int>",
   "name" : "android::trait_trivial_dtor<int>",
   "referenced_type" : "type-191",
   "self_type" : "type-191",
   "size" : 1,
   "source_file" : "/system/core/libutils/include/utils/TypeHelpers.h",
   "template_args" : [ "type-20" ],
   "unique_id" : "_ZTSN7android18trait_trivial_dtorIiEE"
  },
  {
   "alignment" : 1,
   "linker_set_key" : "android::trait_trivial_dtor<long long>",
   "name" : "android::trait_trivial_dtor<long long>",
   "referenced_type" : "type-210",
   "self_type" : "type-210",
   "size" : 1,
   "source_file" : "/system/core/libutils/include/utils/TypeHelpers.h",
   "template_args" : [ "type-209" ],
   "unique_id" : "_ZTSN7android18trait_trivial_dtorIxEE"
  },
  {
   "alignment" : 1,
   "linker_set_key" : "android::trait_trivial_dtor<long>",
   "name" : "android::trait_trivial_dtor<long>",
   "referenced_type" : "type-199",
   "self_type" : "type-199",
   "size" : 1,
   "source_file" : "/system/core/libutils/include/utils/TypeHelpers.h",
   "template_args" : [ "type-26" ],
   "unique_id" : "_ZTSN7android18trait_trivial_dtorIlEE"
  },
  {
   "alignment" : 1,
   "linker_set_key" : "android::trait_trivial_dtor<short>",
   "name" : "android::trait_trivial_dtor<short>",
   "referenced_type" : "type-182",
   "self_type" : "type-182",
   "size" : 1,
   "source_file" : "/system/core/libutils/include/utils/TypeHelpers.h",
   "template_args" : [ "type-181" ],
   "unique_id" : "_ZTSN7android18trait_trivial_dtorIsEE"
  },
  {
   "alignment" : 1,
   "linker_set_key" : "android::trait_trivial_dtor<unsigned char>",
   "name" : "android::trait_trivial_dtor<unsigned char>",
   "referenced_type" : "type-176",
   "self_type" : "type-176",
   "size" : 1,
   "source_file" : "/system/core/libutils/include/utils/TypeHelpers.h",
   "template_args" : [ "type-81" ],
   "unique_id" : "_ZTSN7android18trait_trivial_dtorIhEE"
  },
  {
   "alignment" : 1,
   "linker_set_key" : "android::trait_trivial_dtor<unsigned int>",
   "name" : "android::trait_trivial_dtor<unsigned int>",
   "referenced_type" : "type-195",
   "self_type" : "type-195",
   "size" : 1,
   "source_file" : "/system/core/libutils/include/utils/TypeHelpers.h",
   "template_args" : [ "type-2" ],
   "unique_id" : "_ZTSN7android18trait_trivial_dtorIjEE"
  },
  {
   "alignment" : 1,
   "linker_set_key" : "android::trait_trivial_dtor<unsigned long long>",
   "name" : "android::trait_trivial_dtor<unsigned long long>",
   "referenced_type" : "type-217",
   "self_type" : "type-217",
   "size" : 1,
   "source_file" : "/system/core/libutils/include/utils/TypeHelpers.h",
   "template_args" : [ "type-216" ],
   "unique_id" : "_ZTSN7android18trait_trivial_dtorIyEE"
  },
  {
   "alignment" : 1,
   "linker_set_key" : "android::trait_trivial_dtor<unsigned long>",
   "name" : "android::trait_trivial_dtor<unsigned long>",
   "referenced_type" : "type-204",
   "self_type" : "type-204",
   "size" : 1,
   "source_file" : "/system/core/libutils/include/utils/TypeHelpers.h",
   "template_args" : [ "type-25" ],
   "unique_id" : "_ZTSN7android18trait_trivial_dtorImEE"
  },
  {
   "alignment" : 1,
   "linker_set_key" : "android::trait_trivial_dtor<unsigned short>",
   "name" : "android::trait_trivial_dtor<unsigned short>",
   "referenced_type" : "type-186",
   "self_type" : "type-186",
   "size" : 1,
   "source_file" : "/system/core/libutils/include/utils/TypeHelpers.h",
   "template_args" : [ "type-83" ],
   "unique_id" : "_ZTSN7android18trait_trivial_dtorItEE"
  },
  {
   "alignment" : 1,
   "linker_set_key" : "android::trait_trivial_dtor<void>",
   "name" : "android::trait_trivial_dtor<void>",
   "referenced_type" : "type-163",
   "self_type" : "type-163",
   "size" : 1,
   "source_file" : "/system/core/libutils/include/utils/TypeHelpers.h",
   "template_args" : [ "type-22" ],
   "unique_id" : "_ZTSN7android18trait_trivial_dtorIvEE"
  },
  {
   "alignment" : 1,
   "linker_set_key" : "android::trait_trivial_move<android::String16>",
   "name" : "android::trait_trivial_move<android::String16>",
   "referenced_type" : "type-365",
   "self_type" : "type-365",
   "size" : 1,
   "source_file" : "/system/core/libutils/include/utils/String16.h",
   "template_args" : [ "type-41" ],
   "unique_id" : "_ZTSN7android18trait_trivial_moveINS_8String16EEE"
  },
  {
   "alignment" : 1,
   "linker_set_key" : "android::trait_trivial_move<android::String8>",
   "name" : "android::trait_trivial_move<android::String8>",
   "referenced_type" : "type-359",
   "self_type" : "type-359",
   "size" : 1,
   "source_file" : "/system/core/libutils/include/utils/String8.h",
   "template_args" : [ "type-50" ],
   "unique_id" : "_ZTSN7android18trait_trivial_moveINS_7String8EEE"
  },
  {
   "alignment" : 1,
   "linker_set_key" : "android::trait_trivial_move<bool>",
   "name" : "android::trait_trivial_move<bool>",
   "referenced_type" : "type-170",
   "self_type" : "type-170",
   "size" : 1,
   "source_file" : "/system/core/libutils/include/utils/TypeHelpers.h",
   "template_args" : [ "type-36" ],
   "unique_id" : "_ZTSN7android18trait_trivial_moveIbEE"
  },
  {
   "alignment" : 1,
   "linker_set_key" : "android::trait_trivial_move<char>",
   "name" : "android::trait_trivial_move<char>",
   "referenced_type" : "type-174",
   "self_type" : "type-174",
   "size" : 1,
   "source_file" : "/system/core/libutils/include/utils/TypeHelpers.h",
   "template_args" : [ "type-53" ],
   "unique_id" : "_ZTSN7android18trait_trivial_moveIcEE"
  },
  {
   "alignment" : 1,
   "linker_set_key" : "android::trait_trivial_move<double>",
   "name" : "android::trait_trivial_move<double>",
   "referenced_type" : "type-231",
   "self_type" : "type-231",
   "size" : 1,
   "source_file" : "/system/core/libutils/include/utils/TypeHelpers.h",
   "template_args" : [ "type-227" ],
   "unique_id" : "_ZTSN7android18trait_trivial_moveIdEE"
  },
  {
   "alignment" : 1,
   "linker_set_key" : "android::trait_trivial_move<float>",
   "name" : "android::trait_trivial_move<float>",
   "referenced_type" : "type-225",
   "self_type" : "type-225",
   "size" : 1,
   "source_file" : "/system/core/libutils/include/utils/TypeHelpers.h",
   "template_args" : [ "type-222" ],
   "unique_id" : "_ZTSN7android18trait_trivial_moveIfEE"
  },
  {
   "alignment" : 1,
   "linker_set_key" : "android::trait_trivial_move<int>",
   "name" : "android::trait_trivial_move<int>",
   "referenced_type" : "type-193",
   "self_type" : "type-193",
   "size" : 1,
   "source_file" : "/system/core/libutils/include/utils/TypeHelpers.h",
   "template_args" : [ "type-20" ],
   "unique_id" : "_ZTSN7android18trait_trivial_moveIiEE"
  },
  {
   "alignment" : 1,
   "linker_set_key" : "android::trait_trivial_move<long long>",
   "name" : "android::trait_trivial_move<long long>",
   "referenced_type" : "type-214",
   "self_type" : "type-214",
   "size" : 1,
   "source_file" : "/system/core/libutils/include/utils/TypeHelpers.h",
   "template_args" : [ "type-209" ],
   "unique_id" : "_ZTSN7android18trait_trivial_moveIxEE"
  },
  {
   "alignment" : 1,
   "linker_set_key" : "android::trait_trivial_move<long>",
   "name" : "android::trait_trivial_move<long>",
   "referenced_type" : "type-202",
   "self_type" : "type-202",
   "size" : 1,
   "source_file" : "/system/core/libutils/include/utils/TypeHelpers.h",
   "template_args" : [ "type-26" ],
   "unique_id" : "_ZTSN7android18trait_trivial_moveIlEE"
  },
  {
   "alignment" : 1,
   "linker_set_key" : "android::trait_trivial_move<short>",
   "name" : "android::trait_trivial_move<short>",
   "referenced_type" : "type-184",
   "self_type" : "type-184",
   "size" : 1,
   "source_file" : "/system/core/libutils/include/utils/TypeHelpers.h",
   "template_args" : [ "type-181" ],
   "unique_id" : "_ZTSN7android18trait_trivial_moveIsEE"
  },
  {
   "alignment" : 1,
   "linker_set_key" : "android::trait_trivial_move<unsigned char>",
   "name" : "android::trait_trivial_move<unsigned char>",
   "referenced_type" : "type-178",
   "self_type" : "type-178",
   "size" : 1,
   "source_file" : "/system/core/libutils/include/utils/TypeHelpers.h",
   "template_args" : [ "type-81" ],
   "unique_id" : "_ZTSN7android18trait_trivial_moveIhEE"
  },
  {
   "alignment" : 1,
   "linker_set_key" : "android::trait_trivial_move<unsigned int>",
   "name" : "android::trait_trivial_move<unsigned int>",
   "referenced_type" : "type-197",
   "self_type" : "type-197",
   "size" : 1,
   "source_file" : "/system/core/libutils/include/utils/TypeHelpers.h",
   "template_args" : [ "type-2" ],
   "unique_id" : "_ZTSN7android18trait_trivial_moveIjEE"
  },
  {
   "alignment" : 1,
   "linker_set_key" : "android::trait_trivial_move<unsigned long long>",
   "name" : "android::trait_trivial_move<unsigned long long>",
   "referenced_type" : "type-220",
   "self_type" : "type-220",
   "size" : 1,
   "source_file" : "/system/core/libutils/include/utils/TypeHelpers.h",
   "template_args" : [ "type-216" ],
   "unique_id" : "_ZTSN7android18trait_trivial_moveIyEE"
  },
  {
   "alignment" : 1,
   "linker_set_key" : "android::trait_trivial_move<unsigned long>",
   "name" : "android::trait_trivial_move<unsigned long>",
   "referenced_type" : "type-207",
   "self_type" : "type-207",
   "size" : 1,
   "source_file" : "/system/core/libutils/include/utils/TypeHelpers.h",
   "template_args" : [ "type-25" ],
   "unique_id" : "_ZTSN7android18trait_trivial_moveImEE"
  },
  {
   "alignment" : 1,
   "linker_set_key" : "android::trait_trivial_move<unsigned short>",
   "name" : "android::trait_trivial_move<unsigned short>",
   "referenced_type" : "type-188",
   "self_type" : "type-188",
   "size" : 1,
   "source_file" : "/system/core/libutils/include/utils/TypeHelpers.h",
   "template_args" : [ "type-83" ],
   "unique_id" : "_ZTSN7android18trait_trivial_moveItEE"
  },
  {
   "alignment" : 1,
   "linker_set_key" : "android::trait_trivial_move<void>",
   "name" : "android::trait_trivial_move<void>",
   "referenced_type" : "type-165",
   "self_type" : "type-165",
   "size" : 1,
   "source_file" : "/system/core/libutils/include/utils/TypeHelpers.h",
   "template_args" : [ "type-22" ],
   "unique_id" : "_ZTSN7android18trait_trivial_moveIvEE"
  },
  {
   "alignment" : 8,
   "fields" :
   [
    {
     "access" : "private",
     "field_name" : "m_ptr",
     "referenced_type" : "type-114"
    },
    {
     "access" : "private",
     "field_name" : "m_refs",
     "field_offset" : 64,
     "referenced_type" : "type-34"
    }
   ],
   "linker_set_key" : "android::wp<android::hardware::BHwBinder>",
   "name" : "android::wp<android::hardware::BHwBinder>",
   "record_kind" : "class",
   "referenced_type" : "type-420",
   "self_type" : "type-420",
   "size" : 16,
   "source_file" : "/system/core/libutils/include/utils/RefBase.h",
   "template_args" : [ "type-115" ],
   "unique_id" : "_ZTSN7android2wpINS_8hardware9BHwBinderEEE"
  },
  {
   "alignment" : 8,
   "fields" :
   [
    {
     "access" : "private",
     "field_name" : "m_ptr",
     "referenced_type" : "type-213"
    },
    {
     "access" : "private",
     "field_name" : "m_refs",
     "field_offset" : 64,
     "referenced_type" : "type-34"
    }
   ],
   "linker_set_key" : "android::wp<android::hardware::IBinder::DeathRecipient>",
   "name" : "android::wp<android::hardware::IBinder::DeathRecipient>",
   "record_kind" : "class",
   "referenced_type" : "type-212",
   "self_type" : "type-212",
   "size" : 16,
   "source_file" : "/system/core/libutils/include/utils/RefBase.h",
   "template_args" : [ "type-107" ],
   "unique_id" : "_ZTSN7android2wpINS_8hardware7IBinder14DeathRecipientEEE"
  },
  {
   "alignment" : 8,
   "fields" :
   [
    {
     "access" : "private",
     "field_name" : "m_ptr",
     "referenced_type" : "type-104"
    },
    {
     "access" : "private",
     "field_name" : "m_refs",
     "field_offset" : 64,
     "referenced_type" : "type-34"
    }
   ],
   "linker_set_key" : "android::wp<android::hardware::hidl_death_recipient>",
   "name" : "android::wp<android::hardware::hidl_death_recipient>",
   "record_kind" : "class",
   "referenced_type" : "type-103",
   "self_type" : "type-103",
   "size" : 16,
   "source_file" : "/system/core/libutils/include/utils/RefBase.h",
   "template_args" : [ "type-105" ],
   "unique_id" : "_ZTSN7android2wpINS_8hardware20hidl_death_recipientEEE"
  },
  {
   "alignment" : 8,
   "fields" :
   [
    {
     "access" : "private",
     "field_name" : "m_ptr",
     "referenced_type" : "type-3"
    },
    {
     "access" : "private",
     "field_name" : "m_refs",
     "field_offset" : 64,
     "referenced_type" : "type-34"
    }
   ],
   "linker_set_key" : "android::wp<android::hidl::base::V1_0::IBase>",
   "name" : "android::wp<android::hidl::base::V1_0::IBase>",
   "record_kind" : "class",
   "referenced_type" : "type-106",
   "self_type" : "type-106",
   "size" : 16,
   "source_file" : "/system/core/libutils/include/utils/RefBase.h",
   "template_args" : [ "type-4" ],
   "unique_id" : "_ZTSN7android2wpINS_4hidl4base4V1_05IBaseEEE"
  },
  {
   "alignment" : 4,
   "fields" :
   [
    {
     "field_name" : "maxContentLightLevel",
     "referenced_type" : "type-222"
    },
    {
     "field_name" : "maxFrameAverageLightLevel",
     "field_offset" : 32,
     "referenced_type" : "type-222"
    }
   ],
   "linker_set_key" : "android_cta861_3_metadata",
   "name" : "android_cta861_3_metadata",
   "referenced_type" : "type-470",
   "self_type" : "type-470",
   "size" : 8,
   "source_file" : "/system/core/libsystem/include/system/graphics.h",
   "unique_id" : "android_cta861_3_metadata"
  },
  {
   "alignment" : 4,
   "fields" :
   [
    {
     "field_name" : "num_points",
     "referenced_type" : "type-2"
    },
    {
     "field_name" : "reserved",
     "field_offset" : 32,
     "referenced_type" : "type-460"
    },
    {
     "field_name" : "xyzc_points",
     "field_offset" : 288,
     "referenced_type" : "type-467"
    }
   ],
   "linker_set_key" : "android_depth_points",
   "name" : "android_depth_points",
   "referenced_type" : "type-466",
   "self_type" : "type-466",
   "size" : 36,
   "source_file" : "/system/core/libsystem/include/system/graphics.h",
   "unique_id" : "android_depth_points"
  },
  {
   "alignment" : 8,
   "fields" :
   [
    {
     "field_name" : "format",
     "referenced_type" : "type-463"
    },
    {
     "field_name" : "num_planes",
     "field_offset" : 32,
     "referenced_type" : "type-2"
    },
    {
     "field_name" : "planes",
     "field_offset" : 64,
     "referenced_type" : "type-465"
    }
   ],
   "linker_set_key" : "android_flex_layout",
   "name" : "android_flex_layout",
   "referenced_type" : "type-464",
   "self_type" : "type-464",
   "size" : 16,
   "source_file" : "/system/core/libsystem/include/system/graphics.h",
   "unique_id" : "android_flex_layout"
  },
  {
   "alignment" : 8,
   "fields" :
   [
    {
     "field_name" : "top_left",
     "referenced_type" : "type-376"
    },
    {
     "field_name" : "component",
     "field_offset" : 64,
     "referenced_type" : "type-461"
    },
    {
     "field_name" : "bits_per_component",
     "field_offset" : 96,
     "referenced_type" : "type-20"
    },
    {
     "field_name" : "bits_used",
     "field_offset" : 128,
     "referenced_type" : "type-20"
    },
    {
     "field_name" : "h_increment",
     "field_offset" : 160,
     "referenced_type" : "type-20"
    },
    {
     "field_name" : "v_increment",
     "field_offset" : 192,
     "referenced_type" : "type-20"
    },
    {
     "field_name" : "h_subsampling",
     "field_offset" : 224,
     "referenced_type" : "type-20"
    },
    {
     "field_name" : "v_subsampling",
     "field_offset" : 256,
     "referenced_type" : "type-20"
    }
   ],
   "linker_set_key" : "android_flex_plane",
   "name" : "android_flex_plane",
   "referenced_type" : "type-462",
   "self_type" : "type-462",
   "size" : 40,
   "source_file" : "/system/core/libsystem/include/system/graphics.h",
   "unique_id" : "android_flex_plane"
  },
  {
   "alignment" : 4,
   "fields" :
   [
    {
     "field_name" : "displayPrimaryRed",
     "referenced_type" : "type-468"
    },
    {
     "field_name" : "displayPrimaryGreen",
     "field_offset" : 64,
     "referenced_type" : "type-468"
    },
    {
     "field_name" : "displayPrimaryBlue",
     "field_offset" : 128,
     "referenced_type" : "type-468"
    },
    {
     "field_name" : "whitePoint",
     "field_offset" : 192,
     "referenced_type" : "type-468"
    },
    {
     "field_name" : "maxLuminance",
     "field_offset" : 256,
     "referenced_type" : "type-222"
    },
    {
     "field_name" : "minLuminance",
     "field_offset" : 288,
     "referenced_type" : "type-222"
    }
   ],
   "linker_set_key" : "android_smpte2086_metadata",
   "name" : "android_smpte2086_metadata",
   "referenced_type" : "type-469",
   "self_type" : "type-469",
   "size" : 40,
   "source_file" : "/system/core/libsystem/include/system/graphics.h",
   "unique_id" : "android_smpte2086_metadata"
  },
  {
   "alignment" : 4,
   "fields" :
   [
    {
     "field_name" : "x",
     "referenced_type" : "type-222"
    },
    {
     "field_name" : "y",
     "field_offset" : 32,
     "referenced_type" : "type-222"
    }
   ],
   "linker_set_key" : "android_xy_color",
   "name" : "android_xy_color",
   "referenced_type" : "type-468",
   "self_type" : "type-468",
   "size" : 8,
   "source_file" : "/system/core/libsystem/include/system/graphics.h",
   "unique_id" : "android_xy_color"
  },
  {
   "alignment" : 8,
   "fields" :
   [
    {
     "field_name" : "y",
     "referenced_type" : "type-21"
    },
    {
     "field_name" : "cb",
     "field_offset" : 64,
     "referenced_type" : "type-21"
    },
    {
     "field_name" : "cr",
     "field_offset" : 128,
     "referenced_type" : "type-21"
    },
    {
     "field_name" : "ystride",
     "field_offset" : 192,
     "referenced_type" : "type-25"
    },
    {
     "field_name" : "cstride",
     "field_offset" : 256,
     "referenced_type" : "type-25"
    },
    {
     "field_name" : "chroma_step",
     "field_offset" : 320,
     "referenced_type" : "type-25"
    },
    {
     "field_name" : "reserved",
     "field_offset" : 384,
     "referenced_type" : "type-460"
    }
   ],
   "linker_set_key" : "android_ycbcr",
   "name" : "android_ycbcr",
   "referenced_type" : "type-459",
   "self_type" : "type-459",
   "size" : 80,
   "source_file" : "/system/core/libsystem/include/system/graphics.h",
   "unique_id" : "android_ycbcr"
  },
  {
   "alignment" : 4,
   "fields" :
   [
    {
     "referenced_type" : "type-79"
    }
   ],
   "linker_set_key" : "log_msg",
   "name" : "log_msg",
   "referenced_type" : "type-78",
   "self_type" : "type-78",
   "size" : 5124,
   "source_file" : "/system/core/liblog/include/log/log_read.h",
   "unique_id" : "log_msg"
  },
  {
   "alignment" : 4,
   "fields" :
   [
    {
     "field_name" : "buf",
     "referenced_type" : "type-80"
    },
    {
     "field_name" : "entry",
     "referenced_type" : "type-82"
    },
    {
     "field_name" : "entry_v4",
     "referenced_type" : "type-82"
    },
    {
     "field_name" : "entry_v3",
     "referenced_type" : "type-85"
    },
    {
     "field_name" : "entry_v2",
     "referenced_type" : "type-86"
    },
    {
     "field_name" : "entry_v1",
     "referenced_type" : "type-87"
    }
   ],
   "is_anonymous" : true,
   "linker_set_key" : "log_msg::(anonymous union at system/core/liblog/include_vndk/log/log_read.h:139:3) at system/core/liblog/include_vndk/log/log_read.h:139:3",
   "name" : "log_msg::(anonymous union at system/core/liblog/include_vndk/log/log_read.h:139:3) at system/core/liblog/include_vndk/log/log_read.h:139:3",
   "record_kind" : "union",
   "referenced_type" : "type-79",
   "self_type" : "type-79",
   "size" : 5124,
   "source_file" : "/system/core/liblog/include/log/log_read.h",
   "unique_id" : "log_msg::(anonymous union at system/core/liblog/include_vndk/log/log_read.h:139:3)"
  },
  {
   "alignment" : 1,
   "fields" :
   [
    {
     "field_name" : "tv_sec",
     "referenced_type" : "type-2"
    },
    {
     "field_name" : "tv_nsec",
     "field_offset" : 32,
     "referenced_type" : "type-2"
    }
   ],
   "linker_set_key" : "log_time",
   "name" : "log_time",
   "referenced_type" : "type-362",
   "self_type" : "type-362",
   "size" : 8,
   "source_file" : "/system/core/liblog/include_vndk/log/log_time.h",
   "unique_id" : "_ZTS8log_time"
  },
  {
   "alignment" : 4,
   "fields" :
   [
    {
     "field_name" : "len",
     "referenced_type" : "type-83"
    },
    {
     "field_name" : "__pad",
     "field_offset" : 16,
     "referenced_type" : "type-83"
    },
    {
     "field_name" : "pid",
     "field_offset" : 32,
     "referenced_type" : "type-20"
    },
    {
     "field_name" : "tid",
     "field_offset" : 64,
     "referenced_type" : "type-20"
    },
    {
     "field_name" : "sec",
     "field_offset" : 96,
     "referenced_type" : "type-20"
    },
    {
     "field_name" : "nsec",
     "field_offset" : 128,
     "referenced_type" : "type-20"
    },
    {
     "field_name" : "msg",
     "field_offset" : 160,
     "referenced_type" : "type-84"
    }
   ],
   "linker_set_key" : "logger_entry",
   "name" : "logger_entry",
   "referenced_type" : "type-87",
   "self_type" : "type-87",
   "size" : 20,
   "source_file" : "/system/core/liblog/include/log/log_read.h",
   "unique_id" : "logger_entry"
  },
  {
   "alignment" : 1,
   "fields" :
   [
    {
     "field_name" : "len",
     "referenced_type" : "type-83"
    },
    {
     "field_name" : "hdr_size",
     "field_offset" : 16,
     "referenced_type" : "type-83"
    },
    {
     "field_name" : "pid",
     "field_offset" : 32,
     "referenced_type" : "type-20"
    },
    {
     "field_name" : "tid",
     "field_offset" : 64,
     "referenced_type" : "type-20"
    },
    {
     "field_name" : "sec",
     "field_offset" : 96,
     "referenced_type" : "type-20"
    },
    {
     "field_name" : "nsec",
     "field_offset" : 128,
     "referenced_type" : "type-20"
    },
    {
     "field_name" : "euid",
     "field_offset" : 160,
     "referenced_type" : "type-2"
    },
    {
     "field_name" : "msg",
     "field_offset" : 192,
     "referenced_type" : "type-84"
    }
   ],
   "linker_set_key" : "logger_entry_v2",
   "name" : "logger_entry_v2",
   "referenced_type" : "type-86",
   "self_type" : "type-86",
   "size" : 24,
   "source_file" : "/system/core/liblog/include/log/log_read.h",
   "unique_id" : "logger_entry_v2"
  },
  {
   "alignment" : 1,
   "fields" :
   [
    {
     "field_name" : "len",
     "referenced_type" : "type-83"
    },
    {
     "field_name" : "hdr_size",
     "field_offset" : 16,
     "referenced_type" : "type-83"
    },
    {
     "field_name" : "pid",
     "field_offset" : 32,
     "referenced_type" : "type-20"
    },
    {
     "field_name" : "tid",
     "field_offset" : 64,
     "referenced_type" : "type-20"
    },
    {
     "field_name" : "sec",
     "field_offset" : 96,
     "referenced_type" : "type-20"
    },
    {
     "field_name" : "nsec",
     "field_offset" : 128,
     "referenced_type" : "type-20"
    },
    {
     "field_name" : "lid",
     "field_offset" : 160,
     "referenced_type" : "type-2"
    },
    {
     "field_name" : "msg",
     "field_offset" : 192,
     "referenced_type" : "type-84"
    }
   ],
   "linker_set_key" : "logger_entry_v3",
   "name" : "logger_entry_v3",
   "referenced_type" : "type-85",
   "self_type" : "type-85",
   "size" : 24,
   "source_file" : "/system/core/liblog/include/log/log_read.h",
   "unique_id" : "logger_entry_v3"
  },
  {
   "alignment" : 4,
   "fields" :
   [
    {
     "field_name" : "len",
     "referenced_type" : "type-83"
    },
    {
     "field_name" : "hdr_size",
     "field_offset" : 16,
     "referenced_type" : "type-83"
    },
    {
     "field_name" : "pid",
     "field_offset" : 32,
     "referenced_type" : "type-20"
    },
    {
     "field_name" : "tid",
     "field_offset" : 64,
     "referenced_type" : "type-2"
    },
    {
     "field_name" : "sec",
     "field_offset" : 96,
     "referenced_type" : "type-2"
    },
    {
     "field_name" : "nsec",
     "field_offset" : 128,
     "referenced_type" : "type-2"
    },
    {
     "field_name" : "lid",
     "field_offset" : 160,
     "referenced_type" : "type-2"
    },
    {
     "field_name" : "uid",
     "field_offset" : 192,
     "referenced_type" : "type-2"
    },
    {
     "field_name" : "msg",
     "field_offset" : 224,
     "referenced_type" : "type-84"
    }
   ],
   "linker_set_key" : "logger_entry_v4",
   "name" : "logger_entry_v4",
   "referenced_type" : "type-82",
   "self_type" : "type-82",
   "size" : 28,
   "source_file" : "/system/core/liblog/include/log/log_read.h",
   "unique_id" : "logger_entry_v4"
  },
  {
   "alignment" : 4,
   "fields" :
   [
    {
     "field_name" : "version",
     "referenced_type" : "type-20"
    },
    {
     "field_name" : "numFds",
     "field_offset" : 32,
     "referenced_type" : "type-20"
    },
    {
     "field_name" : "numInts",
     "field_offset" : 64,
     "referenced_type" : "type-20"
    },
    {
     "field_name" : "data",
     "field_offset" : 96,
     "referenced_type" : "type-159"
    }
   ],
   "linker_set_key" : "native_handle",
   "name" : "native_handle",
   "referenced_type" : "type-158",
   "self_type" : "type-158",
   "size" : 12,
   "source_file" : "/system/core/libcutils/include/cutils/native_handle.h",
   "unique_id" : "native_handle"
  }
 ],
 "rvalue_reference_types" :
 [
  {
   "alignment" : 8,
   "linker_set_key" : "android::frameworks::stats::V1_0::VendorAtom::Value &&",
   "name" : "android::frameworks::stats::V1_0::VendorAtom::Value &&",
   "referenced_type" : "type-317",
   "self_type" : "type-623",
   "size" : 8,
   "source_file" : "/out/soong/.intermediates/frameworks/hardware/interfaces/stats/1.0/android.frameworks.stats@1.0_genc++_headers/gen/android/frameworks/stats/1.0/types.h"
  },
  {
   "alignment" : 8,
   "linker_set_key" : "android::hardware::Return<android::sp<android::frameworks::stats::V1_0::IStats> > &&",
   "name" : "android::hardware::Return<android::sp<android::frameworks::stats::V1_0::IStats> > &&",
   "referenced_type" : "type-134",
   "self_type" : "type-136",
   "size" : 8,
   "source_file" : "/system/libhidl/base/include/hidl/Status.h"
  },
  {
   "alignment" : 8,
   "linker_set_key" : "android::hardware::Return<bool> &&",
   "name" : "android::hardware::Return<bool> &&",
   "referenced_type" : "type-127",
   "self_type" : "type-130",
   "size" : 8,
   "source_file" : "/system/libhidl/base/include/hidl/Status.h"
  },
  {
   "alignment" : 8,
   "linker_set_key" : "android::hardware::Return<void> &&",
   "name" : "android::hardware::Return<void> &&",
   "referenced_type" : "type-147",
   "self_type" : "type-149",
   "size" : 8,
   "source_file" : "/system/libhidl/base/include/hidl/Status.h"
  },
  {
   "alignment" : 8,
   "linker_set_key" : "android::hardware::Status &&",
   "name" : "android::hardware::Status &&",
   "referenced_type" : "type-117",
   "self_type" : "type-123",
   "size" : 8,
   "source_file" : "/system/libhidl/base/include/hidl/Status.h"
  },
  {
   "alignment" : 8,
   "linker_set_key" : "android::hardware::details::return_status &&",
   "name" : "android::hardware::details::return_status &&",
   "referenced_type" : "type-128",
   "self_type" : "type-142",
   "size" : 8,
   "source_file" : "/system/libhidl/base/include/hidl/Status.h"
  },
  {
   "alignment" : 8,
   "linker_set_key" : "android::hardware::hidl_handle &&",
   "name" : "android::hardware::hidl_handle &&",
   "referenced_type" : "type-263",
   "self_type" : "type-271",
   "size" : 8,
   "source_file" : "/system/libhidl/base/include/hidl/HidlSupport.h"
  },
  {
   "alignment" : 8,
   "linker_set_key" : "android::hardware::hidl_memory &&",
   "name" : "android::hardware::hidl_memory &&",
   "referenced_type" : "type-269",
   "self_type" : "type-275",
   "size" : 8,
   "source_file" : "/system/libhidl/base/include/hidl/HidlSupport.h"
  },
  {
   "alignment" : 8,
   "linker_set_key" : "android::hardware::hidl_string &&",
   "name" : "android::hardware::hidl_string &&",
   "referenced_type" : "type-265",
   "self_type" : "type-627",
   "size" : 8,
   "source_file" : "/out/soong/.intermediates/frameworks/hardware/interfaces/stats/1.0/android.frameworks.stats@1.0_genc++_headers/gen/android/frameworks/stats/1.0/types.h"
  },
  {
   "alignment" : 8,
   "linker_set_key" : "android::sp<android::frameworks::stats::V1_0::IStats> &&",
   "name" : "android::sp<android::frameworks::stats::V1_0::IStats> &&",
   "referenced_type" : "type-92",
   "self_type" : "type-95",
   "size" : 8,
   "source_file" : "/system/core/libutils/include/utils/StrongPointer.h"
  },
  {
   "alignment" : 8,
   "linker_set_key" : "android::sp<android::hardware::hidl_binder_death_recipient> &&",
   "name" : "android::sp<android::hardware::hidl_binder_death_recipient> &&",
   "referenced_type" : "type-100",
   "self_type" : "type-108",
   "size" : 8,
   "source_file" : "/system/core/libutils/include/utils/StrongPointer.h"
  },
  {
   "alignment" : 8,
   "linker_set_key" : "std::basic_string<char, std::char_traits<char>, std::allocator<char> > &&",
   "name" : "std::basic_string<char, std::char_traits<char>, std::allocator<char> > &&",
   "referenced_type" : "type-431",
   "self_type" : "type-430",
   "size" : 8,
   "source_file" : "/system/libhidl/transport/include/hidl/ConcurrentMap.h"
  },
  {
   "alignment" : 8,
   "linker_set_key" : "std::function<sp<IBase> (void *)> &&",
   "name" : "std::function<sp<IBase> (void *)> &&",
   "referenced_type" : "type-442",
   "self_type" : "type-441",
   "size" : 8,
   "source_file" : "/system/libhidl/transport/include/hidl/ConcurrentMap.h"
  },
  {
   "alignment" : 8,
   "linker_set_key" : "std::function<sp<IBinder> (void *)> &&",
   "name" : "std::function<sp<IBinder> (void *)> &&",
   "referenced_type" : "type-433",
   "self_type" : "type-432",
   "size" : 8,
   "source_file" : "/system/libhidl/transport/include/hidl/ConcurrentMap.h"
  }
 ]
}
