{
 "array_types" :
 [
  {
   "alignment" : 4,
   "linker_set_key" : "int [0]",
   "name" : "int [0]",
   "referenced_type" : "type-6",
   "self_type" : "type-70",
   "source_file" : "/system/core/libcutils/include/cutils/native_handle.h"
  }
 ],
 "builtin_types" :
 [
  {
   "alignment" : 1,
   "is_integral" : true,
   "is_unsigned" : true,
   "linker_set_key" : "bool",
   "name" : "bool",
   "referenced_type" : "type-8",
   "self_type" : "type-8",
   "size" : 1
  },
  {
   "alignment" : 1,
   "is_integral" : true,
   "is_unsigned" : true,
   "linker_set_key" : "char",
   "name" : "char",
   "referenced_type" : "type-58",
   "self_type" : "type-58",
   "size" : 1
  },
  {
   "alignment" : 8,
   "linker_set_key" : "double",
   "name" : "double",
   "referenced_type" : "type-9",
   "self_type" : "type-9",
   "size" : 8
  },
  {
   "alignment" : 4,
   "linker_set_key" : "float",
   "name" : "float",
   "referenced_type" : "type-40",
   "self_type" : "type-40",
   "size" : 4
  },
  {
   "alignment" : 4,
   "is_integral" : true,
   "linker_set_key" : "int",
   "name" : "int",
   "referenced_type" : "type-6",
   "self_type" : "type-6",
   "size" : 4
  },
  {
   "alignment" : 8,
   "is_integral" : true,
   "linker_set_key" : "long",
   "name" : "long",
   "referenced_type" : "type-33",
   "self_type" : "type-33",
   "size" : 8
  },
  {
   "alignment" : 8,
   "is_integral" : true,
   "linker_set_key" : "long long",
   "name" : "long long",
   "referenced_type" : "type-239",
   "self_type" : "type-239",
   "size" : 8
  },
  {
   "alignment" : 2,
   "is_integral" : true,
   "linker_set_key" : "short",
   "name" : "short",
   "referenced_type" : "type-23",
   "self_type" : "type-23",
   "size" : 2
  },
  {
   "alignment" : 1,
   "is_integral" : true,
   "linker_set_key" : "signed char",
   "name" : "signed char",
   "referenced_type" : "type-17",
   "self_type" : "type-17",
   "size" : 1
  },
  {
   "alignment" : 1,
   "is_integral" : true,
   "is_unsigned" : true,
   "linker_set_key" : "unsigned char",
   "name" : "unsigned char",
   "referenced_type" : "type-20",
   "self_type" : "type-20",
   "size" : 1
  },
  {
   "alignment" : 4,
   "is_integral" : true,
   "is_unsigned" : true,
   "linker_set_key" : "unsigned int",
   "name" : "unsigned int",
   "referenced_type" : "type-2",
   "self_type" : "type-2",
   "size" : 4
  },
  {
   "alignment" : 8,
   "is_integral" : true,
   "is_unsigned" : true,
   "linker_set_key" : "unsigned long",
   "name" : "unsigned long",
   "referenced_type" : "type-36",
   "self_type" : "type-36",
   "size" : 8
  },
  {
   "alignment" : 8,
   "is_integral" : true,
   "is_unsigned" : true,
   "linker_set_key" : "unsigned long long",
   "name" : "unsigned long long",
   "referenced_type" : "type-244",
   "self_type" : "type-244",
   "size" : 8
  },
  {
   "alignment" : 2,
   "is_integral" : true,
   "is_unsigned" : true,
   "linker_set_key" : "unsigned short",
   "name" : "unsigned short",
   "referenced_type" : "type-26",
   "self_type" : "type-26",
   "size" : 2
  },
  {
   "linker_set_key" : "void",
   "name" : "void",
   "referenced_type" : "type-51",
   "self_type" : "type-51"
  }
 ],
 "elf_functions" :
 [
  {
   "name" : "_ZN7android8hardware7details14logAlwaysErrorERKNSt3__112basic_stringIcNS2_11char_traitsIcEENS2_9allocatorIcEEEE"
  },
  {
   "name" : "_ZN7android8hardware7details15wouldLogVerboseEv"
  },
  {
   "name" : "_ZN7android8hardware7details16logAlwaysVerboseERKNSt3__112basic_stringIcNS2_11char_traitsIcEENS2_9allocatorIcEEEE"
  },
  {
   "binding" : "weak",
   "name" : "_ZNSt3__124__put_character_sequenceIcNS_11char_traitsIcEEEERNS_13basic_ostreamIT_T0_EES7_PKS4_m"
  }
 ],
 "elf_objects" : [],
 "enum_types" :
 [
  {
   "alignment" : 4,
   "enum_fields" :
   [
    {
     "enum_field_value" : 0,
     "name" : "android::base::DEFAULT"
    },
    {
     "enum_field_value" : 1,
     "name" : "android::base::MAIN"
    },
    {
     "enum_field_value" : 2,
     "name" : "android::base::SYSTEM"
    }
   ],
   "linker_set_key" : "android::base::LogId",
   "name" : "android::base::LogId",
   "referenced_type" : "type-141",
   "self_type" : "type-141",
   "size" : 4,
   "source_file" : "/system/core/base/include/android-base/logging.h",
   "underlying_type" : "type-2",
   "unique_id" : "_ZTSN7android4base5LogIdE"
  },
  {
   "alignment" : 4,
   "enum_fields" :
   [
    {
     "enum_field_value" : 0,
     "name" : "android::base::VERBOSE"
    },
    {
     "enum_field_value" : 1,
     "name" : "android::base::DEBUG"
    },
    {
     "enum_field_value" : 2,
     "name" : "android::base::INFO"
    },
    {
     "enum_field_value" : 3,
     "name" : "android::base::WARNING"
    },
    {
     "enum_field_value" : 4,
     "name" : "android::base::ERROR"
    },
    {
     "enum_field_value" : 5,
     "name" : "android::base::FATAL_WITHOUT_ABORT"
    },
    {
     "enum_field_value" : 6,
     "name" : "android::base::FATAL"
    }
   ],
   "linker_set_key" : "android::base::LogSeverity",
   "name" : "android::base::LogSeverity",
   "referenced_type" : "type-1",
   "self_type" : "type-1",
   "size" : 4,
   "source_file" : "/system/core/base/include/android-base/logging.h",
   "underlying_type" : "type-2",
   "unique_id" : "_ZTSN7android4base11LogSeverityE"
  },
  {
   "alignment" : 4,
   "enum_fields" :
   [
    {
     "enum_field_value" : 0,
     "name" : "android::hardware::HidlReturnRestriction::NONE"
    },
    {
     "enum_field_value" : 1,
     "name" : "android::hardware::HidlReturnRestriction::ERROR_IF_UNCHECKED"
    },
    {
     "enum_field_value" : 2,
     "name" : "android::hardware::HidlReturnRestriction::FATAL_IF_UNCHECKED"
    }
   ],
   "linker_set_key" : "android::hardware::HidlReturnRestriction",
   "name" : "android::hardware::HidlReturnRestriction",
   "referenced_type" : "type-37",
   "self_type" : "type-37",
   "size" : 4,
   "source_file" : "/system/libhidl/base/include/hidl/Status.h",
   "underlying_type" : "type-6",
   "unique_id" : "_ZTSN7android8hardware21HidlReturnRestrictionE"
  },
  {
   "alignment" : 4,
   "enum_fields" :
   [
    {
     "enum_field_value" : 1,
     "name" : "android::hardware::kSynchronizedReadWrite"
    },
    {
     "enum_field_value" : 2,
     "name" : "android::hardware::kUnsynchronizedWrite"
    }
   ],
   "linker_set_key" : "android::hardware::MQFlavor",
   "name" : "android::hardware::MQFlavor",
   "referenced_type" : "type-111",
   "self_type" : "type-111",
   "size" : 4,
   "source_file" : "/system/libhidl/base/include/hidl/MQDescriptor.h",
   "underlying_type" : "type-2",
   "unique_id" : "_ZTSN7android8hardware8MQFlavorE"
  },
  {
   "alignment" : 4,
   "enum_fields" :
   [
    {
     "enum_field_value" : 0,
     "name" : "android::hardware::Status::EX_NONE"
    },
    {
     "enum_field_value" : -1,
     "name" : "android::hardware::Status::EX_SECURITY"
    },
    {
     "enum_field_value" : -2,
     "name" : "android::hardware::Status::EX_BAD_PARCELABLE"
    },
    {
     "enum_field_value" : -3,
     "name" : "android::hardware::Status::EX_ILLEGAL_ARGUMENT"
    },
    {
     "enum_field_value" : -4,
     "name" : "android::hardware::Status::EX_NULL_POINTER"
    },
    {
     "enum_field_value" : -5,
     "name" : "android::hardware::Status::EX_ILLEGAL_STATE"
    },
    {
     "enum_field_value" : -6,
     "name" : "android::hardware::Status::EX_NETWORK_MAIN_THREAD"
    },
    {
     "enum_field_value" : -7,
     "name" : "android::hardware::Status::EX_UNSUPPORTED_OPERATION"
    },
    {
     "enum_field_value" : -128,
     "name" : "android::hardware::Status::EX_HAS_REPLY_HEADER"
    },
    {
     "enum_field_value" : -129,
     "name" : "android::hardware::Status::EX_TRANSACTION_FAILED"
    }
   ],
   "linker_set_key" : "android::hardware::Status::Exception",
   "name" : "android::hardware::Status::Exception",
   "referenced_type" : "type-188",
   "self_type" : "type-188",
   "size" : 4,
   "source_file" : "/system/libhidl/base/include/hidl/Status.h",
   "underlying_type" : "type-6",
   "unique_id" : "_ZTSN7android8hardware6Status9ExceptionE"
  },
  {
   "alignment" : 1,
   "enum_fields" :
   [
    {
     "enum_field_value" : 0,
     "name" : "android::hardware::configstore::V1_1::DisplayOrientation::ORIENTATION_0"
    },
    {
     "enum_field_value" : 1,
     "name" : "android::hardware::configstore::V1_1::DisplayOrientation::ORIENTATION_90"
    },
    {
     "enum_field_value" : 2,
     "name" : "android::hardware::configstore::V1_1::DisplayOrientation::ORIENTATION_180"
    },
    {
     "enum_field_value" : 3,
     "name" : "android::hardware::configstore::V1_1::DisplayOrientation::ORIENTATION_270"
    }
   ],
   "linker_set_key" : "android::hardware::configstore::V1_1::DisplayOrientation",
   "name" : "android::hardware::configstore::V1_1::DisplayOrientation",
   "referenced_type" : "type-127",
   "self_type" : "type-127",
   "size" : 1,
   "source_file" : "/out/soong/.intermediates/hardware/interfaces/configstore/1.1/android.hardware.configstore@1.1_genc++_headers/gen/android/hardware/configstore/1.1/types.h",
   "underlying_type" : "type-20",
   "unique_id" : "_ZTSN7android8hardware11configstore4V1_118DisplayOrientationE"
  },
  {
   "alignment" : 4,
   "enum_fields" :
   [
    {
     "enum_field_value" : 0,
     "name" : "android::hardware::details::HidlInstrumentor::SERVER_API_ENTRY"
    },
    {
     "enum_field_value" : 1,
     "name" : "android::hardware::details::HidlInstrumentor::SERVER_API_EXIT"
    },
    {
     "enum_field_value" : 2,
     "name" : "android::hardware::details::HidlInstrumentor::CLIENT_API_ENTRY"
    },
    {
     "enum_field_value" : 3,
     "name" : "android::hardware::details::HidlInstrumentor::CLIENT_API_EXIT"
    },
    {
     "enum_field_value" : 4,
     "name" : "android::hardware::details::HidlInstrumentor::SYNC_CALLBACK_ENTRY"
    },
    {
     "enum_field_value" : 5,
     "name" : "android::hardware::details::HidlInstrumentor::SYNC_CALLBACK_EXIT"
    },
    {
     "enum_field_value" : 6,
     "name" : "android::hardware::details::HidlInstrumentor::ASYNC_CALLBACK_ENTRY"
    },
    {
     "enum_field_value" : 7,
     "name" : "android::hardware::details::HidlInstrumentor::ASYNC_CALLBACK_EXIT"
    },
    {
     "enum_field_value" : 8,
     "name" : "android::hardware::details::HidlInstrumentor::PASSTHROUGH_ENTRY"
    },
    {
     "enum_field_value" : 9,
     "name" : "android::hardware::details::HidlInstrumentor::PASSTHROUGH_EXIT"
    }
   ],
   "linker_set_key" : "android::hardware::details::HidlInstrumentor::InstrumentationEvent",
   "name" : "android::hardware::details::HidlInstrumentor::InstrumentationEvent",
   "referenced_type" : "type-181",
   "self_type" : "type-181",
   "size" : 4,
   "source_file" : "/system/libhidl/base/include/hidl/HidlInternal.h",
   "underlying_type" : "type-2",
   "unique_id" : "_ZTSN7android8hardware7details16HidlInstrumentor20InstrumentationEventE"
  }
 ],
 "function_types" : [],
 "functions" :
 [
  {
   "function_name" : "android::hardware::details::logAlwaysError",
   "linker_set_key" : "_ZN7android8hardware7details14logAlwaysErrorERKNSt3__112basic_stringIcNS2_11char_traitsIcEENS2_9allocatorIcEEEE",
   "parameters" :
   [
    {
     "referenced_type" : "type-133"
    }
   ],
   "return_type" : "type-51",
   "source_file" : "/hardware/interfaces/configstore/utils/include/configstore/Utils.h"
  },
  {
   "function_name" : "android::hardware::details::wouldLogVerbose",
   "linker_set_key" : "_ZN7android8hardware7details15wouldLogVerboseEv",
   "return_type" : "type-8",
   "source_file" : "/hardware/interfaces/configstore/utils/include/configstore/Utils.h"
  },
  {
   "function_name" : "android::hardware::details::logAlwaysVerbose",
   "linker_set_key" : "_ZN7android8hardware7details16logAlwaysVerboseERKNSt3__112basic_stringIcNS2_11char_traitsIcEENS2_9allocatorIcEEEE",
   "parameters" :
   [
    {
     "referenced_type" : "type-133"
    }
   ],
   "return_type" : "type-51",
   "source_file" : "/hardware/interfaces/configstore/utils/include/configstore/Utils.h"
  }
 ],
 "global_vars" : [],
 "lvalue_reference_types" :
 [
  {
   "alignment" : 8,
   "linker_set_key" : "android::hardware::Return<void> &",
   "name" : "android::hardware::Return<void> &",
   "referenced_type" : "type-50",
   "self_type" : "type-101",
   "size" : 8,
   "source_file" : "/system/libhidl/base/include/hidl/Status.h"
  },
  {
   "alignment" : 8,
   "linker_set_key" : "android::hardware::Status &",
   "name" : "android::hardware::Status &",
   "referenced_type" : "type-5",
   "self_type" : "type-193",
   "size" : 8,
   "source_file" : "/system/libhidl/base/include/hidl/Status.h"
  },
  {
   "alignment" : 8,
   "linker_set_key" : "android::hardware::hidl_memory &",
   "name" : "android::hardware::hidl_memory &",
   "referenced_type" : "type-78",
   "self_type" : "type-84",
   "size" : 8,
   "source_file" : "/system/libhidl/base/include/hidl/HidlSupport.h"
  },
  {
   "alignment" : 8,
   "linker_set_key" : "const android::hardware::Status &",
   "name" : "const android::hardware::Status &",
   "referenced_type" : "type-190",
   "self_type" : "type-191",
   "size" : 8,
   "source_file" : "/system/libhidl/base/include/hidl/Status.h"
  },
  {
   "alignment" : 8,
   "linker_set_key" : "const android::hardware::hidl_handle &",
   "name" : "const android::hardware::hidl_handle &",
   "referenced_type" : "type-104",
   "self_type" : "type-105",
   "size" : 8,
   "source_file" : "/system/libhidl/base/include/hidl/HidlSupport.h"
  },
  {
   "alignment" : 8,
   "linker_set_key" : "const android::hardware::hidl_memory &",
   "name" : "const android::hardware::hidl_memory &",
   "referenced_type" : "type-82",
   "self_type" : "type-83",
   "size" : 8,
   "source_file" : "/system/libhidl/base/include/hidl/HidlSupport.h"
  },
  {
   "alignment" : 8,
   "linker_set_key" : "const android::hardware::hidl_string &",
   "name" : "const android::hardware::hidl_string &",
   "referenced_type" : "type-76",
   "self_type" : "type-77",
   "size" : 8,
   "source_file" : "/system/libhidl/base/include/hidl/HidlSupport.h"
  },
  {
   "alignment" : 8,
   "linker_set_key" : "const android::hardware::hidl_version &",
   "name" : "const android::hardware::hidl_version &",
   "referenced_type" : "type-99",
   "self_type" : "type-103",
   "size" : 8,
   "source_file" : "/system/libhidl/base/include/hidl/HidlSupport.h"
  },
  {
   "alignment" : 8,
   "linker_set_key" : "const android::sp<android::hardware::hidl_death_recipient> &",
   "name" : "const android::sp<android::hardware::hidl_death_recipient> &",
   "referenced_type" : "type-107",
   "self_type" : "type-106",
   "size" : 8,
   "source_file" : "/system/libhidl/base/include/hidl/HidlSupport.h"
  },
  {
   "alignment" : 8,
   "linker_set_key" : "const bool &",
   "name" : "const bool &",
   "referenced_type" : "type-14",
   "self_type" : "type-13",
   "size" : 8,
   "source_file" : "/system/core/libutils/include/utils/TypeHelpers.h"
  },
  {
   "alignment" : 8,
   "linker_set_key" : "const double &",
   "name" : "const double &",
   "referenced_type" : "type-42",
   "self_type" : "type-43",
   "size" : 8,
   "source_file" : "/system/core/libutils/include/utils/TypeHelpers.h"
  },
  {
   "alignment" : 8,
   "linker_set_key" : "const float &",
   "name" : "const float &",
   "referenced_type" : "type-39",
   "self_type" : "type-41",
   "size" : 8,
   "source_file" : "/system/core/libutils/include/utils/TypeHelpers.h"
  },
  {
   "alignment" : 8,
   "linker_set_key" : "const int &",
   "name" : "const int &",
   "referenced_type" : "type-29",
   "self_type" : "type-28",
   "size" : 8,
   "source_file" : "/system/core/libutils/include/utils/TypeHelpers.h"
  },
  {
   "linker_set_key" : "const iter<is_const> &",
   "name" : "const iter<is_const> &",
   "referenced_type" : "type-88",
   "self_type" : "type-91",
   "source_file" : "/system/libhidl/base/include/hidl/HidlSupport.h"
  },
  {
   "alignment" : 8,
   "linker_set_key" : "const long &",
   "name" : "const long &",
   "referenced_type" : "type-32",
   "self_type" : "type-34",
   "size" : 8,
   "source_file" : "/system/core/libutils/include/utils/TypeHelpers.h"
  },
  {
   "alignment" : 8,
   "linker_set_key" : "const short &",
   "name" : "const short &",
   "referenced_type" : "type-22",
   "self_type" : "type-24",
   "size" : 8,
   "source_file" : "/system/core/libutils/include/utils/TypeHelpers.h"
  },
  {
   "alignment" : 8,
   "linker_set_key" : "const signed char &",
   "name" : "const signed char &",
   "referenced_type" : "type-16",
   "self_type" : "type-15",
   "size" : 8,
   "source_file" : "/system/core/libutils/include/utils/TypeHelpers.h"
  },
  {
   "alignment" : 8,
   "linker_set_key" : "const std::basic_string<char, std::char_traits<char>, std::allocator<char> > &",
   "name" : "const std::basic_string<char, std::char_traits<char>, std::allocator<char> > &",
   "referenced_type" : "type-134",
   "self_type" : "type-133",
   "size" : 8,
   "source_file" : "/hardware/interfaces/configstore/utils/include/configstore/Utils.h"
  },
  {
   "alignment" : 8,
   "linker_set_key" : "const std::vector<std::function<void (InstrumentationEvent, const char *, const char *, const char *, const char *, vector<void *, allocator<void *> > *)>, std::allocator<std::function<void (InstrumentationEvent, const char *, const char *, const char *, const char *, vector<void *, allocator<void *> > *)> > > &",
   "name" : "const std::vector<std::function<void (InstrumentationEvent, const char *, const char *, const char *, const char *, vector<void *, allocator<void *> > *)>, std::allocator<std::function<void (InstrumentationEvent, const char *, const char *, const char *, const char *, vector<void *, allocator<void *> > *)> > > &",
   "referenced_type" : "type-183",
   "self_type" : "type-182",
   "size" : 8,
   "source_file" : "/system/libhidl/base/include/hidl/HidlInternal.h"
  },
  {
   "alignment" : 8,
   "linker_set_key" : "const unsigned char &",
   "name" : "const unsigned char &",
   "referenced_type" : "type-19",
   "self_type" : "type-18",
   "size" : 8,
   "source_file" : "/system/core/libutils/include/utils/TypeHelpers.h"
  },
  {
   "alignment" : 8,
   "linker_set_key" : "const unsigned int &",
   "name" : "const unsigned int &",
   "referenced_type" : "type-30",
   "self_type" : "type-31",
   "size" : 8,
   "source_file" : "/system/core/libutils/include/utils/TypeHelpers.h"
  },
  {
   "alignment" : 8,
   "linker_set_key" : "const unsigned long &",
   "name" : "const unsigned long &",
   "referenced_type" : "type-35",
   "self_type" : "type-38",
   "size" : 8,
   "source_file" : "/system/core/libutils/include/utils/TypeHelpers.h"
  },
  {
   "alignment" : 8,
   "linker_set_key" : "const unsigned short &",
   "name" : "const unsigned short &",
   "referenced_type" : "type-25",
   "self_type" : "type-27",
   "size" : 8,
   "source_file" : "/system/core/libutils/include/utils/TypeHelpers.h"
  },
  {
   "alignment" : 8,
   "linker_set_key" : "std::basic_ostream<char, std::char_traits<char> > &",
   "name" : "std::basic_ostream<char, std::char_traits<char> > &",
   "referenced_type" : "type-169",
   "self_type" : "type-168",
   "size" : 8,
   "source_file" : "/system/core/base/include/android-base/logging.h"
  },
  {
   "alignment" : 8,
   "linker_set_key" : "unsigned char &",
   "name" : "unsigned char &",
   "referenced_type" : "type-20",
   "self_type" : "type-130",
   "size" : 8,
   "source_file" : "/out/soong/.intermediates/hardware/interfaces/configstore/1.1/android.hardware.configstore@1.1_genc++_headers/gen/android/hardware/configstore/1.1/types.h"
  }
 ],
 "pointer_types" :
 [
  {
   "alignment" : 8,
   "linker_set_key" : "android::RefBase *",
   "name" : "android::RefBase *",
   "referenced_type" : "type-46",
   "self_type" : "type-62",
   "size" : 8,
   "source_file" : "/system/core/libutils/include/utils/RefBase.h"
  },
  {
   "alignment" : 8,
   "linker_set_key" : "android::RefBase::weakref_impl *",
   "name" : "android::RefBase::weakref_impl *",
   "referenced_type" : "type-49",
   "self_type" : "type-48",
   "size" : 8,
   "source_file" : "/system/core/libutils/include/utils/RefBase.h"
  },
  {
   "alignment" : 8,
   "linker_set_key" : "android::ReferenceRenamer *",
   "name" : "android::ReferenceRenamer *",
   "referenced_type" : "type-44",
   "self_type" : "type-45",
   "size" : 8,
   "source_file" : "/system/core/libutils/include/utils/RefBase.h"
  },
  {
   "alignment" : 8,
   "linker_set_key" : "android::VirtualLightRefBase *",
   "name" : "android::VirtualLightRefBase *",
   "referenced_type" : "type-150",
   "self_type" : "type-195",
   "size" : 8,
   "source_file" : "/system/core/libutils/include/utils/LightRefBase.h"
  },
  {
   "alignment" : 8,
   "linker_set_key" : "android::base::EagerEvaluator<char *, char *> *",
   "name" : "android::base::EagerEvaluator<char *, char *> *",
   "referenced_type" : "type-137",
   "self_type" : "type-138",
   "size" : 8,
   "source_file" : "/system/core/base/include/android-base/logging.h"
  },
  {
   "alignment" : 8,
   "linker_set_key" : "android::base::EagerEvaluator<char *, const char *> *",
   "name" : "android::base::EagerEvaluator<char *, const char *> *",
   "referenced_type" : "type-123",
   "self_type" : "type-136",
   "size" : 8,
   "source_file" : "/system/core/base/include/android-base/logging.h"
  },
  {
   "alignment" : 8,
   "linker_set_key" : "android::base::EagerEvaluator<const char *, char *> *",
   "name" : "android::base::EagerEvaluator<const char *, char *> *",
   "referenced_type" : "type-74",
   "self_type" : "type-102",
   "size" : 8,
   "source_file" : "/system/core/base/include/android-base/logging.h"
  },
  {
   "alignment" : 8,
   "linker_set_key" : "android::base::EagerEvaluator<const char *, const char *> *",
   "name" : "android::base::EagerEvaluator<const char *, const char *> *",
   "referenced_type" : "type-53",
   "self_type" : "type-52",
   "size" : 8,
   "source_file" : "/system/core/base/include/android-base/logging.h"
  },
  {
   "alignment" : 8,
   "linker_set_key" : "android::base::EagerEvaluator<const signed char *, const signed char *> *",
   "name" : "android::base::EagerEvaluator<const signed char *, const signed char *> *",
   "referenced_type" : "type-154",
   "self_type" : "type-156",
   "size" : 8,
   "source_file" : "/system/core/base/include/android-base/logging.h"
  },
  {
   "alignment" : 8,
   "linker_set_key" : "android::base::EagerEvaluator<const signed char *, signed char *> *",
   "name" : "android::base::EagerEvaluator<const signed char *, signed char *> *",
   "referenced_type" : "type-157",
   "self_type" : "type-159",
   "size" : 8,
   "source_file" : "/system/core/base/include/android-base/logging.h"
  },
  {
   "alignment" : 8,
   "linker_set_key" : "android::base::EagerEvaluator<const unsigned char *, const unsigned char *> *",
   "name" : "android::base::EagerEvaluator<const unsigned char *, const unsigned char *> *",
   "referenced_type" : "type-139",
   "self_type" : "type-142",
   "size" : 8,
   "source_file" : "/system/core/base/include/android-base/logging.h"
  },
  {
   "alignment" : 8,
   "linker_set_key" : "android::base::EagerEvaluator<const unsigned char *, unsigned char *> *",
   "name" : "android::base::EagerEvaluator<const unsigned char *, unsigned char *> *",
   "referenced_type" : "type-143",
   "self_type" : "type-145",
   "size" : 8,
   "source_file" : "/system/core/base/include/android-base/logging.h"
  },
  {
   "alignment" : 8,
   "linker_set_key" : "android::base::EagerEvaluator<signed char *, const signed char *> *",
   "name" : "android::base::EagerEvaluator<signed char *, const signed char *> *",
   "referenced_type" : "type-160",
   "self_type" : "type-161",
   "size" : 8,
   "source_file" : "/system/core/base/include/android-base/logging.h"
  },
  {
   "alignment" : 8,
   "linker_set_key" : "android::base::EagerEvaluator<signed char *, signed char *> *",
   "name" : "android::base::EagerEvaluator<signed char *, signed char *> *",
   "referenced_type" : "type-162",
   "self_type" : "type-163",
   "size" : 8,
   "source_file" : "/system/core/base/include/android-base/logging.h"
  },
  {
   "alignment" : 8,
   "linker_set_key" : "android::base::EagerEvaluator<unsigned char *, const unsigned char *> *",
   "name" : "android::base::EagerEvaluator<unsigned char *, const unsigned char *> *",
   "referenced_type" : "type-146",
   "self_type" : "type-147",
   "size" : 8,
   "source_file" : "/system/core/base/include/android-base/logging.h"
  },
  {
   "alignment" : 8,
   "linker_set_key" : "android::base::EagerEvaluator<unsigned char *, unsigned char *> *",
   "name" : "android::base::EagerEvaluator<unsigned char *, unsigned char *> *",
   "referenced_type" : "type-151",
   "self_type" : "type-152",
   "size" : 8,
   "source_file" : "/system/core/base/include/android-base/logging.h"
  },
  {
   "alignment" : 8,
   "linker_set_key" : "android::base::ErrnoRestorer *",
   "name" : "android::base::ErrnoRestorer *",
   "referenced_type" : "type-113",
   "self_type" : "type-186",
   "size" : 8,
   "source_file" : "/system/core/base/include/android-base/logging.h"
  },
  {
   "alignment" : 8,
   "linker_set_key" : "android::hardware::GrantorDescriptor *",
   "name" : "android::hardware::GrantorDescriptor *",
   "referenced_type" : "type-96",
   "self_type" : "type-95",
   "size" : 8,
   "source_file" : "/system/libhidl/base/include/hidl/HidlInternal.h"
  },
  {
   "alignment" : 8,
   "linker_set_key" : "android::hardware::Return<void> *",
   "name" : "android::hardware::Return<void> *",
   "referenced_type" : "type-50",
   "self_type" : "type-79",
   "size" : 8,
   "source_file" : "/system/libhidl/base/include/hidl/Status.h"
  },
  {
   "alignment" : 8,
   "linker_set_key" : "android::hardware::Status *",
   "name" : "android::hardware::Status *",
   "referenced_type" : "type-5",
   "self_type" : "type-189",
   "size" : 8,
   "source_file" : "/system/libhidl/base/include/hidl/Status.h"
  },
  {
   "alignment" : 8,
   "linker_set_key" : "android::hardware::details::HidlInstrumentor *",
   "name" : "android::hardware::details::HidlInstrumentor *",
   "referenced_type" : "type-177",
   "self_type" : "type-185",
   "size" : 8,
   "source_file" : "/system/libhidl/base/include/hidl/HidlInternal.h"
  },
  {
   "alignment" : 8,
   "linker_set_key" : "android::hardware::details::return_status *",
   "name" : "android::hardware::details::return_status *",
   "referenced_type" : "type-4",
   "self_type" : "type-234",
   "size" : 8,
   "source_file" : "/system/libhidl/base/include/hidl/Status.h"
  },
  {
   "alignment" : 8,
   "linker_set_key" : "android::hardware::hidl_death_recipient *",
   "name" : "android::hardware::hidl_death_recipient *",
   "referenced_type" : "type-110",
   "self_type" : "type-109",
   "size" : 8,
   "source_file" : "/system/core/libutils/include/utils/StrongPointer.h"
  },
  {
   "alignment" : 8,
   "linker_set_key" : "android::hardware::hidl_memory *",
   "name" : "android::hardware::hidl_memory *",
   "referenced_type" : "type-78",
   "self_type" : "type-80",
   "size" : 8,
   "source_file" : "/system/libhidl/base/include/hidl/HidlSupport.h"
  },
  {
   "alignment" : 8,
   "linker_set_key" : "android::hardware::hidl_version *",
   "name" : "android::hardware::hidl_version *",
   "referenced_type" : "type-97",
   "self_type" : "type-98",
   "size" : 8,
   "source_file" : "/system/libhidl/base/include/hidl/HidlSupport.h"
  },
  {
   "alignment" : 8,
   "linker_set_key" : "char *",
   "name" : "char *",
   "referenced_type" : "type-58",
   "self_type" : "type-75",
   "size" : 8,
   "source_file" : "/system/core/base/include/android-base/logging.h"
  },
  {
   "alignment" : 8,
   "linker_set_key" : "const android::NativeHandle *",
   "name" : "const android::NativeHandle *",
   "referenced_type" : "type-114",
   "self_type" : "type-119",
   "size" : 8,
   "source_file" : "/system/core/libutils/include/utils/NativeHandle.h"
  },
  {
   "alignment" : 8,
   "linker_set_key" : "const android::RefBase *",
   "name" : "const android::RefBase *",
   "referenced_type" : "type-60",
   "self_type" : "type-61",
   "size" : 8,
   "source_file" : "/system/core/libutils/include/utils/RefBase.h"
  },
  {
   "alignment" : 8,
   "linker_set_key" : "const android::base::ErrnoRestorer *",
   "name" : "const android::base::ErrnoRestorer *",
   "referenced_type" : "type-112",
   "self_type" : "type-200",
   "size" : 8,
   "source_file" : "/system/core/base/include/android-base/logging.h"
  },
  {
   "alignment" : 8,
   "linker_set_key" : "const android::hardware::Status *",
   "name" : "const android::hardware::Status *",
   "referenced_type" : "type-190",
   "self_type" : "type-194",
   "size" : 8,
   "source_file" : "/system/libhidl/base/include/hidl/Status.h"
  },
  {
   "alignment" : 8,
   "linker_set_key" : "const android::hardware::details::return_status *",
   "name" : "const android::hardware::details::return_status *",
   "referenced_type" : "type-3",
   "self_type" : "type-21",
   "size" : 8,
   "source_file" : "/system/libhidl/base/include/hidl/Status.h"
  },
  {
   "alignment" : 8,
   "linker_set_key" : "const android::hardware::hidl_memory *",
   "name" : "const android::hardware::hidl_memory *",
   "referenced_type" : "type-82",
   "self_type" : "type-86",
   "size" : 8,
   "source_file" : "/system/libhidl/base/include/hidl/HidlSupport.h"
  },
  {
   "alignment" : 8,
   "linker_set_key" : "const android::hardware::hidl_version *",
   "name" : "const android::hardware::hidl_version *",
   "referenced_type" : "type-99",
   "self_type" : "type-100",
   "size" : 8,
   "source_file" : "/system/libhidl/base/include/hidl/HidlSupport.h"
  },
  {
   "alignment" : 8,
   "linker_set_key" : "const android::sp<android::hardware::hidl_death_recipient> *",
   "name" : "const android::sp<android::hardware::hidl_death_recipient> *",
   "referenced_type" : "type-107",
   "self_type" : "type-187",
   "size" : 8,
   "source_file" : "/system/core/libutils/include/utils/StrongPointer.h"
  },
  {
   "alignment" : 8,
   "linker_set_key" : "const char *",
   "name" : "const char *",
   "referenced_type" : "type-57",
   "self_type" : "type-56",
   "size" : 8,
   "source_file" : "/system/core/base/include/android-base/logging.h"
  },
  {
   "alignment" : 8,
   "linker_set_key" : "const native_handle *",
   "name" : "const native_handle *",
   "referenced_type" : "type-68",
   "self_type" : "type-67",
   "size" : 8,
   "source_file" : "/system/libhidl/base/include/hidl/HidlInternal.h"
  },
  {
   "alignment" : 8,
   "linker_set_key" : "const signed char *",
   "name" : "const signed char *",
   "referenced_type" : "type-16",
   "self_type" : "type-155",
   "size" : 8,
   "source_file" : "/system/core/base/include/android-base/logging.h"
  },
  {
   "alignment" : 8,
   "linker_set_key" : "const std::basic_string<char, std::char_traits<char>, std::allocator<char> > *",
   "name" : "const std::basic_string<char, std::char_traits<char>, std::allocator<char> > *",
   "referenced_type" : "type-134",
   "self_type" : "type-170",
   "size" : 8,
   "source_file" : "/system/core/base/include/android-base/logging.h"
  },
  {
   "alignment" : 8,
   "linker_set_key" : "const unsigned char *",
   "name" : "const unsigned char *",
   "referenced_type" : "type-19",
   "self_type" : "type-140",
   "size" : 8,
   "source_file" : "/system/core/base/include/android-base/logging.h"
  },
  {
   "alignment" : 8,
   "linker_set_key" : "const void *",
   "name" : "const void *",
   "referenced_type" : "type-55",
   "self_type" : "type-54",
   "size" : 8,
   "source_file" : "/system/core/base/include/android-base/logging.h"
  },
  {
   "alignment" : 8,
   "linker_set_key" : "native_handle *",
   "name" : "native_handle *",
   "referenced_type" : "type-69",
   "self_type" : "type-116",
   "size" : 8,
   "source_file" : "/system/libhidl/base/include/hidl/HidlInternal.h"
  },
  {
   "alignment" : 8,
   "linker_set_key" : "signed char *",
   "name" : "signed char *",
   "referenced_type" : "type-17",
   "self_type" : "type-158",
   "size" : 8,
   "source_file" : "/system/core/base/include/android-base/logging.h"
  },
  {
   "alignment" : 8,
   "linker_set_key" : "unsigned char *",
   "name" : "unsigned char *",
   "referenced_type" : "type-20",
   "self_type" : "type-144",
   "size" : 8,
   "source_file" : "/system/core/base/include/android-base/logging.h"
  }
 ],
 "qualified_types" :
 [
  {
   "alignment" : 8,
   "is_const" : true,
   "linker_set_key" : "android::RefBase::weakref_impl *const",
   "name" : "android::RefBase::weakref_impl *const",
   "referenced_type" : "type-48",
   "self_type" : "type-47",
   "size" : 8,
   "source_file" : "/system/core/libutils/include/utils/RefBase.h"
  },
  {
   "alignment" : 8,
   "is_const" : true,
   "linker_set_key" : "const android::NativeHandle",
   "name" : "const android::NativeHandle",
   "referenced_type" : "type-115",
   "self_type" : "type-114",
   "size" : 24,
   "source_file" : "/system/core/libutils/include/utils/NativeHandle.h"
  },
  {
   "alignment" : 8,
   "is_const" : true,
   "linker_set_key" : "const android::RefBase",
   "name" : "const android::RefBase",
   "referenced_type" : "type-46",
   "self_type" : "type-60",
   "size" : 16,
   "source_file" : "/system/core/libutils/include/utils/RefBase.h"
  },
  {
   "alignment" : 4,
   "is_const" : true,
   "linker_set_key" : "const android::base::ErrnoRestorer",
   "name" : "const android::base::ErrnoRestorer",
   "referenced_type" : "type-113",
   "self_type" : "type-112",
   "size" : 4,
   "source_file" : "/system/core/base/include/android-base/logging.h"
  },
  {
   "alignment" : 8,
   "is_const" : true,
   "linker_set_key" : "const android::hardware::Status",
   "name" : "const android::hardware::Status",
   "referenced_type" : "type-5",
   "self_type" : "type-190",
   "size" : 32,
   "source_file" : "/system/libhidl/base/include/hidl/Status.h"
  },
  {
   "alignment" : 1,
   "is_const" : true,
   "linker_set_key" : "const android::hardware::configstore::V1_1::DisplayOrientation",
   "name" : "const android::hardware::configstore::V1_1::DisplayOrientation",
   "referenced_type" : "type-127",
   "self_type" : "type-129",
   "size" : 1,
   "source_file" : "/out/soong/.intermediates/hardware/interfaces/configstore/1.1/android.hardware.configstore@1.1_genc++_headers/gen/android/hardware/configstore/1.1/types.h"
  },
  {
   "alignment" : 8,
   "is_const" : true,
   "linker_set_key" : "const android::hardware::details::return_status",
   "name" : "const android::hardware::details::return_status",
   "referenced_type" : "type-4",
   "self_type" : "type-3",
   "size" : 40,
   "source_file" : "/system/libhidl/base/include/hidl/Status.h"
  },
  {
   "alignment" : 8,
   "is_const" : true,
   "linker_set_key" : "const android::hardware::hidl_handle",
   "name" : "const android::hardware::hidl_handle",
   "referenced_type" : "type-64",
   "self_type" : "type-104",
   "size" : 16,
   "source_file" : "/system/libhidl/base/include/hidl/HidlSupport.h"
  },
  {
   "alignment" : 8,
   "is_const" : true,
   "linker_set_key" : "const android::hardware::hidl_memory",
   "name" : "const android::hardware::hidl_memory",
   "referenced_type" : "type-78",
   "self_type" : "type-82",
   "size" : 40,
   "source_file" : "/system/libhidl/base/include/hidl/HidlSupport.h"
  },
  {
   "alignment" : 8,
   "is_const" : true,
   "linker_set_key" : "const android::hardware::hidl_string",
   "name" : "const android::hardware::hidl_string",
   "referenced_type" : "type-71",
   "self_type" : "type-76",
   "size" : 16,
   "source_file" : "/system/libhidl/base/include/hidl/HidlSupport.h"
  },
  {
   "alignment" : 2,
   "is_const" : true,
   "linker_set_key" : "const android::hardware::hidl_version",
   "name" : "const android::hardware::hidl_version",
   "referenced_type" : "type-97",
   "self_type" : "type-99",
   "size" : 4,
   "source_file" : "/system/libhidl/base/include/hidl/HidlSupport.h"
  },
  {
   "alignment" : 8,
   "is_const" : true,
   "linker_set_key" : "const android::sp<android::hardware::hidl_death_recipient>",
   "name" : "const android::sp<android::hardware::hidl_death_recipient>",
   "referenced_type" : "type-108",
   "self_type" : "type-107",
   "size" : 8,
   "source_file" : "/system/core/libutils/include/utils/StrongPointer.h"
  },
  {
   "alignment" : 1,
   "is_const" : true,
   "linker_set_key" : "const bool",
   "name" : "const bool",
   "referenced_type" : "type-8",
   "self_type" : "type-14",
   "size" : 1,
   "source_file" : "/system/core/base/include/android-base/logging.h"
  },
  {
   "alignment" : 1,
   "is_const" : true,
   "linker_set_key" : "const char",
   "name" : "const char",
   "referenced_type" : "type-58",
   "self_type" : "type-57",
   "size" : 1,
   "source_file" : "/system/core/base/include/android-base/logging.h"
  },
  {
   "alignment" : 8,
   "is_const" : true,
   "linker_set_key" : "const double",
   "name" : "const double",
   "referenced_type" : "type-9",
   "self_type" : "type-42",
   "size" : 8,
   "source_file" : "/system/core/libutils/include/utils/TypeHelpers.h"
  },
  {
   "alignment" : 4,
   "is_const" : true,
   "linker_set_key" : "const float",
   "name" : "const float",
   "referenced_type" : "type-40",
   "self_type" : "type-39",
   "size" : 4,
   "source_file" : "/system/core/libutils/include/utils/TypeHelpers.h"
  },
  {
   "alignment" : 4,
   "is_const" : true,
   "linker_set_key" : "const int",
   "name" : "const int",
   "referenced_type" : "type-6",
   "self_type" : "type-29",
   "size" : 4,
   "source_file" : "/system/core/base/include/android-base/logging.h"
  },
  {
   "is_const" : true,
   "linker_set_key" : "const iter<is_const>",
   "name" : "const iter<is_const>",
   "referenced_type" : "type-89",
   "self_type" : "type-88",
   "source_file" : "/system/libhidl/base/include/hidl/HidlSupport.h"
  },
  {
   "alignment" : 8,
   "is_const" : true,
   "linker_set_key" : "const long",
   "name" : "const long",
   "referenced_type" : "type-33",
   "self_type" : "type-32",
   "size" : 8,
   "source_file" : "/system/core/libutils/include/utils/TypeHelpers.h"
  },
  {
   "alignment" : 4,
   "is_const" : true,
   "linker_set_key" : "const native_handle",
   "name" : "const native_handle",
   "referenced_type" : "type-69",
   "self_type" : "type-68",
   "size" : 12,
   "source_file" : "/system/libhidl/base/include/hidl/HidlInternal.h"
  },
  {
   "alignment" : 2,
   "is_const" : true,
   "linker_set_key" : "const short",
   "name" : "const short",
   "referenced_type" : "type-23",
   "self_type" : "type-22",
   "size" : 2,
   "source_file" : "/system/core/libutils/include/utils/TypeHelpers.h"
  },
  {
   "alignment" : 1,
   "is_const" : true,
   "linker_set_key" : "const signed char",
   "name" : "const signed char",
   "referenced_type" : "type-17",
   "self_type" : "type-16",
   "size" : 1,
   "source_file" : "/system/core/base/include/android-base/logging.h"
  },
  {
   "alignment" : 1,
   "is_const" : true,
   "linker_set_key" : "const std::array<android::hardware::configstore::V1_1::DisplayOrientation, 4>",
   "name" : "const std::array<android::hardware::configstore::V1_1::DisplayOrientation, 4>",
   "referenced_type" : "type-132",
   "self_type" : "type-131",
   "size" : 4,
   "source_file" : "/out/soong/.intermediates/hardware/interfaces/configstore/1.1/android.hardware.configstore@1.1_genc++_headers/gen/android/hardware/configstore/1.1/types.h"
  },
  {
   "alignment" : 8,
   "is_const" : true,
   "linker_set_key" : "const std::basic_string<char, std::char_traits<char>, std::allocator<char> >",
   "name" : "const std::basic_string<char, std::char_traits<char>, std::allocator<char> >",
   "referenced_type" : "type-135",
   "self_type" : "type-134",
   "size" : 24,
   "source_file" : "/system/core/base/include/android-base/logging.h"
  },
  {
   "alignment" : 8,
   "is_const" : true,
   "linker_set_key" : "const std::unique_ptr<android::base::LogMessageData, std::default_delete<android::base::LogMessageData> >",
   "name" : "const std::unique_ptr<android::base::LogMessageData, std::default_delete<android::base::LogMessageData> >",
   "referenced_type" : "type-166",
   "self_type" : "type-165",
   "size" : 8,
   "source_file" : "/system/core/base/include/android-base/logging.h"
  },
  {
   "alignment" : 8,
   "is_const" : true,
   "linker_set_key" : "const std::vector<std::function<void (InstrumentationEvent, const char *, const char *, const char *, const char *, vector<void *, allocator<void *> > *)>, std::allocator<std::function<void (InstrumentationEvent, const char *, const char *, const char *, const char *, vector<void *, allocator<void *> > *)> > >",
   "name" : "const std::vector<std::function<void (InstrumentationEvent, const char *, const char *, const char *, const char *, vector<void *, allocator<void *> > *)>, std::allocator<std::function<void (InstrumentationEvent, const char *, const char *, const char *, const char *, vector<void *, allocator<void *> > *)> > >",
   "referenced_type" : "type-184",
   "self_type" : "type-183",
   "size" : 24,
   "source_file" : "/system/libhidl/base/include/hidl/HidlInternal.h"
  },
  {
   "alignment" : 1,
   "is_const" : true,
   "linker_set_key" : "const unsigned char",
   "name" : "const unsigned char",
   "referenced_type" : "type-20",
   "self_type" : "type-19",
   "size" : 1,
   "source_file" : "/system/core/base/include/android-base/logging.h"
  },
  {
   "alignment" : 4,
   "is_const" : true,
   "linker_set_key" : "const unsigned int",
   "name" : "const unsigned int",
   "referenced_type" : "type-2",
   "self_type" : "type-30",
   "size" : 4,
   "source_file" : "/system/core/libutils/include/utils/TypeHelpers.h"
  },
  {
   "alignment" : 8,
   "is_const" : true,
   "linker_set_key" : "const unsigned long",
   "name" : "const unsigned long",
   "referenced_type" : "type-36",
   "self_type" : "type-35",
   "size" : 8,
   "source_file" : "/system/core/libutils/include/utils/TypeHelpers.h"
  },
  {
   "alignment" : 2,
   "is_const" : true,
   "linker_set_key" : "const unsigned short",
   "name" : "const unsigned short",
   "referenced_type" : "type-26",
   "self_type" : "type-25",
   "size" : 2,
   "source_file" : "/system/core/libutils/include/utils/TypeHelpers.h"
  },
  {
   "is_const" : true,
   "linker_set_key" : "const void",
   "name" : "const void",
   "referenced_type" : "type-51",
   "self_type" : "type-55",
   "source_file" : "/system/core/base/include/android-base/logging.h"
  }
 ],
 "record_types" :
 [
  {
   "alignment" : 4,
   "fields" :
   [
    {
     "access" : "private",
     "field_name" : "mCount",
     "referenced_type" : "type-118"
    }
   ],
   "linker_set_key" : "android::LightRefBase<android::NativeHandle>",
   "name" : "android::LightRefBase<android::NativeHandle>",
   "record_kind" : "class",
   "referenced_type" : "type-117",
   "self_type" : "type-117",
   "size" : 4,
   "source_file" : "/system/core/libutils/include/utils/LightRefBase.h",
   "template_args" : [ "type-115" ],
   "unique_id" : "_ZTSN7android12LightRefBaseINS_12NativeHandleEEE"
  },
  {
   "alignment" : 4,
   "fields" :
   [
    {
     "access" : "private",
     "field_name" : "mCount",
     "referenced_type" : "type-149"
    }
   ],
   "linker_set_key" : "android::LightRefBase<android::VirtualLightRefBase>",
   "name" : "android::LightRefBase<android::VirtualLightRefBase>",
   "record_kind" : "class",
   "referenced_type" : "type-148",
   "self_type" : "type-148",
   "size" : 4,
   "source_file" : "/system/core/libutils/include/utils/LightRefBase.h",
   "template_args" : [ "type-150" ],
   "unique_id" : "_ZTSN7android12LightRefBaseINS_19VirtualLightRefBaseEEE"
  },
  {
   "alignment" : 8,
   "base_specifiers" :
   [
    {
     "referenced_type" : "type-117"
    }
   ],
   "fields" :
   [
    {
     "access" : "private",
     "field_name" : "mHandle",
     "field_offset" : 64,
     "referenced_type" : "type-116"
    },
    {
     "access" : "private",
     "field_name" : "mOwnsHandle",
     "field_offset" : 128,
     "referenced_type" : "type-8"
    }
   ],
   "linker_set_key" : "android::NativeHandle",
   "name" : "android::NativeHandle",
   "record_kind" : "class",
   "referenced_type" : "type-115",
   "self_type" : "type-115",
   "size" : 24,
   "source_file" : "/system/core/libutils/include/utils/NativeHandle.h",
   "unique_id" : "_ZTSN7android12NativeHandleE"
  },
  {
   "alignment" : 8,
   "fields" :
   [
    {
     "access" : "private",
     "field_name" : "mRefs",
     "field_offset" : 64,
     "referenced_type" : "type-47"
    }
   ],
   "linker_set_key" : "android::RefBase",
   "name" : "android::RefBase",
   "record_kind" : "class",
   "referenced_type" : "type-46",
   "self_type" : "type-46",
   "size" : 16,
   "source_file" : "/system/core/libutils/include/utils/RefBase.h",
   "unique_id" : "_ZTSN7android7RefBaseE",
   "vtable_components" :
   [
    {
     "kind" : "offset_to_top"
    },
    {
     "kind" : "rtti",
     "mangled_component_name" : "_ZTIN7android7RefBaseE"
    },
    {
     "kind" : "complete_dtor_pointer",
     "mangled_component_name" : "_ZN7android7RefBaseD1Ev"
    },
    {
     "kind" : "deleting_dtor_pointer",
     "mangled_component_name" : "_ZN7android7RefBaseD0Ev"
    },
    {
     "mangled_component_name" : "_ZN7android7RefBase10onFirstRefEv"
    },
    {
     "mangled_component_name" : "_ZN7android7RefBase15onLastStrongRefEPKv"
    },
    {
     "mangled_component_name" : "_ZN7android7RefBase20onIncStrongAttemptedEjPKv"
    },
    {
     "mangled_component_name" : "_ZN7android7RefBase13onLastWeakRefEPKv"
    }
   ]
  },
  {
   "alignment" : 1,
   "linker_set_key" : "android::RefBase::weakref_type",
   "name" : "android::RefBase::weakref_type",
   "record_kind" : "class",
   "referenced_type" : "type-59",
   "self_type" : "type-59",
   "size" : 1,
   "source_file" : "/system/core/libutils/include/utils/RefBase.h",
   "unique_id" : "_ZTSN7android7RefBase12weakref_typeE"
  },
  {
   "alignment" : 1,
   "linker_set_key" : "android::ReferenceMover",
   "name" : "android::ReferenceMover",
   "record_kind" : "class",
   "referenced_type" : "type-63",
   "self_type" : "type-63",
   "size" : 1,
   "source_file" : "/system/core/libutils/include/utils/RefBase.h",
   "unique_id" : "_ZTSN7android14ReferenceMoverE"
  },
  {
   "alignment" : 8,
   "linker_set_key" : "android::ReferenceRenamer",
   "name" : "android::ReferenceRenamer",
   "record_kind" : "class",
   "referenced_type" : "type-44",
   "self_type" : "type-44",
   "size" : 8,
   "source_file" : "/system/core/libutils/include/utils/RefBase.h",
   "unique_id" : "_ZTSN7android16ReferenceRenamerE",
   "vtable_components" :
   [
    {
     "kind" : "offset_to_top"
    },
    {
     "kind" : "rtti",
     "mangled_component_name" : "_ZTIN7android16ReferenceRenamerE"
    },
    {
     "is_pure" : true,
     "mangled_component_name" : "_ZNK7android16ReferenceRenamerclEm"
    }
   ]
  },
  {
   "alignment" : 8,
   "base_specifiers" :
   [
    {
     "referenced_type" : "type-148"
    }
   ],
   "linker_set_key" : "android::VirtualLightRefBase",
   "name" : "android::VirtualLightRefBase",
   "record_kind" : "class",
   "referenced_type" : "type-150",
   "self_type" : "type-150",
   "size" : 16,
   "source_file" : "/system/core/libutils/include/utils/LightRefBase.h",
   "unique_id" : "_ZTSN7android19VirtualLightRefBaseE",
   "vtable_components" :
   [
    {
     "kind" : "offset_to_top"
    },
    {
     "kind" : "rtti",
     "mangled_component_name" : "_ZTIN7android19VirtualLightRefBaseE"
    },
    {
     "kind" : "complete_dtor_pointer",
     "mangled_component_name" : "_ZN7android19VirtualLightRefBaseD1Ev"
    },
    {
     "kind" : "deleting_dtor_pointer",
     "mangled_component_name" : "_ZN7android19VirtualLightRefBaseD0Ev"
    }
   ]
  },
  {
   "alignment" : 8,
   "fields" :
   [
    {
     "field_name" : "lhs",
     "referenced_type" : "type-54"
    },
    {
     "field_name" : "rhs",
     "field_offset" : 64,
     "referenced_type" : "type-54"
    }
   ],
   "linker_set_key" : "android::base::EagerEvaluator<char *, char *>",
   "name" : "android::base::EagerEvaluator<char *, char *>",
   "referenced_type" : "type-137",
   "self_type" : "type-137",
   "size" : 16,
   "source_file" : "/system/core/base/include/android-base/logging.h",
   "template_args" : [ "type-75", "type-75" ],
   "unique_id" : "_ZTSN7android4base14EagerEvaluatorIPcS2_EE"
  },
  {
   "alignment" : 8,
   "fields" :
   [
    {
     "field_name" : "lhs",
     "referenced_type" : "type-54"
    },
    {
     "field_name" : "rhs",
     "field_offset" : 64,
     "referenced_type" : "type-54"
    }
   ],
   "linker_set_key" : "android::base::EagerEvaluator<char *, const char *>",
   "name" : "android::base::EagerEvaluator<char *, const char *>",
   "referenced_type" : "type-123",
   "self_type" : "type-123",
   "size" : 16,
   "source_file" : "/system/core/base/include/android-base/logging.h",
   "template_args" : [ "type-75", "type-56" ],
   "unique_id" : "_ZTSN7android4base14EagerEvaluatorIPcPKcEE"
  },
  {
   "alignment" : 8,
   "fields" :
   [
    {
     "field_name" : "lhs",
     "referenced_type" : "type-54"
    },
    {
     "field_name" : "rhs",
     "field_offset" : 64,
     "referenced_type" : "type-54"
    }
   ],
   "linker_set_key" : "android::base::EagerEvaluator<const char *, char *>",
   "name" : "android::base::EagerEvaluator<const char *, char *>",
   "referenced_type" : "type-74",
   "self_type" : "type-74",
   "size" : 16,
   "source_file" : "/system/core/base/include/android-base/logging.h",
   "template_args" : [ "type-56", "type-75" ],
   "unique_id" : "_ZTSN7android4base14EagerEvaluatorIPKcPcEE"
  },
  {
   "alignment" : 8,
   "fields" :
   [
    {
     "field_name" : "lhs",
     "referenced_type" : "type-54"
    },
    {
     "field_name" : "rhs",
     "field_offset" : 64,
     "referenced_type" : "type-54"
    }
   ],
   "linker_set_key" : "android::base::EagerEvaluator<const char *, const char *>",
   "name" : "android::base::EagerEvaluator<const char *, const char *>",
   "referenced_type" : "type-53",
   "self_type" : "type-53",
   "size" : 16,
   "source_file" : "/system/core/base/include/android-base/logging.h",
   "template_args" : [ "type-56", "type-56" ],
   "unique_id" : "_ZTSN7android4base14EagerEvaluatorIPKcS3_EE"
  },
  {
   "alignment" : 8,
   "fields" :
   [
    {
     "field_name" : "lhs",
     "referenced_type" : "type-54"
    },
    {
     "field_name" : "rhs",
     "field_offset" : 64,
     "referenced_type" : "type-54"
    }
   ],
   "linker_set_key" : "android::base::EagerEvaluator<const signed char *, const signed char *>",
   "name" : "android::base::EagerEvaluator<const signed char *, const signed char *>",
   "referenced_type" : "type-154",
   "self_type" : "type-154",
   "size" : 16,
   "source_file" : "/system/core/base/include/android-base/logging.h",
   "template_args" : [ "type-155", "type-155" ],
   "unique_id" : "_ZTSN7android4base14EagerEvaluatorIPKaS3_EE"
  },
  {
   "alignment" : 8,
   "fields" :
   [
    {
     "field_name" : "lhs",
     "referenced_type" : "type-54"
    },
    {
     "field_name" : "rhs",
     "field_offset" : 64,
     "referenced_type" : "type-54"
    }
   ],
   "linker_set_key" : "android::base::EagerEvaluator<const signed char *, signed char *>",
   "name" : "android::base::EagerEvaluator<const signed char *, signed char *>",
   "referenced_type" : "type-157",
   "self_type" : "type-157",
   "size" : 16,
   "source_file" : "/system/core/base/include/android-base/logging.h",
   "template_args" : [ "type-155", "type-158" ],
   "unique_id" : "_ZTSN7android4base14EagerEvaluatorIPKaPaEE"
  },
  {
   "alignment" : 8,
   "fields" :
   [
    {
     "field_name" : "lhs",
     "referenced_type" : "type-54"
    },
    {
     "field_name" : "rhs",
     "field_offset" : 64,
     "referenced_type" : "type-54"
    }
   ],
   "linker_set_key" : "android::base::EagerEvaluator<const unsigned char *, const unsigned char *>",
   "name" : "android::base::EagerEvaluator<const unsigned char *, const unsigned char *>",
   "referenced_type" : "type-139",
   "self_type" : "type-139",
   "size" : 16,
   "source_file" : "/system/core/base/include/android-base/logging.h",
   "template_args" : [ "type-140", "type-140" ],
   "unique_id" : "_ZTSN7android4base14EagerEvaluatorIPKhS3_EE"
  },
  {
   "alignment" : 8,
   "fields" :
   [
    {
     "field_name" : "lhs",
     "referenced_type" : "type-54"
    },
    {
     "field_name" : "rhs",
     "field_offset" : 64,
     "referenced_type" : "type-54"
    }
   ],
   "linker_set_key" : "android::base::EagerEvaluator<const unsigned char *, unsigned char *>",
   "name" : "android::base::EagerEvaluator<const unsigned char *, unsigned char *>",
   "referenced_type" : "type-143",
   "self_type" : "type-143",
   "size" : 16,
   "source_file" : "/system/core/base/include/android-base/logging.h",
   "template_args" : [ "type-140", "type-144" ],
   "unique_id" : "_ZTSN7android4base14EagerEvaluatorIPKhPhEE"
  },
  {
   "alignment" : 8,
   "fields" :
   [
    {
     "field_name" : "lhs",
     "referenced_type" : "type-54"
    },
    {
     "field_name" : "rhs",
     "field_offset" : 64,
     "referenced_type" : "type-54"
    }
   ],
   "linker_set_key" : "android::base::EagerEvaluator<signed char *, const signed char *>",
   "name" : "android::base::EagerEvaluator<signed char *, const signed char *>",
   "referenced_type" : "type-160",
   "self_type" : "type-160",
   "size" : 16,
   "source_file" : "/system/core/base/include/android-base/logging.h",
   "template_args" : [ "type-158", "type-155" ],
   "unique_id" : "_ZTSN7android4base14EagerEvaluatorIPaPKaEE"
  },
  {
   "alignment" : 8,
   "fields" :
   [
    {
     "field_name" : "lhs",
     "referenced_type" : "type-54"
    },
    {
     "field_name" : "rhs",
     "field_offset" : 64,
     "referenced_type" : "type-54"
    }
   ],
   "linker_set_key" : "android::base::EagerEvaluator<signed char *, signed char *>",
   "name" : "android::base::EagerEvaluator<signed char *, signed char *>",
   "referenced_type" : "type-162",
   "self_type" : "type-162",
   "size" : 16,
   "source_file" : "/system/core/base/include/android-base/logging.h",
   "template_args" : [ "type-158", "type-158" ],
   "unique_id" : "_ZTSN7android4base14EagerEvaluatorIPaS2_EE"
  },
  {
   "alignment" : 8,
   "fields" :
   [
    {
     "field_name" : "lhs",
     "referenced_type" : "type-54"
    },
    {
     "field_name" : "rhs",
     "field_offset" : 64,
     "referenced_type" : "type-54"
    }
   ],
   "linker_set_key" : "android::base::EagerEvaluator<unsigned char *, const unsigned char *>",
   "name" : "android::base::EagerEvaluator<unsigned char *, const unsigned char *>",
   "referenced_type" : "type-146",
   "self_type" : "type-146",
   "size" : 16,
   "source_file" : "/system/core/base/include/android-base/logging.h",
   "template_args" : [ "type-144", "type-140" ],
   "unique_id" : "_ZTSN7android4base14EagerEvaluatorIPhPKhEE"
  },
  {
   "alignment" : 8,
   "fields" :
   [
    {
     "field_name" : "lhs",
     "referenced_type" : "type-54"
    },
    {
     "field_name" : "rhs",
     "field_offset" : 64,
     "referenced_type" : "type-54"
    }
   ],
   "linker_set_key" : "android::base::EagerEvaluator<unsigned char *, unsigned char *>",
   "name" : "android::base::EagerEvaluator<unsigned char *, unsigned char *>",
   "referenced_type" : "type-151",
   "self_type" : "type-151",
   "size" : 16,
   "source_file" : "/system/core/base/include/android-base/logging.h",
   "template_args" : [ "type-144", "type-144" ],
   "unique_id" : "_ZTSN7android4base14EagerEvaluatorIPhS2_EE"
  },
  {
   "alignment" : 4,
   "fields" :
   [
    {
     "access" : "private",
     "field_name" : "saved_errno_",
     "referenced_type" : "type-29"
    }
   ],
   "linker_set_key" : "android::base::ErrnoRestorer",
   "name" : "android::base::ErrnoRestorer",
   "record_kind" : "class",
   "referenced_type" : "type-113",
   "self_type" : "type-113",
   "size" : 4,
   "source_file" : "/system/core/base/include/android-base/logging.h",
   "unique_id" : "_ZTSN7android4base13ErrnoRestorerE"
  },
  {
   "alignment" : 8,
   "fields" :
   [
    {
     "access" : "private",
     "field_name" : "data_",
     "referenced_type" : "type-165"
    }
   ],
   "linker_set_key" : "android::base::LogMessage",
   "name" : "android::base::LogMessage",
   "record_kind" : "class",
   "referenced_type" : "type-164",
   "self_type" : "type-164",
   "size" : 8,
   "source_file" : "/system/core/base/include/android-base/logging.h",
   "unique_id" : "_ZTSN7android4base10LogMessageE"
  },
  {
   "alignment" : 4,
   "fields" :
   [
    {
     "access" : "private",
     "field_name" : "default_log_id_",
     "referenced_type" : "type-141"
    }
   ],
   "linker_set_key" : "android::base::LogdLogger",
   "name" : "android::base::LogdLogger",
   "record_kind" : "class",
   "referenced_type" : "type-153",
   "self_type" : "type-153",
   "size" : 4,
   "source_file" : "/system/core/base/include/android-base/logging.h",
   "unique_id" : "_ZTSN7android4base10LogdLoggerE"
  },
  {
   "alignment" : 4,
   "fields" :
   [
    {
     "access" : "private",
     "field_name" : "old_",
     "referenced_type" : "type-1"
    }
   ],
   "linker_set_key" : "android::base::ScopedLogSeverity",
   "name" : "android::base::ScopedLogSeverity",
   "record_kind" : "class",
   "referenced_type" : "type-167",
   "self_type" : "type-167",
   "size" : 4,
   "source_file" : "/system/core/base/include/android-base/logging.h",
   "unique_id" : "_ZTSN7android4base17ScopedLogSeverityE"
  },
  {
   "alignment" : 8,
   "fields" :
   [
    {
     "field_name" : "flags",
     "referenced_type" : "type-2"
    },
    {
     "field_name" : "fdIndex",
     "field_offset" : 32,
     "referenced_type" : "type-2"
    },
    {
     "field_name" : "offset",
     "field_offset" : 64,
     "referenced_type" : "type-2"
    },
    {
     "field_name" : "extent",
     "field_offset" : 128,
     "referenced_type" : "type-36"
    }
   ],
   "linker_set_key" : "android::hardware::GrantorDescriptor",
   "name" : "android::hardware::GrantorDescriptor",
   "referenced_type" : "type-96",
   "self_type" : "type-96",
   "size" : 24,
   "source_file" : "/system/libhidl/base/include/hidl/MQDescriptor.h",
   "unique_id" : "_ZTSN7android8hardware17GrantorDescriptorE"
  },
  {
   "alignment" : 8,
   "base_specifiers" :
   [
    {
     "is_virtual" : true,
     "referenced_type" : "type-78"
    },
    {
     "is_virtual" : true,
     "referenced_type" : "type-46"
    }
   ],
   "linker_set_key" : "android::hardware::HidlMemory",
   "name" : "android::hardware::HidlMemory",
   "record_kind" : "class",
   "referenced_type" : "type-87",
   "self_type" : "type-87",
   "size" : 64,
   "source_file" : "/system/libhidl/base/include/hidl/HidlSupport.h",
   "unique_id" : "_ZTSN7android8hardware10HidlMemoryE",
   "vtable_components" :
   [
    {
     "component_value" : 48,
     "kind" : "vbase_offset"
    },
    {
     "component_value" : 8,
     "kind" : "vbase_offset"
    },
    {
     "kind" : "offset_to_top"
    },
    {
     "kind" : "rtti",
     "mangled_component_name" : "_ZTIN7android8hardware10HidlMemoryE"
    },
    {
     "kind" : "complete_dtor_pointer",
     "mangled_component_name" : "_ZN7android8hardware10HidlMemoryD1Ev"
    },
    {
     "kind" : "deleting_dtor_pointer",
     "mangled_component_name" : "_ZN7android8hardware10HidlMemoryD0Ev"
    },
    {
     "kind" : "vcall_offset"
    },
    {
     "kind" : "vcall_offset"
    },
    {
     "kind" : "vcall_offset"
    },
    {
     "kind" : "vcall_offset"
    },
    {
     "component_value" : -48,
     "kind" : "vcall_offset"
    },
    {
     "component_value" : -48,
     "kind" : "offset_to_top"
    },
    {
     "kind" : "rtti",
     "mangled_component_name" : "_ZTIN7android8hardware10HidlMemoryE"
    },
    {
     "kind" : "complete_dtor_pointer",
     "mangled_component_name" : "_ZTv0_n24_N7android8hardware10HidlMemoryD1Ev"
    },
    {
     "kind" : "deleting_dtor_pointer",
     "mangled_component_name" : "_ZTv0_n24_N7android8hardware10HidlMemoryD0Ev"
    },
    {
     "mangled_component_name" : "_ZN7android7RefBase10onFirstRefEv"
    },
    {
     "mangled_component_name" : "_ZN7android7RefBase15onLastStrongRefEPKv"
    },
    {
     "mangled_component_name" : "_ZN7android7RefBase20onIncStrongAttemptedEjPKv"
    },
    {
     "mangled_component_name" : "_ZN7android7RefBase13onLastWeakRefEPKv"
    }
   ]
  },
  {
   "alignment" : 8,
   "base_specifiers" :
   [
    {
     "referenced_type" : "type-4"
    }
   ],
   "linker_set_key" : "android::hardware::Return<void>",
   "name" : "android::hardware::Return<void>",
   "record_kind" : "class",
   "referenced_type" : "type-50",
   "self_type" : "type-50",
   "size" : 40,
   "source_file" : "/system/libhidl/base/include/hidl/Status.h",
   "template_args" : [ "type-51" ],
   "unique_id" : "_ZTSN7android8hardware6ReturnIvEE"
  },
  {
   "alignment" : 8,
   "fields" :
   [
    {
     "access" : "private",
     "field_name" : "mException",
     "referenced_type" : "type-6"
    },
    {
     "access" : "private",
     "field_name" : "mErrorCode",
     "field_offset" : 32,
     "referenced_type" : "type-6"
    },
    {
     "access" : "private",
     "field_name" : "mMessage",
     "field_offset" : 64,
     "referenced_type" : "type-7"
    }
   ],
   "linker_set_key" : "android::hardware::Status",
   "name" : "android::hardware::Status",
   "record_kind" : "class",
   "referenced_type" : "type-5",
   "self_type" : "type-5",
   "size" : 32,
   "source_file" : "/system/libhidl/base/include/hidl/Status.h",
   "unique_id" : "_ZTSN7android8hardware6StatusE"
  },
  {
   "alignment" : 1,
   "fields" :
   [
    {
     "field_name" : "specified",
     "referenced_type" : "type-8"
    },
    {
     "field_name" : "value",
     "field_offset" : 8,
     "referenced_type" : "type-8"
    }
   ],
   "linker_set_key" : "android::hardware::configstore::V1_0::OptionalBool",
   "name" : "android::hardware::configstore::V1_0::OptionalBool",
   "referenced_type" : "type-120",
   "self_type" : "type-120",
   "size" : 2,
   "source_file" : "/out/soong/.intermediates/hardware/interfaces/configstore/1.0/android.hardware.configstore@1.0_genc++_headers/gen/android/hardware/configstore/1.0/types.h",
   "unique_id" : "_ZTSN7android8hardware11configstore4V1_012OptionalBoolE"
  },
  {
   "alignment" : 4,
   "fields" :
   [
    {
     "field_name" : "specified",
     "referenced_type" : "type-8"
    },
    {
     "field_name" : "value",
     "field_offset" : 32,
     "referenced_type" : "type-6"
    }
   ],
   "linker_set_key" : "android::hardware::configstore::V1_0::OptionalInt32",
   "name" : "android::hardware::configstore::V1_0::OptionalInt32",
   "referenced_type" : "type-121",
   "self_type" : "type-121",
   "size" : 8,
   "source_file" : "/out/soong/.intermediates/hardware/interfaces/configstore/1.0/android.hardware.configstore@1.0_genc++_headers/gen/android/hardware/configstore/1.0/types.h",
   "unique_id" : "_ZTSN7android8hardware11configstore4V1_013OptionalInt32E"
  },
  {
   "alignment" : 8,
   "fields" :
   [
    {
     "field_name" : "specified",
     "referenced_type" : "type-8"
    },
    {
     "field_name" : "value",
     "field_offset" : 64,
     "referenced_type" : "type-33"
    }
   ],
   "linker_set_key" : "android::hardware::configstore::V1_0::OptionalInt64",
   "name" : "android::hardware::configstore::V1_0::OptionalInt64",
   "referenced_type" : "type-124",
   "self_type" : "type-124",
   "size" : 16,
   "source_file" : "/out/soong/.intermediates/hardware/interfaces/configstore/1.0/android.hardware.configstore@1.0_genc++_headers/gen/android/hardware/configstore/1.0/types.h",
   "unique_id" : "_ZTSN7android8hardware11configstore4V1_013OptionalInt64E"
  },
  {
   "alignment" : 8,
   "fields" :
   [
    {
     "field_name" : "specified",
     "referenced_type" : "type-8"
    },
    {
     "field_name" : "value",
     "field_offset" : 64,
     "referenced_type" : "type-71"
    }
   ],
   "linker_set_key" : "android::hardware::configstore::V1_0::OptionalString",
   "name" : "android::hardware::configstore::V1_0::OptionalString",
   "referenced_type" : "type-126",
   "self_type" : "type-126",
   "size" : 24,
   "source_file" : "/out/soong/.intermediates/hardware/interfaces/configstore/1.0/android.hardware.configstore@1.0_genc++_headers/gen/android/hardware/configstore/1.0/types.h",
   "unique_id" : "_ZTSN7android8hardware11configstore4V1_014OptionalStringE"
  },
  {
   "alignment" : 4,
   "fields" :
   [
    {
     "field_name" : "specified",
     "referenced_type" : "type-8"
    },
    {
     "field_name" : "value",
     "field_offset" : 32,
     "referenced_type" : "type-2"
    }
   ],
   "linker_set_key" : "android::hardware::configstore::V1_0::OptionalUInt32",
   "name" : "android::hardware::configstore::V1_0::OptionalUInt32",
   "referenced_type" : "type-122",
   "self_type" : "type-122",
   "size" : 8,
   "source_file" : "/out/soong/.intermediates/hardware/interfaces/configstore/1.0/android.hardware.configstore@1.0_genc++_headers/gen/android/hardware/configstore/1.0/types.h",
   "unique_id" : "_ZTSN7android8hardware11configstore4V1_014OptionalUInt32E"
  },
  {
   "alignment" : 8,
   "fields" :
   [
    {
     "field_name" : "specified",
     "referenced_type" : "type-8"
    },
    {
     "field_name" : "value",
     "field_offset" : 64,
     "referenced_type" : "type-36"
    }
   ],
   "linker_set_key" : "android::hardware::configstore::V1_0::OptionalUInt64",
   "name" : "android::hardware::configstore::V1_0::OptionalUInt64",
   "referenced_type" : "type-125",
   "self_type" : "type-125",
   "size" : 16,
   "source_file" : "/out/soong/.intermediates/hardware/interfaces/configstore/1.0/android.hardware.configstore@1.0_genc++_headers/gen/android/hardware/configstore/1.0/types.h",
   "unique_id" : "_ZTSN7android8hardware11configstore4V1_014OptionalUInt64E"
  },
  {
   "alignment" : 1,
   "fields" :
   [
    {
     "field_name" : "specified",
     "referenced_type" : "type-8"
    },
    {
     "field_name" : "value",
     "field_offset" : 8,
     "referenced_type" : "type-127"
    }
   ],
   "linker_set_key" : "android::hardware::configstore::V1_1::OptionalDisplayOrientation",
   "name" : "android::hardware::configstore::V1_1::OptionalDisplayOrientation",
   "referenced_type" : "type-128",
   "self_type" : "type-128",
   "size" : 2,
   "source_file" : "/out/soong/.intermediates/hardware/interfaces/configstore/1.1/android.hardware.configstore@1.1_genc++_headers/gen/android/hardware/configstore/1.1/types.h",
   "unique_id" : "_ZTSN7android8hardware11configstore4V1_126OptionalDisplayOrientationE"
  },
  {
   "alignment" : 8,
   "fields" :
   [
    {
     "access" : "protected",
     "field_name" : "mInstrumentationCallbacks",
     "field_offset" : 64,
     "referenced_type" : "type-178"
    },
    {
     "access" : "protected",
     "field_name" : "mEnableInstrumentation",
     "field_offset" : 256,
     "referenced_type" : "type-8"
    },
    {
     "access" : "protected",
     "field_name" : "mInstrumentationLibPackage",
     "field_offset" : 320,
     "referenced_type" : "type-179"
    },
    {
     "access" : "protected",
     "field_name" : "mInterfaceName",
     "field_offset" : 512,
     "referenced_type" : "type-180"
    }
   ],
   "linker_set_key" : "android::hardware::details::HidlInstrumentor",
   "name" : "android::hardware::details::HidlInstrumentor",
   "referenced_type" : "type-177",
   "self_type" : "type-177",
   "size" : 88,
   "source_file" : "/system/libhidl/base/include/hidl/HidlInternal.h",
   "unique_id" : "_ZTSN7android8hardware7details16HidlInstrumentorE",
   "vtable_components" :
   [
    {
     "kind" : "offset_to_top"
    },
    {
     "kind" : "rtti",
     "mangled_component_name" : "_ZTIN7android8hardware7details16HidlInstrumentorE"
    },
    {
     "kind" : "complete_dtor_pointer",
     "mangled_component_name" : "_ZN7android8hardware7details16HidlInstrumentorD1Ev"
    },
    {
     "kind" : "deleting_dtor_pointer",
     "mangled_component_name" : "_ZN7android8hardware7details16HidlInstrumentorD0Ev"
    }
   ]
  },
  {
   "alignment" : 1,
   "linker_set_key" : "android::hardware::details::bnhw_tag",
   "name" : "android::hardware::details::bnhw_tag",
   "referenced_type" : "type-172",
   "self_type" : "type-172",
   "size" : 1,
   "source_file" : "/system/libhidl/base/include/hidl/HidlInternal.h",
   "unique_id" : "_ZTSN7android8hardware7details8bnhw_tagE"
  },
  {
   "alignment" : 1,
   "linker_set_key" : "android::hardware::details::bphw_tag",
   "name" : "android::hardware::details::bphw_tag",
   "referenced_type" : "type-173",
   "self_type" : "type-173",
   "size" : 1,
   "source_file" : "/system/libhidl/base/include/hidl/HidlInternal.h",
   "unique_id" : "_ZTSN7android8hardware7details8bphw_tagE"
  },
  {
   "alignment" : 1,
   "linker_set_key" : "android::hardware::details::bs_tag",
   "name" : "android::hardware::details::bs_tag",
   "referenced_type" : "type-174",
   "self_type" : "type-174",
   "size" : 1,
   "source_file" : "/system/libhidl/base/include/hidl/HidlInternal.h",
   "unique_id" : "_ZTSN7android8hardware7details6bs_tagE"
  },
  {
   "access" : "private",
   "alignment" : 8,
   "fields" :
   [
    {
     "field_name" : "mPointer",
     "referenced_type" : "type-95"
    },
    {
     "field_name" : "_pad",
     "referenced_type" : "type-36"
    }
   ],
   "is_anonymous" : true,
   "linker_set_key" : "android::hardware::details::hidl_pointer<GrantorDescriptor>::(anonymous union at system/libhidl/base/include/hidl/HidlInternal.h:110:5) at system/libhidl/base/include/hidl/HidlInternal.h:110:5",
   "name" : "android::hardware::details::hidl_pointer<GrantorDescriptor>::(anonymous union at system/libhidl/base/include/hidl/HidlInternal.h:110:5) at system/libhidl/base/include/hidl/HidlInternal.h:110:5",
   "record_kind" : "union",
   "referenced_type" : "type-94",
   "self_type" : "type-94",
   "size" : 8,
   "source_file" : "/system/libhidl/base/include/hidl/HidlInternal.h",
   "unique_id" : "_ZTSN7android8hardware7details12hidl_pointerINS0_17GrantorDescriptorEEUt_E"
  },
  {
   "alignment" : 8,
   "fields" :
   [
    {
     "access" : "private",
     "referenced_type" : "type-94"
    }
   ],
   "linker_set_key" : "android::hardware::details::hidl_pointer<android::hardware::GrantorDescriptor>",
   "name" : "android::hardware::details::hidl_pointer<android::hardware::GrantorDescriptor>",
   "referenced_type" : "type-93",
   "self_type" : "type-93",
   "size" : 8,
   "source_file" : "/system/libhidl/base/include/hidl/HidlInternal.h",
   "template_args" : [ "type-96" ],
   "unique_id" : "_ZTSN7android8hardware7details12hidl_pointerINS0_17GrantorDescriptorEEE"
  },
  {
   "alignment" : 8,
   "fields" :
   [
    {
     "access" : "private",
     "referenced_type" : "type-73"
    }
   ],
   "linker_set_key" : "android::hardware::details::hidl_pointer<const char>",
   "name" : "android::hardware::details::hidl_pointer<const char>",
   "referenced_type" : "type-72",
   "self_type" : "type-72",
   "size" : 8,
   "source_file" : "/system/libhidl/base/include/hidl/HidlInternal.h",
   "template_args" : [ "type-57" ],
   "unique_id" : "_ZTSN7android8hardware7details12hidl_pointerIKcEE"
  },
  {
   "access" : "private",
   "alignment" : 8,
   "fields" :
   [
    {
     "field_name" : "mPointer",
     "referenced_type" : "type-56"
    },
    {
     "field_name" : "_pad",
     "referenced_type" : "type-36"
    }
   ],
   "is_anonymous" : true,
   "linker_set_key" : "android::hardware::details::hidl_pointer<const char>::(anonymous union at system/libhidl/base/include/hidl/HidlInternal.h:110:5) at system/libhidl/base/include/hidl/HidlInternal.h:110:5",
   "name" : "android::hardware::details::hidl_pointer<const char>::(anonymous union at system/libhidl/base/include/hidl/HidlInternal.h:110:5) at system/libhidl/base/include/hidl/HidlInternal.h:110:5",
   "record_kind" : "union",
   "referenced_type" : "type-73",
   "self_type" : "type-73",
   "size" : 8,
   "source_file" : "/system/libhidl/base/include/hidl/HidlInternal.h",
   "unique_id" : "_ZTSN7android8hardware7details12hidl_pointerIKcEUt_E"
  },
  {
   "alignment" : 8,
   "fields" :
   [
    {
     "access" : "private",
     "referenced_type" : "type-66"
    }
   ],
   "linker_set_key" : "android::hardware::details::hidl_pointer<const native_handle>",
   "name" : "android::hardware::details::hidl_pointer<const native_handle>",
   "referenced_type" : "type-65",
   "self_type" : "type-65",
   "size" : 8,
   "source_file" : "/system/libhidl/base/include/hidl/HidlInternal.h",
   "template_args" : [ "type-68" ],
   "unique_id" : "_ZTSN7android8hardware7details12hidl_pointerIK13native_handleEE"
  },
  {
   "access" : "private",
   "alignment" : 8,
   "fields" :
   [
    {
     "field_name" : "mPointer",
     "referenced_type" : "type-67"
    },
    {
     "field_name" : "_pad",
     "referenced_type" : "type-36"
    }
   ],
   "is_anonymous" : true,
   "linker_set_key" : "android::hardware::details::hidl_pointer<const native_handle>::(anonymous union at system/libhidl/base/include/hidl/HidlInternal.h:110:5) at system/libhidl/base/include/hidl/HidlInternal.h:110:5",
   "name" : "android::hardware::details::hidl_pointer<const native_handle>::(anonymous union at system/libhidl/base/include/hidl/HidlInternal.h:110:5) at system/libhidl/base/include/hidl/HidlInternal.h:110:5",
   "record_kind" : "union",
   "referenced_type" : "type-66",
   "self_type" : "type-66",
   "size" : 8,
   "source_file" : "/system/libhidl/base/include/hidl/HidlInternal.h",
   "unique_id" : "_ZTSN7android8hardware7details12hidl_pointerIK13native_handleEUt_E"
  },
  {
   "alignment" : 8,
   "fields" :
   [
    {
     "access" : "private",
     "referenced_type" : "type-176"
    }
   ],
   "linker_set_key" : "android::hardware::details::hidl_pointer<native_handle>",
   "name" : "android::hardware::details::hidl_pointer<native_handle>",
   "referenced_type" : "type-175",
   "self_type" : "type-175",
   "size" : 8,
   "source_file" : "/system/libhidl/base/include/hidl/HidlInternal.h",
   "template_args" : [ "type-69" ],
   "unique_id" : "_ZTSN7android8hardware7details12hidl_pointerI13native_handleEE"
  },
  {
   "access" : "private",
   "alignment" : 8,
   "fields" :
   [
    {
     "field_name" : "mPointer",
     "referenced_type" : "type-116"
    },
    {
     "field_name" : "_pad",
     "referenced_type" : "type-36"
    }
   ],
   "is_anonymous" : true,
   "linker_set_key" : "android::hardware::details::hidl_pointer<native_handle>::(anonymous union at system/libhidl/base/include/hidl/HidlInternal.h:110:5) at system/libhidl/base/include/hidl/HidlInternal.h:110:5",
   "name" : "android::hardware::details::hidl_pointer<native_handle>::(anonymous union at system/libhidl/base/include/hidl/HidlInternal.h:110:5) at system/libhidl/base/include/hidl/HidlInternal.h:110:5",
   "record_kind" : "union",
   "referenced_type" : "type-176",
   "self_type" : "type-176",
   "size" : 8,
   "source_file" : "/system/libhidl/base/include/hidl/HidlInternal.h",
   "unique_id" : "_ZTSN7android8hardware7details12hidl_pointerI13native_handleEUt_E"
  },
  {
   "alignment" : 1,
   "linker_set_key" : "android::hardware::details::i_tag",
   "name" : "android::hardware::details::i_tag",
   "referenced_type" : "type-171",
   "self_type" : "type-171",
   "size" : 1,
   "source_file" : "/system/libhidl/base/include/hidl/HidlInternal.h",
   "unique_id" : "_ZTSN7android8hardware7details5i_tagE"
  },
  {
   "alignment" : 8,
   "fields" :
   [
    {
     "access" : "private",
     "field_name" : "mStatus",
     "referenced_type" : "type-5"
    },
    {
     "access" : "private",
     "field_name" : "mCheckedStatus",
     "field_offset" : 256,
     "referenced_type" : "type-8"
    }
   ],
   "linker_set_key" : "android::hardware::details::return_status",
   "name" : "android::hardware::details::return_status",
   "record_kind" : "class",
   "referenced_type" : "type-4",
   "self_type" : "type-4",
   "size" : 40,
   "source_file" : "/system/libhidl/base/include/hidl/Status.h",
   "unique_id" : "_ZTSN7android8hardware7details13return_statusE"
  },
  {
   "alignment" : 8,
   "base_specifiers" :
   [
    {
     "is_virtual" : true,
     "referenced_type" : "type-46"
    }
   ],
   "linker_set_key" : "android::hardware::hidl_death_recipient",
   "name" : "android::hardware::hidl_death_recipient",
   "referenced_type" : "type-110",
   "self_type" : "type-110",
   "size" : 24,
   "source_file" : "/system/libhidl/base/include/hidl/HidlSupport.h",
   "unique_id" : "_ZTSN7android8hardware20hidl_death_recipientE",
   "vtable_components" :
   [
    {
     "component_value" : 8,
     "kind" : "vbase_offset"
    },
    {
     "kind" : "offset_to_top"
    },
    {
     "kind" : "rtti",
     "mangled_component_name" : "_ZTIN7android8hardware20hidl_death_recipientE"
    },
    {
     "is_pure" : true,
     "mangled_component_name" : "_ZN7android8hardware20hidl_death_recipient11serviceDiedEmRKNS_2wpINS_4hidl4base4V1_05IBaseEEE"
    },
    {
     "kind" : "complete_dtor_pointer",
     "mangled_component_name" : "_ZN7android8hardware20hidl_death_recipientD1Ev"
    },
    {
     "kind" : "deleting_dtor_pointer",
     "mangled_component_name" : "_ZN7android8hardware20hidl_death_recipientD0Ev"
    },
    {
     "kind" : "vcall_offset"
    },
    {
     "kind" : "vcall_offset"
    },
    {
     "kind" : "vcall_offset"
    },
    {
     "kind" : "vcall_offset"
    },
    {
     "component_value" : -8,
     "kind" : "vcall_offset"
    },
    {
     "component_value" : -8,
     "kind" : "offset_to_top"
    },
    {
     "kind" : "rtti",
     "mangled_component_name" : "_ZTIN7android8hardware20hidl_death_recipientE"
    },
    {
     "kind" : "complete_dtor_pointer",
     "mangled_component_name" : "_ZTv0_n24_N7android8hardware20hidl_death_recipientD1Ev"
    },
    {
     "kind" : "deleting_dtor_pointer",
     "mangled_component_name" : "_ZTv0_n24_N7android8hardware20hidl_death_recipientD0Ev"
    },
    {
     "mangled_component_name" : "_ZN7android7RefBase10onFirstRefEv"
    },
    {
     "mangled_component_name" : "_ZN7android7RefBase15onLastStrongRefEPKv"
    },
    {
     "mangled_component_name" : "_ZN7android7RefBase20onIncStrongAttemptedEjPKv"
    },
    {
     "mangled_component_name" : "_ZN7android7RefBase13onLastWeakRefEPKv"
    }
   ]
  },
  {
   "alignment" : 8,
   "fields" :
   [
    {
     "access" : "private",
     "field_name" : "mHandle",
     "referenced_type" : "type-65"
    },
    {
     "access" : "private",
     "field_name" : "mOwnsHandle",
     "field_offset" : 64,
     "referenced_type" : "type-8"
    }
   ],
   "linker_set_key" : "android::hardware::hidl_handle",
   "name" : "android::hardware::hidl_handle",
   "referenced_type" : "type-64",
   "self_type" : "type-64",
   "size" : 16,
   "source_file" : "/system/libhidl/base/include/hidl/HidlSupport.h",
   "unique_id" : "_ZTSN7android8hardware11hidl_handleE"
  },
  {
   "alignment" : 8,
   "fields" :
   [
    {
     "access" : "private",
     "field_name" : "mHandle",
     "referenced_type" : "type-64"
    },
    {
     "access" : "private",
     "field_name" : "mSize",
     "field_offset" : 128,
     "referenced_type" : "type-36"
    },
    {
     "access" : "private",
     "field_name" : "mName",
     "field_offset" : 192,
     "referenced_type" : "type-71"
    }
   ],
   "linker_set_key" : "android::hardware::hidl_memory",
   "name" : "android::hardware::hidl_memory",
   "referenced_type" : "type-78",
   "self_type" : "type-78",
   "size" : 40,
   "source_file" : "/system/libhidl/base/include/hidl/HidlSupport.h",
   "unique_id" : "_ZTSN7android8hardware11hidl_memoryE"
  },
  {
   "alignment" : 8,
   "fields" :
   [
    {
     "access" : "private",
     "field_name" : "mBuffer",
     "referenced_type" : "type-72"
    },
    {
     "access" : "private",
     "field_name" : "mSize",
     "field_offset" : 64,
     "referenced_type" : "type-2"
    },
    {
     "access" : "private",
     "field_name" : "mOwnsBuffer",
     "field_offset" : 96,
     "referenced_type" : "type-8"
    }
   ],
   "linker_set_key" : "android::hardware::hidl_string",
   "name" : "android::hardware::hidl_string",
   "referenced_type" : "type-71",
   "self_type" : "type-71",
   "size" : 16,
   "source_file" : "/system/libhidl/base/include/hidl/HidlSupport.h",
   "unique_id" : "_ZTSN7android8hardware11hidl_stringE"
  },
  {
   "alignment" : 8,
   "fields" :
   [
    {
     "access" : "private",
     "field_name" : "mBuffer",
     "referenced_type" : "type-93"
    },
    {
     "access" : "private",
     "field_name" : "mSize",
     "field_offset" : 64,
     "referenced_type" : "type-2"
    },
    {
     "access" : "private",
     "field_name" : "mOwnsBuffer",
     "field_offset" : 96,
     "referenced_type" : "type-8"
    }
   ],
   "linker_set_key" : "android::hardware::hidl_vec<android::hardware::GrantorDescriptor>",
   "name" : "android::hardware::hidl_vec<android::hardware::GrantorDescriptor>",
   "referenced_type" : "type-92",
   "self_type" : "type-92",
   "size" : 16,
   "source_file" : "/system/libhidl/base/include/hidl/HidlSupport.h",
   "template_args" : [ "type-96" ],
   "unique_id" : "_ZTSN7android8hardware8hidl_vecINS0_17GrantorDescriptorEEE"
  },
  {
   "alignment" : 2,
   "fields" :
   [
    {
     "access" : "private",
     "field_name" : "mMajor",
     "referenced_type" : "type-26"
    },
    {
     "access" : "private",
     "field_name" : "mMinor",
     "field_offset" : 16,
     "referenced_type" : "type-26"
    }
   ],
   "linker_set_key" : "android::hardware::hidl_version",
   "name" : "android::hardware::hidl_version",
   "referenced_type" : "type-97",
   "self_type" : "type-97",
   "size" : 4,
   "source_file" : "/system/libhidl/base/include/hidl/HidlSupport.h",
   "unique_id" : "_ZTSN7android8hardware12hidl_versionE"
  },
  {
   "alignment" : 8,
   "fields" :
   [
    {
     "access" : "private",
     "field_name" : "m_ptr",
     "referenced_type" : "type-109"
    }
   ],
   "linker_set_key" : "android::sp<android::hardware::hidl_death_recipient>",
   "name" : "android::sp<android::hardware::hidl_death_recipient>",
   "record_kind" : "class",
   "referenced_type" : "type-108",
   "self_type" : "type-108",
   "size" : 8,
   "source_file" : "/system/core/libutils/include/utils/StrongPointer.h",
   "template_args" : [ "type-110" ],
   "unique_id" : "_ZTSN7android2spINS_8hardware20hidl_death_recipientEEE"
  },
  {
   "alignment" : 1,
   "linker_set_key" : "android::trait_trivial_copy<bool>",
   "name" : "android::trait_trivial_copy<bool>",
   "referenced_type" : "type-203",
   "self_type" : "type-203",
   "size" : 1,
   "source_file" : "/system/core/libutils/include/utils/TypeHelpers.h",
   "template_args" : [ "type-8" ],
   "unique_id" : "_ZTSN7android18trait_trivial_copyIbEE"
  },
  {
   "alignment" : 1,
   "linker_set_key" : "android::trait_trivial_copy<char>",
   "name" : "android::trait_trivial_copy<char>",
   "referenced_type" : "type-207",
   "self_type" : "type-207",
   "size" : 1,
   "source_file" : "/system/core/libutils/include/utils/TypeHelpers.h",
   "template_args" : [ "type-58" ],
   "unique_id" : "_ZTSN7android18trait_trivial_copyIcEE"
  },
  {
   "alignment" : 1,
   "linker_set_key" : "android::trait_trivial_copy<double>",
   "name" : "android::trait_trivial_copy<double>",
   "referenced_type" : "type-11",
   "self_type" : "type-11",
   "size" : 1,
   "source_file" : "/system/core/libutils/include/utils/TypeHelpers.h",
   "template_args" : [ "type-9" ],
   "unique_id" : "_ZTSN7android18trait_trivial_copyIdEE"
  },
  {
   "alignment" : 1,
   "linker_set_key" : "android::trait_trivial_copy<float>",
   "name" : "android::trait_trivial_copy<float>",
   "referenced_type" : "type-251",
   "self_type" : "type-251",
   "size" : 1,
   "source_file" : "/system/core/libutils/include/utils/TypeHelpers.h",
   "template_args" : [ "type-40" ],
   "unique_id" : "_ZTSN7android18trait_trivial_copyIfEE"
  },
  {
   "alignment" : 1,
   "linker_set_key" : "android::trait_trivial_copy<int>",
   "name" : "android::trait_trivial_copy<int>",
   "referenced_type" : "type-223",
   "self_type" : "type-223",
   "size" : 1,
   "source_file" : "/system/core/libutils/include/utils/TypeHelpers.h",
   "template_args" : [ "type-6" ],
   "unique_id" : "_ZTSN7android18trait_trivial_copyIiEE"
  },
  {
   "alignment" : 1,
   "linker_set_key" : "android::trait_trivial_copy<long long>",
   "name" : "android::trait_trivial_copy<long long>",
   "referenced_type" : "type-241",
   "self_type" : "type-241",
   "size" : 1,
   "source_file" : "/system/core/libutils/include/utils/TypeHelpers.h",
   "template_args" : [ "type-239" ],
   "unique_id" : "_ZTSN7android18trait_trivial_copyIxEE"
  },
  {
   "alignment" : 1,
   "linker_set_key" : "android::trait_trivial_copy<long>",
   "name" : "android::trait_trivial_copy<long>",
   "referenced_type" : "type-231",
   "self_type" : "type-231",
   "size" : 1,
   "source_file" : "/system/core/libutils/include/utils/TypeHelpers.h",
   "template_args" : [ "type-33" ],
   "unique_id" : "_ZTSN7android18trait_trivial_copyIlEE"
  },
  {
   "alignment" : 1,
   "linker_set_key" : "android::trait_trivial_copy<short>",
   "name" : "android::trait_trivial_copy<short>",
   "referenced_type" : "type-215",
   "self_type" : "type-215",
   "size" : 1,
   "source_file" : "/system/core/libutils/include/utils/TypeHelpers.h",
   "template_args" : [ "type-23" ],
   "unique_id" : "_ZTSN7android18trait_trivial_copyIsEE"
  },
  {
   "alignment" : 1,
   "linker_set_key" : "android::trait_trivial_copy<unsigned char>",
   "name" : "android::trait_trivial_copy<unsigned char>",
   "referenced_type" : "type-211",
   "self_type" : "type-211",
   "size" : 1,
   "source_file" : "/system/core/libutils/include/utils/TypeHelpers.h",
   "template_args" : [ "type-20" ],
   "unique_id" : "_ZTSN7android18trait_trivial_copyIhEE"
  },
  {
   "alignment" : 1,
   "linker_set_key" : "android::trait_trivial_copy<unsigned int>",
   "name" : "android::trait_trivial_copy<unsigned int>",
   "referenced_type" : "type-227",
   "self_type" : "type-227",
   "size" : 1,
   "source_file" : "/system/core/libutils/include/utils/TypeHelpers.h",
   "template_args" : [ "type-2" ],
   "unique_id" : "_ZTSN7android18trait_trivial_copyIjEE"
  },
  {
   "alignment" : 1,
   "linker_set_key" : "android::trait_trivial_copy<unsigned long long>",
   "name" : "android::trait_trivial_copy<unsigned long long>",
   "referenced_type" : "type-247",
   "self_type" : "type-247",
   "size" : 1,
   "source_file" : "/system/core/libutils/include/utils/TypeHelpers.h",
   "template_args" : [ "type-244" ],
   "unique_id" : "_ZTSN7android18trait_trivial_copyIyEE"
  },
  {
   "alignment" : 1,
   "linker_set_key" : "android::trait_trivial_copy<unsigned long>",
   "name" : "android::trait_trivial_copy<unsigned long>",
   "referenced_type" : "type-236",
   "self_type" : "type-236",
   "size" : 1,
   "source_file" : "/system/core/libutils/include/utils/TypeHelpers.h",
   "template_args" : [ "type-36" ],
   "unique_id" : "_ZTSN7android18trait_trivial_copyImEE"
  },
  {
   "alignment" : 1,
   "linker_set_key" : "android::trait_trivial_copy<unsigned short>",
   "name" : "android::trait_trivial_copy<unsigned short>",
   "referenced_type" : "type-219",
   "self_type" : "type-219",
   "size" : 1,
   "source_file" : "/system/core/libutils/include/utils/TypeHelpers.h",
   "template_args" : [ "type-26" ],
   "unique_id" : "_ZTSN7android18trait_trivial_copyItEE"
  },
  {
   "alignment" : 1,
   "linker_set_key" : "android::trait_trivial_copy<void>",
   "name" : "android::trait_trivial_copy<void>",
   "referenced_type" : "type-198",
   "self_type" : "type-198",
   "size" : 1,
   "source_file" : "/system/core/libutils/include/utils/TypeHelpers.h",
   "template_args" : [ "type-51" ],
   "unique_id" : "_ZTSN7android18trait_trivial_copyIvEE"
  },
  {
   "alignment" : 1,
   "linker_set_key" : "android::trait_trivial_ctor<bool>",
   "name" : "android::trait_trivial_ctor<bool>",
   "referenced_type" : "type-201",
   "self_type" : "type-201",
   "size" : 1,
   "source_file" : "/system/core/libutils/include/utils/TypeHelpers.h",
   "template_args" : [ "type-8" ],
   "unique_id" : "_ZTSN7android18trait_trivial_ctorIbEE"
  },
  {
   "alignment" : 1,
   "linker_set_key" : "android::trait_trivial_ctor<char>",
   "name" : "android::trait_trivial_ctor<char>",
   "referenced_type" : "type-205",
   "self_type" : "type-205",
   "size" : 1,
   "source_file" : "/system/core/libutils/include/utils/TypeHelpers.h",
   "template_args" : [ "type-58" ],
   "unique_id" : "_ZTSN7android18trait_trivial_ctorIcEE"
  },
  {
   "alignment" : 1,
   "linker_set_key" : "android::trait_trivial_ctor<double>",
   "name" : "android::trait_trivial_ctor<double>",
   "referenced_type" : "type-253",
   "self_type" : "type-253",
   "size" : 1,
   "source_file" : "/system/core/libutils/include/utils/TypeHelpers.h",
   "template_args" : [ "type-9" ],
   "unique_id" : "_ZTSN7android18trait_trivial_ctorIdEE"
  },
  {
   "alignment" : 1,
   "linker_set_key" : "android::trait_trivial_ctor<float>",
   "name" : "android::trait_trivial_ctor<float>",
   "referenced_type" : "type-249",
   "self_type" : "type-249",
   "size" : 1,
   "source_file" : "/system/core/libutils/include/utils/TypeHelpers.h",
   "template_args" : [ "type-40" ],
   "unique_id" : "_ZTSN7android18trait_trivial_ctorIfEE"
  },
  {
   "alignment" : 1,
   "linker_set_key" : "android::trait_trivial_ctor<int>",
   "name" : "android::trait_trivial_ctor<int>",
   "referenced_type" : "type-221",
   "self_type" : "type-221",
   "size" : 1,
   "source_file" : "/system/core/libutils/include/utils/TypeHelpers.h",
   "template_args" : [ "type-6" ],
   "unique_id" : "_ZTSN7android18trait_trivial_ctorIiEE"
  },
  {
   "alignment" : 1,
   "linker_set_key" : "android::trait_trivial_ctor<long long>",
   "name" : "android::trait_trivial_ctor<long long>",
   "referenced_type" : "type-238",
   "self_type" : "type-238",
   "size" : 1,
   "source_file" : "/system/core/libutils/include/utils/TypeHelpers.h",
   "template_args" : [ "type-239" ],
   "unique_id" : "_ZTSN7android18trait_trivial_ctorIxEE"
  },
  {
   "alignment" : 1,
   "linker_set_key" : "android::trait_trivial_ctor<long>",
   "name" : "android::trait_trivial_ctor<long>",
   "referenced_type" : "type-229",
   "self_type" : "type-229",
   "size" : 1,
   "source_file" : "/system/core/libutils/include/utils/TypeHelpers.h",
   "template_args" : [ "type-33" ],
   "unique_id" : "_ZTSN7android18trait_trivial_ctorIlEE"
  },
  {
   "alignment" : 1,
   "linker_set_key" : "android::trait_trivial_ctor<short>",
   "name" : "android::trait_trivial_ctor<short>",
   "referenced_type" : "type-213",
   "self_type" : "type-213",
   "size" : 1,
   "source_file" : "/system/core/libutils/include/utils/TypeHelpers.h",
   "template_args" : [ "type-23" ],
   "unique_id" : "_ZTSN7android18trait_trivial_ctorIsEE"
  },
  {
   "alignment" : 1,
   "linker_set_key" : "android::trait_trivial_ctor<unsigned char>",
   "name" : "android::trait_trivial_ctor<unsigned char>",
   "referenced_type" : "type-209",
   "self_type" : "type-209",
   "size" : 1,
   "source_file" : "/system/core/libutils/include/utils/TypeHelpers.h",
   "template_args" : [ "type-20" ],
   "unique_id" : "_ZTSN7android18trait_trivial_ctorIhEE"
  },
  {
   "alignment" : 1,
   "linker_set_key" : "android::trait_trivial_ctor<unsigned int>",
   "name" : "android::trait_trivial_ctor<unsigned int>",
   "referenced_type" : "type-225",
   "self_type" : "type-225",
   "size" : 1,
   "source_file" : "/system/core/libutils/include/utils/TypeHelpers.h",
   "template_args" : [ "type-2" ],
   "unique_id" : "_ZTSN7android18trait_trivial_ctorIjEE"
  },
  {
   "alignment" : 1,
   "linker_set_key" : "android::trait_trivial_ctor<unsigned long long>",
   "name" : "android::trait_trivial_ctor<unsigned long long>",
   "referenced_type" : "type-243",
   "self_type" : "type-243",
   "size" : 1,
   "source_file" : "/system/core/libutils/include/utils/TypeHelpers.h",
   "template_args" : [ "type-244" ],
   "unique_id" : "_ZTSN7android18trait_trivial_ctorIyEE"
  },
  {
   "alignment" : 1,
   "linker_set_key" : "android::trait_trivial_ctor<unsigned long>",
   "name" : "android::trait_trivial_ctor<unsigned long>",
   "referenced_type" : "type-233",
   "self_type" : "type-233",
   "size" : 1,
   "source_file" : "/system/core/libutils/include/utils/TypeHelpers.h",
   "template_args" : [ "type-36" ],
   "unique_id" : "_ZTSN7android18trait_trivial_ctorImEE"
  },
  {
   "alignment" : 1,
   "linker_set_key" : "android::trait_trivial_ctor<unsigned short>",
   "name" : "android::trait_trivial_ctor<unsigned short>",
   "referenced_type" : "type-217",
   "self_type" : "type-217",
   "size" : 1,
   "source_file" : "/system/core/libutils/include/utils/TypeHelpers.h",
   "template_args" : [ "type-26" ],
   "unique_id" : "_ZTSN7android18trait_trivial_ctorItEE"
  },
  {
   "alignment" : 1,
   "linker_set_key" : "android::trait_trivial_ctor<void>",
   "name" : "android::trait_trivial_ctor<void>",
   "referenced_type" : "type-196",
   "self_type" : "type-196",
   "size" : 1,
   "source_file" : "/system/core/libutils/include/utils/TypeHelpers.h",
   "template_args" : [ "type-51" ],
   "unique_id" : "_ZTSN7android18trait_trivial_ctorIvEE"
  },
  {
   "alignment" : 1,
   "linker_set_key" : "android::trait_trivial_dtor<bool>",
   "name" : "android::trait_trivial_dtor<bool>",
   "referenced_type" : "type-202",
   "self_type" : "type-202",
   "size" : 1,
   "source_file" : "/system/core/libutils/include/utils/TypeHelpers.h",
   "template_args" : [ "type-8" ],
   "unique_id" : "_ZTSN7android18trait_trivial_dtorIbEE"
  },
  {
   "alignment" : 1,
   "linker_set_key" : "android::trait_trivial_dtor<char>",
   "name" : "android::trait_trivial_dtor<char>",
   "referenced_type" : "type-206",
   "self_type" : "type-206",
   "size" : 1,
   "source_file" : "/system/core/libutils/include/utils/TypeHelpers.h",
   "template_args" : [ "type-58" ],
   "unique_id" : "_ZTSN7android18trait_trivial_dtorIcEE"
  },
  {
   "alignment" : 1,
   "linker_set_key" : "android::trait_trivial_dtor<double>",
   "name" : "android::trait_trivial_dtor<double>",
   "referenced_type" : "type-10",
   "self_type" : "type-10",
   "size" : 1,
   "source_file" : "/system/core/libutils/include/utils/TypeHelpers.h",
   "template_args" : [ "type-9" ],
   "unique_id" : "_ZTSN7android18trait_trivial_dtorIdEE"
  },
  {
   "alignment" : 1,
   "linker_set_key" : "android::trait_trivial_dtor<float>",
   "name" : "android::trait_trivial_dtor<float>",
   "referenced_type" : "type-250",
   "self_type" : "type-250",
   "size" : 1,
   "source_file" : "/system/core/libutils/include/utils/TypeHelpers.h",
   "template_args" : [ "type-40" ],
   "unique_id" : "_ZTSN7android18trait_trivial_dtorIfEE"
  },
  {
   "alignment" : 1,
   "linker_set_key" : "android::trait_trivial_dtor<int>",
   "name" : "android::trait_trivial_dtor<int>",
   "referenced_type" : "type-222",
   "self_type" : "type-222",
   "size" : 1,
   "source_file" : "/system/core/libutils/include/utils/TypeHelpers.h",
   "template_args" : [ "type-6" ],
   "unique_id" : "_ZTSN7android18trait_trivial_dtorIiEE"
  },
  {
   "alignment" : 1,
   "linker_set_key" : "android::trait_trivial_dtor<long long>",
   "name" : "android::trait_trivial_dtor<long long>",
   "referenced_type" : "type-240",
   "self_type" : "type-240",
   "size" : 1,
   "source_file" : "/system/core/libutils/include/utils/TypeHelpers.h",
   "template_args" : [ "type-239" ],
   "unique_id" : "_ZTSN7android18trait_trivial_dtorIxEE"
  },
  {
   "alignment" : 1,
   "linker_set_key" : "android::trait_trivial_dtor<long>",
   "name" : "android::trait_trivial_dtor<long>",
   "referenced_type" : "type-230",
   "self_type" : "type-230",
   "size" : 1,
   "source_file" : "/system/core/libutils/include/utils/TypeHelpers.h",
   "template_args" : [ "type-33" ],
   "unique_id" : "_ZTSN7android18trait_trivial_dtorIlEE"
  },
  {
   "alignment" : 1,
   "linker_set_key" : "android::trait_trivial_dtor<short>",
   "name" : "android::trait_trivial_dtor<short>",
   "referenced_type" : "type-214",
   "self_type" : "type-214",
   "size" : 1,
   "source_file" : "/system/core/libutils/include/utils/TypeHelpers.h",
   "template_args" : [ "type-23" ],
   "unique_id" : "_ZTSN7android18trait_trivial_dtorIsEE"
  },
  {
   "alignment" : 1,
   "linker_set_key" : "android::trait_trivial_dtor<unsigned char>",
   "name" : "android::trait_trivial_dtor<unsigned char>",
   "referenced_type" : "type-210",
   "self_type" : "type-210",
   "size" : 1,
   "source_file" : "/system/core/libutils/include/utils/TypeHelpers.h",
   "template_args" : [ "type-20" ],
   "unique_id" : "_ZTSN7android18trait_trivial_dtorIhEE"
  },
  {
   "alignment" : 1,
   "linker_set_key" : "android::trait_trivial_dtor<unsigned int>",
   "name" : "android::trait_trivial_dtor<unsigned int>",
   "referenced_type" : "type-226",
   "self_type" : "type-226",
   "size" : 1,
   "source_file" : "/system/core/libutils/include/utils/TypeHelpers.h",
   "template_args" : [ "type-2" ],
   "unique_id" : "_ZTSN7android18trait_trivial_dtorIjEE"
  },
  {
   "alignment" : 1,
   "linker_set_key" : "android::trait_trivial_dtor<unsigned long long>",
   "name" : "android::trait_trivial_dtor<unsigned long long>",
   "referenced_type" : "type-246",
   "self_type" : "type-246",
   "size" : 1,
   "source_file" : "/system/core/libutils/include/utils/TypeHelpers.h",
   "template_args" : [ "type-244" ],
   "unique_id" : "_ZTSN7android18trait_trivial_dtorIyEE"
  },
  {
   "alignment" : 1,
   "linker_set_key" : "android::trait_trivial_dtor<unsigned long>",
   "name" : "android::trait_trivial_dtor<unsigned long>",
   "referenced_type" : "type-235",
   "self_type" : "type-235",
   "size" : 1,
   "source_file" : "/system/core/libutils/include/utils/TypeHelpers.h",
   "template_args" : [ "type-36" ],
   "unique_id" : "_ZTSN7android18trait_trivial_dtorImEE"
  },
  {
   "alignment" : 1,
   "linker_set_key" : "android::trait_trivial_dtor<unsigned short>",
   "name" : "android::trait_trivial_dtor<unsigned short>",
   "referenced_type" : "type-218",
   "self_type" : "type-218",
   "size" : 1,
   "source_file" : "/system/core/libutils/include/utils/TypeHelpers.h",
   "template_args" : [ "type-26" ],
   "unique_id" : "_ZTSN7android18trait_trivial_dtorItEE"
  },
  {
   "alignment" : 1,
   "linker_set_key" : "android::trait_trivial_dtor<void>",
   "name" : "android::trait_trivial_dtor<void>",
   "referenced_type" : "type-197",
   "self_type" : "type-197",
   "size" : 1,
   "source_file" : "/system/core/libutils/include/utils/TypeHelpers.h",
   "template_args" : [ "type-51" ],
   "unique_id" : "_ZTSN7android18trait_trivial_dtorIvEE"
  },
  {
   "alignment" : 1,
   "linker_set_key" : "android::trait_trivial_move<bool>",
   "name" : "android::trait_trivial_move<bool>",
   "referenced_type" : "type-204",
   "self_type" : "type-204",
   "size" : 1,
   "source_file" : "/system/core/libutils/include/utils/TypeHelpers.h",
   "template_args" : [ "type-8" ],
   "unique_id" : "_ZTSN7android18trait_trivial_moveIbEE"
  },
  {
   "alignment" : 1,
   "linker_set_key" : "android::trait_trivial_move<char>",
   "name" : "android::trait_trivial_move<char>",
   "referenced_type" : "type-208",
   "self_type" : "type-208",
   "size" : 1,
   "source_file" : "/system/core/libutils/include/utils/TypeHelpers.h",
   "template_args" : [ "type-58" ],
   "unique_id" : "_ZTSN7android18trait_trivial_moveIcEE"
  },
  {
   "alignment" : 1,
   "linker_set_key" : "android::trait_trivial_move<double>",
   "name" : "android::trait_trivial_move<double>",
   "referenced_type" : "type-12",
   "self_type" : "type-12",
   "size" : 1,
   "source_file" : "/system/core/libutils/include/utils/TypeHelpers.h",
   "template_args" : [ "type-9" ],
   "unique_id" : "_ZTSN7android18trait_trivial_moveIdEE"
  },
  {
   "alignment" : 1,
   "linker_set_key" : "android::trait_trivial_move<float>",
   "name" : "android::trait_trivial_move<float>",
   "referenced_type" : "type-252",
   "self_type" : "type-252",
   "size" : 1,
   "source_file" : "/system/core/libutils/include/utils/TypeHelpers.h",
   "template_args" : [ "type-40" ],
   "unique_id" : "_ZTSN7android18trait_trivial_moveIfEE"
  },
  {
   "alignment" : 1,
   "linker_set_key" : "android::trait_trivial_move<int>",
   "name" : "android::trait_trivial_move<int>",
   "referenced_type" : "type-224",
   "self_type" : "type-224",
   "size" : 1,
   "source_file" : "/system/core/libutils/include/utils/TypeHelpers.h",
   "template_args" : [ "type-6" ],
   "unique_id" : "_ZTSN7android18trait_trivial_moveIiEE"
  },
  {
   "alignment" : 1,
   "linker_set_key" : "android::trait_trivial_move<long long>",
   "name" : "android::trait_trivial_move<long long>",
   "referenced_type" : "type-242",
   "self_type" : "type-242",
   "size" : 1,
   "source_file" : "/system/core/libutils/include/utils/TypeHelpers.h",
   "template_args" : [ "type-239" ],
   "unique_id" : "_ZTSN7android18trait_trivial_moveIxEE"
  },
  {
   "alignment" : 1,
   "linker_set_key" : "android::trait_trivial_move<long>",
   "name" : "android::trait_trivial_move<long>",
   "referenced_type" : "type-232",
   "self_type" : "type-232",
   "size" : 1,
   "source_file" : "/system/core/libutils/include/utils/TypeHelpers.h",
   "template_args" : [ "type-33" ],
   "unique_id" : "_ZTSN7android18trait_trivial_moveIlEE"
  },
  {
   "alignment" : 1,
   "linker_set_key" : "android::trait_trivial_move<short>",
   "name" : "android::trait_trivial_move<short>",
   "referenced_type" : "type-216",
   "self_type" : "type-216",
   "size" : 1,
   "source_file" : "/system/core/libutils/include/utils/TypeHelpers.h",
   "template_args" : [ "type-23" ],
   "unique_id" : "_ZTSN7android18trait_trivial_moveIsEE"
  },
  {
   "alignment" : 1,
   "linker_set_key" : "android::trait_trivial_move<unsigned char>",
   "name" : "android::trait_trivial_move<unsigned char>",
   "referenced_type" : "type-212",
   "self_type" : "type-212",
   "size" : 1,
   "source_file" : "/system/core/libutils/include/utils/TypeHelpers.h",
   "template_args" : [ "type-20" ],
   "unique_id" : "_ZTSN7android18trait_trivial_moveIhEE"
  },
  {
   "alignment" : 1,
   "linker_set_key" : "android::trait_trivial_move<unsigned int>",
   "name" : "android::trait_trivial_move<unsigned int>",
   "referenced_type" : "type-228",
   "self_type" : "type-228",
   "size" : 1,
   "source_file" : "/system/core/libutils/include/utils/TypeHelpers.h",
   "template_args" : [ "type-2" ],
   "unique_id" : "_ZTSN7android18trait_trivial_moveIjEE"
  },
  {
   "alignment" : 1,
   "linker_set_key" : "android::trait_trivial_move<unsigned long long>",
   "name" : "android::trait_trivial_move<unsigned long long>",
   "referenced_type" : "type-248",
   "self_type" : "type-248",
   "size" : 1,
   "source_file" : "/system/core/libutils/include/utils/TypeHelpers.h",
   "template_args" : [ "type-244" ],
   "unique_id" : "_ZTSN7android18trait_trivial_moveIyEE"
  },
  {
   "alignment" : 1,
   "linker_set_key" : "android::trait_trivial_move<unsigned long>",
   "name" : "android::trait_trivial_move<unsigned long>",
   "referenced_type" : "type-237",
   "self_type" : "type-237",
   "size" : 1,
   "source_file" : "/system/core/libutils/include/utils/TypeHelpers.h",
   "template_args" : [ "type-36" ],
   "unique_id" : "_ZTSN7android18trait_trivial_moveImEE"
  },
  {
   "alignment" : 1,
   "linker_set_key" : "android::trait_trivial_move<unsigned short>",
   "name" : "android::trait_trivial_move<unsigned short>",
   "referenced_type" : "type-220",
   "self_type" : "type-220",
   "size" : 1,
   "source_file" : "/system/core/libutils/include/utils/TypeHelpers.h",
   "template_args" : [ "type-26" ],
   "unique_id" : "_ZTSN7android18trait_trivial_moveItEE"
  },
  {
   "alignment" : 1,
   "linker_set_key" : "android::trait_trivial_move<void>",
   "name" : "android::trait_trivial_move<void>",
   "referenced_type" : "type-199",
   "self_type" : "type-199",
   "size" : 1,
   "source_file" : "/system/core/libutils/include/utils/TypeHelpers.h",
   "template_args" : [ "type-51" ],
   "unique_id" : "_ZTSN7android18trait_trivial_moveIvEE"
  },
  {
   "alignment" : 4,
   "fields" :
   [
    {
     "field_name" : "version",
     "referenced_type" : "type-6"
    },
    {
     "field_name" : "numFds",
     "field_offset" : 32,
     "referenced_type" : "type-6"
    },
    {
     "field_name" : "numInts",
     "field_offset" : 64,
     "referenced_type" : "type-6"
    },
    {
     "field_name" : "data",
     "field_offset" : 96,
     "referenced_type" : "type-70"
    }
   ],
   "linker_set_key" : "native_handle",
   "name" : "native_handle",
   "referenced_type" : "type-69",
   "self_type" : "type-69",
   "size" : 12,
   "source_file" : "/system/core/libcutils/include/cutils/native_handle.h",
   "unique_id" : "native_handle"
  }
 ],
 "rvalue_reference_types" :
 [
  {
   "alignment" : 8,
   "linker_set_key" : "android::hardware::Return<void> &&",
   "name" : "android::hardware::Return<void> &&",
   "referenced_type" : "type-50",
   "self_type" : "type-90",
   "size" : 8,
   "source_file" : "/system/libhidl/base/include/hidl/Status.h"
  },
  {
   "alignment" : 8,
   "linker_set_key" : "android::hardware::Status &&",
   "name" : "android::hardware::Status &&",
   "referenced_type" : "type-5",
   "self_type" : "type-192",
   "size" : 8,
   "source_file" : "/system/libhidl/base/include/hidl/Status.h"
  },
  {
   "alignment" : 8,
   "linker_set_key" : "android::hardware::details::return_status &&",
   "name" : "android::hardware::details::return_status &&",
   "referenced_type" : "type-4",
   "self_type" : "type-245",
   "size" : 8,
   "source_file" : "/system/libhidl/base/include/hidl/Status.h"
  },
  {
   "alignment" : 8,
   "linker_set_key" : "android::hardware::hidl_handle &&",
   "name" : "android::hardware::hidl_handle &&",
   "referenced_type" : "type-64",
   "self_type" : "type-81",
   "size" : 8,
   "source_file" : "/system/libhidl/base/include/hidl/HidlSupport.h"
  },
  {
   "alignment" : 8,
   "linker_set_key" : "android::hardware::hidl_memory &&",
   "name" : "android::hardware::hidl_memory &&",
   "referenced_type" : "type-78",
   "self_type" : "type-85",
   "size" : 8,
   "source_file" : "/system/libhidl/base/include/hidl/HidlSupport.h"
  }
 ]
}
