{
 "array_types" :
 [
  {
   "linker_set_key" : "android::TypeConverter<android::AudioFlagTraits>::Table []",
   "name" : "android::TypeConverter<android::AudioFlagTraits>::Table []",
   "referenced_type" : "type-245",
   "self_type" : "type-244",
   "source_file" : "/frameworks/av/media/libmedia/include/media/TypeConverter.h"
  },
  {
   "linker_set_key" : "android::TypeConverter<android::ChannelIndexTraits>::Table []",
   "name" : "android::TypeConverter<android::ChannelIndexTraits>::Table []",
   "referenced_type" : "type-224",
   "self_type" : "type-223",
   "source_file" : "/frameworks/av/media/libmedia/include/media/TypeConverter.h"
  },
  {
   "linker_set_key" : "android::TypeConverter<android::DefaultTraits<audio_content_type_t> >::Table []",
   "name" : "android::TypeConverter<android::DefaultTraits<audio_content_type_t> >::Table []",
   "referenced_type" : "type-196",
   "self_type" : "type-198",
   "source_file" : "/frameworks/av/media/libmedia/include/media/TypeConverter.h"
  },
  {
   "linker_set_key" : "android::TypeConverter<android::DefaultTraits<audio_input_flags_t> >::Table []",
   "name" : "android::TypeConverter<android::DefaultTraits<audio_input_flags_t> >::Table []",
   "referenced_type" : "type-210",
   "self_type" : "type-209",
   "source_file" : "/frameworks/av/media/libmedia/include/media/TypeConverter.h"
  },
  {
   "linker_set_key" : "android::TypeConverter<android::DefaultTraits<audio_mode_t> >::Table []",
   "name" : "android::TypeConverter<android::DefaultTraits<audio_mode_t> >::Table []",
   "referenced_type" : "type-235",
   "self_type" : "type-234",
   "source_file" : "/frameworks/av/media/libmedia/include/media/TypeConverter.h"
  },
  {
   "linker_set_key" : "android::TypeConverter<android::DefaultTraits<audio_output_flags_t> >::Table []",
   "name" : "android::TypeConverter<android::DefaultTraits<audio_output_flags_t> >::Table []",
   "referenced_type" : "type-207",
   "self_type" : "type-206",
   "source_file" : "/frameworks/av/media/libmedia/include/media/TypeConverter.h"
  },
  {
   "linker_set_key" : "android::TypeConverter<android::DefaultTraits<audio_source_t> >::Table []",
   "name" : "android::TypeConverter<android::DefaultTraits<audio_source_t> >::Table []",
   "referenced_type" : "type-241",
   "self_type" : "type-240",
   "source_file" : "/frameworks/av/media/libmedia/include/media/TypeConverter.h"
  },
  {
   "linker_set_key" : "android::TypeConverter<android::DefaultTraits<audio_stream_type_t> >::Table []",
   "name" : "android::TypeConverter<android::DefaultTraits<audio_stream_type_t> >::Table []",
   "referenced_type" : "type-232",
   "self_type" : "type-231",
   "source_file" : "/frameworks/av/media/libmedia/include/media/TypeConverter.h"
  },
  {
   "linker_set_key" : "android::TypeConverter<android::DefaultTraits<audio_usage_t> >::Table []",
   "name" : "android::TypeConverter<android::DefaultTraits<audio_usage_t> >::Table []",
   "referenced_type" : "type-238",
   "self_type" : "type-237",
   "source_file" : "/frameworks/av/media/libmedia/include/media/TypeConverter.h"
  },
  {
   "linker_set_key" : "android::TypeConverter<android::DefaultTraits<unsigned int> >::Table []",
   "name" : "android::TypeConverter<android::DefaultTraits<unsigned int> >::Table []",
   "referenced_type" : "type-227",
   "self_type" : "type-226",
   "source_file" : "/frameworks/av/media/libmedia/include/media/TypeConverter.h"
  },
  {
   "linker_set_key" : "android::TypeConverter<android::InputChannelTraits>::Table []",
   "name" : "android::TypeConverter<android::InputChannelTraits>::Table []",
   "referenced_type" : "type-220",
   "self_type" : "type-219",
   "source_file" : "/frameworks/av/media/libmedia/include/media/TypeConverter.h"
  },
  {
   "linker_set_key" : "android::TypeConverter<android::InputDeviceTraits>::Table []",
   "name" : "android::TypeConverter<android::InputDeviceTraits>::Table []",
   "referenced_type" : "type-204",
   "self_type" : "type-203",
   "source_file" : "/frameworks/av/media/libmedia/include/media/TypeConverter.h"
  },
  {
   "linker_set_key" : "android::TypeConverter<android::OutputChannelTraits>::Table []",
   "name" : "android::TypeConverter<android::OutputChannelTraits>::Table []",
   "referenced_type" : "type-217",
   "self_type" : "type-216",
   "source_file" : "/frameworks/av/media/libmedia/include/media/TypeConverter.h"
  },
  {
   "linker_set_key" : "android::TypeConverter<android::OutputDeviceTraits>::Table []",
   "name" : "android::TypeConverter<android::OutputDeviceTraits>::Table []",
   "referenced_type" : "type-201",
   "self_type" : "type-200",
   "source_file" : "/frameworks/av/media/libmedia/include/media/TypeConverter.h"
  },
  {
   "linker_set_key" : "android::TypeConverter<android::VectorTraits<audio_format_t> >::Table []",
   "name" : "android::TypeConverter<android::VectorTraits<audio_format_t> >::Table []",
   "referenced_type" : "type-214",
   "self_type" : "type-213",
   "source_file" : "/frameworks/av/media/libmedia/include/media/TypeConverter.h"
  },
  {
   "alignment" : 1,
   "linker_set_key" : "char [0]",
   "name" : "char [0]",
   "referenced_type" : "type-8",
   "self_type" : "type-116",
   "source_file" : "/system/core/liblog/include/log/log_read.h"
  },
  {
   "alignment" : 1,
   "linker_set_key" : "unsigned char [5121]",
   "name" : "unsigned char [5121]",
   "referenced_type" : "type-22",
   "self_type" : "type-271",
   "size" : 5121,
   "source_file" : "/system/core/liblog/include/log/log_read.h"
  }
 ],
 "builtin_types" :
 [
  {
   "alignment" : 1,
   "is_integral" : true,
   "is_unsigned" : true,
   "linker_set_key" : "bool",
   "name" : "bool",
   "referenced_type" : "type-13",
   "self_type" : "type-13",
   "size" : 1
  },
  {
   "alignment" : 1,
   "is_integral" : true,
   "is_unsigned" : true,
   "linker_set_key" : "char",
   "name" : "char",
   "referenced_type" : "type-8",
   "self_type" : "type-8",
   "size" : 1
  },
  {
   "alignment" : 8,
   "linker_set_key" : "double",
   "name" : "double",
   "referenced_type" : "type-72",
   "self_type" : "type-72",
   "size" : 8
  },
  {
   "alignment" : 4,
   "linker_set_key" : "float",
   "name" : "float",
   "referenced_type" : "type-66",
   "self_type" : "type-66",
   "size" : 4
  },
  {
   "alignment" : 4,
   "is_integral" : true,
   "linker_set_key" : "int",
   "name" : "int",
   "referenced_type" : "type-37",
   "self_type" : "type-37",
   "size" : 4
  },
  {
   "alignment" : 8,
   "is_integral" : true,
   "linker_set_key" : "long",
   "name" : "long",
   "referenced_type" : "type-46",
   "self_type" : "type-46",
   "size" : 8
  },
  {
   "alignment" : 8,
   "is_integral" : true,
   "linker_set_key" : "long long",
   "name" : "long long",
   "referenced_type" : "type-56",
   "self_type" : "type-56",
   "size" : 8
  },
  {
   "alignment" : 2,
   "is_integral" : true,
   "linker_set_key" : "short",
   "name" : "short",
   "referenced_type" : "type-27",
   "self_type" : "type-27",
   "size" : 2
  },
  {
   "alignment" : 1,
   "is_integral" : true,
   "linker_set_key" : "signed char",
   "name" : "signed char",
   "referenced_type" : "type-157",
   "self_type" : "type-157",
   "size" : 1
  },
  {
   "alignment" : 1,
   "is_integral" : true,
   "is_unsigned" : true,
   "linker_set_key" : "unsigned char",
   "name" : "unsigned char",
   "referenced_type" : "type-22",
   "self_type" : "type-22",
   "size" : 1
  },
  {
   "alignment" : 4,
   "is_integral" : true,
   "is_unsigned" : true,
   "linker_set_key" : "unsigned int",
   "name" : "unsigned int",
   "referenced_type" : "type-2",
   "self_type" : "type-2",
   "size" : 4
  },
  {
   "alignment" : 8,
   "is_integral" : true,
   "is_unsigned" : true,
   "linker_set_key" : "unsigned long",
   "name" : "unsigned long",
   "referenced_type" : "type-51",
   "self_type" : "type-51",
   "size" : 8
  },
  {
   "alignment" : 8,
   "is_integral" : true,
   "is_unsigned" : true,
   "linker_set_key" : "unsigned long long",
   "name" : "unsigned long long",
   "referenced_type" : "type-61",
   "self_type" : "type-61",
   "size" : 8
  },
  {
   "alignment" : 2,
   "is_integral" : true,
   "is_unsigned" : true,
   "linker_set_key" : "unsigned short",
   "name" : "unsigned short",
   "referenced_type" : "type-32",
   "self_type" : "type-32",
   "size" : 2
  },
  {
   "linker_set_key" : "void",
   "name" : "void",
   "referenced_type" : "type-10",
   "self_type" : "type-10"
  }
 ],
 "elf_functions" :
 [
  {
   "binding" : "weak",
   "name" : "_ZN7android13TypeConverterINS_12VectorTraitsI14audio_format_tEEE10fromStringERKNSt3__112basic_stringIcNS5_11char_traitsIcEENS5_9allocatorIcEEEERS2_"
  },
  {
   "binding" : "weak",
   "name" : "_ZN7android13TypeConverterINS_12VectorTraitsI14audio_format_tEEE12maskToStringEjRNSt3__112basic_stringIcNS5_11char_traitsIcEENS5_9allocatorIcEEEEPKc"
  },
  {
   "binding" : "weak",
   "name" : "_ZN7android13TypeConverterINS_12VectorTraitsI14audio_format_tEEE14maskFromStringERKNSt3__112basic_stringIcNS5_11char_traitsIcEENS5_9allocatorIcEEEEPKc"
  },
  {
   "binding" : "weak",
   "name" : "_ZN7android13TypeConverterINS_12VectorTraitsI14audio_format_tEEE20collectionFromStringERKNSt3__112basic_stringIcNS5_11char_traitsIcEENS5_9allocatorIcEEEERNS_6VectorIS2_EEPKc"
  },
  {
   "binding" : "weak",
   "name" : "_ZN7android13TypeConverterINS_12VectorTraitsI14audio_format_tEEE8toStringERKS2_RNSt3__112basic_stringIcNS7_11char_traitsIcEENS7_9allocatorIcEEEE"
  },
  {
   "binding" : "weak",
   "name" : "_ZN7android13TypeConverterINS_13DefaultTraitsI12audio_mode_tEEE10fromStringERKNSt3__112basic_stringIcNS5_11char_traitsIcEENS5_9allocatorIcEEEERS2_"
  },
  {
   "binding" : "weak",
   "name" : "_ZN7android13TypeConverterINS_13DefaultTraitsI12audio_mode_tEEE12maskToStringEjRNSt3__112basic_stringIcNS5_11char_traitsIcEENS5_9allocatorIcEEEEPKc"
  },
  {
   "binding" : "weak",
   "name" : "_ZN7android13TypeConverterINS_13DefaultTraitsI12audio_mode_tEEE14maskFromStringERKNSt3__112basic_stringIcNS5_11char_traitsIcEENS5_9allocatorIcEEEEPKc"
  },
  {
   "binding" : "weak",
   "name" : "_ZN7android13TypeConverterINS_13DefaultTraitsI12audio_mode_tEEE20collectionFromStringERKNSt3__112basic_stringIcNS5_11char_traitsIcEENS5_9allocatorIcEEEERNS5_6vectorIS2_NS9_IS2_EEEEPKc"
  },
  {
   "binding" : "weak",
   "name" : "_ZN7android13TypeConverterINS_13DefaultTraitsI12audio_mode_tEEE8toStringERKS2_RNSt3__112basic_stringIcNS7_11char_traitsIcEENS7_9allocatorIcEEEE"
  },
  {
   "binding" : "weak",
   "name" : "_ZN7android13TypeConverterINS_13DefaultTraitsI13audio_usage_tEEE10fromStringERKNSt3__112basic_stringIcNS5_11char_traitsIcEENS5_9allocatorIcEEEERS2_"
  },
  {
   "binding" : "weak",
   "name" : "_ZN7android13TypeConverterINS_13DefaultTraitsI13audio_usage_tEEE12maskToStringEjRNSt3__112basic_stringIcNS5_11char_traitsIcEENS5_9allocatorIcEEEEPKc"
  },
  {
   "binding" : "weak",
   "name" : "_ZN7android13TypeConverterINS_13DefaultTraitsI13audio_usage_tEEE14maskFromStringERKNSt3__112basic_stringIcNS5_11char_traitsIcEENS5_9allocatorIcEEEEPKc"
  },
  {
   "binding" : "weak",
   "name" : "_ZN7android13TypeConverterINS_13DefaultTraitsI13audio_usage_tEEE20collectionFromStringERKNSt3__112basic_stringIcNS5_11char_traitsIcEENS5_9allocatorIcEEEERNS5_6vectorIS2_NS9_IS2_EEEEPKc"
  },
  {
   "binding" : "weak",
   "name" : "_ZN7android13TypeConverterINS_13DefaultTraitsI13audio_usage_tEEE8toStringERKS2_RNSt3__112basic_stringIcNS7_11char_traitsIcEENS7_9allocatorIcEEEE"
  },
  {
   "binding" : "weak",
   "name" : "_ZN7android13TypeConverterINS_13DefaultTraitsI14audio_source_tEEE10fromStringERKNSt3__112basic_stringIcNS5_11char_traitsIcEENS5_9allocatorIcEEEERS2_"
  },
  {
   "binding" : "weak",
   "name" : "_ZN7android13TypeConverterINS_13DefaultTraitsI14audio_source_tEEE12maskToStringEjRNSt3__112basic_stringIcNS5_11char_traitsIcEENS5_9allocatorIcEEEEPKc"
  },
  {
   "binding" : "weak",
   "name" : "_ZN7android13TypeConverterINS_13DefaultTraitsI14audio_source_tEEE14maskFromStringERKNSt3__112basic_stringIcNS5_11char_traitsIcEENS5_9allocatorIcEEEEPKc"
  },
  {
   "binding" : "weak",
   "name" : "_ZN7android13TypeConverterINS_13DefaultTraitsI14audio_source_tEEE20collectionFromStringERKNSt3__112basic_stringIcNS5_11char_traitsIcEENS5_9allocatorIcEEEERNS5_6vectorIS2_NS9_IS2_EEEEPKc"
  },
  {
   "binding" : "weak",
   "name" : "_ZN7android13TypeConverterINS_13DefaultTraitsI14audio_source_tEEE8toStringERKS2_RNSt3__112basic_stringIcNS7_11char_traitsIcEENS7_9allocatorIcEEEE"
  },
  {
   "binding" : "weak",
   "name" : "_ZN7android13TypeConverterINS_13DefaultTraitsI19audio_input_flags_tEEE10fromStringERKNSt3__112basic_stringIcNS5_11char_traitsIcEENS5_9allocatorIcEEEERS2_"
  },
  {
   "binding" : "weak",
   "name" : "_ZN7android13TypeConverterINS_13DefaultTraitsI19audio_input_flags_tEEE12maskToStringEjRNSt3__112basic_stringIcNS5_11char_traitsIcEENS5_9allocatorIcEEEEPKc"
  },
  {
   "binding" : "weak",
   "name" : "_ZN7android13TypeConverterINS_13DefaultTraitsI19audio_input_flags_tEEE14maskFromStringERKNSt3__112basic_stringIcNS5_11char_traitsIcEENS5_9allocatorIcEEEEPKc"
  },
  {
   "binding" : "weak",
   "name" : "_ZN7android13TypeConverterINS_13DefaultTraitsI19audio_input_flags_tEEE20collectionFromStringERKNSt3__112basic_stringIcNS5_11char_traitsIcEENS5_9allocatorIcEEEERNS5_6vectorIS2_NS9_IS2_EEEEPKc"
  },
  {
   "binding" : "weak",
   "name" : "_ZN7android13TypeConverterINS_13DefaultTraitsI19audio_input_flags_tEEE8toStringERKS2_RNSt3__112basic_stringIcNS7_11char_traitsIcEENS7_9allocatorIcEEEE"
  },
  {
   "binding" : "weak",
   "name" : "_ZN7android13TypeConverterINS_13DefaultTraitsI19audio_stream_type_tEEE10fromStringERKNSt3__112basic_stringIcNS5_11char_traitsIcEENS5_9allocatorIcEEEERS2_"
  },
  {
   "binding" : "weak",
   "name" : "_ZN7android13TypeConverterINS_13DefaultTraitsI19audio_stream_type_tEEE12maskToStringEjRNSt3__112basic_stringIcNS5_11char_traitsIcEENS5_9allocatorIcEEEEPKc"
  },
  {
   "binding" : "weak",
   "name" : "_ZN7android13TypeConverterINS_13DefaultTraitsI19audio_stream_type_tEEE14maskFromStringERKNSt3__112basic_stringIcNS5_11char_traitsIcEENS5_9allocatorIcEEEEPKc"
  },
  {
   "binding" : "weak",
   "name" : "_ZN7android13TypeConverterINS_13DefaultTraitsI19audio_stream_type_tEEE20collectionFromStringERKNSt3__112basic_stringIcNS5_11char_traitsIcEENS5_9allocatorIcEEEERNS5_6vectorIS2_NS9_IS2_EEEEPKc"
  },
  {
   "binding" : "weak",
   "name" : "_ZN7android13TypeConverterINS_13DefaultTraitsI19audio_stream_type_tEEE8toStringERKS2_RNSt3__112basic_stringIcNS7_11char_traitsIcEENS7_9allocatorIcEEEE"
  },
  {
   "binding" : "weak",
   "name" : "_ZN7android13TypeConverterINS_13DefaultTraitsI20audio_output_flags_tEEE10fromStringERKNSt3__112basic_stringIcNS5_11char_traitsIcEENS5_9allocatorIcEEEERS2_"
  },
  {
   "binding" : "weak",
   "name" : "_ZN7android13TypeConverterINS_13DefaultTraitsI20audio_output_flags_tEEE12maskToStringEjRNSt3__112basic_stringIcNS5_11char_traitsIcEENS5_9allocatorIcEEEEPKc"
  },
  {
   "binding" : "weak",
   "name" : "_ZN7android13TypeConverterINS_13DefaultTraitsI20audio_output_flags_tEEE14maskFromStringERKNSt3__112basic_stringIcNS5_11char_traitsIcEENS5_9allocatorIcEEEEPKc"
  },
  {
   "binding" : "weak",
   "name" : "_ZN7android13TypeConverterINS_13DefaultTraitsI20audio_output_flags_tEEE20collectionFromStringERKNSt3__112basic_stringIcNS5_11char_traitsIcEENS5_9allocatorIcEEEERNS5_6vectorIS2_NS9_IS2_EEEEPKc"
  },
  {
   "binding" : "weak",
   "name" : "_ZN7android13TypeConverterINS_13DefaultTraitsI20audio_output_flags_tEEE8toStringERKS2_RNSt3__112basic_stringIcNS7_11char_traitsIcEENS7_9allocatorIcEEEE"
  },
  {
   "binding" : "weak",
   "name" : "_ZN7android13TypeConverterINS_13DefaultTraitsIjEEE10fromStringERKNSt3__112basic_stringIcNS4_11char_traitsIcEENS4_9allocatorIcEEEERj"
  },
  {
   "binding" : "weak",
   "name" : "_ZN7android13TypeConverterINS_13DefaultTraitsIjEEE12maskToStringEjRNSt3__112basic_stringIcNS4_11char_traitsIcEENS4_9allocatorIcEEEEPKc"
  },
  {
   "binding" : "weak",
   "name" : "_ZN7android13TypeConverterINS_13DefaultTraitsIjEEE14maskFromStringERKNSt3__112basic_stringIcNS4_11char_traitsIcEENS4_9allocatorIcEEEEPKc"
  },
  {
   "binding" : "weak",
   "name" : "_ZN7android13TypeConverterINS_13DefaultTraitsIjEEE20collectionFromStringERKNSt3__112basic_stringIcNS4_11char_traitsIcEENS4_9allocatorIcEEEERNS4_6vectorIjNS8_IjEEEEPKc"
  },
  {
   "binding" : "weak",
   "name" : "_ZN7android13TypeConverterINS_13DefaultTraitsIjEEE8toStringERKjRNSt3__112basic_stringIcNS6_11char_traitsIcEENS6_9allocatorIcEEEE"
  },
  {
   "binding" : "weak",
   "name" : "_ZN7android13TypeConverterINS_15AudioFlagTraitsEE10fromStringERKNSt3__112basic_stringIcNS3_11char_traitsIcEENS3_9allocatorIcEEEERj"
  },
  {
   "binding" : "weak",
   "name" : "_ZN7android13TypeConverterINS_15AudioFlagTraitsEE12maskToStringEjRNSt3__112basic_stringIcNS3_11char_traitsIcEENS3_9allocatorIcEEEEPKc"
  },
  {
   "binding" : "weak",
   "name" : "_ZN7android13TypeConverterINS_15AudioFlagTraitsEE14maskFromStringERKNSt3__112basic_stringIcNS3_11char_traitsIcEENS3_9allocatorIcEEEEPKc"
  },
  {
   "binding" : "weak",
   "name" : "_ZN7android13TypeConverterINS_15AudioFlagTraitsEE20collectionFromStringERKNSt3__112basic_stringIcNS3_11char_traitsIcEENS3_9allocatorIcEEEERNS3_6vectorIjNS7_IjEEEEPKc"
  },
  {
   "binding" : "weak",
   "name" : "_ZN7android13TypeConverterINS_15AudioFlagTraitsEE8toStringERKjRNSt3__112basic_stringIcNS5_11char_traitsIcEENS5_9allocatorIcEEEE"
  },
  {
   "binding" : "weak",
   "name" : "_ZN7android13TypeConverterINS_17InputDeviceTraitsEE10fromStringERKNSt3__112basic_stringIcNS3_11char_traitsIcEENS3_9allocatorIcEEEERj"
  },
  {
   "binding" : "weak",
   "name" : "_ZN7android13TypeConverterINS_17InputDeviceTraitsEE12maskToStringEjRNSt3__112basic_stringIcNS3_11char_traitsIcEENS3_9allocatorIcEEEEPKc"
  },
  {
   "binding" : "weak",
   "name" : "_ZN7android13TypeConverterINS_17InputDeviceTraitsEE14maskFromStringERKNSt3__112basic_stringIcNS3_11char_traitsIcEENS3_9allocatorIcEEEEPKc"
  },
  {
   "binding" : "weak",
   "name" : "_ZN7android13TypeConverterINS_17InputDeviceTraitsEE20collectionFromStringERKNSt3__112basic_stringIcNS3_11char_traitsIcEENS3_9allocatorIcEEEERNS3_6vectorIjNS7_IjEEEEPKc"
  },
  {
   "binding" : "weak",
   "name" : "_ZN7android13TypeConverterINS_17InputDeviceTraitsEE8toStringERKjRNSt3__112basic_stringIcNS5_11char_traitsIcEENS5_9allocatorIcEEEE"
  },
  {
   "binding" : "weak",
   "name" : "_ZN7android13TypeConverterINS_18ChannelIndexTraitsEE10fromStringERKNSt3__112basic_stringIcNS3_11char_traitsIcEENS3_9allocatorIcEEEERj"
  },
  {
   "binding" : "weak",
   "name" : "_ZN7android13TypeConverterINS_18ChannelIndexTraitsEE12maskToStringEjRNSt3__112basic_stringIcNS3_11char_traitsIcEENS3_9allocatorIcEEEEPKc"
  },
  {
   "binding" : "weak",
   "name" : "_ZN7android13TypeConverterINS_18ChannelIndexTraitsEE14maskFromStringERKNSt3__112basic_stringIcNS3_11char_traitsIcEENS3_9allocatorIcEEEEPKc"
  },
  {
   "binding" : "weak",
   "name" : "_ZN7android13TypeConverterINS_18ChannelIndexTraitsEE20collectionFromStringERKNSt3__112basic_stringIcNS3_11char_traitsIcEENS3_9allocatorIcEEEERNS_12SortedVectorIjEEPKc"
  },
  {
   "binding" : "weak",
   "name" : "_ZN7android13TypeConverterINS_18ChannelIndexTraitsEE8toStringERKjRNSt3__112basic_stringIcNS5_11char_traitsIcEENS5_9allocatorIcEEEE"
  },
  {
   "binding" : "weak",
   "name" : "_ZN7android13TypeConverterINS_18InputChannelTraitsEE10fromStringERKNSt3__112basic_stringIcNS3_11char_traitsIcEENS3_9allocatorIcEEEERj"
  },
  {
   "binding" : "weak",
   "name" : "_ZN7android13TypeConverterINS_18InputChannelTraitsEE12maskToStringEjRNSt3__112basic_stringIcNS3_11char_traitsIcEENS3_9allocatorIcEEEEPKc"
  },
  {
   "binding" : "weak",
   "name" : "_ZN7android13TypeConverterINS_18InputChannelTraitsEE14maskFromStringERKNSt3__112basic_stringIcNS3_11char_traitsIcEENS3_9allocatorIcEEEEPKc"
  },
  {
   "binding" : "weak",
   "name" : "_ZN7android13TypeConverterINS_18InputChannelTraitsEE20collectionFromStringERKNSt3__112basic_stringIcNS3_11char_traitsIcEENS3_9allocatorIcEEEERNS_12SortedVectorIjEEPKc"
  },
  {
   "binding" : "weak",
   "name" : "_ZN7android13TypeConverterINS_18InputChannelTraitsEE8toStringERKjRNSt3__112basic_stringIcNS5_11char_traitsIcEENS5_9allocatorIcEEEE"
  },
  {
   "binding" : "weak",
   "name" : "_ZN7android13TypeConverterINS_18OutputDeviceTraitsEE10fromStringERKNSt3__112basic_stringIcNS3_11char_traitsIcEENS3_9allocatorIcEEEERj"
  },
  {
   "binding" : "weak",
   "name" : "_ZN7android13TypeConverterINS_18OutputDeviceTraitsEE12maskToStringEjRNSt3__112basic_stringIcNS3_11char_traitsIcEENS3_9allocatorIcEEEEPKc"
  },
  {
   "binding" : "weak",
   "name" : "_ZN7android13TypeConverterINS_18OutputDeviceTraitsEE14maskFromStringERKNSt3__112basic_stringIcNS3_11char_traitsIcEENS3_9allocatorIcEEEEPKc"
  },
  {
   "binding" : "weak",
   "name" : "_ZN7android13TypeConverterINS_18OutputDeviceTraitsEE20collectionFromStringERKNSt3__112basic_stringIcNS3_11char_traitsIcEENS3_9allocatorIcEEEERNS3_6vectorIjNS7_IjEEEEPKc"
  },
  {
   "binding" : "weak",
   "name" : "_ZN7android13TypeConverterINS_18OutputDeviceTraitsEE8toStringERKjRNSt3__112basic_stringIcNS5_11char_traitsIcEENS5_9allocatorIcEEEE"
  },
  {
   "binding" : "weak",
   "name" : "_ZN7android13TypeConverterINS_19OutputChannelTraitsEE10fromStringERKNSt3__112basic_stringIcNS3_11char_traitsIcEENS3_9allocatorIcEEEERj"
  },
  {
   "binding" : "weak",
   "name" : "_ZN7android13TypeConverterINS_19OutputChannelTraitsEE12maskToStringEjRNSt3__112basic_stringIcNS3_11char_traitsIcEENS3_9allocatorIcEEEEPKc"
  },
  {
   "binding" : "weak",
   "name" : "_ZN7android13TypeConverterINS_19OutputChannelTraitsEE14maskFromStringERKNSt3__112basic_stringIcNS3_11char_traitsIcEENS3_9allocatorIcEEEEPKc"
  },
  {
   "binding" : "weak",
   "name" : "_ZN7android13TypeConverterINS_19OutputChannelTraitsEE20collectionFromStringERKNSt3__112basic_stringIcNS3_11char_traitsIcEENS3_9allocatorIcEEEERNS_12SortedVectorIjEEPKc"
  },
  {
   "binding" : "weak",
   "name" : "_ZN7android13TypeConverterINS_19OutputChannelTraitsEE8toStringERKjRNSt3__112basic_stringIcNS5_11char_traitsIcEENS5_9allocatorIcEEEE"
  },
  {
   "name" : "_ZN7android14AudioParameter3addERKNS_7String8ES3_"
  },
  {
   "name" : "_ZN7android14AudioParameter6addIntERKNS_7String8Ei"
  },
  {
   "name" : "_ZN7android14AudioParameter6addKeyERKNS_7String8E"
  },
  {
   "name" : "_ZN7android14AudioParameter6removeERKNS_7String8E"
  },
  {
   "name" : "_ZN7android14AudioParameter8addFloatERKNS_7String8Ef"
  },
  {
   "name" : "_ZN7android14AudioParameterC1ERKNS_7String8E"
  },
  {
   "name" : "_ZN7android14AudioParameterC2ERKNS_7String8E"
  },
  {
   "name" : "_ZN7android14AudioParameterD0Ev"
  },
  {
   "name" : "_ZN7android14AudioParameterD1Ev"
  },
  {
   "name" : "_ZN7android14AudioParameterD2Ev"
  },
  {
   "name" : "_ZN7android16deviceFromStringERKNSt3__112basic_stringIcNS0_11char_traitsIcEENS0_9allocatorIcEEEERj"
  },
  {
   "name" : "_ZN7android16formatFromStringERKNSt3__112basic_stringIcNS0_11char_traitsIcEENS0_9allocatorIcEEEE14audio_format_t"
  },
  {
   "name" : "_ZN7android17formatsFromStringERKNSt3__112basic_stringIcNS0_11char_traitsIcEENS0_9allocatorIcEEEEPKc"
  },
  {
   "name" : "_ZN7android21channelMaskFromStringERKNSt3__112basic_stringIcNS0_11char_traitsIcEENS0_9allocatorIcEEEE"
  },
  {
   "name" : "_ZN7android22channelMasksFromStringERKNSt3__112basic_stringIcNS0_11char_traitsIcEENS0_9allocatorIcEEEEPKc"
  },
  {
   "name" : "_ZN7android23samplingRatesFromStringERKNSt3__112basic_stringIcNS0_11char_traitsIcEENS0_9allocatorIcEEEEPKc"
  },
  {
   "name" : "_ZN7android27inputChannelMasksFromStringERKNSt3__112basic_stringIcNS0_11char_traitsIcEENS0_9allocatorIcEEEEPKc"
  },
  {
   "name" : "_ZN7android28outputChannelMasksFromStringERKNSt3__112basic_stringIcNS0_11char_traitsIcEENS0_9allocatorIcEEEEPKc"
  },
  {
   "binding" : "weak",
   "name" : "_ZNK7android12SortedVectorINS_16key_value_pair_tINS_7String8ES2_EEE10do_compareEPKvS6_"
  },
  {
   "binding" : "weak",
   "name" : "_ZNK7android12SortedVectorINS_16key_value_pair_tINS_7String8ES2_EEE10do_destroyEPvm"
  },
  {
   "binding" : "weak",
   "name" : "_ZNK7android12SortedVectorINS_16key_value_pair_tINS_7String8ES2_EEE12do_constructEPvm"
  },
  {
   "binding" : "weak",
   "name" : "_ZNK7android12SortedVectorINS_16key_value_pair_tINS_7String8ES2_EEE15do_move_forwardEPvPKvm"
  },
  {
   "binding" : "weak",
   "name" : "_ZNK7android12SortedVectorINS_16key_value_pair_tINS_7String8ES2_EEE16do_move_backwardEPvPKvm"
  },
  {
   "binding" : "weak",
   "name" : "_ZNK7android12SortedVectorINS_16key_value_pair_tINS_7String8ES2_EEE7do_copyEPvPKvm"
  },
  {
   "binding" : "weak",
   "name" : "_ZNK7android12SortedVectorINS_16key_value_pair_tINS_7String8ES2_EEE8do_splatEPvPKvm"
  },
  {
   "binding" : "weak",
   "name" : "_ZNK7android12SortedVectorIjE10do_compareEPKvS3_"
  },
  {
   "binding" : "weak",
   "name" : "_ZNK7android12SortedVectorIjE10do_destroyEPvm"
  },
  {
   "binding" : "weak",
   "name" : "_ZNK7android12SortedVectorIjE12do_constructEPvm"
  },
  {
   "binding" : "weak",
   "name" : "_ZNK7android12SortedVectorIjE15do_move_forwardEPvPKvm"
  },
  {
   "binding" : "weak",
   "name" : "_ZNK7android12SortedVectorIjE16do_move_backwardEPvPKvm"
  },
  {
   "binding" : "weak",
   "name" : "_ZNK7android12SortedVectorIjE7do_copyEPvPKvm"
  },
  {
   "binding" : "weak",
   "name" : "_ZNK7android12SortedVectorIjE8do_splatEPvPKvm"
  },
  {
   "name" : "_ZNK7android14AudioParameter12toStringImplEb"
  },
  {
   "name" : "_ZNK7android14AudioParameter3getERKNS_7String8ERS1_"
  },
  {
   "name" : "_ZNK7android14AudioParameter5getAtEmRNS_7String8E"
  },
  {
   "name" : "_ZNK7android14AudioParameter5getAtEmRNS_7String8ES2_"
  },
  {
   "name" : "_ZNK7android14AudioParameter6getIntERKNS_7String8ERi"
  },
  {
   "name" : "_ZNK7android14AudioParameter8getFloatERKNS_7String8ERf"
  },
  {
   "binding" : "weak",
   "name" : "_ZNK7android6VectorI14audio_format_tE10do_destroyEPvm"
  },
  {
   "binding" : "weak",
   "name" : "_ZNK7android6VectorI14audio_format_tE12do_constructEPvm"
  },
  {
   "binding" : "weak",
   "name" : "_ZNK7android6VectorI14audio_format_tE15do_move_forwardEPvPKvm"
  },
  {
   "binding" : "weak",
   "name" : "_ZNK7android6VectorI14audio_format_tE16do_move_backwardEPvPKvm"
  },
  {
   "binding" : "weak",
   "name" : "_ZNK7android6VectorI14audio_format_tE7do_copyEPvPKvm"
  },
  {
   "binding" : "weak",
   "name" : "_ZNK7android6VectorI14audio_format_tE8do_splatEPvPKvm"
  },
  {
   "binding" : "weak",
   "name" : "_ZNSt3__115basic_stringbufIcNS_11char_traitsIcEENS_9allocatorIcEEE3strERKNS_12basic_stringIcS2_S4_EE"
  },
  {
   "binding" : "weak",
   "name" : "_ZNSt3__115basic_stringbufIcNS_11char_traitsIcEENS_9allocatorIcEEE7seekoffExNS_8ios_base7seekdirEj"
  },
  {
   "binding" : "weak",
   "name" : "_ZNSt3__115basic_stringbufIcNS_11char_traitsIcEENS_9allocatorIcEEE8overflowEi"
  },
  {
   "binding" : "weak",
   "name" : "_ZNSt3__115basic_stringbufIcNS_11char_traitsIcEENS_9allocatorIcEEE9pbackfailEi"
  },
  {
   "binding" : "weak",
   "name" : "_ZNSt3__115basic_stringbufIcNS_11char_traitsIcEENS_9allocatorIcEEE9underflowEv"
  },
  {
   "binding" : "weak",
   "name" : "_ZNSt3__16vectorI12audio_mode_tNS_9allocatorIS1_EEE21__push_back_slow_pathIRKS1_EEvOT_"
  },
  {
   "binding" : "weak",
   "name" : "_ZNSt3__16vectorI13audio_usage_tNS_9allocatorIS1_EEE21__push_back_slow_pathIRKS1_EEvOT_"
  },
  {
   "binding" : "weak",
   "name" : "_ZNSt3__16vectorI14audio_source_tNS_9allocatorIS1_EEE21__push_back_slow_pathIRKS1_EEvOT_"
  },
  {
   "binding" : "weak",
   "name" : "_ZNSt3__16vectorI19audio_input_flags_tNS_9allocatorIS1_EEE21__push_back_slow_pathIRKS1_EEvOT_"
  },
  {
   "binding" : "weak",
   "name" : "_ZNSt3__16vectorI19audio_stream_type_tNS_9allocatorIS1_EEE21__push_back_slow_pathIRKS1_EEvOT_"
  },
  {
   "binding" : "weak",
   "name" : "_ZNSt3__16vectorI20audio_output_flags_tNS_9allocatorIS1_EEE21__push_back_slow_pathIRKS1_EEvOT_"
  },
  {
   "binding" : "weak",
   "name" : "_ZNSt3__16vectorIjNS_9allocatorIjEEE21__push_back_slow_pathIRKjEEvOT_"
  }
 ],
 "elf_objects" :
 [
  {
   "name" : "_ZN7android13TypeConverterINS_12VectorTraitsI14audio_format_tEEE6mTableE"
  },
  {
   "name" : "_ZN7android13TypeConverterINS_13DefaultTraitsI12audio_mode_tEEE6mTableE"
  },
  {
   "name" : "_ZN7android13TypeConverterINS_13DefaultTraitsI13audio_usage_tEEE6mTableE"
  },
  {
   "name" : "_ZN7android13TypeConverterINS_13DefaultTraitsI14audio_source_tEEE6mTableE"
  },
  {
   "name" : "_ZN7android13TypeConverterINS_13DefaultTraitsI19audio_input_flags_tEEE6mTableE"
  },
  {
   "name" : "_ZN7android13TypeConverterINS_13DefaultTraitsI19audio_stream_type_tEEE6mTableE"
  },
  {
   "name" : "_ZN7android13TypeConverterINS_13DefaultTraitsI20audio_content_type_tEEE6mTableE"
  },
  {
   "name" : "_ZN7android13TypeConverterINS_13DefaultTraitsI20audio_output_flags_tEEE6mTableE"
  },
  {
   "name" : "_ZN7android13TypeConverterINS_13DefaultTraitsIjEEE6mTableE"
  },
  {
   "name" : "_ZN7android13TypeConverterINS_15AudioFlagTraitsEE6mTableE"
  },
  {
   "name" : "_ZN7android13TypeConverterINS_17InputDeviceTraitsEE6mTableE"
  },
  {
   "name" : "_ZN7android13TypeConverterINS_18ChannelIndexTraitsEE6mTableE"
  },
  {
   "name" : "_ZN7android13TypeConverterINS_18InputChannelTraitsEE6mTableE"
  },
  {
   "name" : "_ZN7android13TypeConverterINS_18OutputDeviceTraitsEE6mTableE"
  },
  {
   "name" : "_ZN7android13TypeConverterINS_19OutputChannelTraitsEE6mTableE"
  },
  {
   "name" : "_ZN7android14AudioParameter10keyRoutingE"
  },
  {
   "name" : "_ZN7android14AudioParameter11keyChannelsE"
  },
  {
   "name" : "_ZN7android14AudioParameter11keyHwAvSyncE"
  },
  {
   "name" : "_ZN7android14AudioParameter12keyProgramIdE"
  },
  {
   "name" : "_ZN7android14AudioParameter13keyFrameCountE"
  },
  {
   "name" : "_ZN7android14AudioParameter13keyMonoOutputE"
  },
  {
   "name" : "_ZN7android14AudioParameter14keyInputSourceE"
  },
  {
   "name" : "_ZN7android14AudioParameter14keyScreenStateE"
  },
  {
   "name" : "_ZN7android14AudioParameter15keyReconfigA2dpE"
  },
  {
   "name" : "_ZN7android14AudioParameter15keySamplingRateE"
  },
  {
   "name" : "_ZN7android14AudioParameter16keyStreamConnectE"
  },
  {
   "name" : "_ZN7android14AudioParameter17keyPresentationIdE"
  },
  {
   "name" : "_ZN7android14AudioParameter17keyStreamHwAvSyncE"
  },
  {
   "name" : "_ZN7android14AudioParameter18valueListSeparatorE"
  },
  {
   "name" : "_ZN7android14AudioParameter19keyStreamDisconnectE"
  },
  {
   "name" : "_ZN7android14AudioParameter24keyReconfigA2dpSupportedE"
  },
  {
   "name" : "_ZN7android14AudioParameter25keyAudioLanguagePreferredE"
  },
  {
   "name" : "_ZN7android14AudioParameter25keyStreamSupportedFormatsE"
  },
  {
   "name" : "_ZN7android14AudioParameter26keyStreamSupportedChannelsE"
  },
  {
   "name" : "_ZN7android14AudioParameter31keyStreamSupportedSamplingRatesE"
  },
  {
   "name" : "_ZN7android14AudioParameter7valueOnE"
  },
  {
   "name" : "_ZN7android14AudioParameter8valueOffE"
  },
  {
   "name" : "_ZN7android14AudioParameter9keyBtNrecE"
  },
  {
   "name" : "_ZN7android14AudioParameter9keyFormatE"
  },
  {
   "binding" : "weak",
   "name" : "_ZTCNSt3__118basic_stringstreamIcNS_11char_traitsIcEENS_9allocatorIcEEEE0_NS_13basic_istreamIcS2_EE"
  },
  {
   "binding" : "weak",
   "name" : "_ZTCNSt3__118basic_stringstreamIcNS_11char_traitsIcEENS_9allocatorIcEEEE0_NS_14basic_iostreamIcS2_EE"
  },
  {
   "binding" : "weak",
   "name" : "_ZTCNSt3__118basic_stringstreamIcNS_11char_traitsIcEENS_9allocatorIcEEEE16_NS_13basic_ostreamIcS2_EE"
  },
  {
   "binding" : "weak",
   "name" : "_ZTTNSt3__118basic_stringstreamIcNS_11char_traitsIcEENS_9allocatorIcEEEE"
  },
  {
   "binding" : "weak",
   "name" : "_ZTVN7android12SortedVectorINS_16key_value_pair_tINS_7String8ES2_EEEE"
  },
  {
   "binding" : "weak",
   "name" : "_ZTVN7android12SortedVectorIjEE"
  },
  {
   "name" : "_ZTVN7android14AudioParameterE"
  },
  {
   "binding" : "weak",
   "name" : "_ZTVN7android6VectorI14audio_format_tEE"
  },
  {
   "binding" : "weak",
   "name" : "_ZTVNSt3__115basic_stringbufIcNS_11char_traitsIcEENS_9allocatorIcEEEE"
  },
  {
   "binding" : "weak",
   "name" : "_ZTVNSt3__118basic_stringstreamIcNS_11char_traitsIcEENS_9allocatorIcEEEE"
  }
 ],
 "enum_types" :
 [
  {
   "alignment" : 4,
   "enum_fields" :
   [
    {
     "enum_field_value" : 0,
     "name" : "android::String8::kEmptyString"
    }
   ],
   "linker_set_key" : "android::String8::StaticLinkage",
   "name" : "android::String8::StaticLinkage",
   "referenced_type" : "type-288",
   "self_type" : "type-288",
   "size" : 4,
   "source_file" : "/system/core/libutils/include/utils/String8.h",
   "underlying_type" : "type-2",
   "unique_id" : "_ZTSN7android7String813StaticLinkageE"
  },
  {
   "alignment" : 4,
   "enum_fields" :
   [
    {
     "enum_field_value" : 0,
     "name" : "ANDROID_LOG_UNKNOWN"
    },
    {
     "enum_field_value" : 1,
     "name" : "ANDROID_LOG_DEFAULT"
    },
    {
     "enum_field_value" : 2,
     "name" : "ANDROID_LOG_VERBOSE"
    },
    {
     "enum_field_value" : 3,
     "name" : "ANDROID_LOG_DEBUG"
    },
    {
     "enum_field_value" : 4,
     "name" : "ANDROID_LOG_INFO"
    },
    {
     "enum_field_value" : 5,
     "name" : "ANDROID_LOG_WARN"
    },
    {
     "enum_field_value" : 6,
     "name" : "ANDROID_LOG_ERROR"
    },
    {
     "enum_field_value" : 7,
     "name" : "ANDROID_LOG_FATAL"
    },
    {
     "enum_field_value" : 8,
     "name" : "ANDROID_LOG_SILENT"
    }
   ],
   "linker_set_key" : "android_LogPriority",
   "name" : "android_LogPriority",
   "referenced_type" : "type-1",
   "self_type" : "type-1",
   "size" : 4,
   "source_file" : "/system/core/liblog/include/android/log.h",
   "underlying_type" : "type-2",
   "unique_id" : "android_LogPriority"
  },
  {
   "alignment" : 4,
   "enum_fields" :
   [
    {
     "enum_field_value" : 0,
     "name" : "LOG_ID_MIN"
    },
    {
     "enum_field_value" : 0,
     "name" : "LOG_ID_MAIN"
    },
    {
     "enum_field_value" : 1,
     "name" : "LOG_ID_RADIO"
    },
    {
     "enum_field_value" : 2,
     "name" : "LOG_ID_EVENTS"
    },
    {
     "enum_field_value" : 3,
     "name" : "LOG_ID_SYSTEM"
    },
    {
     "enum_field_value" : 4,
     "name" : "LOG_ID_CRASH"
    },
    {
     "enum_field_value" : 5,
     "name" : "LOG_ID_STATS"
    },
    {
     "enum_field_value" : 6,
     "name" : "LOG_ID_SECURITY"
    },
    {
     "enum_field_value" : 7,
     "name" : "LOG_ID_KERNEL"
    },
    {
     "enum_field_value" : 8,
     "name" : "LOG_ID_MAX"
    }
   ],
   "linker_set_key" : "log_id",
   "name" : "log_id",
   "referenced_type" : "type-303",
   "self_type" : "type-303",
   "size" : 4,
   "source_file" : "/system/core/liblog/include/android/log.h",
   "underlying_type" : "type-2",
   "unique_id" : "log_id"
  }
 ],
 "function_types" : [],
 "functions" :
 [
  {
   "function_name" : "android::deviceFromString",
   "linker_set_key" : "_ZN7android16deviceFromStringERKNSt3__112basic_stringIcNS0_11char_traitsIcEENS0_9allocatorIcEEEERj",
   "parameters" :
   [
    {
     "referenced_type" : "type-133"
    },
    {
     "referenced_type" : "type-143"
    }
   ],
   "return_type" : "type-13",
   "source_file" : "/frameworks/av/media/libmedia/include/media/TypeConverter.h"
  },
  {
   "function_name" : "android::formatFromString",
   "linker_set_key" : "_ZN7android16formatFromStringERKNSt3__112basic_stringIcNS0_11char_traitsIcEENS0_9allocatorIcEEEE14audio_format_t",
   "parameters" :
   [
    {
     "referenced_type" : "type-133"
    },
    {
     "default_arg" : true,
     "referenced_type" : "type-326"
    }
   ],
   "return_type" : "type-325",
   "source_file" : "/frameworks/av/media/libmedia/include/media/TypeConverter.h"
  },
  {
   "function_name" : "android::formatsFromString",
   "linker_set_key" : "_ZN7android17formatsFromStringERKNSt3__112basic_stringIcNS0_11char_traitsIcEENS0_9allocatorIcEEEEPKc",
   "parameters" :
   [
    {
     "referenced_type" : "type-133"
    },
    {
     "default_arg" : true,
     "referenced_type" : "type-6"
    }
   ],
   "return_type" : "type-102",
   "source_file" : "/frameworks/av/media/libmedia/include/media/TypeConverter.h"
  },
  {
   "function_name" : "android::channelMaskFromString",
   "linker_set_key" : "_ZN7android21channelMaskFromStringERKNSt3__112basic_stringIcNS0_11char_traitsIcEENS0_9allocatorIcEEEE",
   "parameters" :
   [
    {
     "referenced_type" : "type-133"
    }
   ],
   "return_type" : "type-2",
   "source_file" : "/frameworks/av/media/libmedia/include/media/TypeConverter.h"
  },
  {
   "function_name" : "android::channelMasksFromString",
   "linker_set_key" : "_ZN7android22channelMasksFromStringERKNSt3__112basic_stringIcNS0_11char_traitsIcEENS0_9allocatorIcEEEEPKc",
   "parameters" :
   [
    {
     "referenced_type" : "type-133"
    },
    {
     "default_arg" : true,
     "referenced_type" : "type-6"
    }
   ],
   "return_type" : "type-93",
   "source_file" : "/frameworks/av/media/libmedia/include/media/TypeConverter.h"
  },
  {
   "function_name" : "android::samplingRatesFromString",
   "linker_set_key" : "_ZN7android23samplingRatesFromStringERKNSt3__112basic_stringIcNS0_11char_traitsIcEENS0_9allocatorIcEEEEPKc",
   "parameters" :
   [
    {
     "referenced_type" : "type-133"
    },
    {
     "default_arg" : true,
     "referenced_type" : "type-6"
    }
   ],
   "return_type" : "type-93",
   "source_file" : "/frameworks/av/media/libmedia/include/media/TypeConverter.h"
  },
  {
   "function_name" : "android::inputChannelMasksFromString",
   "linker_set_key" : "_ZN7android27inputChannelMasksFromStringERKNSt3__112basic_stringIcNS0_11char_traitsIcEENS0_9allocatorIcEEEEPKc",
   "parameters" :
   [
    {
     "referenced_type" : "type-133"
    },
    {
     "default_arg" : true,
     "referenced_type" : "type-6"
    }
   ],
   "return_type" : "type-93",
   "source_file" : "/frameworks/av/media/libmedia/include/media/TypeConverter.h"
  },
  {
   "function_name" : "android::outputChannelMasksFromString",
   "linker_set_key" : "_ZN7android28outputChannelMasksFromStringERKNSt3__112basic_stringIcNS0_11char_traitsIcEENS0_9allocatorIcEEEEPKc",
   "parameters" :
   [
    {
     "referenced_type" : "type-133"
    },
    {
     "default_arg" : true,
     "referenced_type" : "type-6"
    }
   ],
   "return_type" : "type-93",
   "source_file" : "/frameworks/av/media/libmedia/include/media/TypeConverter.h"
  },
  {
   "access" : "protected",
   "function_name" : "android::SortedVector<android::key_value_pair_t<android::String8, android::String8> >::do_compare",
   "linker_set_key" : "_ZNK7android12SortedVectorINS_16key_value_pair_tINS_7String8ES2_EEE10do_compareEPKvS6_",
   "parameters" :
   [
    {
     "is_this_ptr" : true,
     "referenced_type" : "type-283"
    },
    {
     "referenced_type" : "type-276"
    },
    {
     "referenced_type" : "type-276"
    }
   ],
   "return_type" : "type-37",
   "source_file" : "/system/core/libutils/include/utils/SortedVector.h"
  },
  {
   "access" : "protected",
   "function_name" : "android::SortedVector<android::key_value_pair_t<android::String8, android::String8> >::do_destroy",
   "linker_set_key" : "_ZNK7android12SortedVectorINS_16key_value_pair_tINS_7String8ES2_EEE10do_destroyEPvm",
   "parameters" :
   [
    {
     "is_this_ptr" : true,
     "referenced_type" : "type-283"
    },
    {
     "referenced_type" : "type-96"
    },
    {
     "referenced_type" : "type-51"
    }
   ],
   "return_type" : "type-10",
   "source_file" : "/system/core/libutils/include/utils/SortedVector.h"
  },
  {
   "access" : "protected",
   "function_name" : "android::SortedVector<android::key_value_pair_t<android::String8, android::String8> >::do_construct",
   "linker_set_key" : "_ZNK7android12SortedVectorINS_16key_value_pair_tINS_7String8ES2_EEE12do_constructEPvm",
   "parameters" :
   [
    {
     "is_this_ptr" : true,
     "referenced_type" : "type-283"
    },
    {
     "referenced_type" : "type-96"
    },
    {
     "referenced_type" : "type-51"
    }
   ],
   "return_type" : "type-10",
   "source_file" : "/system/core/libutils/include/utils/SortedVector.h"
  },
  {
   "access" : "protected",
   "function_name" : "android::SortedVector<android::key_value_pair_t<android::String8, android::String8> >::do_move_forward",
   "linker_set_key" : "_ZNK7android12SortedVectorINS_16key_value_pair_tINS_7String8ES2_EEE15do_move_forwardEPvPKvm",
   "parameters" :
   [
    {
     "is_this_ptr" : true,
     "referenced_type" : "type-283"
    },
    {
     "referenced_type" : "type-96"
    },
    {
     "referenced_type" : "type-276"
    },
    {
     "referenced_type" : "type-51"
    }
   ],
   "return_type" : "type-10",
   "source_file" : "/system/core/libutils/include/utils/SortedVector.h"
  },
  {
   "access" : "protected",
   "function_name" : "android::SortedVector<android::key_value_pair_t<android::String8, android::String8> >::do_move_backward",
   "linker_set_key" : "_ZNK7android12SortedVectorINS_16key_value_pair_tINS_7String8ES2_EEE16do_move_backwardEPvPKvm",
   "parameters" :
   [
    {
     "is_this_ptr" : true,
     "referenced_type" : "type-283"
    },
    {
     "referenced_type" : "type-96"
    },
    {
     "referenced_type" : "type-276"
    },
    {
     "referenced_type" : "type-51"
    }
   ],
   "return_type" : "type-10",
   "source_file" : "/system/core/libutils/include/utils/SortedVector.h"
  },
  {
   "access" : "protected",
   "function_name" : "android::SortedVector<android::key_value_pair_t<android::String8, android::String8> >::do_copy",
   "linker_set_key" : "_ZNK7android12SortedVectorINS_16key_value_pair_tINS_7String8ES2_EEE7do_copyEPvPKvm",
   "parameters" :
   [
    {
     "is_this_ptr" : true,
     "referenced_type" : "type-283"
    },
    {
     "referenced_type" : "type-96"
    },
    {
     "referenced_type" : "type-276"
    },
    {
     "referenced_type" : "type-51"
    }
   ],
   "return_type" : "type-10",
   "source_file" : "/system/core/libutils/include/utils/SortedVector.h"
  },
  {
   "access" : "protected",
   "function_name" : "android::SortedVector<android::key_value_pair_t<android::String8, android::String8> >::do_splat",
   "linker_set_key" : "_ZNK7android12SortedVectorINS_16key_value_pair_tINS_7String8ES2_EEE8do_splatEPvPKvm",
   "parameters" :
   [
    {
     "is_this_ptr" : true,
     "referenced_type" : "type-283"
    },
    {
     "referenced_type" : "type-96"
    },
    {
     "referenced_type" : "type-276"
    },
    {
     "referenced_type" : "type-51"
    }
   ],
   "return_type" : "type-10",
   "source_file" : "/system/core/libutils/include/utils/SortedVector.h"
  },
  {
   "access" : "protected",
   "function_name" : "android::SortedVector<unsigned int>::do_compare",
   "linker_set_key" : "_ZNK7android12SortedVectorIjE10do_compareEPKvS3_",
   "parameters" :
   [
    {
     "is_this_ptr" : true,
     "referenced_type" : "type-101"
    },
    {
     "referenced_type" : "type-276"
    },
    {
     "referenced_type" : "type-276"
    }
   ],
   "return_type" : "type-37",
   "source_file" : "/system/core/libutils/include/utils/SortedVector.h"
  },
  {
   "access" : "protected",
   "function_name" : "android::SortedVector<unsigned int>::do_destroy",
   "linker_set_key" : "_ZNK7android12SortedVectorIjE10do_destroyEPvm",
   "parameters" :
   [
    {
     "is_this_ptr" : true,
     "referenced_type" : "type-101"
    },
    {
     "referenced_type" : "type-96"
    },
    {
     "referenced_type" : "type-51"
    }
   ],
   "return_type" : "type-10",
   "source_file" : "/system/core/libutils/include/utils/SortedVector.h"
  },
  {
   "access" : "protected",
   "function_name" : "android::SortedVector<unsigned int>::do_construct",
   "linker_set_key" : "_ZNK7android12SortedVectorIjE12do_constructEPvm",
   "parameters" :
   [
    {
     "is_this_ptr" : true,
     "referenced_type" : "type-101"
    },
    {
     "referenced_type" : "type-96"
    },
    {
     "referenced_type" : "type-51"
    }
   ],
   "return_type" : "type-10",
   "source_file" : "/system/core/libutils/include/utils/SortedVector.h"
  },
  {
   "access" : "protected",
   "function_name" : "android::SortedVector<unsigned int>::do_move_forward",
   "linker_set_key" : "_ZNK7android12SortedVectorIjE15do_move_forwardEPvPKvm",
   "parameters" :
   [
    {
     "is_this_ptr" : true,
     "referenced_type" : "type-101"
    },
    {
     "referenced_type" : "type-96"
    },
    {
     "referenced_type" : "type-276"
    },
    {
     "referenced_type" : "type-51"
    }
   ],
   "return_type" : "type-10",
   "source_file" : "/system/core/libutils/include/utils/SortedVector.h"
  },
  {
   "access" : "protected",
   "function_name" : "android::SortedVector<unsigned int>::do_move_backward",
   "linker_set_key" : "_ZNK7android12SortedVectorIjE16do_move_backwardEPvPKvm",
   "parameters" :
   [
    {
     "is_this_ptr" : true,
     "referenced_type" : "type-101"
    },
    {
     "referenced_type" : "type-96"
    },
    {
     "referenced_type" : "type-276"
    },
    {
     "referenced_type" : "type-51"
    }
   ],
   "return_type" : "type-10",
   "source_file" : "/system/core/libutils/include/utils/SortedVector.h"
  },
  {
   "access" : "protected",
   "function_name" : "android::SortedVector<unsigned int>::do_copy",
   "linker_set_key" : "_ZNK7android12SortedVectorIjE7do_copyEPvPKvm",
   "parameters" :
   [
    {
     "is_this_ptr" : true,
     "referenced_type" : "type-101"
    },
    {
     "referenced_type" : "type-96"
    },
    {
     "referenced_type" : "type-276"
    },
    {
     "referenced_type" : "type-51"
    }
   ],
   "return_type" : "type-10",
   "source_file" : "/system/core/libutils/include/utils/SortedVector.h"
  },
  {
   "access" : "protected",
   "function_name" : "android::SortedVector<unsigned int>::do_splat",
   "linker_set_key" : "_ZNK7android12SortedVectorIjE8do_splatEPvPKvm",
   "parameters" :
   [
    {
     "is_this_ptr" : true,
     "referenced_type" : "type-101"
    },
    {
     "referenced_type" : "type-96"
    },
    {
     "referenced_type" : "type-276"
    },
    {
     "referenced_type" : "type-51"
    }
   ],
   "return_type" : "type-10",
   "source_file" : "/system/core/libutils/include/utils/SortedVector.h"
  },
  {
   "access" : "protected",
   "function_name" : "android::Vector<audio_format_t>::do_destroy",
   "linker_set_key" : "_ZNK7android6VectorI14audio_format_tE10do_destroyEPvm",
   "parameters" :
   [
    {
     "is_this_ptr" : true,
     "referenced_type" : "type-109"
    },
    {
     "referenced_type" : "type-96"
    },
    {
     "referenced_type" : "type-51"
    }
   ],
   "return_type" : "type-10",
   "source_file" : "/system/core/libutils/include/utils/Vector.h"
  },
  {
   "access" : "protected",
   "function_name" : "android::Vector<audio_format_t>::do_construct",
   "linker_set_key" : "_ZNK7android6VectorI14audio_format_tE12do_constructEPvm",
   "parameters" :
   [
    {
     "is_this_ptr" : true,
     "referenced_type" : "type-109"
    },
    {
     "referenced_type" : "type-96"
    },
    {
     "referenced_type" : "type-51"
    }
   ],
   "return_type" : "type-10",
   "source_file" : "/system/core/libutils/include/utils/Vector.h"
  },
  {
   "access" : "protected",
   "function_name" : "android::Vector<audio_format_t>::do_move_forward",
   "linker_set_key" : "_ZNK7android6VectorI14audio_format_tE15do_move_forwardEPvPKvm",
   "parameters" :
   [
    {
     "is_this_ptr" : true,
     "referenced_type" : "type-109"
    },
    {
     "referenced_type" : "type-96"
    },
    {
     "referenced_type" : "type-276"
    },
    {
     "referenced_type" : "type-51"
    }
   ],
   "return_type" : "type-10",
   "source_file" : "/system/core/libutils/include/utils/Vector.h"
  },
  {
   "access" : "protected",
   "function_name" : "android::Vector<audio_format_t>::do_move_backward",
   "linker_set_key" : "_ZNK7android6VectorI14audio_format_tE16do_move_backwardEPvPKvm",
   "parameters" :
   [
    {
     "is_this_ptr" : true,
     "referenced_type" : "type-109"
    },
    {
     "referenced_type" : "type-96"
    },
    {
     "referenced_type" : "type-276"
    },
    {
     "referenced_type" : "type-51"
    }
   ],
   "return_type" : "type-10",
   "source_file" : "/system/core/libutils/include/utils/Vector.h"
  },
  {
   "access" : "protected",
   "function_name" : "android::Vector<audio_format_t>::do_copy",
   "linker_set_key" : "_ZNK7android6VectorI14audio_format_tE7do_copyEPvPKvm",
   "parameters" :
   [
    {
     "is_this_ptr" : true,
     "referenced_type" : "type-109"
    },
    {
     "referenced_type" : "type-96"
    },
    {
     "referenced_type" : "type-276"
    },
    {
     "referenced_type" : "type-51"
    }
   ],
   "return_type" : "type-10",
   "source_file" : "/system/core/libutils/include/utils/Vector.h"
  },
  {
   "access" : "protected",
   "function_name" : "android::Vector<audio_format_t>::do_splat",
   "linker_set_key" : "_ZNK7android6VectorI14audio_format_tE8do_splatEPvPKvm",
   "parameters" :
   [
    {
     "is_this_ptr" : true,
     "referenced_type" : "type-109"
    },
    {
     "referenced_type" : "type-96"
    },
    {
     "referenced_type" : "type-276"
    },
    {
     "referenced_type" : "type-51"
    }
   ],
   "return_type" : "type-10",
   "source_file" : "/system/core/libutils/include/utils/Vector.h"
  }
 ],
 "global_vars" :
 [
  {
   "access" : "protected",
   "linker_set_key" : "_ZN7android13TypeConverterINS_12VectorTraitsI14audio_format_tEEE6mTableE",
   "name" : "android::TypeConverter<android::VectorTraits<audio_format_t> >::mTable",
   "referenced_type" : "type-215",
   "source_file" : "/frameworks/av/media/libmedia/include/media/TypeConverter.h"
  },
  {
   "access" : "protected",
   "linker_set_key" : "_ZN7android13TypeConverterINS_13DefaultTraitsI12audio_mode_tEEE6mTableE",
   "name" : "android::TypeConverter<android::DefaultTraits<audio_mode_t> >::mTable",
   "referenced_type" : "type-236",
   "source_file" : "/frameworks/av/media/libmedia/include/media/TypeConverter.h"
  },
  {
   "access" : "protected",
   "linker_set_key" : "_ZN7android13TypeConverterINS_13DefaultTraitsI13audio_usage_tEEE6mTableE",
   "name" : "android::TypeConverter<android::DefaultTraits<audio_usage_t> >::mTable",
   "referenced_type" : "type-239",
   "source_file" : "/frameworks/av/media/libmedia/include/media/TypeConverter.h"
  },
  {
   "access" : "protected",
   "linker_set_key" : "_ZN7android13TypeConverterINS_13DefaultTraitsI14audio_source_tEEE6mTableE",
   "name" : "android::TypeConverter<android::DefaultTraits<audio_source_t> >::mTable",
   "referenced_type" : "type-243",
   "source_file" : "/frameworks/av/media/libmedia/include/media/TypeConverter.h"
  },
  {
   "access" : "protected",
   "linker_set_key" : "_ZN7android13TypeConverterINS_13DefaultTraitsI19audio_input_flags_tEEE6mTableE",
   "name" : "android::TypeConverter<android::DefaultTraits<audio_input_flags_t> >::mTable",
   "referenced_type" : "type-212",
   "source_file" : "/frameworks/av/media/libmedia/include/media/TypeConverter.h"
  },
  {
   "access" : "protected",
   "linker_set_key" : "_ZN7android13TypeConverterINS_13DefaultTraitsI19audio_stream_type_tEEE6mTableE",
   "name" : "android::TypeConverter<android::DefaultTraits<audio_stream_type_t> >::mTable",
   "referenced_type" : "type-233",
   "source_file" : "/frameworks/av/media/libmedia/include/media/TypeConverter.h"
  },
  {
   "access" : "protected",
   "linker_set_key" : "_ZN7android13TypeConverterINS_13DefaultTraitsI20audio_content_type_tEEE6mTableE",
   "name" : "android::TypeConverter<android::DefaultTraits<audio_content_type_t> >::mTable",
   "referenced_type" : "type-199",
   "source_file" : "/frameworks/av/media/libmedia/include/media/TypeConverter.h"
  },
  {
   "access" : "protected",
   "linker_set_key" : "_ZN7android13TypeConverterINS_13DefaultTraitsI20audio_output_flags_tEEE6mTableE",
   "name" : "android::TypeConverter<android::DefaultTraits<audio_output_flags_t> >::mTable",
   "referenced_type" : "type-208",
   "source_file" : "/frameworks/av/media/libmedia/include/media/TypeConverter.h"
  },
  {
   "access" : "protected",
   "linker_set_key" : "_ZN7android13TypeConverterINS_13DefaultTraitsIjEEE6mTableE",
   "name" : "android::TypeConverter<android::DefaultTraits<unsigned int> >::mTable",
   "referenced_type" : "type-230",
   "source_file" : "/frameworks/av/media/libmedia/include/media/TypeConverter.h"
  },
  {
   "access" : "protected",
   "linker_set_key" : "_ZN7android13TypeConverterINS_15AudioFlagTraitsEE6mTableE",
   "name" : "android::TypeConverter<android::AudioFlagTraits>::mTable",
   "referenced_type" : "type-246",
   "source_file" : "/frameworks/av/media/libmedia/include/media/TypeConverter.h"
  },
  {
   "access" : "protected",
   "linker_set_key" : "_ZN7android13TypeConverterINS_17InputDeviceTraitsEE6mTableE",
   "name" : "android::TypeConverter<android::InputDeviceTraits>::mTable",
   "referenced_type" : "type-205",
   "source_file" : "/frameworks/av/media/libmedia/include/media/TypeConverter.h"
  },
  {
   "access" : "protected",
   "linker_set_key" : "_ZN7android13TypeConverterINS_18ChannelIndexTraitsEE6mTableE",
   "name" : "android::TypeConverter<android::ChannelIndexTraits>::mTable",
   "referenced_type" : "type-225",
   "source_file" : "/frameworks/av/media/libmedia/include/media/TypeConverter.h"
  },
  {
   "access" : "protected",
   "linker_set_key" : "_ZN7android13TypeConverterINS_18InputChannelTraitsEE6mTableE",
   "name" : "android::TypeConverter<android::InputChannelTraits>::mTable",
   "referenced_type" : "type-222",
   "source_file" : "/frameworks/av/media/libmedia/include/media/TypeConverter.h"
  },
  {
   "access" : "protected",
   "linker_set_key" : "_ZN7android13TypeConverterINS_18OutputDeviceTraitsEE6mTableE",
   "name" : "android::TypeConverter<android::OutputDeviceTraits>::mTable",
   "referenced_type" : "type-202",
   "source_file" : "/frameworks/av/media/libmedia/include/media/TypeConverter.h"
  },
  {
   "access" : "protected",
   "linker_set_key" : "_ZN7android13TypeConverterINS_19OutputChannelTraitsEE6mTableE",
   "name" : "android::TypeConverter<android::OutputChannelTraits>::mTable",
   "referenced_type" : "type-218",
   "source_file" : "/frameworks/av/media/libmedia/include/media/TypeConverter.h"
  }
 ],
 "lvalue_reference_types" :
 [
  {
   "alignment" : 8,
   "linker_set_key" : "android::SortedVector<unsigned int> &",
   "name" : "android::SortedVector<unsigned int> &",
   "referenced_type" : "type-93",
   "self_type" : "type-181",
   "size" : 8,
   "source_file" : "/frameworks/av/media/libmedia/include/media/TypeConverter.h"
  },
  {
   "alignment" : 8,
   "linker_set_key" : "android::String8 &",
   "name" : "android::String8 &",
   "referenced_type" : "type-5",
   "self_type" : "type-290",
   "size" : 8,
   "source_file" : "/system/core/libutils/include/utils/String8.h"
  },
  {
   "alignment" : 8,
   "linker_set_key" : "android::Vector<audio_format_t> &",
   "name" : "android::Vector<audio_format_t> &",
   "referenced_type" : "type-102",
   "self_type" : "type-179",
   "size" : 8,
   "source_file" : "/frameworks/av/media/libmedia/include/media/TypeConverter.h"
  },
  {
   "alignment" : 8,
   "linker_set_key" : "android::key_value_pair_t<android::String8, android::String8> &",
   "name" : "android::key_value_pair_t<android::String8, android::String8> &",
   "referenced_type" : "type-4",
   "self_type" : "type-92",
   "size" : 8,
   "source_file" : "/system/core/libutils/include/utils/TypeHelpers.h"
  },
  {
   "alignment" : 8,
   "linker_set_key" : "const android::SortedVector<unsigned int> &",
   "name" : "const android::SortedVector<unsigned int> &",
   "referenced_type" : "type-99",
   "self_type" : "type-100",
   "size" : 8,
   "source_file" : "/system/core/libutils/include/utils/SortedVector.h"
  },
  {
   "alignment" : 8,
   "linker_set_key" : "const android::String8 &",
   "name" : "const android::String8 &",
   "referenced_type" : "type-104",
   "self_type" : "type-110",
   "size" : 8,
   "source_file" : "/system/core/libutils/include/utils/TypeHelpers.h"
  },
  {
   "alignment" : 8,
   "linker_set_key" : "const android::Vector<audio_format_t> &",
   "name" : "const android::Vector<audio_format_t> &",
   "referenced_type" : "type-106",
   "self_type" : "type-107",
   "size" : 8,
   "source_file" : "/system/core/libutils/include/utils/Vector.h"
  },
  {
   "alignment" : 8,
   "linker_set_key" : "const android::key_value_pair_t<android::String8, android::String8> &",
   "name" : "const android::key_value_pair_t<android::String8, android::String8> &",
   "referenced_type" : "type-3",
   "self_type" : "type-68",
   "size" : 8,
   "source_file" : "/system/core/libutils/include/utils/TypeHelpers.h"
  },
  {
   "alignment" : 8,
   "linker_set_key" : "const audio_content_type_t &",
   "name" : "const audio_content_type_t &",
   "referenced_type" : "type-191",
   "self_type" : "type-193",
   "size" : 8,
   "source_file" : "/frameworks/av/media/libmedia/include/media/TypeConverter.h"
  },
  {
   "alignment" : 8,
   "linker_set_key" : "const audio_format_t &",
   "name" : "const audio_format_t &",
   "referenced_type" : "type-81",
   "self_type" : "type-108",
   "size" : 8,
   "source_file" : "/system/core/libutils/include/utils/Vector.h"
  },
  {
   "alignment" : 8,
   "linker_set_key" : "const bool &",
   "name" : "const bool &",
   "referenced_type" : "type-126",
   "self_type" : "type-147",
   "size" : 8,
   "source_file" : "/system/core/libutils/include/utils/TypeHelpers.h"
  },
  {
   "alignment" : 8,
   "linker_set_key" : "const double &",
   "name" : "const double &",
   "referenced_type" : "type-274",
   "self_type" : "type-275",
   "size" : 8,
   "source_file" : "/system/core/libutils/include/utils/TypeHelpers.h"
  },
  {
   "alignment" : 8,
   "linker_set_key" : "const float &",
   "name" : "const float &",
   "referenced_type" : "type-268",
   "self_type" : "type-273",
   "size" : 8,
   "source_file" : "/system/core/libutils/include/utils/TypeHelpers.h"
  },
  {
   "alignment" : 8,
   "linker_set_key" : "const int &",
   "name" : "const int &",
   "referenced_type" : "type-262",
   "self_type" : "type-263",
   "size" : 8,
   "source_file" : "/system/core/libutils/include/utils/TypeHelpers.h"
  },
  {
   "alignment" : 8,
   "linker_set_key" : "const log_msg &",
   "name" : "const log_msg &",
   "referenced_type" : "type-293",
   "self_type" : "type-296",
   "size" : 8,
   "source_file" : "/system/core/liblog/include/log/log_read.h"
  },
  {
   "alignment" : 8,
   "linker_set_key" : "const long &",
   "name" : "const long &",
   "referenced_type" : "type-265",
   "self_type" : "type-266",
   "size" : 8,
   "source_file" : "/system/core/libutils/include/utils/TypeHelpers.h"
  },
  {
   "alignment" : 8,
   "linker_set_key" : "const short &",
   "name" : "const short &",
   "referenced_type" : "type-221",
   "self_type" : "type-242",
   "size" : 8,
   "source_file" : "/system/core/libutils/include/utils/TypeHelpers.h"
  },
  {
   "alignment" : 8,
   "linker_set_key" : "const signed char &",
   "name" : "const signed char &",
   "referenced_type" : "type-156",
   "self_type" : "type-178",
   "size" : 8,
   "source_file" : "/system/core/libutils/include/utils/TypeHelpers.h"
  },
  {
   "alignment" : 8,
   "linker_set_key" : "const std::basic_string<char, std::char_traits<char>, std::allocator<char> > &",
   "name" : "const std::basic_string<char, std::char_traits<char>, std::allocator<char> > &",
   "referenced_type" : "type-131",
   "self_type" : "type-133",
   "size" : 8,
   "source_file" : "/frameworks/av/media/libmedia/include/media/convert.h"
  },
  {
   "alignment" : 8,
   "linker_set_key" : "const unsigned char &",
   "name" : "const unsigned char &",
   "referenced_type" : "type-189",
   "self_type" : "type-211",
   "size" : 8,
   "source_file" : "/system/core/libutils/include/utils/TypeHelpers.h"
  },
  {
   "alignment" : 8,
   "linker_set_key" : "const unsigned int &",
   "name" : "const unsigned int &",
   "referenced_type" : "type-80",
   "self_type" : "type-264",
   "size" : 8,
   "source_file" : "/system/core/libutils/include/utils/TypeHelpers.h"
  },
  {
   "alignment" : 8,
   "linker_set_key" : "const unsigned long &",
   "name" : "const unsigned long &",
   "referenced_type" : "type-97",
   "self_type" : "type-267",
   "size" : 8,
   "source_file" : "/system/core/libutils/include/utils/TypeHelpers.h"
  },
  {
   "alignment" : 8,
   "linker_set_key" : "const unsigned short &",
   "name" : "const unsigned short &",
   "referenced_type" : "type-253",
   "self_type" : "type-261",
   "size" : 8,
   "source_file" : "/system/core/libutils/include/utils/TypeHelpers.h"
  },
  {
   "alignment" : 8,
   "linker_set_key" : "double &",
   "name" : "double &",
   "referenced_type" : "type-72",
   "self_type" : "type-137",
   "size" : 8,
   "source_file" : "/frameworks/av/media/libmedia/include/media/convert.h"
  },
  {
   "alignment" : 8,
   "linker_set_key" : "float &",
   "name" : "float &",
   "referenced_type" : "type-66",
   "self_type" : "type-134",
   "size" : 8,
   "source_file" : "/frameworks/av/media/libmedia/include/media/convert.h"
  },
  {
   "alignment" : 8,
   "linker_set_key" : "long &",
   "name" : "long &",
   "referenced_type" : "type-46",
   "self_type" : "type-140",
   "size" : 8,
   "source_file" : "/frameworks/av/media/libmedia/include/media/convert.h"
  },
  {
   "alignment" : 8,
   "linker_set_key" : "std::basic_string<char, std::char_traits<char>, std::allocator<char> > &",
   "name" : "std::basic_string<char, std::char_traits<char>, std::allocator<char> > &",
   "referenced_type" : "type-195",
   "self_type" : "type-194",
   "size" : 8,
   "source_file" : "/frameworks/av/media/libmedia/include/media/TypeConverter.h"
  },
  {
   "alignment" : 8,
   "linker_set_key" : "std::vector<audio_input_flags_t, std::allocator<audio_input_flags_t> > &",
   "name" : "std::vector<audio_input_flags_t, std::allocator<audio_input_flags_t> > &",
   "referenced_type" : "type-151",
   "self_type" : "type-150",
   "size" : 8,
   "source_file" : "/frameworks/av/media/libmedia/include/media/TypeConverter.h"
  },
  {
   "alignment" : 8,
   "linker_set_key" : "std::vector<audio_mode_t, std::allocator<audio_mode_t> > &",
   "name" : "std::vector<audio_mode_t, std::allocator<audio_mode_t> > &",
   "referenced_type" : "type-165",
   "self_type" : "type-164",
   "size" : 8,
   "source_file" : "/frameworks/av/media/libmedia/include/media/TypeConverter.h"
  },
  {
   "alignment" : 8,
   "linker_set_key" : "std::vector<audio_output_flags_t, std::allocator<audio_output_flags_t> > &",
   "name" : "std::vector<audio_output_flags_t, std::allocator<audio_output_flags_t> > &",
   "referenced_type" : "type-155",
   "self_type" : "type-154",
   "size" : 8,
   "source_file" : "/frameworks/av/media/libmedia/include/media/TypeConverter.h"
  },
  {
   "alignment" : 8,
   "linker_set_key" : "std::vector<audio_source_t, std::allocator<audio_source_t> > &",
   "name" : "std::vector<audio_source_t, std::allocator<audio_source_t> > &",
   "referenced_type" : "type-175",
   "self_type" : "type-174",
   "size" : 8,
   "source_file" : "/frameworks/av/media/libmedia/include/media/TypeConverter.h"
  },
  {
   "alignment" : 8,
   "linker_set_key" : "std::vector<audio_stream_type_t, std::allocator<audio_stream_type_t> > &",
   "name" : "std::vector<audio_stream_type_t, std::allocator<audio_stream_type_t> > &",
   "referenced_type" : "type-161",
   "self_type" : "type-160",
   "size" : 8,
   "source_file" : "/frameworks/av/media/libmedia/include/media/TypeConverter.h"
  },
  {
   "alignment" : 8,
   "linker_set_key" : "std::vector<audio_usage_t, std::allocator<audio_usage_t> > &",
   "name" : "std::vector<audio_usage_t, std::allocator<audio_usage_t> > &",
   "referenced_type" : "type-171",
   "self_type" : "type-170",
   "size" : 8,
   "source_file" : "/frameworks/av/media/libmedia/include/media/TypeConverter.h"
  },
  {
   "alignment" : 8,
   "linker_set_key" : "std::vector<unsigned int, std::allocator<unsigned int> > &",
   "name" : "std::vector<unsigned int, std::allocator<unsigned int> > &",
   "referenced_type" : "type-146",
   "self_type" : "type-145",
   "size" : 8,
   "source_file" : "/frameworks/av/media/libmedia/include/media/TypeConverter.h"
  },
  {
   "alignment" : 8,
   "linker_set_key" : "unsigned int &",
   "name" : "unsigned int &",
   "referenced_type" : "type-2",
   "self_type" : "type-143",
   "size" : 8,
   "source_file" : "/frameworks/av/media/libmedia/include/media/convert.h"
  }
 ],
 "pointer_types" :
 [
  {
   "alignment" : 8,
   "linker_set_key" : "android::KeyedVector<android::String8, android::String8> *",
   "name" : "android::KeyedVector<android::String8, android::String8> *",
   "referenced_type" : "type-284",
   "self_type" : "type-285",
   "size" : 8,
   "source_file" : "/system/core/libutils/include/utils/KeyedVector.h"
  },
  {
   "alignment" : 8,
   "linker_set_key" : "android::SortedVector<android::key_value_pair_t<android::String8, android::String8> > *",
   "name" : "android::SortedVector<android::key_value_pair_t<android::String8, android::String8> > *",
   "referenced_type" : "type-280",
   "self_type" : "type-281",
   "size" : 8,
   "source_file" : "/system/core/libutils/include/utils/SortedVector.h"
  },
  {
   "alignment" : 8,
   "linker_set_key" : "android::SortedVector<unsigned int> *",
   "name" : "android::SortedVector<unsigned int> *",
   "referenced_type" : "type-93",
   "self_type" : "type-98",
   "size" : 8,
   "source_file" : "/system/core/libutils/include/utils/SortedVector.h"
  },
  {
   "alignment" : 8,
   "linker_set_key" : "android::String8 *",
   "name" : "android::String8 *",
   "referenced_type" : "type-5",
   "self_type" : "type-291",
   "size" : 8,
   "source_file" : "/system/core/libutils/include/utils/String8.h"
  },
  {
   "alignment" : 8,
   "linker_set_key" : "android::Vector<audio_format_t> *",
   "name" : "android::Vector<audio_format_t> *",
   "referenced_type" : "type-102",
   "self_type" : "type-105",
   "size" : 8,
   "source_file" : "/system/core/libutils/include/utils/Vector.h"
  },
  {
   "alignment" : 8,
   "linker_set_key" : "android::key_value_pair_t<android::String8, android::String8> *",
   "name" : "android::key_value_pair_t<android::String8, android::String8> *",
   "referenced_type" : "type-4",
   "self_type" : "type-75",
   "size" : 8,
   "source_file" : "/system/core/libutils/include/utils/TypeHelpers.h"
  },
  {
   "alignment" : 8,
   "linker_set_key" : "audio_format_t *",
   "name" : "audio_format_t *",
   "referenced_type" : "type-78",
   "self_type" : "type-77",
   "size" : 8,
   "source_file" : "/system/core/libutils/include/utils/TypeHelpers.h"
  },
  {
   "alignment" : 8,
   "linker_set_key" : "char *",
   "name" : "char *",
   "referenced_type" : "type-8",
   "self_type" : "type-298",
   "size" : 8,
   "source_file" : "/system/core/liblog/include/log/log_read.h"
  },
  {
   "alignment" : 8,
   "linker_set_key" : "const android::KeyedVector<android::String8, android::String8> *",
   "name" : "const android::KeyedVector<android::String8, android::String8> *",
   "referenced_type" : "type-286",
   "self_type" : "type-287",
   "size" : 8,
   "source_file" : "/system/core/libutils/include/utils/KeyedVector.h"
  },
  {
   "alignment" : 8,
   "linker_set_key" : "const android::SortedVector<android::key_value_pair_t<android::String8, android::String8> > *",
   "name" : "const android::SortedVector<android::key_value_pair_t<android::String8, android::String8> > *",
   "referenced_type" : "type-282",
   "self_type" : "type-283",
   "size" : 8,
   "source_file" : "/system/core/libutils/include/utils/SortedVector.h"
  },
  {
   "alignment" : 8,
   "linker_set_key" : "const android::SortedVector<unsigned int> *",
   "name" : "const android::SortedVector<unsigned int> *",
   "referenced_type" : "type-99",
   "self_type" : "type-101",
   "size" : 8,
   "source_file" : "/system/core/libutils/include/utils/SortedVector.h"
  },
  {
   "alignment" : 8,
   "linker_set_key" : "const android::String8 *",
   "name" : "const android::String8 *",
   "referenced_type" : "type-104",
   "self_type" : "type-289",
   "size" : 8,
   "source_file" : "/system/core/libutils/include/utils/String8.h"
  },
  {
   "alignment" : 8,
   "linker_set_key" : "const android::Vector<audio_format_t> *",
   "name" : "const android::Vector<audio_format_t> *",
   "referenced_type" : "type-106",
   "self_type" : "type-109",
   "size" : 8,
   "source_file" : "/system/core/libutils/include/utils/Vector.h"
  },
  {
   "alignment" : 8,
   "linker_set_key" : "const android::VectorImpl *",
   "name" : "const android::VectorImpl *",
   "referenced_type" : "type-278",
   "self_type" : "type-279",
   "size" : 8,
   "source_file" : "/system/core/libutils/include/utils/VectorImpl.h"
  },
  {
   "alignment" : 8,
   "linker_set_key" : "const android::key_value_pair_t<android::String8, android::String8> *",
   "name" : "const android::key_value_pair_t<android::String8, android::String8> *",
   "referenced_type" : "type-3",
   "self_type" : "type-86",
   "size" : 8,
   "source_file" : "/system/core/libutils/include/utils/TypeHelpers.h"
  },
  {
   "alignment" : 8,
   "linker_set_key" : "const audio_format_t *",
   "name" : "const audio_format_t *",
   "referenced_type" : "type-81",
   "self_type" : "type-83",
   "size" : 8,
   "source_file" : "/system/core/libutils/include/utils/TypeHelpers.h"
  },
  {
   "alignment" : 8,
   "linker_set_key" : "const char *",
   "name" : "const char *",
   "referenced_type" : "type-7",
   "self_type" : "type-6",
   "size" : 8,
   "source_file" : "/system/core/libutils/include/utils/String8.h"
  },
  {
   "alignment" : 8,
   "linker_set_key" : "const log_msg *",
   "name" : "const log_msg *",
   "referenced_type" : "type-293",
   "self_type" : "type-295",
   "size" : 8,
   "source_file" : "/system/core/liblog/include/log/log_read.h"
  },
  {
   "alignment" : 8,
   "linker_set_key" : "const unsigned int *",
   "name" : "const unsigned int *",
   "referenced_type" : "type-80",
   "self_type" : "type-79",
   "size" : 8,
   "source_file" : "/system/core/libutils/include/utils/TypeHelpers.h"
  },
  {
   "alignment" : 8,
   "linker_set_key" : "const void *",
   "name" : "const void *",
   "referenced_type" : "type-277",
   "self_type" : "type-276",
   "size" : 8,
   "source_file" : "/system/core/libutils/include/utils/VectorImpl.h"
  },
  {
   "alignment" : 8,
   "linker_set_key" : "log_msg *",
   "name" : "log_msg *",
   "referenced_type" : "type-269",
   "self_type" : "type-297",
   "size" : 8,
   "source_file" : "/system/core/liblog/include/log/log_read.h"
  },
  {
   "alignment" : 8,
   "linker_set_key" : "unsigned int *",
   "name" : "unsigned int *",
   "referenced_type" : "type-2",
   "self_type" : "type-76",
   "size" : 8,
   "source_file" : "/system/core/libutils/include/utils/TypeHelpers.h"
  },
  {
   "alignment" : 8,
   "linker_set_key" : "void *",
   "name" : "void *",
   "referenced_type" : "type-10",
   "self_type" : "type-96",
   "size" : 8,
   "source_file" : "/system/core/libutils/include/utils/VectorImpl.h"
  }
 ],
 "qualified_types" :
 [
  {
   "is_const" : true,
   "linker_set_key" : "android::TypeConverter<android::AudioFlagTraits>::Table const[]",
   "name" : "android::TypeConverter<android::AudioFlagTraits>::Table const[]",
   "referenced_type" : "type-244",
   "self_type" : "type-246",
   "source_file" : "/frameworks/av/media/libmedia/include/media/TypeConverter.h"
  },
  {
   "is_const" : true,
   "linker_set_key" : "android::TypeConverter<android::ChannelIndexTraits>::Table const[]",
   "name" : "android::TypeConverter<android::ChannelIndexTraits>::Table const[]",
   "referenced_type" : "type-223",
   "self_type" : "type-225",
   "source_file" : "/frameworks/av/media/libmedia/include/media/TypeConverter.h"
  },
  {
   "is_const" : true,
   "linker_set_key" : "android::TypeConverter<android::DefaultTraits<audio_content_type_t> >::Table const[]",
   "name" : "android::TypeConverter<android::DefaultTraits<audio_content_type_t> >::Table const[]",
   "referenced_type" : "type-198",
   "self_type" : "type-199",
   "source_file" : "/frameworks/av/media/libmedia/include/media/TypeConverter.h"
  },
  {
   "is_const" : true,
   "linker_set_key" : "android::TypeConverter<android::DefaultTraits<audio_input_flags_t> >::Table const[]",
   "name" : "android::TypeConverter<android::DefaultTraits<audio_input_flags_t> >::Table const[]",
   "referenced_type" : "type-209",
   "self_type" : "type-212",
   "source_file" : "/frameworks/av/media/libmedia/include/media/TypeConverter.h"
  },
  {
   "is_const" : true,
   "linker_set_key" : "android::TypeConverter<android::DefaultTraits<audio_mode_t> >::Table const[]",
   "name" : "android::TypeConverter<android::DefaultTraits<audio_mode_t> >::Table const[]",
   "referenced_type" : "type-234",
   "self_type" : "type-236",
   "source_file" : "/frameworks/av/media/libmedia/include/media/TypeConverter.h"
  },
  {
   "is_const" : true,
   "linker_set_key" : "android::TypeConverter<android::DefaultTraits<audio_output_flags_t> >::Table const[]",
   "name" : "android::TypeConverter<android::DefaultTraits<audio_output_flags_t> >::Table const[]",
   "referenced_type" : "type-206",
   "self_type" : "type-208",
   "source_file" : "/frameworks/av/media/libmedia/include/media/TypeConverter.h"
  },
  {
   "is_const" : true,
   "linker_set_key" : "android::TypeConverter<android::DefaultTraits<audio_source_t> >::Table const[]",
   "name" : "android::TypeConverter<android::DefaultTraits<audio_source_t> >::Table const[]",
   "referenced_type" : "type-240",
   "self_type" : "type-243",
   "source_file" : "/frameworks/av/media/libmedia/include/media/TypeConverter.h"
  },
  {
   "is_const" : true,
   "linker_set_key" : "android::TypeConverter<android::DefaultTraits<audio_stream_type_t> >::Table const[]",
   "name" : "android::TypeConverter<android::DefaultTraits<audio_stream_type_t> >::Table const[]",
   "referenced_type" : "type-231",
   "self_type" : "type-233",
   "source_file" : "/frameworks/av/media/libmedia/include/media/TypeConverter.h"
  },
  {
   "is_const" : true,
   "linker_set_key" : "android::TypeConverter<android::DefaultTraits<audio_usage_t> >::Table const[]",
   "name" : "android::TypeConverter<android::DefaultTraits<audio_usage_t> >::Table const[]",
   "referenced_type" : "type-237",
   "self_type" : "type-239",
   "source_file" : "/frameworks/av/media/libmedia/include/media/TypeConverter.h"
  },
  {
   "is_const" : true,
   "linker_set_key" : "android::TypeConverter<android::DefaultTraits<unsigned int> >::Table const[]",
   "name" : "android::TypeConverter<android::DefaultTraits<unsigned int> >::Table const[]",
   "referenced_type" : "type-226",
   "self_type" : "type-230",
   "source_file" : "/frameworks/av/media/libmedia/include/media/TypeConverter.h"
  },
  {
   "is_const" : true,
   "linker_set_key" : "android::TypeConverter<android::InputChannelTraits>::Table const[]",
   "name" : "android::TypeConverter<android::InputChannelTraits>::Table const[]",
   "referenced_type" : "type-219",
   "self_type" : "type-222",
   "source_file" : "/frameworks/av/media/libmedia/include/media/TypeConverter.h"
  },
  {
   "is_const" : true,
   "linker_set_key" : "android::TypeConverter<android::InputDeviceTraits>::Table const[]",
   "name" : "android::TypeConverter<android::InputDeviceTraits>::Table const[]",
   "referenced_type" : "type-203",
   "self_type" : "type-205",
   "source_file" : "/frameworks/av/media/libmedia/include/media/TypeConverter.h"
  },
  {
   "is_const" : true,
   "linker_set_key" : "android::TypeConverter<android::OutputChannelTraits>::Table const[]",
   "name" : "android::TypeConverter<android::OutputChannelTraits>::Table const[]",
   "referenced_type" : "type-216",
   "self_type" : "type-218",
   "source_file" : "/frameworks/av/media/libmedia/include/media/TypeConverter.h"
  },
  {
   "is_const" : true,
   "linker_set_key" : "android::TypeConverter<android::OutputDeviceTraits>::Table const[]",
   "name" : "android::TypeConverter<android::OutputDeviceTraits>::Table const[]",
   "referenced_type" : "type-200",
   "self_type" : "type-202",
   "source_file" : "/frameworks/av/media/libmedia/include/media/TypeConverter.h"
  },
  {
   "is_const" : true,
   "linker_set_key" : "android::TypeConverter<android::VectorTraits<audio_format_t> >::Table const[]",
   "name" : "android::TypeConverter<android::VectorTraits<audio_format_t> >::Table const[]",
   "referenced_type" : "type-213",
   "self_type" : "type-215",
   "source_file" : "/frameworks/av/media/libmedia/include/media/TypeConverter.h"
  },
  {
   "alignment" : 8,
   "is_const" : true,
   "linker_set_key" : "const android::KeyedVector<android::String8, android::String8>",
   "name" : "const android::KeyedVector<android::String8, android::String8>",
   "referenced_type" : "type-284",
   "self_type" : "type-286",
   "size" : 40,
   "source_file" : "/system/core/libutils/include/utils/KeyedVector.h"
  },
  {
   "alignment" : 8,
   "is_const" : true,
   "linker_set_key" : "const android::SortedVector<android::key_value_pair_t<android::String8, android::String8> >",
   "name" : "const android::SortedVector<android::key_value_pair_t<android::String8, android::String8> >",
   "referenced_type" : "type-280",
   "self_type" : "type-282",
   "size" : 40,
   "source_file" : "/system/core/libutils/include/utils/SortedVector.h"
  },
  {
   "alignment" : 8,
   "is_const" : true,
   "linker_set_key" : "const android::SortedVector<unsigned int>",
   "name" : "const android::SortedVector<unsigned int>",
   "referenced_type" : "type-93",
   "self_type" : "type-99",
   "size" : 40,
   "source_file" : "/system/core/libutils/include/utils/SortedVector.h"
  },
  {
   "alignment" : 8,
   "is_const" : true,
   "linker_set_key" : "const android::String8",
   "name" : "const android::String8",
   "referenced_type" : "type-5",
   "self_type" : "type-104",
   "size" : 8,
   "source_file" : "/system/core/libutils/include/utils/TypeHelpers.h"
  },
  {
   "alignment" : 8,
   "is_const" : true,
   "linker_set_key" : "const android::Vector<audio_format_t>",
   "name" : "const android::Vector<audio_format_t>",
   "referenced_type" : "type-102",
   "self_type" : "type-106",
   "size" : 40,
   "source_file" : "/system/core/libutils/include/utils/Vector.h"
  },
  {
   "alignment" : 8,
   "is_const" : true,
   "linker_set_key" : "const android::VectorImpl",
   "name" : "const android::VectorImpl",
   "referenced_type" : "type-95",
   "self_type" : "type-278",
   "size" : 40,
   "source_file" : "/system/core/libutils/include/utils/VectorImpl.h"
  },
  {
   "alignment" : 8,
   "is_const" : true,
   "linker_set_key" : "const android::key_value_pair_t<android::String8, android::String8>",
   "name" : "const android::key_value_pair_t<android::String8, android::String8>",
   "referenced_type" : "type-4",
   "self_type" : "type-3",
   "size" : 16,
   "source_file" : "/system/core/libutils/include/utils/TypeHelpers.h"
  },
  {
   "alignment" : 4,
   "is_const" : true,
   "linker_set_key" : "const audio_content_type_t",
   "name" : "const audio_content_type_t",
   "referenced_type" : "type-192",
   "self_type" : "type-191",
   "size" : 4,
   "source_file" : "/frameworks/av/media/libmedia/include/media/TypeConverter.h"
  },
  {
   "alignment" : 4,
   "is_const" : true,
   "linker_set_key" : "const audio_format_t",
   "name" : "const audio_format_t",
   "referenced_type" : "type-82",
   "self_type" : "type-81",
   "size" : 4,
   "source_file" : "/system/core/libutils/include/utils/TypeHelpers.h"
  },
  {
   "alignment" : 1,
   "is_const" : true,
   "linker_set_key" : "const bool",
   "name" : "const bool",
   "referenced_type" : "type-13",
   "self_type" : "type-126",
   "size" : 1,
   "source_file" : "/system/core/libutils/include/utils/TypeHelpers.h"
  },
  {
   "alignment" : 1,
   "is_const" : true,
   "linker_set_key" : "const char",
   "name" : "const char",
   "referenced_type" : "type-8",
   "self_type" : "type-7",
   "size" : 1,
   "source_file" : "/system/core/libutils/include/utils/String8.h"
  },
  {
   "alignment" : 8,
   "is_const" : true,
   "linker_set_key" : "const double",
   "name" : "const double",
   "referenced_type" : "type-72",
   "self_type" : "type-274",
   "size" : 8,
   "source_file" : "/system/core/libutils/include/utils/TypeHelpers.h"
  },
  {
   "alignment" : 4,
   "is_const" : true,
   "linker_set_key" : "const float",
   "name" : "const float",
   "referenced_type" : "type-66",
   "self_type" : "type-268",
   "size" : 4,
   "source_file" : "/system/core/libutils/include/utils/TypeHelpers.h"
  },
  {
   "alignment" : 4,
   "is_const" : true,
   "linker_set_key" : "const int",
   "name" : "const int",
   "referenced_type" : "type-37",
   "self_type" : "type-262",
   "size" : 4,
   "source_file" : "/system/core/libutils/include/utils/TypeHelpers.h"
  },
  {
   "alignment" : 4,
   "is_const" : true,
   "linker_set_key" : "const log_msg",
   "name" : "const log_msg",
   "referenced_type" : "type-269",
   "self_type" : "type-293",
   "size" : 5124,
   "source_file" : "/system/core/liblog/include/log/log_read.h"
  },
  {
   "alignment" : 8,
   "is_const" : true,
   "linker_set_key" : "const long",
   "name" : "const long",
   "referenced_type" : "type-46",
   "self_type" : "type-265",
   "size" : 8,
   "source_file" : "/system/core/libutils/include/utils/TypeHelpers.h"
  },
  {
   "alignment" : 2,
   "is_const" : true,
   "linker_set_key" : "const short",
   "name" : "const short",
   "referenced_type" : "type-27",
   "self_type" : "type-221",
   "size" : 2,
   "source_file" : "/system/core/libutils/include/utils/TypeHelpers.h"
  },
  {
   "alignment" : 1,
   "is_const" : true,
   "linker_set_key" : "const signed char",
   "name" : "const signed char",
   "referenced_type" : "type-157",
   "self_type" : "type-156",
   "size" : 1,
   "source_file" : "/system/core/libutils/include/utils/TypeHelpers.h"
  },
  {
   "alignment" : 8,
   "is_const" : true,
   "linker_set_key" : "const std::basic_string<char, std::char_traits<char>, std::allocator<char> >",
   "name" : "const std::basic_string<char, std::char_traits<char>, std::allocator<char> >",
   "referenced_type" : "type-132",
   "self_type" : "type-131",
   "size" : 24,
   "source_file" : "/frameworks/av/media/libmedia/include/media/convert.h"
  },
  {
   "alignment" : 1,
   "is_const" : true,
   "linker_set_key" : "const unsigned char",
   "name" : "const unsigned char",
   "referenced_type" : "type-22",
   "self_type" : "type-189",
   "size" : 1,
   "source_file" : "/system/core/libutils/include/utils/TypeHelpers.h"
  },
  {
   "alignment" : 4,
   "is_const" : true,
   "linker_set_key" : "const unsigned int",
   "name" : "const unsigned int",
   "referenced_type" : "type-2",
   "self_type" : "type-80",
   "size" : 4,
   "source_file" : "/system/core/libutils/include/utils/TypeHelpers.h"
  },
  {
   "alignment" : 8,
   "is_const" : true,
   "linker_set_key" : "const unsigned long",
   "name" : "const unsigned long",
   "referenced_type" : "type-51",
   "self_type" : "type-97",
   "size" : 8,
   "source_file" : "/system/core/libutils/include/utils/TypeHelpers.h"
  },
  {
   "alignment" : 2,
   "is_const" : true,
   "linker_set_key" : "const unsigned short",
   "name" : "const unsigned short",
   "referenced_type" : "type-32",
   "self_type" : "type-253",
   "size" : 2,
   "source_file" : "/system/core/libutils/include/utils/TypeHelpers.h"
  },
  {
   "is_const" : true,
   "linker_set_key" : "const void",
   "name" : "const void",
   "referenced_type" : "type-10",
   "self_type" : "type-277",
   "source_file" : "/system/core/libutils/include/utils/VectorImpl.h"
  }
 ],
 "record_types" :
 [
  {
   "alignment" : 1,
   "base_specifiers" :
   [
    {
     "referenced_type" : "type-144"
    }
   ],
   "linker_set_key" : "android::AudioFlagTraits",
   "name" : "android::AudioFlagTraits",
   "referenced_type" : "type-187",
   "self_type" : "type-187",
   "size" : 1,
   "source_file" : "/frameworks/av/media/libmedia/include/media/TypeConverter.h",
   "unique_id" : "_ZTSN7android15AudioFlagTraitsE"
  },
  {
   "alignment" : 1,
   "base_specifiers" :
   [
    {
     "referenced_type" : "type-180"
    }
   ],
   "linker_set_key" : "android::ChannelIndexTraits",
   "name" : "android::ChannelIndexTraits",
   "referenced_type" : "type-186",
   "self_type" : "type-186",
   "size" : 1,
   "source_file" : "/frameworks/av/media/libmedia/include/media/TypeConverter.h",
   "unique_id" : "_ZTSN7android18ChannelIndexTraitsE"
  },
  {
   "alignment" : 1,
   "linker_set_key" : "android::DefaultTraits<audio_content_type_t>",
   "name" : "android::DefaultTraits<audio_content_type_t>",
   "referenced_type" : "type-166",
   "self_type" : "type-166",
   "size" : 1,
   "source_file" : "/frameworks/av/media/libmedia/include/media/TypeConverter.h",
   "template_args" : [ "type-167" ],
   "unique_id" : "_ZTSN7android13DefaultTraitsI20audio_content_type_tEE"
  },
  {
   "alignment" : 1,
   "linker_set_key" : "android::DefaultTraits<audio_input_flags_t>",
   "name" : "android::DefaultTraits<audio_input_flags_t>",
   "referenced_type" : "type-148",
   "self_type" : "type-148",
   "size" : 1,
   "source_file" : "/frameworks/av/media/libmedia/include/media/TypeConverter.h",
   "template_args" : [ "type-149" ],
   "unique_id" : "_ZTSN7android13DefaultTraitsI19audio_input_flags_tEE"
  },
  {
   "alignment" : 1,
   "linker_set_key" : "android::DefaultTraits<audio_mode_t>",
   "name" : "android::DefaultTraits<audio_mode_t>",
   "referenced_type" : "type-162",
   "self_type" : "type-162",
   "size" : 1,
   "source_file" : "/frameworks/av/media/libmedia/include/media/TypeConverter.h",
   "template_args" : [ "type-163" ],
   "unique_id" : "_ZTSN7android13DefaultTraitsI12audio_mode_tEE"
  },
  {
   "alignment" : 1,
   "linker_set_key" : "android::DefaultTraits<audio_output_flags_t>",
   "name" : "android::DefaultTraits<audio_output_flags_t>",
   "referenced_type" : "type-152",
   "self_type" : "type-152",
   "size" : 1,
   "source_file" : "/frameworks/av/media/libmedia/include/media/TypeConverter.h",
   "template_args" : [ "type-153" ],
   "unique_id" : "_ZTSN7android13DefaultTraitsI20audio_output_flags_tEE"
  },
  {
   "alignment" : 1,
   "linker_set_key" : "android::DefaultTraits<audio_source_t>",
   "name" : "android::DefaultTraits<audio_source_t>",
   "referenced_type" : "type-172",
   "self_type" : "type-172",
   "size" : 1,
   "source_file" : "/frameworks/av/media/libmedia/include/media/TypeConverter.h",
   "template_args" : [ "type-173" ],
   "unique_id" : "_ZTSN7android13DefaultTraitsI14audio_source_tEE"
  },
  {
   "alignment" : 1,
   "linker_set_key" : "android::DefaultTraits<audio_stream_type_t>",
   "name" : "android::DefaultTraits<audio_stream_type_t>",
   "referenced_type" : "type-158",
   "self_type" : "type-158",
   "size" : 1,
   "source_file" : "/frameworks/av/media/libmedia/include/media/TypeConverter.h",
   "template_args" : [ "type-159" ],
   "unique_id" : "_ZTSN7android13DefaultTraitsI19audio_stream_type_tEE"
  },
  {
   "alignment" : 1,
   "linker_set_key" : "android::DefaultTraits<audio_usage_t>",
   "name" : "android::DefaultTraits<audio_usage_t>",
   "referenced_type" : "type-168",
   "self_type" : "type-168",
   "size" : 1,
   "source_file" : "/frameworks/av/media/libmedia/include/media/TypeConverter.h",
   "template_args" : [ "type-169" ],
   "unique_id" : "_ZTSN7android13DefaultTraitsI13audio_usage_tEE"
  },
  {
   "alignment" : 1,
   "linker_set_key" : "android::DefaultTraits<unsigned int>",
   "name" : "android::DefaultTraits<unsigned int>",
   "referenced_type" : "type-144",
   "self_type" : "type-144",
   "size" : 1,
   "source_file" : "/frameworks/av/media/libmedia/include/media/TypeConverter.h",
   "template_args" : [ "type-2" ],
   "unique_id" : "_ZTSN7android13DefaultTraitsIjEE"
  },
  {
   "alignment" : 1,
   "base_specifiers" :
   [
    {
     "referenced_type" : "type-180"
    }
   ],
   "linker_set_key" : "android::InputChannelTraits",
   "name" : "android::InputChannelTraits",
   "referenced_type" : "type-185",
   "self_type" : "type-185",
   "size" : 1,
   "source_file" : "/frameworks/av/media/libmedia/include/media/TypeConverter.h",
   "unique_id" : "_ZTSN7android18InputChannelTraitsE"
  },
  {
   "alignment" : 1,
   "base_specifiers" :
   [
    {
     "referenced_type" : "type-144"
    }
   ],
   "linker_set_key" : "android::InputDeviceTraits",
   "name" : "android::InputDeviceTraits",
   "referenced_type" : "type-183",
   "self_type" : "type-183",
   "size" : 1,
   "source_file" : "/frameworks/av/media/libmedia/include/media/TypeConverter.h",
   "unique_id" : "_ZTSN7android17InputDeviceTraitsE"
  },
  {
   "alignment" : 8,
   "fields" :
   [
    {
     "access" : "private",
     "field_name" : "mVector",
     "referenced_type" : "type-280"
    }
   ],
   "linker_set_key" : "android::KeyedVector<android::String8, android::String8>",
   "name" : "android::KeyedVector<android::String8, android::String8>",
   "record_kind" : "class",
   "referenced_type" : "type-284",
   "self_type" : "type-284",
   "size" : 40,
   "source_file" : "/system/core/libutils/include/utils/KeyedVector.h",
   "template_args" : [ "type-5", "type-5" ],
   "unique_id" : "_ZTSN7android11KeyedVectorINS_7String8ES1_EE"
  },
  {
   "alignment" : 1,
   "base_specifiers" :
   [
    {
     "referenced_type" : "type-180"
    }
   ],
   "linker_set_key" : "android::OutputChannelTraits",
   "name" : "android::OutputChannelTraits",
   "referenced_type" : "type-184",
   "self_type" : "type-184",
   "size" : 1,
   "source_file" : "/frameworks/av/media/libmedia/include/media/TypeConverter.h",
   "unique_id" : "_ZTSN7android19OutputChannelTraitsE"
  },
  {
   "alignment" : 1,
   "base_specifiers" :
   [
    {
     "referenced_type" : "type-144"
    }
   ],
   "linker_set_key" : "android::OutputDeviceTraits",
   "name" : "android::OutputDeviceTraits",
   "referenced_type" : "type-182",
   "self_type" : "type-182",
   "size" : 1,
   "source_file" : "/frameworks/av/media/libmedia/include/media/TypeConverter.h",
   "unique_id" : "_ZTSN7android18OutputDeviceTraitsE"
  },
  {
   "alignment" : 8,
   "base_specifiers" :
   [
    {
     "access" : "private",
     "referenced_type" : "type-94"
    }
   ],
   "linker_set_key" : "android::SortedVector<android::key_value_pair_t<android::String8, android::String8> >",
   "name" : "android::SortedVector<android::key_value_pair_t<android::String8, android::String8> >",
   "record_kind" : "class",
   "referenced_type" : "type-280",
   "self_type" : "type-280",
   "size" : 40,
   "source_file" : "/system/core/libutils/include/utils/SortedVector.h",
   "template_args" : [ "type-4" ],
   "unique_id" : "_ZTSN7android12SortedVectorINS_16key_value_pair_tINS_7String8ES2_EEEE",
   "vtable_components" :
   [
    {
     "kind" : "offset_to_top"
    },
    {
     "kind" : "rtti",
     "mangled_component_name" : "_ZTIN7android12SortedVectorINS_16key_value_pair_tINS_7String8ES2_EEEE"
    },
    {
     "kind" : "complete_dtor_pointer",
     "mangled_component_name" : "_ZN7android12SortedVectorINS_16key_value_pair_tINS_7String8ES2_EEED1Ev"
    },
    {
     "kind" : "deleting_dtor_pointer",
     "mangled_component_name" : "_ZN7android12SortedVectorINS_16key_value_pair_tINS_7String8ES2_EEED0Ev"
    },
    {
     "mangled_component_name" : "_ZNK7android12SortedVectorINS_16key_value_pair_tINS_7String8ES2_EEE12do_constructEPvm"
    },
    {
     "mangled_component_name" : "_ZNK7android12SortedVectorINS_16key_value_pair_tINS_7String8ES2_EEE10do_destroyEPvm"
    },
    {
     "mangled_component_name" : "_ZNK7android12SortedVectorINS_16key_value_pair_tINS_7String8ES2_EEE7do_copyEPvPKvm"
    },
    {
     "mangled_component_name" : "_ZNK7android12SortedVectorINS_16key_value_pair_tINS_7String8ES2_EEE8do_splatEPvPKvm"
    },
    {
     "mangled_component_name" : "_ZNK7android12SortedVectorINS_16key_value_pair_tINS_7String8ES2_EEE15do_move_forwardEPvPKvm"
    },
    {
     "mangled_component_name" : "_ZNK7android12SortedVectorINS_16key_value_pair_tINS_7String8ES2_EEE16do_move_backwardEPvPKvm"
    },
    {
     "mangled_component_name" : "_ZNK7android12SortedVectorINS_16key_value_pair_tINS_7String8ES2_EEE10do_compareEPKvS6_"
    }
   ]
  },
  {
   "alignment" : 8,
   "base_specifiers" :
   [
    {
     "access" : "private",
     "referenced_type" : "type-94"
    }
   ],
   "linker_set_key" : "android::SortedVector<unsigned int>",
   "name" : "android::SortedVector<unsigned int>",
   "record_kind" : "class",
   "referenced_type" : "type-93",
   "self_type" : "type-93",
   "size" : 40,
   "source_file" : "/system/core/libutils/include/utils/SortedVector.h",
   "template_args" : [ "type-2" ],
   "unique_id" : "_ZTSN7android12SortedVectorIjEE",
   "vtable_components" :
   [
    {
     "kind" : "offset_to_top"
    },
    {
     "kind" : "rtti",
     "mangled_component_name" : "_ZTIN7android12SortedVectorIjEE"
    },
    {
     "kind" : "complete_dtor_pointer",
     "mangled_component_name" : "_ZN7android12SortedVectorIjED1Ev"
    },
    {
     "kind" : "deleting_dtor_pointer",
     "mangled_component_name" : "_ZN7android12SortedVectorIjED0Ev"
    },
    {
     "mangled_component_name" : "_ZNK7android12SortedVectorIjE12do_constructEPvm"
    },
    {
     "mangled_component_name" : "_ZNK7android12SortedVectorIjE10do_destroyEPvm"
    },
    {
     "mangled_component_name" : "_ZNK7android12SortedVectorIjE7do_copyEPvPKvm"
    },
    {
     "mangled_component_name" : "_ZNK7android12SortedVectorIjE8do_splatEPvPKvm"
    },
    {
     "mangled_component_name" : "_ZNK7android12SortedVectorIjE15do_move_forwardEPvPKvm"
    },
    {
     "mangled_component_name" : "_ZNK7android12SortedVectorIjE16do_move_backwardEPvPKvm"
    },
    {
     "mangled_component_name" : "_ZNK7android12SortedVectorIjE10do_compareEPKvS3_"
    }
   ]
  },
  {
   "alignment" : 8,
   "base_specifiers" :
   [
    {
     "referenced_type" : "type-95"
    }
   ],
   "linker_set_key" : "android::SortedVectorImpl",
   "name" : "android::SortedVectorImpl",
   "record_kind" : "class",
   "referenced_type" : "type-94",
   "self_type" : "type-94",
   "size" : 40,
   "source_file" : "/system/core/libutils/include/utils/VectorImpl.h",
   "unique_id" : "_ZTSN7android16SortedVectorImplE",
   "vtable_components" :
   [
    {
     "kind" : "offset_to_top"
    },
    {
     "kind" : "rtti",
     "mangled_component_name" : "_ZTIN7android16SortedVectorImplE"
    },
    {
     "kind" : "complete_dtor_pointer",
     "mangled_component_name" : "_ZN7android16SortedVectorImplD1Ev"
    },
    {
     "kind" : "deleting_dtor_pointer",
     "mangled_component_name" : "_ZN7android16SortedVectorImplD0Ev"
    },
    {
     "is_pure" : true,
     "mangled_component_name" : "_ZNK7android10VectorImpl12do_constructEPvm"
    },
    {
     "is_pure" : true,
     "mangled_component_name" : "_ZNK7android10VectorImpl10do_destroyEPvm"
    },
    {
     "is_pure" : true,
     "mangled_component_name" : "_ZNK7android10VectorImpl7do_copyEPvPKvm"
    },
    {
     "is_pure" : true,
     "mangled_component_name" : "_ZNK7android10VectorImpl8do_splatEPvPKvm"
    },
    {
     "is_pure" : true,
     "mangled_component_name" : "_ZNK7android10VectorImpl15do_move_forwardEPvPKvm"
    },
    {
     "is_pure" : true,
     "mangled_component_name" : "_ZNK7android10VectorImpl16do_move_backwardEPvPKvm"
    },
    {
     "is_pure" : true,
     "mangled_component_name" : "_ZNK7android16SortedVectorImpl10do_compareEPKvS2_"
    }
   ]
  },
  {
   "alignment" : 1,
   "linker_set_key" : "android::SortedVectorTraits<unsigned int>",
   "name" : "android::SortedVectorTraits<unsigned int>",
   "referenced_type" : "type-180",
   "self_type" : "type-180",
   "size" : 1,
   "source_file" : "/frameworks/av/media/libmedia/include/media/TypeConverter.h",
   "template_args" : [ "type-2" ],
   "unique_id" : "_ZTSN7android18SortedVectorTraitsIjEE"
  },
  {
   "alignment" : 8,
   "fields" :
   [
    {
     "access" : "private",
     "field_name" : "mString",
     "referenced_type" : "type-6"
    }
   ],
   "linker_set_key" : "android::String8",
   "name" : "android::String8",
   "record_kind" : "class",
   "referenced_type" : "type-5",
   "self_type" : "type-5",
   "size" : 8,
   "source_file" : "/system/core/libutils/include/utils/String8.h",
   "unique_id" : "_ZTSN7android7String8E"
  },
  {
   "access" : "protected",
   "alignment" : 8,
   "fields" :
   [
    {
     "field_name" : "literal",
     "referenced_type" : "type-6"
    },
    {
     "field_name" : "value",
     "field_offset" : 64,
     "referenced_type" : "type-197"
    }
   ],
   "linker_set_key" : "android::TypeConverter<DefaultTraits<audio_content_type_t> >::Table",
   "name" : "android::TypeConverter<DefaultTraits<audio_content_type_t> >::Table",
   "referenced_type" : "type-196",
   "self_type" : "type-196",
   "size" : 16,
   "source_file" : "/frameworks/av/media/libmedia/include/media/TypeConverter.h",
   "unique_id" : "_ZTSN7android13TypeConverterINS_13DefaultTraitsI20audio_content_type_tEEE5TableE"
  },
  {
   "alignment" : 1,
   "linker_set_key" : "android::TypeConverter<android::DefaultTraits<audio_content_type_t> >",
   "name" : "android::TypeConverter<android::DefaultTraits<audio_content_type_t> >",
   "record_kind" : "class",
   "referenced_type" : "type-190",
   "self_type" : "type-190",
   "size" : 1,
   "source_file" : "/frameworks/av/media/libmedia/include/media/TypeConverter.h",
   "template_args" : [ "type-166" ],
   "unique_id" : "_ZTSN7android13TypeConverterINS_13DefaultTraitsI20audio_content_type_tEEEE"
  },
  {
   "alignment" : 8,
   "base_specifiers" :
   [
    {
     "access" : "private",
     "referenced_type" : "type-95"
    }
   ],
   "linker_set_key" : "android::Vector<audio_format_t>",
   "name" : "android::Vector<audio_format_t>",
   "record_kind" : "class",
   "referenced_type" : "type-102",
   "self_type" : "type-102",
   "size" : 40,
   "source_file" : "/system/core/libutils/include/utils/Vector.h",
   "template_args" : [ "type-103" ],
   "unique_id" : "_ZTSN7android6VectorI14audio_format_tEE",
   "vtable_components" :
   [
    {
     "kind" : "offset_to_top"
    },
    {
     "kind" : "rtti",
     "mangled_component_name" : "_ZTIN7android6VectorI14audio_format_tEE"
    },
    {
     "kind" : "complete_dtor_pointer",
     "mangled_component_name" : "_ZN7android6VectorI14audio_format_tED1Ev"
    },
    {
     "kind" : "deleting_dtor_pointer",
     "mangled_component_name" : "_ZN7android6VectorI14audio_format_tED0Ev"
    },
    {
     "mangled_component_name" : "_ZNK7android6VectorI14audio_format_tE12do_constructEPvm"
    },
    {
     "mangled_component_name" : "_ZNK7android6VectorI14audio_format_tE10do_destroyEPvm"
    },
    {
     "mangled_component_name" : "_ZNK7android6VectorI14audio_format_tE7do_copyEPvPKvm"
    },
    {
     "mangled_component_name" : "_ZNK7android6VectorI14audio_format_tE8do_splatEPvPKvm"
    },
    {
     "mangled_component_name" : "_ZNK7android6VectorI14audio_format_tE15do_move_forwardEPvPKvm"
    },
    {
     "mangled_component_name" : "_ZNK7android6VectorI14audio_format_tE16do_move_backwardEPvPKvm"
    }
   ]
  },
  {
   "alignment" : 8,
   "fields" :
   [
    {
     "access" : "private",
     "field_name" : "mStorage",
     "field_offset" : 64,
     "referenced_type" : "type-96"
    },
    {
     "access" : "private",
     "field_name" : "mCount",
     "field_offset" : 128,
     "referenced_type" : "type-51"
    },
    {
     "access" : "private",
     "field_name" : "mFlags",
     "field_offset" : 192,
     "referenced_type" : "type-80"
    },
    {
     "access" : "private",
     "field_name" : "mItemSize",
     "field_offset" : 256,
     "referenced_type" : "type-97"
    }
   ],
   "linker_set_key" : "android::VectorImpl",
   "name" : "android::VectorImpl",
   "record_kind" : "class",
   "referenced_type" : "type-95",
   "self_type" : "type-95",
   "size" : 40,
   "source_file" : "/system/core/libutils/include/utils/VectorImpl.h",
   "unique_id" : "_ZTSN7android10VectorImplE",
   "vtable_components" :
   [
    {
     "kind" : "offset_to_top"
    },
    {
     "kind" : "rtti",
     "mangled_component_name" : "_ZTIN7android10VectorImplE"
    },
    {
     "kind" : "complete_dtor_pointer",
     "mangled_component_name" : "_ZN7android10VectorImplD1Ev"
    },
    {
     "kind" : "deleting_dtor_pointer",
     "mangled_component_name" : "_ZN7android10VectorImplD0Ev"
    },
    {
     "is_pure" : true,
     "mangled_component_name" : "_ZNK7android10VectorImpl12do_constructEPvm"
    },
    {
     "is_pure" : true,
     "mangled_component_name" : "_ZNK7android10VectorImpl10do_destroyEPvm"
    },
    {
     "is_pure" : true,
     "mangled_component_name" : "_ZNK7android10VectorImpl7do_copyEPvPKvm"
    },
    {
     "is_pure" : true,
     "mangled_component_name" : "_ZNK7android10VectorImpl8do_splatEPvPKvm"
    },
    {
     "is_pure" : true,
     "mangled_component_name" : "_ZNK7android10VectorImpl15do_move_forwardEPvPKvm"
    },
    {
     "is_pure" : true,
     "mangled_component_name" : "_ZNK7android10VectorImpl16do_move_backwardEPvPKvm"
    }
   ]
  },
  {
   "alignment" : 1,
   "linker_set_key" : "android::VectorTraits<audio_format_t>",
   "name" : "android::VectorTraits<audio_format_t>",
   "referenced_type" : "type-176",
   "self_type" : "type-176",
   "size" : 1,
   "source_file" : "/frameworks/av/media/libmedia/include/media/TypeConverter.h",
   "template_args" : [ "type-177" ],
   "unique_id" : "_ZTSN7android12VectorTraitsI14audio_format_tEE"
  },
  {
   "alignment" : 1,
   "linker_set_key" : "android::aggregate_traits<android::String8, android::String8>",
   "name" : "android::aggregate_traits<android::String8, android::String8>",
   "referenced_type" : "type-311",
   "self_type" : "type-311",
   "size" : 1,
   "source_file" : "/system/core/libutils/include/utils/TypeHelpers.h",
   "template_args" : [ "type-5", "type-5" ],
   "unique_id" : "_ZTSN7android16aggregate_traitsINS_7String8ES1_EE"
  },
  {
   "alignment" : 8,
   "fields" :
   [
    {
     "field_name" : "key",
     "referenced_type" : "type-5"
    },
    {
     "field_name" : "value",
     "field_offset" : 64,
     "referenced_type" : "type-5"
    }
   ],
   "linker_set_key" : "android::key_value_pair_t<android::String8, android::String8>",
   "name" : "android::key_value_pair_t<android::String8, android::String8>",
   "referenced_type" : "type-4",
   "self_type" : "type-4",
   "size" : 16,
   "source_file" : "/system/core/libutils/include/utils/TypeHelpers.h",
   "template_args" : [ "type-5", "type-5" ],
   "unique_id" : "_ZTSN7android16key_value_pair_tINS_7String8ES1_EE"
  },
  {
   "alignment" : 1,
   "linker_set_key" : "android::trait_pointer<android::String8>",
   "name" : "android::trait_pointer<android::String8>",
   "referenced_type" : "type-308",
   "self_type" : "type-308",
   "size" : 1,
   "source_file" : "/system/core/libutils/include/utils/TypeHelpers.h",
   "template_args" : [ "type-5" ],
   "unique_id" : "_ZTSN7android13trait_pointerINS_7String8EEE"
  },
  {
   "alignment" : 1,
   "linker_set_key" : "android::trait_pointer<android::key_value_pair_t<android::String8, android::String8> >",
   "name" : "android::trait_pointer<android::key_value_pair_t<android::String8, android::String8> >",
   "referenced_type" : "type-307",
   "self_type" : "type-307",
   "size" : 1,
   "source_file" : "/system/core/libutils/include/utils/TypeHelpers.h",
   "template_args" : [ "type-4" ],
   "unique_id" : "_ZTSN7android13trait_pointerINS_16key_value_pair_tINS_7String8ES2_EEEE"
  },
  {
   "alignment" : 1,
   "linker_set_key" : "android::trait_pointer<audio_format_t>",
   "name" : "android::trait_pointer<audio_format_t>",
   "referenced_type" : "type-255",
   "self_type" : "type-255",
   "size" : 1,
   "source_file" : "/system/core/libutils/include/utils/TypeHelpers.h",
   "template_args" : [ "type-256" ],
   "unique_id" : "_ZTSN7android13trait_pointerI14audio_format_tEE"
  },
  {
   "alignment" : 1,
   "linker_set_key" : "android::trait_pointer<unsigned int>",
   "name" : "android::trait_pointer<unsigned int>",
   "referenced_type" : "type-254",
   "self_type" : "type-254",
   "size" : 1,
   "source_file" : "/system/core/libutils/include/utils/TypeHelpers.h",
   "template_args" : [ "type-2" ],
   "unique_id" : "_ZTSN7android13trait_pointerIjEE"
  },
  {
   "alignment" : 1,
   "linker_set_key" : "android::trait_trivial_copy<android::String8>",
   "name" : "android::trait_trivial_copy<android::String8>",
   "referenced_type" : "type-304",
   "self_type" : "type-304",
   "size" : 1,
   "source_file" : "/system/core/libutils/include/utils/TypeHelpers.h",
   "template_args" : [ "type-5" ],
   "unique_id" : "_ZTSN7android18trait_trivial_copyINS_7String8EEE"
  },
  {
   "alignment" : 1,
   "linker_set_key" : "android::trait_trivial_copy<android::key_value_pair_t<android::String8, android::String8> >",
   "name" : "android::trait_trivial_copy<android::key_value_pair_t<android::String8, android::String8> >",
   "referenced_type" : "type-305",
   "self_type" : "type-305",
   "size" : 1,
   "source_file" : "/system/core/libutils/include/utils/TypeHelpers.h",
   "template_args" : [ "type-4" ],
   "unique_id" : "_ZTSN7android18trait_trivial_copyINS_16key_value_pair_tINS_7String8ES2_EEEE"
  },
  {
   "alignment" : 1,
   "linker_set_key" : "android::trait_trivial_copy<audio_format_t>",
   "name" : "android::trait_trivial_copy<audio_format_t>",
   "referenced_type" : "type-249",
   "self_type" : "type-249",
   "size" : 1,
   "source_file" : "/system/core/libutils/include/utils/TypeHelpers.h",
   "template_args" : [ "type-250" ],
   "unique_id" : "_ZTSN7android18trait_trivial_copyI14audio_format_tEE"
  },
  {
   "alignment" : 1,
   "linker_set_key" : "android::trait_trivial_copy<bool>",
   "name" : "android::trait_trivial_copy<bool>",
   "referenced_type" : "type-15",
   "self_type" : "type-15",
   "size" : 1,
   "source_file" : "/system/core/libutils/include/utils/TypeHelpers.h",
   "template_args" : [ "type-13" ],
   "unique_id" : "_ZTSN7android18trait_trivial_copyIbEE"
  },
  {
   "alignment" : 1,
   "linker_set_key" : "android::trait_trivial_copy<char>",
   "name" : "android::trait_trivial_copy<char>",
   "referenced_type" : "type-19",
   "self_type" : "type-19",
   "size" : 1,
   "source_file" : "/system/core/libutils/include/utils/TypeHelpers.h",
   "template_args" : [ "type-8" ],
   "unique_id" : "_ZTSN7android18trait_trivial_copyIcEE"
  },
  {
   "alignment" : 1,
   "linker_set_key" : "android::trait_trivial_copy<double>",
   "name" : "android::trait_trivial_copy<double>",
   "referenced_type" : "type-74",
   "self_type" : "type-74",
   "size" : 1,
   "source_file" : "/system/core/libutils/include/utils/TypeHelpers.h",
   "template_args" : [ "type-72" ],
   "unique_id" : "_ZTSN7android18trait_trivial_copyIdEE"
  },
  {
   "alignment" : 1,
   "linker_set_key" : "android::trait_trivial_copy<float>",
   "name" : "android::trait_trivial_copy<float>",
   "referenced_type" : "type-69",
   "self_type" : "type-69",
   "size" : 1,
   "source_file" : "/system/core/libutils/include/utils/TypeHelpers.h",
   "template_args" : [ "type-66" ],
   "unique_id" : "_ZTSN7android18trait_trivial_copyIfEE"
  },
  {
   "alignment" : 1,
   "linker_set_key" : "android::trait_trivial_copy<int>",
   "name" : "android::trait_trivial_copy<int>",
   "referenced_type" : "type-39",
   "self_type" : "type-39",
   "size" : 1,
   "source_file" : "/system/core/libutils/include/utils/TypeHelpers.h",
   "template_args" : [ "type-37" ],
   "unique_id" : "_ZTSN7android18trait_trivial_copyIiEE"
  },
  {
   "alignment" : 1,
   "linker_set_key" : "android::trait_trivial_copy<long long>",
   "name" : "android::trait_trivial_copy<long long>",
   "referenced_type" : "type-58",
   "self_type" : "type-58",
   "size" : 1,
   "source_file" : "/system/core/libutils/include/utils/TypeHelpers.h",
   "template_args" : [ "type-56" ],
   "unique_id" : "_ZTSN7android18trait_trivial_copyIxEE"
  },
  {
   "alignment" : 1,
   "linker_set_key" : "android::trait_trivial_copy<long>",
   "name" : "android::trait_trivial_copy<long>",
   "referenced_type" : "type-48",
   "self_type" : "type-48",
   "size" : 1,
   "source_file" : "/system/core/libutils/include/utils/TypeHelpers.h",
   "template_args" : [ "type-46" ],
   "unique_id" : "_ZTSN7android18trait_trivial_copyIlEE"
  },
  {
   "alignment" : 1,
   "linker_set_key" : "android::trait_trivial_copy<short>",
   "name" : "android::trait_trivial_copy<short>",
   "referenced_type" : "type-29",
   "self_type" : "type-29",
   "size" : 1,
   "source_file" : "/system/core/libutils/include/utils/TypeHelpers.h",
   "template_args" : [ "type-27" ],
   "unique_id" : "_ZTSN7android18trait_trivial_copyIsEE"
  },
  {
   "alignment" : 1,
   "linker_set_key" : "android::trait_trivial_copy<unsigned char>",
   "name" : "android::trait_trivial_copy<unsigned char>",
   "referenced_type" : "type-24",
   "self_type" : "type-24",
   "size" : 1,
   "source_file" : "/system/core/libutils/include/utils/TypeHelpers.h",
   "template_args" : [ "type-22" ],
   "unique_id" : "_ZTSN7android18trait_trivial_copyIhEE"
  },
  {
   "alignment" : 1,
   "linker_set_key" : "android::trait_trivial_copy<unsigned int>",
   "name" : "android::trait_trivial_copy<unsigned int>",
   "referenced_type" : "type-43",
   "self_type" : "type-43",
   "size" : 1,
   "source_file" : "/system/core/libutils/include/utils/TypeHelpers.h",
   "template_args" : [ "type-2" ],
   "unique_id" : "_ZTSN7android18trait_trivial_copyIjEE"
  },
  {
   "alignment" : 1,
   "linker_set_key" : "android::trait_trivial_copy<unsigned long long>",
   "name" : "android::trait_trivial_copy<unsigned long long>",
   "referenced_type" : "type-63",
   "self_type" : "type-63",
   "size" : 1,
   "source_file" : "/system/core/libutils/include/utils/TypeHelpers.h",
   "template_args" : [ "type-61" ],
   "unique_id" : "_ZTSN7android18trait_trivial_copyIyEE"
  },
  {
   "alignment" : 1,
   "linker_set_key" : "android::trait_trivial_copy<unsigned long>",
   "name" : "android::trait_trivial_copy<unsigned long>",
   "referenced_type" : "type-53",
   "self_type" : "type-53",
   "size" : 1,
   "source_file" : "/system/core/libutils/include/utils/TypeHelpers.h",
   "template_args" : [ "type-51" ],
   "unique_id" : "_ZTSN7android18trait_trivial_copyImEE"
  },
  {
   "alignment" : 1,
   "linker_set_key" : "android::trait_trivial_copy<unsigned short>",
   "name" : "android::trait_trivial_copy<unsigned short>",
   "referenced_type" : "type-34",
   "self_type" : "type-34",
   "size" : 1,
   "source_file" : "/system/core/libutils/include/utils/TypeHelpers.h",
   "template_args" : [ "type-32" ],
   "unique_id" : "_ZTSN7android18trait_trivial_copyItEE"
  },
  {
   "alignment" : 1,
   "linker_set_key" : "android::trait_trivial_copy<void>",
   "name" : "android::trait_trivial_copy<void>",
   "referenced_type" : "type-9",
   "self_type" : "type-9",
   "size" : 1,
   "source_file" : "/system/core/libutils/include/utils/TypeHelpers.h",
   "template_args" : [ "type-10" ],
   "unique_id" : "_ZTSN7android18trait_trivial_copyIvEE"
  },
  {
   "alignment" : 1,
   "linker_set_key" : "android::trait_trivial_ctor<android::String8>",
   "name" : "android::trait_trivial_ctor<android::String8>",
   "referenced_type" : "type-300",
   "self_type" : "type-300",
   "size" : 1,
   "source_file" : "/system/core/libutils/include/utils/TypeHelpers.h",
   "template_args" : [ "type-5" ],
   "unique_id" : "_ZTSN7android18trait_trivial_ctorINS_7String8EEE"
  },
  {
   "alignment" : 1,
   "linker_set_key" : "android::trait_trivial_ctor<android::key_value_pair_t<android::String8, android::String8> >",
   "name" : "android::trait_trivial_ctor<android::key_value_pair_t<android::String8, android::String8> >",
   "referenced_type" : "type-299",
   "self_type" : "type-299",
   "size" : 1,
   "source_file" : "/system/core/libutils/include/utils/TypeHelpers.h",
   "template_args" : [ "type-4" ],
   "unique_id" : "_ZTSN7android18trait_trivial_ctorINS_16key_value_pair_tINS_7String8ES2_EEEE"
  },
  {
   "alignment" : 1,
   "linker_set_key" : "android::trait_trivial_ctor<audio_format_t>",
   "name" : "android::trait_trivial_ctor<audio_format_t>",
   "referenced_type" : "type-228",
   "self_type" : "type-228",
   "size" : 1,
   "source_file" : "/system/core/libutils/include/utils/TypeHelpers.h",
   "template_args" : [ "type-229" ],
   "unique_id" : "_ZTSN7android18trait_trivial_ctorI14audio_format_tEE"
  },
  {
   "alignment" : 1,
   "linker_set_key" : "android::trait_trivial_ctor<bool>",
   "name" : "android::trait_trivial_ctor<bool>",
   "referenced_type" : "type-12",
   "self_type" : "type-12",
   "size" : 1,
   "source_file" : "/system/core/libutils/include/utils/TypeHelpers.h",
   "template_args" : [ "type-13" ],
   "unique_id" : "_ZTSN7android18trait_trivial_ctorIbEE"
  },
  {
   "alignment" : 1,
   "linker_set_key" : "android::trait_trivial_ctor<char>",
   "name" : "android::trait_trivial_ctor<char>",
   "referenced_type" : "type-17",
   "self_type" : "type-17",
   "size" : 1,
   "source_file" : "/system/core/libutils/include/utils/TypeHelpers.h",
   "template_args" : [ "type-8" ],
   "unique_id" : "_ZTSN7android18trait_trivial_ctorIcEE"
  },
  {
   "alignment" : 1,
   "linker_set_key" : "android::trait_trivial_ctor<double>",
   "name" : "android::trait_trivial_ctor<double>",
   "referenced_type" : "type-71",
   "self_type" : "type-71",
   "size" : 1,
   "source_file" : "/system/core/libutils/include/utils/TypeHelpers.h",
   "template_args" : [ "type-72" ],
   "unique_id" : "_ZTSN7android18trait_trivial_ctorIdEE"
  },
  {
   "alignment" : 1,
   "linker_set_key" : "android::trait_trivial_ctor<float>",
   "name" : "android::trait_trivial_ctor<float>",
   "referenced_type" : "type-65",
   "self_type" : "type-65",
   "size" : 1,
   "source_file" : "/system/core/libutils/include/utils/TypeHelpers.h",
   "template_args" : [ "type-66" ],
   "unique_id" : "_ZTSN7android18trait_trivial_ctorIfEE"
  },
  {
   "alignment" : 1,
   "linker_set_key" : "android::trait_trivial_ctor<int>",
   "name" : "android::trait_trivial_ctor<int>",
   "referenced_type" : "type-36",
   "self_type" : "type-36",
   "size" : 1,
   "source_file" : "/system/core/libutils/include/utils/TypeHelpers.h",
   "template_args" : [ "type-37" ],
   "unique_id" : "_ZTSN7android18trait_trivial_ctorIiEE"
  },
  {
   "alignment" : 1,
   "linker_set_key" : "android::trait_trivial_ctor<long long>",
   "name" : "android::trait_trivial_ctor<long long>",
   "referenced_type" : "type-55",
   "self_type" : "type-55",
   "size" : 1,
   "source_file" : "/system/core/libutils/include/utils/TypeHelpers.h",
   "template_args" : [ "type-56" ],
   "unique_id" : "_ZTSN7android18trait_trivial_ctorIxEE"
  },
  {
   "alignment" : 1,
   "linker_set_key" : "android::trait_trivial_ctor<long>",
   "name" : "android::trait_trivial_ctor<long>",
   "referenced_type" : "type-45",
   "self_type" : "type-45",
   "size" : 1,
   "source_file" : "/system/core/libutils/include/utils/TypeHelpers.h",
   "template_args" : [ "type-46" ],
   "unique_id" : "_ZTSN7android18trait_trivial_ctorIlEE"
  },
  {
   "alignment" : 1,
   "linker_set_key" : "android::trait_trivial_ctor<short>",
   "name" : "android::trait_trivial_ctor<short>",
   "referenced_type" : "type-26",
   "self_type" : "type-26",
   "size" : 1,
   "source_file" : "/system/core/libutils/include/utils/TypeHelpers.h",
   "template_args" : [ "type-27" ],
   "unique_id" : "_ZTSN7android18trait_trivial_ctorIsEE"
  },
  {
   "alignment" : 1,
   "linker_set_key" : "android::trait_trivial_ctor<unsigned char>",
   "name" : "android::trait_trivial_ctor<unsigned char>",
   "referenced_type" : "type-21",
   "self_type" : "type-21",
   "size" : 1,
   "source_file" : "/system/core/libutils/include/utils/TypeHelpers.h",
   "template_args" : [ "type-22" ],
   "unique_id" : "_ZTSN7android18trait_trivial_ctorIhEE"
  },
  {
   "alignment" : 1,
   "linker_set_key" : "android::trait_trivial_ctor<unsigned int>",
   "name" : "android::trait_trivial_ctor<unsigned int>",
   "referenced_type" : "type-41",
   "self_type" : "type-41",
   "size" : 1,
   "source_file" : "/system/core/libutils/include/utils/TypeHelpers.h",
   "template_args" : [ "type-2" ],
   "unique_id" : "_ZTSN7android18trait_trivial_ctorIjEE"
  },
  {
   "alignment" : 1,
   "linker_set_key" : "android::trait_trivial_ctor<unsigned long long>",
   "name" : "android::trait_trivial_ctor<unsigned long long>",
   "referenced_type" : "type-60",
   "self_type" : "type-60",
   "size" : 1,
   "source_file" : "/system/core/libutils/include/utils/TypeHelpers.h",
   "template_args" : [ "type-61" ],
   "unique_id" : "_ZTSN7android18trait_trivial_ctorIyEE"
  },
  {
   "alignment" : 1,
   "linker_set_key" : "android::trait_trivial_ctor<unsigned long>",
   "name" : "android::trait_trivial_ctor<unsigned long>",
   "referenced_type" : "type-50",
   "self_type" : "type-50",
   "size" : 1,
   "source_file" : "/system/core/libutils/include/utils/TypeHelpers.h",
   "template_args" : [ "type-51" ],
   "unique_id" : "_ZTSN7android18trait_trivial_ctorImEE"
  },
  {
   "alignment" : 1,
   "linker_set_key" : "android::trait_trivial_ctor<unsigned short>",
   "name" : "android::trait_trivial_ctor<unsigned short>",
   "referenced_type" : "type-31",
   "self_type" : "type-31",
   "size" : 1,
   "source_file" : "/system/core/libutils/include/utils/TypeHelpers.h",
   "template_args" : [ "type-32" ],
   "unique_id" : "_ZTSN7android18trait_trivial_ctorItEE"
  },
  {
   "alignment" : 1,
   "linker_set_key" : "android::trait_trivial_ctor<void>",
   "name" : "android::trait_trivial_ctor<void>",
   "referenced_type" : "type-312",
   "self_type" : "type-312",
   "size" : 1,
   "source_file" : "/system/core/libutils/include/utils/TypeHelpers.h",
   "template_args" : [ "type-10" ],
   "unique_id" : "_ZTSN7android18trait_trivial_ctorIvEE"
  },
  {
   "alignment" : 1,
   "linker_set_key" : "android::trait_trivial_dtor<android::String8>",
   "name" : "android::trait_trivial_dtor<android::String8>",
   "referenced_type" : "type-301",
   "self_type" : "type-301",
   "size" : 1,
   "source_file" : "/system/core/libutils/include/utils/TypeHelpers.h",
   "template_args" : [ "type-5" ],
   "unique_id" : "_ZTSN7android18trait_trivial_dtorINS_7String8EEE"
  },
  {
   "alignment" : 1,
   "linker_set_key" : "android::trait_trivial_dtor<android::key_value_pair_t<android::String8, android::String8> >",
   "name" : "android::trait_trivial_dtor<android::key_value_pair_t<android::String8, android::String8> >",
   "referenced_type" : "type-302",
   "self_type" : "type-302",
   "size" : 1,
   "source_file" : "/system/core/libutils/include/utils/TypeHelpers.h",
   "template_args" : [ "type-4" ],
   "unique_id" : "_ZTSN7android18trait_trivial_dtorINS_16key_value_pair_tINS_7String8ES2_EEEE"
  },
  {
   "alignment" : 1,
   "linker_set_key" : "android::trait_trivial_dtor<audio_format_t>",
   "name" : "android::trait_trivial_dtor<audio_format_t>",
   "referenced_type" : "type-247",
   "self_type" : "type-247",
   "size" : 1,
   "source_file" : "/system/core/libutils/include/utils/TypeHelpers.h",
   "template_args" : [ "type-248" ],
   "unique_id" : "_ZTSN7android18trait_trivial_dtorI14audio_format_tEE"
  },
  {
   "alignment" : 1,
   "linker_set_key" : "android::trait_trivial_dtor<bool>",
   "name" : "android::trait_trivial_dtor<bool>",
   "referenced_type" : "type-14",
   "self_type" : "type-14",
   "size" : 1,
   "source_file" : "/system/core/libutils/include/utils/TypeHelpers.h",
   "template_args" : [ "type-13" ],
   "unique_id" : "_ZTSN7android18trait_trivial_dtorIbEE"
  },
  {
   "alignment" : 1,
   "linker_set_key" : "android::trait_trivial_dtor<char>",
   "name" : "android::trait_trivial_dtor<char>",
   "referenced_type" : "type-18",
   "self_type" : "type-18",
   "size" : 1,
   "source_file" : "/system/core/libutils/include/utils/TypeHelpers.h",
   "template_args" : [ "type-8" ],
   "unique_id" : "_ZTSN7android18trait_trivial_dtorIcEE"
  },
  {
   "alignment" : 1,
   "linker_set_key" : "android::trait_trivial_dtor<double>",
   "name" : "android::trait_trivial_dtor<double>",
   "referenced_type" : "type-73",
   "self_type" : "type-73",
   "size" : 1,
   "source_file" : "/system/core/libutils/include/utils/TypeHelpers.h",
   "template_args" : [ "type-72" ],
   "unique_id" : "_ZTSN7android18trait_trivial_dtorIdEE"
  },
  {
   "alignment" : 1,
   "linker_set_key" : "android::trait_trivial_dtor<float>",
   "name" : "android::trait_trivial_dtor<float>",
   "referenced_type" : "type-67",
   "self_type" : "type-67",
   "size" : 1,
   "source_file" : "/system/core/libutils/include/utils/TypeHelpers.h",
   "template_args" : [ "type-66" ],
   "unique_id" : "_ZTSN7android18trait_trivial_dtorIfEE"
  },
  {
   "alignment" : 1,
   "linker_set_key" : "android::trait_trivial_dtor<int>",
   "name" : "android::trait_trivial_dtor<int>",
   "referenced_type" : "type-38",
   "self_type" : "type-38",
   "size" : 1,
   "source_file" : "/system/core/libutils/include/utils/TypeHelpers.h",
   "template_args" : [ "type-37" ],
   "unique_id" : "_ZTSN7android18trait_trivial_dtorIiEE"
  },
  {
   "alignment" : 1,
   "linker_set_key" : "android::trait_trivial_dtor<long long>",
   "name" : "android::trait_trivial_dtor<long long>",
   "referenced_type" : "type-57",
   "self_type" : "type-57",
   "size" : 1,
   "source_file" : "/system/core/libutils/include/utils/TypeHelpers.h",
   "template_args" : [ "type-56" ],
   "unique_id" : "_ZTSN7android18trait_trivial_dtorIxEE"
  },
  {
   "alignment" : 1,
   "linker_set_key" : "android::trait_trivial_dtor<long>",
   "name" : "android::trait_trivial_dtor<long>",
   "referenced_type" : "type-47",
   "self_type" : "type-47",
   "size" : 1,
   "source_file" : "/system/core/libutils/include/utils/TypeHelpers.h",
   "template_args" : [ "type-46" ],
   "unique_id" : "_ZTSN7android18trait_trivial_dtorIlEE"
  },
  {
   "alignment" : 1,
   "linker_set_key" : "android::trait_trivial_dtor<short>",
   "name" : "android::trait_trivial_dtor<short>",
   "referenced_type" : "type-28",
   "self_type" : "type-28",
   "size" : 1,
   "source_file" : "/system/core/libutils/include/utils/TypeHelpers.h",
   "template_args" : [ "type-27" ],
   "unique_id" : "_ZTSN7android18trait_trivial_dtorIsEE"
  },
  {
   "alignment" : 1,
   "linker_set_key" : "android::trait_trivial_dtor<unsigned char>",
   "name" : "android::trait_trivial_dtor<unsigned char>",
   "referenced_type" : "type-23",
   "self_type" : "type-23",
   "size" : 1,
   "source_file" : "/system/core/libutils/include/utils/TypeHelpers.h",
   "template_args" : [ "type-22" ],
   "unique_id" : "_ZTSN7android18trait_trivial_dtorIhEE"
  },
  {
   "alignment" : 1,
   "linker_set_key" : "android::trait_trivial_dtor<unsigned int>",
   "name" : "android::trait_trivial_dtor<unsigned int>",
   "referenced_type" : "type-42",
   "self_type" : "type-42",
   "size" : 1,
   "source_file" : "/system/core/libutils/include/utils/TypeHelpers.h",
   "template_args" : [ "type-2" ],
   "unique_id" : "_ZTSN7android18trait_trivial_dtorIjEE"
  },
  {
   "alignment" : 1,
   "linker_set_key" : "android::trait_trivial_dtor<unsigned long long>",
   "name" : "android::trait_trivial_dtor<unsigned long long>",
   "referenced_type" : "type-62",
   "self_type" : "type-62",
   "size" : 1,
   "source_file" : "/system/core/libutils/include/utils/TypeHelpers.h",
   "template_args" : [ "type-61" ],
   "unique_id" : "_ZTSN7android18trait_trivial_dtorIyEE"
  },
  {
   "alignment" : 1,
   "linker_set_key" : "android::trait_trivial_dtor<unsigned long>",
   "name" : "android::trait_trivial_dtor<unsigned long>",
   "referenced_type" : "type-52",
   "self_type" : "type-52",
   "size" : 1,
   "source_file" : "/system/core/libutils/include/utils/TypeHelpers.h",
   "template_args" : [ "type-51" ],
   "unique_id" : "_ZTSN7android18trait_trivial_dtorImEE"
  },
  {
   "alignment" : 1,
   "linker_set_key" : "android::trait_trivial_dtor<unsigned short>",
   "name" : "android::trait_trivial_dtor<unsigned short>",
   "referenced_type" : "type-33",
   "self_type" : "type-33",
   "size" : 1,
   "source_file" : "/system/core/libutils/include/utils/TypeHelpers.h",
   "template_args" : [ "type-32" ],
   "unique_id" : "_ZTSN7android18trait_trivial_dtorItEE"
  },
  {
   "alignment" : 1,
   "linker_set_key" : "android::trait_trivial_dtor<void>",
   "name" : "android::trait_trivial_dtor<void>",
   "referenced_type" : "type-314",
   "self_type" : "type-314",
   "size" : 1,
   "source_file" : "/system/core/libutils/include/utils/TypeHelpers.h",
   "template_args" : [ "type-10" ],
   "unique_id" : "_ZTSN7android18trait_trivial_dtorIvEE"
  },
  {
   "alignment" : 1,
   "linker_set_key" : "android::trait_trivial_move<android::String8>",
   "name" : "android::trait_trivial_move<android::String8>",
   "referenced_type" : "type-292",
   "self_type" : "type-292",
   "size" : 1,
   "source_file" : "/system/core/libutils/include/utils/String8.h",
   "template_args" : [ "type-5" ],
   "unique_id" : "_ZTSN7android18trait_trivial_moveINS_7String8EEE"
  },
  {
   "alignment" : 1,
   "linker_set_key" : "android::trait_trivial_move<android::key_value_pair_t<android::String8, android::String8> >",
   "name" : "android::trait_trivial_move<android::key_value_pair_t<android::String8, android::String8> >",
   "referenced_type" : "type-306",
   "self_type" : "type-306",
   "size" : 1,
   "source_file" : "/system/core/libutils/include/utils/TypeHelpers.h",
   "template_args" : [ "type-4" ],
   "unique_id" : "_ZTSN7android18trait_trivial_moveINS_16key_value_pair_tINS_7String8ES2_EEEE"
  },
  {
   "alignment" : 1,
   "linker_set_key" : "android::trait_trivial_move<audio_format_t>",
   "name" : "android::trait_trivial_move<audio_format_t>",
   "referenced_type" : "type-251",
   "self_type" : "type-251",
   "size" : 1,
   "source_file" : "/system/core/libutils/include/utils/TypeHelpers.h",
   "template_args" : [ "type-252" ],
   "unique_id" : "_ZTSN7android18trait_trivial_moveI14audio_format_tEE"
  },
  {
   "alignment" : 1,
   "linker_set_key" : "android::trait_trivial_move<bool>",
   "name" : "android::trait_trivial_move<bool>",
   "referenced_type" : "type-16",
   "self_type" : "type-16",
   "size" : 1,
   "source_file" : "/system/core/libutils/include/utils/TypeHelpers.h",
   "template_args" : [ "type-13" ],
   "unique_id" : "_ZTSN7android18trait_trivial_moveIbEE"
  },
  {
   "alignment" : 1,
   "linker_set_key" : "android::trait_trivial_move<char>",
   "name" : "android::trait_trivial_move<char>",
   "referenced_type" : "type-20",
   "self_type" : "type-20",
   "size" : 1,
   "source_file" : "/system/core/libutils/include/utils/TypeHelpers.h",
   "template_args" : [ "type-8" ],
   "unique_id" : "_ZTSN7android18trait_trivial_moveIcEE"
  },
  {
   "alignment" : 1,
   "linker_set_key" : "android::trait_trivial_move<double>",
   "name" : "android::trait_trivial_move<double>",
   "referenced_type" : "type-294",
   "self_type" : "type-294",
   "size" : 1,
   "source_file" : "/system/core/libutils/include/utils/TypeHelpers.h",
   "template_args" : [ "type-72" ],
   "unique_id" : "_ZTSN7android18trait_trivial_moveIdEE"
  },
  {
   "alignment" : 1,
   "linker_set_key" : "android::trait_trivial_move<float>",
   "name" : "android::trait_trivial_move<float>",
   "referenced_type" : "type-70",
   "self_type" : "type-70",
   "size" : 1,
   "source_file" : "/system/core/libutils/include/utils/TypeHelpers.h",
   "template_args" : [ "type-66" ],
   "unique_id" : "_ZTSN7android18trait_trivial_moveIfEE"
  },
  {
   "alignment" : 1,
   "linker_set_key" : "android::trait_trivial_move<int>",
   "name" : "android::trait_trivial_move<int>",
   "referenced_type" : "type-40",
   "self_type" : "type-40",
   "size" : 1,
   "source_file" : "/system/core/libutils/include/utils/TypeHelpers.h",
   "template_args" : [ "type-37" ],
   "unique_id" : "_ZTSN7android18trait_trivial_moveIiEE"
  },
  {
   "alignment" : 1,
   "linker_set_key" : "android::trait_trivial_move<long long>",
   "name" : "android::trait_trivial_move<long long>",
   "referenced_type" : "type-59",
   "self_type" : "type-59",
   "size" : 1,
   "source_file" : "/system/core/libutils/include/utils/TypeHelpers.h",
   "template_args" : [ "type-56" ],
   "unique_id" : "_ZTSN7android18trait_trivial_moveIxEE"
  },
  {
   "alignment" : 1,
   "linker_set_key" : "android::trait_trivial_move<long>",
   "name" : "android::trait_trivial_move<long>",
   "referenced_type" : "type-49",
   "self_type" : "type-49",
   "size" : 1,
   "source_file" : "/system/core/libutils/include/utils/TypeHelpers.h",
   "template_args" : [ "type-46" ],
   "unique_id" : "_ZTSN7android18trait_trivial_moveIlEE"
  },
  {
   "alignment" : 1,
   "linker_set_key" : "android::trait_trivial_move<short>",
   "name" : "android::trait_trivial_move<short>",
   "referenced_type" : "type-30",
   "self_type" : "type-30",
   "size" : 1,
   "source_file" : "/system/core/libutils/include/utils/TypeHelpers.h",
   "template_args" : [ "type-27" ],
   "unique_id" : "_ZTSN7android18trait_trivial_moveIsEE"
  },
  {
   "alignment" : 1,
   "linker_set_key" : "android::trait_trivial_move<unsigned char>",
   "name" : "android::trait_trivial_move<unsigned char>",
   "referenced_type" : "type-25",
   "self_type" : "type-25",
   "size" : 1,
   "source_file" : "/system/core/libutils/include/utils/TypeHelpers.h",
   "template_args" : [ "type-22" ],
   "unique_id" : "_ZTSN7android18trait_trivial_moveIhEE"
  },
  {
   "alignment" : 1,
   "linker_set_key" : "android::trait_trivial_move<unsigned int>",
   "name" : "android::trait_trivial_move<unsigned int>",
   "referenced_type" : "type-44",
   "self_type" : "type-44",
   "size" : 1,
   "source_file" : "/system/core/libutils/include/utils/TypeHelpers.h",
   "template_args" : [ "type-2" ],
   "unique_id" : "_ZTSN7android18trait_trivial_moveIjEE"
  },
  {
   "alignment" : 1,
   "linker_set_key" : "android::trait_trivial_move<unsigned long long>",
   "name" : "android::trait_trivial_move<unsigned long long>",
   "referenced_type" : "type-64",
   "self_type" : "type-64",
   "size" : 1,
   "source_file" : "/system/core/libutils/include/utils/TypeHelpers.h",
   "template_args" : [ "type-61" ],
   "unique_id" : "_ZTSN7android18trait_trivial_moveIyEE"
  },
  {
   "alignment" : 1,
   "linker_set_key" : "android::trait_trivial_move<unsigned long>",
   "name" : "android::trait_trivial_move<unsigned long>",
   "referenced_type" : "type-54",
   "self_type" : "type-54",
   "size" : 1,
   "source_file" : "/system/core/libutils/include/utils/TypeHelpers.h",
   "template_args" : [ "type-51" ],
   "unique_id" : "_ZTSN7android18trait_trivial_moveImEE"
  },
  {
   "alignment" : 1,
   "linker_set_key" : "android::trait_trivial_move<unsigned short>",
   "name" : "android::trait_trivial_move<unsigned short>",
   "referenced_type" : "type-35",
   "self_type" : "type-35",
   "size" : 1,
   "source_file" : "/system/core/libutils/include/utils/TypeHelpers.h",
   "template_args" : [ "type-32" ],
   "unique_id" : "_ZTSN7android18trait_trivial_moveItEE"
  },
  {
   "alignment" : 1,
   "linker_set_key" : "android::trait_trivial_move<void>",
   "name" : "android::trait_trivial_move<void>",
   "referenced_type" : "type-11",
   "self_type" : "type-11",
   "size" : 1,
   "source_file" : "/system/core/libutils/include/utils/TypeHelpers.h",
   "template_args" : [ "type-10" ],
   "unique_id" : "_ZTSN7android18trait_trivial_moveIvEE"
  },
  {
   "alignment" : 1,
   "linker_set_key" : "android::traits<android::String8>",
   "name" : "android::traits<android::String8>",
   "referenced_type" : "type-310",
   "self_type" : "type-310",
   "size" : 1,
   "source_file" : "/system/core/libutils/include/utils/TypeHelpers.h",
   "template_args" : [ "type-5" ],
   "unique_id" : "_ZTSN7android6traitsINS_7String8EEE"
  },
  {
   "alignment" : 1,
   "linker_set_key" : "android::traits<android::key_value_pair_t<android::String8, android::String8> >",
   "name" : "android::traits<android::key_value_pair_t<android::String8, android::String8> >",
   "referenced_type" : "type-309",
   "self_type" : "type-309",
   "size" : 1,
   "source_file" : "/system/core/libutils/include/utils/TypeHelpers.h",
   "template_args" : [ "type-4" ],
   "unique_id" : "_ZTSN7android6traitsINS_16key_value_pair_tINS_7String8ES2_EEEE"
  },
  {
   "alignment" : 1,
   "linker_set_key" : "android::traits<audio_format_t>",
   "name" : "android::traits<audio_format_t>",
   "referenced_type" : "type-258",
   "self_type" : "type-258",
   "size" : 1,
   "source_file" : "/system/core/libutils/include/utils/TypeHelpers.h",
   "template_args" : [ "type-259" ],
   "unique_id" : "_ZTSN7android6traitsI14audio_format_tEE"
  },
  {
   "alignment" : 1,
   "linker_set_key" : "android::traits<unsigned int>",
   "name" : "android::traits<unsigned int>",
   "referenced_type" : "type-257",
   "self_type" : "type-257",
   "size" : 1,
   "source_file" : "/system/core/libutils/include/utils/TypeHelpers.h",
   "template_args" : [ "type-2" ],
   "unique_id" : "_ZTSN7android6traitsIjEE"
  },
  {
   "alignment" : 1,
   "base_specifiers" :
   [
    {
     "referenced_type" : "type-91"
    }
   ],
   "linker_set_key" : "android::use_trivial_move<android::key_value_pair_t<android::String8, android::String8> >",
   "name" : "android::use_trivial_move<android::key_value_pair_t<android::String8, android::String8> >",
   "referenced_type" : "type-90",
   "self_type" : "type-90",
   "size" : 1,
   "source_file" : "/system/core/libutils/include/utils/TypeHelpers.h",
   "template_args" : [ "type-4" ],
   "unique_id" : "_ZTSN7android16use_trivial_moveINS_16key_value_pair_tINS_7String8ES2_EEEE"
  },
  {
   "alignment" : 1,
   "base_specifiers" :
   [
    {
     "referenced_type" : "type-88"
    }
   ],
   "linker_set_key" : "android::use_trivial_move<audio_format_t>",
   "name" : "android::use_trivial_move<audio_format_t>",
   "referenced_type" : "type-87",
   "self_type" : "type-87",
   "size" : 1,
   "source_file" : "/system/core/libutils/include/utils/TypeHelpers.h",
   "template_args" : [ "type-89" ],
   "unique_id" : "_ZTSN7android16use_trivial_moveI14audio_format_tEE"
  },
  {
   "alignment" : 1,
   "base_specifiers" :
   [
    {
     "referenced_type" : "type-85"
    }
   ],
   "linker_set_key" : "android::use_trivial_move<unsigned int>",
   "name" : "android::use_trivial_move<unsigned int>",
   "referenced_type" : "type-84",
   "self_type" : "type-84",
   "size" : 1,
   "source_file" : "/system/core/libutils/include/utils/TypeHelpers.h",
   "template_args" : [ "type-2" ],
   "unique_id" : "_ZTSN7android16use_trivial_moveIjEE"
  },
  {
   "alignment" : 1,
   "linker_set_key" : "android::utilities::details::ConversionFromStringAllowed<bool>",
   "name" : "android::utilities::details::ConversionFromStringAllowed<bool>",
   "referenced_type" : "type-111",
   "self_type" : "type-111",
   "size" : 1,
   "source_file" : "/frameworks/av/media/libmedia/include/media/convert.h",
   "template_args" : [ "type-13" ],
   "unique_id" : "_ZTSN7android9utilities7details27ConversionFromStringAllowedIbEE"
  },
  {
   "alignment" : 1,
   "linker_set_key" : "android::utilities::details::ConversionFromStringAllowed<double>",
   "name" : "android::utilities::details::ConversionFromStringAllowed<double>",
   "referenced_type" : "type-121",
   "self_type" : "type-121",
   "size" : 1,
   "source_file" : "/frameworks/av/media/libmedia/include/media/convert.h",
   "template_args" : [ "type-72" ],
   "unique_id" : "_ZTSN7android9utilities7details27ConversionFromStringAllowedIdEE"
  },
  {
   "alignment" : 1,
   "linker_set_key" : "android::utilities::details::ConversionFromStringAllowed<float>",
   "name" : "android::utilities::details::ConversionFromStringAllowed<float>",
   "referenced_type" : "type-120",
   "self_type" : "type-120",
   "size" : 1,
   "source_file" : "/frameworks/av/media/libmedia/include/media/convert.h",
   "template_args" : [ "type-66" ],
   "unique_id" : "_ZTSN7android9utilities7details27ConversionFromStringAllowedIfEE"
  },
  {
   "alignment" : 1,
   "linker_set_key" : "android::utilities::details::ConversionFromStringAllowed<int16_t>",
   "name" : "android::utilities::details::ConversionFromStringAllowed<int16_t>",
   "referenced_type" : "type-119",
   "self_type" : "type-119",
   "size" : 1,
   "source_file" : "/frameworks/av/media/libmedia/include/media/convert.h",
   "template_args" : [ "type-27" ],
   "unique_id" : "_ZTSN7android9utilities7details27ConversionFromStringAllowedIsEE"
  },
  {
   "alignment" : 1,
   "linker_set_key" : "android::utilities::details::ConversionFromStringAllowed<int32_t>",
   "name" : "android::utilities::details::ConversionFromStringAllowed<int32_t>",
   "referenced_type" : "type-117",
   "self_type" : "type-117",
   "size" : 1,
   "source_file" : "/frameworks/av/media/libmedia/include/media/convert.h",
   "template_args" : [ "type-37" ],
   "unique_id" : "_ZTSN7android9utilities7details27ConversionFromStringAllowedIiEE"
  },
  {
   "alignment" : 1,
   "linker_set_key" : "android::utilities::details::ConversionFromStringAllowed<int64_t>",
   "name" : "android::utilities::details::ConversionFromStringAllowed<int64_t>",
   "referenced_type" : "type-113",
   "self_type" : "type-113",
   "size" : 1,
   "source_file" : "/frameworks/av/media/libmedia/include/media/convert.h",
   "template_args" : [ "type-46" ],
   "unique_id" : "_ZTSN7android9utilities7details27ConversionFromStringAllowedIlEE"
  },
  {
   "alignment" : 1,
   "linker_set_key" : "android::utilities::details::ConversionFromStringAllowed<uint16_t>",
   "name" : "android::utilities::details::ConversionFromStringAllowed<uint16_t>",
   "referenced_type" : "type-118",
   "self_type" : "type-118",
   "size" : 1,
   "source_file" : "/frameworks/av/media/libmedia/include/media/convert.h",
   "template_args" : [ "type-32" ],
   "unique_id" : "_ZTSN7android9utilities7details27ConversionFromStringAllowedItEE"
  },
  {
   "alignment" : 1,
   "linker_set_key" : "android::utilities::details::ConversionFromStringAllowed<uint32_t>",
   "name" : "android::utilities::details::ConversionFromStringAllowed<uint32_t>",
   "referenced_type" : "type-114",
   "self_type" : "type-114",
   "size" : 1,
   "source_file" : "/frameworks/av/media/libmedia/include/media/convert.h",
   "template_args" : [ "type-2" ],
   "unique_id" : "_ZTSN7android9utilities7details27ConversionFromStringAllowedIjEE"
  },
  {
   "alignment" : 1,
   "linker_set_key" : "android::utilities::details::ConversionFromStringAllowed<uint64_t>",
   "name" : "android::utilities::details::ConversionFromStringAllowed<uint64_t>",
   "referenced_type" : "type-112",
   "self_type" : "type-112",
   "size" : 1,
   "source_file" : "/frameworks/av/media/libmedia/include/media/convert.h",
   "template_args" : [ "type-51" ],
   "unique_id" : "_ZTSN7android9utilities7details27ConversionFromStringAllowedImEE"
  },
  {
   "alignment" : 1,
   "linker_set_key" : "android::utilities::details::ConversionToStringAllowed<double>",
   "name" : "android::utilities::details::ConversionToStringAllowed<double>",
   "referenced_type" : "type-127",
   "self_type" : "type-127",
   "size" : 1,
   "source_file" : "/frameworks/av/media/libmedia/include/media/convert.h",
   "template_args" : [ "type-72" ],
   "unique_id" : "_ZTSN7android9utilities7details25ConversionToStringAllowedIdEE"
  },
  {
   "alignment" : 1,
   "linker_set_key" : "android::utilities::details::ConversionToStringAllowed<float>",
   "name" : "android::utilities::details::ConversionToStringAllowed<float>",
   "referenced_type" : "type-128",
   "self_type" : "type-128",
   "size" : 1,
   "source_file" : "/frameworks/av/media/libmedia/include/media/convert.h",
   "template_args" : [ "type-66" ],
   "unique_id" : "_ZTSN7android9utilities7details25ConversionToStringAllowedIfEE"
  },
  {
   "alignment" : 1,
   "linker_set_key" : "android::utilities::details::ConversionToStringAllowed<int32_t>",
   "name" : "android::utilities::details::ConversionToStringAllowed<int32_t>",
   "referenced_type" : "type-125",
   "self_type" : "type-125",
   "size" : 1,
   "source_file" : "/frameworks/av/media/libmedia/include/media/convert.h",
   "template_args" : [ "type-37" ],
   "unique_id" : "_ZTSN7android9utilities7details25ConversionToStringAllowedIiEE"
  },
  {
   "alignment" : 1,
   "linker_set_key" : "android::utilities::details::ConversionToStringAllowed<int64_t>",
   "name" : "android::utilities::details::ConversionToStringAllowed<int64_t>",
   "referenced_type" : "type-122",
   "self_type" : "type-122",
   "size" : 1,
   "source_file" : "/frameworks/av/media/libmedia/include/media/convert.h",
   "template_args" : [ "type-46" ],
   "unique_id" : "_ZTSN7android9utilities7details25ConversionToStringAllowedIlEE"
  },
  {
   "alignment" : 1,
   "linker_set_key" : "android::utilities::details::ConversionToStringAllowed<uint32_t>",
   "name" : "android::utilities::details::ConversionToStringAllowed<uint32_t>",
   "referenced_type" : "type-124",
   "self_type" : "type-124",
   "size" : 1,
   "source_file" : "/frameworks/av/media/libmedia/include/media/convert.h",
   "template_args" : [ "type-2" ],
   "unique_id" : "_ZTSN7android9utilities7details25ConversionToStringAllowedIjEE"
  },
  {
   "alignment" : 1,
   "linker_set_key" : "android::utilities::details::ConversionToStringAllowed<uint64_t>",
   "name" : "android::utilities::details::ConversionToStringAllowed<uint64_t>",
   "referenced_type" : "type-123",
   "self_type" : "type-123",
   "size" : 1,
   "source_file" : "/frameworks/av/media/libmedia/include/media/convert.h",
   "template_args" : [ "type-51" ],
   "unique_id" : "_ZTSN7android9utilities7details25ConversionToStringAllowedImEE"
  },
  {
   "alignment" : 1,
   "linker_set_key" : "android::utilities::details::Converter<std::basic_string<char, std::char_traits<char>, std::allocator<char> >, double>",
   "name" : "android::utilities::details::Converter<std::basic_string<char, std::char_traits<char>, std::allocator<char> >, double>",
   "record_kind" : "class",
   "referenced_type" : "type-135",
   "self_type" : "type-135",
   "size" : 1,
   "source_file" : "/frameworks/av/media/libmedia/include/media/convert.h",
   "template_args" : [ "type-136", "type-72" ],
   "unique_id" : "_ZTSN7android9utilities7details9ConverterINSt3__112basic_stringIcNS3_11char_traitsIcEENS3_9allocatorIcEEEEdEE"
  },
  {
   "alignment" : 1,
   "linker_set_key" : "android::utilities::details::Converter<std::basic_string<char, std::char_traits<char>, std::allocator<char> >, float>",
   "name" : "android::utilities::details::Converter<std::basic_string<char, std::char_traits<char>, std::allocator<char> >, float>",
   "record_kind" : "class",
   "referenced_type" : "type-129",
   "self_type" : "type-129",
   "size" : 1,
   "source_file" : "/frameworks/av/media/libmedia/include/media/convert.h",
   "template_args" : [ "type-130", "type-66" ],
   "unique_id" : "_ZTSN7android9utilities7details9ConverterINSt3__112basic_stringIcNS3_11char_traitsIcEENS3_9allocatorIcEEEEfEE"
  },
  {
   "alignment" : 1,
   "linker_set_key" : "android::utilities::details::Converter<std::basic_string<char, std::char_traits<char>, std::allocator<char> >, long>",
   "name" : "android::utilities::details::Converter<std::basic_string<char, std::char_traits<char>, std::allocator<char> >, long>",
   "record_kind" : "class",
   "referenced_type" : "type-138",
   "self_type" : "type-138",
   "size" : 1,
   "source_file" : "/frameworks/av/media/libmedia/include/media/convert.h",
   "template_args" : [ "type-139", "type-46" ],
   "unique_id" : "_ZTSN7android9utilities7details9ConverterINSt3__112basic_stringIcNS3_11char_traitsIcEENS3_9allocatorIcEEEElEE"
  },
  {
   "alignment" : 1,
   "linker_set_key" : "android::utilities::details::Converter<std::basic_string<char, std::char_traits<char>, std::allocator<char> >, unsigned int>",
   "name" : "android::utilities::details::Converter<std::basic_string<char, std::char_traits<char>, std::allocator<char> >, unsigned int>",
   "record_kind" : "class",
   "referenced_type" : "type-141",
   "self_type" : "type-141",
   "size" : 1,
   "source_file" : "/frameworks/av/media/libmedia/include/media/convert.h",
   "template_args" : [ "type-142", "type-2" ],
   "unique_id" : "_ZTSN7android9utilities7details9ConverterINSt3__112basic_stringIcNS3_11char_traitsIcEENS3_9allocatorIcEEEEjEE"
  },
  {
   "alignment" : 4,
   "fields" :
   [
    {
     "referenced_type" : "type-270"
    }
   ],
   "linker_set_key" : "log_msg",
   "name" : "log_msg",
   "referenced_type" : "type-269",
   "self_type" : "type-269",
   "size" : 5124,
   "source_file" : "/system/core/liblog/include/log/log_read.h",
   "unique_id" : "log_msg"
  },
  {
   "alignment" : 4,
   "fields" :
   [
    {
     "field_name" : "buf",
     "referenced_type" : "type-271"
    },
    {
     "field_name" : "entry",
     "referenced_type" : "type-260"
    },
    {
     "field_name" : "entry_v4",
     "referenced_type" : "type-260"
    },
    {
     "field_name" : "entry_v3",
     "referenced_type" : "type-115"
    },
    {
     "field_name" : "entry_v2",
     "referenced_type" : "type-188"
    },
    {
     "field_name" : "entry_v1",
     "referenced_type" : "type-272"
    }
   ],
   "is_anonymous" : true,
   "linker_set_key" : "log_msg::(anonymous union at system/core/liblog/include_vndk/log/log_read.h:139:3) at system/core/liblog/include_vndk/log/log_read.h:139:3",
   "name" : "log_msg::(anonymous union at system/core/liblog/include_vndk/log/log_read.h:139:3) at system/core/liblog/include_vndk/log/log_read.h:139:3",
   "record_kind" : "union",
   "referenced_type" : "type-270",
   "self_type" : "type-270",
   "size" : 5124,
   "source_file" : "/system/core/liblog/include/log/log_read.h",
   "unique_id" : "log_msg::(anonymous union at system/core/liblog/include_vndk/log/log_read.h:139:3)"
  },
  {
   "alignment" : 1,
   "fields" :
   [
    {
     "field_name" : "tv_sec",
     "referenced_type" : "type-2"
    },
    {
     "field_name" : "tv_nsec",
     "field_offset" : 32,
     "referenced_type" : "type-2"
    }
   ],
   "linker_set_key" : "log_time",
   "name" : "log_time",
   "referenced_type" : "type-313",
   "self_type" : "type-313",
   "size" : 8,
   "source_file" : "/system/core/liblog/include_vndk/log/log_time.h",
   "unique_id" : "_ZTS8log_time"
  },
  {
   "alignment" : 4,
   "fields" :
   [
    {
     "field_name" : "len",
     "referenced_type" : "type-32"
    },
    {
     "field_name" : "__pad",
     "field_offset" : 16,
     "referenced_type" : "type-32"
    },
    {
     "field_name" : "pid",
     "field_offset" : 32,
     "referenced_type" : "type-37"
    },
    {
     "field_name" : "tid",
     "field_offset" : 64,
     "referenced_type" : "type-37"
    },
    {
     "field_name" : "sec",
     "field_offset" : 96,
     "referenced_type" : "type-37"
    },
    {
     "field_name" : "nsec",
     "field_offset" : 128,
     "referenced_type" : "type-37"
    },
    {
     "field_name" : "msg",
     "field_offset" : 160,
     "referenced_type" : "type-116"
    }
   ],
   "linker_set_key" : "logger_entry",
   "name" : "logger_entry",
   "referenced_type" : "type-272",
   "self_type" : "type-272",
   "size" : 20,
   "source_file" : "/system/core/liblog/include/log/log_read.h",
   "unique_id" : "logger_entry"
  },
  {
   "alignment" : 1,
   "fields" :
   [
    {
     "field_name" : "len",
     "referenced_type" : "type-32"
    },
    {
     "field_name" : "hdr_size",
     "field_offset" : 16,
     "referenced_type" : "type-32"
    },
    {
     "field_name" : "pid",
     "field_offset" : 32,
     "referenced_type" : "type-37"
    },
    {
     "field_name" : "tid",
     "field_offset" : 64,
     "referenced_type" : "type-37"
    },
    {
     "field_name" : "sec",
     "field_offset" : 96,
     "referenced_type" : "type-37"
    },
    {
     "field_name" : "nsec",
     "field_offset" : 128,
     "referenced_type" : "type-37"
    },
    {
     "field_name" : "euid",
     "field_offset" : 160,
     "referenced_type" : "type-2"
    },
    {
     "field_name" : "msg",
     "field_offset" : 192,
     "referenced_type" : "type-116"
    }
   ],
   "linker_set_key" : "logger_entry_v2",
   "name" : "logger_entry_v2",
   "referenced_type" : "type-188",
   "self_type" : "type-188",
   "size" : 24,
   "source_file" : "/system/core/liblog/include/log/log_read.h",
   "unique_id" : "logger_entry_v2"
  },
  {
   "alignment" : 1,
   "fields" :
   [
    {
     "field_name" : "len",
     "referenced_type" : "type-32"
    },
    {
     "field_name" : "hdr_size",
     "field_offset" : 16,
     "referenced_type" : "type-32"
    },
    {
     "field_name" : "pid",
     "field_offset" : 32,
     "referenced_type" : "type-37"
    },
    {
     "field_name" : "tid",
     "field_offset" : 64,
     "referenced_type" : "type-37"
    },
    {
     "field_name" : "sec",
     "field_offset" : 96,
     "referenced_type" : "type-37"
    },
    {
     "field_name" : "nsec",
     "field_offset" : 128,
     "referenced_type" : "type-37"
    },
    {
     "field_name" : "lid",
     "field_offset" : 160,
     "referenced_type" : "type-2"
    },
    {
     "field_name" : "msg",
     "field_offset" : 192,
     "referenced_type" : "type-116"
    }
   ],
   "linker_set_key" : "logger_entry_v3",
   "name" : "logger_entry_v3",
   "referenced_type" : "type-115",
   "self_type" : "type-115",
   "size" : 24,
   "source_file" : "/system/core/liblog/include/log/log_read.h",
   "unique_id" : "logger_entry_v3"
  },
  {
   "alignment" : 4,
   "fields" :
   [
    {
     "field_name" : "len",
     "referenced_type" : "type-32"
    },
    {
     "field_name" : "hdr_size",
     "field_offset" : 16,
     "referenced_type" : "type-32"
    },
    {
     "field_name" : "pid",
     "field_offset" : 32,
     "referenced_type" : "type-37"
    },
    {
     "field_name" : "tid",
     "field_offset" : 64,
     "referenced_type" : "type-2"
    },
    {
     "field_name" : "sec",
     "field_offset" : 96,
     "referenced_type" : "type-2"
    },
    {
     "field_name" : "nsec",
     "field_offset" : 128,
     "referenced_type" : "type-2"
    },
    {
     "field_name" : "lid",
     "field_offset" : 160,
     "referenced_type" : "type-2"
    },
    {
     "field_name" : "uid",
     "field_offset" : 192,
     "referenced_type" : "type-2"
    },
    {
     "field_name" : "msg",
     "field_offset" : 224,
     "referenced_type" : "type-116"
    }
   ],
   "linker_set_key" : "logger_entry_v4",
   "name" : "logger_entry_v4",
   "referenced_type" : "type-260",
   "self_type" : "type-260",
   "size" : 28,
   "source_file" : "/system/core/liblog/include/log/log_read.h",
   "unique_id" : "logger_entry_v4"
  }
 ],
 "rvalue_reference_types" : []
}
