{
 "array_types" :
 [
  {
   "alignment" : 1,
   "linker_set_key" : "bool [64]",
   "name" : "bool [64]",
   "referenced_type" : "type-10",
   "self_type" : "type-93",
   "size" : 64,
   "source_file" : "/external/tinyxml2/tinyxml2.h"
  },
  {
   "alignment" : 1,
   "linker_set_key" : "char [104]",
   "name" : "char [104]",
   "referenced_type" : "type-4",
   "self_type" : "type-57",
   "size" : 104,
   "source_file" : "/external/tinyxml2/tinyxml2.h"
  },
  {
   "alignment" : 1,
   "linker_set_key" : "char [112]",
   "name" : "char [112]",
   "referenced_type" : "type-4",
   "self_type" : "type-47",
   "size" : 112,
   "source_file" : "/external/tinyxml2/tinyxml2.h"
  },
  {
   "alignment" : 1,
   "linker_set_key" : "char [120]",
   "name" : "char [120]",
   "referenced_type" : "type-4",
   "self_type" : "type-26",
   "size" : 120,
   "source_file" : "/external/tinyxml2/tinyxml2.h"
  },
  {
   "alignment" : 1,
   "linker_set_key" : "char [20]",
   "name" : "char [20]",
   "referenced_type" : "type-4",
   "self_type" : "type-95",
   "size" : 20,
   "source_file" : "/external/tinyxml2/tinyxml2.h"
  },
  {
   "alignment" : 1,
   "linker_set_key" : "char [80]",
   "name" : "char [80]",
   "referenced_type" : "type-4",
   "self_type" : "type-37",
   "size" : 80,
   "source_file" : "/external/tinyxml2/tinyxml2.h"
  },
  {
   "alignment" : 8,
   "linker_set_key" : "const char *[10]",
   "name" : "const char *[10]",
   "referenced_type" : "type-90",
   "self_type" : "type-92",
   "size" : 80,
   "source_file" : "/external/tinyxml2/tinyxml2.h"
  },
  {
   "alignment" : 8,
   "linker_set_key" : "const char *[19]",
   "name" : "const char *[19]",
   "referenced_type" : "type-90",
   "self_type" : "type-98",
   "size" : 152,
   "source_file" : "/external/tinyxml2/tinyxml2.h"
  },
  {
   "alignment" : 8,
   "linker_set_key" : "tinyxml2::MemPoolT<104>::Block *[10]",
   "name" : "tinyxml2::MemPoolT<104>::Block *[10]",
   "referenced_type" : "type-52",
   "self_type" : "type-58",
   "size" : 80,
   "source_file" : "/external/tinyxml2/tinyxml2.h"
  },
  {
   "alignment" : 8,
   "linker_set_key" : "tinyxml2::MemPoolT<104>::Item [39]",
   "name" : "tinyxml2::MemPoolT<104>::Item [39]",
   "referenced_type" : "type-55",
   "self_type" : "type-54",
   "size" : 4056,
   "source_file" : "/external/tinyxml2/tinyxml2.h"
  },
  {
   "alignment" : 8,
   "linker_set_key" : "tinyxml2::MemPoolT<112>::Block *[10]",
   "name" : "tinyxml2::MemPoolT<112>::Block *[10]",
   "referenced_type" : "type-42",
   "self_type" : "type-48",
   "size" : 80,
   "source_file" : "/external/tinyxml2/tinyxml2.h"
  },
  {
   "alignment" : 8,
   "linker_set_key" : "tinyxml2::MemPoolT<112>::Item [36]",
   "name" : "tinyxml2::MemPoolT<112>::Item [36]",
   "referenced_type" : "type-45",
   "self_type" : "type-44",
   "size" : 4032,
   "source_file" : "/external/tinyxml2/tinyxml2.h"
  },
  {
   "alignment" : 8,
   "linker_set_key" : "tinyxml2::MemPoolT<120>::Block *[10]",
   "name" : "tinyxml2::MemPoolT<120>::Block *[10]",
   "referenced_type" : "type-21",
   "self_type" : "type-27",
   "size" : 80,
   "source_file" : "/external/tinyxml2/tinyxml2.h"
  },
  {
   "alignment" : 8,
   "linker_set_key" : "tinyxml2::MemPoolT<120>::Item [34]",
   "name" : "tinyxml2::MemPoolT<120>::Item [34]",
   "referenced_type" : "type-24",
   "self_type" : "type-23",
   "size" : 4080,
   "source_file" : "/external/tinyxml2/tinyxml2.h"
  },
  {
   "alignment" : 8,
   "linker_set_key" : "tinyxml2::MemPoolT<80>::Block *[10]",
   "name" : "tinyxml2::MemPoolT<80>::Block *[10]",
   "referenced_type" : "type-32",
   "self_type" : "type-38",
   "size" : 80,
   "source_file" : "/external/tinyxml2/tinyxml2.h"
  },
  {
   "alignment" : 8,
   "linker_set_key" : "tinyxml2::MemPoolT<80>::Item [51]",
   "name" : "tinyxml2::MemPoolT<80>::Item [51]",
   "referenced_type" : "type-35",
   "self_type" : "type-34",
   "size" : 4080,
   "source_file" : "/external/tinyxml2/tinyxml2.h"
  },
  {
   "alignment" : 8,
   "linker_set_key" : "tinyxml2::XMLNode *[10]",
   "name" : "tinyxml2::XMLNode *[10]",
   "referenced_type" : "type-16",
   "self_type" : "type-17",
   "size" : 80,
   "source_file" : "/external/tinyxml2/tinyxml2.h"
  }
 ],
 "builtin_types" :
 [
  {
   "alignment" : 1,
   "is_integral" : true,
   "is_unsigned" : true,
   "linker_set_key" : "bool",
   "name" : "bool",
   "referenced_type" : "type-10",
   "self_type" : "type-10",
   "size" : 1
  },
  {
   "alignment" : 1,
   "is_integral" : true,
   "is_unsigned" : true,
   "linker_set_key" : "char",
   "name" : "char",
   "referenced_type" : "type-4",
   "self_type" : "type-4",
   "size" : 1
  },
  {
   "alignment" : 8,
   "linker_set_key" : "double",
   "name" : "double",
   "referenced_type" : "type-170",
   "self_type" : "type-170",
   "size" : 8
  },
  {
   "alignment" : 4,
   "linker_set_key" : "float",
   "name" : "float",
   "referenced_type" : "type-169",
   "self_type" : "type-169",
   "size" : 4
  },
  {
   "alignment" : 4,
   "is_integral" : true,
   "linker_set_key" : "int",
   "name" : "int",
   "referenced_type" : "type-1",
   "self_type" : "type-1",
   "size" : 4
  },
  {
   "alignment" : 8,
   "is_integral" : true,
   "linker_set_key" : "long",
   "name" : "long",
   "referenced_type" : "type-172",
   "self_type" : "type-172",
   "size" : 8
  },
  {
   "alignment" : 1,
   "is_integral" : true,
   "is_unsigned" : true,
   "linker_set_key" : "unsigned char",
   "name" : "unsigned char",
   "referenced_type" : "type-166",
   "self_type" : "type-166",
   "size" : 1
  },
  {
   "alignment" : 4,
   "is_integral" : true,
   "is_unsigned" : true,
   "linker_set_key" : "unsigned int",
   "name" : "unsigned int",
   "referenced_type" : "type-12",
   "self_type" : "type-12",
   "size" : 4
  },
  {
   "alignment" : 8,
   "is_integral" : true,
   "is_unsigned" : true,
   "linker_set_key" : "unsigned long",
   "name" : "unsigned long",
   "referenced_type" : "type-168",
   "self_type" : "type-168",
   "size" : 8
  },
  {
   "linker_set_key" : "void",
   "name" : "void",
   "referenced_type" : "type-60",
   "self_type" : "type-60"
  }
 ],
 "elf_functions" :
 [
  {
   "name" : "_ZN8tinyxml210XMLComment9ParseDeepEPcPNS_7StrPairEPi"
  },
  {
   "name" : "_ZN8tinyxml210XMLCommentC1EPNS_11XMLDocumentE"
  },
  {
   "name" : "_ZN8tinyxml210XMLCommentC2EPNS_11XMLDocumentE"
  },
  {
   "name" : "_ZN8tinyxml210XMLCommentD0Ev"
  },
  {
   "name" : "_ZN8tinyxml210XMLCommentD1Ev"
  },
  {
   "name" : "_ZN8tinyxml210XMLCommentD2Ev"
  },
  {
   "name" : "_ZN8tinyxml210XMLElement15CreateAttributeEv"
  },
  {
   "name" : "_ZN8tinyxml210XMLElement15DeleteAttributeEPKc"
  },
  {
   "name" : "_ZN8tinyxml210XMLElement15DeleteAttributeEPNS_12XMLAttributeE"
  },
  {
   "name" : "_ZN8tinyxml210XMLElement15ParseAttributesEPcPi"
  },
  {
   "name" : "_ZN8tinyxml210XMLElement21FindOrCreateAttributeEPKc"
  },
  {
   "name" : "_ZN8tinyxml210XMLElement7SetTextEPKc"
  },
  {
   "name" : "_ZN8tinyxml210XMLElement7SetTextEb"
  },
  {
   "name" : "_ZN8tinyxml210XMLElement7SetTextEd"
  },
  {
   "name" : "_ZN8tinyxml210XMLElement7SetTextEf"
  },
  {
   "name" : "_ZN8tinyxml210XMLElement7SetTextEi"
  },
  {
   "name" : "_ZN8tinyxml210XMLElement7SetTextEj"
  },
  {
   "name" : "_ZN8tinyxml210XMLElement7SetTextEl"
  },
  {
   "name" : "_ZN8tinyxml210XMLElement9ParseDeepEPcPNS_7StrPairEPi"
  },
  {
   "name" : "_ZN8tinyxml210XMLElementC1EPNS_11XMLDocumentE"
  },
  {
   "name" : "_ZN8tinyxml210XMLElementC2EPNS_11XMLDocumentE"
  },
  {
   "name" : "_ZN8tinyxml210XMLElementD0Ev"
  },
  {
   "name" : "_ZN8tinyxml210XMLElementD1Ev"
  },
  {
   "name" : "_ZN8tinyxml210XMLElementD2Ev"
  },
  {
   "name" : "_ZN8tinyxml210XMLPrinter10PrintSpaceEi"
  },
  {
   "name" : "_ZN8tinyxml210XMLPrinter10PushHeaderEbb"
  },
  {
   "name" : "_ZN8tinyxml210XMLPrinter10VisitEnterERKNS_10XMLElementEPKNS_12XMLAttributeE"
  },
  {
   "name" : "_ZN8tinyxml210XMLPrinter10VisitEnterERKNS_11XMLDocumentE"
  },
  {
   "name" : "_ZN8tinyxml210XMLPrinter11OpenElementEPKcb"
  },
  {
   "name" : "_ZN8tinyxml210XMLPrinter11PrintStringEPKcb"
  },
  {
   "name" : "_ZN8tinyxml210XMLPrinter11PushCommentEPKc"
  },
  {
   "name" : "_ZN8tinyxml210XMLPrinter11PushUnknownEPKc"
  },
  {
   "name" : "_ZN8tinyxml210XMLPrinter12CloseElementEb"
  },
  {
   "name" : "_ZN8tinyxml210XMLPrinter13PushAttributeEPKcS2_"
  },
  {
   "name" : "_ZN8tinyxml210XMLPrinter13PushAttributeEPKcb"
  },
  {
   "name" : "_ZN8tinyxml210XMLPrinter13PushAttributeEPKcd"
  },
  {
   "name" : "_ZN8tinyxml210XMLPrinter13PushAttributeEPKci"
  },
  {
   "name" : "_ZN8tinyxml210XMLPrinter13PushAttributeEPKcj"
  },
  {
   "name" : "_ZN8tinyxml210XMLPrinter13PushAttributeEPKcl"
  },
  {
   "name" : "_ZN8tinyxml210XMLPrinter15PushDeclarationEPKc"
  },
  {
   "name" : "_ZN8tinyxml210XMLPrinter23SealElementIfJustOpenedEv"
  },
  {
   "name" : "_ZN8tinyxml210XMLPrinter4PutcEc"
  },
  {
   "name" : "_ZN8tinyxml210XMLPrinter5PrintEPKcz"
  },
  {
   "name" : "_ZN8tinyxml210XMLPrinter5VisitERKNS_10XMLCommentE"
  },
  {
   "name" : "_ZN8tinyxml210XMLPrinter5VisitERKNS_10XMLUnknownE"
  },
  {
   "name" : "_ZN8tinyxml210XMLPrinter5VisitERKNS_14XMLDeclarationE"
  },
  {
   "name" : "_ZN8tinyxml210XMLPrinter5VisitERKNS_7XMLTextE"
  },
  {
   "name" : "_ZN8tinyxml210XMLPrinter5WriteEPKcm"
  },
  {
   "name" : "_ZN8tinyxml210XMLPrinter8PushTextEPKcb"
  },
  {
   "name" : "_ZN8tinyxml210XMLPrinter8PushTextEb"
  },
  {
   "name" : "_ZN8tinyxml210XMLPrinter8PushTextEd"
  },
  {
   "name" : "_ZN8tinyxml210XMLPrinter8PushTextEf"
  },
  {
   "name" : "_ZN8tinyxml210XMLPrinter8PushTextEi"
  },
  {
   "name" : "_ZN8tinyxml210XMLPrinter8PushTextEj"
  },
  {
   "name" : "_ZN8tinyxml210XMLPrinter8PushTextEl"
  },
  {
   "name" : "_ZN8tinyxml210XMLPrinter9VisitExitERKNS_10XMLElementE"
  },
  {
   "name" : "_ZN8tinyxml210XMLPrinterC1EP7__sFILEbi"
  },
  {
   "name" : "_ZN8tinyxml210XMLPrinterC2EP7__sFILEbi"
  },
  {
   "name" : "_ZN8tinyxml210XMLUnknown9ParseDeepEPcPNS_7StrPairEPi"
  },
  {
   "name" : "_ZN8tinyxml210XMLUnknownC1EPNS_11XMLDocumentE"
  },
  {
   "name" : "_ZN8tinyxml210XMLUnknownC2EPNS_11XMLDocumentE"
  },
  {
   "name" : "_ZN8tinyxml210XMLUnknownD0Ev"
  },
  {
   "name" : "_ZN8tinyxml210XMLUnknownD1Ev"
  },
  {
   "name" : "_ZN8tinyxml210XMLUnknownD2Ev"
  },
  {
   "name" : "_ZN8tinyxml211XMLDocument10DeleteNodeEPNS_7XMLNodeE"
  },
  {
   "name" : "_ZN8tinyxml211XMLDocument10NewCommentEPKc"
  },
  {
   "name" : "_ZN8tinyxml211XMLDocument10NewElementEPKc"
  },
  {
   "name" : "_ZN8tinyxml211XMLDocument10NewUnknownEPKc"
  },
  {
   "name" : "_ZN8tinyxml211XMLDocument13ErrorIDToNameENS_8XMLErrorE"
  },
  {
   "name" : "_ZN8tinyxml211XMLDocument14NewDeclarationEPKc"
  },
  {
   "name" : "_ZN8tinyxml211XMLDocument5ClearEv"
  },
  {
   "name" : "_ZN8tinyxml211XMLDocument5ParseEPKcm"
  },
  {
   "name" : "_ZN8tinyxml211XMLDocument5ParseEv"
  },
  {
   "name" : "_ZN8tinyxml211XMLDocument7NewTextEPKc"
  },
  {
   "name" : "_ZN8tinyxml211XMLDocument8IdentifyEPcPPNS_7XMLNodeE"
  },
  {
   "name" : "_ZN8tinyxml211XMLDocument8LoadFileEP7__sFILE"
  },
  {
   "name" : "_ZN8tinyxml211XMLDocument8LoadFileEPKc"
  },
  {
   "name" : "_ZN8tinyxml211XMLDocument8PopDepthEv"
  },
  {
   "name" : "_ZN8tinyxml211XMLDocument8SaveFileEP7__sFILEb"
  },
  {
   "name" : "_ZN8tinyxml211XMLDocument8SaveFileEPKcb"
  },
  {
   "name" : "_ZN8tinyxml211XMLDocument8SetErrorENS_8XMLErrorEiPKcz"
  },
  {
   "name" : "_ZN8tinyxml211XMLDocument9MarkInUseEPNS_7XMLNodeE"
  },
  {
   "name" : "_ZN8tinyxml211XMLDocument9PushDepthEv"
  },
  {
   "name" : "_ZN8tinyxml211XMLDocumentC1EbNS_10WhitespaceE"
  },
  {
   "name" : "_ZN8tinyxml211XMLDocumentC2EbNS_10WhitespaceE"
  },
  {
   "name" : "_ZN8tinyxml211XMLDocumentD0Ev"
  },
  {
   "name" : "_ZN8tinyxml211XMLDocumentD1Ev"
  },
  {
   "name" : "_ZN8tinyxml211XMLDocumentD2Ev"
  },
  {
   "name" : "_ZN8tinyxml212XMLAttribute12SetAttributeEPKc"
  },
  {
   "name" : "_ZN8tinyxml212XMLAttribute12SetAttributeEb"
  },
  {
   "name" : "_ZN8tinyxml212XMLAttribute12SetAttributeEd"
  },
  {
   "name" : "_ZN8tinyxml212XMLAttribute12SetAttributeEf"
  },
  {
   "name" : "_ZN8tinyxml212XMLAttribute12SetAttributeEi"
  },
  {
   "name" : "_ZN8tinyxml212XMLAttribute12SetAttributeEj"
  },
  {
   "name" : "_ZN8tinyxml212XMLAttribute12SetAttributeEl"
  },
  {
   "name" : "_ZN8tinyxml212XMLAttribute7SetNameEPKc"
  },
  {
   "name" : "_ZN8tinyxml212XMLAttribute9ParseDeepEPcbPi"
  },
  {
   "name" : "_ZN8tinyxml214XMLDeclaration9ParseDeepEPcPNS_7StrPairEPi"
  },
  {
   "name" : "_ZN8tinyxml214XMLDeclarationC1EPNS_11XMLDocumentE"
  },
  {
   "name" : "_ZN8tinyxml214XMLDeclarationC2EPNS_11XMLDocumentE"
  },
  {
   "name" : "_ZN8tinyxml214XMLDeclarationD0Ev"
  },
  {
   "name" : "_ZN8tinyxml214XMLDeclarationD1Ev"
  },
  {
   "name" : "_ZN8tinyxml214XMLDeclarationD2Ev"
  },
  {
   "name" : "_ZN8tinyxml27StrPair10TransferToEPS0_"
  },
  {
   "name" : "_ZN8tinyxml27StrPair18CollapseWhitespaceEv"
  },
  {
   "name" : "_ZN8tinyxml27StrPair5ResetEv"
  },
  {
   "name" : "_ZN8tinyxml27StrPair6GetStrEv"
  },
  {
   "name" : "_ZN8tinyxml27StrPair6SetStrEPKci"
  },
  {
   "name" : "_ZN8tinyxml27StrPair9ParseNameEPc"
  },
  {
   "name" : "_ZN8tinyxml27StrPair9ParseTextEPcPKciPi"
  },
  {
   "name" : "_ZN8tinyxml27StrPairD1Ev"
  },
  {
   "name" : "_ZN8tinyxml27StrPairD2Ev"
  },
  {
   "name" : "_ZN8tinyxml27XMLNode10DeleteNodeEPS0_"
  },
  {
   "name" : "_ZN8tinyxml27XMLNode11DeleteChildEPS0_"
  },
  {
   "name" : "_ZN8tinyxml27XMLNode14DeleteChildrenEv"
  },
  {
   "name" : "_ZN8tinyxml27XMLNode14InsertEndChildEPS0_"
  },
  {
   "name" : "_ZN8tinyxml27XMLNode16InsertAfterChildEPS0_S1_"
  },
  {
   "name" : "_ZN8tinyxml27XMLNode16InsertFirstChildEPS0_"
  },
  {
   "name" : "_ZN8tinyxml27XMLNode6UnlinkEPS0_"
  },
  {
   "name" : "_ZN8tinyxml27XMLNode8SetValueEPKcb"
  },
  {
   "name" : "_ZN8tinyxml27XMLNode9ParseDeepEPcPNS_7StrPairEPi"
  },
  {
   "name" : "_ZN8tinyxml27XMLNodeC2EPNS_11XMLDocumentE"
  },
  {
   "name" : "_ZN8tinyxml27XMLNodeD0Ev"
  },
  {
   "name" : "_ZN8tinyxml27XMLNodeD1Ev"
  },
  {
   "name" : "_ZN8tinyxml27XMLNodeD2Ev"
  },
  {
   "name" : "_ZN8tinyxml27XMLText9ParseDeepEPcPNS_7StrPairEPi"
  },
  {
   "name" : "_ZN8tinyxml27XMLUtil10ToUnsignedEPKcPj"
  },
  {
   "name" : "_ZN8tinyxml27XMLUtil15GetCharacterRefEPKcPcPi"
  },
  {
   "name" : "_ZN8tinyxml27XMLUtil18ConvertUTF32ToUTF8EmPcPi"
  },
  {
   "name" : "_ZN8tinyxml27XMLUtil20SetBoolSerializationEPKcS2_"
  },
  {
   "name" : "_ZN8tinyxml27XMLUtil5ToIntEPKcPi"
  },
  {
   "name" : "_ZN8tinyxml27XMLUtil5ToStrEbPci"
  },
  {
   "name" : "_ZN8tinyxml27XMLUtil5ToStrEdPci"
  },
  {
   "name" : "_ZN8tinyxml27XMLUtil5ToStrEfPci"
  },
  {
   "name" : "_ZN8tinyxml27XMLUtil5ToStrEiPci"
  },
  {
   "name" : "_ZN8tinyxml27XMLUtil5ToStrEjPci"
  },
  {
   "name" : "_ZN8tinyxml27XMLUtil5ToStrElPci"
  },
  {
   "name" : "_ZN8tinyxml27XMLUtil6ToBoolEPKcPb"
  },
  {
   "name" : "_ZN8tinyxml27XMLUtil7ReadBOMEPKcPb"
  },
  {
   "name" : "_ZN8tinyxml27XMLUtil7ToFloatEPKcPf"
  },
  {
   "name" : "_ZN8tinyxml27XMLUtil7ToInt64EPKcPl"
  },
  {
   "name" : "_ZN8tinyxml27XMLUtil8ToDoubleEPKcPd"
  },
  {
   "name" : "_ZNK8tinyxml210XMLComment12ShallowCloneEPNS_11XMLDocumentE"
  },
  {
   "name" : "_ZNK8tinyxml210XMLComment12ShallowEqualEPKNS_7XMLNodeE"
  },
  {
   "name" : "_ZNK8tinyxml210XMLComment6AcceptEPNS_10XMLVisitorE"
  },
  {
   "name" : "_ZNK8tinyxml210XMLElement10DoubleTextEd"
  },
  {
   "name" : "_ZNK8tinyxml210XMLElement12IntAttributeEPKci"
  },
  {
   "name" : "_ZNK8tinyxml210XMLElement12QueryIntTextEPi"
  },
  {
   "name" : "_ZNK8tinyxml210XMLElement12ShallowCloneEPNS_11XMLDocumentE"
  },
  {
   "name" : "_ZNK8tinyxml210XMLElement12ShallowEqualEPKNS_7XMLNodeE"
  },
  {
   "name" : "_ZNK8tinyxml210XMLElement12UnsignedTextEj"
  },
  {
   "name" : "_ZNK8tinyxml210XMLElement13BoolAttributeEPKcb"
  },
  {
   "name" : "_ZNK8tinyxml210XMLElement13FindAttributeEPKc"
  },
  {
   "name" : "_ZNK8tinyxml210XMLElement13QueryBoolTextEPb"
  },
  {
   "name" : "_ZNK8tinyxml210XMLElement14FloatAttributeEPKcf"
  },
  {
   "name" : "_ZNK8tinyxml210XMLElement14Int64AttributeEPKcl"
  },
  {
   "name" : "_ZNK8tinyxml210XMLElement14QueryFloatTextEPf"
  },
  {
   "name" : "_ZNK8tinyxml210XMLElement14QueryInt64TextEPl"
  },
  {
   "name" : "_ZNK8tinyxml210XMLElement15DoubleAttributeEPKcd"
  },
  {
   "name" : "_ZNK8tinyxml210XMLElement15QueryDoubleTextEPd"
  },
  {
   "name" : "_ZNK8tinyxml210XMLElement17QueryUnsignedTextEPj"
  },
  {
   "name" : "_ZNK8tinyxml210XMLElement17UnsignedAttributeEPKcj"
  },
  {
   "name" : "_ZNK8tinyxml210XMLElement6AcceptEPNS_10XMLVisitorE"
  },
  {
   "name" : "_ZNK8tinyxml210XMLElement7GetTextEv"
  },
  {
   "name" : "_ZNK8tinyxml210XMLElement7IntTextEi"
  },
  {
   "name" : "_ZNK8tinyxml210XMLElement8BoolTextEb"
  },
  {
   "name" : "_ZNK8tinyxml210XMLElement9AttributeEPKcS2_"
  },
  {
   "name" : "_ZNK8tinyxml210XMLElement9FloatTextEf"
  },
  {
   "name" : "_ZNK8tinyxml210XMLElement9Int64TextEl"
  },
  {
   "name" : "_ZNK8tinyxml210XMLUnknown12ShallowCloneEPNS_11XMLDocumentE"
  },
  {
   "name" : "_ZNK8tinyxml210XMLUnknown12ShallowEqualEPKNS_7XMLNodeE"
  },
  {
   "name" : "_ZNK8tinyxml210XMLUnknown6AcceptEPNS_10XMLVisitorE"
  },
  {
   "name" : "_ZNK8tinyxml211XMLDocument10PrintErrorEv"
  },
  {
   "name" : "_ZNK8tinyxml211XMLDocument5PrintEPNS_10XMLPrinterE"
  },
  {
   "name" : "_ZNK8tinyxml211XMLDocument6AcceptEPNS_10XMLVisitorE"
  },
  {
   "name" : "_ZNK8tinyxml211XMLDocument8DeepCopyEPS0_"
  },
  {
   "name" : "_ZNK8tinyxml211XMLDocument8ErrorStrEv"
  },
  {
   "name" : "_ZNK8tinyxml211XMLDocument9ErrorNameEv"
  },
  {
   "name" : "_ZNK8tinyxml212XMLAttribute13QueryIntValueEPi"
  },
  {
   "name" : "_ZNK8tinyxml212XMLAttribute14QueryBoolValueEPb"
  },
  {
   "name" : "_ZNK8tinyxml212XMLAttribute15QueryFloatValueEPf"
  },
  {
   "name" : "_ZNK8tinyxml212XMLAttribute15QueryInt64ValueEPl"
  },
  {
   "name" : "_ZNK8tinyxml212XMLAttribute16QueryDoubleValueEPd"
  },
  {
   "name" : "_ZNK8tinyxml212XMLAttribute18QueryUnsignedValueEPj"
  },
  {
   "name" : "_ZNK8tinyxml212XMLAttribute4NameEv"
  },
  {
   "name" : "_ZNK8tinyxml212XMLAttribute5ValueEv"
  },
  {
   "name" : "_ZNK8tinyxml214XMLDeclaration12ShallowCloneEPNS_11XMLDocumentE"
  },
  {
   "name" : "_ZNK8tinyxml214XMLDeclaration12ShallowEqualEPKNS_7XMLNodeE"
  },
  {
   "name" : "_ZNK8tinyxml214XMLDeclaration6AcceptEPNS_10XMLVisitorE"
  },
  {
   "name" : "_ZNK8tinyxml27XMLNode16LastChildElementEPKc"
  },
  {
   "name" : "_ZNK8tinyxml27XMLNode17FirstChildElementEPKc"
  },
  {
   "name" : "_ZNK8tinyxml27XMLNode17ToElementWithNameEPKc"
  },
  {
   "name" : "_ZNK8tinyxml27XMLNode18NextSiblingElementEPKc"
  },
  {
   "name" : "_ZNK8tinyxml27XMLNode19InsertChildPreambleEPS0_"
  },
  {
   "name" : "_ZNK8tinyxml27XMLNode22PreviousSiblingElementEPKc"
  },
  {
   "name" : "_ZNK8tinyxml27XMLNode5ValueEv"
  },
  {
   "name" : "_ZNK8tinyxml27XMLNode9DeepCloneEPNS_11XMLDocumentE"
  },
  {
   "name" : "_ZNK8tinyxml27XMLText12ShallowCloneEPNS_11XMLDocumentE"
  },
  {
   "name" : "_ZNK8tinyxml27XMLText12ShallowEqualEPKNS_7XMLNodeE"
  },
  {
   "name" : "_ZNK8tinyxml27XMLText6AcceptEPNS_10XMLVisitorE"
  }
 ],
 "elf_objects" :
 [
  {
   "name" : "_ZN8tinyxml211XMLDocument11_errorNamesE"
  },
  {
   "name" : "_ZN8tinyxml27XMLUtil13writeBoolTrueE"
  },
  {
   "name" : "_ZN8tinyxml27XMLUtil14writeBoolFalseE"
  },
  {
   "name" : "_ZTVN8tinyxml210XMLCommentE"
  },
  {
   "name" : "_ZTVN8tinyxml210XMLElementE"
  },
  {
   "name" : "_ZTVN8tinyxml210XMLPrinterE"
  },
  {
   "name" : "_ZTVN8tinyxml210XMLUnknownE"
  },
  {
   "name" : "_ZTVN8tinyxml211XMLDocumentE"
  },
  {
   "binding" : "weak",
   "name" : "_ZTVN8tinyxml212XMLAttributeE"
  },
  {
   "name" : "_ZTVN8tinyxml214XMLDeclarationE"
  },
  {
   "name" : "_ZTVN8tinyxml27XMLNodeE"
  },
  {
   "name" : "_ZTVN8tinyxml27XMLTextE"
  },
  {
   "binding" : "weak",
   "name" : "_ZTVN8tinyxml28MemPoolTILi104EEE"
  },
  {
   "binding" : "weak",
   "name" : "_ZTVN8tinyxml28MemPoolTILi112EEE"
  },
  {
   "binding" : "weak",
   "name" : "_ZTVN8tinyxml28MemPoolTILi120EEE"
  },
  {
   "binding" : "weak",
   "name" : "_ZTVN8tinyxml28MemPoolTILi80EEE"
  }
 ],
 "enum_types" :
 [
  {
   "alignment" : 4,
   "enum_fields" :
   [
    {
     "enum_field_value" : 0,
     "name" : "tinyxml2::PRESERVE_WHITESPACE"
    },
    {
     "enum_field_value" : 1,
     "name" : "tinyxml2::COLLAPSE_WHITESPACE"
    }
   ],
   "linker_set_key" : "tinyxml2::Whitespace",
   "name" : "tinyxml2::Whitespace",
   "referenced_type" : "type-13",
   "self_type" : "type-13",
   "size" : 4,
   "source_file" : "/external/tinyxml2/tinyxml2.h",
   "underlying_type" : "type-12",
   "unique_id" : "_ZTSN8tinyxml210WhitespaceE"
  },
  {
   "alignment" : 4,
   "enum_fields" :
   [
    {
     "enum_field_value" : 0,
     "name" : "tinyxml2::XMLElement::OPEN"
    },
    {
     "enum_field_value" : 1,
     "name" : "tinyxml2::XMLElement::CLOSED"
    },
    {
     "enum_field_value" : 2,
     "name" : "tinyxml2::XMLElement::CLOSING"
    }
   ],
   "linker_set_key" : "tinyxml2::XMLElement::ElementClosingType",
   "name" : "tinyxml2::XMLElement::ElementClosingType",
   "referenced_type" : "type-64",
   "self_type" : "type-64",
   "size" : 4,
   "source_file" : "/external/tinyxml2/tinyxml2.h",
   "underlying_type" : "type-12",
   "unique_id" : "_ZTSN8tinyxml210XMLElement18ElementClosingTypeE"
  },
  {
   "alignment" : 4,
   "enum_fields" :
   [
    {
     "enum_field_value" : 0,
     "name" : "tinyxml2::XML_SUCCESS"
    },
    {
     "enum_field_value" : 1,
     "name" : "tinyxml2::XML_NO_ATTRIBUTE"
    },
    {
     "enum_field_value" : 2,
     "name" : "tinyxml2::XML_WRONG_ATTRIBUTE_TYPE"
    },
    {
     "enum_field_value" : 3,
     "name" : "tinyxml2::XML_ERROR_FILE_NOT_FOUND"
    },
    {
     "enum_field_value" : 4,
     "name" : "tinyxml2::XML_ERROR_FILE_COULD_NOT_BE_OPENED"
    },
    {
     "enum_field_value" : 5,
     "name" : "tinyxml2::XML_ERROR_FILE_READ_ERROR"
    },
    {
     "enum_field_value" : 6,
     "name" : "tinyxml2::XML_ERROR_PARSING_ELEMENT"
    },
    {
     "enum_field_value" : 7,
     "name" : "tinyxml2::XML_ERROR_PARSING_ATTRIBUTE"
    },
    {
     "enum_field_value" : 8,
     "name" : "tinyxml2::XML_ERROR_PARSING_TEXT"
    },
    {
     "enum_field_value" : 9,
     "name" : "tinyxml2::XML_ERROR_PARSING_CDATA"
    },
    {
     "enum_field_value" : 10,
     "name" : "tinyxml2::XML_ERROR_PARSING_COMMENT"
    },
    {
     "enum_field_value" : 11,
     "name" : "tinyxml2::XML_ERROR_PARSING_DECLARATION"
    },
    {
     "enum_field_value" : 12,
     "name" : "tinyxml2::XML_ERROR_PARSING_UNKNOWN"
    },
    {
     "enum_field_value" : 13,
     "name" : "tinyxml2::XML_ERROR_EMPTY_DOCUMENT"
    },
    {
     "enum_field_value" : 14,
     "name" : "tinyxml2::XML_ERROR_MISMATCHED_ELEMENT"
    },
    {
     "enum_field_value" : 15,
     "name" : "tinyxml2::XML_ERROR_PARSING"
    },
    {
     "enum_field_value" : 16,
     "name" : "tinyxml2::XML_CAN_NOT_CONVERT_TEXT"
    },
    {
     "enum_field_value" : 17,
     "name" : "tinyxml2::XML_NO_TEXT_NODE"
    },
    {
     "enum_field_value" : 18,
     "name" : "tinyxml2::XML_ELEMENT_DEPTH_EXCEEDED"
    },
    {
     "enum_field_value" : 19,
     "name" : "tinyxml2::XML_ERROR_COUNT"
    }
   ],
   "linker_set_key" : "tinyxml2::XMLError",
   "name" : "tinyxml2::XMLError",
   "referenced_type" : "type-11",
   "self_type" : "type-11",
   "size" : 4,
   "source_file" : "/external/tinyxml2/tinyxml2.h",
   "underlying_type" : "type-12",
   "unique_id" : "_ZTSN8tinyxml28XMLErrorE"
  }
 ],
 "function_types" : [],
 "functions" :
 [
  {
   "access" : "protected",
   "function_name" : "tinyxml2::XMLComment::ParseDeep",
   "linker_set_key" : "_ZN8tinyxml210XMLComment9ParseDeepEPcPNS_7StrPairEPi",
   "parameters" :
   [
    {
     "is_this_ptr" : true,
     "referenced_type" : "type-69"
    },
    {
     "referenced_type" : "type-3"
    },
    {
     "referenced_type" : "type-141"
    },
    {
     "referenced_type" : "type-171"
    }
   ],
   "return_type" : "type-3",
   "source_file" : "/external/tinyxml2/tinyxml2.h"
  },
  {
   "access" : "protected",
   "function_name" : "tinyxml2::XMLComment::XMLComment",
   "linker_set_key" : "_ZN8tinyxml210XMLCommentC1EPNS_11XMLDocumentE",
   "parameters" :
   [
    {
     "is_this_ptr" : true,
     "referenced_type" : "type-69"
    },
    {
     "referenced_type" : "type-8"
    }
   ],
   "return_type" : "type-60",
   "source_file" : "/external/tinyxml2/tinyxml2.h"
  },
  {
   "access" : "protected",
   "function_name" : "tinyxml2::XMLComment::XMLComment",
   "linker_set_key" : "_ZN8tinyxml210XMLCommentC2EPNS_11XMLDocumentE",
   "parameters" :
   [
    {
     "is_this_ptr" : true,
     "referenced_type" : "type-69"
    },
    {
     "referenced_type" : "type-8"
    }
   ],
   "return_type" : "type-60",
   "source_file" : "/external/tinyxml2/tinyxml2.h"
  },
  {
   "access" : "protected",
   "function_name" : "tinyxml2::XMLComment::~XMLComment",
   "linker_set_key" : "_ZN8tinyxml210XMLCommentD0Ev",
   "parameters" :
   [
    {
     "is_this_ptr" : true,
     "referenced_type" : "type-69"
    }
   ],
   "return_type" : "type-60",
   "source_file" : "/external/tinyxml2/tinyxml2.h"
  },
  {
   "access" : "protected",
   "function_name" : "tinyxml2::XMLComment::~XMLComment",
   "linker_set_key" : "_ZN8tinyxml210XMLCommentD1Ev",
   "parameters" :
   [
    {
     "is_this_ptr" : true,
     "referenced_type" : "type-69"
    }
   ],
   "return_type" : "type-60",
   "source_file" : "/external/tinyxml2/tinyxml2.h"
  },
  {
   "access" : "protected",
   "function_name" : "tinyxml2::XMLComment::~XMLComment",
   "linker_set_key" : "_ZN8tinyxml210XMLCommentD2Ev",
   "parameters" :
   [
    {
     "is_this_ptr" : true,
     "referenced_type" : "type-69"
    }
   ],
   "return_type" : "type-60",
   "source_file" : "/external/tinyxml2/tinyxml2.h"
  },
  {
   "access" : "private",
   "function_name" : "tinyxml2::XMLElement::CreateAttribute",
   "linker_set_key" : "_ZN8tinyxml210XMLElement15CreateAttributeEv",
   "parameters" :
   [
    {
     "is_this_ptr" : true,
     "referenced_type" : "type-62"
    }
   ],
   "return_type" : "type-65",
   "source_file" : "/external/tinyxml2/tinyxml2.h"
  },
  {
   "function_name" : "tinyxml2::XMLElement::DeleteAttribute",
   "linker_set_key" : "_ZN8tinyxml210XMLElement15DeleteAttributeEPKc",
   "parameters" :
   [
    {
     "is_this_ptr" : true,
     "referenced_type" : "type-62"
    },
    {
     "referenced_type" : "type-90"
    }
   ],
   "return_type" : "type-60",
   "source_file" : "/external/tinyxml2/tinyxml2.h"
  },
  {
   "access" : "private",
   "function_name" : "tinyxml2::XMLElement::DeleteAttribute",
   "linker_set_key" : "_ZN8tinyxml210XMLElement15DeleteAttributeEPNS_12XMLAttributeE",
   "parameters" :
   [
    {
     "referenced_type" : "type-65"
    }
   ],
   "return_type" : "type-60",
   "source_file" : "/external/tinyxml2/tinyxml2.h"
  },
  {
   "access" : "private",
   "function_name" : "tinyxml2::XMLElement::ParseAttributes",
   "linker_set_key" : "_ZN8tinyxml210XMLElement15ParseAttributesEPcPi",
   "parameters" :
   [
    {
     "is_this_ptr" : true,
     "referenced_type" : "type-62"
    },
    {
     "referenced_type" : "type-3"
    },
    {
     "referenced_type" : "type-171"
    }
   ],
   "return_type" : "type-3",
   "source_file" : "/external/tinyxml2/tinyxml2.h"
  },
  {
   "access" : "private",
   "function_name" : "tinyxml2::XMLElement::FindOrCreateAttribute",
   "linker_set_key" : "_ZN8tinyxml210XMLElement21FindOrCreateAttributeEPKc",
   "parameters" :
   [
    {
     "is_this_ptr" : true,
     "referenced_type" : "type-62"
    },
    {
     "referenced_type" : "type-90"
    }
   ],
   "return_type" : "type-65",
   "source_file" : "/external/tinyxml2/tinyxml2.h"
  },
  {
   "function_name" : "tinyxml2::XMLElement::SetText",
   "linker_set_key" : "_ZN8tinyxml210XMLElement7SetTextEPKc",
   "parameters" :
   [
    {
     "is_this_ptr" : true,
     "referenced_type" : "type-62"
    },
    {
     "referenced_type" : "type-90"
    }
   ],
   "return_type" : "type-60",
   "source_file" : "/external/tinyxml2/tinyxml2.h"
  },
  {
   "function_name" : "tinyxml2::XMLElement::SetText",
   "linker_set_key" : "_ZN8tinyxml210XMLElement7SetTextEb",
   "parameters" :
   [
    {
     "is_this_ptr" : true,
     "referenced_type" : "type-62"
    },
    {
     "referenced_type" : "type-10"
    }
   ],
   "return_type" : "type-60",
   "source_file" : "/external/tinyxml2/tinyxml2.h"
  },
  {
   "function_name" : "tinyxml2::XMLElement::SetText",
   "linker_set_key" : "_ZN8tinyxml210XMLElement7SetTextEd",
   "parameters" :
   [
    {
     "is_this_ptr" : true,
     "referenced_type" : "type-62"
    },
    {
     "referenced_type" : "type-170"
    }
   ],
   "return_type" : "type-60",
   "source_file" : "/external/tinyxml2/tinyxml2.h"
  },
  {
   "function_name" : "tinyxml2::XMLElement::SetText",
   "linker_set_key" : "_ZN8tinyxml210XMLElement7SetTextEf",
   "parameters" :
   [
    {
     "is_this_ptr" : true,
     "referenced_type" : "type-62"
    },
    {
     "referenced_type" : "type-169"
    }
   ],
   "return_type" : "type-60",
   "source_file" : "/external/tinyxml2/tinyxml2.h"
  },
  {
   "function_name" : "tinyxml2::XMLElement::SetText",
   "linker_set_key" : "_ZN8tinyxml210XMLElement7SetTextEi",
   "parameters" :
   [
    {
     "is_this_ptr" : true,
     "referenced_type" : "type-62"
    },
    {
     "referenced_type" : "type-1"
    }
   ],
   "return_type" : "type-60",
   "source_file" : "/external/tinyxml2/tinyxml2.h"
  },
  {
   "function_name" : "tinyxml2::XMLElement::SetText",
   "linker_set_key" : "_ZN8tinyxml210XMLElement7SetTextEj",
   "parameters" :
   [
    {
     "is_this_ptr" : true,
     "referenced_type" : "type-62"
    },
    {
     "referenced_type" : "type-12"
    }
   ],
   "return_type" : "type-60",
   "source_file" : "/external/tinyxml2/tinyxml2.h"
  },
  {
   "function_name" : "tinyxml2::XMLElement::SetText",
   "linker_set_key" : "_ZN8tinyxml210XMLElement7SetTextEl",
   "parameters" :
   [
    {
     "is_this_ptr" : true,
     "referenced_type" : "type-62"
    },
    {
     "referenced_type" : "type-172"
    }
   ],
   "return_type" : "type-60",
   "source_file" : "/external/tinyxml2/tinyxml2.h"
  },
  {
   "access" : "protected",
   "function_name" : "tinyxml2::XMLElement::ParseDeep",
   "linker_set_key" : "_ZN8tinyxml210XMLElement9ParseDeepEPcPNS_7StrPairEPi",
   "parameters" :
   [
    {
     "is_this_ptr" : true,
     "referenced_type" : "type-62"
    },
    {
     "referenced_type" : "type-3"
    },
    {
     "referenced_type" : "type-141"
    },
    {
     "referenced_type" : "type-171"
    }
   ],
   "return_type" : "type-3",
   "source_file" : "/external/tinyxml2/tinyxml2.h"
  },
  {
   "access" : "private",
   "function_name" : "tinyxml2::XMLElement::XMLElement",
   "linker_set_key" : "_ZN8tinyxml210XMLElementC1EPNS_11XMLDocumentE",
   "parameters" :
   [
    {
     "is_this_ptr" : true,
     "referenced_type" : "type-62"
    },
    {
     "referenced_type" : "type-8"
    }
   ],
   "return_type" : "type-60",
   "source_file" : "/external/tinyxml2/tinyxml2.h"
  },
  {
   "access" : "private",
   "function_name" : "tinyxml2::XMLElement::XMLElement",
   "linker_set_key" : "_ZN8tinyxml210XMLElementC2EPNS_11XMLDocumentE",
   "parameters" :
   [
    {
     "is_this_ptr" : true,
     "referenced_type" : "type-62"
    },
    {
     "referenced_type" : "type-8"
    }
   ],
   "return_type" : "type-60",
   "source_file" : "/external/tinyxml2/tinyxml2.h"
  },
  {
   "access" : "private",
   "function_name" : "tinyxml2::XMLElement::~XMLElement",
   "linker_set_key" : "_ZN8tinyxml210XMLElementD0Ev",
   "parameters" :
   [
    {
     "is_this_ptr" : true,
     "referenced_type" : "type-62"
    }
   ],
   "return_type" : "type-60",
   "source_file" : "/external/tinyxml2/tinyxml2.h"
  },
  {
   "access" : "private",
   "function_name" : "tinyxml2::XMLElement::~XMLElement",
   "linker_set_key" : "_ZN8tinyxml210XMLElementD1Ev",
   "parameters" :
   [
    {
     "is_this_ptr" : true,
     "referenced_type" : "type-62"
    }
   ],
   "return_type" : "type-60",
   "source_file" : "/external/tinyxml2/tinyxml2.h"
  },
  {
   "access" : "private",
   "function_name" : "tinyxml2::XMLElement::~XMLElement",
   "linker_set_key" : "_ZN8tinyxml210XMLElementD2Ev",
   "parameters" :
   [
    {
     "is_this_ptr" : true,
     "referenced_type" : "type-62"
    }
   ],
   "return_type" : "type-60",
   "source_file" : "/external/tinyxml2/tinyxml2.h"
  },
  {
   "access" : "protected",
   "function_name" : "tinyxml2::XMLPrinter::PrintSpace",
   "linker_set_key" : "_ZN8tinyxml210XMLPrinter10PrintSpaceEi",
   "parameters" :
   [
    {
     "is_this_ptr" : true,
     "referenced_type" : "type-97"
    },
    {
     "referenced_type" : "type-1"
    }
   ],
   "return_type" : "type-60",
   "source_file" : "/external/tinyxml2/tinyxml2.h"
  },
  {
   "function_name" : "tinyxml2::XMLPrinter::PushHeader",
   "linker_set_key" : "_ZN8tinyxml210XMLPrinter10PushHeaderEbb",
   "parameters" :
   [
    {
     "is_this_ptr" : true,
     "referenced_type" : "type-97"
    },
    {
     "referenced_type" : "type-10"
    },
    {
     "referenced_type" : "type-10"
    }
   ],
   "return_type" : "type-60",
   "source_file" : "/external/tinyxml2/tinyxml2.h"
  },
  {
   "function_name" : "tinyxml2::XMLPrinter::VisitEnter",
   "linker_set_key" : "_ZN8tinyxml210XMLPrinter10VisitEnterERKNS_10XMLElementEPKNS_12XMLAttributeE",
   "parameters" :
   [
    {
     "is_this_ptr" : true,
     "referenced_type" : "type-97"
    },
    {
     "referenced_type" : "type-156"
    },
    {
     "referenced_type" : "type-158"
    }
   ],
   "return_type" : "type-10",
   "source_file" : "/external/tinyxml2/tinyxml2.h"
  },
  {
   "function_name" : "tinyxml2::XMLPrinter::VisitEnter",
   "linker_set_key" : "_ZN8tinyxml210XMLPrinter10VisitEnterERKNS_11XMLDocumentE",
   "parameters" :
   [
    {
     "is_this_ptr" : true,
     "referenced_type" : "type-97"
    },
    {
     "referenced_type" : "type-155"
    }
   ],
   "return_type" : "type-10",
   "source_file" : "/external/tinyxml2/tinyxml2.h"
  },
  {
   "function_name" : "tinyxml2::XMLPrinter::OpenElement",
   "linker_set_key" : "_ZN8tinyxml210XMLPrinter11OpenElementEPKcb",
   "parameters" :
   [
    {
     "is_this_ptr" : true,
     "referenced_type" : "type-97"
    },
    {
     "referenced_type" : "type-90"
    },
    {
     "default_arg" : true,
     "referenced_type" : "type-10"
    }
   ],
   "return_type" : "type-60",
   "source_file" : "/external/tinyxml2/tinyxml2.h"
  },
  {
   "access" : "private",
   "function_name" : "tinyxml2::XMLPrinter::PrintString",
   "linker_set_key" : "_ZN8tinyxml210XMLPrinter11PrintStringEPKcb",
   "parameters" :
   [
    {
     "is_this_ptr" : true,
     "referenced_type" : "type-97"
    },
    {
     "referenced_type" : "type-90"
    },
    {
     "referenced_type" : "type-10"
    }
   ],
   "return_type" : "type-60",
   "source_file" : "/external/tinyxml2/tinyxml2.h"
  },
  {
   "function_name" : "tinyxml2::XMLPrinter::PushComment",
   "linker_set_key" : "_ZN8tinyxml210XMLPrinter11PushCommentEPKc",
   "parameters" :
   [
    {
     "is_this_ptr" : true,
     "referenced_type" : "type-97"
    },
    {
     "referenced_type" : "type-90"
    }
   ],
   "return_type" : "type-60",
   "source_file" : "/external/tinyxml2/tinyxml2.h"
  },
  {
   "function_name" : "tinyxml2::XMLPrinter::PushUnknown",
   "linker_set_key" : "_ZN8tinyxml210XMLPrinter11PushUnknownEPKc",
   "parameters" :
   [
    {
     "is_this_ptr" : true,
     "referenced_type" : "type-97"
    },
    {
     "referenced_type" : "type-90"
    }
   ],
   "return_type" : "type-60",
   "source_file" : "/external/tinyxml2/tinyxml2.h"
  },
  {
   "function_name" : "tinyxml2::XMLPrinter::CloseElement",
   "linker_set_key" : "_ZN8tinyxml210XMLPrinter12CloseElementEb",
   "parameters" :
   [
    {
     "is_this_ptr" : true,
     "referenced_type" : "type-97"
    },
    {
     "default_arg" : true,
     "referenced_type" : "type-10"
    }
   ],
   "return_type" : "type-60",
   "source_file" : "/external/tinyxml2/tinyxml2.h"
  },
  {
   "function_name" : "tinyxml2::XMLPrinter::PushAttribute",
   "linker_set_key" : "_ZN8tinyxml210XMLPrinter13PushAttributeEPKcS2_",
   "parameters" :
   [
    {
     "is_this_ptr" : true,
     "referenced_type" : "type-97"
    },
    {
     "referenced_type" : "type-90"
    },
    {
     "referenced_type" : "type-90"
    }
   ],
   "return_type" : "type-60",
   "source_file" : "/external/tinyxml2/tinyxml2.h"
  },
  {
   "function_name" : "tinyxml2::XMLPrinter::PushAttribute",
   "linker_set_key" : "_ZN8tinyxml210XMLPrinter13PushAttributeEPKcb",
   "parameters" :
   [
    {
     "is_this_ptr" : true,
     "referenced_type" : "type-97"
    },
    {
     "referenced_type" : "type-90"
    },
    {
     "referenced_type" : "type-10"
    }
   ],
   "return_type" : "type-60",
   "source_file" : "/external/tinyxml2/tinyxml2.h"
  },
  {
   "function_name" : "tinyxml2::XMLPrinter::PushAttribute",
   "linker_set_key" : "_ZN8tinyxml210XMLPrinter13PushAttributeEPKcd",
   "parameters" :
   [
    {
     "is_this_ptr" : true,
     "referenced_type" : "type-97"
    },
    {
     "referenced_type" : "type-90"
    },
    {
     "referenced_type" : "type-170"
    }
   ],
   "return_type" : "type-60",
   "source_file" : "/external/tinyxml2/tinyxml2.h"
  },
  {
   "function_name" : "tinyxml2::XMLPrinter::PushAttribute",
   "linker_set_key" : "_ZN8tinyxml210XMLPrinter13PushAttributeEPKci",
   "parameters" :
   [
    {
     "is_this_ptr" : true,
     "referenced_type" : "type-97"
    },
    {
     "referenced_type" : "type-90"
    },
    {
     "referenced_type" : "type-1"
    }
   ],
   "return_type" : "type-60",
   "source_file" : "/external/tinyxml2/tinyxml2.h"
  },
  {
   "function_name" : "tinyxml2::XMLPrinter::PushAttribute",
   "linker_set_key" : "_ZN8tinyxml210XMLPrinter13PushAttributeEPKcj",
   "parameters" :
   [
    {
     "is_this_ptr" : true,
     "referenced_type" : "type-97"
    },
    {
     "referenced_type" : "type-90"
    },
    {
     "referenced_type" : "type-12"
    }
   ],
   "return_type" : "type-60",
   "source_file" : "/external/tinyxml2/tinyxml2.h"
  },
  {
   "function_name" : "tinyxml2::XMLPrinter::PushAttribute",
   "linker_set_key" : "_ZN8tinyxml210XMLPrinter13PushAttributeEPKcl",
   "parameters" :
   [
    {
     "is_this_ptr" : true,
     "referenced_type" : "type-97"
    },
    {
     "referenced_type" : "type-90"
    },
    {
     "referenced_type" : "type-172"
    }
   ],
   "return_type" : "type-60",
   "source_file" : "/external/tinyxml2/tinyxml2.h"
  },
  {
   "function_name" : "tinyxml2::XMLPrinter::PushDeclaration",
   "linker_set_key" : "_ZN8tinyxml210XMLPrinter15PushDeclarationEPKc",
   "parameters" :
   [
    {
     "is_this_ptr" : true,
     "referenced_type" : "type-97"
    },
    {
     "referenced_type" : "type-90"
    }
   ],
   "return_type" : "type-60",
   "source_file" : "/external/tinyxml2/tinyxml2.h"
  },
  {
   "access" : "protected",
   "function_name" : "tinyxml2::XMLPrinter::SealElementIfJustOpened",
   "linker_set_key" : "_ZN8tinyxml210XMLPrinter23SealElementIfJustOpenedEv",
   "parameters" :
   [
    {
     "is_this_ptr" : true,
     "referenced_type" : "type-97"
    }
   ],
   "return_type" : "type-60",
   "source_file" : "/external/tinyxml2/tinyxml2.h"
  },
  {
   "access" : "protected",
   "function_name" : "tinyxml2::XMLPrinter::Putc",
   "linker_set_key" : "_ZN8tinyxml210XMLPrinter4PutcEc",
   "parameters" :
   [
    {
     "is_this_ptr" : true,
     "referenced_type" : "type-97"
    },
    {
     "referenced_type" : "type-4"
    }
   ],
   "return_type" : "type-60",
   "source_file" : "/external/tinyxml2/tinyxml2.h"
  },
  {
   "access" : "protected",
   "function_name" : "tinyxml2::XMLPrinter::Print",
   "linker_set_key" : "_ZN8tinyxml210XMLPrinter5PrintEPKcz",
   "parameters" :
   [
    {
     "is_this_ptr" : true,
     "referenced_type" : "type-97"
    },
    {
     "referenced_type" : "type-90"
    }
   ],
   "return_type" : "type-60",
   "source_file" : "/external/tinyxml2/tinyxml2.h"
  },
  {
   "function_name" : "tinyxml2::XMLPrinter::Visit",
   "linker_set_key" : "_ZN8tinyxml210XMLPrinter5VisitERKNS_10XMLCommentE",
   "parameters" :
   [
    {
     "is_this_ptr" : true,
     "referenced_type" : "type-97"
    },
    {
     "referenced_type" : "type-162"
    }
   ],
   "return_type" : "type-10",
   "source_file" : "/external/tinyxml2/tinyxml2.h"
  },
  {
   "function_name" : "tinyxml2::XMLPrinter::Visit",
   "linker_set_key" : "_ZN8tinyxml210XMLPrinter5VisitERKNS_10XMLUnknownE",
   "parameters" :
   [
    {
     "is_this_ptr" : true,
     "referenced_type" : "type-97"
    },
    {
     "referenced_type" : "type-164"
    }
   ],
   "return_type" : "type-10",
   "source_file" : "/external/tinyxml2/tinyxml2.h"
  },
  {
   "function_name" : "tinyxml2::XMLPrinter::Visit",
   "linker_set_key" : "_ZN8tinyxml210XMLPrinter5VisitERKNS_14XMLDeclarationE",
   "parameters" :
   [
    {
     "is_this_ptr" : true,
     "referenced_type" : "type-97"
    },
    {
     "referenced_type" : "type-160"
    }
   ],
   "return_type" : "type-10",
   "source_file" : "/external/tinyxml2/tinyxml2.h"
  },
  {
   "function_name" : "tinyxml2::XMLPrinter::Visit",
   "linker_set_key" : "_ZN8tinyxml210XMLPrinter5VisitERKNS_7XMLTextE",
   "parameters" :
   [
    {
     "is_this_ptr" : true,
     "referenced_type" : "type-97"
    },
    {
     "referenced_type" : "type-161"
    }
   ],
   "return_type" : "type-10",
   "source_file" : "/external/tinyxml2/tinyxml2.h"
  },
  {
   "access" : "protected",
   "function_name" : "tinyxml2::XMLPrinter::Write",
   "linker_set_key" : "_ZN8tinyxml210XMLPrinter5WriteEPKcm",
   "parameters" :
   [
    {
     "is_this_ptr" : true,
     "referenced_type" : "type-97"
    },
    {
     "referenced_type" : "type-90"
    },
    {
     "referenced_type" : "type-168"
    }
   ],
   "return_type" : "type-60",
   "source_file" : "/external/tinyxml2/tinyxml2.h"
  },
  {
   "function_name" : "tinyxml2::XMLPrinter::PushText",
   "linker_set_key" : "_ZN8tinyxml210XMLPrinter8PushTextEPKcb",
   "parameters" :
   [
    {
     "is_this_ptr" : true,
     "referenced_type" : "type-97"
    },
    {
     "referenced_type" : "type-90"
    },
    {
     "default_arg" : true,
     "referenced_type" : "type-10"
    }
   ],
   "return_type" : "type-60",
   "source_file" : "/external/tinyxml2/tinyxml2.h"
  },
  {
   "function_name" : "tinyxml2::XMLPrinter::PushText",
   "linker_set_key" : "_ZN8tinyxml210XMLPrinter8PushTextEb",
   "parameters" :
   [
    {
     "is_this_ptr" : true,
     "referenced_type" : "type-97"
    },
    {
     "referenced_type" : "type-10"
    }
   ],
   "return_type" : "type-60",
   "source_file" : "/external/tinyxml2/tinyxml2.h"
  },
  {
   "function_name" : "tinyxml2::XMLPrinter::PushText",
   "linker_set_key" : "_ZN8tinyxml210XMLPrinter8PushTextEd",
   "parameters" :
   [
    {
     "is_this_ptr" : true,
     "referenced_type" : "type-97"
    },
    {
     "referenced_type" : "type-170"
    }
   ],
   "return_type" : "type-60",
   "source_file" : "/external/tinyxml2/tinyxml2.h"
  },
  {
   "function_name" : "tinyxml2::XMLPrinter::PushText",
   "linker_set_key" : "_ZN8tinyxml210XMLPrinter8PushTextEf",
   "parameters" :
   [
    {
     "is_this_ptr" : true,
     "referenced_type" : "type-97"
    },
    {
     "referenced_type" : "type-169"
    }
   ],
   "return_type" : "type-60",
   "source_file" : "/external/tinyxml2/tinyxml2.h"
  },
  {
   "function_name" : "tinyxml2::XMLPrinter::PushText",
   "linker_set_key" : "_ZN8tinyxml210XMLPrinter8PushTextEi",
   "parameters" :
   [
    {
     "is_this_ptr" : true,
     "referenced_type" : "type-97"
    },
    {
     "referenced_type" : "type-1"
    }
   ],
   "return_type" : "type-60",
   "source_file" : "/external/tinyxml2/tinyxml2.h"
  },
  {
   "function_name" : "tinyxml2::XMLPrinter::PushText",
   "linker_set_key" : "_ZN8tinyxml210XMLPrinter8PushTextEj",
   "parameters" :
   [
    {
     "is_this_ptr" : true,
     "referenced_type" : "type-97"
    },
    {
     "referenced_type" : "type-12"
    }
   ],
   "return_type" : "type-60",
   "source_file" : "/external/tinyxml2/tinyxml2.h"
  },
  {
   "function_name" : "tinyxml2::XMLPrinter::PushText",
   "linker_set_key" : "_ZN8tinyxml210XMLPrinter8PushTextEl",
   "parameters" :
   [
    {
     "is_this_ptr" : true,
     "referenced_type" : "type-97"
    },
    {
     "referenced_type" : "type-172"
    }
   ],
   "return_type" : "type-60",
   "source_file" : "/external/tinyxml2/tinyxml2.h"
  },
  {
   "function_name" : "tinyxml2::XMLPrinter::VisitExit",
   "linker_set_key" : "_ZN8tinyxml210XMLPrinter9VisitExitERKNS_10XMLElementE",
   "parameters" :
   [
    {
     "is_this_ptr" : true,
     "referenced_type" : "type-97"
    },
    {
     "referenced_type" : "type-156"
    }
   ],
   "return_type" : "type-10",
   "source_file" : "/external/tinyxml2/tinyxml2.h"
  },
  {
   "function_name" : "tinyxml2::XMLPrinter::XMLPrinter",
   "linker_set_key" : "_ZN8tinyxml210XMLPrinterC1EP7__sFILEbi",
   "parameters" :
   [
    {
     "is_this_ptr" : true,
     "referenced_type" : "type-97"
    },
    {
     "default_arg" : true,
     "referenced_type" : "type-85"
    },
    {
     "default_arg" : true,
     "referenced_type" : "type-10"
    },
    {
     "default_arg" : true,
     "referenced_type" : "type-1"
    }
   ],
   "return_type" : "type-60",
   "source_file" : "/external/tinyxml2/tinyxml2.h"
  },
  {
   "function_name" : "tinyxml2::XMLPrinter::XMLPrinter",
   "linker_set_key" : "_ZN8tinyxml210XMLPrinterC2EP7__sFILEbi",
   "parameters" :
   [
    {
     "is_this_ptr" : true,
     "referenced_type" : "type-97"
    },
    {
     "default_arg" : true,
     "referenced_type" : "type-85"
    },
    {
     "default_arg" : true,
     "referenced_type" : "type-10"
    },
    {
     "default_arg" : true,
     "referenced_type" : "type-1"
    }
   ],
   "return_type" : "type-60",
   "source_file" : "/external/tinyxml2/tinyxml2.h"
  },
  {
   "access" : "protected",
   "function_name" : "tinyxml2::XMLUnknown::ParseDeep",
   "linker_set_key" : "_ZN8tinyxml210XMLUnknown9ParseDeepEPcPNS_7StrPairEPi",
   "parameters" :
   [
    {
     "is_this_ptr" : true,
     "referenced_type" : "type-73"
    },
    {
     "referenced_type" : "type-3"
    },
    {
     "referenced_type" : "type-141"
    },
    {
     "referenced_type" : "type-171"
    }
   ],
   "return_type" : "type-3",
   "source_file" : "/external/tinyxml2/tinyxml2.h"
  },
  {
   "access" : "protected",
   "function_name" : "tinyxml2::XMLUnknown::XMLUnknown",
   "linker_set_key" : "_ZN8tinyxml210XMLUnknownC1EPNS_11XMLDocumentE",
   "parameters" :
   [
    {
     "is_this_ptr" : true,
     "referenced_type" : "type-73"
    },
    {
     "referenced_type" : "type-8"
    }
   ],
   "return_type" : "type-60",
   "source_file" : "/external/tinyxml2/tinyxml2.h"
  },
  {
   "access" : "protected",
   "function_name" : "tinyxml2::XMLUnknown::XMLUnknown",
   "linker_set_key" : "_ZN8tinyxml210XMLUnknownC2EPNS_11XMLDocumentE",
   "parameters" :
   [
    {
     "is_this_ptr" : true,
     "referenced_type" : "type-73"
    },
    {
     "referenced_type" : "type-8"
    }
   ],
   "return_type" : "type-60",
   "source_file" : "/external/tinyxml2/tinyxml2.h"
  },
  {
   "access" : "protected",
   "function_name" : "tinyxml2::XMLUnknown::~XMLUnknown",
   "linker_set_key" : "_ZN8tinyxml210XMLUnknownD0Ev",
   "parameters" :
   [
    {
     "is_this_ptr" : true,
     "referenced_type" : "type-73"
    }
   ],
   "return_type" : "type-60",
   "source_file" : "/external/tinyxml2/tinyxml2.h"
  },
  {
   "access" : "protected",
   "function_name" : "tinyxml2::XMLUnknown::~XMLUnknown",
   "linker_set_key" : "_ZN8tinyxml210XMLUnknownD1Ev",
   "parameters" :
   [
    {
     "is_this_ptr" : true,
     "referenced_type" : "type-73"
    }
   ],
   "return_type" : "type-60",
   "source_file" : "/external/tinyxml2/tinyxml2.h"
  },
  {
   "access" : "protected",
   "function_name" : "tinyxml2::XMLUnknown::~XMLUnknown",
   "linker_set_key" : "_ZN8tinyxml210XMLUnknownD2Ev",
   "parameters" :
   [
    {
     "is_this_ptr" : true,
     "referenced_type" : "type-73"
    }
   ],
   "return_type" : "type-60",
   "source_file" : "/external/tinyxml2/tinyxml2.h"
  },
  {
   "function_name" : "tinyxml2::XMLDocument::DeleteNode",
   "linker_set_key" : "_ZN8tinyxml211XMLDocument10DeleteNodeEPNS_7XMLNodeE",
   "parameters" :
   [
    {
     "is_this_ptr" : true,
     "referenced_type" : "type-8"
    },
    {
     "referenced_type" : "type-16"
    }
   ],
   "return_type" : "type-60",
   "source_file" : "/external/tinyxml2/tinyxml2.h"
  },
  {
   "function_name" : "tinyxml2::XMLDocument::NewComment",
   "linker_set_key" : "_ZN8tinyxml211XMLDocument10NewCommentEPKc",
   "parameters" :
   [
    {
     "is_this_ptr" : true,
     "referenced_type" : "type-8"
    },
    {
     "referenced_type" : "type-90"
    }
   ],
   "return_type" : "type-69",
   "source_file" : "/external/tinyxml2/tinyxml2.h"
  },
  {
   "function_name" : "tinyxml2::XMLDocument::NewElement",
   "linker_set_key" : "_ZN8tinyxml211XMLDocument10NewElementEPKc",
   "parameters" :
   [
    {
     "is_this_ptr" : true,
     "referenced_type" : "type-8"
    },
    {
     "referenced_type" : "type-90"
    }
   ],
   "return_type" : "type-62",
   "source_file" : "/external/tinyxml2/tinyxml2.h"
  },
  {
   "function_name" : "tinyxml2::XMLDocument::NewUnknown",
   "linker_set_key" : "_ZN8tinyxml211XMLDocument10NewUnknownEPKc",
   "parameters" :
   [
    {
     "is_this_ptr" : true,
     "referenced_type" : "type-8"
    },
    {
     "referenced_type" : "type-90"
    }
   ],
   "return_type" : "type-73",
   "source_file" : "/external/tinyxml2/tinyxml2.h"
  },
  {
   "function_name" : "tinyxml2::XMLDocument::ErrorIDToName",
   "linker_set_key" : "_ZN8tinyxml211XMLDocument13ErrorIDToNameENS_8XMLErrorE",
   "parameters" :
   [
    {
     "referenced_type" : "type-11"
    }
   ],
   "return_type" : "type-90",
   "source_file" : "/external/tinyxml2/tinyxml2.h"
  },
  {
   "function_name" : "tinyxml2::XMLDocument::NewDeclaration",
   "linker_set_key" : "_ZN8tinyxml211XMLDocument14NewDeclarationEPKc",
   "parameters" :
   [
    {
     "is_this_ptr" : true,
     "referenced_type" : "type-8"
    },
    {
     "default_arg" : true,
     "referenced_type" : "type-90"
    }
   ],
   "return_type" : "type-71",
   "source_file" : "/external/tinyxml2/tinyxml2.h"
  },
  {
   "function_name" : "tinyxml2::XMLDocument::Clear",
   "linker_set_key" : "_ZN8tinyxml211XMLDocument5ClearEv",
   "parameters" :
   [
    {
     "is_this_ptr" : true,
     "referenced_type" : "type-8"
    }
   ],
   "return_type" : "type-60",
   "source_file" : "/external/tinyxml2/tinyxml2.h"
  },
  {
   "function_name" : "tinyxml2::XMLDocument::Parse",
   "linker_set_key" : "_ZN8tinyxml211XMLDocument5ParseEPKcm",
   "parameters" :
   [
    {
     "is_this_ptr" : true,
     "referenced_type" : "type-8"
    },
    {
     "referenced_type" : "type-90"
    },
    {
     "default_arg" : true,
     "referenced_type" : "type-168"
    }
   ],
   "return_type" : "type-11",
   "source_file" : "/external/tinyxml2/tinyxml2.h"
  },
  {
   "access" : "private",
   "function_name" : "tinyxml2::XMLDocument::Parse",
   "linker_set_key" : "_ZN8tinyxml211XMLDocument5ParseEv",
   "parameters" :
   [
    {
     "is_this_ptr" : true,
     "referenced_type" : "type-8"
    }
   ],
   "return_type" : "type-60",
   "source_file" : "/external/tinyxml2/tinyxml2.h"
  },
  {
   "function_name" : "tinyxml2::XMLDocument::NewText",
   "linker_set_key" : "_ZN8tinyxml211XMLDocument7NewTextEPKc",
   "parameters" :
   [
    {
     "is_this_ptr" : true,
     "referenced_type" : "type-8"
    },
    {
     "referenced_type" : "type-90"
    }
   ],
   "return_type" : "type-67",
   "source_file" : "/external/tinyxml2/tinyxml2.h"
  },
  {
   "function_name" : "tinyxml2::XMLDocument::Identify",
   "linker_set_key" : "_ZN8tinyxml211XMLDocument8IdentifyEPcPPNS_7XMLNodeE",
   "parameters" :
   [
    {
     "is_this_ptr" : true,
     "referenced_type" : "type-8"
    },
    {
     "referenced_type" : "type-3"
    },
    {
     "referenced_type" : "type-15"
    }
   ],
   "return_type" : "type-3",
   "source_file" : "/external/tinyxml2/tinyxml2.h"
  },
  {
   "function_name" : "tinyxml2::XMLDocument::LoadFile",
   "linker_set_key" : "_ZN8tinyxml211XMLDocument8LoadFileEP7__sFILE",
   "parameters" :
   [
    {
     "is_this_ptr" : true,
     "referenced_type" : "type-8"
    },
    {
     "referenced_type" : "type-85"
    }
   ],
   "return_type" : "type-11",
   "source_file" : "/external/tinyxml2/tinyxml2.h"
  },
  {
   "function_name" : "tinyxml2::XMLDocument::LoadFile",
   "linker_set_key" : "_ZN8tinyxml211XMLDocument8LoadFileEPKc",
   "parameters" :
   [
    {
     "is_this_ptr" : true,
     "referenced_type" : "type-8"
    },
    {
     "referenced_type" : "type-90"
    }
   ],
   "return_type" : "type-11",
   "source_file" : "/external/tinyxml2/tinyxml2.h"
  },
  {
   "access" : "private",
   "function_name" : "tinyxml2::XMLDocument::PopDepth",
   "linker_set_key" : "_ZN8tinyxml211XMLDocument8PopDepthEv",
   "parameters" :
   [
    {
     "is_this_ptr" : true,
     "referenced_type" : "type-8"
    }
   ],
   "return_type" : "type-60",
   "source_file" : "/external/tinyxml2/tinyxml2.h"
  },
  {
   "function_name" : "tinyxml2::XMLDocument::SaveFile",
   "linker_set_key" : "_ZN8tinyxml211XMLDocument8SaveFileEP7__sFILEb",
   "parameters" :
   [
    {
     "is_this_ptr" : true,
     "referenced_type" : "type-8"
    },
    {
     "referenced_type" : "type-85"
    },
    {
     "default_arg" : true,
     "referenced_type" : "type-10"
    }
   ],
   "return_type" : "type-11",
   "source_file" : "/external/tinyxml2/tinyxml2.h"
  },
  {
   "function_name" : "tinyxml2::XMLDocument::SaveFile",
   "linker_set_key" : "_ZN8tinyxml211XMLDocument8SaveFileEPKcb",
   "parameters" :
   [
    {
     "is_this_ptr" : true,
     "referenced_type" : "type-8"
    },
    {
     "referenced_type" : "type-90"
    },
    {
     "default_arg" : true,
     "referenced_type" : "type-10"
    }
   ],
   "return_type" : "type-11",
   "source_file" : "/external/tinyxml2/tinyxml2.h"
  },
  {
   "access" : "private",
   "function_name" : "tinyxml2::XMLDocument::SetError",
   "linker_set_key" : "_ZN8tinyxml211XMLDocument8SetErrorENS_8XMLErrorEiPKcz",
   "parameters" :
   [
    {
     "is_this_ptr" : true,
     "referenced_type" : "type-8"
    },
    {
     "referenced_type" : "type-11"
    },
    {
     "referenced_type" : "type-1"
    },
    {
     "referenced_type" : "type-90"
    }
   ],
   "return_type" : "type-60",
   "source_file" : "/external/tinyxml2/tinyxml2.h"
  },
  {
   "function_name" : "tinyxml2::XMLDocument::MarkInUse",
   "linker_set_key" : "_ZN8tinyxml211XMLDocument9MarkInUseEPNS_7XMLNodeE",
   "parameters" :
   [
    {
     "is_this_ptr" : true,
     "referenced_type" : "type-8"
    },
    {
     "referenced_type" : "type-16"
    }
   ],
   "return_type" : "type-60",
   "source_file" : "/external/tinyxml2/tinyxml2.h"
  },
  {
   "access" : "private",
   "function_name" : "tinyxml2::XMLDocument::PushDepth",
   "linker_set_key" : "_ZN8tinyxml211XMLDocument9PushDepthEv",
   "parameters" :
   [
    {
     "is_this_ptr" : true,
     "referenced_type" : "type-8"
    }
   ],
   "return_type" : "type-60",
   "source_file" : "/external/tinyxml2/tinyxml2.h"
  },
  {
   "function_name" : "tinyxml2::XMLDocument::XMLDocument",
   "linker_set_key" : "_ZN8tinyxml211XMLDocumentC1EbNS_10WhitespaceE",
   "parameters" :
   [
    {
     "is_this_ptr" : true,
     "referenced_type" : "type-8"
    },
    {
     "default_arg" : true,
     "referenced_type" : "type-10"
    },
    {
     "default_arg" : true,
     "referenced_type" : "type-13"
    }
   ],
   "return_type" : "type-60",
   "source_file" : "/external/tinyxml2/tinyxml2.h"
  },
  {
   "function_name" : "tinyxml2::XMLDocument::XMLDocument",
   "linker_set_key" : "_ZN8tinyxml211XMLDocumentC2EbNS_10WhitespaceE",
   "parameters" :
   [
    {
     "is_this_ptr" : true,
     "referenced_type" : "type-8"
    },
    {
     "default_arg" : true,
     "referenced_type" : "type-10"
    },
    {
     "default_arg" : true,
     "referenced_type" : "type-13"
    }
   ],
   "return_type" : "type-60",
   "source_file" : "/external/tinyxml2/tinyxml2.h"
  },
  {
   "function_name" : "tinyxml2::XMLDocument::~XMLDocument",
   "linker_set_key" : "_ZN8tinyxml211XMLDocumentD0Ev",
   "parameters" :
   [
    {
     "is_this_ptr" : true,
     "referenced_type" : "type-8"
    }
   ],
   "return_type" : "type-60",
   "source_file" : "/external/tinyxml2/tinyxml2.h"
  },
  {
   "function_name" : "tinyxml2::XMLDocument::~XMLDocument",
   "linker_set_key" : "_ZN8tinyxml211XMLDocumentD1Ev",
   "parameters" :
   [
    {
     "is_this_ptr" : true,
     "referenced_type" : "type-8"
    }
   ],
   "return_type" : "type-60",
   "source_file" : "/external/tinyxml2/tinyxml2.h"
  },
  {
   "function_name" : "tinyxml2::XMLDocument::~XMLDocument",
   "linker_set_key" : "_ZN8tinyxml211XMLDocumentD2Ev",
   "parameters" :
   [
    {
     "is_this_ptr" : true,
     "referenced_type" : "type-8"
    }
   ],
   "return_type" : "type-60",
   "source_file" : "/external/tinyxml2/tinyxml2.h"
  },
  {
   "function_name" : "tinyxml2::XMLAttribute::SetAttribute",
   "linker_set_key" : "_ZN8tinyxml212XMLAttribute12SetAttributeEPKc",
   "parameters" :
   [
    {
     "is_this_ptr" : true,
     "referenced_type" : "type-65"
    },
    {
     "referenced_type" : "type-90"
    }
   ],
   "return_type" : "type-60",
   "source_file" : "/external/tinyxml2/tinyxml2.h"
  },
  {
   "function_name" : "tinyxml2::XMLAttribute::SetAttribute",
   "linker_set_key" : "_ZN8tinyxml212XMLAttribute12SetAttributeEb",
   "parameters" :
   [
    {
     "is_this_ptr" : true,
     "referenced_type" : "type-65"
    },
    {
     "referenced_type" : "type-10"
    }
   ],
   "return_type" : "type-60",
   "source_file" : "/external/tinyxml2/tinyxml2.h"
  },
  {
   "function_name" : "tinyxml2::XMLAttribute::SetAttribute",
   "linker_set_key" : "_ZN8tinyxml212XMLAttribute12SetAttributeEd",
   "parameters" :
   [
    {
     "is_this_ptr" : true,
     "referenced_type" : "type-65"
    },
    {
     "referenced_type" : "type-170"
    }
   ],
   "return_type" : "type-60",
   "source_file" : "/external/tinyxml2/tinyxml2.h"
  },
  {
   "function_name" : "tinyxml2::XMLAttribute::SetAttribute",
   "linker_set_key" : "_ZN8tinyxml212XMLAttribute12SetAttributeEf",
   "parameters" :
   [
    {
     "is_this_ptr" : true,
     "referenced_type" : "type-65"
    },
    {
     "referenced_type" : "type-169"
    }
   ],
   "return_type" : "type-60",
   "source_file" : "/external/tinyxml2/tinyxml2.h"
  },
  {
   "function_name" : "tinyxml2::XMLAttribute::SetAttribute",
   "linker_set_key" : "_ZN8tinyxml212XMLAttribute12SetAttributeEi",
   "parameters" :
   [
    {
     "is_this_ptr" : true,
     "referenced_type" : "type-65"
    },
    {
     "referenced_type" : "type-1"
    }
   ],
   "return_type" : "type-60",
   "source_file" : "/external/tinyxml2/tinyxml2.h"
  },
  {
   "function_name" : "tinyxml2::XMLAttribute::SetAttribute",
   "linker_set_key" : "_ZN8tinyxml212XMLAttribute12SetAttributeEj",
   "parameters" :
   [
    {
     "is_this_ptr" : true,
     "referenced_type" : "type-65"
    },
    {
     "referenced_type" : "type-12"
    }
   ],
   "return_type" : "type-60",
   "source_file" : "/external/tinyxml2/tinyxml2.h"
  },
  {
   "function_name" : "tinyxml2::XMLAttribute::SetAttribute",
   "linker_set_key" : "_ZN8tinyxml212XMLAttribute12SetAttributeEl",
   "parameters" :
   [
    {
     "is_this_ptr" : true,
     "referenced_type" : "type-65"
    },
    {
     "referenced_type" : "type-172"
    }
   ],
   "return_type" : "type-60",
   "source_file" : "/external/tinyxml2/tinyxml2.h"
  },
  {
   "access" : "private",
   "function_name" : "tinyxml2::XMLAttribute::SetName",
   "linker_set_key" : "_ZN8tinyxml212XMLAttribute7SetNameEPKc",
   "parameters" :
   [
    {
     "is_this_ptr" : true,
     "referenced_type" : "type-65"
    },
    {
     "referenced_type" : "type-90"
    }
   ],
   "return_type" : "type-60",
   "source_file" : "/external/tinyxml2/tinyxml2.h"
  },
  {
   "access" : "private",
   "function_name" : "tinyxml2::XMLAttribute::ParseDeep",
   "linker_set_key" : "_ZN8tinyxml212XMLAttribute9ParseDeepEPcbPi",
   "parameters" :
   [
    {
     "is_this_ptr" : true,
     "referenced_type" : "type-65"
    },
    {
     "referenced_type" : "type-3"
    },
    {
     "referenced_type" : "type-10"
    },
    {
     "referenced_type" : "type-171"
    }
   ],
   "return_type" : "type-3",
   "source_file" : "/external/tinyxml2/tinyxml2.h"
  },
  {
   "access" : "protected",
   "function_name" : "tinyxml2::XMLDeclaration::ParseDeep",
   "linker_set_key" : "_ZN8tinyxml214XMLDeclaration9ParseDeepEPcPNS_7StrPairEPi",
   "parameters" :
   [
    {
     "is_this_ptr" : true,
     "referenced_type" : "type-71"
    },
    {
     "referenced_type" : "type-3"
    },
    {
     "referenced_type" : "type-141"
    },
    {
     "referenced_type" : "type-171"
    }
   ],
   "return_type" : "type-3",
   "source_file" : "/external/tinyxml2/tinyxml2.h"
  },
  {
   "access" : "protected",
   "function_name" : "tinyxml2::XMLDeclaration::XMLDeclaration",
   "linker_set_key" : "_ZN8tinyxml214XMLDeclarationC1EPNS_11XMLDocumentE",
   "parameters" :
   [
    {
     "is_this_ptr" : true,
     "referenced_type" : "type-71"
    },
    {
     "referenced_type" : "type-8"
    }
   ],
   "return_type" : "type-60",
   "source_file" : "/external/tinyxml2/tinyxml2.h"
  },
  {
   "access" : "protected",
   "function_name" : "tinyxml2::XMLDeclaration::XMLDeclaration",
   "linker_set_key" : "_ZN8tinyxml214XMLDeclarationC2EPNS_11XMLDocumentE",
   "parameters" :
   [
    {
     "is_this_ptr" : true,
     "referenced_type" : "type-71"
    },
    {
     "referenced_type" : "type-8"
    }
   ],
   "return_type" : "type-60",
   "source_file" : "/external/tinyxml2/tinyxml2.h"
  },
  {
   "access" : "protected",
   "function_name" : "tinyxml2::XMLDeclaration::~XMLDeclaration",
   "linker_set_key" : "_ZN8tinyxml214XMLDeclarationD0Ev",
   "parameters" :
   [
    {
     "is_this_ptr" : true,
     "referenced_type" : "type-71"
    }
   ],
   "return_type" : "type-60",
   "source_file" : "/external/tinyxml2/tinyxml2.h"
  },
  {
   "access" : "protected",
   "function_name" : "tinyxml2::XMLDeclaration::~XMLDeclaration",
   "linker_set_key" : "_ZN8tinyxml214XMLDeclarationD1Ev",
   "parameters" :
   [
    {
     "is_this_ptr" : true,
     "referenced_type" : "type-71"
    }
   ],
   "return_type" : "type-60",
   "source_file" : "/external/tinyxml2/tinyxml2.h"
  },
  {
   "access" : "protected",
   "function_name" : "tinyxml2::XMLDeclaration::~XMLDeclaration",
   "linker_set_key" : "_ZN8tinyxml214XMLDeclarationD2Ev",
   "parameters" :
   [
    {
     "is_this_ptr" : true,
     "referenced_type" : "type-71"
    }
   ],
   "return_type" : "type-60",
   "source_file" : "/external/tinyxml2/tinyxml2.h"
  },
  {
   "function_name" : "tinyxml2::StrPair::TransferTo",
   "linker_set_key" : "_ZN8tinyxml27StrPair10TransferToEPS0_",
   "parameters" :
   [
    {
     "is_this_ptr" : true,
     "referenced_type" : "type-141"
    },
    {
     "referenced_type" : "type-141"
    }
   ],
   "return_type" : "type-60",
   "source_file" : "/external/tinyxml2/tinyxml2.h"
  },
  {
   "access" : "private",
   "function_name" : "tinyxml2::StrPair::CollapseWhitespace",
   "linker_set_key" : "_ZN8tinyxml27StrPair18CollapseWhitespaceEv",
   "parameters" :
   [
    {
     "is_this_ptr" : true,
     "referenced_type" : "type-141"
    }
   ],
   "return_type" : "type-60",
   "source_file" : "/external/tinyxml2/tinyxml2.h"
  },
  {
   "function_name" : "tinyxml2::StrPair::Reset",
   "linker_set_key" : "_ZN8tinyxml27StrPair5ResetEv",
   "parameters" :
   [
    {
     "is_this_ptr" : true,
     "referenced_type" : "type-141"
    }
   ],
   "return_type" : "type-60",
   "source_file" : "/external/tinyxml2/tinyxml2.h"
  },
  {
   "function_name" : "tinyxml2::StrPair::GetStr",
   "linker_set_key" : "_ZN8tinyxml27StrPair6GetStrEv",
   "parameters" :
   [
    {
     "is_this_ptr" : true,
     "referenced_type" : "type-141"
    }
   ],
   "return_type" : "type-90",
   "source_file" : "/external/tinyxml2/tinyxml2.h"
  },
  {
   "function_name" : "tinyxml2::StrPair::SetStr",
   "linker_set_key" : "_ZN8tinyxml27StrPair6SetStrEPKci",
   "parameters" :
   [
    {
     "is_this_ptr" : true,
     "referenced_type" : "type-141"
    },
    {
     "referenced_type" : "type-90"
    },
    {
     "default_arg" : true,
     "referenced_type" : "type-1"
    }
   ],
   "return_type" : "type-60",
   "source_file" : "/external/tinyxml2/tinyxml2.h"
  },
  {
   "function_name" : "tinyxml2::StrPair::ParseName",
   "linker_set_key" : "_ZN8tinyxml27StrPair9ParseNameEPc",
   "parameters" :
   [
    {
     "is_this_ptr" : true,
     "referenced_type" : "type-141"
    },
    {
     "referenced_type" : "type-3"
    }
   ],
   "return_type" : "type-3",
   "source_file" : "/external/tinyxml2/tinyxml2.h"
  },
  {
   "function_name" : "tinyxml2::StrPair::ParseText",
   "linker_set_key" : "_ZN8tinyxml27StrPair9ParseTextEPcPKciPi",
   "parameters" :
   [
    {
     "is_this_ptr" : true,
     "referenced_type" : "type-141"
    },
    {
     "referenced_type" : "type-3"
    },
    {
     "referenced_type" : "type-90"
    },
    {
     "referenced_type" : "type-1"
    },
    {
     "referenced_type" : "type-171"
    }
   ],
   "return_type" : "type-3",
   "source_file" : "/external/tinyxml2/tinyxml2.h"
  },
  {
   "function_name" : "tinyxml2::StrPair::~StrPair",
   "linker_set_key" : "_ZN8tinyxml27StrPairD1Ev",
   "parameters" :
   [
    {
     "is_this_ptr" : true,
     "referenced_type" : "type-141"
    }
   ],
   "return_type" : "type-60",
   "source_file" : "/external/tinyxml2/tinyxml2.h"
  },
  {
   "function_name" : "tinyxml2::StrPair::~StrPair",
   "linker_set_key" : "_ZN8tinyxml27StrPairD2Ev",
   "parameters" :
   [
    {
     "is_this_ptr" : true,
     "referenced_type" : "type-141"
    }
   ],
   "return_type" : "type-60",
   "source_file" : "/external/tinyxml2/tinyxml2.h"
  },
  {
   "access" : "private",
   "function_name" : "tinyxml2::XMLNode::DeleteNode",
   "linker_set_key" : "_ZN8tinyxml27XMLNode10DeleteNodeEPS0_",
   "parameters" :
   [
    {
     "referenced_type" : "type-16"
    }
   ],
   "return_type" : "type-60",
   "source_file" : "/external/tinyxml2/tinyxml2.h"
  },
  {
   "function_name" : "tinyxml2::XMLNode::DeleteChild",
   "linker_set_key" : "_ZN8tinyxml27XMLNode11DeleteChildEPS0_",
   "parameters" :
   [
    {
     "is_this_ptr" : true,
     "referenced_type" : "type-16"
    },
    {
     "referenced_type" : "type-16"
    }
   ],
   "return_type" : "type-60",
   "source_file" : "/external/tinyxml2/tinyxml2.h"
  },
  {
   "function_name" : "tinyxml2::XMLNode::DeleteChildren",
   "linker_set_key" : "_ZN8tinyxml27XMLNode14DeleteChildrenEv",
   "parameters" :
   [
    {
     "is_this_ptr" : true,
     "referenced_type" : "type-16"
    }
   ],
   "return_type" : "type-60",
   "source_file" : "/external/tinyxml2/tinyxml2.h"
  },
  {
   "function_name" : "tinyxml2::XMLNode::InsertEndChild",
   "linker_set_key" : "_ZN8tinyxml27XMLNode14InsertEndChildEPS0_",
   "parameters" :
   [
    {
     "is_this_ptr" : true,
     "referenced_type" : "type-16"
    },
    {
     "referenced_type" : "type-16"
    }
   ],
   "return_type" : "type-16",
   "source_file" : "/external/tinyxml2/tinyxml2.h"
  },
  {
   "function_name" : "tinyxml2::XMLNode::InsertAfterChild",
   "linker_set_key" : "_ZN8tinyxml27XMLNode16InsertAfterChildEPS0_S1_",
   "parameters" :
   [
    {
     "is_this_ptr" : true,
     "referenced_type" : "type-16"
    },
    {
     "referenced_type" : "type-16"
    },
    {
     "referenced_type" : "type-16"
    }
   ],
   "return_type" : "type-16",
   "source_file" : "/external/tinyxml2/tinyxml2.h"
  },
  {
   "function_name" : "tinyxml2::XMLNode::InsertFirstChild",
   "linker_set_key" : "_ZN8tinyxml27XMLNode16InsertFirstChildEPS0_",
   "parameters" :
   [
    {
     "is_this_ptr" : true,
     "referenced_type" : "type-16"
    },
    {
     "referenced_type" : "type-16"
    }
   ],
   "return_type" : "type-16",
   "source_file" : "/external/tinyxml2/tinyxml2.h"
  },
  {
   "access" : "private",
   "function_name" : "tinyxml2::XMLNode::Unlink",
   "linker_set_key" : "_ZN8tinyxml27XMLNode6UnlinkEPS0_",
   "parameters" :
   [
    {
     "is_this_ptr" : true,
     "referenced_type" : "type-16"
    },
    {
     "referenced_type" : "type-16"
    }
   ],
   "return_type" : "type-60",
   "source_file" : "/external/tinyxml2/tinyxml2.h"
  },
  {
   "function_name" : "tinyxml2::XMLNode::SetValue",
   "linker_set_key" : "_ZN8tinyxml27XMLNode8SetValueEPKcb",
   "parameters" :
   [
    {
     "is_this_ptr" : true,
     "referenced_type" : "type-16"
    },
    {
     "referenced_type" : "type-90"
    },
    {
     "default_arg" : true,
     "referenced_type" : "type-10"
    }
   ],
   "return_type" : "type-60",
   "source_file" : "/external/tinyxml2/tinyxml2.h"
  },
  {
   "access" : "protected",
   "function_name" : "tinyxml2::XMLNode::ParseDeep",
   "linker_set_key" : "_ZN8tinyxml27XMLNode9ParseDeepEPcPNS_7StrPairEPi",
   "parameters" :
   [
    {
     "is_this_ptr" : true,
     "referenced_type" : "type-16"
    },
    {
     "referenced_type" : "type-3"
    },
    {
     "referenced_type" : "type-141"
    },
    {
     "referenced_type" : "type-171"
    }
   ],
   "return_type" : "type-3",
   "source_file" : "/external/tinyxml2/tinyxml2.h"
  },
  {
   "access" : "protected",
   "function_name" : "tinyxml2::XMLNode::XMLNode",
   "linker_set_key" : "_ZN8tinyxml27XMLNodeC2EPNS_11XMLDocumentE",
   "parameters" :
   [
    {
     "is_this_ptr" : true,
     "referenced_type" : "type-16"
    },
    {
     "referenced_type" : "type-8"
    }
   ],
   "return_type" : "type-60",
   "source_file" : "/external/tinyxml2/tinyxml2.h"
  },
  {
   "access" : "protected",
   "function_name" : "tinyxml2::XMLNode::~XMLNode",
   "linker_set_key" : "_ZN8tinyxml27XMLNodeD0Ev",
   "parameters" :
   [
    {
     "is_this_ptr" : true,
     "referenced_type" : "type-16"
    }
   ],
   "return_type" : "type-60",
   "source_file" : "/external/tinyxml2/tinyxml2.h"
  },
  {
   "access" : "protected",
   "function_name" : "tinyxml2::XMLNode::~XMLNode",
   "linker_set_key" : "_ZN8tinyxml27XMLNodeD1Ev",
   "parameters" :
   [
    {
     "is_this_ptr" : true,
     "referenced_type" : "type-16"
    }
   ],
   "return_type" : "type-60",
   "source_file" : "/external/tinyxml2/tinyxml2.h"
  },
  {
   "access" : "protected",
   "function_name" : "tinyxml2::XMLNode::~XMLNode",
   "linker_set_key" : "_ZN8tinyxml27XMLNodeD2Ev",
   "parameters" :
   [
    {
     "is_this_ptr" : true,
     "referenced_type" : "type-16"
    }
   ],
   "return_type" : "type-60",
   "source_file" : "/external/tinyxml2/tinyxml2.h"
  },
  {
   "access" : "protected",
   "function_name" : "tinyxml2::XMLText::ParseDeep",
   "linker_set_key" : "_ZN8tinyxml27XMLText9ParseDeepEPcPNS_7StrPairEPi",
   "parameters" :
   [
    {
     "is_this_ptr" : true,
     "referenced_type" : "type-67"
    },
    {
     "referenced_type" : "type-3"
    },
    {
     "referenced_type" : "type-141"
    },
    {
     "referenced_type" : "type-171"
    }
   ],
   "return_type" : "type-3",
   "source_file" : "/external/tinyxml2/tinyxml2.h"
  },
  {
   "function_name" : "tinyxml2::XMLUtil::ToUnsigned",
   "linker_set_key" : "_ZN8tinyxml27XMLUtil10ToUnsignedEPKcPj",
   "parameters" :
   [
    {
     "referenced_type" : "type-90"
    },
    {
     "referenced_type" : "type-173"
    }
   ],
   "return_type" : "type-10",
   "source_file" : "/external/tinyxml2/tinyxml2.h"
  },
  {
   "function_name" : "tinyxml2::XMLUtil::GetCharacterRef",
   "linker_set_key" : "_ZN8tinyxml27XMLUtil15GetCharacterRefEPKcPcPi",
   "parameters" :
   [
    {
     "referenced_type" : "type-90"
    },
    {
     "referenced_type" : "type-3"
    },
    {
     "referenced_type" : "type-171"
    }
   ],
   "return_type" : "type-90",
   "source_file" : "/external/tinyxml2/tinyxml2.h"
  },
  {
   "function_name" : "tinyxml2::XMLUtil::ConvertUTF32ToUTF8",
   "linker_set_key" : "_ZN8tinyxml27XMLUtil18ConvertUTF32ToUTF8EmPcPi",
   "parameters" :
   [
    {
     "referenced_type" : "type-168"
    },
    {
     "referenced_type" : "type-3"
    },
    {
     "referenced_type" : "type-171"
    }
   ],
   "return_type" : "type-60",
   "source_file" : "/external/tinyxml2/tinyxml2.h"
  },
  {
   "function_name" : "tinyxml2::XMLUtil::SetBoolSerialization",
   "linker_set_key" : "_ZN8tinyxml27XMLUtil20SetBoolSerializationEPKcS2_",
   "parameters" :
   [
    {
     "referenced_type" : "type-90"
    },
    {
     "referenced_type" : "type-90"
    }
   ],
   "return_type" : "type-60",
   "source_file" : "/external/tinyxml2/tinyxml2.h"
  },
  {
   "function_name" : "tinyxml2::XMLUtil::ToInt",
   "linker_set_key" : "_ZN8tinyxml27XMLUtil5ToIntEPKcPi",
   "parameters" :
   [
    {
     "referenced_type" : "type-90"
    },
    {
     "referenced_type" : "type-171"
    }
   ],
   "return_type" : "type-10",
   "source_file" : "/external/tinyxml2/tinyxml2.h"
  },
  {
   "function_name" : "tinyxml2::XMLUtil::ToStr",
   "linker_set_key" : "_ZN8tinyxml27XMLUtil5ToStrEbPci",
   "parameters" :
   [
    {
     "referenced_type" : "type-10"
    },
    {
     "referenced_type" : "type-3"
    },
    {
     "referenced_type" : "type-1"
    }
   ],
   "return_type" : "type-60",
   "source_file" : "/external/tinyxml2/tinyxml2.h"
  },
  {
   "function_name" : "tinyxml2::XMLUtil::ToStr",
   "linker_set_key" : "_ZN8tinyxml27XMLUtil5ToStrEdPci",
   "parameters" :
   [
    {
     "referenced_type" : "type-170"
    },
    {
     "referenced_type" : "type-3"
    },
    {
     "referenced_type" : "type-1"
    }
   ],
   "return_type" : "type-60",
   "source_file" : "/external/tinyxml2/tinyxml2.h"
  },
  {
   "function_name" : "tinyxml2::XMLUtil::ToStr",
   "linker_set_key" : "_ZN8tinyxml27XMLUtil5ToStrEfPci",
   "parameters" :
   [
    {
     "referenced_type" : "type-169"
    },
    {
     "referenced_type" : "type-3"
    },
    {
     "referenced_type" : "type-1"
    }
   ],
   "return_type" : "type-60",
   "source_file" : "/external/tinyxml2/tinyxml2.h"
  },
  {
   "function_name" : "tinyxml2::XMLUtil::ToStr",
   "linker_set_key" : "_ZN8tinyxml27XMLUtil5ToStrEiPci",
   "parameters" :
   [
    {
     "referenced_type" : "type-1"
    },
    {
     "referenced_type" : "type-3"
    },
    {
     "referenced_type" : "type-1"
    }
   ],
   "return_type" : "type-60",
   "source_file" : "/external/tinyxml2/tinyxml2.h"
  },
  {
   "function_name" : "tinyxml2::XMLUtil::ToStr",
   "linker_set_key" : "_ZN8tinyxml27XMLUtil5ToStrEjPci",
   "parameters" :
   [
    {
     "referenced_type" : "type-12"
    },
    {
     "referenced_type" : "type-3"
    },
    {
     "referenced_type" : "type-1"
    }
   ],
   "return_type" : "type-60",
   "source_file" : "/external/tinyxml2/tinyxml2.h"
  },
  {
   "function_name" : "tinyxml2::XMLUtil::ToStr",
   "linker_set_key" : "_ZN8tinyxml27XMLUtil5ToStrElPci",
   "parameters" :
   [
    {
     "referenced_type" : "type-172"
    },
    {
     "referenced_type" : "type-3"
    },
    {
     "referenced_type" : "type-1"
    }
   ],
   "return_type" : "type-60",
   "source_file" : "/external/tinyxml2/tinyxml2.h"
  },
  {
   "function_name" : "tinyxml2::XMLUtil::ToBool",
   "linker_set_key" : "_ZN8tinyxml27XMLUtil6ToBoolEPKcPb",
   "parameters" :
   [
    {
     "referenced_type" : "type-90"
    },
    {
     "referenced_type" : "type-167"
    }
   ],
   "return_type" : "type-10",
   "source_file" : "/external/tinyxml2/tinyxml2.h"
  },
  {
   "function_name" : "tinyxml2::XMLUtil::ReadBOM",
   "linker_set_key" : "_ZN8tinyxml27XMLUtil7ReadBOMEPKcPb",
   "parameters" :
   [
    {
     "referenced_type" : "type-90"
    },
    {
     "referenced_type" : "type-167"
    }
   ],
   "return_type" : "type-90",
   "source_file" : "/external/tinyxml2/tinyxml2.h"
  },
  {
   "function_name" : "tinyxml2::XMLUtil::ToFloat",
   "linker_set_key" : "_ZN8tinyxml27XMLUtil7ToFloatEPKcPf",
   "parameters" :
   [
    {
     "referenced_type" : "type-90"
    },
    {
     "referenced_type" : "type-174"
    }
   ],
   "return_type" : "type-10",
   "source_file" : "/external/tinyxml2/tinyxml2.h"
  },
  {
   "function_name" : "tinyxml2::XMLUtil::ToInt64",
   "linker_set_key" : "_ZN8tinyxml27XMLUtil7ToInt64EPKcPl",
   "parameters" :
   [
    {
     "referenced_type" : "type-90"
    },
    {
     "referenced_type" : "type-176"
    }
   ],
   "return_type" : "type-10",
   "source_file" : "/external/tinyxml2/tinyxml2.h"
  },
  {
   "function_name" : "tinyxml2::XMLUtil::ToDouble",
   "linker_set_key" : "_ZN8tinyxml27XMLUtil8ToDoubleEPKcPd",
   "parameters" :
   [
    {
     "referenced_type" : "type-90"
    },
    {
     "referenced_type" : "type-175"
    }
   ],
   "return_type" : "type-10",
   "source_file" : "/external/tinyxml2/tinyxml2.h"
  },
  {
   "function_name" : "tinyxml2::XMLComment::ShallowClone",
   "linker_set_key" : "_ZNK8tinyxml210XMLComment12ShallowCloneEPNS_11XMLDocumentE",
   "parameters" :
   [
    {
     "is_this_ptr" : true,
     "referenced_type" : "type-79"
    },
    {
     "referenced_type" : "type-8"
    }
   ],
   "return_type" : "type-16",
   "source_file" : "/external/tinyxml2/tinyxml2.h"
  },
  {
   "function_name" : "tinyxml2::XMLComment::ShallowEqual",
   "linker_set_key" : "_ZNK8tinyxml210XMLComment12ShallowEqualEPKNS_7XMLNodeE",
   "parameters" :
   [
    {
     "is_this_ptr" : true,
     "referenced_type" : "type-79"
    },
    {
     "referenced_type" : "type-5"
    }
   ],
   "return_type" : "type-10",
   "source_file" : "/external/tinyxml2/tinyxml2.h"
  },
  {
   "function_name" : "tinyxml2::XMLComment::Accept",
   "linker_set_key" : "_ZNK8tinyxml210XMLComment6AcceptEPNS_10XMLVisitorE",
   "parameters" :
   [
    {
     "is_this_ptr" : true,
     "referenced_type" : "type-79"
    },
    {
     "referenced_type" : "type-153"
    }
   ],
   "return_type" : "type-10",
   "source_file" : "/external/tinyxml2/tinyxml2.h"
  },
  {
   "function_name" : "tinyxml2::XMLElement::DoubleText",
   "linker_set_key" : "_ZNK8tinyxml210XMLElement10DoubleTextEd",
   "parameters" :
   [
    {
     "is_this_ptr" : true,
     "referenced_type" : "type-75"
    },
    {
     "default_arg" : true,
     "referenced_type" : "type-170"
    }
   ],
   "return_type" : "type-170",
   "source_file" : "/external/tinyxml2/tinyxml2.h"
  },
  {
   "function_name" : "tinyxml2::XMLElement::IntAttribute",
   "linker_set_key" : "_ZNK8tinyxml210XMLElement12IntAttributeEPKci",
   "parameters" :
   [
    {
     "is_this_ptr" : true,
     "referenced_type" : "type-75"
    },
    {
     "referenced_type" : "type-90"
    },
    {
     "default_arg" : true,
     "referenced_type" : "type-1"
    }
   ],
   "return_type" : "type-1",
   "source_file" : "/external/tinyxml2/tinyxml2.h"
  },
  {
   "function_name" : "tinyxml2::XMLElement::QueryIntText",
   "linker_set_key" : "_ZNK8tinyxml210XMLElement12QueryIntTextEPi",
   "parameters" :
   [
    {
     "is_this_ptr" : true,
     "referenced_type" : "type-75"
    },
    {
     "referenced_type" : "type-171"
    }
   ],
   "return_type" : "type-11",
   "source_file" : "/external/tinyxml2/tinyxml2.h"
  },
  {
   "function_name" : "tinyxml2::XMLElement::ShallowClone",
   "linker_set_key" : "_ZNK8tinyxml210XMLElement12ShallowCloneEPNS_11XMLDocumentE",
   "parameters" :
   [
    {
     "is_this_ptr" : true,
     "referenced_type" : "type-75"
    },
    {
     "referenced_type" : "type-8"
    }
   ],
   "return_type" : "type-16",
   "source_file" : "/external/tinyxml2/tinyxml2.h"
  },
  {
   "function_name" : "tinyxml2::XMLElement::ShallowEqual",
   "linker_set_key" : "_ZNK8tinyxml210XMLElement12ShallowEqualEPKNS_7XMLNodeE",
   "parameters" :
   [
    {
     "is_this_ptr" : true,
     "referenced_type" : "type-75"
    },
    {
     "referenced_type" : "type-5"
    }
   ],
   "return_type" : "type-10",
   "source_file" : "/external/tinyxml2/tinyxml2.h"
  },
  {
   "function_name" : "tinyxml2::XMLElement::UnsignedText",
   "linker_set_key" : "_ZNK8tinyxml210XMLElement12UnsignedTextEj",
   "parameters" :
   [
    {
     "is_this_ptr" : true,
     "referenced_type" : "type-75"
    },
    {
     "default_arg" : true,
     "referenced_type" : "type-12"
    }
   ],
   "return_type" : "type-12",
   "source_file" : "/external/tinyxml2/tinyxml2.h"
  },
  {
   "function_name" : "tinyxml2::XMLElement::BoolAttribute",
   "linker_set_key" : "_ZNK8tinyxml210XMLElement13BoolAttributeEPKcb",
   "parameters" :
   [
    {
     "is_this_ptr" : true,
     "referenced_type" : "type-75"
    },
    {
     "referenced_type" : "type-90"
    },
    {
     "default_arg" : true,
     "referenced_type" : "type-10"
    }
   ],
   "return_type" : "type-10",
   "source_file" : "/external/tinyxml2/tinyxml2.h"
  },
  {
   "function_name" : "tinyxml2::XMLElement::FindAttribute",
   "linker_set_key" : "_ZNK8tinyxml210XMLElement13FindAttributeEPKc",
   "parameters" :
   [
    {
     "is_this_ptr" : true,
     "referenced_type" : "type-75"
    },
    {
     "referenced_type" : "type-90"
    }
   ],
   "return_type" : "type-158",
   "source_file" : "/external/tinyxml2/tinyxml2.h"
  },
  {
   "function_name" : "tinyxml2::XMLElement::QueryBoolText",
   "linker_set_key" : "_ZNK8tinyxml210XMLElement13QueryBoolTextEPb",
   "parameters" :
   [
    {
     "is_this_ptr" : true,
     "referenced_type" : "type-75"
    },
    {
     "referenced_type" : "type-167"
    }
   ],
   "return_type" : "type-11",
   "source_file" : "/external/tinyxml2/tinyxml2.h"
  },
  {
   "function_name" : "tinyxml2::XMLElement::FloatAttribute",
   "linker_set_key" : "_ZNK8tinyxml210XMLElement14FloatAttributeEPKcf",
   "parameters" :
   [
    {
     "is_this_ptr" : true,
     "referenced_type" : "type-75"
    },
    {
     "referenced_type" : "type-90"
    },
    {
     "default_arg" : true,
     "referenced_type" : "type-169"
    }
   ],
   "return_type" : "type-169",
   "source_file" : "/external/tinyxml2/tinyxml2.h"
  },
  {
   "function_name" : "tinyxml2::XMLElement::Int64Attribute",
   "linker_set_key" : "_ZNK8tinyxml210XMLElement14Int64AttributeEPKcl",
   "parameters" :
   [
    {
     "is_this_ptr" : true,
     "referenced_type" : "type-75"
    },
    {
     "referenced_type" : "type-90"
    },
    {
     "default_arg" : true,
     "referenced_type" : "type-172"
    }
   ],
   "return_type" : "type-172",
   "source_file" : "/external/tinyxml2/tinyxml2.h"
  },
  {
   "function_name" : "tinyxml2::XMLElement::QueryFloatText",
   "linker_set_key" : "_ZNK8tinyxml210XMLElement14QueryFloatTextEPf",
   "parameters" :
   [
    {
     "is_this_ptr" : true,
     "referenced_type" : "type-75"
    },
    {
     "referenced_type" : "type-174"
    }
   ],
   "return_type" : "type-11",
   "source_file" : "/external/tinyxml2/tinyxml2.h"
  },
  {
   "function_name" : "tinyxml2::XMLElement::QueryInt64Text",
   "linker_set_key" : "_ZNK8tinyxml210XMLElement14QueryInt64TextEPl",
   "parameters" :
   [
    {
     "is_this_ptr" : true,
     "referenced_type" : "type-75"
    },
    {
     "referenced_type" : "type-176"
    }
   ],
   "return_type" : "type-11",
   "source_file" : "/external/tinyxml2/tinyxml2.h"
  },
  {
   "function_name" : "tinyxml2::XMLElement::DoubleAttribute",
   "linker_set_key" : "_ZNK8tinyxml210XMLElement15DoubleAttributeEPKcd",
   "parameters" :
   [
    {
     "is_this_ptr" : true,
     "referenced_type" : "type-75"
    },
    {
     "referenced_type" : "type-90"
    },
    {
     "default_arg" : true,
     "referenced_type" : "type-170"
    }
   ],
   "return_type" : "type-170",
   "source_file" : "/external/tinyxml2/tinyxml2.h"
  },
  {
   "function_name" : "tinyxml2::XMLElement::QueryDoubleText",
   "linker_set_key" : "_ZNK8tinyxml210XMLElement15QueryDoubleTextEPd",
   "parameters" :
   [
    {
     "is_this_ptr" : true,
     "referenced_type" : "type-75"
    },
    {
     "referenced_type" : "type-175"
    }
   ],
   "return_type" : "type-11",
   "source_file" : "/external/tinyxml2/tinyxml2.h"
  },
  {
   "function_name" : "tinyxml2::XMLElement::QueryUnsignedText",
   "linker_set_key" : "_ZNK8tinyxml210XMLElement17QueryUnsignedTextEPj",
   "parameters" :
   [
    {
     "is_this_ptr" : true,
     "referenced_type" : "type-75"
    },
    {
     "referenced_type" : "type-173"
    }
   ],
   "return_type" : "type-11",
   "source_file" : "/external/tinyxml2/tinyxml2.h"
  },
  {
   "function_name" : "tinyxml2::XMLElement::UnsignedAttribute",
   "linker_set_key" : "_ZNK8tinyxml210XMLElement17UnsignedAttributeEPKcj",
   "parameters" :
   [
    {
     "is_this_ptr" : true,
     "referenced_type" : "type-75"
    },
    {
     "referenced_type" : "type-90"
    },
    {
     "default_arg" : true,
     "referenced_type" : "type-12"
    }
   ],
   "return_type" : "type-12",
   "source_file" : "/external/tinyxml2/tinyxml2.h"
  },
  {
   "function_name" : "tinyxml2::XMLElement::Accept",
   "linker_set_key" : "_ZNK8tinyxml210XMLElement6AcceptEPNS_10XMLVisitorE",
   "parameters" :
   [
    {
     "is_this_ptr" : true,
     "referenced_type" : "type-75"
    },
    {
     "referenced_type" : "type-153"
    }
   ],
   "return_type" : "type-10",
   "source_file" : "/external/tinyxml2/tinyxml2.h"
  },
  {
   "function_name" : "tinyxml2::XMLElement::GetText",
   "linker_set_key" : "_ZNK8tinyxml210XMLElement7GetTextEv",
   "parameters" :
   [
    {
     "is_this_ptr" : true,
     "referenced_type" : "type-75"
    }
   ],
   "return_type" : "type-90",
   "source_file" : "/external/tinyxml2/tinyxml2.h"
  },
  {
   "function_name" : "tinyxml2::XMLElement::IntText",
   "linker_set_key" : "_ZNK8tinyxml210XMLElement7IntTextEi",
   "parameters" :
   [
    {
     "is_this_ptr" : true,
     "referenced_type" : "type-75"
    },
    {
     "default_arg" : true,
     "referenced_type" : "type-1"
    }
   ],
   "return_type" : "type-1",
   "source_file" : "/external/tinyxml2/tinyxml2.h"
  },
  {
   "function_name" : "tinyxml2::XMLElement::BoolText",
   "linker_set_key" : "_ZNK8tinyxml210XMLElement8BoolTextEb",
   "parameters" :
   [
    {
     "is_this_ptr" : true,
     "referenced_type" : "type-75"
    },
    {
     "default_arg" : true,
     "referenced_type" : "type-10"
    }
   ],
   "return_type" : "type-10",
   "source_file" : "/external/tinyxml2/tinyxml2.h"
  },
  {
   "function_name" : "tinyxml2::XMLElement::Attribute",
   "linker_set_key" : "_ZNK8tinyxml210XMLElement9AttributeEPKcS2_",
   "parameters" :
   [
    {
     "is_this_ptr" : true,
     "referenced_type" : "type-75"
    },
    {
     "referenced_type" : "type-90"
    },
    {
     "default_arg" : true,
     "referenced_type" : "type-90"
    }
   ],
   "return_type" : "type-90",
   "source_file" : "/external/tinyxml2/tinyxml2.h"
  },
  {
   "function_name" : "tinyxml2::XMLElement::FloatText",
   "linker_set_key" : "_ZNK8tinyxml210XMLElement9FloatTextEf",
   "parameters" :
   [
    {
     "is_this_ptr" : true,
     "referenced_type" : "type-75"
    },
    {
     "default_arg" : true,
     "referenced_type" : "type-169"
    }
   ],
   "return_type" : "type-169",
   "source_file" : "/external/tinyxml2/tinyxml2.h"
  },
  {
   "function_name" : "tinyxml2::XMLElement::Int64Text",
   "linker_set_key" : "_ZNK8tinyxml210XMLElement9Int64TextEl",
   "parameters" :
   [
    {
     "is_this_ptr" : true,
     "referenced_type" : "type-75"
    },
    {
     "default_arg" : true,
     "referenced_type" : "type-172"
    }
   ],
   "return_type" : "type-172",
   "source_file" : "/external/tinyxml2/tinyxml2.h"
  },
  {
   "function_name" : "tinyxml2::XMLUnknown::ShallowClone",
   "linker_set_key" : "_ZNK8tinyxml210XMLUnknown12ShallowCloneEPNS_11XMLDocumentE",
   "parameters" :
   [
    {
     "is_this_ptr" : true,
     "referenced_type" : "type-83"
    },
    {
     "referenced_type" : "type-8"
    }
   ],
   "return_type" : "type-16",
   "source_file" : "/external/tinyxml2/tinyxml2.h"
  },
  {
   "function_name" : "tinyxml2::XMLUnknown::ShallowEqual",
   "linker_set_key" : "_ZNK8tinyxml210XMLUnknown12ShallowEqualEPKNS_7XMLNodeE",
   "parameters" :
   [
    {
     "is_this_ptr" : true,
     "referenced_type" : "type-83"
    },
    {
     "referenced_type" : "type-5"
    }
   ],
   "return_type" : "type-10",
   "source_file" : "/external/tinyxml2/tinyxml2.h"
  },
  {
   "function_name" : "tinyxml2::XMLUnknown::Accept",
   "linker_set_key" : "_ZNK8tinyxml210XMLUnknown6AcceptEPNS_10XMLVisitorE",
   "parameters" :
   [
    {
     "is_this_ptr" : true,
     "referenced_type" : "type-83"
    },
    {
     "referenced_type" : "type-153"
    }
   ],
   "return_type" : "type-10",
   "source_file" : "/external/tinyxml2/tinyxml2.h"
  },
  {
   "function_name" : "tinyxml2::XMLDocument::PrintError",
   "linker_set_key" : "_ZNK8tinyxml211XMLDocument10PrintErrorEv",
   "parameters" :
   [
    {
     "is_this_ptr" : true,
     "referenced_type" : "type-177"
    }
   ],
   "return_type" : "type-60",
   "source_file" : "/external/tinyxml2/tinyxml2.h"
  },
  {
   "function_name" : "tinyxml2::XMLDocument::Print",
   "linker_set_key" : "_ZNK8tinyxml211XMLDocument5PrintEPNS_10XMLPrinterE",
   "parameters" :
   [
    {
     "is_this_ptr" : true,
     "referenced_type" : "type-177"
    },
    {
     "default_arg" : true,
     "referenced_type" : "type-97"
    }
   ],
   "return_type" : "type-60",
   "source_file" : "/external/tinyxml2/tinyxml2.h"
  },
  {
   "function_name" : "tinyxml2::XMLDocument::Accept",
   "linker_set_key" : "_ZNK8tinyxml211XMLDocument6AcceptEPNS_10XMLVisitorE",
   "parameters" :
   [
    {
     "is_this_ptr" : true,
     "referenced_type" : "type-177"
    },
    {
     "referenced_type" : "type-153"
    }
   ],
   "return_type" : "type-10",
   "source_file" : "/external/tinyxml2/tinyxml2.h"
  },
  {
   "function_name" : "tinyxml2::XMLDocument::DeepCopy",
   "linker_set_key" : "_ZNK8tinyxml211XMLDocument8DeepCopyEPS0_",
   "parameters" :
   [
    {
     "is_this_ptr" : true,
     "referenced_type" : "type-177"
    },
    {
     "referenced_type" : "type-8"
    }
   ],
   "return_type" : "type-60",
   "source_file" : "/external/tinyxml2/tinyxml2.h"
  },
  {
   "function_name" : "tinyxml2::XMLDocument::ErrorStr",
   "linker_set_key" : "_ZNK8tinyxml211XMLDocument8ErrorStrEv",
   "parameters" :
   [
    {
     "is_this_ptr" : true,
     "referenced_type" : "type-177"
    }
   ],
   "return_type" : "type-90",
   "source_file" : "/external/tinyxml2/tinyxml2.h"
  },
  {
   "function_name" : "tinyxml2::XMLDocument::ErrorName",
   "linker_set_key" : "_ZNK8tinyxml211XMLDocument9ErrorNameEv",
   "parameters" :
   [
    {
     "is_this_ptr" : true,
     "referenced_type" : "type-177"
    }
   ],
   "return_type" : "type-90",
   "source_file" : "/external/tinyxml2/tinyxml2.h"
  },
  {
   "function_name" : "tinyxml2::XMLAttribute::QueryIntValue",
   "linker_set_key" : "_ZNK8tinyxml212XMLAttribute13QueryIntValueEPi",
   "parameters" :
   [
    {
     "is_this_ptr" : true,
     "referenced_type" : "type-158"
    },
    {
     "referenced_type" : "type-171"
    }
   ],
   "return_type" : "type-11",
   "source_file" : "/external/tinyxml2/tinyxml2.h"
  },
  {
   "function_name" : "tinyxml2::XMLAttribute::QueryBoolValue",
   "linker_set_key" : "_ZNK8tinyxml212XMLAttribute14QueryBoolValueEPb",
   "parameters" :
   [
    {
     "is_this_ptr" : true,
     "referenced_type" : "type-158"
    },
    {
     "referenced_type" : "type-167"
    }
   ],
   "return_type" : "type-11",
   "source_file" : "/external/tinyxml2/tinyxml2.h"
  },
  {
   "function_name" : "tinyxml2::XMLAttribute::QueryFloatValue",
   "linker_set_key" : "_ZNK8tinyxml212XMLAttribute15QueryFloatValueEPf",
   "parameters" :
   [
    {
     "is_this_ptr" : true,
     "referenced_type" : "type-158"
    },
    {
     "referenced_type" : "type-174"
    }
   ],
   "return_type" : "type-11",
   "source_file" : "/external/tinyxml2/tinyxml2.h"
  },
  {
   "function_name" : "tinyxml2::XMLAttribute::QueryInt64Value",
   "linker_set_key" : "_ZNK8tinyxml212XMLAttribute15QueryInt64ValueEPl",
   "parameters" :
   [
    {
     "is_this_ptr" : true,
     "referenced_type" : "type-158"
    },
    {
     "referenced_type" : "type-176"
    }
   ],
   "return_type" : "type-11",
   "source_file" : "/external/tinyxml2/tinyxml2.h"
  },
  {
   "function_name" : "tinyxml2::XMLAttribute::QueryDoubleValue",
   "linker_set_key" : "_ZNK8tinyxml212XMLAttribute16QueryDoubleValueEPd",
   "parameters" :
   [
    {
     "is_this_ptr" : true,
     "referenced_type" : "type-158"
    },
    {
     "referenced_type" : "type-175"
    }
   ],
   "return_type" : "type-11",
   "source_file" : "/external/tinyxml2/tinyxml2.h"
  },
  {
   "function_name" : "tinyxml2::XMLAttribute::QueryUnsignedValue",
   "linker_set_key" : "_ZNK8tinyxml212XMLAttribute18QueryUnsignedValueEPj",
   "parameters" :
   [
    {
     "is_this_ptr" : true,
     "referenced_type" : "type-158"
    },
    {
     "referenced_type" : "type-173"
    }
   ],
   "return_type" : "type-11",
   "source_file" : "/external/tinyxml2/tinyxml2.h"
  },
  {
   "function_name" : "tinyxml2::XMLAttribute::Name",
   "linker_set_key" : "_ZNK8tinyxml212XMLAttribute4NameEv",
   "parameters" :
   [
    {
     "is_this_ptr" : true,
     "referenced_type" : "type-158"
    }
   ],
   "return_type" : "type-90",
   "source_file" : "/external/tinyxml2/tinyxml2.h"
  },
  {
   "function_name" : "tinyxml2::XMLAttribute::Value",
   "linker_set_key" : "_ZNK8tinyxml212XMLAttribute5ValueEv",
   "parameters" :
   [
    {
     "is_this_ptr" : true,
     "referenced_type" : "type-158"
    }
   ],
   "return_type" : "type-90",
   "source_file" : "/external/tinyxml2/tinyxml2.h"
  },
  {
   "function_name" : "tinyxml2::XMLDeclaration::ShallowClone",
   "linker_set_key" : "_ZNK8tinyxml214XMLDeclaration12ShallowCloneEPNS_11XMLDocumentE",
   "parameters" :
   [
    {
     "is_this_ptr" : true,
     "referenced_type" : "type-81"
    },
    {
     "referenced_type" : "type-8"
    }
   ],
   "return_type" : "type-16",
   "source_file" : "/external/tinyxml2/tinyxml2.h"
  },
  {
   "function_name" : "tinyxml2::XMLDeclaration::ShallowEqual",
   "linker_set_key" : "_ZNK8tinyxml214XMLDeclaration12ShallowEqualEPKNS_7XMLNodeE",
   "parameters" :
   [
    {
     "is_this_ptr" : true,
     "referenced_type" : "type-81"
    },
    {
     "referenced_type" : "type-5"
    }
   ],
   "return_type" : "type-10",
   "source_file" : "/external/tinyxml2/tinyxml2.h"
  },
  {
   "function_name" : "tinyxml2::XMLDeclaration::Accept",
   "linker_set_key" : "_ZNK8tinyxml214XMLDeclaration6AcceptEPNS_10XMLVisitorE",
   "parameters" :
   [
    {
     "is_this_ptr" : true,
     "referenced_type" : "type-81"
    },
    {
     "referenced_type" : "type-153"
    }
   ],
   "return_type" : "type-10",
   "source_file" : "/external/tinyxml2/tinyxml2.h"
  },
  {
   "function_name" : "tinyxml2::XMLNode::LastChildElement",
   "linker_set_key" : "_ZNK8tinyxml27XMLNode16LastChildElementEPKc",
   "parameters" :
   [
    {
     "is_this_ptr" : true,
     "referenced_type" : "type-5"
    },
    {
     "default_arg" : true,
     "referenced_type" : "type-90"
    }
   ],
   "return_type" : "type-75",
   "source_file" : "/external/tinyxml2/tinyxml2.h"
  },
  {
   "function_name" : "tinyxml2::XMLNode::FirstChildElement",
   "linker_set_key" : "_ZNK8tinyxml27XMLNode17FirstChildElementEPKc",
   "parameters" :
   [
    {
     "is_this_ptr" : true,
     "referenced_type" : "type-5"
    },
    {
     "default_arg" : true,
     "referenced_type" : "type-90"
    }
   ],
   "return_type" : "type-75",
   "source_file" : "/external/tinyxml2/tinyxml2.h"
  },
  {
   "access" : "private",
   "function_name" : "tinyxml2::XMLNode::ToElementWithName",
   "linker_set_key" : "_ZNK8tinyxml27XMLNode17ToElementWithNameEPKc",
   "parameters" :
   [
    {
     "is_this_ptr" : true,
     "referenced_type" : "type-5"
    },
    {
     "referenced_type" : "type-90"
    }
   ],
   "return_type" : "type-75",
   "source_file" : "/external/tinyxml2/tinyxml2.h"
  },
  {
   "function_name" : "tinyxml2::XMLNode::NextSiblingElement",
   "linker_set_key" : "_ZNK8tinyxml27XMLNode18NextSiblingElementEPKc",
   "parameters" :
   [
    {
     "is_this_ptr" : true,
     "referenced_type" : "type-5"
    },
    {
     "default_arg" : true,
     "referenced_type" : "type-90"
    }
   ],
   "return_type" : "type-75",
   "source_file" : "/external/tinyxml2/tinyxml2.h"
  },
  {
   "access" : "private",
   "function_name" : "tinyxml2::XMLNode::InsertChildPreamble",
   "linker_set_key" : "_ZNK8tinyxml27XMLNode19InsertChildPreambleEPS0_",
   "parameters" :
   [
    {
     "is_this_ptr" : true,
     "referenced_type" : "type-5"
    },
    {
     "referenced_type" : "type-16"
    }
   ],
   "return_type" : "type-60",
   "source_file" : "/external/tinyxml2/tinyxml2.h"
  },
  {
   "function_name" : "tinyxml2::XMLNode::PreviousSiblingElement",
   "linker_set_key" : "_ZNK8tinyxml27XMLNode22PreviousSiblingElementEPKc",
   "parameters" :
   [
    {
     "is_this_ptr" : true,
     "referenced_type" : "type-5"
    },
    {
     "default_arg" : true,
     "referenced_type" : "type-90"
    }
   ],
   "return_type" : "type-75",
   "source_file" : "/external/tinyxml2/tinyxml2.h"
  },
  {
   "function_name" : "tinyxml2::XMLNode::Value",
   "linker_set_key" : "_ZNK8tinyxml27XMLNode5ValueEv",
   "parameters" :
   [
    {
     "is_this_ptr" : true,
     "referenced_type" : "type-5"
    }
   ],
   "return_type" : "type-90",
   "source_file" : "/external/tinyxml2/tinyxml2.h"
  },
  {
   "function_name" : "tinyxml2::XMLNode::DeepClone",
   "linker_set_key" : "_ZNK8tinyxml27XMLNode9DeepCloneEPNS_11XMLDocumentE",
   "parameters" :
   [
    {
     "is_this_ptr" : true,
     "referenced_type" : "type-5"
    },
    {
     "referenced_type" : "type-8"
    }
   ],
   "return_type" : "type-16",
   "source_file" : "/external/tinyxml2/tinyxml2.h"
  },
  {
   "function_name" : "tinyxml2::XMLText::ShallowClone",
   "linker_set_key" : "_ZNK8tinyxml27XMLText12ShallowCloneEPNS_11XMLDocumentE",
   "parameters" :
   [
    {
     "is_this_ptr" : true,
     "referenced_type" : "type-77"
    },
    {
     "referenced_type" : "type-8"
    }
   ],
   "return_type" : "type-16",
   "source_file" : "/external/tinyxml2/tinyxml2.h"
  },
  {
   "function_name" : "tinyxml2::XMLText::ShallowEqual",
   "linker_set_key" : "_ZNK8tinyxml27XMLText12ShallowEqualEPKNS_7XMLNodeE",
   "parameters" :
   [
    {
     "is_this_ptr" : true,
     "referenced_type" : "type-77"
    },
    {
     "referenced_type" : "type-5"
    }
   ],
   "return_type" : "type-10",
   "source_file" : "/external/tinyxml2/tinyxml2.h"
  },
  {
   "function_name" : "tinyxml2::XMLText::Accept",
   "linker_set_key" : "_ZNK8tinyxml27XMLText6AcceptEPNS_10XMLVisitorE",
   "parameters" :
   [
    {
     "is_this_ptr" : true,
     "referenced_type" : "type-77"
    },
    {
     "referenced_type" : "type-153"
    }
   ],
   "return_type" : "type-10",
   "source_file" : "/external/tinyxml2/tinyxml2.h"
  }
 ],
 "global_vars" :
 [
  {
   "access" : "private",
   "linker_set_key" : "_ZN8tinyxml211XMLDocument11_errorNamesE",
   "name" : "tinyxml2::XMLDocument::_errorNames",
   "referenced_type" : "type-98",
   "source_file" : "/external/tinyxml2/tinyxml2.h"
  },
  {
   "access" : "private",
   "linker_set_key" : "_ZN8tinyxml27XMLUtil13writeBoolTrueE",
   "name" : "tinyxml2::XMLUtil::writeBoolTrue",
   "referenced_type" : "type-90",
   "source_file" : "/external/tinyxml2/tinyxml2.h"
  },
  {
   "access" : "private",
   "linker_set_key" : "_ZN8tinyxml27XMLUtil14writeBoolFalseE",
   "name" : "tinyxml2::XMLUtil::writeBoolFalse",
   "referenced_type" : "type-90",
   "source_file" : "/external/tinyxml2/tinyxml2.h"
  }
 ],
 "lvalue_reference_types" :
 [
  {
   "alignment" : 8,
   "linker_set_key" : "const tinyxml2::XMLComment &",
   "name" : "const tinyxml2::XMLComment &",
   "referenced_type" : "type-80",
   "self_type" : "type-162",
   "size" : 8,
   "source_file" : "/external/tinyxml2/tinyxml2.h"
  },
  {
   "alignment" : 8,
   "linker_set_key" : "const tinyxml2::XMLConstHandle &",
   "name" : "const tinyxml2::XMLConstHandle &",
   "referenced_type" : "type-113",
   "self_type" : "type-114",
   "size" : 8,
   "source_file" : "/external/tinyxml2/tinyxml2.h"
  },
  {
   "alignment" : 8,
   "linker_set_key" : "const tinyxml2::XMLDeclaration &",
   "name" : "const tinyxml2::XMLDeclaration &",
   "referenced_type" : "type-82",
   "self_type" : "type-160",
   "size" : 8,
   "source_file" : "/external/tinyxml2/tinyxml2.h"
  },
  {
   "alignment" : 8,
   "linker_set_key" : "const tinyxml2::XMLDocument &",
   "name" : "const tinyxml2::XMLDocument &",
   "referenced_type" : "type-154",
   "self_type" : "type-155",
   "size" : 8,
   "source_file" : "/external/tinyxml2/tinyxml2.h"
  },
  {
   "alignment" : 8,
   "linker_set_key" : "const tinyxml2::XMLElement &",
   "name" : "const tinyxml2::XMLElement &",
   "referenced_type" : "type-76",
   "self_type" : "type-156",
   "size" : 8,
   "source_file" : "/external/tinyxml2/tinyxml2.h"
  },
  {
   "alignment" : 8,
   "linker_set_key" : "const tinyxml2::XMLHandle &",
   "name" : "const tinyxml2::XMLHandle &",
   "referenced_type" : "type-107",
   "self_type" : "type-108",
   "size" : 8,
   "source_file" : "/external/tinyxml2/tinyxml2.h"
  },
  {
   "alignment" : 8,
   "linker_set_key" : "const tinyxml2::XMLNode &",
   "name" : "const tinyxml2::XMLNode &",
   "referenced_type" : "type-6",
   "self_type" : "type-112",
   "size" : 8,
   "source_file" : "/external/tinyxml2/tinyxml2.h"
  },
  {
   "alignment" : 8,
   "linker_set_key" : "const tinyxml2::XMLText &",
   "name" : "const tinyxml2::XMLText &",
   "referenced_type" : "type-78",
   "self_type" : "type-161",
   "size" : 8,
   "source_file" : "/external/tinyxml2/tinyxml2.h"
  },
  {
   "alignment" : 8,
   "linker_set_key" : "const tinyxml2::XMLUnknown &",
   "name" : "const tinyxml2::XMLUnknown &",
   "referenced_type" : "type-84",
   "self_type" : "type-164",
   "size" : 8,
   "source_file" : "/external/tinyxml2/tinyxml2.h"
  },
  {
   "alignment" : 8,
   "linker_set_key" : "tinyxml2::MemPoolT<104> &",
   "name" : "tinyxml2::MemPoolT<104> &",
   "referenced_type" : "type-49",
   "self_type" : "type-101",
   "size" : 8,
   "source_file" : "/external/tinyxml2/tinyxml2.h"
  },
  {
   "alignment" : 8,
   "linker_set_key" : "tinyxml2::MemPoolT<112> &",
   "name" : "tinyxml2::MemPoolT<112> &",
   "referenced_type" : "type-39",
   "self_type" : "type-102",
   "size" : 8,
   "source_file" : "/external/tinyxml2/tinyxml2.h"
  },
  {
   "alignment" : 8,
   "linker_set_key" : "tinyxml2::MemPoolT<120> &",
   "name" : "tinyxml2::MemPoolT<120> &",
   "referenced_type" : "type-18",
   "self_type" : "type-103",
   "size" : 8,
   "source_file" : "/external/tinyxml2/tinyxml2.h"
  },
  {
   "alignment" : 8,
   "linker_set_key" : "tinyxml2::XMLConstHandle &",
   "name" : "tinyxml2::XMLConstHandle &",
   "referenced_type" : "type-110",
   "self_type" : "type-115",
   "size" : 8,
   "source_file" : "/external/tinyxml2/tinyxml2.h"
  },
  {
   "alignment" : 8,
   "linker_set_key" : "tinyxml2::XMLHandle &",
   "name" : "tinyxml2::XMLHandle &",
   "referenced_type" : "type-104",
   "self_type" : "type-109",
   "size" : 8,
   "source_file" : "/external/tinyxml2/tinyxml2.h"
  },
  {
   "alignment" : 8,
   "linker_set_key" : "tinyxml2::XMLNode &",
   "name" : "tinyxml2::XMLNode &",
   "referenced_type" : "type-7",
   "self_type" : "type-106",
   "size" : 8,
   "source_file" : "/external/tinyxml2/tinyxml2.h"
  },
  {
   "alignment" : 8,
   "linker_set_key" : "tinyxml2::XMLNode *&",
   "name" : "tinyxml2::XMLNode *&",
   "referenced_type" : "type-16",
   "self_type" : "type-121",
   "size" : 8,
   "source_file" : "/external/tinyxml2/tinyxml2.h"
  }
 ],
 "pointer_types" :
 [
  {
   "alignment" : 8,
   "linker_set_key" : "__sFILE *",
   "name" : "__sFILE *",
   "referenced_type" : "type-86",
   "self_type" : "type-85",
   "size" : 8,
   "source_file" : "/external/tinyxml2/tinyxml2.h"
  },
  {
   "alignment" : 8,
   "linker_set_key" : "bool *",
   "name" : "bool *",
   "referenced_type" : "type-10",
   "self_type" : "type-167",
   "size" : 8,
   "source_file" : "/external/tinyxml2/tinyxml2.h"
  },
  {
   "alignment" : 8,
   "linker_set_key" : "char *",
   "name" : "char *",
   "referenced_type" : "type-4",
   "self_type" : "type-3",
   "size" : 8,
   "source_file" : "/external/tinyxml2/tinyxml2.h"
  },
  {
   "alignment" : 8,
   "linker_set_key" : "const char *",
   "name" : "const char *",
   "referenced_type" : "type-91",
   "self_type" : "type-90",
   "size" : 8,
   "source_file" : "/external/tinyxml2/tinyxml2.h"
  },
  {
   "alignment" : 8,
   "linker_set_key" : "const char **",
   "name" : "const char **",
   "referenced_type" : "type-90",
   "self_type" : "type-89",
   "size" : 8,
   "source_file" : "/external/tinyxml2/tinyxml2.h"
  },
  {
   "alignment" : 8,
   "linker_set_key" : "const tinyxml2::DynArray<char, 20> *",
   "name" : "const tinyxml2::DynArray<char, 20> *",
   "referenced_type" : "type-138",
   "self_type" : "type-139",
   "size" : 8,
   "source_file" : "/external/tinyxml2/tinyxml2.h"
  },
  {
   "alignment" : 8,
   "linker_set_key" : "const tinyxml2::DynArray<tinyxml2::MemPoolT<104>::Block *, 10> *",
   "name" : "const tinyxml2::DynArray<tinyxml2::MemPoolT<104>::Block *, 10> *",
   "referenced_type" : "type-134",
   "self_type" : "type-135",
   "size" : 8,
   "source_file" : "/external/tinyxml2/tinyxml2.h"
  },
  {
   "alignment" : 8,
   "linker_set_key" : "const tinyxml2::DynArray<tinyxml2::MemPoolT<112>::Block *, 10> *",
   "name" : "const tinyxml2::DynArray<tinyxml2::MemPoolT<112>::Block *, 10> *",
   "referenced_type" : "type-131",
   "self_type" : "type-132",
   "size" : 8,
   "source_file" : "/external/tinyxml2/tinyxml2.h"
  },
  {
   "alignment" : 8,
   "linker_set_key" : "const tinyxml2::DynArray<tinyxml2::MemPoolT<120>::Block *, 10> *",
   "name" : "const tinyxml2::DynArray<tinyxml2::MemPoolT<120>::Block *, 10> *",
   "referenced_type" : "type-125",
   "self_type" : "type-126",
   "size" : 8,
   "source_file" : "/external/tinyxml2/tinyxml2.h"
  },
  {
   "alignment" : 8,
   "linker_set_key" : "const tinyxml2::DynArray<tinyxml2::MemPoolT<80>::Block *, 10> *",
   "name" : "const tinyxml2::DynArray<tinyxml2::MemPoolT<80>::Block *, 10> *",
   "referenced_type" : "type-128",
   "self_type" : "type-129",
   "size" : 8,
   "source_file" : "/external/tinyxml2/tinyxml2.h"
  },
  {
   "alignment" : 8,
   "linker_set_key" : "const tinyxml2::DynArray<tinyxml2::XMLNode *, 10> *",
   "name" : "const tinyxml2::DynArray<tinyxml2::XMLNode *, 10> *",
   "referenced_type" : "type-122",
   "self_type" : "type-123",
   "size" : 8,
   "source_file" : "/external/tinyxml2/tinyxml2.h"
  },
  {
   "alignment" : 8,
   "linker_set_key" : "const tinyxml2::MemPoolT<104> *",
   "name" : "const tinyxml2::MemPoolT<104> *",
   "referenced_type" : "type-151",
   "self_type" : "type-152",
   "size" : 8,
   "source_file" : "/external/tinyxml2/tinyxml2.h"
  },
  {
   "alignment" : 8,
   "linker_set_key" : "const tinyxml2::MemPoolT<112> *",
   "name" : "const tinyxml2::MemPoolT<112> *",
   "referenced_type" : "type-148",
   "self_type" : "type-149",
   "size" : 8,
   "source_file" : "/external/tinyxml2/tinyxml2.h"
  },
  {
   "alignment" : 8,
   "linker_set_key" : "const tinyxml2::MemPoolT<120> *",
   "name" : "const tinyxml2::MemPoolT<120> *",
   "referenced_type" : "type-142",
   "self_type" : "type-143",
   "size" : 8,
   "source_file" : "/external/tinyxml2/tinyxml2.h"
  },
  {
   "alignment" : 8,
   "linker_set_key" : "const tinyxml2::MemPoolT<80> *",
   "name" : "const tinyxml2::MemPoolT<80> *",
   "referenced_type" : "type-145",
   "self_type" : "type-146",
   "size" : 8,
   "source_file" : "/external/tinyxml2/tinyxml2.h"
  },
  {
   "alignment" : 8,
   "linker_set_key" : "const tinyxml2::StrPair *",
   "name" : "const tinyxml2::StrPair *",
   "referenced_type" : "type-159",
   "self_type" : "type-163",
   "size" : 8,
   "source_file" : "/external/tinyxml2/tinyxml2.h"
  },
  {
   "alignment" : 8,
   "linker_set_key" : "const tinyxml2::XMLAttribute *",
   "name" : "const tinyxml2::XMLAttribute *",
   "referenced_type" : "type-157",
   "self_type" : "type-158",
   "size" : 8,
   "source_file" : "/external/tinyxml2/tinyxml2.h"
  },
  {
   "alignment" : 8,
   "linker_set_key" : "const tinyxml2::XMLComment *",
   "name" : "const tinyxml2::XMLComment *",
   "referenced_type" : "type-80",
   "self_type" : "type-79",
   "size" : 8,
   "source_file" : "/external/tinyxml2/tinyxml2.h"
  },
  {
   "alignment" : 8,
   "linker_set_key" : "const tinyxml2::XMLConstHandle *",
   "name" : "const tinyxml2::XMLConstHandle *",
   "referenced_type" : "type-113",
   "self_type" : "type-116",
   "size" : 8,
   "source_file" : "/external/tinyxml2/tinyxml2.h"
  },
  {
   "alignment" : 8,
   "linker_set_key" : "const tinyxml2::XMLDeclaration *",
   "name" : "const tinyxml2::XMLDeclaration *",
   "referenced_type" : "type-82",
   "self_type" : "type-81",
   "size" : 8,
   "source_file" : "/external/tinyxml2/tinyxml2.h"
  },
  {
   "alignment" : 8,
   "linker_set_key" : "const tinyxml2::XMLDocument *",
   "name" : "const tinyxml2::XMLDocument *",
   "referenced_type" : "type-154",
   "self_type" : "type-177",
   "size" : 8,
   "source_file" : "/external/tinyxml2/tinyxml2.h"
  },
  {
   "alignment" : 8,
   "linker_set_key" : "const tinyxml2::XMLElement *",
   "name" : "const tinyxml2::XMLElement *",
   "referenced_type" : "type-76",
   "self_type" : "type-75",
   "size" : 8,
   "source_file" : "/external/tinyxml2/tinyxml2.h"
  },
  {
   "alignment" : 8,
   "linker_set_key" : "const tinyxml2::XMLNode *",
   "name" : "const tinyxml2::XMLNode *",
   "referenced_type" : "type-6",
   "self_type" : "type-5",
   "size" : 8,
   "source_file" : "/external/tinyxml2/tinyxml2.h"
  },
  {
   "alignment" : 8,
   "linker_set_key" : "const tinyxml2::XMLPrinter *",
   "name" : "const tinyxml2::XMLPrinter *",
   "referenced_type" : "type-117",
   "self_type" : "type-118",
   "size" : 8,
   "source_file" : "/external/tinyxml2/tinyxml2.h"
  },
  {
   "alignment" : 8,
   "linker_set_key" : "const tinyxml2::XMLText *",
   "name" : "const tinyxml2::XMLText *",
   "referenced_type" : "type-78",
   "self_type" : "type-77",
   "size" : 8,
   "source_file" : "/external/tinyxml2/tinyxml2.h"
  },
  {
   "alignment" : 8,
   "linker_set_key" : "const tinyxml2::XMLUnknown *",
   "name" : "const tinyxml2::XMLUnknown *",
   "referenced_type" : "type-84",
   "self_type" : "type-83",
   "size" : 8,
   "source_file" : "/external/tinyxml2/tinyxml2.h"
  },
  {
   "alignment" : 8,
   "linker_set_key" : "double *",
   "name" : "double *",
   "referenced_type" : "type-170",
   "self_type" : "type-175",
   "size" : 8,
   "source_file" : "/external/tinyxml2/tinyxml2.h"
  },
  {
   "alignment" : 8,
   "linker_set_key" : "float *",
   "name" : "float *",
   "referenced_type" : "type-169",
   "self_type" : "type-174",
   "size" : 8,
   "source_file" : "/external/tinyxml2/tinyxml2.h"
  },
  {
   "alignment" : 8,
   "linker_set_key" : "int *",
   "name" : "int *",
   "referenced_type" : "type-1",
   "self_type" : "type-171",
   "size" : 8,
   "source_file" : "/external/tinyxml2/tinyxml2.h"
  },
  {
   "alignment" : 8,
   "linker_set_key" : "long *",
   "name" : "long *",
   "referenced_type" : "type-172",
   "self_type" : "type-176",
   "size" : 8,
   "source_file" : "/external/tinyxml2/tinyxml2.h"
  },
  {
   "alignment" : 8,
   "linker_set_key" : "tinyxml2::DynArray<char, 20> *",
   "name" : "tinyxml2::DynArray<char, 20> *",
   "referenced_type" : "type-94",
   "self_type" : "type-137",
   "size" : 8,
   "source_file" : "/external/tinyxml2/tinyxml2.h"
  },
  {
   "alignment" : 8,
   "linker_set_key" : "tinyxml2::DynArray<const char *, 10> *",
   "name" : "tinyxml2::DynArray<const char *, 10> *",
   "referenced_type" : "type-88",
   "self_type" : "type-136",
   "size" : 8,
   "source_file" : "/external/tinyxml2/tinyxml2.h"
  },
  {
   "alignment" : 8,
   "linker_set_key" : "tinyxml2::DynArray<tinyxml2::MemPoolT<104>::Block *, 10> *",
   "name" : "tinyxml2::DynArray<tinyxml2::MemPoolT<104>::Block *, 10> *",
   "referenced_type" : "type-50",
   "self_type" : "type-133",
   "size" : 8,
   "source_file" : "/external/tinyxml2/tinyxml2.h"
  },
  {
   "alignment" : 8,
   "linker_set_key" : "tinyxml2::DynArray<tinyxml2::MemPoolT<112>::Block *, 10> *",
   "name" : "tinyxml2::DynArray<tinyxml2::MemPoolT<112>::Block *, 10> *",
   "referenced_type" : "type-40",
   "self_type" : "type-130",
   "size" : 8,
   "source_file" : "/external/tinyxml2/tinyxml2.h"
  },
  {
   "alignment" : 8,
   "linker_set_key" : "tinyxml2::DynArray<tinyxml2::MemPoolT<120>::Block *, 10> *",
   "name" : "tinyxml2::DynArray<tinyxml2::MemPoolT<120>::Block *, 10> *",
   "referenced_type" : "type-19",
   "self_type" : "type-124",
   "size" : 8,
   "source_file" : "/external/tinyxml2/tinyxml2.h"
  },
  {
   "alignment" : 8,
   "linker_set_key" : "tinyxml2::DynArray<tinyxml2::MemPoolT<80>::Block *, 10> *",
   "name" : "tinyxml2::DynArray<tinyxml2::MemPoolT<80>::Block *, 10> *",
   "referenced_type" : "type-30",
   "self_type" : "type-127",
   "size" : 8,
   "source_file" : "/external/tinyxml2/tinyxml2.h"
  },
  {
   "alignment" : 8,
   "linker_set_key" : "tinyxml2::DynArray<tinyxml2::XMLNode *, 10> *",
   "name" : "tinyxml2::DynArray<tinyxml2::XMLNode *, 10> *",
   "referenced_type" : "type-14",
   "self_type" : "type-119",
   "size" : 8,
   "source_file" : "/external/tinyxml2/tinyxml2.h"
  },
  {
   "alignment" : 8,
   "linker_set_key" : "tinyxml2::MemPool *",
   "name" : "tinyxml2::MemPool *",
   "referenced_type" : "type-28",
   "self_type" : "type-61",
   "size" : 8,
   "source_file" : "/external/tinyxml2/tinyxml2.h"
  },
  {
   "alignment" : 8,
   "linker_set_key" : "tinyxml2::MemPoolT<104> *",
   "name" : "tinyxml2::MemPoolT<104> *",
   "referenced_type" : "type-49",
   "self_type" : "type-150",
   "size" : 8,
   "source_file" : "/external/tinyxml2/tinyxml2.h"
  },
  {
   "alignment" : 8,
   "linker_set_key" : "tinyxml2::MemPoolT<104>::Block *",
   "name" : "tinyxml2::MemPoolT<104>::Block *",
   "referenced_type" : "type-53",
   "self_type" : "type-52",
   "size" : 8,
   "source_file" : "/external/tinyxml2/tinyxml2.h"
  },
  {
   "alignment" : 8,
   "linker_set_key" : "tinyxml2::MemPoolT<104>::Block **",
   "name" : "tinyxml2::MemPoolT<104>::Block **",
   "referenced_type" : "type-52",
   "self_type" : "type-51",
   "size" : 8,
   "source_file" : "/external/tinyxml2/tinyxml2.h"
  },
  {
   "alignment" : 8,
   "linker_set_key" : "tinyxml2::MemPoolT<104>::Item *",
   "name" : "tinyxml2::MemPoolT<104>::Item *",
   "referenced_type" : "type-55",
   "self_type" : "type-56",
   "size" : 8,
   "source_file" : "/external/tinyxml2/tinyxml2.h"
  },
  {
   "alignment" : 8,
   "linker_set_key" : "tinyxml2::MemPoolT<112> *",
   "name" : "tinyxml2::MemPoolT<112> *",
   "referenced_type" : "type-39",
   "self_type" : "type-147",
   "size" : 8,
   "source_file" : "/external/tinyxml2/tinyxml2.h"
  },
  {
   "alignment" : 8,
   "linker_set_key" : "tinyxml2::MemPoolT<112>::Block *",
   "name" : "tinyxml2::MemPoolT<112>::Block *",
   "referenced_type" : "type-43",
   "self_type" : "type-42",
   "size" : 8,
   "source_file" : "/external/tinyxml2/tinyxml2.h"
  },
  {
   "alignment" : 8,
   "linker_set_key" : "tinyxml2::MemPoolT<112>::Block **",
   "name" : "tinyxml2::MemPoolT<112>::Block **",
   "referenced_type" : "type-42",
   "self_type" : "type-41",
   "size" : 8,
   "source_file" : "/external/tinyxml2/tinyxml2.h"
  },
  {
   "alignment" : 8,
   "linker_set_key" : "tinyxml2::MemPoolT<112>::Item *",
   "name" : "tinyxml2::MemPoolT<112>::Item *",
   "referenced_type" : "type-45",
   "self_type" : "type-46",
   "size" : 8,
   "source_file" : "/external/tinyxml2/tinyxml2.h"
  },
  {
   "alignment" : 8,
   "linker_set_key" : "tinyxml2::MemPoolT<120> *",
   "name" : "tinyxml2::MemPoolT<120> *",
   "referenced_type" : "type-18",
   "self_type" : "type-140",
   "size" : 8,
   "source_file" : "/external/tinyxml2/tinyxml2.h"
  },
  {
   "alignment" : 8,
   "linker_set_key" : "tinyxml2::MemPoolT<120>::Block *",
   "name" : "tinyxml2::MemPoolT<120>::Block *",
   "referenced_type" : "type-22",
   "self_type" : "type-21",
   "size" : 8,
   "source_file" : "/external/tinyxml2/tinyxml2.h"
  },
  {
   "alignment" : 8,
   "linker_set_key" : "tinyxml2::MemPoolT<120>::Block **",
   "name" : "tinyxml2::MemPoolT<120>::Block **",
   "referenced_type" : "type-21",
   "self_type" : "type-20",
   "size" : 8,
   "source_file" : "/external/tinyxml2/tinyxml2.h"
  },
  {
   "alignment" : 8,
   "linker_set_key" : "tinyxml2::MemPoolT<120>::Item *",
   "name" : "tinyxml2::MemPoolT<120>::Item *",
   "referenced_type" : "type-24",
   "self_type" : "type-25",
   "size" : 8,
   "source_file" : "/external/tinyxml2/tinyxml2.h"
  },
  {
   "alignment" : 8,
   "linker_set_key" : "tinyxml2::MemPoolT<80> *",
   "name" : "tinyxml2::MemPoolT<80> *",
   "referenced_type" : "type-29",
   "self_type" : "type-144",
   "size" : 8,
   "source_file" : "/external/tinyxml2/tinyxml2.h"
  },
  {
   "alignment" : 8,
   "linker_set_key" : "tinyxml2::MemPoolT<80>::Block *",
   "name" : "tinyxml2::MemPoolT<80>::Block *",
   "referenced_type" : "type-33",
   "self_type" : "type-32",
   "size" : 8,
   "source_file" : "/external/tinyxml2/tinyxml2.h"
  },
  {
   "alignment" : 8,
   "linker_set_key" : "tinyxml2::MemPoolT<80>::Block **",
   "name" : "tinyxml2::MemPoolT<80>::Block **",
   "referenced_type" : "type-32",
   "self_type" : "type-31",
   "size" : 8,
   "source_file" : "/external/tinyxml2/tinyxml2.h"
  },
  {
   "alignment" : 8,
   "linker_set_key" : "tinyxml2::MemPoolT<80>::Item *",
   "name" : "tinyxml2::MemPoolT<80>::Item *",
   "referenced_type" : "type-35",
   "self_type" : "type-36",
   "size" : 8,
   "source_file" : "/external/tinyxml2/tinyxml2.h"
  },
  {
   "alignment" : 8,
   "linker_set_key" : "tinyxml2::StrPair *",
   "name" : "tinyxml2::StrPair *",
   "referenced_type" : "type-2",
   "self_type" : "type-141",
   "size" : 8,
   "source_file" : "/external/tinyxml2/tinyxml2.h"
  },
  {
   "alignment" : 8,
   "linker_set_key" : "tinyxml2::XMLAttribute *",
   "name" : "tinyxml2::XMLAttribute *",
   "referenced_type" : "type-66",
   "self_type" : "type-65",
   "size" : 8,
   "source_file" : "/external/tinyxml2/tinyxml2.h"
  },
  {
   "alignment" : 8,
   "linker_set_key" : "tinyxml2::XMLComment *",
   "name" : "tinyxml2::XMLComment *",
   "referenced_type" : "type-70",
   "self_type" : "type-69",
   "size" : 8,
   "source_file" : "/external/tinyxml2/tinyxml2.h"
  },
  {
   "alignment" : 8,
   "linker_set_key" : "tinyxml2::XMLConstHandle *",
   "name" : "tinyxml2::XMLConstHandle *",
   "referenced_type" : "type-110",
   "self_type" : "type-111",
   "size" : 8,
   "source_file" : "/external/tinyxml2/tinyxml2.h"
  },
  {
   "alignment" : 8,
   "linker_set_key" : "tinyxml2::XMLDeclaration *",
   "name" : "tinyxml2::XMLDeclaration *",
   "referenced_type" : "type-72",
   "self_type" : "type-71",
   "size" : 8,
   "source_file" : "/external/tinyxml2/tinyxml2.h"
  },
  {
   "alignment" : 8,
   "linker_set_key" : "tinyxml2::XMLDocument *",
   "name" : "tinyxml2::XMLDocument *",
   "referenced_type" : "type-9",
   "self_type" : "type-8",
   "size" : 8,
   "source_file" : "/external/tinyxml2/tinyxml2.h"
  },
  {
   "alignment" : 8,
   "linker_set_key" : "tinyxml2::XMLDocument::DepthTracker *",
   "name" : "tinyxml2::XMLDocument::DepthTracker *",
   "referenced_type" : "type-99",
   "self_type" : "type-100",
   "size" : 8,
   "source_file" : "/external/tinyxml2/tinyxml2.h"
  },
  {
   "alignment" : 8,
   "linker_set_key" : "tinyxml2::XMLElement *",
   "name" : "tinyxml2::XMLElement *",
   "referenced_type" : "type-63",
   "self_type" : "type-62",
   "size" : 8,
   "source_file" : "/external/tinyxml2/tinyxml2.h"
  },
  {
   "alignment" : 8,
   "linker_set_key" : "tinyxml2::XMLHandle *",
   "name" : "tinyxml2::XMLHandle *",
   "referenced_type" : "type-104",
   "self_type" : "type-105",
   "size" : 8,
   "source_file" : "/external/tinyxml2/tinyxml2.h"
  },
  {
   "alignment" : 8,
   "linker_set_key" : "tinyxml2::XMLNode *",
   "name" : "tinyxml2::XMLNode *",
   "referenced_type" : "type-7",
   "self_type" : "type-16",
   "size" : 8,
   "source_file" : "/external/tinyxml2/tinyxml2.h"
  },
  {
   "alignment" : 8,
   "linker_set_key" : "tinyxml2::XMLNode **",
   "name" : "tinyxml2::XMLNode **",
   "referenced_type" : "type-16",
   "self_type" : "type-15",
   "size" : 8,
   "source_file" : "/external/tinyxml2/tinyxml2.h"
  },
  {
   "alignment" : 8,
   "linker_set_key" : "tinyxml2::XMLPrinter *",
   "name" : "tinyxml2::XMLPrinter *",
   "referenced_type" : "type-87",
   "self_type" : "type-97",
   "size" : 8,
   "source_file" : "/external/tinyxml2/tinyxml2.h"
  },
  {
   "alignment" : 8,
   "linker_set_key" : "tinyxml2::XMLText *",
   "name" : "tinyxml2::XMLText *",
   "referenced_type" : "type-68",
   "self_type" : "type-67",
   "size" : 8,
   "source_file" : "/external/tinyxml2/tinyxml2.h"
  },
  {
   "alignment" : 8,
   "linker_set_key" : "tinyxml2::XMLUnknown *",
   "name" : "tinyxml2::XMLUnknown *",
   "referenced_type" : "type-74",
   "self_type" : "type-73",
   "size" : 8,
   "source_file" : "/external/tinyxml2/tinyxml2.h"
  },
  {
   "alignment" : 8,
   "linker_set_key" : "tinyxml2::XMLVisitor *",
   "name" : "tinyxml2::XMLVisitor *",
   "referenced_type" : "type-96",
   "self_type" : "type-153",
   "size" : 8,
   "source_file" : "/external/tinyxml2/tinyxml2.h"
  },
  {
   "alignment" : 8,
   "linker_set_key" : "unsigned int *",
   "name" : "unsigned int *",
   "referenced_type" : "type-12",
   "self_type" : "type-173",
   "size" : 8,
   "source_file" : "/external/tinyxml2/tinyxml2.h"
  },
  {
   "alignment" : 8,
   "linker_set_key" : "void *",
   "name" : "void *",
   "referenced_type" : "type-60",
   "self_type" : "type-59",
   "size" : 8,
   "source_file" : "/external/tinyxml2/tinyxml2.h"
  }
 ],
 "qualified_types" :
 [
  {
   "alignment" : 1,
   "is_const" : true,
   "linker_set_key" : "const char",
   "name" : "const char",
   "referenced_type" : "type-4",
   "self_type" : "type-91",
   "size" : 1,
   "source_file" : "/external/tinyxml2/tinyxml2.h"
  },
  {
   "alignment" : 4,
   "is_const" : true,
   "linker_set_key" : "const int",
   "name" : "const int",
   "referenced_type" : "type-1",
   "self_type" : "type-120",
   "size" : 4,
   "source_file" : "/external/tinyxml2/tinyxml2.h"
  },
  {
   "alignment" : 8,
   "is_const" : true,
   "linker_set_key" : "const tinyxml2::DynArray<char, 20>",
   "name" : "const tinyxml2::DynArray<char, 20>",
   "referenced_type" : "type-94",
   "self_type" : "type-138",
   "size" : 40,
   "source_file" : "/external/tinyxml2/tinyxml2.h"
  },
  {
   "alignment" : 8,
   "is_const" : true,
   "linker_set_key" : "const tinyxml2::DynArray<tinyxml2::MemPoolT<104>::Block *, 10>",
   "name" : "const tinyxml2::DynArray<tinyxml2::MemPoolT<104>::Block *, 10>",
   "referenced_type" : "type-50",
   "self_type" : "type-134",
   "size" : 96,
   "source_file" : "/external/tinyxml2/tinyxml2.h"
  },
  {
   "alignment" : 8,
   "is_const" : true,
   "linker_set_key" : "const tinyxml2::DynArray<tinyxml2::MemPoolT<112>::Block *, 10>",
   "name" : "const tinyxml2::DynArray<tinyxml2::MemPoolT<112>::Block *, 10>",
   "referenced_type" : "type-40",
   "self_type" : "type-131",
   "size" : 96,
   "source_file" : "/external/tinyxml2/tinyxml2.h"
  },
  {
   "alignment" : 8,
   "is_const" : true,
   "linker_set_key" : "const tinyxml2::DynArray<tinyxml2::MemPoolT<120>::Block *, 10>",
   "name" : "const tinyxml2::DynArray<tinyxml2::MemPoolT<120>::Block *, 10>",
   "referenced_type" : "type-19",
   "self_type" : "type-125",
   "size" : 96,
   "source_file" : "/external/tinyxml2/tinyxml2.h"
  },
  {
   "alignment" : 8,
   "is_const" : true,
   "linker_set_key" : "const tinyxml2::DynArray<tinyxml2::MemPoolT<80>::Block *, 10>",
   "name" : "const tinyxml2::DynArray<tinyxml2::MemPoolT<80>::Block *, 10>",
   "referenced_type" : "type-30",
   "self_type" : "type-128",
   "size" : 96,
   "source_file" : "/external/tinyxml2/tinyxml2.h"
  },
  {
   "alignment" : 8,
   "is_const" : true,
   "linker_set_key" : "const tinyxml2::DynArray<tinyxml2::XMLNode *, 10>",
   "name" : "const tinyxml2::DynArray<tinyxml2::XMLNode *, 10>",
   "referenced_type" : "type-14",
   "self_type" : "type-122",
   "size" : 96,
   "source_file" : "/external/tinyxml2/tinyxml2.h"
  },
  {
   "alignment" : 8,
   "is_const" : true,
   "linker_set_key" : "const tinyxml2::MemPoolT<104>",
   "name" : "const tinyxml2::MemPoolT<104>",
   "referenced_type" : "type-49",
   "self_type" : "type-151",
   "size" : 128,
   "source_file" : "/external/tinyxml2/tinyxml2.h"
  },
  {
   "alignment" : 8,
   "is_const" : true,
   "linker_set_key" : "const tinyxml2::MemPoolT<112>",
   "name" : "const tinyxml2::MemPoolT<112>",
   "referenced_type" : "type-39",
   "self_type" : "type-148",
   "size" : 128,
   "source_file" : "/external/tinyxml2/tinyxml2.h"
  },
  {
   "alignment" : 8,
   "is_const" : true,
   "linker_set_key" : "const tinyxml2::MemPoolT<120>",
   "name" : "const tinyxml2::MemPoolT<120>",
   "referenced_type" : "type-18",
   "self_type" : "type-142",
   "size" : 128,
   "source_file" : "/external/tinyxml2/tinyxml2.h"
  },
  {
   "alignment" : 8,
   "is_const" : true,
   "linker_set_key" : "const tinyxml2::MemPoolT<80>",
   "name" : "const tinyxml2::MemPoolT<80>",
   "referenced_type" : "type-29",
   "self_type" : "type-145",
   "size" : 128,
   "source_file" : "/external/tinyxml2/tinyxml2.h"
  },
  {
   "alignment" : 8,
   "is_const" : true,
   "linker_set_key" : "const tinyxml2::StrPair",
   "name" : "const tinyxml2::StrPair",
   "referenced_type" : "type-2",
   "self_type" : "type-159",
   "size" : 24,
   "source_file" : "/external/tinyxml2/tinyxml2.h"
  },
  {
   "alignment" : 8,
   "is_const" : true,
   "linker_set_key" : "const tinyxml2::XMLAttribute",
   "name" : "const tinyxml2::XMLAttribute",
   "referenced_type" : "type-66",
   "self_type" : "type-157",
   "size" : 80,
   "source_file" : "/external/tinyxml2/tinyxml2.h"
  },
  {
   "alignment" : 8,
   "is_const" : true,
   "linker_set_key" : "const tinyxml2::XMLComment",
   "name" : "const tinyxml2::XMLComment",
   "referenced_type" : "type-70",
   "self_type" : "type-80",
   "size" : 104,
   "source_file" : "/external/tinyxml2/tinyxml2.h"
  },
  {
   "alignment" : 8,
   "is_const" : true,
   "linker_set_key" : "const tinyxml2::XMLConstHandle",
   "name" : "const tinyxml2::XMLConstHandle",
   "referenced_type" : "type-110",
   "self_type" : "type-113",
   "size" : 8,
   "source_file" : "/external/tinyxml2/tinyxml2.h"
  },
  {
   "alignment" : 8,
   "is_const" : true,
   "linker_set_key" : "const tinyxml2::XMLDeclaration",
   "name" : "const tinyxml2::XMLDeclaration",
   "referenced_type" : "type-72",
   "self_type" : "type-82",
   "size" : 104,
   "source_file" : "/external/tinyxml2/tinyxml2.h"
  },
  {
   "alignment" : 8,
   "is_const" : true,
   "linker_set_key" : "const tinyxml2::XMLDocument",
   "name" : "const tinyxml2::XMLDocument",
   "referenced_type" : "type-9",
   "self_type" : "type-154",
   "size" : 776,
   "source_file" : "/external/tinyxml2/tinyxml2.h"
  },
  {
   "alignment" : 8,
   "is_const" : true,
   "linker_set_key" : "const tinyxml2::XMLElement",
   "name" : "const tinyxml2::XMLElement",
   "referenced_type" : "type-63",
   "self_type" : "type-76",
   "size" : 120,
   "source_file" : "/external/tinyxml2/tinyxml2.h"
  },
  {
   "alignment" : 8,
   "is_const" : true,
   "linker_set_key" : "const tinyxml2::XMLHandle",
   "name" : "const tinyxml2::XMLHandle",
   "referenced_type" : "type-104",
   "self_type" : "type-107",
   "size" : 8,
   "source_file" : "/external/tinyxml2/tinyxml2.h"
  },
  {
   "alignment" : 8,
   "is_const" : true,
   "linker_set_key" : "const tinyxml2::XMLNode",
   "name" : "const tinyxml2::XMLNode",
   "referenced_type" : "type-7",
   "self_type" : "type-6",
   "size" : 104,
   "source_file" : "/external/tinyxml2/tinyxml2.h"
  },
  {
   "alignment" : 8,
   "is_const" : true,
   "linker_set_key" : "const tinyxml2::XMLPrinter",
   "name" : "const tinyxml2::XMLPrinter",
   "referenced_type" : "type-87",
   "self_type" : "type-117",
   "size" : 312,
   "source_file" : "/external/tinyxml2/tinyxml2.h"
  },
  {
   "alignment" : 8,
   "is_const" : true,
   "linker_set_key" : "const tinyxml2::XMLText",
   "name" : "const tinyxml2::XMLText",
   "referenced_type" : "type-68",
   "self_type" : "type-78",
   "size" : 112,
   "source_file" : "/external/tinyxml2/tinyxml2.h"
  },
  {
   "alignment" : 8,
   "is_const" : true,
   "linker_set_key" : "const tinyxml2::XMLUnknown",
   "name" : "const tinyxml2::XMLUnknown",
   "referenced_type" : "type-74",
   "self_type" : "type-84",
   "size" : 104,
   "source_file" : "/external/tinyxml2/tinyxml2.h"
  }
 ],
 "record_types" :
 [
  {
   "alignment" : 8,
   "fields" :
   [
    {
     "access" : "private",
     "field_name" : "_mem",
     "referenced_type" : "type-3"
    },
    {
     "access" : "private",
     "field_name" : "_pool",
     "field_offset" : 64,
     "referenced_type" : "type-95"
    },
    {
     "access" : "private",
     "field_name" : "_allocated",
     "field_offset" : 224,
     "referenced_type" : "type-1"
    },
    {
     "access" : "private",
     "field_name" : "_size",
     "field_offset" : 256,
     "referenced_type" : "type-1"
    }
   ],
   "linker_set_key" : "tinyxml2::DynArray<char, 20>",
   "name" : "tinyxml2::DynArray<char, 20>",
   "record_kind" : "class",
   "referenced_type" : "type-94",
   "self_type" : "type-94",
   "size" : 40,
   "source_file" : "/external/tinyxml2/tinyxml2.h",
   "template_args" : [ "type-4" ],
   "unique_id" : "_ZTSN8tinyxml28DynArrayIcLi20EEE"
  },
  {
   "alignment" : 8,
   "fields" :
   [
    {
     "access" : "private",
     "field_name" : "_mem",
     "referenced_type" : "type-89"
    },
    {
     "access" : "private",
     "field_name" : "_pool",
     "field_offset" : 64,
     "referenced_type" : "type-92"
    },
    {
     "access" : "private",
     "field_name" : "_allocated",
     "field_offset" : 704,
     "referenced_type" : "type-1"
    },
    {
     "access" : "private",
     "field_name" : "_size",
     "field_offset" : 736,
     "referenced_type" : "type-1"
    }
   ],
   "linker_set_key" : "tinyxml2::DynArray<const char *, 10>",
   "name" : "tinyxml2::DynArray<const char *, 10>",
   "record_kind" : "class",
   "referenced_type" : "type-88",
   "self_type" : "type-88",
   "size" : 96,
   "source_file" : "/external/tinyxml2/tinyxml2.h",
   "template_args" : [ "type-90" ],
   "unique_id" : "_ZTSN8tinyxml28DynArrayIPKcLi10EEE"
  },
  {
   "alignment" : 8,
   "fields" :
   [
    {
     "access" : "private",
     "field_name" : "_mem",
     "referenced_type" : "type-51"
    },
    {
     "access" : "private",
     "field_name" : "_pool",
     "field_offset" : 64,
     "referenced_type" : "type-58"
    },
    {
     "access" : "private",
     "field_name" : "_allocated",
     "field_offset" : 704,
     "referenced_type" : "type-1"
    },
    {
     "access" : "private",
     "field_name" : "_size",
     "field_offset" : 736,
     "referenced_type" : "type-1"
    }
   ],
   "linker_set_key" : "tinyxml2::DynArray<tinyxml2::MemPoolT<104>::Block *, 10>",
   "name" : "tinyxml2::DynArray<tinyxml2::MemPoolT<104>::Block *, 10>",
   "record_kind" : "class",
   "referenced_type" : "type-50",
   "self_type" : "type-50",
   "size" : 96,
   "source_file" : "/external/tinyxml2/tinyxml2.h",
   "template_args" : [ "type-52" ],
   "unique_id" : "_ZTSN8tinyxml28DynArrayIPNS_8MemPoolTILi104EE5BlockELi10EEE"
  },
  {
   "alignment" : 8,
   "fields" :
   [
    {
     "access" : "private",
     "field_name" : "_mem",
     "referenced_type" : "type-41"
    },
    {
     "access" : "private",
     "field_name" : "_pool",
     "field_offset" : 64,
     "referenced_type" : "type-48"
    },
    {
     "access" : "private",
     "field_name" : "_allocated",
     "field_offset" : 704,
     "referenced_type" : "type-1"
    },
    {
     "access" : "private",
     "field_name" : "_size",
     "field_offset" : 736,
     "referenced_type" : "type-1"
    }
   ],
   "linker_set_key" : "tinyxml2::DynArray<tinyxml2::MemPoolT<112>::Block *, 10>",
   "name" : "tinyxml2::DynArray<tinyxml2::MemPoolT<112>::Block *, 10>",
   "record_kind" : "class",
   "referenced_type" : "type-40",
   "self_type" : "type-40",
   "size" : 96,
   "source_file" : "/external/tinyxml2/tinyxml2.h",
   "template_args" : [ "type-42" ],
   "unique_id" : "_ZTSN8tinyxml28DynArrayIPNS_8MemPoolTILi112EE5BlockELi10EEE"
  },
  {
   "alignment" : 8,
   "fields" :
   [
    {
     "access" : "private",
     "field_name" : "_mem",
     "referenced_type" : "type-20"
    },
    {
     "access" : "private",
     "field_name" : "_pool",
     "field_offset" : 64,
     "referenced_type" : "type-27"
    },
    {
     "access" : "private",
     "field_name" : "_allocated",
     "field_offset" : 704,
     "referenced_type" : "type-1"
    },
    {
     "access" : "private",
     "field_name" : "_size",
     "field_offset" : 736,
     "referenced_type" : "type-1"
    }
   ],
   "linker_set_key" : "tinyxml2::DynArray<tinyxml2::MemPoolT<120>::Block *, 10>",
   "name" : "tinyxml2::DynArray<tinyxml2::MemPoolT<120>::Block *, 10>",
   "record_kind" : "class",
   "referenced_type" : "type-19",
   "self_type" : "type-19",
   "size" : 96,
   "source_file" : "/external/tinyxml2/tinyxml2.h",
   "template_args" : [ "type-21" ],
   "unique_id" : "_ZTSN8tinyxml28DynArrayIPNS_8MemPoolTILi120EE5BlockELi10EEE"
  },
  {
   "alignment" : 8,
   "fields" :
   [
    {
     "access" : "private",
     "field_name" : "_mem",
     "referenced_type" : "type-31"
    },
    {
     "access" : "private",
     "field_name" : "_pool",
     "field_offset" : 64,
     "referenced_type" : "type-38"
    },
    {
     "access" : "private",
     "field_name" : "_allocated",
     "field_offset" : 704,
     "referenced_type" : "type-1"
    },
    {
     "access" : "private",
     "field_name" : "_size",
     "field_offset" : 736,
     "referenced_type" : "type-1"
    }
   ],
   "linker_set_key" : "tinyxml2::DynArray<tinyxml2::MemPoolT<80>::Block *, 10>",
   "name" : "tinyxml2::DynArray<tinyxml2::MemPoolT<80>::Block *, 10>",
   "record_kind" : "class",
   "referenced_type" : "type-30",
   "self_type" : "type-30",
   "size" : 96,
   "source_file" : "/external/tinyxml2/tinyxml2.h",
   "template_args" : [ "type-32" ],
   "unique_id" : "_ZTSN8tinyxml28DynArrayIPNS_8MemPoolTILi80EE5BlockELi10EEE"
  },
  {
   "alignment" : 8,
   "fields" :
   [
    {
     "access" : "private",
     "field_name" : "_mem",
     "referenced_type" : "type-15"
    },
    {
     "access" : "private",
     "field_name" : "_pool",
     "field_offset" : 64,
     "referenced_type" : "type-17"
    },
    {
     "access" : "private",
     "field_name" : "_allocated",
     "field_offset" : 704,
     "referenced_type" : "type-1"
    },
    {
     "access" : "private",
     "field_name" : "_size",
     "field_offset" : 736,
     "referenced_type" : "type-1"
    }
   ],
   "linker_set_key" : "tinyxml2::DynArray<tinyxml2::XMLNode *, 10>",
   "name" : "tinyxml2::DynArray<tinyxml2::XMLNode *, 10>",
   "record_kind" : "class",
   "referenced_type" : "type-14",
   "self_type" : "type-14",
   "size" : 96,
   "source_file" : "/external/tinyxml2/tinyxml2.h",
   "template_args" : [ "type-16" ],
   "unique_id" : "_ZTSN8tinyxml28DynArrayIPNS_7XMLNodeELi10EEE"
  },
  {
   "alignment" : 8,
   "linker_set_key" : "tinyxml2::MemPool",
   "name" : "tinyxml2::MemPool",
   "record_kind" : "class",
   "referenced_type" : "type-28",
   "self_type" : "type-28",
   "size" : 8,
   "source_file" : "/external/tinyxml2/tinyxml2.h",
   "unique_id" : "_ZTSN8tinyxml27MemPoolE",
   "vtable_components" :
   [
    {
     "kind" : "offset_to_top"
    },
    {
     "kind" : "rtti",
     "mangled_component_name" : "_ZTIN8tinyxml27MemPoolE"
    },
    {
     "kind" : "complete_dtor_pointer",
     "mangled_component_name" : "_ZN8tinyxml27MemPoolD1Ev"
    },
    {
     "kind" : "deleting_dtor_pointer",
     "mangled_component_name" : "_ZN8tinyxml27MemPoolD0Ev"
    },
    {
     "is_pure" : true,
     "mangled_component_name" : "_ZNK8tinyxml27MemPool8ItemSizeEv"
    },
    {
     "is_pure" : true,
     "mangled_component_name" : "_ZN8tinyxml27MemPool5AllocEv"
    },
    {
     "is_pure" : true,
     "mangled_component_name" : "_ZN8tinyxml27MemPool4FreeEPv"
    },
    {
     "is_pure" : true,
     "mangled_component_name" : "_ZN8tinyxml27MemPool10SetTrackedEv"
    }
   ]
  },
  {
   "alignment" : 8,
   "base_specifiers" :
   [
    {
     "referenced_type" : "type-28"
    }
   ],
   "fields" :
   [
    {
     "access" : "private",
     "field_name" : "_blockPtrs",
     "field_offset" : 64,
     "referenced_type" : "type-50"
    },
    {
     "access" : "private",
     "field_name" : "_root",
     "field_offset" : 832,
     "referenced_type" : "type-56"
    },
    {
     "access" : "private",
     "field_name" : "_currentAllocs",
     "field_offset" : 896,
     "referenced_type" : "type-1"
    },
    {
     "access" : "private",
     "field_name" : "_nAllocs",
     "field_offset" : 928,
     "referenced_type" : "type-1"
    },
    {
     "access" : "private",
     "field_name" : "_maxAllocs",
     "field_offset" : 960,
     "referenced_type" : "type-1"
    },
    {
     "access" : "private",
     "field_name" : "_nUntracked",
     "field_offset" : 992,
     "referenced_type" : "type-1"
    }
   ],
   "linker_set_key" : "tinyxml2::MemPoolT<104>",
   "name" : "tinyxml2::MemPoolT<104>",
   "record_kind" : "class",
   "referenced_type" : "type-49",
   "self_type" : "type-49",
   "size" : 128,
   "source_file" : "/external/tinyxml2/tinyxml2.h",
   "unique_id" : "_ZTSN8tinyxml28MemPoolTILi104EEE",
   "vtable_components" :
   [
    {
     "kind" : "offset_to_top"
    },
    {
     "kind" : "rtti",
     "mangled_component_name" : "_ZTIN8tinyxml28MemPoolTILi104EEE"
    },
    {
     "kind" : "complete_dtor_pointer",
     "mangled_component_name" : "_ZN8tinyxml28MemPoolTILi104EED1Ev"
    },
    {
     "kind" : "deleting_dtor_pointer",
     "mangled_component_name" : "_ZN8tinyxml28MemPoolTILi104EED0Ev"
    },
    {
     "mangled_component_name" : "_ZNK8tinyxml28MemPoolTILi104EE8ItemSizeEv"
    },
    {
     "mangled_component_name" : "_ZN8tinyxml28MemPoolTILi104EE5AllocEv"
    },
    {
     "mangled_component_name" : "_ZN8tinyxml28MemPoolTILi104EE4FreeEPv"
    },
    {
     "mangled_component_name" : "_ZN8tinyxml28MemPoolTILi104EE10SetTrackedEv"
    }
   ]
  },
  {
   "access" : "private",
   "alignment" : 8,
   "fields" :
   [
    {
     "field_name" : "items",
     "referenced_type" : "type-54"
    }
   ],
   "linker_set_key" : "tinyxml2::MemPoolT<104>::Block",
   "name" : "tinyxml2::MemPoolT<104>::Block",
   "referenced_type" : "type-53",
   "self_type" : "type-53",
   "size" : 4056,
   "source_file" : "/external/tinyxml2/tinyxml2.h",
   "unique_id" : "_ZTSN8tinyxml28MemPoolTILi104EE5BlockE"
  },
  {
   "access" : "private",
   "alignment" : 8,
   "fields" :
   [
    {
     "field_name" : "next",
     "referenced_type" : "type-56"
    },
    {
     "field_name" : "itemData",
     "referenced_type" : "type-57"
    }
   ],
   "linker_set_key" : "tinyxml2::MemPoolT<104>::Item",
   "name" : "tinyxml2::MemPoolT<104>::Item",
   "record_kind" : "union",
   "referenced_type" : "type-55",
   "self_type" : "type-55",
   "size" : 104,
   "source_file" : "/external/tinyxml2/tinyxml2.h",
   "unique_id" : "_ZTSN8tinyxml28MemPoolTILi104EE4ItemE"
  },
  {
   "alignment" : 8,
   "base_specifiers" :
   [
    {
     "referenced_type" : "type-28"
    }
   ],
   "fields" :
   [
    {
     "access" : "private",
     "field_name" : "_blockPtrs",
     "field_offset" : 64,
     "referenced_type" : "type-40"
    },
    {
     "access" : "private",
     "field_name" : "_root",
     "field_offset" : 832,
     "referenced_type" : "type-46"
    },
    {
     "access" : "private",
     "field_name" : "_currentAllocs",
     "field_offset" : 896,
     "referenced_type" : "type-1"
    },
    {
     "access" : "private",
     "field_name" : "_nAllocs",
     "field_offset" : 928,
     "referenced_type" : "type-1"
    },
    {
     "access" : "private",
     "field_name" : "_maxAllocs",
     "field_offset" : 960,
     "referenced_type" : "type-1"
    },
    {
     "access" : "private",
     "field_name" : "_nUntracked",
     "field_offset" : 992,
     "referenced_type" : "type-1"
    }
   ],
   "linker_set_key" : "tinyxml2::MemPoolT<112>",
   "name" : "tinyxml2::MemPoolT<112>",
   "record_kind" : "class",
   "referenced_type" : "type-39",
   "self_type" : "type-39",
   "size" : 128,
   "source_file" : "/external/tinyxml2/tinyxml2.h",
   "unique_id" : "_ZTSN8tinyxml28MemPoolTILi112EEE",
   "vtable_components" :
   [
    {
     "kind" : "offset_to_top"
    },
    {
     "kind" : "rtti",
     "mangled_component_name" : "_ZTIN8tinyxml28MemPoolTILi112EEE"
    },
    {
     "kind" : "complete_dtor_pointer",
     "mangled_component_name" : "_ZN8tinyxml28MemPoolTILi112EED1Ev"
    },
    {
     "kind" : "deleting_dtor_pointer",
     "mangled_component_name" : "_ZN8tinyxml28MemPoolTILi112EED0Ev"
    },
    {
     "mangled_component_name" : "_ZNK8tinyxml28MemPoolTILi112EE8ItemSizeEv"
    },
    {
     "mangled_component_name" : "_ZN8tinyxml28MemPoolTILi112EE5AllocEv"
    },
    {
     "mangled_component_name" : "_ZN8tinyxml28MemPoolTILi112EE4FreeEPv"
    },
    {
     "mangled_component_name" : "_ZN8tinyxml28MemPoolTILi112EE10SetTrackedEv"
    }
   ]
  },
  {
   "access" : "private",
   "alignment" : 8,
   "fields" :
   [
    {
     "field_name" : "items",
     "referenced_type" : "type-44"
    }
   ],
   "linker_set_key" : "tinyxml2::MemPoolT<112>::Block",
   "name" : "tinyxml2::MemPoolT<112>::Block",
   "referenced_type" : "type-43",
   "self_type" : "type-43",
   "size" : 4032,
   "source_file" : "/external/tinyxml2/tinyxml2.h",
   "unique_id" : "_ZTSN8tinyxml28MemPoolTILi112EE5BlockE"
  },
  {
   "access" : "private",
   "alignment" : 8,
   "fields" :
   [
    {
     "field_name" : "next",
     "referenced_type" : "type-46"
    },
    {
     "field_name" : "itemData",
     "referenced_type" : "type-47"
    }
   ],
   "linker_set_key" : "tinyxml2::MemPoolT<112>::Item",
   "name" : "tinyxml2::MemPoolT<112>::Item",
   "record_kind" : "union",
   "referenced_type" : "type-45",
   "self_type" : "type-45",
   "size" : 112,
   "source_file" : "/external/tinyxml2/tinyxml2.h",
   "unique_id" : "_ZTSN8tinyxml28MemPoolTILi112EE4ItemE"
  },
  {
   "alignment" : 8,
   "base_specifiers" :
   [
    {
     "referenced_type" : "type-28"
    }
   ],
   "fields" :
   [
    {
     "access" : "private",
     "field_name" : "_blockPtrs",
     "field_offset" : 64,
     "referenced_type" : "type-19"
    },
    {
     "access" : "private",
     "field_name" : "_root",
     "field_offset" : 832,
     "referenced_type" : "type-25"
    },
    {
     "access" : "private",
     "field_name" : "_currentAllocs",
     "field_offset" : 896,
     "referenced_type" : "type-1"
    },
    {
     "access" : "private",
     "field_name" : "_nAllocs",
     "field_offset" : 928,
     "referenced_type" : "type-1"
    },
    {
     "access" : "private",
     "field_name" : "_maxAllocs",
     "field_offset" : 960,
     "referenced_type" : "type-1"
    },
    {
     "access" : "private",
     "field_name" : "_nUntracked",
     "field_offset" : 992,
     "referenced_type" : "type-1"
    }
   ],
   "linker_set_key" : "tinyxml2::MemPoolT<120>",
   "name" : "tinyxml2::MemPoolT<120>",
   "record_kind" : "class",
   "referenced_type" : "type-18",
   "self_type" : "type-18",
   "size" : 128,
   "source_file" : "/external/tinyxml2/tinyxml2.h",
   "unique_id" : "_ZTSN8tinyxml28MemPoolTILi120EEE",
   "vtable_components" :
   [
    {
     "kind" : "offset_to_top"
    },
    {
     "kind" : "rtti",
     "mangled_component_name" : "_ZTIN8tinyxml28MemPoolTILi120EEE"
    },
    {
     "kind" : "complete_dtor_pointer",
     "mangled_component_name" : "_ZN8tinyxml28MemPoolTILi120EED1Ev"
    },
    {
     "kind" : "deleting_dtor_pointer",
     "mangled_component_name" : "_ZN8tinyxml28MemPoolTILi120EED0Ev"
    },
    {
     "mangled_component_name" : "_ZNK8tinyxml28MemPoolTILi120EE8ItemSizeEv"
    },
    {
     "mangled_component_name" : "_ZN8tinyxml28MemPoolTILi120EE5AllocEv"
    },
    {
     "mangled_component_name" : "_ZN8tinyxml28MemPoolTILi120EE4FreeEPv"
    },
    {
     "mangled_component_name" : "_ZN8tinyxml28MemPoolTILi120EE10SetTrackedEv"
    }
   ]
  },
  {
   "access" : "private",
   "alignment" : 8,
   "fields" :
   [
    {
     "field_name" : "items",
     "referenced_type" : "type-23"
    }
   ],
   "linker_set_key" : "tinyxml2::MemPoolT<120>::Block",
   "name" : "tinyxml2::MemPoolT<120>::Block",
   "referenced_type" : "type-22",
   "self_type" : "type-22",
   "size" : 4080,
   "source_file" : "/external/tinyxml2/tinyxml2.h",
   "unique_id" : "_ZTSN8tinyxml28MemPoolTILi120EE5BlockE"
  },
  {
   "access" : "private",
   "alignment" : 8,
   "fields" :
   [
    {
     "field_name" : "next",
     "referenced_type" : "type-25"
    },
    {
     "field_name" : "itemData",
     "referenced_type" : "type-26"
    }
   ],
   "linker_set_key" : "tinyxml2::MemPoolT<120>::Item",
   "name" : "tinyxml2::MemPoolT<120>::Item",
   "record_kind" : "union",
   "referenced_type" : "type-24",
   "self_type" : "type-24",
   "size" : 120,
   "source_file" : "/external/tinyxml2/tinyxml2.h",
   "unique_id" : "_ZTSN8tinyxml28MemPoolTILi120EE4ItemE"
  },
  {
   "alignment" : 8,
   "base_specifiers" :
   [
    {
     "referenced_type" : "type-28"
    }
   ],
   "fields" :
   [
    {
     "access" : "private",
     "field_name" : "_blockPtrs",
     "field_offset" : 64,
     "referenced_type" : "type-30"
    },
    {
     "access" : "private",
     "field_name" : "_root",
     "field_offset" : 832,
     "referenced_type" : "type-36"
    },
    {
     "access" : "private",
     "field_name" : "_currentAllocs",
     "field_offset" : 896,
     "referenced_type" : "type-1"
    },
    {
     "access" : "private",
     "field_name" : "_nAllocs",
     "field_offset" : 928,
     "referenced_type" : "type-1"
    },
    {
     "access" : "private",
     "field_name" : "_maxAllocs",
     "field_offset" : 960,
     "referenced_type" : "type-1"
    },
    {
     "access" : "private",
     "field_name" : "_nUntracked",
     "field_offset" : 992,
     "referenced_type" : "type-1"
    }
   ],
   "linker_set_key" : "tinyxml2::MemPoolT<80>",
   "name" : "tinyxml2::MemPoolT<80>",
   "record_kind" : "class",
   "referenced_type" : "type-29",
   "self_type" : "type-29",
   "size" : 128,
   "source_file" : "/external/tinyxml2/tinyxml2.h",
   "unique_id" : "_ZTSN8tinyxml28MemPoolTILi80EEE",
   "vtable_components" :
   [
    {
     "kind" : "offset_to_top"
    },
    {
     "kind" : "rtti",
     "mangled_component_name" : "_ZTIN8tinyxml28MemPoolTILi80EEE"
    },
    {
     "kind" : "complete_dtor_pointer",
     "mangled_component_name" : "_ZN8tinyxml28MemPoolTILi80EED1Ev"
    },
    {
     "kind" : "deleting_dtor_pointer",
     "mangled_component_name" : "_ZN8tinyxml28MemPoolTILi80EED0Ev"
    },
    {
     "mangled_component_name" : "_ZNK8tinyxml28MemPoolTILi80EE8ItemSizeEv"
    },
    {
     "mangled_component_name" : "_ZN8tinyxml28MemPoolTILi80EE5AllocEv"
    },
    {
     "mangled_component_name" : "_ZN8tinyxml28MemPoolTILi80EE4FreeEPv"
    },
    {
     "mangled_component_name" : "_ZN8tinyxml28MemPoolTILi80EE10SetTrackedEv"
    }
   ]
  },
  {
   "access" : "private",
   "alignment" : 8,
   "fields" :
   [
    {
     "field_name" : "items",
     "referenced_type" : "type-34"
    }
   ],
   "linker_set_key" : "tinyxml2::MemPoolT<80>::Block",
   "name" : "tinyxml2::MemPoolT<80>::Block",
   "referenced_type" : "type-33",
   "self_type" : "type-33",
   "size" : 4080,
   "source_file" : "/external/tinyxml2/tinyxml2.h",
   "unique_id" : "_ZTSN8tinyxml28MemPoolTILi80EE5BlockE"
  },
  {
   "access" : "private",
   "alignment" : 8,
   "fields" :
   [
    {
     "field_name" : "next",
     "referenced_type" : "type-36"
    },
    {
     "field_name" : "itemData",
     "referenced_type" : "type-37"
    }
   ],
   "linker_set_key" : "tinyxml2::MemPoolT<80>::Item",
   "name" : "tinyxml2::MemPoolT<80>::Item",
   "record_kind" : "union",
   "referenced_type" : "type-35",
   "self_type" : "type-35",
   "size" : 80,
   "source_file" : "/external/tinyxml2/tinyxml2.h",
   "unique_id" : "_ZTSN8tinyxml28MemPoolTILi80EE4ItemE"
  },
  {
   "alignment" : 8,
   "fields" :
   [
    {
     "access" : "private",
     "field_name" : "_flags",
     "referenced_type" : "type-1"
    },
    {
     "access" : "private",
     "field_name" : "_start",
     "field_offset" : 64,
     "referenced_type" : "type-3"
    },
    {
     "access" : "private",
     "field_name" : "_end",
     "field_offset" : 128,
     "referenced_type" : "type-3"
    }
   ],
   "linker_set_key" : "tinyxml2::StrPair",
   "name" : "tinyxml2::StrPair",
   "record_kind" : "class",
   "referenced_type" : "type-2",
   "self_type" : "type-2",
   "size" : 24,
   "source_file" : "/external/tinyxml2/tinyxml2.h",
   "unique_id" : "_ZTSN8tinyxml27StrPairE"
  },
  {
   "alignment" : 8,
   "fields" :
   [
    {
     "access" : "private",
     "field_name" : "_name",
     "field_offset" : 64,
     "referenced_type" : "type-2"
    },
    {
     "access" : "private",
     "field_name" : "_value",
     "field_offset" : 256,
     "referenced_type" : "type-2"
    },
    {
     "access" : "private",
     "field_name" : "_parseLineNum",
     "field_offset" : 448,
     "referenced_type" : "type-1"
    },
    {
     "access" : "private",
     "field_name" : "_next",
     "field_offset" : 512,
     "referenced_type" : "type-65"
    },
    {
     "access" : "private",
     "field_name" : "_memPool",
     "field_offset" : 576,
     "referenced_type" : "type-61"
    }
   ],
   "linker_set_key" : "tinyxml2::XMLAttribute",
   "name" : "tinyxml2::XMLAttribute",
   "record_kind" : "class",
   "referenced_type" : "type-66",
   "self_type" : "type-66",
   "size" : 80,
   "source_file" : "/external/tinyxml2/tinyxml2.h",
   "unique_id" : "_ZTSN8tinyxml212XMLAttributeE",
   "vtable_components" :
   [
    {
     "kind" : "offset_to_top"
    },
    {
     "kind" : "rtti",
     "mangled_component_name" : "_ZTIN8tinyxml212XMLAttributeE"
    },
    {
     "kind" : "complete_dtor_pointer",
     "mangled_component_name" : "_ZN8tinyxml212XMLAttributeD1Ev"
    },
    {
     "kind" : "deleting_dtor_pointer",
     "mangled_component_name" : "_ZN8tinyxml212XMLAttributeD0Ev"
    }
   ]
  },
  {
   "alignment" : 8,
   "base_specifiers" :
   [
    {
     "referenced_type" : "type-7"
    }
   ],
   "linker_set_key" : "tinyxml2::XMLComment",
   "name" : "tinyxml2::XMLComment",
   "record_kind" : "class",
   "referenced_type" : "type-70",
   "self_type" : "type-70",
   "size" : 104,
   "source_file" : "/external/tinyxml2/tinyxml2.h",
   "unique_id" : "_ZTSN8tinyxml210XMLCommentE",
   "vtable_components" :
   [
    {
     "kind" : "offset_to_top"
    },
    {
     "kind" : "rtti",
     "mangled_component_name" : "_ZTIN8tinyxml210XMLCommentE"
    },
    {
     "mangled_component_name" : "_ZN8tinyxml27XMLNode9ToElementEv"
    },
    {
     "mangled_component_name" : "_ZN8tinyxml27XMLNode6ToTextEv"
    },
    {
     "mangled_component_name" : "_ZN8tinyxml210XMLComment9ToCommentEv"
    },
    {
     "mangled_component_name" : "_ZN8tinyxml27XMLNode10ToDocumentEv"
    },
    {
     "mangled_component_name" : "_ZN8tinyxml27XMLNode13ToDeclarationEv"
    },
    {
     "mangled_component_name" : "_ZN8tinyxml27XMLNode9ToUnknownEv"
    },
    {
     "mangled_component_name" : "_ZNK8tinyxml27XMLNode9ToElementEv"
    },
    {
     "mangled_component_name" : "_ZNK8tinyxml27XMLNode6ToTextEv"
    },
    {
     "mangled_component_name" : "_ZNK8tinyxml210XMLComment9ToCommentEv"
    },
    {
     "mangled_component_name" : "_ZNK8tinyxml27XMLNode10ToDocumentEv"
    },
    {
     "mangled_component_name" : "_ZNK8tinyxml27XMLNode13ToDeclarationEv"
    },
    {
     "mangled_component_name" : "_ZNK8tinyxml27XMLNode9ToUnknownEv"
    },
    {
     "mangled_component_name" : "_ZNK8tinyxml210XMLComment12ShallowCloneEPNS_11XMLDocumentE"
    },
    {
     "mangled_component_name" : "_ZNK8tinyxml210XMLComment12ShallowEqualEPKNS_7XMLNodeE"
    },
    {
     "mangled_component_name" : "_ZNK8tinyxml210XMLComment6AcceptEPNS_10XMLVisitorE"
    },
    {
     "kind" : "complete_dtor_pointer",
     "mangled_component_name" : "_ZN8tinyxml210XMLCommentD1Ev"
    },
    {
     "kind" : "deleting_dtor_pointer",
     "mangled_component_name" : "_ZN8tinyxml210XMLCommentD0Ev"
    },
    {
     "mangled_component_name" : "_ZN8tinyxml210XMLComment9ParseDeepEPcPNS_7StrPairEPi"
    }
   ]
  },
  {
   "alignment" : 8,
   "fields" :
   [
    {
     "access" : "private",
     "field_name" : "_node",
     "referenced_type" : "type-5"
    }
   ],
   "linker_set_key" : "tinyxml2::XMLConstHandle",
   "name" : "tinyxml2::XMLConstHandle",
   "record_kind" : "class",
   "referenced_type" : "type-110",
   "self_type" : "type-110",
   "size" : 8,
   "source_file" : "/external/tinyxml2/tinyxml2.h",
   "unique_id" : "_ZTSN8tinyxml214XMLConstHandleE"
  },
  {
   "alignment" : 8,
   "base_specifiers" :
   [
    {
     "referenced_type" : "type-7"
    }
   ],
   "linker_set_key" : "tinyxml2::XMLDeclaration",
   "name" : "tinyxml2::XMLDeclaration",
   "record_kind" : "class",
   "referenced_type" : "type-72",
   "self_type" : "type-72",
   "size" : 104,
   "source_file" : "/external/tinyxml2/tinyxml2.h",
   "unique_id" : "_ZTSN8tinyxml214XMLDeclarationE",
   "vtable_components" :
   [
    {
     "kind" : "offset_to_top"
    },
    {
     "kind" : "rtti",
     "mangled_component_name" : "_ZTIN8tinyxml214XMLDeclarationE"
    },
    {
     "mangled_component_name" : "_ZN8tinyxml27XMLNode9ToElementEv"
    },
    {
     "mangled_component_name" : "_ZN8tinyxml27XMLNode6ToTextEv"
    },
    {
     "mangled_component_name" : "_ZN8tinyxml27XMLNode9ToCommentEv"
    },
    {
     "mangled_component_name" : "_ZN8tinyxml27XMLNode10ToDocumentEv"
    },
    {
     "mangled_component_name" : "_ZN8tinyxml214XMLDeclaration13ToDeclarationEv"
    },
    {
     "mangled_component_name" : "_ZN8tinyxml27XMLNode9ToUnknownEv"
    },
    {
     "mangled_component_name" : "_ZNK8tinyxml27XMLNode9ToElementEv"
    },
    {
     "mangled_component_name" : "_ZNK8tinyxml27XMLNode6ToTextEv"
    },
    {
     "mangled_component_name" : "_ZNK8tinyxml27XMLNode9ToCommentEv"
    },
    {
     "mangled_component_name" : "_ZNK8tinyxml27XMLNode10ToDocumentEv"
    },
    {
     "mangled_component_name" : "_ZNK8tinyxml214XMLDeclaration13ToDeclarationEv"
    },
    {
     "mangled_component_name" : "_ZNK8tinyxml27XMLNode9ToUnknownEv"
    },
    {
     "mangled_component_name" : "_ZNK8tinyxml214XMLDeclaration12ShallowCloneEPNS_11XMLDocumentE"
    },
    {
     "mangled_component_name" : "_ZNK8tinyxml214XMLDeclaration12ShallowEqualEPKNS_7XMLNodeE"
    },
    {
     "mangled_component_name" : "_ZNK8tinyxml214XMLDeclaration6AcceptEPNS_10XMLVisitorE"
    },
    {
     "kind" : "complete_dtor_pointer",
     "mangled_component_name" : "_ZN8tinyxml214XMLDeclarationD1Ev"
    },
    {
     "kind" : "deleting_dtor_pointer",
     "mangled_component_name" : "_ZN8tinyxml214XMLDeclarationD0Ev"
    },
    {
     "mangled_component_name" : "_ZN8tinyxml214XMLDeclaration9ParseDeepEPcPNS_7StrPairEPi"
    }
   ]
  },
  {
   "alignment" : 8,
   "base_specifiers" :
   [
    {
     "referenced_type" : "type-7"
    }
   ],
   "fields" :
   [
    {
     "access" : "private",
     "field_name" : "_writeBOM",
     "field_offset" : 832,
     "referenced_type" : "type-10"
    },
    {
     "access" : "private",
     "field_name" : "_processEntities",
     "field_offset" : 840,
     "referenced_type" : "type-10"
    },
    {
     "access" : "private",
     "field_name" : "_errorID",
     "field_offset" : 864,
     "referenced_type" : "type-11"
    },
    {
     "access" : "private",
     "field_name" : "_whitespaceMode",
     "field_offset" : 896,
     "referenced_type" : "type-13"
    },
    {
     "access" : "private",
     "field_name" : "_errorStr",
     "field_offset" : 960,
     "referenced_type" : "type-2"
    },
    {
     "access" : "private",
     "field_name" : "_errorLineNum",
     "field_offset" : 1152,
     "referenced_type" : "type-1"
    },
    {
     "access" : "private",
     "field_name" : "_charBuffer",
     "field_offset" : 1216,
     "referenced_type" : "type-3"
    },
    {
     "access" : "private",
     "field_name" : "_parseCurLineNum",
     "field_offset" : 1280,
     "referenced_type" : "type-1"
    },
    {
     "access" : "private",
     "field_name" : "_parsingDepth",
     "field_offset" : 1312,
     "referenced_type" : "type-1"
    },
    {
     "access" : "private",
     "field_name" : "_unlinked",
     "field_offset" : 1344,
     "referenced_type" : "type-14"
    },
    {
     "access" : "private",
     "field_name" : "_elementPool",
     "field_offset" : 2112,
     "referenced_type" : "type-18"
    },
    {
     "access" : "private",
     "field_name" : "_attributePool",
     "field_offset" : 3136,
     "referenced_type" : "type-29"
    },
    {
     "access" : "private",
     "field_name" : "_textPool",
     "field_offset" : 4160,
     "referenced_type" : "type-39"
    },
    {
     "access" : "private",
     "field_name" : "_commentPool",
     "field_offset" : 5184,
     "referenced_type" : "type-49"
    }
   ],
   "linker_set_key" : "tinyxml2::XMLDocument",
   "name" : "tinyxml2::XMLDocument",
   "record_kind" : "class",
   "referenced_type" : "type-9",
   "self_type" : "type-9",
   "size" : 776,
   "source_file" : "/external/tinyxml2/tinyxml2.h",
   "unique_id" : "_ZTSN8tinyxml211XMLDocumentE",
   "vtable_components" :
   [
    {
     "kind" : "offset_to_top"
    },
    {
     "kind" : "rtti",
     "mangled_component_name" : "_ZTIN8tinyxml211XMLDocumentE"
    },
    {
     "mangled_component_name" : "_ZN8tinyxml27XMLNode9ToElementEv"
    },
    {
     "mangled_component_name" : "_ZN8tinyxml27XMLNode6ToTextEv"
    },
    {
     "mangled_component_name" : "_ZN8tinyxml27XMLNode9ToCommentEv"
    },
    {
     "mangled_component_name" : "_ZN8tinyxml211XMLDocument10ToDocumentEv"
    },
    {
     "mangled_component_name" : "_ZN8tinyxml27XMLNode13ToDeclarationEv"
    },
    {
     "mangled_component_name" : "_ZN8tinyxml27XMLNode9ToUnknownEv"
    },
    {
     "mangled_component_name" : "_ZNK8tinyxml27XMLNode9ToElementEv"
    },
    {
     "mangled_component_name" : "_ZNK8tinyxml27XMLNode6ToTextEv"
    },
    {
     "mangled_component_name" : "_ZNK8tinyxml27XMLNode9ToCommentEv"
    },
    {
     "mangled_component_name" : "_ZNK8tinyxml211XMLDocument10ToDocumentEv"
    },
    {
     "mangled_component_name" : "_ZNK8tinyxml27XMLNode13ToDeclarationEv"
    },
    {
     "mangled_component_name" : "_ZNK8tinyxml27XMLNode9ToUnknownEv"
    },
    {
     "mangled_component_name" : "_ZNK8tinyxml211XMLDocument12ShallowCloneEPS0_"
    },
    {
     "mangled_component_name" : "_ZNK8tinyxml211XMLDocument12ShallowEqualEPKNS_7XMLNodeE"
    },
    {
     "mangled_component_name" : "_ZNK8tinyxml211XMLDocument6AcceptEPNS_10XMLVisitorE"
    },
    {
     "kind" : "complete_dtor_pointer",
     "mangled_component_name" : "_ZN8tinyxml211XMLDocumentD1Ev"
    },
    {
     "kind" : "deleting_dtor_pointer",
     "mangled_component_name" : "_ZN8tinyxml211XMLDocumentD0Ev"
    },
    {
     "mangled_component_name" : "_ZN8tinyxml27XMLNode9ParseDeepEPcPNS_7StrPairEPi"
    }
   ]
  },
  {
   "access" : "private",
   "alignment" : 8,
   "fields" :
   [
    {
     "access" : "private",
     "field_name" : "_document",
     "referenced_type" : "type-8"
    }
   ],
   "linker_set_key" : "tinyxml2::XMLDocument::DepthTracker",
   "name" : "tinyxml2::XMLDocument::DepthTracker",
   "record_kind" : "class",
   "referenced_type" : "type-99",
   "self_type" : "type-99",
   "size" : 8,
   "source_file" : "/external/tinyxml2/tinyxml2.h",
   "unique_id" : "_ZTSN8tinyxml211XMLDocument12DepthTrackerE"
  },
  {
   "alignment" : 8,
   "base_specifiers" :
   [
    {
     "referenced_type" : "type-7"
    }
   ],
   "fields" :
   [
    {
     "access" : "private",
     "field_name" : "_closingType",
     "field_offset" : 832,
     "referenced_type" : "type-64"
    },
    {
     "access" : "private",
     "field_name" : "_rootAttribute",
     "field_offset" : 896,
     "referenced_type" : "type-65"
    }
   ],
   "linker_set_key" : "tinyxml2::XMLElement",
   "name" : "tinyxml2::XMLElement",
   "record_kind" : "class",
   "referenced_type" : "type-63",
   "self_type" : "type-63",
   "size" : 120,
   "source_file" : "/external/tinyxml2/tinyxml2.h",
   "unique_id" : "_ZTSN8tinyxml210XMLElementE",
   "vtable_components" :
   [
    {
     "kind" : "offset_to_top"
    },
    {
     "kind" : "rtti",
     "mangled_component_name" : "_ZTIN8tinyxml210XMLElementE"
    },
    {
     "mangled_component_name" : "_ZN8tinyxml210XMLElement9ToElementEv"
    },
    {
     "mangled_component_name" : "_ZN8tinyxml27XMLNode6ToTextEv"
    },
    {
     "mangled_component_name" : "_ZN8tinyxml27XMLNode9ToCommentEv"
    },
    {
     "mangled_component_name" : "_ZN8tinyxml27XMLNode10ToDocumentEv"
    },
    {
     "mangled_component_name" : "_ZN8tinyxml27XMLNode13ToDeclarationEv"
    },
    {
     "mangled_component_name" : "_ZN8tinyxml27XMLNode9ToUnknownEv"
    },
    {
     "mangled_component_name" : "_ZNK8tinyxml210XMLElement9ToElementEv"
    },
    {
     "mangled_component_name" : "_ZNK8tinyxml27XMLNode6ToTextEv"
    },
    {
     "mangled_component_name" : "_ZNK8tinyxml27XMLNode9ToCommentEv"
    },
    {
     "mangled_component_name" : "_ZNK8tinyxml27XMLNode10ToDocumentEv"
    },
    {
     "mangled_component_name" : "_ZNK8tinyxml27XMLNode13ToDeclarationEv"
    },
    {
     "mangled_component_name" : "_ZNK8tinyxml27XMLNode9ToUnknownEv"
    },
    {
     "mangled_component_name" : "_ZNK8tinyxml210XMLElement12ShallowCloneEPNS_11XMLDocumentE"
    },
    {
     "mangled_component_name" : "_ZNK8tinyxml210XMLElement12ShallowEqualEPKNS_7XMLNodeE"
    },
    {
     "mangled_component_name" : "_ZNK8tinyxml210XMLElement6AcceptEPNS_10XMLVisitorE"
    },
    {
     "kind" : "complete_dtor_pointer",
     "mangled_component_name" : "_ZN8tinyxml210XMLElementD1Ev"
    },
    {
     "kind" : "deleting_dtor_pointer",
     "mangled_component_name" : "_ZN8tinyxml210XMLElementD0Ev"
    },
    {
     "mangled_component_name" : "_ZN8tinyxml210XMLElement9ParseDeepEPcPNS_7StrPairEPi"
    }
   ]
  },
  {
   "alignment" : 8,
   "fields" :
   [
    {
     "access" : "private",
     "field_name" : "_node",
     "referenced_type" : "type-16"
    }
   ],
   "linker_set_key" : "tinyxml2::XMLHandle",
   "name" : "tinyxml2::XMLHandle",
   "record_kind" : "class",
   "referenced_type" : "type-104",
   "self_type" : "type-104",
   "size" : 8,
   "source_file" : "/external/tinyxml2/tinyxml2.h",
   "unique_id" : "_ZTSN8tinyxml29XMLHandleE"
  },
  {
   "alignment" : 8,
   "fields" :
   [
    {
     "access" : "protected",
     "field_name" : "_document",
     "field_offset" : 64,
     "referenced_type" : "type-8"
    },
    {
     "access" : "protected",
     "field_name" : "_parent",
     "field_offset" : 128,
     "referenced_type" : "type-16"
    },
    {
     "access" : "protected",
     "field_name" : "_value",
     "field_offset" : 192,
     "referenced_type" : "type-2"
    },
    {
     "access" : "protected",
     "field_name" : "_parseLineNum",
     "field_offset" : 384,
     "referenced_type" : "type-1"
    },
    {
     "access" : "protected",
     "field_name" : "_firstChild",
     "field_offset" : 448,
     "referenced_type" : "type-16"
    },
    {
     "access" : "protected",
     "field_name" : "_lastChild",
     "field_offset" : 512,
     "referenced_type" : "type-16"
    },
    {
     "access" : "protected",
     "field_name" : "_prev",
     "field_offset" : 576,
     "referenced_type" : "type-16"
    },
    {
     "access" : "protected",
     "field_name" : "_next",
     "field_offset" : 640,
     "referenced_type" : "type-16"
    },
    {
     "access" : "protected",
     "field_name" : "_userData",
     "field_offset" : 704,
     "referenced_type" : "type-59"
    },
    {
     "access" : "private",
     "field_name" : "_memPool",
     "field_offset" : 768,
     "referenced_type" : "type-61"
    }
   ],
   "linker_set_key" : "tinyxml2::XMLNode",
   "name" : "tinyxml2::XMLNode",
   "record_kind" : "class",
   "referenced_type" : "type-7",
   "self_type" : "type-7",
   "size" : 104,
   "source_file" : "/external/tinyxml2/tinyxml2.h",
   "unique_id" : "_ZTSN8tinyxml27XMLNodeE",
   "vtable_components" :
   [
    {
     "kind" : "offset_to_top"
    },
    {
     "kind" : "rtti",
     "mangled_component_name" : "_ZTIN8tinyxml27XMLNodeE"
    },
    {
     "mangled_component_name" : "_ZN8tinyxml27XMLNode9ToElementEv"
    },
    {
     "mangled_component_name" : "_ZN8tinyxml27XMLNode6ToTextEv"
    },
    {
     "mangled_component_name" : "_ZN8tinyxml27XMLNode9ToCommentEv"
    },
    {
     "mangled_component_name" : "_ZN8tinyxml27XMLNode10ToDocumentEv"
    },
    {
     "mangled_component_name" : "_ZN8tinyxml27XMLNode13ToDeclarationEv"
    },
    {
     "mangled_component_name" : "_ZN8tinyxml27XMLNode9ToUnknownEv"
    },
    {
     "mangled_component_name" : "_ZNK8tinyxml27XMLNode9ToElementEv"
    },
    {
     "mangled_component_name" : "_ZNK8tinyxml27XMLNode6ToTextEv"
    },
    {
     "mangled_component_name" : "_ZNK8tinyxml27XMLNode9ToCommentEv"
    },
    {
     "mangled_component_name" : "_ZNK8tinyxml27XMLNode10ToDocumentEv"
    },
    {
     "mangled_component_name" : "_ZNK8tinyxml27XMLNode13ToDeclarationEv"
    },
    {
     "mangled_component_name" : "_ZNK8tinyxml27XMLNode9ToUnknownEv"
    },
    {
     "is_pure" : true,
     "mangled_component_name" : "_ZNK8tinyxml27XMLNode12ShallowCloneEPNS_11XMLDocumentE"
    },
    {
     "is_pure" : true,
     "mangled_component_name" : "_ZNK8tinyxml27XMLNode12ShallowEqualEPKS0_"
    },
    {
     "is_pure" : true,
     "mangled_component_name" : "_ZNK8tinyxml27XMLNode6AcceptEPNS_10XMLVisitorE"
    },
    {
     "kind" : "complete_dtor_pointer",
     "mangled_component_name" : "_ZN8tinyxml27XMLNodeD1Ev"
    },
    {
     "kind" : "deleting_dtor_pointer",
     "mangled_component_name" : "_ZN8tinyxml27XMLNodeD0Ev"
    },
    {
     "mangled_component_name" : "_ZN8tinyxml27XMLNode9ParseDeepEPcPNS_7StrPairEPi"
    }
   ]
  },
  {
   "alignment" : 8,
   "base_specifiers" :
   [
    {
     "referenced_type" : "type-96"
    }
   ],
   "fields" :
   [
    {
     "access" : "protected",
     "field_name" : "_elementJustOpened",
     "field_offset" : 64,
     "referenced_type" : "type-10"
    },
    {
     "access" : "protected",
     "field_name" : "_stack",
     "field_offset" : 128,
     "referenced_type" : "type-88"
    },
    {
     "access" : "private",
     "field_name" : "_firstElement",
     "field_offset" : 896,
     "referenced_type" : "type-10"
    },
    {
     "access" : "private",
     "field_name" : "_fp",
     "field_offset" : 960,
     "referenced_type" : "type-85"
    },
    {
     "access" : "private",
     "field_name" : "_depth",
     "field_offset" : 1024,
     "referenced_type" : "type-1"
    },
    {
     "access" : "private",
     "field_name" : "_textDepth",
     "field_offset" : 1056,
     "referenced_type" : "type-1"
    },
    {
     "access" : "private",
     "field_name" : "_processEntities",
     "field_offset" : 1088,
     "referenced_type" : "type-10"
    },
    {
     "access" : "private",
     "field_name" : "_compactMode",
     "field_offset" : 1096,
     "referenced_type" : "type-10"
    },
    {
     "access" : "private",
     "field_name" : "_entityFlag",
     "field_offset" : 1104,
     "referenced_type" : "type-93"
    },
    {
     "access" : "private",
     "field_name" : "_restrictedEntityFlag",
     "field_offset" : 1616,
     "referenced_type" : "type-93"
    },
    {
     "access" : "private",
     "field_name" : "_buffer",
     "field_offset" : 2176,
     "referenced_type" : "type-94"
    }
   ],
   "linker_set_key" : "tinyxml2::XMLPrinter",
   "name" : "tinyxml2::XMLPrinter",
   "record_kind" : "class",
   "referenced_type" : "type-87",
   "self_type" : "type-87",
   "size" : 312,
   "source_file" : "/external/tinyxml2/tinyxml2.h",
   "unique_id" : "_ZTSN8tinyxml210XMLPrinterE",
   "vtable_components" :
   [
    {
     "kind" : "offset_to_top"
    },
    {
     "kind" : "rtti",
     "mangled_component_name" : "_ZTIN8tinyxml210XMLPrinterE"
    },
    {
     "kind" : "complete_dtor_pointer",
     "mangled_component_name" : "_ZN8tinyxml210XMLPrinterD1Ev"
    },
    {
     "kind" : "deleting_dtor_pointer",
     "mangled_component_name" : "_ZN8tinyxml210XMLPrinterD0Ev"
    },
    {
     "mangled_component_name" : "_ZN8tinyxml210XMLPrinter10VisitEnterERKNS_11XMLDocumentE"
    },
    {
     "mangled_component_name" : "_ZN8tinyxml210XMLPrinter9VisitExitERKNS_11XMLDocumentE"
    },
    {
     "mangled_component_name" : "_ZN8tinyxml210XMLPrinter10VisitEnterERKNS_10XMLElementEPKNS_12XMLAttributeE"
    },
    {
     "mangled_component_name" : "_ZN8tinyxml210XMLPrinter9VisitExitERKNS_10XMLElementE"
    },
    {
     "mangled_component_name" : "_ZN8tinyxml210XMLPrinter5VisitERKNS_14XMLDeclarationE"
    },
    {
     "mangled_component_name" : "_ZN8tinyxml210XMLPrinter5VisitERKNS_7XMLTextE"
    },
    {
     "mangled_component_name" : "_ZN8tinyxml210XMLPrinter5VisitERKNS_10XMLCommentE"
    },
    {
     "mangled_component_name" : "_ZN8tinyxml210XMLPrinter5VisitERKNS_10XMLUnknownE"
    },
    {
     "mangled_component_name" : "_ZN8tinyxml210XMLPrinter12CloseElementEb"
    },
    {
     "mangled_component_name" : "_ZN8tinyxml210XMLPrinter11CompactModeERKNS_10XMLElementE"
    },
    {
     "mangled_component_name" : "_ZN8tinyxml210XMLPrinter10PrintSpaceEi"
    }
   ]
  },
  {
   "alignment" : 8,
   "base_specifiers" :
   [
    {
     "referenced_type" : "type-7"
    }
   ],
   "fields" :
   [
    {
     "access" : "private",
     "field_name" : "_isCData",
     "field_offset" : 832,
     "referenced_type" : "type-10"
    }
   ],
   "linker_set_key" : "tinyxml2::XMLText",
   "name" : "tinyxml2::XMLText",
   "record_kind" : "class",
   "referenced_type" : "type-68",
   "self_type" : "type-68",
   "size" : 112,
   "source_file" : "/external/tinyxml2/tinyxml2.h",
   "unique_id" : "_ZTSN8tinyxml27XMLTextE",
   "vtable_components" :
   [
    {
     "kind" : "offset_to_top"
    },
    {
     "kind" : "rtti",
     "mangled_component_name" : "_ZTIN8tinyxml27XMLTextE"
    },
    {
     "mangled_component_name" : "_ZN8tinyxml27XMLNode9ToElementEv"
    },
    {
     "mangled_component_name" : "_ZN8tinyxml27XMLText6ToTextEv"
    },
    {
     "mangled_component_name" : "_ZN8tinyxml27XMLNode9ToCommentEv"
    },
    {
     "mangled_component_name" : "_ZN8tinyxml27XMLNode10ToDocumentEv"
    },
    {
     "mangled_component_name" : "_ZN8tinyxml27XMLNode13ToDeclarationEv"
    },
    {
     "mangled_component_name" : "_ZN8tinyxml27XMLNode9ToUnknownEv"
    },
    {
     "mangled_component_name" : "_ZNK8tinyxml27XMLNode9ToElementEv"
    },
    {
     "mangled_component_name" : "_ZNK8tinyxml27XMLText6ToTextEv"
    },
    {
     "mangled_component_name" : "_ZNK8tinyxml27XMLNode9ToCommentEv"
    },
    {
     "mangled_component_name" : "_ZNK8tinyxml27XMLNode10ToDocumentEv"
    },
    {
     "mangled_component_name" : "_ZNK8tinyxml27XMLNode13ToDeclarationEv"
    },
    {
     "mangled_component_name" : "_ZNK8tinyxml27XMLNode9ToUnknownEv"
    },
    {
     "mangled_component_name" : "_ZNK8tinyxml27XMLText12ShallowCloneEPNS_11XMLDocumentE"
    },
    {
     "mangled_component_name" : "_ZNK8tinyxml27XMLText12ShallowEqualEPKNS_7XMLNodeE"
    },
    {
     "mangled_component_name" : "_ZNK8tinyxml27XMLText6AcceptEPNS_10XMLVisitorE"
    },
    {
     "kind" : "complete_dtor_pointer",
     "mangled_component_name" : "_ZN8tinyxml27XMLTextD1Ev"
    },
    {
     "kind" : "deleting_dtor_pointer",
     "mangled_component_name" : "_ZN8tinyxml27XMLTextD0Ev"
    },
    {
     "mangled_component_name" : "_ZN8tinyxml27XMLText9ParseDeepEPcPNS_7StrPairEPi"
    }
   ]
  },
  {
   "alignment" : 8,
   "base_specifiers" :
   [
    {
     "referenced_type" : "type-7"
    }
   ],
   "linker_set_key" : "tinyxml2::XMLUnknown",
   "name" : "tinyxml2::XMLUnknown",
   "record_kind" : "class",
   "referenced_type" : "type-74",
   "self_type" : "type-74",
   "size" : 104,
   "source_file" : "/external/tinyxml2/tinyxml2.h",
   "unique_id" : "_ZTSN8tinyxml210XMLUnknownE",
   "vtable_components" :
   [
    {
     "kind" : "offset_to_top"
    },
    {
     "kind" : "rtti",
     "mangled_component_name" : "_ZTIN8tinyxml210XMLUnknownE"
    },
    {
     "mangled_component_name" : "_ZN8tinyxml27XMLNode9ToElementEv"
    },
    {
     "mangled_component_name" : "_ZN8tinyxml27XMLNode6ToTextEv"
    },
    {
     "mangled_component_name" : "_ZN8tinyxml27XMLNode9ToCommentEv"
    },
    {
     "mangled_component_name" : "_ZN8tinyxml27XMLNode10ToDocumentEv"
    },
    {
     "mangled_component_name" : "_ZN8tinyxml27XMLNode13ToDeclarationEv"
    },
    {
     "mangled_component_name" : "_ZN8tinyxml210XMLUnknown9ToUnknownEv"
    },
    {
     "mangled_component_name" : "_ZNK8tinyxml27XMLNode9ToElementEv"
    },
    {
     "mangled_component_name" : "_ZNK8tinyxml27XMLNode6ToTextEv"
    },
    {
     "mangled_component_name" : "_ZNK8tinyxml27XMLNode9ToCommentEv"
    },
    {
     "mangled_component_name" : "_ZNK8tinyxml27XMLNode10ToDocumentEv"
    },
    {
     "mangled_component_name" : "_ZNK8tinyxml27XMLNode13ToDeclarationEv"
    },
    {
     "mangled_component_name" : "_ZNK8tinyxml210XMLUnknown9ToUnknownEv"
    },
    {
     "mangled_component_name" : "_ZNK8tinyxml210XMLUnknown12ShallowCloneEPNS_11XMLDocumentE"
    },
    {
     "mangled_component_name" : "_ZNK8tinyxml210XMLUnknown12ShallowEqualEPKNS_7XMLNodeE"
    },
    {
     "mangled_component_name" : "_ZNK8tinyxml210XMLUnknown6AcceptEPNS_10XMLVisitorE"
    },
    {
     "kind" : "complete_dtor_pointer",
     "mangled_component_name" : "_ZN8tinyxml210XMLUnknownD1Ev"
    },
    {
     "kind" : "deleting_dtor_pointer",
     "mangled_component_name" : "_ZN8tinyxml210XMLUnknownD0Ev"
    },
    {
     "mangled_component_name" : "_ZN8tinyxml210XMLUnknown9ParseDeepEPcPNS_7StrPairEPi"
    }
   ]
  },
  {
   "alignment" : 1,
   "linker_set_key" : "tinyxml2::XMLUtil",
   "name" : "tinyxml2::XMLUtil",
   "record_kind" : "class",
   "referenced_type" : "type-165",
   "self_type" : "type-165",
   "size" : 1,
   "source_file" : "/external/tinyxml2/tinyxml2.h",
   "unique_id" : "_ZTSN8tinyxml27XMLUtilE"
  },
  {
   "alignment" : 8,
   "linker_set_key" : "tinyxml2::XMLVisitor",
   "name" : "tinyxml2::XMLVisitor",
   "record_kind" : "class",
   "referenced_type" : "type-96",
   "self_type" : "type-96",
   "size" : 8,
   "source_file" : "/external/tinyxml2/tinyxml2.h",
   "unique_id" : "_ZTSN8tinyxml210XMLVisitorE",
   "vtable_components" :
   [
    {
     "kind" : "offset_to_top"
    },
    {
     "kind" : "rtti",
     "mangled_component_name" : "_ZTIN8tinyxml210XMLVisitorE"
    },
    {
     "kind" : "complete_dtor_pointer",
     "mangled_component_name" : "_ZN8tinyxml210XMLVisitorD1Ev"
    },
    {
     "kind" : "deleting_dtor_pointer",
     "mangled_component_name" : "_ZN8tinyxml210XMLVisitorD0Ev"
    },
    {
     "mangled_component_name" : "_ZN8tinyxml210XMLVisitor10VisitEnterERKNS_11XMLDocumentE"
    },
    {
     "mangled_component_name" : "_ZN8tinyxml210XMLVisitor9VisitExitERKNS_11XMLDocumentE"
    },
    {
     "mangled_component_name" : "_ZN8tinyxml210XMLVisitor10VisitEnterERKNS_10XMLElementEPKNS_12XMLAttributeE"
    },
    {
     "mangled_component_name" : "_ZN8tinyxml210XMLVisitor9VisitExitERKNS_10XMLElementE"
    },
    {
     "mangled_component_name" : "_ZN8tinyxml210XMLVisitor5VisitERKNS_14XMLDeclarationE"
    },
    {
     "mangled_component_name" : "_ZN8tinyxml210XMLVisitor5VisitERKNS_7XMLTextE"
    },
    {
     "mangled_component_name" : "_ZN8tinyxml210XMLVisitor5VisitERKNS_10XMLCommentE"
    },
    {
     "mangled_component_name" : "_ZN8tinyxml210XMLVisitor5VisitERKNS_10XMLUnknownE"
    }
   ]
  }
 ],
 "rvalue_reference_types" : []
}
