{
 "array_types" :
 [
  {
   "alignment" : 16,
   "linker_set_key" : "__attribute__((neon_polyvector_type(16))) signed char [2]",
   "name" : "__attribute__((neon_polyvector_type(16))) signed char [2]",
   "referenced_type" : "type-1354",
   "self_type" : "type-1353",
   "size" : 32,
   "source_file" : "/prebuilts/clang-tools/linux-x86/lib64/clang/9.0.1/include/arm_neon.h"
  },
  {
   "alignment" : 16,
   "linker_set_key" : "__attribute__((neon_polyvector_type(16))) signed char [3]",
   "name" : "__attribute__((neon_polyvector_type(16))) signed char [3]",
   "referenced_type" : "type-1426",
   "self_type" : "type-1425",
   "size" : 48,
   "source_file" : "/prebuilts/clang-tools/linux-x86/lib64/clang/9.0.1/include/arm_neon.h"
  },
  {
   "alignment" : 16,
   "linker_set_key" : "__attribute__((neon_polyvector_type(16))) signed char [4]",
   "name" : "__attribute__((neon_polyvector_type(16))) signed char [4]",
   "referenced_type" : "type-1498",
   "self_type" : "type-1497",
   "size" : 64,
   "source_file" : "/prebuilts/clang-tools/linux-x86/lib64/clang/9.0.1/include/arm_neon.h"
  },
  {
   "alignment" : 8,
   "linker_set_key" : "__attribute__((neon_polyvector_type(4))) short [2]",
   "name" : "__attribute__((neon_polyvector_type(4))) short [2]",
   "referenced_type" : "type-1357",
   "self_type" : "type-1356",
   "size" : 16,
   "source_file" : "/prebuilts/clang-tools/linux-x86/lib64/clang/9.0.1/include/arm_neon.h"
  },
  {
   "alignment" : 8,
   "linker_set_key" : "__attribute__((neon_polyvector_type(4))) short [3]",
   "name" : "__attribute__((neon_polyvector_type(4))) short [3]",
   "referenced_type" : "type-1429",
   "self_type" : "type-1428",
   "size" : 24,
   "source_file" : "/prebuilts/clang-tools/linux-x86/lib64/clang/9.0.1/include/arm_neon.h"
  },
  {
   "alignment" : 8,
   "linker_set_key" : "__attribute__((neon_polyvector_type(4))) short [4]",
   "name" : "__attribute__((neon_polyvector_type(4))) short [4]",
   "referenced_type" : "type-1501",
   "self_type" : "type-1500",
   "size" : 32,
   "source_file" : "/prebuilts/clang-tools/linux-x86/lib64/clang/9.0.1/include/arm_neon.h"
  },
  {
   "alignment" : 16,
   "linker_set_key" : "__attribute__((neon_polyvector_type(8))) short [2]",
   "name" : "__attribute__((neon_polyvector_type(8))) short [2]",
   "referenced_type" : "type-1360",
   "self_type" : "type-1359",
   "size" : 32,
   "source_file" : "/prebuilts/clang-tools/linux-x86/lib64/clang/9.0.1/include/arm_neon.h"
  },
  {
   "alignment" : 16,
   "linker_set_key" : "__attribute__((neon_polyvector_type(8))) short [3]",
   "name" : "__attribute__((neon_polyvector_type(8))) short [3]",
   "referenced_type" : "type-1432",
   "self_type" : "type-1431",
   "size" : 48,
   "source_file" : "/prebuilts/clang-tools/linux-x86/lib64/clang/9.0.1/include/arm_neon.h"
  },
  {
   "alignment" : 16,
   "linker_set_key" : "__attribute__((neon_polyvector_type(8))) short [4]",
   "name" : "__attribute__((neon_polyvector_type(8))) short [4]",
   "referenced_type" : "type-1504",
   "self_type" : "type-1503",
   "size" : 64,
   "source_file" : "/prebuilts/clang-tools/linux-x86/lib64/clang/9.0.1/include/arm_neon.h"
  },
  {
   "alignment" : 8,
   "linker_set_key" : "__attribute__((neon_polyvector_type(8))) signed char [2]",
   "name" : "__attribute__((neon_polyvector_type(8))) signed char [2]",
   "referenced_type" : "type-1351",
   "self_type" : "type-1350",
   "size" : 16,
   "source_file" : "/prebuilts/clang-tools/linux-x86/lib64/clang/9.0.1/include/arm_neon.h"
  },
  {
   "alignment" : 8,
   "linker_set_key" : "__attribute__((neon_polyvector_type(8))) signed char [3]",
   "name" : "__attribute__((neon_polyvector_type(8))) signed char [3]",
   "referenced_type" : "type-1423",
   "self_type" : "type-1422",
   "size" : 24,
   "source_file" : "/prebuilts/clang-tools/linux-x86/lib64/clang/9.0.1/include/arm_neon.h"
  },
  {
   "alignment" : 8,
   "linker_set_key" : "__attribute__((neon_polyvector_type(8))) signed char [4]",
   "name" : "__attribute__((neon_polyvector_type(8))) signed char [4]",
   "referenced_type" : "type-1495",
   "self_type" : "type-1494",
   "size" : 32,
   "source_file" : "/prebuilts/clang-tools/linux-x86/lib64/clang/9.0.1/include/arm_neon.h"
  },
  {
   "alignment" : 8,
   "linker_set_key" : "__attribute__((neon_vector_type(1))) long long [2]",
   "name" : "__attribute__((neon_vector_type(1))) long long [2]",
   "referenced_type" : "type-1309",
   "self_type" : "type-1308",
   "size" : 16,
   "source_file" : "/prebuilts/clang-tools/linux-x86/lib64/clang/9.0.1/include/arm_neon.h"
  },
  {
   "alignment" : 8,
   "linker_set_key" : "__attribute__((neon_vector_type(1))) long long [3]",
   "name" : "__attribute__((neon_vector_type(1))) long long [3]",
   "referenced_type" : "type-1381",
   "self_type" : "type-1380",
   "size" : 24,
   "source_file" : "/prebuilts/clang-tools/linux-x86/lib64/clang/9.0.1/include/arm_neon.h"
  },
  {
   "alignment" : 8,
   "linker_set_key" : "__attribute__((neon_vector_type(1))) long long [4]",
   "name" : "__attribute__((neon_vector_type(1))) long long [4]",
   "referenced_type" : "type-1453",
   "self_type" : "type-1452",
   "size" : 32,
   "source_file" : "/prebuilts/clang-tools/linux-x86/lib64/clang/9.0.1/include/arm_neon.h"
  },
  {
   "alignment" : 8,
   "linker_set_key" : "__attribute__((neon_vector_type(1))) unsigned long long [2]",
   "name" : "__attribute__((neon_vector_type(1))) unsigned long long [2]",
   "referenced_type" : "type-1333",
   "self_type" : "type-1332",
   "size" : 16,
   "source_file" : "/prebuilts/clang-tools/linux-x86/lib64/clang/9.0.1/include/arm_neon.h"
  },
  {
   "alignment" : 8,
   "linker_set_key" : "__attribute__((neon_vector_type(1))) unsigned long long [3]",
   "name" : "__attribute__((neon_vector_type(1))) unsigned long long [3]",
   "referenced_type" : "type-1405",
   "self_type" : "type-1404",
   "size" : 24,
   "source_file" : "/prebuilts/clang-tools/linux-x86/lib64/clang/9.0.1/include/arm_neon.h"
  },
  {
   "alignment" : 8,
   "linker_set_key" : "__attribute__((neon_vector_type(1))) unsigned long long [4]",
   "name" : "__attribute__((neon_vector_type(1))) unsigned long long [4]",
   "referenced_type" : "type-1477",
   "self_type" : "type-1476",
   "size" : 32,
   "source_file" : "/prebuilts/clang-tools/linux-x86/lib64/clang/9.0.1/include/arm_neon.h"
  },
  {
   "alignment" : 16,
   "linker_set_key" : "__attribute__((neon_vector_type(16))) signed char [2]",
   "name" : "__attribute__((neon_vector_type(16))) signed char [2]",
   "referenced_type" : "type-1294",
   "self_type" : "type-1293",
   "size" : 32,
   "source_file" : "/prebuilts/clang-tools/linux-x86/lib64/clang/9.0.1/include/arm_neon.h"
  },
  {
   "alignment" : 16,
   "linker_set_key" : "__attribute__((neon_vector_type(16))) signed char [3]",
   "name" : "__attribute__((neon_vector_type(16))) signed char [3]",
   "referenced_type" : "type-1366",
   "self_type" : "type-1365",
   "size" : 48,
   "source_file" : "/prebuilts/clang-tools/linux-x86/lib64/clang/9.0.1/include/arm_neon.h"
  },
  {
   "alignment" : 16,
   "linker_set_key" : "__attribute__((neon_vector_type(16))) signed char [4]",
   "name" : "__attribute__((neon_vector_type(16))) signed char [4]",
   "referenced_type" : "type-1438",
   "self_type" : "type-1437",
   "size" : 64,
   "source_file" : "/prebuilts/clang-tools/linux-x86/lib64/clang/9.0.1/include/arm_neon.h"
  },
  {
   "alignment" : 16,
   "linker_set_key" : "__attribute__((neon_vector_type(16))) unsigned char [2]",
   "name" : "__attribute__((neon_vector_type(16))) unsigned char [2]",
   "referenced_type" : "type-1318",
   "self_type" : "type-1317",
   "size" : 32,
   "source_file" : "/prebuilts/clang-tools/linux-x86/lib64/clang/9.0.1/include/arm_neon.h"
  },
  {
   "alignment" : 16,
   "linker_set_key" : "__attribute__((neon_vector_type(16))) unsigned char [3]",
   "name" : "__attribute__((neon_vector_type(16))) unsigned char [3]",
   "referenced_type" : "type-1390",
   "self_type" : "type-1389",
   "size" : 48,
   "source_file" : "/prebuilts/clang-tools/linux-x86/lib64/clang/9.0.1/include/arm_neon.h"
  },
  {
   "alignment" : 16,
   "linker_set_key" : "__attribute__((neon_vector_type(16))) unsigned char [4]",
   "name" : "__attribute__((neon_vector_type(16))) unsigned char [4]",
   "referenced_type" : "type-1462",
   "self_type" : "type-1461",
   "size" : 64,
   "source_file" : "/prebuilts/clang-tools/linux-x86/lib64/clang/9.0.1/include/arm_neon.h"
  },
  {
   "alignment" : 8,
   "linker_set_key" : "__attribute__((neon_vector_type(2))) float [2]",
   "name" : "__attribute__((neon_vector_type(2))) float [2]",
   "referenced_type" : "type-1345",
   "self_type" : "type-1344",
   "size" : 16,
   "source_file" : "/prebuilts/clang-tools/linux-x86/lib64/clang/9.0.1/include/arm_neon.h"
  },
  {
   "alignment" : 8,
   "linker_set_key" : "__attribute__((neon_vector_type(2))) float [3]",
   "name" : "__attribute__((neon_vector_type(2))) float [3]",
   "referenced_type" : "type-1417",
   "self_type" : "type-1416",
   "size" : 24,
   "source_file" : "/prebuilts/clang-tools/linux-x86/lib64/clang/9.0.1/include/arm_neon.h"
  },
  {
   "alignment" : 8,
   "linker_set_key" : "__attribute__((neon_vector_type(2))) float [4]",
   "name" : "__attribute__((neon_vector_type(2))) float [4]",
   "referenced_type" : "type-1489",
   "self_type" : "type-1488",
   "size" : 32,
   "source_file" : "/prebuilts/clang-tools/linux-x86/lib64/clang/9.0.1/include/arm_neon.h"
  },
  {
   "alignment" : 8,
   "linker_set_key" : "__attribute__((neon_vector_type(2))) int [2]",
   "name" : "__attribute__((neon_vector_type(2))) int [2]",
   "referenced_type" : "type-1303",
   "self_type" : "type-1302",
   "size" : 16,
   "source_file" : "/prebuilts/clang-tools/linux-x86/lib64/clang/9.0.1/include/arm_neon.h"
  },
  {
   "alignment" : 8,
   "linker_set_key" : "__attribute__((neon_vector_type(2))) int [3]",
   "name" : "__attribute__((neon_vector_type(2))) int [3]",
   "referenced_type" : "type-1375",
   "self_type" : "type-1374",
   "size" : 24,
   "source_file" : "/prebuilts/clang-tools/linux-x86/lib64/clang/9.0.1/include/arm_neon.h"
  },
  {
   "alignment" : 8,
   "linker_set_key" : "__attribute__((neon_vector_type(2))) int [4]",
   "name" : "__attribute__((neon_vector_type(2))) int [4]",
   "referenced_type" : "type-1447",
   "self_type" : "type-1446",
   "size" : 32,
   "source_file" : "/prebuilts/clang-tools/linux-x86/lib64/clang/9.0.1/include/arm_neon.h"
  },
  {
   "alignment" : 16,
   "linker_set_key" : "__attribute__((neon_vector_type(2))) long long [2]",
   "name" : "__attribute__((neon_vector_type(2))) long long [2]",
   "referenced_type" : "type-1312",
   "self_type" : "type-1311",
   "size" : 32,
   "source_file" : "/prebuilts/clang-tools/linux-x86/lib64/clang/9.0.1/include/arm_neon.h"
  },
  {
   "alignment" : 16,
   "linker_set_key" : "__attribute__((neon_vector_type(2))) long long [3]",
   "name" : "__attribute__((neon_vector_type(2))) long long [3]",
   "referenced_type" : "type-1384",
   "self_type" : "type-1383",
   "size" : 48,
   "source_file" : "/prebuilts/clang-tools/linux-x86/lib64/clang/9.0.1/include/arm_neon.h"
  },
  {
   "alignment" : 16,
   "linker_set_key" : "__attribute__((neon_vector_type(2))) long long [4]",
   "name" : "__attribute__((neon_vector_type(2))) long long [4]",
   "referenced_type" : "type-1456",
   "self_type" : "type-1455",
   "size" : 64,
   "source_file" : "/prebuilts/clang-tools/linux-x86/lib64/clang/9.0.1/include/arm_neon.h"
  },
  {
   "alignment" : 8,
   "linker_set_key" : "__attribute__((neon_vector_type(2))) unsigned int [2]",
   "name" : "__attribute__((neon_vector_type(2))) unsigned int [2]",
   "referenced_type" : "type-1327",
   "self_type" : "type-1326",
   "size" : 16,
   "source_file" : "/prebuilts/clang-tools/linux-x86/lib64/clang/9.0.1/include/arm_neon.h"
  },
  {
   "alignment" : 8,
   "linker_set_key" : "__attribute__((neon_vector_type(2))) unsigned int [3]",
   "name" : "__attribute__((neon_vector_type(2))) unsigned int [3]",
   "referenced_type" : "type-1399",
   "self_type" : "type-1398",
   "size" : 24,
   "source_file" : "/prebuilts/clang-tools/linux-x86/lib64/clang/9.0.1/include/arm_neon.h"
  },
  {
   "alignment" : 8,
   "linker_set_key" : "__attribute__((neon_vector_type(2))) unsigned int [4]",
   "name" : "__attribute__((neon_vector_type(2))) unsigned int [4]",
   "referenced_type" : "type-1471",
   "self_type" : "type-1470",
   "size" : 32,
   "source_file" : "/prebuilts/clang-tools/linux-x86/lib64/clang/9.0.1/include/arm_neon.h"
  },
  {
   "alignment" : 16,
   "linker_set_key" : "__attribute__((neon_vector_type(2))) unsigned long long [2]",
   "name" : "__attribute__((neon_vector_type(2))) unsigned long long [2]",
   "referenced_type" : "type-1336",
   "self_type" : "type-1335",
   "size" : 32,
   "source_file" : "/prebuilts/clang-tools/linux-x86/lib64/clang/9.0.1/include/arm_neon.h"
  },
  {
   "alignment" : 16,
   "linker_set_key" : "__attribute__((neon_vector_type(2))) unsigned long long [3]",
   "name" : "__attribute__((neon_vector_type(2))) unsigned long long [3]",
   "referenced_type" : "type-1408",
   "self_type" : "type-1407",
   "size" : 48,
   "source_file" : "/prebuilts/clang-tools/linux-x86/lib64/clang/9.0.1/include/arm_neon.h"
  },
  {
   "alignment" : 16,
   "linker_set_key" : "__attribute__((neon_vector_type(2))) unsigned long long [4]",
   "name" : "__attribute__((neon_vector_type(2))) unsigned long long [4]",
   "referenced_type" : "type-1480",
   "self_type" : "type-1479",
   "size" : 64,
   "source_file" : "/prebuilts/clang-tools/linux-x86/lib64/clang/9.0.1/include/arm_neon.h"
  },
  {
   "alignment" : 8,
   "linker_set_key" : "__attribute__((neon_vector_type(4))) __fp16 [2]",
   "name" : "__attribute__((neon_vector_type(4))) __fp16 [2]",
   "referenced_type" : "type-1339",
   "self_type" : "type-1338",
   "size" : 16,
   "source_file" : "/prebuilts/clang-tools/linux-x86/lib64/clang/9.0.1/include/arm_neon.h"
  },
  {
   "alignment" : 8,
   "linker_set_key" : "__attribute__((neon_vector_type(4))) __fp16 [3]",
   "name" : "__attribute__((neon_vector_type(4))) __fp16 [3]",
   "referenced_type" : "type-1411",
   "self_type" : "type-1410",
   "size" : 24,
   "source_file" : "/prebuilts/clang-tools/linux-x86/lib64/clang/9.0.1/include/arm_neon.h"
  },
  {
   "alignment" : 8,
   "linker_set_key" : "__attribute__((neon_vector_type(4))) __fp16 [4]",
   "name" : "__attribute__((neon_vector_type(4))) __fp16 [4]",
   "referenced_type" : "type-1483",
   "self_type" : "type-1482",
   "size" : 32,
   "source_file" : "/prebuilts/clang-tools/linux-x86/lib64/clang/9.0.1/include/arm_neon.h"
  },
  {
   "alignment" : 16,
   "linker_set_key" : "__attribute__((neon_vector_type(4))) float [2]",
   "name" : "__attribute__((neon_vector_type(4))) float [2]",
   "referenced_type" : "type-1348",
   "self_type" : "type-1347",
   "size" : 32,
   "source_file" : "/prebuilts/clang-tools/linux-x86/lib64/clang/9.0.1/include/arm_neon.h"
  },
  {
   "alignment" : 16,
   "linker_set_key" : "__attribute__((neon_vector_type(4))) float [3]",
   "name" : "__attribute__((neon_vector_type(4))) float [3]",
   "referenced_type" : "type-1420",
   "self_type" : "type-1419",
   "size" : 48,
   "source_file" : "/prebuilts/clang-tools/linux-x86/lib64/clang/9.0.1/include/arm_neon.h"
  },
  {
   "alignment" : 16,
   "linker_set_key" : "__attribute__((neon_vector_type(4))) float [4]",
   "name" : "__attribute__((neon_vector_type(4))) float [4]",
   "referenced_type" : "type-1492",
   "self_type" : "type-1491",
   "size" : 64,
   "source_file" : "/prebuilts/clang-tools/linux-x86/lib64/clang/9.0.1/include/arm_neon.h"
  },
  {
   "alignment" : 16,
   "linker_set_key" : "__attribute__((neon_vector_type(4))) int [2]",
   "name" : "__attribute__((neon_vector_type(4))) int [2]",
   "referenced_type" : "type-1306",
   "self_type" : "type-1305",
   "size" : 32,
   "source_file" : "/prebuilts/clang-tools/linux-x86/lib64/clang/9.0.1/include/arm_neon.h"
  },
  {
   "alignment" : 16,
   "linker_set_key" : "__attribute__((neon_vector_type(4))) int [3]",
   "name" : "__attribute__((neon_vector_type(4))) int [3]",
   "referenced_type" : "type-1378",
   "self_type" : "type-1377",
   "size" : 48,
   "source_file" : "/prebuilts/clang-tools/linux-x86/lib64/clang/9.0.1/include/arm_neon.h"
  },
  {
   "alignment" : 16,
   "linker_set_key" : "__attribute__((neon_vector_type(4))) int [4]",
   "name" : "__attribute__((neon_vector_type(4))) int [4]",
   "referenced_type" : "type-1450",
   "self_type" : "type-1449",
   "size" : 64,
   "source_file" : "/prebuilts/clang-tools/linux-x86/lib64/clang/9.0.1/include/arm_neon.h"
  },
  {
   "alignment" : 8,
   "linker_set_key" : "__attribute__((neon_vector_type(4))) short [2]",
   "name" : "__attribute__((neon_vector_type(4))) short [2]",
   "referenced_type" : "type-1297",
   "self_type" : "type-1296",
   "size" : 16,
   "source_file" : "/prebuilts/clang-tools/linux-x86/lib64/clang/9.0.1/include/arm_neon.h"
  },
  {
   "alignment" : 8,
   "linker_set_key" : "__attribute__((neon_vector_type(4))) short [3]",
   "name" : "__attribute__((neon_vector_type(4))) short [3]",
   "referenced_type" : "type-1369",
   "self_type" : "type-1368",
   "size" : 24,
   "source_file" : "/prebuilts/clang-tools/linux-x86/lib64/clang/9.0.1/include/arm_neon.h"
  },
  {
   "alignment" : 8,
   "linker_set_key" : "__attribute__((neon_vector_type(4))) short [4]",
   "name" : "__attribute__((neon_vector_type(4))) short [4]",
   "referenced_type" : "type-1441",
   "self_type" : "type-1440",
   "size" : 32,
   "source_file" : "/prebuilts/clang-tools/linux-x86/lib64/clang/9.0.1/include/arm_neon.h"
  },
  {
   "alignment" : 16,
   "linker_set_key" : "__attribute__((neon_vector_type(4))) unsigned int [2]",
   "name" : "__attribute__((neon_vector_type(4))) unsigned int [2]",
   "referenced_type" : "type-1330",
   "self_type" : "type-1329",
   "size" : 32,
   "source_file" : "/prebuilts/clang-tools/linux-x86/lib64/clang/9.0.1/include/arm_neon.h"
  },
  {
   "alignment" : 16,
   "linker_set_key" : "__attribute__((neon_vector_type(4))) unsigned int [3]",
   "name" : "__attribute__((neon_vector_type(4))) unsigned int [3]",
   "referenced_type" : "type-1402",
   "self_type" : "type-1401",
   "size" : 48,
   "source_file" : "/prebuilts/clang-tools/linux-x86/lib64/clang/9.0.1/include/arm_neon.h"
  },
  {
   "alignment" : 16,
   "linker_set_key" : "__attribute__((neon_vector_type(4))) unsigned int [4]",
   "name" : "__attribute__((neon_vector_type(4))) unsigned int [4]",
   "referenced_type" : "type-1474",
   "self_type" : "type-1473",
   "size" : 64,
   "source_file" : "/prebuilts/clang-tools/linux-x86/lib64/clang/9.0.1/include/arm_neon.h"
  },
  {
   "alignment" : 8,
   "linker_set_key" : "__attribute__((neon_vector_type(4))) unsigned short [2]",
   "name" : "__attribute__((neon_vector_type(4))) unsigned short [2]",
   "referenced_type" : "type-1321",
   "self_type" : "type-1320",
   "size" : 16,
   "source_file" : "/prebuilts/clang-tools/linux-x86/lib64/clang/9.0.1/include/arm_neon.h"
  },
  {
   "alignment" : 8,
   "linker_set_key" : "__attribute__((neon_vector_type(4))) unsigned short [3]",
   "name" : "__attribute__((neon_vector_type(4))) unsigned short [3]",
   "referenced_type" : "type-1393",
   "self_type" : "type-1392",
   "size" : 24,
   "source_file" : "/prebuilts/clang-tools/linux-x86/lib64/clang/9.0.1/include/arm_neon.h"
  },
  {
   "alignment" : 8,
   "linker_set_key" : "__attribute__((neon_vector_type(4))) unsigned short [4]",
   "name" : "__attribute__((neon_vector_type(4))) unsigned short [4]",
   "referenced_type" : "type-1465",
   "self_type" : "type-1464",
   "size" : 32,
   "source_file" : "/prebuilts/clang-tools/linux-x86/lib64/clang/9.0.1/include/arm_neon.h"
  },
  {
   "alignment" : 16,
   "linker_set_key" : "__attribute__((neon_vector_type(8))) __fp16 [2]",
   "name" : "__attribute__((neon_vector_type(8))) __fp16 [2]",
   "referenced_type" : "type-1342",
   "self_type" : "type-1341",
   "size" : 32,
   "source_file" : "/prebuilts/clang-tools/linux-x86/lib64/clang/9.0.1/include/arm_neon.h"
  },
  {
   "alignment" : 16,
   "linker_set_key" : "__attribute__((neon_vector_type(8))) __fp16 [3]",
   "name" : "__attribute__((neon_vector_type(8))) __fp16 [3]",
   "referenced_type" : "type-1414",
   "self_type" : "type-1413",
   "size" : 48,
   "source_file" : "/prebuilts/clang-tools/linux-x86/lib64/clang/9.0.1/include/arm_neon.h"
  },
  {
   "alignment" : 16,
   "linker_set_key" : "__attribute__((neon_vector_type(8))) __fp16 [4]",
   "name" : "__attribute__((neon_vector_type(8))) __fp16 [4]",
   "referenced_type" : "type-1486",
   "self_type" : "type-1485",
   "size" : 64,
   "source_file" : "/prebuilts/clang-tools/linux-x86/lib64/clang/9.0.1/include/arm_neon.h"
  },
  {
   "alignment" : 16,
   "linker_set_key" : "__attribute__((neon_vector_type(8))) short [2]",
   "name" : "__attribute__((neon_vector_type(8))) short [2]",
   "referenced_type" : "type-1300",
   "self_type" : "type-1299",
   "size" : 32,
   "source_file" : "/prebuilts/clang-tools/linux-x86/lib64/clang/9.0.1/include/arm_neon.h"
  },
  {
   "alignment" : 16,
   "linker_set_key" : "__attribute__((neon_vector_type(8))) short [3]",
   "name" : "__attribute__((neon_vector_type(8))) short [3]",
   "referenced_type" : "type-1372",
   "self_type" : "type-1371",
   "size" : 48,
   "source_file" : "/prebuilts/clang-tools/linux-x86/lib64/clang/9.0.1/include/arm_neon.h"
  },
  {
   "alignment" : 16,
   "linker_set_key" : "__attribute__((neon_vector_type(8))) short [4]",
   "name" : "__attribute__((neon_vector_type(8))) short [4]",
   "referenced_type" : "type-1444",
   "self_type" : "type-1443",
   "size" : 64,
   "source_file" : "/prebuilts/clang-tools/linux-x86/lib64/clang/9.0.1/include/arm_neon.h"
  },
  {
   "alignment" : 8,
   "linker_set_key" : "__attribute__((neon_vector_type(8))) signed char [2]",
   "name" : "__attribute__((neon_vector_type(8))) signed char [2]",
   "referenced_type" : "type-1291",
   "self_type" : "type-1290",
   "size" : 16,
   "source_file" : "/prebuilts/clang-tools/linux-x86/lib64/clang/9.0.1/include/arm_neon.h"
  },
  {
   "alignment" : 8,
   "linker_set_key" : "__attribute__((neon_vector_type(8))) signed char [3]",
   "name" : "__attribute__((neon_vector_type(8))) signed char [3]",
   "referenced_type" : "type-1363",
   "self_type" : "type-1362",
   "size" : 24,
   "source_file" : "/prebuilts/clang-tools/linux-x86/lib64/clang/9.0.1/include/arm_neon.h"
  },
  {
   "alignment" : 8,
   "linker_set_key" : "__attribute__((neon_vector_type(8))) signed char [4]",
   "name" : "__attribute__((neon_vector_type(8))) signed char [4]",
   "referenced_type" : "type-1435",
   "self_type" : "type-1434",
   "size" : 32,
   "source_file" : "/prebuilts/clang-tools/linux-x86/lib64/clang/9.0.1/include/arm_neon.h"
  },
  {
   "alignment" : 8,
   "linker_set_key" : "__attribute__((neon_vector_type(8))) unsigned char [2]",
   "name" : "__attribute__((neon_vector_type(8))) unsigned char [2]",
   "referenced_type" : "type-1315",
   "self_type" : "type-1314",
   "size" : 16,
   "source_file" : "/prebuilts/clang-tools/linux-x86/lib64/clang/9.0.1/include/arm_neon.h"
  },
  {
   "alignment" : 8,
   "linker_set_key" : "__attribute__((neon_vector_type(8))) unsigned char [3]",
   "name" : "__attribute__((neon_vector_type(8))) unsigned char [3]",
   "referenced_type" : "type-1387",
   "self_type" : "type-1386",
   "size" : 24,
   "source_file" : "/prebuilts/clang-tools/linux-x86/lib64/clang/9.0.1/include/arm_neon.h"
  },
  {
   "alignment" : 8,
   "linker_set_key" : "__attribute__((neon_vector_type(8))) unsigned char [4]",
   "name" : "__attribute__((neon_vector_type(8))) unsigned char [4]",
   "referenced_type" : "type-1459",
   "self_type" : "type-1458",
   "size" : 32,
   "source_file" : "/prebuilts/clang-tools/linux-x86/lib64/clang/9.0.1/include/arm_neon.h"
  },
  {
   "alignment" : 16,
   "linker_set_key" : "__attribute__((neon_vector_type(8))) unsigned short [2]",
   "name" : "__attribute__((neon_vector_type(8))) unsigned short [2]",
   "referenced_type" : "type-1324",
   "self_type" : "type-1323",
   "size" : 32,
   "source_file" : "/prebuilts/clang-tools/linux-x86/lib64/clang/9.0.1/include/arm_neon.h"
  },
  {
   "alignment" : 16,
   "linker_set_key" : "__attribute__((neon_vector_type(8))) unsigned short [3]",
   "name" : "__attribute__((neon_vector_type(8))) unsigned short [3]",
   "referenced_type" : "type-1396",
   "self_type" : "type-1395",
   "size" : 48,
   "source_file" : "/prebuilts/clang-tools/linux-x86/lib64/clang/9.0.1/include/arm_neon.h"
  },
  {
   "alignment" : 16,
   "linker_set_key" : "__attribute__((neon_vector_type(8))) unsigned short [4]",
   "name" : "__attribute__((neon_vector_type(8))) unsigned short [4]",
   "referenced_type" : "type-1468",
   "self_type" : "type-1467",
   "size" : 64,
   "source_file" : "/prebuilts/clang-tools/linux-x86/lib64/clang/9.0.1/include/arm_neon.h"
  },
  {
   "linker_set_key" : "__sFILE []",
   "name" : "__sFILE []",
   "referenced_type" : "type-3316",
   "self_type" : "type-3318",
   "source_file" : "/out/soong/ndk/sysroot/usr/include/stdio.h"
  },
  {
   "linker_set_key" : "char *[]",
   "name" : "char *[]",
   "referenced_type" : "type-539",
   "self_type" : "type-1889",
   "source_file" : "/bionic/libc/include/time.h"
  },
  {
   "alignment" : 1,
   "linker_set_key" : "char [11]",
   "name" : "char [11]",
   "referenced_type" : "type-21",
   "self_type" : "type-658",
   "size" : 11,
   "source_file" : "/external/libcxx/include/string"
  },
  {
   "alignment" : 1,
   "linker_set_key" : "char [120]",
   "name" : "char [120]",
   "referenced_type" : "type-21",
   "self_type" : "type-1570",
   "size" : 120,
   "source_file" : "/bionic/libc/include/sys/ucontext.h"
  },
  {
   "alignment" : 1,
   "linker_set_key" : "char [2]",
   "name" : "char [2]",
   "referenced_type" : "type-21",
   "self_type" : "type-3573",
   "size" : 2,
   "source_file" : "/external/libcxx/include/type_traits"
  },
  {
   "alignment" : 1,
   "linker_set_key" : "char [32]",
   "name" : "char [32]",
   "referenced_type" : "type-21",
   "self_type" : "type-1564",
   "size" : 32,
   "source_file" : "/bionic/libc/include/sys/user.h"
  },
  {
   "alignment" : 1,
   "linker_set_key" : "char [33]",
   "name" : "char [33]",
   "referenced_type" : "type-21",
   "self_type" : "type-2550",
   "size" : 33,
   "source_file" : "/external/libcxx/include/locale"
  },
  {
   "alignment" : 1,
   "linker_set_key" : "char [4]",
   "name" : "char [4]",
   "referenced_type" : "type-21",
   "self_type" : "type-1533",
   "size" : 4,
   "source_file" : "/bionic/libc/kernel/uapi/asm-generic/siginfo.h"
  },
  {
   "alignment" : 1,
   "linker_set_key" : "char [84]",
   "name" : "char [84]",
   "referenced_type" : "type-21",
   "self_type" : "type-3317",
   "size" : 84,
   "source_file" : "/out/soong/ndk/sysroot/usr/include/bits/struct_file.h"
  },
  {
   "alignment" : 1,
   "linker_set_key" : "char [8]",
   "name" : "char [8]",
   "referenced_type" : "type-21",
   "self_type" : "type-2145",
   "size" : 8,
   "source_file" : "/external/libcxx/include/functional"
  },
  {
   "alignment" : 2,
   "linker_set_key" : "char16_t [5]",
   "name" : "char16_t [5]",
   "referenced_type" : "type-565",
   "self_type" : "type-568",
   "size" : 10,
   "source_file" : "/external/libcxx/include/string"
  },
  {
   "alignment" : 4,
   "linker_set_key" : "char32_t [2]",
   "name" : "char32_t [2]",
   "referenced_type" : "type-583",
   "self_type" : "type-586",
   "size" : 8,
   "source_file" : "/external/libcxx/include/string"
  },
  {
   "alignment" : 4,
   "linker_set_key" : "const char *[65]",
   "name" : "const char *[65]",
   "referenced_type" : "type-19",
   "self_type" : "type-1572",
   "size" : 260,
   "source_file" : "/bionic/libc/include/signal.h"
  },
  {
   "alignment" : 8,
   "linker_set_key" : "double [32]",
   "name" : "double [32]",
   "referenced_type" : "type-80",
   "self_type" : "type-3125",
   "size" : 256,
   "source_file" : "/external/libunwind_llvm/src/Registers.hpp"
  },
  {
   "alignment" : 8,
   "linker_set_key" : "double [4]",
   "name" : "double [4]",
   "referenced_type" : "type-80",
   "self_type" : "type-1082",
   "size" : 32,
   "source_file" : "/external/libcxx/include/type_traits"
  },
  {
   "alignment" : 4,
   "linker_set_key" : "float [3]",
   "name" : "float [3]",
   "referenced_type" : "type-79",
   "self_type" : "type-1768",
   "size" : 12,
   "source_file" : "/external/skia/third_party/skcms/skcms.h"
  },
  {
   "alignment" : 4,
   "linker_set_key" : "float [3][3]",
   "name" : "float [3][3]",
   "referenced_type" : "type-1768",
   "self_type" : "type-1767",
   "size" : 36,
   "source_file" : "/external/skia/third_party/skcms/skcms.h"
  },
  {
   "alignment" : 4,
   "linker_set_key" : "float [3][4]",
   "name" : "float [3][4]",
   "referenced_type" : "type-1771",
   "self_type" : "type-1770",
   "size" : 48,
   "source_file" : "/external/skia/third_party/skcms/skcms.h"
  },
  {
   "alignment" : 4,
   "linker_set_key" : "float [4]",
   "name" : "float [4]",
   "referenced_type" : "type-79",
   "self_type" : "type-1771",
   "size" : 16,
   "source_file" : "/external/skia/third_party/skcms/skcms.h"
  },
  {
   "alignment" : 4,
   "linker_set_key" : "float [4][4]",
   "name" : "float [4][4]",
   "referenced_type" : "type-1771",
   "self_type" : "type-1837",
   "size" : 64,
   "source_file" : "/external/skia/include/core/SkMatrix44.h"
  },
  {
   "alignment" : 4,
   "linker_set_key" : "float [7]",
   "name" : "float [7]",
   "referenced_type" : "type-79",
   "self_type" : "type-740",
   "size" : 28,
   "source_file" : "/external/skia/include/core/SkColorSpace.h"
  },
  {
   "alignment" : 4,
   "linker_set_key" : "float [9]",
   "name" : "float [9]",
   "referenced_type" : "type-79",
   "self_type" : "type-741",
   "size" : 36,
   "source_file" : "/external/skia/include/core/SkMatrix.h"
  },
  {
   "alignment" : 4,
   "linker_set_key" : "int [10]",
   "name" : "int [10]",
   "referenced_type" : "type-13",
   "self_type" : "type-1280",
   "size" : 40,
   "source_file" : "/bionic/libc/include/bits/pthread_types.h"
  },
  {
   "alignment" : 4,
   "linker_set_key" : "int [13]",
   "name" : "int [13]",
   "referenced_type" : "type-13",
   "self_type" : "type-1543",
   "size" : 52,
   "source_file" : "/bionic/libc/kernel/uapi/asm-generic/siginfo.h"
  },
  {
   "alignment" : 4,
   "linker_set_key" : "int [1]",
   "name" : "int [1]",
   "referenced_type" : "type-13",
   "self_type" : "type-1194",
   "size" : 4,
   "source_file" : "/bionic/libc/include/bits/pthread_types.h"
  },
  {
   "alignment" : 4,
   "linker_set_key" : "int [2]",
   "name" : "int [2]",
   "referenced_type" : "type-13",
   "self_type" : "type-1274",
   "size" : 8,
   "source_file" : "/bionic/libc/kernel/uapi/asm-generic/posix_types.h"
  },
  {
   "alignment" : 4,
   "linker_set_key" : "int [32]",
   "name" : "int [32]",
   "referenced_type" : "type-13",
   "self_type" : "type-1537",
   "size" : 128,
   "source_file" : "/bionic/libc/kernel/uapi/asm-generic/siginfo.h"
  },
  {
   "alignment" : 4,
   "linker_set_key" : "int [8]",
   "name" : "int [8]",
   "referenced_type" : "type-13",
   "self_type" : "type-1277",
   "size" : 32,
   "source_file" : "/bionic/libc/include/bits/pthread_types.h"
  },
  {
   "alignment" : 8,
   "linker_set_key" : "libunwind::Registers_ppc64::ppc64_vsr_t [64]",
   "name" : "libunwind::Registers_ppc64::ppc64_vsr_t [64]",
   "referenced_type" : "type-3135",
   "self_type" : "type-3137",
   "size" : 1024,
   "source_file" : "/external/libunwind_llvm/src/Registers.hpp"
  },
  {
   "alignment" : 4,
   "linker_set_key" : "libunwind::v128 [32]",
   "name" : "libunwind::v128 [32]",
   "referenced_type" : "type-3109",
   "self_type" : "type-3126",
   "size" : 512,
   "source_file" : "/external/libunwind_llvm/src/Registers.hpp"
  },
  {
   "alignment" : 4,
   "linker_set_key" : "skcms_Curve [3]",
   "name" : "skcms_Curve [3]",
   "referenced_type" : "type-1773",
   "self_type" : "type-1779",
   "size" : 96,
   "source_file" : "/external/skia/third_party/skcms/skcms.h"
  },
  {
   "alignment" : 4,
   "linker_set_key" : "skcms_Curve [4]",
   "name" : "skcms_Curve [4]",
   "referenced_type" : "type-1773",
   "self_type" : "type-1777",
   "size" : 128,
   "source_file" : "/external/skia/third_party/skcms/skcms.h"
  },
  {
   "alignment" : 4,
   "linker_set_key" : "std::__1::basic_string<char> [14]",
   "name" : "std::__1::basic_string<char> [14]",
   "referenced_type" : "type-1044",
   "self_type" : "type-2575",
   "size" : 168,
   "source_file" : "/external/libcxx/include/locale"
  },
  {
   "alignment" : 4,
   "linker_set_key" : "std::__1::basic_string<char> [24]",
   "name" : "std::__1::basic_string<char> [24]",
   "referenced_type" : "type-1044",
   "self_type" : "type-2576",
   "size" : 288,
   "source_file" : "/external/libcxx/include/locale"
  },
  {
   "alignment" : 4,
   "linker_set_key" : "std::__1::basic_string<char> [2]",
   "name" : "std::__1::basic_string<char> [2]",
   "referenced_type" : "type-1044",
   "self_type" : "type-2577",
   "size" : 24,
   "source_file" : "/external/libcxx/include/locale"
  },
  {
   "alignment" : 4,
   "linker_set_key" : "std::__1::basic_string<wchar_t> [14]",
   "name" : "std::__1::basic_string<wchar_t> [14]",
   "referenced_type" : "type-1051",
   "self_type" : "type-2579",
   "size" : 168,
   "source_file" : "/external/libcxx/include/locale"
  },
  {
   "alignment" : 4,
   "linker_set_key" : "std::__1::basic_string<wchar_t> [24]",
   "name" : "std::__1::basic_string<wchar_t> [24]",
   "referenced_type" : "type-1051",
   "self_type" : "type-2580",
   "size" : 288,
   "source_file" : "/external/libcxx/include/locale"
  },
  {
   "alignment" : 4,
   "linker_set_key" : "std::__1::basic_string<wchar_t> [2]",
   "name" : "std::__1::basic_string<wchar_t> [2]",
   "referenced_type" : "type-1051",
   "self_type" : "type-2581",
   "size" : 24,
   "source_file" : "/external/libcxx/include/locale"
  },
  {
   "alignment" : 1,
   "linker_set_key" : "unsigned char [16]",
   "name" : "unsigned char [16]",
   "referenced_type" : "type-38",
   "self_type" : "type-1126",
   "size" : 16,
   "source_file" : "/external/libcxx/include/type_traits"
  },
  {
   "alignment" : 1,
   "linker_set_key" : "unsigned char [4]",
   "name" : "unsigned char [4]",
   "referenced_type" : "type-38",
   "self_type" : "type-1778",
   "size" : 4,
   "source_file" : "/external/skia/third_party/skcms/skcms.h"
  },
  {
   "alignment" : 1,
   "linker_set_key" : "unsigned char [8]",
   "name" : "unsigned char [8]",
   "referenced_type" : "type-38",
   "self_type" : "type-1556",
   "size" : 8,
   "source_file" : "/bionic/libc/include/sys/user.h"
  },
  {
   "alignment" : 4,
   "linker_set_key" : "unsigned int [13]",
   "name" : "unsigned int [13]",
   "referenced_type" : "type-555",
   "self_type" : "type-3149",
   "size" : 52,
   "source_file" : "/external/libunwind_llvm/src/Registers.hpp"
  },
  {
   "alignment" : 4,
   "linker_set_key" : "unsigned int [32]",
   "name" : "unsigned int [32]",
   "referenced_type" : "type-555",
   "self_type" : "type-3157",
   "size" : 128,
   "source_file" : "/external/libunwind_llvm/src/Registers.hpp"
  },
  {
   "alignment" : 4,
   "linker_set_key" : "unsigned int [3]",
   "name" : "unsigned int [3]",
   "referenced_type" : "type-555",
   "self_type" : "type-570",
   "size" : 12,
   "source_file" : "/external/libcxx/include/string"
  },
  {
   "alignment" : 4,
   "linker_set_key" : "unsigned int [4]",
   "name" : "unsigned int [4]",
   "referenced_type" : "type-555",
   "self_type" : "type-3101",
   "size" : 16,
   "source_file" : "/external/libunwind_llvm/include/unwind.h"
  },
  {
   "alignment" : 4,
   "linker_set_key" : "unsigned int [5]",
   "name" : "unsigned int [5]",
   "referenced_type" : "type-555",
   "self_type" : "type-3364",
   "size" : 20,
   "source_file" : "/external/libunwind_llvm/include/unwind.h"
  },
  {
   "alignment" : 4,
   "linker_set_key" : "unsigned long [128]",
   "name" : "unsigned long [128]",
   "referenced_type" : "type-608",
   "self_type" : "type-1571",
   "size" : 512,
   "source_file" : "/bionic/libc/include/sys/ucontext.h"
  },
  {
   "alignment" : 4,
   "linker_set_key" : "unsigned long [18]",
   "name" : "unsigned long [18]",
   "referenced_type" : "type-608",
   "self_type" : "type-1558",
   "size" : 72,
   "source_file" : "/bionic/libc/include/sys/user.h"
  },
  {
   "alignment" : 4,
   "linker_set_key" : "unsigned long [1]",
   "name" : "unsigned long [1]",
   "referenced_type" : "type-608",
   "self_type" : "type-2418",
   "size" : 4,
   "source_file" : "/bionic/libc/include/sched.h"
  },
  {
   "alignment" : 4,
   "linker_set_key" : "unsigned long [2]",
   "name" : "unsigned long [2]",
   "referenced_type" : "type-608",
   "self_type" : "type-1548",
   "size" : 8,
   "source_file" : "/bionic/libc/include/bits/signal_types.h"
  },
  {
   "alignment" : 4,
   "linker_set_key" : "unsigned long [32]",
   "name" : "unsigned long [32]",
   "referenced_type" : "type-608",
   "self_type" : "type-1272",
   "size" : 128,
   "source_file" : "/bionic/libc/kernel/uapi/linux/posix_types.h"
  },
  {
   "alignment" : 8,
   "linker_set_key" : "unsigned long long [167]",
   "name" : "unsigned long long [167]",
   "referenced_type" : "type-600",
   "self_type" : "type-3132",
   "size" : 1336,
   "source_file" : "/external/libunwind_llvm/include/libunwind.h"
  },
  {
   "alignment" : 8,
   "linker_set_key" : "unsigned long long [16]",
   "name" : "unsigned long long [16]",
   "referenced_type" : "type-600",
   "self_type" : "type-3151",
   "size" : 128,
   "source_file" : "/external/libunwind_llvm/src/Registers.hpp"
  },
  {
   "alignment" : 8,
   "linker_set_key" : "unsigned long long [179]",
   "name" : "unsigned long long [179]",
   "referenced_type" : "type-600",
   "self_type" : "type-3117",
   "size" : 1432,
   "source_file" : "/external/libunwind_llvm/include/libunwind.h"
  },
  {
   "alignment" : 8,
   "linker_set_key" : "unsigned long long [17]",
   "name" : "unsigned long long [17]",
   "referenced_type" : "type-600",
   "self_type" : "type-3150",
   "size" : 136,
   "source_file" : "/external/libunwind_llvm/src/Registers.hpp"
  },
  {
   "alignment" : 8,
   "linker_set_key" : "unsigned long long [29]",
   "name" : "unsigned long long [29]",
   "referenced_type" : "type-600",
   "self_type" : "type-3143",
   "size" : 232,
   "source_file" : "/external/libunwind_llvm/src/Registers.hpp"
  },
  {
   "alignment" : 8,
   "linker_set_key" : "unsigned long long [32]",
   "name" : "unsigned long long [32]",
   "referenced_type" : "type-600",
   "self_type" : "type-1560",
   "size" : 256,
   "source_file" : "/bionic/libc/include/sys/user.h"
  },
  {
   "alignment" : 4,
   "linker_set_key" : "user_fpregs::fp_reg [8]",
   "name" : "user_fpregs::fp_reg [8]",
   "referenced_type" : "type-1555",
   "self_type" : "type-1554",
   "size" : 96,
   "source_file" : "/bionic/libc/include/sys/user.h"
  },
  {
   "alignment" : 4,
   "linker_set_key" : "user_fpregs::fp_reg [8]",
   "name" : "user_fpregs::fp_reg [8]",
   "referenced_type" : "type-3280",
   "self_type" : "type-3279",
   "size" : 96,
   "source_file" : "/out/soong/ndk/sysroot/usr/include/sys/user.h"
  },
  {
   "linker_set_key" : "void (*[])(const SkMatrix &, SkPoint *, const SkPoint *, int)",
   "name" : "void (*[])(const SkMatrix &, SkPoint *, const SkPoint *, int)",
   "referenced_type" : "type-1825",
   "self_type" : "type-1829",
   "source_file" : "/external/skia/include/core/SkMatrix.h"
  },
  {
   "linker_set_key" : "void (*[])(const SkMatrix &, float, float, SkPoint *)",
   "name" : "void (*[])(const SkMatrix &, float, float, SkPoint *)",
   "referenced_type" : "type-1823",
   "self_type" : "type-1827",
   "source_file" : "/external/skia/include/core/SkMatrix.h"
  },
  {
   "alignment" : 4,
   "linker_set_key" : "wchar_t [2]",
   "name" : "wchar_t [2]",
   "referenced_type" : "type-673",
   "self_type" : "type-676",
   "size" : 8,
   "source_file" : "/external/libcxx/include/string"
  }
 ],
 "builtin_types" :
 [
  {
   "alignment" : 1,
   "is_integral" : true,
   "is_unsigned" : true,
   "linker_set_key" : "bool",
   "name" : "bool",
   "referenced_type" : "type-559",
   "self_type" : "type-559",
   "size" : 1
  },
  {
   "alignment" : 1,
   "is_integral" : true,
   "is_unsigned" : true,
   "linker_set_key" : "char",
   "name" : "char",
   "referenced_type" : "type-21",
   "self_type" : "type-21",
   "size" : 1
  },
  {
   "alignment" : 2,
   "is_integral" : true,
   "is_unsigned" : true,
   "linker_set_key" : "char16_t",
   "name" : "char16_t",
   "referenced_type" : "type-565",
   "self_type" : "type-565",
   "size" : 2
  },
  {
   "alignment" : 4,
   "is_integral" : true,
   "is_unsigned" : true,
   "linker_set_key" : "char32_t",
   "name" : "char32_t",
   "referenced_type" : "type-583",
   "self_type" : "type-583",
   "size" : 4
  },
  {
   "alignment" : 8,
   "linker_set_key" : "double",
   "name" : "double",
   "referenced_type" : "type-80",
   "self_type" : "type-80",
   "size" : 8
  },
  {
   "alignment" : 4,
   "linker_set_key" : "float",
   "name" : "float",
   "referenced_type" : "type-79",
   "self_type" : "type-79",
   "size" : 4
  },
  {
   "alignment" : 4,
   "is_integral" : true,
   "linker_set_key" : "int",
   "name" : "int",
   "referenced_type" : "type-13",
   "self_type" : "type-13",
   "size" : 4
  },
  {
   "alignment" : 4,
   "is_integral" : true,
   "linker_set_key" : "long",
   "name" : "long",
   "referenced_type" : "type-606",
   "self_type" : "type-606",
   "size" : 4
  },
  {
   "alignment" : 8,
   "linker_set_key" : "long double",
   "name" : "long double",
   "referenced_type" : "type-3",
   "self_type" : "type-3",
   "size" : 8
  },
  {
   "alignment" : 8,
   "is_integral" : true,
   "linker_set_key" : "long long",
   "name" : "long long",
   "referenced_type" : "type-2",
   "self_type" : "type-2",
   "size" : 8
  },
  {
   "alignment" : 4,
   "linker_set_key" : "nullptr_t",
   "name" : "nullptr_t",
   "referenced_type" : "type-612",
   "self_type" : "type-612",
   "size" : 4
  },
  {
   "alignment" : 2,
   "is_integral" : true,
   "linker_set_key" : "short",
   "name" : "short",
   "referenced_type" : "type-78",
   "self_type" : "type-78",
   "size" : 2
  },
  {
   "alignment" : 1,
   "is_integral" : true,
   "linker_set_key" : "signed char",
   "name" : "signed char",
   "referenced_type" : "type-25",
   "self_type" : "type-25",
   "size" : 1
  },
  {
   "alignment" : 1,
   "is_integral" : true,
   "is_unsigned" : true,
   "linker_set_key" : "unsigned char",
   "name" : "unsigned char",
   "referenced_type" : "type-38",
   "self_type" : "type-38",
   "size" : 1
  },
  {
   "alignment" : 4,
   "is_integral" : true,
   "is_unsigned" : true,
   "linker_set_key" : "unsigned int",
   "name" : "unsigned int",
   "referenced_type" : "type-555",
   "self_type" : "type-555",
   "size" : 4
  },
  {
   "alignment" : 4,
   "is_integral" : true,
   "is_unsigned" : true,
   "linker_set_key" : "unsigned long",
   "name" : "unsigned long",
   "referenced_type" : "type-608",
   "self_type" : "type-608",
   "size" : 4
  },
  {
   "alignment" : 8,
   "is_integral" : true,
   "is_unsigned" : true,
   "linker_set_key" : "unsigned long long",
   "name" : "unsigned long long",
   "referenced_type" : "type-600",
   "self_type" : "type-600",
   "size" : 8
  },
  {
   "alignment" : 2,
   "is_integral" : true,
   "is_unsigned" : true,
   "linker_set_key" : "unsigned short",
   "name" : "unsigned short",
   "referenced_type" : "type-77",
   "self_type" : "type-77",
   "size" : 2
  },
  {
   "linker_set_key" : "void",
   "name" : "void",
   "referenced_type" : "type-10",
   "self_type" : "type-10"
  },
  {
   "alignment" : 4,
   "is_integral" : true,
   "is_unsigned" : true,
   "linker_set_key" : "wchar_t",
   "name" : "wchar_t",
   "referenced_type" : "type-673",
   "self_type" : "type-673",
   "size" : 4
  }
 ],
 "elf_functions" :
 [
  {
   "name" : "AndroidBitmap_getInfo"
  },
  {
   "name" : "AndroidBitmap_lockPixels"
  },
  {
   "name" : "AndroidBitmap_unlockPixels"
  }
 ],
 "elf_objects" : [],
 "enum_types" :
 [
  {
   "alignment" : 4,
   "enum_fields" :
   [
    {
     "enum_field_value" : 0,
     "name" : "ANDROID_BITMAP_FORMAT_NONE"
    },
    {
     "enum_field_value" : 1,
     "name" : "ANDROID_BITMAP_FORMAT_RGBA_8888"
    },
    {
     "enum_field_value" : 4,
     "name" : "ANDROID_BITMAP_FORMAT_RGB_565"
    },
    {
     "enum_field_value" : 7,
     "name" : "ANDROID_BITMAP_FORMAT_RGBA_4444"
    },
    {
     "enum_field_value" : 8,
     "name" : "ANDROID_BITMAP_FORMAT_A_8"
    }
   ],
   "linker_set_key" : "AndroidBitmapFormat",
   "name" : "AndroidBitmapFormat",
   "referenced_type" : "type-2707",
   "self_type" : "type-2707",
   "size" : 4,
   "source_file" : "/frameworks/native/include/android/bitmap.h",
   "underlying_type" : "type-555",
   "unique_id" : "AndroidBitmapFormat"
  },
  {
   "alignment" : 4,
   "enum_fields" :
   [
    {
     "enum_field_value" : 0,
     "name" : "(anonymous namespace)::Descriptor::SU16"
    },
    {
     "enum_field_value" : 1,
     "name" : "(anonymous namespace)::Descriptor::LU16"
    },
    {
     "enum_field_value" : 3,
     "name" : "(anonymous namespace)::Descriptor::LU32"
    },
    {
     "enum_field_value" : 4,
     "name" : "(anonymous namespace)::Descriptor::RESERVED0"
    },
    {
     "enum_field_value" : 5,
     "name" : "(anonymous namespace)::Descriptor::RESERVED1"
    },
    {
     "enum_field_value" : 6,
     "name" : "(anonymous namespace)::Descriptor::RESERVED2"
    },
    {
     "enum_field_value" : 7,
     "name" : "(anonymous namespace)::Descriptor::RESERVED3"
    },
    {
     "enum_field_value" : 8,
     "name" : "(anonymous namespace)::Descriptor::RESERVED4"
    },
    {
     "enum_field_value" : 9,
     "name" : "(anonymous namespace)::Descriptor::RESERVED5"
    },
    {
     "enum_field_value" : 10,
     "name" : "(anonymous namespace)::Descriptor::RESERVED6"
    },
    {
     "enum_field_value" : 11,
     "name" : "(anonymous namespace)::Descriptor::RESERVED7"
    },
    {
     "enum_field_value" : 12,
     "name" : "(anonymous namespace)::Descriptor::RESERVED8"
    },
    {
     "enum_field_value" : 13,
     "name" : "(anonymous namespace)::Descriptor::RESERVED9"
    },
    {
     "enum_field_value" : 14,
     "name" : "(anonymous namespace)::Descriptor::RESERVED10"
    },
    {
     "enum_field_value" : 15,
     "name" : "(anonymous namespace)::Descriptor::RESERVED11"
    }
   ],
   "linker_set_key" : "Descriptor::Format",
   "name" : "Descriptor::Format",
   "referenced_type" : "type-3369",
   "self_type" : "type-3369",
   "size" : 4,
   "source_file" : "/external/libunwind_llvm/src/Unwind-EHABI.cpp",
   "underlying_type" : "type-555",
   "unique_id" : "_ZTSN12_GLOBAL__N_110Descriptor6FormatE"
  },
  {
   "alignment" : 4,
   "enum_fields" :
   [
    {
     "enum_field_value" : 0,
     "name" : "(anonymous namespace)::Descriptor::CLEANUP"
    },
    {
     "enum_field_value" : 1,
     "name" : "(anonymous namespace)::Descriptor::FUNC"
    },
    {
     "enum_field_value" : 2,
     "name" : "(anonymous namespace)::Descriptor::CATCH"
    },
    {
     "enum_field_value" : 4,
     "name" : "(anonymous namespace)::Descriptor::INVALID"
    }
   ],
   "linker_set_key" : "Descriptor::Kind",
   "name" : "Descriptor::Kind",
   "referenced_type" : "type-3370",
   "self_type" : "type-3370",
   "size" : 4,
   "source_file" : "/external/libunwind_llvm/src/Unwind-EHABI.cpp",
   "underlying_type" : "type-555",
   "unique_id" : "_ZTSN12_GLOBAL__N_110Descriptor4KindE"
  },
  {
   "alignment" : 4,
   "enum_fields" :
   [
    {
     "enum_field_value" : 0,
     "name" : "kUnknown_SkAlphaType"
    },
    {
     "enum_field_value" : 1,
     "name" : "kOpaque_SkAlphaType"
    },
    {
     "enum_field_value" : 2,
     "name" : "kPremul_SkAlphaType"
    },
    {
     "enum_field_value" : 3,
     "name" : "kUnpremul_SkAlphaType"
    },
    {
     "enum_field_value" : 3,
     "name" : "kLastEnum_SkAlphaType"
    }
   ],
   "linker_set_key" : "SkAlphaType",
   "name" : "SkAlphaType",
   "referenced_type" : "type-2672",
   "self_type" : "type-2672",
   "size" : 4,
   "source_file" : "/external/skia/include/core/SkImageInfo.h",
   "underlying_type" : "type-555",
   "unique_id" : "_ZTS11SkAlphaType"
  },
  {
   "alignment" : 4,
   "enum_fields" :
   [
    {
     "enum_field_value" : 0,
     "name" : "SkBackingFit::kApprox"
    },
    {
     "enum_field_value" : 1,
     "name" : "SkBackingFit::kExact"
    }
   ],
   "linker_set_key" : "SkBackingFit",
   "name" : "SkBackingFit",
   "referenced_type" : "type-1269",
   "self_type" : "type-1269",
   "size" : 4,
   "source_file" : "/external/skia/include/core/SkTypes.h",
   "underlying_type" : "type-13",
   "unique_id" : "_ZTS12SkBackingFit"
  },
  {
   "alignment" : 4,
   "enum_fields" :
   [
    {
     "enum_field_value" : 1,
     "name" : "SkBitmap::kZeroPixels_AllocFlag"
    }
   ],
   "linker_set_key" : "SkBitmap::AllocFlags",
   "name" : "SkBitmap::AllocFlags",
   "referenced_type" : "type-2694",
   "self_type" : "type-2694",
   "size" : 4,
   "source_file" : "/external/skia/include/core/SkBitmap.h",
   "underlying_type" : "type-555",
   "unique_id" : "_ZTSN8SkBitmap10AllocFlagsE"
  },
  {
   "access" : "private",
   "alignment" : 4,
   "enum_fields" :
   [
    {
     "enum_field_value" : 2,
     "name" : "SkBitmap::kImageIsVolatile_Flag"
    }
   ],
   "linker_set_key" : "SkBitmap::Flags",
   "name" : "SkBitmap::Flags",
   "referenced_type" : "type-2701",
   "self_type" : "type-2701",
   "size" : 4,
   "source_file" : "/external/skia/include/core/SkBitmap.h",
   "underlying_type" : "type-555",
   "unique_id" : "_ZTSN8SkBitmap5FlagsE"
  },
  {
   "alignment" : 1,
   "enum_fields" :
   [
    {
     "enum_field_value" : 0,
     "name" : "SkBudgeted::kNo"
    },
    {
     "enum_field_value" : 1,
     "name" : "SkBudgeted::kYes"
    }
   ],
   "linker_set_key" : "SkBudgeted",
   "name" : "SkBudgeted",
   "referenced_type" : "type-1268",
   "self_type" : "type-1268",
   "size" : 1,
   "source_file" : "/external/skia/include/core/SkTypes.h",
   "underlying_type" : "type-559",
   "unique_id" : "_ZTS10SkBudgeted"
  },
  {
   "alignment" : 4,
   "enum_fields" :
   [
    {
     "enum_field_value" : 0,
     "name" : "kUnknown_SkColorType"
    },
    {
     "enum_field_value" : 1,
     "name" : "kAlpha_8_SkColorType"
    },
    {
     "enum_field_value" : 2,
     "name" : "kRGB_565_SkColorType"
    },
    {
     "enum_field_value" : 3,
     "name" : "kARGB_4444_SkColorType"
    },
    {
     "enum_field_value" : 4,
     "name" : "kRGBA_8888_SkColorType"
    },
    {
     "enum_field_value" : 5,
     "name" : "kRGB_888x_SkColorType"
    },
    {
     "enum_field_value" : 6,
     "name" : "kBGRA_8888_SkColorType"
    },
    {
     "enum_field_value" : 7,
     "name" : "kRGBA_1010102_SkColorType"
    },
    {
     "enum_field_value" : 8,
     "name" : "kRGB_101010x_SkColorType"
    },
    {
     "enum_field_value" : 9,
     "name" : "kGray_8_SkColorType"
    },
    {
     "enum_field_value" : 10,
     "name" : "kRGBA_F16Norm_SkColorType"
    },
    {
     "enum_field_value" : 11,
     "name" : "kRGBA_F16_SkColorType"
    },
    {
     "enum_field_value" : 12,
     "name" : "kRGBA_F32_SkColorType"
    },
    {
     "enum_field_value" : 12,
     "name" : "kLastEnum_SkColorType"
    },
    {
     "enum_field_value" : 4,
     "name" : "kN32_SkColorType"
    }
   ],
   "linker_set_key" : "SkColorType",
   "name" : "SkColorType",
   "referenced_type" : "type-2673",
   "self_type" : "type-2673",
   "size" : 4,
   "source_file" : "/external/skia/include/core/SkImageInfo.h",
   "underlying_type" : "type-555",
   "unique_id" : "_ZTS11SkColorType"
  },
  {
   "alignment" : 4,
   "enum_fields" :
   [
    {
     "enum_field_value" : 0,
     "name" : "kNone_SkFilterQuality"
    },
    {
     "enum_field_value" : 1,
     "name" : "kLow_SkFilterQuality"
    },
    {
     "enum_field_value" : 2,
     "name" : "kMedium_SkFilterQuality"
    },
    {
     "enum_field_value" : 3,
     "name" : "kHigh_SkFilterQuality"
    },
    {
     "enum_field_value" : 3,
     "name" : "kLast_SkFilterQuality"
    }
   ],
   "linker_set_key" : "SkFilterQuality",
   "name" : "SkFilterQuality",
   "referenced_type" : "type-2682",
   "self_type" : "type-2682",
   "size" : 4,
   "source_file" : "/external/skia/include/core/SkFilterQuality.h",
   "underlying_type" : "type-555",
   "unique_id" : "_ZTS15SkFilterQuality"
  },
  {
   "alignment" : 4,
   "enum_fields" :
   [
    {
     "enum_field_value" : 0,
     "name" : "SkMatrix44::kIdentity_Constructor"
    }
   ],
   "linker_set_key" : "SkMatrix44::Identity_Constructor",
   "name" : "SkMatrix44::Identity_Constructor",
   "referenced_type" : "type-1839",
   "self_type" : "type-1839",
   "size" : 4,
   "source_file" : "/external/skia/include/core/SkMatrix44.h",
   "underlying_type" : "type-555",
   "unique_id" : "_ZTSN10SkMatrix4420Identity_ConstructorE"
  },
  {
   "alignment" : 4,
   "enum_fields" :
   [
    {
     "enum_field_value" : 0,
     "name" : "SkMatrix44::kIdentity_Mask"
    },
    {
     "enum_field_value" : 1,
     "name" : "SkMatrix44::kTranslate_Mask"
    },
    {
     "enum_field_value" : 2,
     "name" : "SkMatrix44::kScale_Mask"
    },
    {
     "enum_field_value" : 4,
     "name" : "SkMatrix44::kAffine_Mask"
    },
    {
     "enum_field_value" : 8,
     "name" : "SkMatrix44::kPerspective_Mask"
    }
   ],
   "linker_set_key" : "SkMatrix44::TypeMask",
   "name" : "SkMatrix44::TypeMask",
   "referenced_type" : "type-1845",
   "self_type" : "type-1845",
   "size" : 4,
   "source_file" : "/external/skia/include/core/SkMatrix44.h",
   "underlying_type" : "type-555",
   "unique_id" : "_ZTSN10SkMatrix448TypeMaskE"
  },
  {
   "alignment" : 4,
   "enum_fields" :
   [
    {
     "enum_field_value" : 0,
     "name" : "SkMatrix44::kUninitialized_Constructor"
    }
   ],
   "linker_set_key" : "SkMatrix44::Uninitialized_Constructor",
   "name" : "SkMatrix44::Uninitialized_Constructor",
   "referenced_type" : "type-1838",
   "self_type" : "type-1838",
   "size" : 4,
   "source_file" : "/external/skia/include/core/SkMatrix44.h",
   "underlying_type" : "type-555",
   "unique_id" : "_ZTSN10SkMatrix4425Uninitialized_ConstructorE"
  },
  {
   "alignment" : 4,
   "enum_fields" :
   [
    {
     "enum_field_value" : 0,
     "name" : "SkMatrix::kFill_ScaleToFit"
    },
    {
     "enum_field_value" : 1,
     "name" : "SkMatrix::kStart_ScaleToFit"
    },
    {
     "enum_field_value" : 2,
     "name" : "SkMatrix::kCenter_ScaleToFit"
    },
    {
     "enum_field_value" : 3,
     "name" : "SkMatrix::kEnd_ScaleToFit"
    }
   ],
   "linker_set_key" : "SkMatrix::ScaleToFit",
   "name" : "SkMatrix::ScaleToFit",
   "referenced_type" : "type-1821",
   "self_type" : "type-1821",
   "size" : 4,
   "source_file" : "/external/skia/include/core/SkMatrix.h",
   "underlying_type" : "type-555",
   "unique_id" : "_ZTSN8SkMatrix10ScaleToFitE"
  },
  {
   "alignment" : 4,
   "enum_fields" :
   [
    {
     "enum_field_value" : 0,
     "name" : "SkMatrix::kIdentity_Mask"
    },
    {
     "enum_field_value" : 1,
     "name" : "SkMatrix::kTranslate_Mask"
    },
    {
     "enum_field_value" : 2,
     "name" : "SkMatrix::kScale_Mask"
    },
    {
     "enum_field_value" : 4,
     "name" : "SkMatrix::kAffine_Mask"
    },
    {
     "enum_field_value" : 8,
     "name" : "SkMatrix::kPerspective_Mask"
    }
   ],
   "linker_set_key" : "SkMatrix::TypeMask",
   "name" : "SkMatrix::TypeMask",
   "referenced_type" : "type-1817",
   "self_type" : "type-1817",
   "size" : 4,
   "source_file" : "/external/skia/include/core/SkMatrix.h",
   "underlying_type" : "type-555",
   "unique_id" : "_ZTSN8SkMatrix8TypeMaskE"
  },
  {
   "access" : "private",
   "alignment" : 1,
   "enum_fields" :
   [
    {
     "enum_field_value" : 0,
     "name" : "SkOnce::NotStarted"
    },
    {
     "enum_field_value" : 1,
     "name" : "SkOnce::Claimed"
    },
    {
     "enum_field_value" : 2,
     "name" : "SkOnce::Done"
    }
   ],
   "linker_set_key" : "SkOnce::State",
   "name" : "SkOnce::State",
   "referenced_type" : "type-1765",
   "self_type" : "type-1765",
   "size" : 1,
   "source_file" : "/external/skia/include/private/SkOnce.h",
   "underlying_type" : "type-38",
   "unique_id" : "_ZTSN6SkOnce5StateE"
  },
  {
   "alignment" : 4,
   "enum_fields" :
   [
    {
     "enum_field_value" : 0,
     "name" : "kJPEG_SkYUVColorSpace"
    },
    {
     "enum_field_value" : 1,
     "name" : "kRec601_SkYUVColorSpace"
    },
    {
     "enum_field_value" : 2,
     "name" : "kRec709_SkYUVColorSpace"
    },
    {
     "enum_field_value" : 3,
     "name" : "kIdentity_SkYUVColorSpace"
    },
    {
     "enum_field_value" : 3,
     "name" : "kLastEnum_SkYUVColorSpace"
    }
   ],
   "linker_set_key" : "SkYUVColorSpace",
   "name" : "SkYUVColorSpace",
   "referenced_type" : "type-2674",
   "self_type" : "type-2674",
   "size" : 4,
   "source_file" : "/external/skia/include/core/SkImageInfo.h",
   "underlying_type" : "type-555",
   "unique_id" : "_ZTS15SkYUVColorSpace"
  },
  {
   "alignment" : 4,
   "enum_fields" :
   [
    {
     "enum_field_value" : 1,
     "name" : "_UA_SEARCH_PHASE"
    },
    {
     "enum_field_value" : 2,
     "name" : "_UA_CLEANUP_PHASE"
    },
    {
     "enum_field_value" : 4,
     "name" : "_UA_HANDLER_FRAME"
    },
    {
     "enum_field_value" : 8,
     "name" : "_UA_FORCE_UNWIND"
    },
    {
     "enum_field_value" : 16,
     "name" : "_UA_END_OF_STACK"
    }
   ],
   "linker_set_key" : "_Unwind_Action",
   "name" : "_Unwind_Action",
   "referenced_type" : "type-3357",
   "self_type" : "type-3357",
   "size" : 4,
   "source_file" : "/external/libunwind_llvm/include/unwind.h",
   "underlying_type" : "type-555",
   "unique_id" : "_ZTS14_Unwind_Action"
  },
  {
   "alignment" : 4,
   "enum_fields" :
   [
    {
     "enum_field_value" : 1,
     "name" : "_UA_SEARCH_PHASE"
    },
    {
     "enum_field_value" : 2,
     "name" : "_UA_CLEANUP_PHASE"
    },
    {
     "enum_field_value" : 4,
     "name" : "_UA_HANDLER_FRAME"
    },
    {
     "enum_field_value" : 8,
     "name" : "_UA_FORCE_UNWIND"
    },
    {
     "enum_field_value" : 16,
     "name" : "_UA_END_OF_STACK"
    }
   ],
   "linker_set_key" : "_Unwind_Action",
   "name" : "_Unwind_Action",
   "referenced_type" : "type-3383",
   "self_type" : "type-3383",
   "size" : 4,
   "source_file" : "/external/libunwind_llvm/include/unwind.h",
   "underlying_type" : "type-555",
   "unique_id" : "_Unwind_Action"
  },
  {
   "alignment" : 4,
   "enum_fields" :
   [
    {
     "enum_field_value" : 0,
     "name" : "_URC_NO_REASON"
    },
    {
     "enum_field_value" : 0,
     "name" : "_URC_OK"
    },
    {
     "enum_field_value" : 1,
     "name" : "_URC_FOREIGN_EXCEPTION_CAUGHT"
    },
    {
     "enum_field_value" : 2,
     "name" : "_URC_FATAL_PHASE2_ERROR"
    },
    {
     "enum_field_value" : 3,
     "name" : "_URC_FATAL_PHASE1_ERROR"
    },
    {
     "enum_field_value" : 4,
     "name" : "_URC_NORMAL_STOP"
    },
    {
     "enum_field_value" : 5,
     "name" : "_URC_END_OF_STACK"
    },
    {
     "enum_field_value" : 6,
     "name" : "_URC_HANDLER_FOUND"
    },
    {
     "enum_field_value" : 7,
     "name" : "_URC_INSTALL_CONTEXT"
    },
    {
     "enum_field_value" : 8,
     "name" : "_URC_CONTINUE_UNWIND"
    },
    {
     "enum_field_value" : 9,
     "name" : "_URC_FAILURE"
    }
   ],
   "linker_set_key" : "_Unwind_Reason_Code",
   "name" : "_Unwind_Reason_Code",
   "referenced_type" : "type-3356",
   "self_type" : "type-3356",
   "size" : 4,
   "source_file" : "/external/libunwind_llvm/include/unwind.h",
   "underlying_type" : "type-555",
   "unique_id" : "_ZTS19_Unwind_Reason_Code"
  },
  {
   "alignment" : 4,
   "enum_fields" :
   [
    {
     "enum_field_value" : 0,
     "name" : "_URC_NO_REASON"
    },
    {
     "enum_field_value" : 0,
     "name" : "_URC_OK"
    },
    {
     "enum_field_value" : 1,
     "name" : "_URC_FOREIGN_EXCEPTION_CAUGHT"
    },
    {
     "enum_field_value" : 2,
     "name" : "_URC_FATAL_PHASE2_ERROR"
    },
    {
     "enum_field_value" : 3,
     "name" : "_URC_FATAL_PHASE1_ERROR"
    },
    {
     "enum_field_value" : 4,
     "name" : "_URC_NORMAL_STOP"
    },
    {
     "enum_field_value" : 5,
     "name" : "_URC_END_OF_STACK"
    },
    {
     "enum_field_value" : 6,
     "name" : "_URC_HANDLER_FOUND"
    },
    {
     "enum_field_value" : 7,
     "name" : "_URC_INSTALL_CONTEXT"
    },
    {
     "enum_field_value" : 8,
     "name" : "_URC_CONTINUE_UNWIND"
    },
    {
     "enum_field_value" : 9,
     "name" : "_URC_FAILURE"
    }
   ],
   "linker_set_key" : "_Unwind_Reason_Code",
   "name" : "_Unwind_Reason_Code",
   "referenced_type" : "type-3371",
   "self_type" : "type-3371",
   "size" : 4,
   "source_file" : "/external/libunwind_llvm/include/unwind.h",
   "underlying_type" : "type-555",
   "unique_id" : "_Unwind_Reason_Code"
  },
  {
   "alignment" : 4,
   "enum_fields" :
   [
    {
     "enum_field_value" : 0,
     "name" : "_UVRSD_UINT32"
    },
    {
     "enum_field_value" : 1,
     "name" : "_UVRSD_VFPX"
    },
    {
     "enum_field_value" : 3,
     "name" : "_UVRSD_UINT64"
    },
    {
     "enum_field_value" : 4,
     "name" : "_UVRSD_FLOAT"
    },
    {
     "enum_field_value" : 5,
     "name" : "_UVRSD_DOUBLE"
    }
   ],
   "linker_set_key" : "_Unwind_VRS_DataRepresentation",
   "name" : "_Unwind_VRS_DataRepresentation",
   "referenced_type" : "type-3104",
   "self_type" : "type-3104",
   "size" : 4,
   "source_file" : "/external/libunwind_llvm/include/unwind.h",
   "underlying_type" : "type-555",
   "unique_id" : "_Unwind_VRS_DataRepresentation"
  },
  {
   "alignment" : 4,
   "enum_fields" :
   [
    {
     "enum_field_value" : 0,
     "name" : "_UVRSC_CORE"
    },
    {
     "enum_field_value" : 1,
     "name" : "_UVRSC_VFP"
    },
    {
     "enum_field_value" : 3,
     "name" : "_UVRSC_WMMXD"
    },
    {
     "enum_field_value" : 4,
     "name" : "_UVRSC_WMMXC"
    }
   ],
   "linker_set_key" : "_Unwind_VRS_RegClass",
   "name" : "_Unwind_VRS_RegClass",
   "referenced_type" : "type-3103",
   "self_type" : "type-3103",
   "size" : 4,
   "source_file" : "/external/libunwind_llvm/include/unwind.h",
   "underlying_type" : "type-555",
   "unique_id" : "_Unwind_VRS_RegClass"
  },
  {
   "alignment" : 4,
   "enum_fields" :
   [
    {
     "enum_field_value" : 0,
     "name" : "_UVRSR_OK"
    },
    {
     "enum_field_value" : 1,
     "name" : "_UVRSR_NOT_IMPLEMENTED"
    },
    {
     "enum_field_value" : 2,
     "name" : "_UVRSR_FAILED"
    }
   ],
   "linker_set_key" : "_Unwind_VRS_Result",
   "name" : "_Unwind_VRS_Result",
   "referenced_type" : "type-3105",
   "self_type" : "type-3105",
   "size" : 4,
   "source_file" : "/external/libunwind_llvm/include/unwind.h",
   "underlying_type" : "type-555",
   "unique_id" : "_Unwind_VRS_Result"
  },
  {
   "alignment" : 4,
   "enum_fields" :
   [
    {
     "enum_field_value" : 0,
     "name" : "android::bitmap::kBitmapCreateFlag_None"
    },
    {
     "enum_field_value" : 1,
     "name" : "android::bitmap::kBitmapCreateFlag_Mutable"
    },
    {
     "enum_field_value" : 2,
     "name" : "android::bitmap::kBitmapCreateFlag_Premultiplied"
    }
   ],
   "linker_set_key" : "android::bitmap::BitmapCreateFlags",
   "name" : "android::bitmap::BitmapCreateFlags",
   "referenced_type" : "type-2702",
   "self_type" : "type-2702",
   "size" : 4,
   "source_file" : "/frameworks/base/core/jni/android/graphics/Bitmap.h",
   "underlying_type" : "type-555",
   "unique_id" : "_ZTSN7android6bitmap17BitmapCreateFlagsE"
  },
  {
   "alignment" : 4,
   "enum_fields" :
   [
    {
     "enum_field_value" : 0,
     "name" : "JNIInvalidRefType"
    },
    {
     "enum_field_value" : 1,
     "name" : "JNILocalRefType"
    },
    {
     "enum_field_value" : 2,
     "name" : "JNIGlobalRefType"
    },
    {
     "enum_field_value" : 3,
     "name" : "JNIWeakGlobalRefType"
    }
   ],
   "linker_set_key" : "jobjectRefType",
   "name" : "jobjectRefType",
   "referenced_type" : "type-554",
   "self_type" : "type-554",
   "size" : 4,
   "source_file" : "/libnativehelper/include_jni/jni.h",
   "underlying_type" : "type-555",
   "unique_id" : "_ZTS14jobjectRefType"
  },
  {
   "alignment" : 4,
   "enum_fields" :
   [
    {
     "enum_field_value" : 0,
     "name" : "skcms_AlphaFormat_Opaque"
    },
    {
     "enum_field_value" : 1,
     "name" : "skcms_AlphaFormat_Unpremul"
    },
    {
     "enum_field_value" : 2,
     "name" : "skcms_AlphaFormat_PremulAsEncoded"
    }
   ],
   "linker_set_key" : "skcms_AlphaFormat",
   "name" : "skcms_AlphaFormat",
   "referenced_type" : "type-1783",
   "self_type" : "type-1783",
   "size" : 4,
   "source_file" : "/external/skia/third_party/skcms/skcms.h",
   "underlying_type" : "type-555",
   "unique_id" : "skcms_AlphaFormat"
  },
  {
   "alignment" : 4,
   "enum_fields" :
   [
    {
     "enum_field_value" : 0,
     "name" : "skcms_PixelFormat_A_8"
    },
    {
     "enum_field_value" : 1,
     "name" : "skcms_PixelFormat_A_8_"
    },
    {
     "enum_field_value" : 2,
     "name" : "skcms_PixelFormat_G_8"
    },
    {
     "enum_field_value" : 3,
     "name" : "skcms_PixelFormat_G_8_"
    },
    {
     "enum_field_value" : 4,
     "name" : "skcms_PixelFormat_RGBA_8888_Palette8"
    },
    {
     "enum_field_value" : 5,
     "name" : "skcms_PixelFormat_BGRA_8888_Palette8"
    },
    {
     "enum_field_value" : 6,
     "name" : "skcms_PixelFormat_RGB_565"
    },
    {
     "enum_field_value" : 7,
     "name" : "skcms_PixelFormat_BGR_565"
    },
    {
     "enum_field_value" : 8,
     "name" : "skcms_PixelFormat_ABGR_4444"
    },
    {
     "enum_field_value" : 9,
     "name" : "skcms_PixelFormat_ARGB_4444"
    },
    {
     "enum_field_value" : 10,
     "name" : "skcms_PixelFormat_RGB_888"
    },
    {
     "enum_field_value" : 11,
     "name" : "skcms_PixelFormat_BGR_888"
    },
    {
     "enum_field_value" : 12,
     "name" : "skcms_PixelFormat_RGBA_8888"
    },
    {
     "enum_field_value" : 13,
     "name" : "skcms_PixelFormat_BGRA_8888"
    },
    {
     "enum_field_value" : 14,
     "name" : "skcms_PixelFormat_RGBA_1010102"
    },
    {
     "enum_field_value" : 15,
     "name" : "skcms_PixelFormat_BGRA_1010102"
    },
    {
     "enum_field_value" : 16,
     "name" : "skcms_PixelFormat_RGB_161616LE"
    },
    {
     "enum_field_value" : 17,
     "name" : "skcms_PixelFormat_BGR_161616LE"
    },
    {
     "enum_field_value" : 18,
     "name" : "skcms_PixelFormat_RGBA_16161616LE"
    },
    {
     "enum_field_value" : 19,
     "name" : "skcms_PixelFormat_BGRA_16161616LE"
    },
    {
     "enum_field_value" : 20,
     "name" : "skcms_PixelFormat_RGB_161616BE"
    },
    {
     "enum_field_value" : 21,
     "name" : "skcms_PixelFormat_BGR_161616BE"
    },
    {
     "enum_field_value" : 22,
     "name" : "skcms_PixelFormat_RGBA_16161616BE"
    },
    {
     "enum_field_value" : 23,
     "name" : "skcms_PixelFormat_BGRA_16161616BE"
    },
    {
     "enum_field_value" : 20,
     "name" : "skcms_PixelFormat_RGB_161616"
    },
    {
     "enum_field_value" : 21,
     "name" : "skcms_PixelFormat_BGR_161616"
    },
    {
     "enum_field_value" : 22,
     "name" : "skcms_PixelFormat_RGBA_16161616"
    },
    {
     "enum_field_value" : 23,
     "name" : "skcms_PixelFormat_BGRA_16161616"
    },
    {
     "enum_field_value" : 24,
     "name" : "skcms_PixelFormat_RGB_hhh_Norm"
    },
    {
     "enum_field_value" : 25,
     "name" : "skcms_PixelFormat_BGR_hhh_Norm"
    },
    {
     "enum_field_value" : 26,
     "name" : "skcms_PixelFormat_RGBA_hhhh_Norm"
    },
    {
     "enum_field_value" : 27,
     "name" : "skcms_PixelFormat_BGRA_hhhh_Norm"
    },
    {
     "enum_field_value" : 28,
     "name" : "skcms_PixelFormat_RGB_hhh"
    },
    {
     "enum_field_value" : 29,
     "name" : "skcms_PixelFormat_BGR_hhh"
    },
    {
     "enum_field_value" : 30,
     "name" : "skcms_PixelFormat_RGBA_hhhh"
    },
    {
     "enum_field_value" : 31,
     "name" : "skcms_PixelFormat_BGRA_hhhh"
    },
    {
     "enum_field_value" : 32,
     "name" : "skcms_PixelFormat_RGB_fff"
    },
    {
     "enum_field_value" : 33,
     "name" : "skcms_PixelFormat_BGR_fff"
    },
    {
     "enum_field_value" : 34,
     "name" : "skcms_PixelFormat_RGBA_ffff"
    },
    {
     "enum_field_value" : 35,
     "name" : "skcms_PixelFormat_BGRA_ffff"
    }
   ],
   "linker_set_key" : "skcms_PixelFormat",
   "name" : "skcms_PixelFormat",
   "referenced_type" : "type-1782",
   "self_type" : "type-1782",
   "size" : 4,
   "source_file" : "/external/skia/third_party/skcms/skcms.h",
   "underlying_type" : "type-555",
   "unique_id" : "skcms_PixelFormat"
  },
  {
   "alignment" : 4,
   "linker_set_key" : "std::align_val_t",
   "name" : "std::align_val_t",
   "referenced_type" : "type-1887",
   "self_type" : "type-1887",
   "size" : 4,
   "source_file" : "/external/libcxx/include/new",
   "underlying_type" : "type-555",
   "unique_id" : "_ZTSSt11align_val_t"
  },
  {
   "alignment" : 1,
   "linker_set_key" : "std::byte",
   "name" : "std::byte",
   "referenced_type" : "type-2710",
   "self_type" : "type-2710",
   "size" : 1,
   "source_file" : "/external/libcxx/include/cstddef",
   "underlying_type" : "type-38",
   "unique_id" : "_ZTSSt4byte"
  },
  {
   "alignment" : 4,
   "enum_fields" :
   [
    {
     "enum_field_value" : 0,
     "name" : "std::__1::codecvt_base::ok"
    },
    {
     "enum_field_value" : 1,
     "name" : "std::__1::codecvt_base::partial"
    },
    {
     "enum_field_value" : 2,
     "name" : "std::__1::codecvt_base::error"
    },
    {
     "enum_field_value" : 3,
     "name" : "std::__1::codecvt_base::noconv"
    }
   ],
   "linker_set_key" : "std::codecvt_base::result",
   "name" : "std::codecvt_base::result",
   "referenced_type" : "type-2475",
   "self_type" : "type-2475",
   "size" : 4,
   "source_file" : "/external/libcxx/include/__locale",
   "underlying_type" : "type-555",
   "unique_id" : "_ZTSNSt3__112codecvt_base6resultE"
  },
  {
   "alignment" : 4,
   "enum_fields" :
   [
    {
     "enum_field_value" : 0,
     "name" : "std::__1::cv_status::no_timeout"
    },
    {
     "enum_field_value" : 1,
     "name" : "std::__1::cv_status::timeout"
    }
   ],
   "linker_set_key" : "std::cv_status",
   "name" : "std::cv_status",
   "referenced_type" : "type-2434",
   "self_type" : "type-2434",
   "size" : 4,
   "source_file" : "/external/libcxx/include/__mutex_base",
   "underlying_type" : "type-13",
   "unique_id" : "_ZTSNSt3__19cv_statusE"
  },
  {
   "alignment" : 4,
   "enum_fields" :
   [
    {
     "enum_field_value" : 97,
     "name" : "std::__1::errc::address_family_not_supported"
    },
    {
     "enum_field_value" : 98,
     "name" : "std::__1::errc::address_in_use"
    },
    {
     "enum_field_value" : 99,
     "name" : "std::__1::errc::address_not_available"
    },
    {
     "enum_field_value" : 106,
     "name" : "std::__1::errc::already_connected"
    },
    {
     "enum_field_value" : 7,
     "name" : "std::__1::errc::argument_list_too_long"
    },
    {
     "enum_field_value" : 33,
     "name" : "std::__1::errc::argument_out_of_domain"
    },
    {
     "enum_field_value" : 14,
     "name" : "std::__1::errc::bad_address"
    },
    {
     "enum_field_value" : 9,
     "name" : "std::__1::errc::bad_file_descriptor"
    },
    {
     "enum_field_value" : 74,
     "name" : "std::__1::errc::bad_message"
    },
    {
     "enum_field_value" : 32,
     "name" : "std::__1::errc::broken_pipe"
    },
    {
     "enum_field_value" : 103,
     "name" : "std::__1::errc::connection_aborted"
    },
    {
     "enum_field_value" : 114,
     "name" : "std::__1::errc::connection_already_in_progress"
    },
    {
     "enum_field_value" : 111,
     "name" : "std::__1::errc::connection_refused"
    },
    {
     "enum_field_value" : 104,
     "name" : "std::__1::errc::connection_reset"
    },
    {
     "enum_field_value" : 18,
     "name" : "std::__1::errc::cross_device_link"
    },
    {
     "enum_field_value" : 89,
     "name" : "std::__1::errc::destination_address_required"
    },
    {
     "enum_field_value" : 16,
     "name" : "std::__1::errc::device_or_resource_busy"
    },
    {
     "enum_field_value" : 39,
     "name" : "std::__1::errc::directory_not_empty"
    },
    {
     "enum_field_value" : 8,
     "name" : "std::__1::errc::executable_format_error"
    },
    {
     "enum_field_value" : 17,
     "name" : "std::__1::errc::file_exists"
    },
    {
     "enum_field_value" : 27,
     "name" : "std::__1::errc::file_too_large"
    },
    {
     "enum_field_value" : 36,
     "name" : "std::__1::errc::filename_too_long"
    },
    {
     "enum_field_value" : 38,
     "name" : "std::__1::errc::function_not_supported"
    },
    {
     "enum_field_value" : 113,
     "name" : "std::__1::errc::host_unreachable"
    },
    {
     "enum_field_value" : 43,
     "name" : "std::__1::errc::identifier_removed"
    },
    {
     "enum_field_value" : 84,
     "name" : "std::__1::errc::illegal_byte_sequence"
    },
    {
     "enum_field_value" : 25,
     "name" : "std::__1::errc::inappropriate_io_control_operation"
    },
    {
     "enum_field_value" : 4,
     "name" : "std::__1::errc::interrupted"
    },
    {
     "enum_field_value" : 22,
     "name" : "std::__1::errc::invalid_argument"
    },
    {
     "enum_field_value" : 29,
     "name" : "std::__1::errc::invalid_seek"
    },
    {
     "enum_field_value" : 5,
     "name" : "std::__1::errc::io_error"
    },
    {
     "enum_field_value" : 21,
     "name" : "std::__1::errc::is_a_directory"
    },
    {
     "enum_field_value" : 90,
     "name" : "std::__1::errc::message_size"
    },
    {
     "enum_field_value" : 100,
     "name" : "std::__1::errc::network_down"
    },
    {
     "enum_field_value" : 102,
     "name" : "std::__1::errc::network_reset"
    },
    {
     "enum_field_value" : 101,
     "name" : "std::__1::errc::network_unreachable"
    },
    {
     "enum_field_value" : 105,
     "name" : "std::__1::errc::no_buffer_space"
    },
    {
     "enum_field_value" : 10,
     "name" : "std::__1::errc::no_child_process"
    },
    {
     "enum_field_value" : 67,
     "name" : "std::__1::errc::no_link"
    },
    {
     "enum_field_value" : 37,
     "name" : "std::__1::errc::no_lock_available"
    },
    {
     "enum_field_value" : 61,
     "name" : "std::__1::errc::no_message_available"
    },
    {
     "enum_field_value" : 42,
     "name" : "std::__1::errc::no_message"
    },
    {
     "enum_field_value" : 92,
     "name" : "std::__1::errc::no_protocol_option"
    },
    {
     "enum_field_value" : 28,
     "name" : "std::__1::errc::no_space_on_device"
    },
    {
     "enum_field_value" : 63,
     "name" : "std::__1::errc::no_stream_resources"
    },
    {
     "enum_field_value" : 6,
     "name" : "std::__1::errc::no_such_device_or_address"
    },
    {
     "enum_field_value" : 19,
     "name" : "std::__1::errc::no_such_device"
    },
    {
     "enum_field_value" : 2,
     "name" : "std::__1::errc::no_such_file_or_directory"
    },
    {
     "enum_field_value" : 3,
     "name" : "std::__1::errc::no_such_process"
    },
    {
     "enum_field_value" : 20,
     "name" : "std::__1::errc::not_a_directory"
    },
    {
     "enum_field_value" : 88,
     "name" : "std::__1::errc::not_a_socket"
    },
    {
     "enum_field_value" : 60,
     "name" : "std::__1::errc::not_a_stream"
    },
    {
     "enum_field_value" : 107,
     "name" : "std::__1::errc::not_connected"
    },
    {
     "enum_field_value" : 12,
     "name" : "std::__1::errc::not_enough_memory"
    },
    {
     "enum_field_value" : 95,
     "name" : "std::__1::errc::not_supported"
    },
    {
     "enum_field_value" : 125,
     "name" : "std::__1::errc::operation_canceled"
    },
    {
     "enum_field_value" : 115,
     "name" : "std::__1::errc::operation_in_progress"
    },
    {
     "enum_field_value" : 1,
     "name" : "std::__1::errc::operation_not_permitted"
    },
    {
     "enum_field_value" : 95,
     "name" : "std::__1::errc::operation_not_supported"
    },
    {
     "enum_field_value" : 11,
     "name" : "std::__1::errc::operation_would_block"
    },
    {
     "enum_field_value" : 130,
     "name" : "std::__1::errc::owner_dead"
    },
    {
     "enum_field_value" : 13,
     "name" : "std::__1::errc::permission_denied"
    },
    {
     "enum_field_value" : 71,
     "name" : "std::__1::errc::protocol_error"
    },
    {
     "enum_field_value" : 93,
     "name" : "std::__1::errc::protocol_not_supported"
    },
    {
     "enum_field_value" : 30,
     "name" : "std::__1::errc::read_only_file_system"
    },
    {
     "enum_field_value" : 35,
     "name" : "std::__1::errc::resource_deadlock_would_occur"
    },
    {
     "enum_field_value" : 11,
     "name" : "std::__1::errc::resource_unavailable_try_again"
    },
    {
     "enum_field_value" : 34,
     "name" : "std::__1::errc::result_out_of_range"
    },
    {
     "enum_field_value" : 131,
     "name" : "std::__1::errc::state_not_recoverable"
    },
    {
     "enum_field_value" : 62,
     "name" : "std::__1::errc::stream_timeout"
    },
    {
     "enum_field_value" : 26,
     "name" : "std::__1::errc::text_file_busy"
    },
    {
     "enum_field_value" : 110,
     "name" : "std::__1::errc::timed_out"
    },
    {
     "enum_field_value" : 23,
     "name" : "std::__1::errc::too_many_files_open_in_system"
    },
    {
     "enum_field_value" : 24,
     "name" : "std::__1::errc::too_many_files_open"
    },
    {
     "enum_field_value" : 31,
     "name" : "std::__1::errc::too_many_links"
    },
    {
     "enum_field_value" : 40,
     "name" : "std::__1::errc::too_many_symbolic_link_levels"
    },
    {
     "enum_field_value" : 75,
     "name" : "std::__1::errc::value_too_large"
    },
    {
     "enum_field_value" : 91,
     "name" : "std::__1::errc::wrong_protocol_type"
    }
   ],
   "linker_set_key" : "std::errc",
   "name" : "std::errc",
   "referenced_type" : "type-2382",
   "self_type" : "type-2382",
   "size" : 4,
   "source_file" : "/external/libcxx/include/__errc",
   "underlying_type" : "type-13",
   "unique_id" : "_ZTSNSt3__14errcE"
  },
  {
   "alignment" : 4,
   "enum_fields" :
   [
    {
     "enum_field_value" : -1,
     "name" : "std::__1::denorm_indeterminate"
    },
    {
     "enum_field_value" : 0,
     "name" : "std::__1::denorm_absent"
    },
    {
     "enum_field_value" : 1,
     "name" : "std::__1::denorm_present"
    }
   ],
   "linker_set_key" : "std::float_denorm_style",
   "name" : "std::float_denorm_style",
   "referenced_type" : "type-1237",
   "self_type" : "type-1237",
   "size" : 4,
   "source_file" : "/external/libcxx/include/limits",
   "underlying_type" : "type-13",
   "unique_id" : "_ZTSNSt3__118float_denorm_styleE"
  },
  {
   "alignment" : 4,
   "enum_fields" :
   [
    {
     "enum_field_value" : -1,
     "name" : "std::__1::round_indeterminate"
    },
    {
     "enum_field_value" : 0,
     "name" : "std::__1::round_toward_zero"
    },
    {
     "enum_field_value" : 1,
     "name" : "std::__1::round_to_nearest"
    },
    {
     "enum_field_value" : 2,
     "name" : "std::__1::round_toward_infinity"
    },
    {
     "enum_field_value" : 3,
     "name" : "std::__1::round_toward_neg_infinity"
    }
   ],
   "linker_set_key" : "std::float_round_style",
   "name" : "std::float_round_style",
   "referenced_type" : "type-1236",
   "self_type" : "type-1236",
   "size" : 4,
   "source_file" : "/external/libcxx/include/limits",
   "underlying_type" : "type-13",
   "unique_id" : "_ZTSNSt3__117float_round_styleE"
  },
  {
   "alignment" : 4,
   "enum_fields" :
   [
    {
     "enum_field_value" : 1,
     "name" : "std::__1::io_errc::stream"
    }
   ],
   "linker_set_key" : "std::io_errc",
   "name" : "std::io_errc",
   "referenced_type" : "type-2533",
   "self_type" : "type-2533",
   "size" : 4,
   "source_file" : "/external/libcxx/include/ios",
   "underlying_type" : "type-13",
   "unique_id" : "_ZTSNSt3__17io_errcE"
  },
  {
   "alignment" : 4,
   "enum_fields" :
   [
    {
     "enum_field_value" : 0,
     "name" : "std::__1::ios_base::erase_event"
    },
    {
     "enum_field_value" : 1,
     "name" : "std::__1::ios_base::imbue_event"
    },
    {
     "enum_field_value" : 2,
     "name" : "std::__1::ios_base::copyfmt_event"
    }
   ],
   "linker_set_key" : "std::ios_base::event",
   "name" : "std::ios_base::event",
   "referenced_type" : "type-2526",
   "self_type" : "type-2526",
   "size" : 4,
   "source_file" : "/external/libcxx/include/ios",
   "underlying_type" : "type-555",
   "unique_id" : "_ZTSNSt3__18ios_base5eventE"
  },
  {
   "alignment" : 4,
   "enum_fields" :
   [
    {
     "enum_field_value" : 0,
     "name" : "std::__1::ios_base::beg"
    },
    {
     "enum_field_value" : 1,
     "name" : "std::__1::ios_base::cur"
    },
    {
     "enum_field_value" : 2,
     "name" : "std::__1::ios_base::end"
    }
   ],
   "linker_set_key" : "std::ios_base::seekdir",
   "name" : "std::ios_base::seekdir",
   "referenced_type" : "type-2529",
   "self_type" : "type-2529",
   "size" : 4,
   "source_file" : "/external/libcxx/include/ios",
   "underlying_type" : "type-555",
   "unique_id" : "_ZTSNSt3__18ios_base7seekdirE"
  },
  {
   "alignment" : 4,
   "enum_fields" :
   [
    {
     "enum_field_value" : 0,
     "name" : "std::__1::memory_order_relaxed"
    },
    {
     "enum_field_value" : 1,
     "name" : "std::__1::memory_order_consume"
    },
    {
     "enum_field_value" : 2,
     "name" : "std::__1::memory_order_acquire"
    },
    {
     "enum_field_value" : 3,
     "name" : "std::__1::memory_order_release"
    },
    {
     "enum_field_value" : 4,
     "name" : "std::__1::memory_order_acq_rel"
    },
    {
     "enum_field_value" : 5,
     "name" : "std::__1::memory_order_seq_cst"
    }
   ],
   "linker_set_key" : "std::memory_order",
   "name" : "std::memory_order",
   "referenced_type" : "type-1577",
   "self_type" : "type-1577",
   "size" : 4,
   "source_file" : "/external/libcxx/include/atomic",
   "underlying_type" : "type-555",
   "unique_id" : "_ZTSNSt3__112memory_orderE"
  },
  {
   "alignment" : 4,
   "enum_fields" :
   [
    {
     "enum_field_value" : 0,
     "name" : "std::__1::money_base::none"
    },
    {
     "enum_field_value" : 1,
     "name" : "std::__1::money_base::space"
    },
    {
     "enum_field_value" : 2,
     "name" : "std::__1::money_base::symbol"
    },
    {
     "enum_field_value" : 3,
     "name" : "std::__1::money_base::sign"
    },
    {
     "enum_field_value" : 4,
     "name" : "std::__1::money_base::value"
    }
   ],
   "linker_set_key" : "std::money_base::part",
   "name" : "std::money_base::part",
   "referenced_type" : "type-2597",
   "self_type" : "type-2597",
   "size" : 4,
   "source_file" : "/external/libcxx/include/locale",
   "underlying_type" : "type-555",
   "unique_id" : "_ZTSNSt3__110money_base4partE"
  },
  {
   "alignment" : 4,
   "enum_fields" :
   [
    {
     "enum_field_value" : 0,
     "name" : "std::__1::pointer_safety::relaxed"
    },
    {
     "enum_field_value" : 1,
     "name" : "std::__1::pointer_safety::preferred"
    },
    {
     "enum_field_value" : 2,
     "name" : "std::__1::pointer_safety::strict"
    }
   ],
   "linker_set_key" : "std::pointer_safety::__lx",
   "name" : "std::pointer_safety::__lx",
   "referenced_type" : "type-2117",
   "self_type" : "type-2117",
   "size" : 4,
   "source_file" : "/external/libcxx/include/memory",
   "underlying_type" : "type-555",
   "unique_id" : "_ZTSNSt3__114pointer_safety4__lxE"
  },
  {
   "alignment" : 4,
   "enum_fields" :
   [
    {
     "enum_field_value" : 0,
     "name" : "std::__1::time_base::no_order"
    },
    {
     "enum_field_value" : 1,
     "name" : "std::__1::time_base::dmy"
    },
    {
     "enum_field_value" : 2,
     "name" : "std::__1::time_base::mdy"
    },
    {
     "enum_field_value" : 3,
     "name" : "std::__1::time_base::ymd"
    },
    {
     "enum_field_value" : 4,
     "name" : "std::__1::time_base::ydm"
    }
   ],
   "linker_set_key" : "std::time_base::dateorder",
   "name" : "std::time_base::dateorder",
   "referenced_type" : "type-2566",
   "self_type" : "type-2566",
   "size" : 4,
   "source_file" : "/external/libcxx/include/locale",
   "underlying_type" : "type-555",
   "unique_id" : "_ZTSNSt3__19time_base9dateorderE"
  }
 ],
 "function_types" :
 [
  {
   "alignment" : 4,
   "linker_set_key" : "_Unwind_Reason_Code (_Unwind_Context *, void *)",
   "name" : "_Unwind_Reason_Code (_Unwind_Context *, void *)",
   "parameters" :
   [
    {
     "referenced_type" : "type-3394"
    },
    {
     "referenced_type" : "type-9"
    }
   ],
   "referenced_type" : "type-3393",
   "return_type" : "type-3371",
   "self_type" : "type-3393",
   "source_file" : "/external/libunwind_llvm/include/unwind.h"
  },
  {
   "alignment" : 4,
   "linker_set_key" : "_jbooleanArray *(_JNIEnv *, int)",
   "name" : "_jbooleanArray *(_JNIEnv *, int)",
   "parameters" :
   [
    {
     "referenced_type" : "type-4"
    },
    {
     "referenced_type" : "type-13"
    }
   ],
   "referenced_type" : "type-396",
   "return_type" : "type-397",
   "self_type" : "type-396",
   "source_file" : "/libnativehelper/include_jni/jni.h"
  },
  {
   "alignment" : 4,
   "linker_set_key" : "_jbyteArray *(_JNIEnv *, int)",
   "name" : "_jbyteArray *(_JNIEnv *, int)",
   "parameters" :
   [
    {
     "referenced_type" : "type-4"
    },
    {
     "referenced_type" : "type-13"
    }
   ],
   "referenced_type" : "type-400",
   "return_type" : "type-401",
   "self_type" : "type-400",
   "source_file" : "/libnativehelper/include_jni/jni.h"
  },
  {
   "alignment" : 4,
   "linker_set_key" : "_jcharArray *(_JNIEnv *, int)",
   "name" : "_jcharArray *(_JNIEnv *, int)",
   "parameters" :
   [
    {
     "referenced_type" : "type-4"
    },
    {
     "referenced_type" : "type-13"
    }
   ],
   "referenced_type" : "type-404",
   "return_type" : "type-405",
   "self_type" : "type-404",
   "source_file" : "/libnativehelper/include_jni/jni.h"
  },
  {
   "alignment" : 4,
   "linker_set_key" : "_jclass *(_JNIEnv *, _jclass *)",
   "name" : "_jclass *(_JNIEnv *, _jclass *)",
   "parameters" :
   [
    {
     "referenced_type" : "type-4"
    },
    {
     "referenced_type" : "type-16"
    }
   ],
   "referenced_type" : "type-40",
   "return_type" : "type-16",
   "self_type" : "type-40",
   "source_file" : "/libnativehelper/include_jni/jni.h"
  },
  {
   "alignment" : 4,
   "linker_set_key" : "_jclass *(_JNIEnv *, _jobject *)",
   "name" : "_jclass *(_JNIEnv *, _jobject *)",
   "parameters" :
   [
    {
     "referenced_type" : "type-4"
    },
    {
     "referenced_type" : "type-22"
    }
   ],
   "referenced_type" : "type-82",
   "return_type" : "type-16",
   "self_type" : "type-82",
   "source_file" : "/libnativehelper/include_jni/jni.h"
  },
  {
   "alignment" : 4,
   "linker_set_key" : "_jclass *(_JNIEnv *, const char *)",
   "name" : "_jclass *(_JNIEnv *, const char *)",
   "parameters" :
   [
    {
     "referenced_type" : "type-4"
    },
    {
     "referenced_type" : "type-19"
    }
   ],
   "referenced_type" : "type-27",
   "return_type" : "type-16",
   "self_type" : "type-27",
   "source_file" : "/libnativehelper/include_jni/jni.h"
  },
  {
   "alignment" : 4,
   "linker_set_key" : "_jclass *(_JNIEnv *, const char *, _jobject *, const signed char *, int)",
   "name" : "_jclass *(_JNIEnv *, const char *, _jobject *, const signed char *, int)",
   "parameters" :
   [
    {
     "referenced_type" : "type-4"
    },
    {
     "referenced_type" : "type-19"
    },
    {
     "referenced_type" : "type-22"
    },
    {
     "referenced_type" : "type-23"
    },
    {
     "referenced_type" : "type-13"
    }
   ],
   "referenced_type" : "type-15",
   "return_type" : "type-16",
   "self_type" : "type-15",
   "source_file" : "/libnativehelper/include_jni/jni.h"
  },
  {
   "alignment" : 4,
   "linker_set_key" : "_jdoubleArray *(_JNIEnv *, int)",
   "name" : "_jdoubleArray *(_JNIEnv *, int)",
   "parameters" :
   [
    {
     "referenced_type" : "type-4"
    },
    {
     "referenced_type" : "type-13"
    }
   ],
   "referenced_type" : "type-424",
   "return_type" : "type-425",
   "self_type" : "type-424",
   "source_file" : "/libnativehelper/include_jni/jni.h"
  },
  {
   "alignment" : 4,
   "linker_set_key" : "_jfieldID *(_JNIEnv *, _jclass *, const char *, const char *)",
   "name" : "_jfieldID *(_JNIEnv *, _jclass *, const char *, const char *)",
   "parameters" :
   [
    {
     "referenced_type" : "type-4"
    },
    {
     "referenced_type" : "type-16"
    },
    {
     "referenced_type" : "type-19"
    },
    {
     "referenced_type" : "type-19"
    }
   ],
   "referenced_type" : "type-228",
   "return_type" : "type-34",
   "self_type" : "type-228",
   "source_file" : "/libnativehelper/include_jni/jni.h"
  },
  {
   "alignment" : 4,
   "linker_set_key" : "_jfieldID *(_JNIEnv *, _jobject *)",
   "name" : "_jfieldID *(_JNIEnv *, _jobject *)",
   "parameters" :
   [
    {
     "referenced_type" : "type-4"
    },
    {
     "referenced_type" : "type-22"
    }
   ],
   "referenced_type" : "type-33",
   "return_type" : "type-34",
   "self_type" : "type-33",
   "source_file" : "/libnativehelper/include_jni/jni.h"
  },
  {
   "alignment" : 4,
   "linker_set_key" : "_jfloatArray *(_JNIEnv *, int)",
   "name" : "_jfloatArray *(_JNIEnv *, int)",
   "parameters" :
   [
    {
     "referenced_type" : "type-4"
    },
    {
     "referenced_type" : "type-13"
    }
   ],
   "referenced_type" : "type-420",
   "return_type" : "type-421",
   "self_type" : "type-420",
   "source_file" : "/libnativehelper/include_jni/jni.h"
  },
  {
   "alignment" : 4,
   "linker_set_key" : "_jintArray *(_JNIEnv *, int)",
   "name" : "_jintArray *(_JNIEnv *, int)",
   "parameters" :
   [
    {
     "referenced_type" : "type-4"
    },
    {
     "referenced_type" : "type-13"
    }
   ],
   "referenced_type" : "type-412",
   "return_type" : "type-413",
   "self_type" : "type-412",
   "source_file" : "/libnativehelper/include_jni/jni.h"
  },
  {
   "alignment" : 4,
   "linker_set_key" : "_jlongArray *(_JNIEnv *, int)",
   "name" : "_jlongArray *(_JNIEnv *, int)",
   "parameters" :
   [
    {
     "referenced_type" : "type-4"
    },
    {
     "referenced_type" : "type-13"
    }
   ],
   "referenced_type" : "type-416",
   "return_type" : "type-417",
   "self_type" : "type-416",
   "source_file" : "/libnativehelper/include_jni/jni.h"
  },
  {
   "alignment" : 4,
   "linker_set_key" : "_jmethodID *(_JNIEnv *, _jclass *, const char *, const char *)",
   "name" : "_jmethodID *(_JNIEnv *, _jclass *, const char *, const char *)",
   "parameters" :
   [
    {
     "referenced_type" : "type-4"
    },
    {
     "referenced_type" : "type-16"
    },
    {
     "referenced_type" : "type-19"
    },
    {
     "referenced_type" : "type-19"
    }
   ],
   "referenced_type" : "type-86",
   "return_type" : "type-30",
   "self_type" : "type-86",
   "source_file" : "/libnativehelper/include_jni/jni.h"
  },
  {
   "alignment" : 4,
   "linker_set_key" : "_jmethodID *(_JNIEnv *, _jobject *)",
   "name" : "_jmethodID *(_JNIEnv *, _jobject *)",
   "parameters" :
   [
    {
     "referenced_type" : "type-4"
    },
    {
     "referenced_type" : "type-22"
    }
   ],
   "referenced_type" : "type-29",
   "return_type" : "type-30",
   "self_type" : "type-29",
   "source_file" : "/libnativehelper/include_jni/jni.h"
  },
  {
   "alignment" : 4,
   "linker_set_key" : "_jobject *(_JNIEnv *, _jclass *)",
   "name" : "_jobject *(_JNIEnv *, _jclass *)",
   "parameters" :
   [
    {
     "referenced_type" : "type-4"
    },
    {
     "referenced_type" : "type-16"
    }
   ],
   "referenced_type" : "type-66",
   "return_type" : "type-22",
   "self_type" : "type-66",
   "source_file" : "/libnativehelper/include_jni/jni.h"
  },
  {
   "alignment" : 4,
   "linker_set_key" : "_jobject *(_JNIEnv *, _jclass *, _jfieldID *)",
   "name" : "_jobject *(_JNIEnv *, _jclass *, _jfieldID *)",
   "parameters" :
   [
    {
     "referenced_type" : "type-4"
    },
    {
     "referenced_type" : "type-16"
    },
    {
     "referenced_type" : "type-34"
    }
   ],
   "referenced_type" : "type-329",
   "return_type" : "type-22",
   "self_type" : "type-329",
   "source_file" : "/libnativehelper/include_jni/jni.h"
  },
  {
   "alignment" : 4,
   "linker_set_key" : "_jobject *(_JNIEnv *, _jclass *, _jfieldID *, unsigned char)",
   "name" : "_jobject *(_JNIEnv *, _jclass *, _jfieldID *, unsigned char)",
   "parameters" :
   [
    {
     "referenced_type" : "type-4"
    },
    {
     "referenced_type" : "type-16"
    },
    {
     "referenced_type" : "type-34"
    },
    {
     "referenced_type" : "type-38"
    }
   ],
   "referenced_type" : "type-44",
   "return_type" : "type-22",
   "self_type" : "type-44",
   "source_file" : "/libnativehelper/include_jni/jni.h"
  },
  {
   "alignment" : 4,
   "linker_set_key" : "_jobject *(_JNIEnv *, _jclass *, _jmethodID *, ...)",
   "name" : "_jobject *(_JNIEnv *, _jclass *, _jmethodID *, ...)",
   "parameters" :
   [
    {
     "referenced_type" : "type-4"
    },
    {
     "referenced_type" : "type-16"
    },
    {
     "referenced_type" : "type-30"
    }
   ],
   "referenced_type" : "type-68",
   "return_type" : "type-22",
   "self_type" : "type-68",
   "source_file" : "/libnativehelper/include_jni/jni.h"
  },
  {
   "alignment" : 4,
   "linker_set_key" : "_jobject *(_JNIEnv *, _jclass *, _jmethodID *, const jvalue *)",
   "name" : "_jobject *(_JNIEnv *, _jclass *, _jmethodID *, const jvalue *)",
   "parameters" :
   [
    {
     "referenced_type" : "type-4"
    },
    {
     "referenced_type" : "type-16"
    },
    {
     "referenced_type" : "type-30"
    },
    {
     "referenced_type" : "type-74"
    }
   ],
   "referenced_type" : "type-73",
   "return_type" : "type-22",
   "self_type" : "type-73",
   "source_file" : "/libnativehelper/include_jni/jni.h"
  },
  {
   "alignment" : 4,
   "linker_set_key" : "_jobject *(_JNIEnv *, _jclass *, _jmethodID *, std::__va_list)",
   "name" : "_jobject *(_JNIEnv *, _jclass *, _jmethodID *, std::__va_list)",
   "parameters" :
   [
    {
     "referenced_type" : "type-4"
    },
    {
     "referenced_type" : "type-16"
    },
    {
     "referenced_type" : "type-30"
    },
    {
     "referenced_type" : "type-71"
    }
   ],
   "referenced_type" : "type-70",
   "return_type" : "type-22",
   "self_type" : "type-70",
   "source_file" : "/libnativehelper/include_jni/jni.h"
  },
  {
   "alignment" : 4,
   "linker_set_key" : "_jobject *(_JNIEnv *, _jclass *, _jmethodID *, unsigned char)",
   "name" : "_jobject *(_JNIEnv *, _jclass *, _jmethodID *, unsigned char)",
   "parameters" :
   [
    {
     "referenced_type" : "type-4"
    },
    {
     "referenced_type" : "type-16"
    },
    {
     "referenced_type" : "type-30"
    },
    {
     "referenced_type" : "type-38"
    }
   ],
   "referenced_type" : "type-37",
   "return_type" : "type-22",
   "self_type" : "type-37",
   "source_file" : "/libnativehelper/include_jni/jni.h"
  },
  {
   "alignment" : 4,
   "linker_set_key" : "_jobject *(_JNIEnv *, _jobject *)",
   "name" : "_jobject *(_JNIEnv *, _jobject *)",
   "parameters" :
   [
    {
     "referenced_type" : "type-4"
    },
    {
     "referenced_type" : "type-22"
    }
   ],
   "referenced_type" : "type-60",
   "return_type" : "type-22",
   "self_type" : "type-60",
   "source_file" : "/libnativehelper/include_jni/jni.h"
  },
  {
   "alignment" : 4,
   "linker_set_key" : "_jobject *(_JNIEnv *, _jobject *, _jclass *, _jmethodID *, ...)",
   "name" : "_jobject *(_JNIEnv *, _jobject *, _jclass *, _jmethodID *, ...)",
   "parameters" :
   [
    {
     "referenced_type" : "type-4"
    },
    {
     "referenced_type" : "type-22"
    },
    {
     "referenced_type" : "type-16"
    },
    {
     "referenced_type" : "type-30"
    }
   ],
   "referenced_type" : "type-158",
   "return_type" : "type-22",
   "self_type" : "type-158",
   "source_file" : "/libnativehelper/include_jni/jni.h"
  },
  {
   "alignment" : 4,
   "linker_set_key" : "_jobject *(_JNIEnv *, _jobject *, _jclass *, _jmethodID *, const jvalue *)",
   "name" : "_jobject *(_JNIEnv *, _jobject *, _jclass *, _jmethodID *, const jvalue *)",
   "parameters" :
   [
    {
     "referenced_type" : "type-4"
    },
    {
     "referenced_type" : "type-22"
    },
    {
     "referenced_type" : "type-16"
    },
    {
     "referenced_type" : "type-30"
    },
    {
     "referenced_type" : "type-74"
    }
   ],
   "referenced_type" : "type-163",
   "return_type" : "type-22",
   "self_type" : "type-163",
   "source_file" : "/libnativehelper/include_jni/jni.h"
  },
  {
   "alignment" : 4,
   "linker_set_key" : "_jobject *(_JNIEnv *, _jobject *, _jclass *, _jmethodID *, std::__va_list)",
   "name" : "_jobject *(_JNIEnv *, _jobject *, _jclass *, _jmethodID *, std::__va_list)",
   "parameters" :
   [
    {
     "referenced_type" : "type-4"
    },
    {
     "referenced_type" : "type-22"
    },
    {
     "referenced_type" : "type-16"
    },
    {
     "referenced_type" : "type-30"
    },
    {
     "referenced_type" : "type-161"
    }
   ],
   "referenced_type" : "type-160",
   "return_type" : "type-22",
   "self_type" : "type-160",
   "source_file" : "/libnativehelper/include_jni/jni.h"
  },
  {
   "alignment" : 4,
   "linker_set_key" : "_jobject *(_JNIEnv *, _jobject *, _jfieldID *)",
   "name" : "_jobject *(_JNIEnv *, _jobject *, _jfieldID *)",
   "parameters" :
   [
    {
     "referenced_type" : "type-4"
    },
    {
     "referenced_type" : "type-22"
    },
    {
     "referenced_type" : "type-34"
    }
   ],
   "referenced_type" : "type-230",
   "return_type" : "type-22",
   "self_type" : "type-230",
   "source_file" : "/libnativehelper/include_jni/jni.h"
  },
  {
   "alignment" : 4,
   "linker_set_key" : "_jobject *(_JNIEnv *, _jobject *, _jmethodID *, ...)",
   "name" : "_jobject *(_JNIEnv *, _jobject *, _jmethodID *, ...)",
   "parameters" :
   [
    {
     "referenced_type" : "type-4"
    },
    {
     "referenced_type" : "type-22"
    },
    {
     "referenced_type" : "type-30"
    }
   ],
   "referenced_type" : "type-88",
   "return_type" : "type-22",
   "self_type" : "type-88",
   "source_file" : "/libnativehelper/include_jni/jni.h"
  },
  {
   "alignment" : 4,
   "linker_set_key" : "_jobject *(_JNIEnv *, _jobject *, _jmethodID *, const jvalue *)",
   "name" : "_jobject *(_JNIEnv *, _jobject *, _jmethodID *, const jvalue *)",
   "parameters" :
   [
    {
     "referenced_type" : "type-4"
    },
    {
     "referenced_type" : "type-22"
    },
    {
     "referenced_type" : "type-30"
    },
    {
     "referenced_type" : "type-74"
    }
   ],
   "referenced_type" : "type-93",
   "return_type" : "type-22",
   "self_type" : "type-93",
   "source_file" : "/libnativehelper/include_jni/jni.h"
  },
  {
   "alignment" : 4,
   "linker_set_key" : "_jobject *(_JNIEnv *, _jobject *, _jmethodID *, std::__va_list)",
   "name" : "_jobject *(_JNIEnv *, _jobject *, _jmethodID *, std::__va_list)",
   "parameters" :
   [
    {
     "referenced_type" : "type-4"
    },
    {
     "referenced_type" : "type-22"
    },
    {
     "referenced_type" : "type-30"
    },
    {
     "referenced_type" : "type-91"
    }
   ],
   "referenced_type" : "type-90",
   "return_type" : "type-22",
   "self_type" : "type-90",
   "source_file" : "/libnativehelper/include_jni/jni.h"
  },
  {
   "alignment" : 4,
   "linker_set_key" : "_jobject *(_JNIEnv *, _jobjectArray *, int)",
   "name" : "_jobject *(_JNIEnv *, _jobjectArray *, int)",
   "parameters" :
   [
    {
     "referenced_type" : "type-4"
    },
    {
     "referenced_type" : "type-389"
    },
    {
     "referenced_type" : "type-13"
    }
   ],
   "referenced_type" : "type-392",
   "return_type" : "type-22",
   "self_type" : "type-392",
   "source_file" : "/libnativehelper/include_jni/jni.h"
  },
  {
   "alignment" : 4,
   "linker_set_key" : "_jobject *(_JNIEnv *, void *, long long)",
   "name" : "_jobject *(_JNIEnv *, void *, long long)",
   "parameters" :
   [
    {
     "referenced_type" : "type-4"
    },
    {
     "referenced_type" : "type-9"
    },
    {
     "referenced_type" : "type-2"
    }
   ],
   "referenced_type" : "type-547",
   "return_type" : "type-22",
   "self_type" : "type-547",
   "source_file" : "/libnativehelper/include_jni/jni.h"
  },
  {
   "alignment" : 4,
   "linker_set_key" : "_jobjectArray *(_JNIEnv *, int, _jclass *, _jobject *)",
   "name" : "_jobjectArray *(_JNIEnv *, int, _jclass *, _jobject *)",
   "parameters" :
   [
    {
     "referenced_type" : "type-4"
    },
    {
     "referenced_type" : "type-13"
    },
    {
     "referenced_type" : "type-16"
    },
    {
     "referenced_type" : "type-22"
    }
   ],
   "referenced_type" : "type-388",
   "return_type" : "type-389",
   "self_type" : "type-388",
   "source_file" : "/libnativehelper/include_jni/jni.h"
  },
  {
   "alignment" : 4,
   "linker_set_key" : "_jshortArray *(_JNIEnv *, int)",
   "name" : "_jshortArray *(_JNIEnv *, int)",
   "parameters" :
   [
    {
     "referenced_type" : "type-4"
    },
    {
     "referenced_type" : "type-13"
    }
   ],
   "referenced_type" : "type-408",
   "return_type" : "type-409",
   "self_type" : "type-408",
   "source_file" : "/libnativehelper/include_jni/jni.h"
  },
  {
   "alignment" : 4,
   "linker_set_key" : "_jstring *(_JNIEnv *, const char *)",
   "name" : "_jstring *(_JNIEnv *, const char *)",
   "parameters" :
   [
    {
     "referenced_type" : "type-4"
    },
    {
     "referenced_type" : "type-19"
    }
   ],
   "referenced_type" : "type-378",
   "return_type" : "type-366",
   "self_type" : "type-378",
   "source_file" : "/libnativehelper/include_jni/jni.h"
  },
  {
   "alignment" : 4,
   "linker_set_key" : "_jstring *(_JNIEnv *, const unsigned short *, int)",
   "name" : "_jstring *(_JNIEnv *, const unsigned short *, int)",
   "parameters" :
   [
    {
     "referenced_type" : "type-4"
    },
    {
     "referenced_type" : "type-368"
    },
    {
     "referenced_type" : "type-13"
    }
   ],
   "referenced_type" : "type-365",
   "return_type" : "type-366",
   "self_type" : "type-365",
   "source_file" : "/libnativehelper/include_jni/jni.h"
  },
  {
   "alignment" : 4,
   "linker_set_key" : "_jthrowable *(_JNIEnv *)",
   "name" : "_jthrowable *(_JNIEnv *)",
   "parameters" :
   [
    {
     "referenced_type" : "type-4"
    }
   ],
   "referenced_type" : "type-52",
   "return_type" : "type-47",
   "self_type" : "type-52",
   "source_file" : "/libnativehelper/include_jni/jni.h"
  },
  {
   "alignment" : 4,
   "linker_set_key" : "const char *(_JNIEnv *, _jstring *, unsigned char *)",
   "name" : "const char *(_JNIEnv *, _jstring *, unsigned char *)",
   "parameters" :
   [
    {
     "referenced_type" : "type-4"
    },
    {
     "referenced_type" : "type-366"
    },
    {
     "referenced_type" : "type-374"
    }
   ],
   "referenced_type" : "type-380",
   "return_type" : "type-19",
   "self_type" : "type-380",
   "source_file" : "/libnativehelper/include_jni/jni.h"
  },
  {
   "alignment" : 4,
   "linker_set_key" : "const unsigned short *(_JNIEnv *, _jstring *, unsigned char *)",
   "name" : "const unsigned short *(_JNIEnv *, _jstring *, unsigned char *)",
   "parameters" :
   [
    {
     "referenced_type" : "type-4"
    },
    {
     "referenced_type" : "type-366"
    },
    {
     "referenced_type" : "type-374"
    }
   ],
   "referenced_type" : "type-373",
   "return_type" : "type-368",
   "self_type" : "type-373",
   "source_file" : "/libnativehelper/include_jni/jni.h"
  },
  {
   "alignment" : 4,
   "linker_set_key" : "double (_JNIEnv *, _jclass *, _jfieldID *)",
   "name" : "double (_JNIEnv *, _jclass *, _jfieldID *)",
   "parameters" :
   [
    {
     "referenced_type" : "type-4"
    },
    {
     "referenced_type" : "type-16"
    },
    {
     "referenced_type" : "type-34"
    }
   ],
   "referenced_type" : "type-345",
   "return_type" : "type-80",
   "self_type" : "type-345",
   "source_file" : "/libnativehelper/include_jni/jni.h"
  },
  {
   "alignment" : 4,
   "linker_set_key" : "double (_JNIEnv *, _jclass *, _jmethodID *, ...)",
   "name" : "double (_JNIEnv *, _jclass *, _jmethodID *, ...)",
   "parameters" :
   [
    {
     "referenced_type" : "type-4"
    },
    {
     "referenced_type" : "type-16"
    },
    {
     "referenced_type" : "type-30"
    }
   ],
   "referenced_type" : "type-315",
   "return_type" : "type-80",
   "self_type" : "type-315",
   "source_file" : "/libnativehelper/include_jni/jni.h"
  },
  {
   "alignment" : 4,
   "linker_set_key" : "double (_JNIEnv *, _jclass *, _jmethodID *, const jvalue *)",
   "name" : "double (_JNIEnv *, _jclass *, _jmethodID *, const jvalue *)",
   "parameters" :
   [
    {
     "referenced_type" : "type-4"
    },
    {
     "referenced_type" : "type-16"
    },
    {
     "referenced_type" : "type-30"
    },
    {
     "referenced_type" : "type-74"
    }
   ],
   "referenced_type" : "type-320",
   "return_type" : "type-80",
   "self_type" : "type-320",
   "source_file" : "/libnativehelper/include_jni/jni.h"
  },
  {
   "alignment" : 4,
   "linker_set_key" : "double (_JNIEnv *, _jclass *, _jmethodID *, std::__va_list)",
   "name" : "double (_JNIEnv *, _jclass *, _jmethodID *, std::__va_list)",
   "parameters" :
   [
    {
     "referenced_type" : "type-4"
    },
    {
     "referenced_type" : "type-16"
    },
    {
     "referenced_type" : "type-30"
    },
    {
     "referenced_type" : "type-318"
    }
   ],
   "referenced_type" : "type-317",
   "return_type" : "type-80",
   "self_type" : "type-317",
   "source_file" : "/libnativehelper/include_jni/jni.h"
  },
  {
   "alignment" : 4,
   "linker_set_key" : "double (_JNIEnv *, _jobject *, _jclass *, _jmethodID *, ...)",
   "name" : "double (_JNIEnv *, _jobject *, _jclass *, _jmethodID *, ...)",
   "parameters" :
   [
    {
     "referenced_type" : "type-4"
    },
    {
     "referenced_type" : "type-22"
    },
    {
     "referenced_type" : "type-16"
    },
    {
     "referenced_type" : "type-30"
    }
   ],
   "referenced_type" : "type-214",
   "return_type" : "type-80",
   "self_type" : "type-214",
   "source_file" : "/libnativehelper/include_jni/jni.h"
  },
  {
   "alignment" : 4,
   "linker_set_key" : "double (_JNIEnv *, _jobject *, _jclass *, _jmethodID *, const jvalue *)",
   "name" : "double (_JNIEnv *, _jobject *, _jclass *, _jmethodID *, const jvalue *)",
   "parameters" :
   [
    {
     "referenced_type" : "type-4"
    },
    {
     "referenced_type" : "type-22"
    },
    {
     "referenced_type" : "type-16"
    },
    {
     "referenced_type" : "type-30"
    },
    {
     "referenced_type" : "type-74"
    }
   ],
   "referenced_type" : "type-219",
   "return_type" : "type-80",
   "self_type" : "type-219",
   "source_file" : "/libnativehelper/include_jni/jni.h"
  },
  {
   "alignment" : 4,
   "linker_set_key" : "double (_JNIEnv *, _jobject *, _jclass *, _jmethodID *, std::__va_list)",
   "name" : "double (_JNIEnv *, _jobject *, _jclass *, _jmethodID *, std::__va_list)",
   "parameters" :
   [
    {
     "referenced_type" : "type-4"
    },
    {
     "referenced_type" : "type-22"
    },
    {
     "referenced_type" : "type-16"
    },
    {
     "referenced_type" : "type-30"
    },
    {
     "referenced_type" : "type-217"
    }
   ],
   "referenced_type" : "type-216",
   "return_type" : "type-80",
   "self_type" : "type-216",
   "source_file" : "/libnativehelper/include_jni/jni.h"
  },
  {
   "alignment" : 4,
   "linker_set_key" : "double (_JNIEnv *, _jobject *, _jfieldID *)",
   "name" : "double (_JNIEnv *, _jobject *, _jfieldID *)",
   "parameters" :
   [
    {
     "referenced_type" : "type-4"
    },
    {
     "referenced_type" : "type-22"
    },
    {
     "referenced_type" : "type-34"
    }
   ],
   "referenced_type" : "type-246",
   "return_type" : "type-80",
   "self_type" : "type-246",
   "source_file" : "/libnativehelper/include_jni/jni.h"
  },
  {
   "alignment" : 4,
   "linker_set_key" : "double (_JNIEnv *, _jobject *, _jmethodID *, ...)",
   "name" : "double (_JNIEnv *, _jobject *, _jmethodID *, ...)",
   "parameters" :
   [
    {
     "referenced_type" : "type-4"
    },
    {
     "referenced_type" : "type-22"
    },
    {
     "referenced_type" : "type-30"
    }
   ],
   "referenced_type" : "type-144",
   "return_type" : "type-80",
   "self_type" : "type-144",
   "source_file" : "/libnativehelper/include_jni/jni.h"
  },
  {
   "alignment" : 4,
   "linker_set_key" : "double (_JNIEnv *, _jobject *, _jmethodID *, const jvalue *)",
   "name" : "double (_JNIEnv *, _jobject *, _jmethodID *, const jvalue *)",
   "parameters" :
   [
    {
     "referenced_type" : "type-4"
    },
    {
     "referenced_type" : "type-22"
    },
    {
     "referenced_type" : "type-30"
    },
    {
     "referenced_type" : "type-74"
    }
   ],
   "referenced_type" : "type-149",
   "return_type" : "type-80",
   "self_type" : "type-149",
   "source_file" : "/libnativehelper/include_jni/jni.h"
  },
  {
   "alignment" : 4,
   "linker_set_key" : "double (_JNIEnv *, _jobject *, _jmethodID *, std::__va_list)",
   "name" : "double (_JNIEnv *, _jobject *, _jmethodID *, std::__va_list)",
   "parameters" :
   [
    {
     "referenced_type" : "type-4"
    },
    {
     "referenced_type" : "type-22"
    },
    {
     "referenced_type" : "type-30"
    },
    {
     "referenced_type" : "type-147"
    }
   ],
   "referenced_type" : "type-146",
   "return_type" : "type-80",
   "self_type" : "type-146",
   "source_file" : "/libnativehelper/include_jni/jni.h"
  },
  {
   "alignment" : 4,
   "linker_set_key" : "double *(_JNIEnv *, _jdoubleArray *, unsigned char *)",
   "name" : "double *(_JNIEnv *, _jdoubleArray *, unsigned char *)",
   "parameters" :
   [
    {
     "referenced_type" : "type-4"
    },
    {
     "referenced_type" : "type-425"
    },
    {
     "referenced_type" : "type-374"
    }
   ],
   "referenced_type" : "type-448",
   "return_type" : "type-449",
   "self_type" : "type-448",
   "source_file" : "/libnativehelper/include_jni/jni.h"
  },
  {
   "alignment" : 4,
   "linker_set_key" : "float (_JNIEnv *, _jclass *, _jfieldID *)",
   "name" : "float (_JNIEnv *, _jclass *, _jfieldID *)",
   "parameters" :
   [
    {
     "referenced_type" : "type-4"
    },
    {
     "referenced_type" : "type-16"
    },
    {
     "referenced_type" : "type-34"
    }
   ],
   "referenced_type" : "type-343",
   "return_type" : "type-79",
   "self_type" : "type-343",
   "source_file" : "/libnativehelper/include_jni/jni.h"
  },
  {
   "alignment" : 4,
   "linker_set_key" : "float (_JNIEnv *, _jclass *, _jmethodID *, ...)",
   "name" : "float (_JNIEnv *, _jclass *, _jmethodID *, ...)",
   "parameters" :
   [
    {
     "referenced_type" : "type-4"
    },
    {
     "referenced_type" : "type-16"
    },
    {
     "referenced_type" : "type-30"
    }
   ],
   "referenced_type" : "type-308",
   "return_type" : "type-79",
   "self_type" : "type-308",
   "source_file" : "/libnativehelper/include_jni/jni.h"
  },
  {
   "alignment" : 4,
   "linker_set_key" : "float (_JNIEnv *, _jclass *, _jmethodID *, const jvalue *)",
   "name" : "float (_JNIEnv *, _jclass *, _jmethodID *, const jvalue *)",
   "parameters" :
   [
    {
     "referenced_type" : "type-4"
    },
    {
     "referenced_type" : "type-16"
    },
    {
     "referenced_type" : "type-30"
    },
    {
     "referenced_type" : "type-74"
    }
   ],
   "referenced_type" : "type-313",
   "return_type" : "type-79",
   "self_type" : "type-313",
   "source_file" : "/libnativehelper/include_jni/jni.h"
  },
  {
   "alignment" : 4,
   "linker_set_key" : "float (_JNIEnv *, _jclass *, _jmethodID *, std::__va_list)",
   "name" : "float (_JNIEnv *, _jclass *, _jmethodID *, std::__va_list)",
   "parameters" :
   [
    {
     "referenced_type" : "type-4"
    },
    {
     "referenced_type" : "type-16"
    },
    {
     "referenced_type" : "type-30"
    },
    {
     "referenced_type" : "type-311"
    }
   ],
   "referenced_type" : "type-310",
   "return_type" : "type-79",
   "self_type" : "type-310",
   "source_file" : "/libnativehelper/include_jni/jni.h"
  },
  {
   "alignment" : 4,
   "linker_set_key" : "float (_JNIEnv *, _jobject *, _jclass *, _jmethodID *, ...)",
   "name" : "float (_JNIEnv *, _jobject *, _jclass *, _jmethodID *, ...)",
   "parameters" :
   [
    {
     "referenced_type" : "type-4"
    },
    {
     "referenced_type" : "type-22"
    },
    {
     "referenced_type" : "type-16"
    },
    {
     "referenced_type" : "type-30"
    }
   ],
   "referenced_type" : "type-207",
   "return_type" : "type-79",
   "self_type" : "type-207",
   "source_file" : "/libnativehelper/include_jni/jni.h"
  },
  {
   "alignment" : 4,
   "linker_set_key" : "float (_JNIEnv *, _jobject *, _jclass *, _jmethodID *, const jvalue *)",
   "name" : "float (_JNIEnv *, _jobject *, _jclass *, _jmethodID *, const jvalue *)",
   "parameters" :
   [
    {
     "referenced_type" : "type-4"
    },
    {
     "referenced_type" : "type-22"
    },
    {
     "referenced_type" : "type-16"
    },
    {
     "referenced_type" : "type-30"
    },
    {
     "referenced_type" : "type-74"
    }
   ],
   "referenced_type" : "type-212",
   "return_type" : "type-79",
   "self_type" : "type-212",
   "source_file" : "/libnativehelper/include_jni/jni.h"
  },
  {
   "alignment" : 4,
   "linker_set_key" : "float (_JNIEnv *, _jobject *, _jclass *, _jmethodID *, std::__va_list)",
   "name" : "float (_JNIEnv *, _jobject *, _jclass *, _jmethodID *, std::__va_list)",
   "parameters" :
   [
    {
     "referenced_type" : "type-4"
    },
    {
     "referenced_type" : "type-22"
    },
    {
     "referenced_type" : "type-16"
    },
    {
     "referenced_type" : "type-30"
    },
    {
     "referenced_type" : "type-210"
    }
   ],
   "referenced_type" : "type-209",
   "return_type" : "type-79",
   "self_type" : "type-209",
   "source_file" : "/libnativehelper/include_jni/jni.h"
  },
  {
   "alignment" : 4,
   "linker_set_key" : "float (_JNIEnv *, _jobject *, _jfieldID *)",
   "name" : "float (_JNIEnv *, _jobject *, _jfieldID *)",
   "parameters" :
   [
    {
     "referenced_type" : "type-4"
    },
    {
     "referenced_type" : "type-22"
    },
    {
     "referenced_type" : "type-34"
    }
   ],
   "referenced_type" : "type-244",
   "return_type" : "type-79",
   "self_type" : "type-244",
   "source_file" : "/libnativehelper/include_jni/jni.h"
  },
  {
   "alignment" : 4,
   "linker_set_key" : "float (_JNIEnv *, _jobject *, _jmethodID *, ...)",
   "name" : "float (_JNIEnv *, _jobject *, _jmethodID *, ...)",
   "parameters" :
   [
    {
     "referenced_type" : "type-4"
    },
    {
     "referenced_type" : "type-22"
    },
    {
     "referenced_type" : "type-30"
    }
   ],
   "referenced_type" : "type-137",
   "return_type" : "type-79",
   "self_type" : "type-137",
   "source_file" : "/libnativehelper/include_jni/jni.h"
  },
  {
   "alignment" : 4,
   "linker_set_key" : "float (_JNIEnv *, _jobject *, _jmethodID *, const jvalue *)",
   "name" : "float (_JNIEnv *, _jobject *, _jmethodID *, const jvalue *)",
   "parameters" :
   [
    {
     "referenced_type" : "type-4"
    },
    {
     "referenced_type" : "type-22"
    },
    {
     "referenced_type" : "type-30"
    },
    {
     "referenced_type" : "type-74"
    }
   ],
   "referenced_type" : "type-142",
   "return_type" : "type-79",
   "self_type" : "type-142",
   "source_file" : "/libnativehelper/include_jni/jni.h"
  },
  {
   "alignment" : 4,
   "linker_set_key" : "float (_JNIEnv *, _jobject *, _jmethodID *, std::__va_list)",
   "name" : "float (_JNIEnv *, _jobject *, _jmethodID *, std::__va_list)",
   "parameters" :
   [
    {
     "referenced_type" : "type-4"
    },
    {
     "referenced_type" : "type-22"
    },
    {
     "referenced_type" : "type-30"
    },
    {
     "referenced_type" : "type-140"
    }
   ],
   "referenced_type" : "type-139",
   "return_type" : "type-79",
   "self_type" : "type-139",
   "source_file" : "/libnativehelper/include_jni/jni.h"
  },
  {
   "alignment" : 4,
   "linker_set_key" : "float *(_JNIEnv *, _jfloatArray *, unsigned char *)",
   "name" : "float *(_JNIEnv *, _jfloatArray *, unsigned char *)",
   "parameters" :
   [
    {
     "referenced_type" : "type-4"
    },
    {
     "referenced_type" : "type-421"
    },
    {
     "referenced_type" : "type-374"
    }
   ],
   "referenced_type" : "type-445",
   "return_type" : "type-446",
   "self_type" : "type-445",
   "source_file" : "/libnativehelper/include_jni/jni.h"
  },
  {
   "alignment" : 4,
   "linker_set_key" : "int (_JNIEnv *)",
   "name" : "int (_JNIEnv *)",
   "parameters" :
   [
    {
     "referenced_type" : "type-4"
    }
   ],
   "referenced_type" : "type-12",
   "return_type" : "type-13",
   "self_type" : "type-12",
   "source_file" : "/libnativehelper/include_jni/jni.h"
  },
  {
   "alignment" : 4,
   "linker_set_key" : "int (_JNIEnv *, _JavaVM **)",
   "name" : "int (_JNIEnv *, _JavaVM **)",
   "parameters" :
   [
    {
     "referenced_type" : "type-4"
    },
    {
     "referenced_type" : "type-521"
    }
   ],
   "referenced_type" : "type-520",
   "return_type" : "type-13",
   "self_type" : "type-520",
   "source_file" : "/libnativehelper/include_jni/jni.h"
  },
  {
   "alignment" : 4,
   "linker_set_key" : "int (_JNIEnv *, _jarray *)",
   "name" : "int (_JNIEnv *, _jarray *)",
   "parameters" :
   [
    {
     "referenced_type" : "type-4"
    },
    {
     "referenced_type" : "type-385"
    }
   ],
   "referenced_type" : "type-384",
   "return_type" : "type-13",
   "self_type" : "type-384",
   "source_file" : "/libnativehelper/include_jni/jni.h"
  },
  {
   "alignment" : 4,
   "linker_set_key" : "int (_JNIEnv *, _jclass *)",
   "name" : "int (_JNIEnv *, _jclass *)",
   "parameters" :
   [
    {
     "referenced_type" : "type-4"
    },
    {
     "referenced_type" : "type-16"
    }
   ],
   "referenced_type" : "type-516",
   "return_type" : "type-13",
   "self_type" : "type-516",
   "source_file" : "/libnativehelper/include_jni/jni.h"
  },
  {
   "alignment" : 4,
   "linker_set_key" : "int (_JNIEnv *, _jclass *, _jfieldID *)",
   "name" : "int (_JNIEnv *, _jclass *, _jfieldID *)",
   "parameters" :
   [
    {
     "referenced_type" : "type-4"
    },
    {
     "referenced_type" : "type-16"
    },
    {
     "referenced_type" : "type-34"
    }
   ],
   "referenced_type" : "type-339",
   "return_type" : "type-13",
   "self_type" : "type-339",
   "source_file" : "/libnativehelper/include_jni/jni.h"
  },
  {
   "alignment" : 4,
   "linker_set_key" : "int (_JNIEnv *, _jclass *, _jmethodID *, ...)",
   "name" : "int (_JNIEnv *, _jclass *, _jmethodID *, ...)",
   "parameters" :
   [
    {
     "referenced_type" : "type-4"
    },
    {
     "referenced_type" : "type-16"
    },
    {
     "referenced_type" : "type-30"
    }
   ],
   "referenced_type" : "type-294",
   "return_type" : "type-13",
   "self_type" : "type-294",
   "source_file" : "/libnativehelper/include_jni/jni.h"
  },
  {
   "alignment" : 4,
   "linker_set_key" : "int (_JNIEnv *, _jclass *, _jmethodID *, const jvalue *)",
   "name" : "int (_JNIEnv *, _jclass *, _jmethodID *, const jvalue *)",
   "parameters" :
   [
    {
     "referenced_type" : "type-4"
    },
    {
     "referenced_type" : "type-16"
    },
    {
     "referenced_type" : "type-30"
    },
    {
     "referenced_type" : "type-74"
    }
   ],
   "referenced_type" : "type-299",
   "return_type" : "type-13",
   "self_type" : "type-299",
   "source_file" : "/libnativehelper/include_jni/jni.h"
  },
  {
   "alignment" : 4,
   "linker_set_key" : "int (_JNIEnv *, _jclass *, _jmethodID *, std::__va_list)",
   "name" : "int (_JNIEnv *, _jclass *, _jmethodID *, std::__va_list)",
   "parameters" :
   [
    {
     "referenced_type" : "type-4"
    },
    {
     "referenced_type" : "type-16"
    },
    {
     "referenced_type" : "type-30"
    },
    {
     "referenced_type" : "type-297"
    }
   ],
   "referenced_type" : "type-296",
   "return_type" : "type-13",
   "self_type" : "type-296",
   "source_file" : "/libnativehelper/include_jni/jni.h"
  },
  {
   "alignment" : 4,
   "linker_set_key" : "int (_JNIEnv *, _jclass *, const JNINativeMethod *, int)",
   "name" : "int (_JNIEnv *, _jclass *, const JNINativeMethod *, int)",
   "parameters" :
   [
    {
     "referenced_type" : "type-4"
    },
    {
     "referenced_type" : "type-16"
    },
    {
     "referenced_type" : "type-512"
    },
    {
     "referenced_type" : "type-13"
    }
   ],
   "referenced_type" : "type-511",
   "return_type" : "type-13",
   "self_type" : "type-511",
   "source_file" : "/libnativehelper/include_jni/jni.h"
  },
  {
   "alignment" : 4,
   "linker_set_key" : "int (_JNIEnv *, _jclass *, const char *)",
   "name" : "int (_JNIEnv *, _jclass *, const char *)",
   "parameters" :
   [
    {
     "referenced_type" : "type-4"
    },
    {
     "referenced_type" : "type-16"
    },
    {
     "referenced_type" : "type-19"
    }
   ],
   "referenced_type" : "type-50",
   "return_type" : "type-13",
   "self_type" : "type-50",
   "source_file" : "/libnativehelper/include_jni/jni.h"
  },
  {
   "alignment" : 4,
   "linker_set_key" : "int (_JNIEnv *, _jobject *)",
   "name" : "int (_JNIEnv *, _jobject *)",
   "parameters" :
   [
    {
     "referenced_type" : "type-4"
    },
    {
     "referenced_type" : "type-22"
    }
   ],
   "referenced_type" : "type-518",
   "return_type" : "type-13",
   "self_type" : "type-518",
   "source_file" : "/libnativehelper/include_jni/jni.h"
  },
  {
   "alignment" : 4,
   "linker_set_key" : "int (_JNIEnv *, _jobject *, _jclass *, _jmethodID *, ...)",
   "name" : "int (_JNIEnv *, _jobject *, _jclass *, _jmethodID *, ...)",
   "parameters" :
   [
    {
     "referenced_type" : "type-4"
    },
    {
     "referenced_type" : "type-22"
    },
    {
     "referenced_type" : "type-16"
    },
    {
     "referenced_type" : "type-30"
    }
   ],
   "referenced_type" : "type-193",
   "return_type" : "type-13",
   "self_type" : "type-193",
   "source_file" : "/libnativehelper/include_jni/jni.h"
  },
  {
   "alignment" : 4,
   "linker_set_key" : "int (_JNIEnv *, _jobject *, _jclass *, _jmethodID *, const jvalue *)",
   "name" : "int (_JNIEnv *, _jobject *, _jclass *, _jmethodID *, const jvalue *)",
   "parameters" :
   [
    {
     "referenced_type" : "type-4"
    },
    {
     "referenced_type" : "type-22"
    },
    {
     "referenced_type" : "type-16"
    },
    {
     "referenced_type" : "type-30"
    },
    {
     "referenced_type" : "type-74"
    }
   ],
   "referenced_type" : "type-198",
   "return_type" : "type-13",
   "self_type" : "type-198",
   "source_file" : "/libnativehelper/include_jni/jni.h"
  },
  {
   "alignment" : 4,
   "linker_set_key" : "int (_JNIEnv *, _jobject *, _jclass *, _jmethodID *, std::__va_list)",
   "name" : "int (_JNIEnv *, _jobject *, _jclass *, _jmethodID *, std::__va_list)",
   "parameters" :
   [
    {
     "referenced_type" : "type-4"
    },
    {
     "referenced_type" : "type-22"
    },
    {
     "referenced_type" : "type-16"
    },
    {
     "referenced_type" : "type-30"
    },
    {
     "referenced_type" : "type-196"
    }
   ],
   "referenced_type" : "type-195",
   "return_type" : "type-13",
   "self_type" : "type-195",
   "source_file" : "/libnativehelper/include_jni/jni.h"
  },
  {
   "alignment" : 4,
   "linker_set_key" : "int (_JNIEnv *, _jobject *, _jfieldID *)",
   "name" : "int (_JNIEnv *, _jobject *, _jfieldID *)",
   "parameters" :
   [
    {
     "referenced_type" : "type-4"
    },
    {
     "referenced_type" : "type-22"
    },
    {
     "referenced_type" : "type-34"
    }
   ],
   "referenced_type" : "type-240",
   "return_type" : "type-13",
   "self_type" : "type-240",
   "source_file" : "/libnativehelper/include_jni/jni.h"
  },
  {
   "alignment" : 4,
   "linker_set_key" : "int (_JNIEnv *, _jobject *, _jmethodID *, ...)",
   "name" : "int (_JNIEnv *, _jobject *, _jmethodID *, ...)",
   "parameters" :
   [
    {
     "referenced_type" : "type-4"
    },
    {
     "referenced_type" : "type-22"
    },
    {
     "referenced_type" : "type-30"
    }
   ],
   "referenced_type" : "type-123",
   "return_type" : "type-13",
   "self_type" : "type-123",
   "source_file" : "/libnativehelper/include_jni/jni.h"
  },
  {
   "alignment" : 4,
   "linker_set_key" : "int (_JNIEnv *, _jobject *, _jmethodID *, const jvalue *)",
   "name" : "int (_JNIEnv *, _jobject *, _jmethodID *, const jvalue *)",
   "parameters" :
   [
    {
     "referenced_type" : "type-4"
    },
    {
     "referenced_type" : "type-22"
    },
    {
     "referenced_type" : "type-30"
    },
    {
     "referenced_type" : "type-74"
    }
   ],
   "referenced_type" : "type-128",
   "return_type" : "type-13",
   "self_type" : "type-128",
   "source_file" : "/libnativehelper/include_jni/jni.h"
  },
  {
   "alignment" : 4,
   "linker_set_key" : "int (_JNIEnv *, _jobject *, _jmethodID *, std::__va_list)",
   "name" : "int (_JNIEnv *, _jobject *, _jmethodID *, std::__va_list)",
   "parameters" :
   [
    {
     "referenced_type" : "type-4"
    },
    {
     "referenced_type" : "type-22"
    },
    {
     "referenced_type" : "type-30"
    },
    {
     "referenced_type" : "type-126"
    }
   ],
   "referenced_type" : "type-125",
   "return_type" : "type-13",
   "self_type" : "type-125",
   "source_file" : "/libnativehelper/include_jni/jni.h"
  },
  {
   "alignment" : 4,
   "linker_set_key" : "int (_JNIEnv *, _jstring *)",
   "name" : "int (_JNIEnv *, _jstring *)",
   "parameters" :
   [
    {
     "referenced_type" : "type-4"
    },
    {
     "referenced_type" : "type-366"
    }
   ],
   "referenced_type" : "type-371",
   "return_type" : "type-13",
   "self_type" : "type-371",
   "source_file" : "/libnativehelper/include_jni/jni.h"
  },
  {
   "alignment" : 4,
   "linker_set_key" : "int (_JNIEnv *, _jthrowable *)",
   "name" : "int (_JNIEnv *, _jthrowable *)",
   "parameters" :
   [
    {
     "referenced_type" : "type-4"
    },
    {
     "referenced_type" : "type-47"
    }
   ],
   "referenced_type" : "type-46",
   "return_type" : "type-13",
   "self_type" : "type-46",
   "source_file" : "/libnativehelper/include_jni/jni.h"
  },
  {
   "alignment" : 4,
   "linker_set_key" : "int (_JNIEnv *, int)",
   "name" : "int (_JNIEnv *, int)",
   "parameters" :
   [
    {
     "referenced_type" : "type-4"
    },
    {
     "referenced_type" : "type-13"
    }
   ],
   "referenced_type" : "type-58",
   "return_type" : "type-13",
   "self_type" : "type-58",
   "source_file" : "/libnativehelper/include_jni/jni.h"
  },
  {
   "alignment" : 4,
   "linker_set_key" : "int (_JavaVM *)",
   "name" : "int (_JavaVM *)",
   "parameters" :
   [
    {
     "referenced_type" : "type-522"
    }
   ],
   "referenced_type" : "type-528",
   "return_type" : "type-13",
   "self_type" : "type-528",
   "source_file" : "/libnativehelper/include_jni/jni.h"
  },
  {
   "alignment" : 4,
   "linker_set_key" : "int (_JavaVM *, _JNIEnv **, void *)",
   "name" : "int (_JavaVM *, _JNIEnv **, void *)",
   "parameters" :
   [
    {
     "referenced_type" : "type-522"
    },
    {
     "referenced_type" : "type-531"
    },
    {
     "referenced_type" : "type-9"
    }
   ],
   "referenced_type" : "type-530",
   "return_type" : "type-13",
   "self_type" : "type-530",
   "source_file" : "/libnativehelper/include_jni/jni.h"
  },
  {
   "alignment" : 4,
   "linker_set_key" : "int (_JavaVM *, void **, int)",
   "name" : "int (_JavaVM *, void **, int)",
   "parameters" :
   [
    {
     "referenced_type" : "type-522"
    },
    {
     "referenced_type" : "type-534"
    },
    {
     "referenced_type" : "type-13"
    }
   ],
   "referenced_type" : "type-533",
   "return_type" : "type-13",
   "self_type" : "type-533",
   "source_file" : "/libnativehelper/include_jni/jni.h"
  },
  {
   "alignment" : 4,
   "linker_set_key" : "int *(_JNIEnv *, _jintArray *, unsigned char *)",
   "name" : "int *(_JNIEnv *, _jintArray *, unsigned char *)",
   "parameters" :
   [
    {
     "referenced_type" : "type-4"
    },
    {
     "referenced_type" : "type-413"
    },
    {
     "referenced_type" : "type-374"
    }
   ],
   "referenced_type" : "type-439",
   "return_type" : "type-440",
   "self_type" : "type-439",
   "source_file" : "/libnativehelper/include_jni/jni.h"
  },
  {
   "alignment" : 4,
   "linker_set_key" : "jobjectRefType (_JNIEnv *, _jobject *)",
   "name" : "jobjectRefType (_JNIEnv *, _jobject *)",
   "parameters" :
   [
    {
     "referenced_type" : "type-4"
    },
    {
     "referenced_type" : "type-22"
    }
   ],
   "referenced_type" : "type-553",
   "return_type" : "type-554",
   "self_type" : "type-553",
   "source_file" : "/libnativehelper/include_jni/jni.h"
  },
  {
   "alignment" : 4,
   "linker_set_key" : "long long (_JNIEnv *, _jclass *, _jfieldID *)",
   "name" : "long long (_JNIEnv *, _jclass *, _jfieldID *)",
   "parameters" :
   [
    {
     "referenced_type" : "type-4"
    },
    {
     "referenced_type" : "type-16"
    },
    {
     "referenced_type" : "type-34"
    }
   ],
   "referenced_type" : "type-341",
   "return_type" : "type-2",
   "self_type" : "type-341",
   "source_file" : "/libnativehelper/include_jni/jni.h"
  },
  {
   "alignment" : 4,
   "linker_set_key" : "long long (_JNIEnv *, _jclass *, _jmethodID *, ...)",
   "name" : "long long (_JNIEnv *, _jclass *, _jmethodID *, ...)",
   "parameters" :
   [
    {
     "referenced_type" : "type-4"
    },
    {
     "referenced_type" : "type-16"
    },
    {
     "referenced_type" : "type-30"
    }
   ],
   "referenced_type" : "type-301",
   "return_type" : "type-2",
   "self_type" : "type-301",
   "source_file" : "/libnativehelper/include_jni/jni.h"
  },
  {
   "alignment" : 4,
   "linker_set_key" : "long long (_JNIEnv *, _jclass *, _jmethodID *, const jvalue *)",
   "name" : "long long (_JNIEnv *, _jclass *, _jmethodID *, const jvalue *)",
   "parameters" :
   [
    {
     "referenced_type" : "type-4"
    },
    {
     "referenced_type" : "type-16"
    },
    {
     "referenced_type" : "type-30"
    },
    {
     "referenced_type" : "type-74"
    }
   ],
   "referenced_type" : "type-306",
   "return_type" : "type-2",
   "self_type" : "type-306",
   "source_file" : "/libnativehelper/include_jni/jni.h"
  },
  {
   "alignment" : 4,
   "linker_set_key" : "long long (_JNIEnv *, _jclass *, _jmethodID *, std::__va_list)",
   "name" : "long long (_JNIEnv *, _jclass *, _jmethodID *, std::__va_list)",
   "parameters" :
   [
    {
     "referenced_type" : "type-4"
    },
    {
     "referenced_type" : "type-16"
    },
    {
     "referenced_type" : "type-30"
    },
    {
     "referenced_type" : "type-304"
    }
   ],
   "referenced_type" : "type-303",
   "return_type" : "type-2",
   "self_type" : "type-303",
   "source_file" : "/libnativehelper/include_jni/jni.h"
  },
  {
   "alignment" : 4,
   "linker_set_key" : "long long (_JNIEnv *, _jobject *)",
   "name" : "long long (_JNIEnv *, _jobject *)",
   "parameters" :
   [
    {
     "referenced_type" : "type-4"
    },
    {
     "referenced_type" : "type-22"
    }
   ],
   "referenced_type" : "type-551",
   "return_type" : "type-2",
   "self_type" : "type-551",
   "source_file" : "/libnativehelper/include_jni/jni.h"
  },
  {
   "alignment" : 4,
   "linker_set_key" : "long long (_JNIEnv *, _jobject *, _jclass *, _jmethodID *, ...)",
   "name" : "long long (_JNIEnv *, _jobject *, _jclass *, _jmethodID *, ...)",
   "parameters" :
   [
    {
     "referenced_type" : "type-4"
    },
    {
     "referenced_type" : "type-22"
    },
    {
     "referenced_type" : "type-16"
    },
    {
     "referenced_type" : "type-30"
    }
   ],
   "referenced_type" : "type-200",
   "return_type" : "type-2",
   "self_type" : "type-200",
   "source_file" : "/libnativehelper/include_jni/jni.h"
  },
  {
   "alignment" : 4,
   "linker_set_key" : "long long (_JNIEnv *, _jobject *, _jclass *, _jmethodID *, const jvalue *)",
   "name" : "long long (_JNIEnv *, _jobject *, _jclass *, _jmethodID *, const jvalue *)",
   "parameters" :
   [
    {
     "referenced_type" : "type-4"
    },
    {
     "referenced_type" : "type-22"
    },
    {
     "referenced_type" : "type-16"
    },
    {
     "referenced_type" : "type-30"
    },
    {
     "referenced_type" : "type-74"
    }
   ],
   "referenced_type" : "type-205",
   "return_type" : "type-2",
   "self_type" : "type-205",
   "source_file" : "/libnativehelper/include_jni/jni.h"
  },
  {
   "alignment" : 4,
   "linker_set_key" : "long long (_JNIEnv *, _jobject *, _jclass *, _jmethodID *, std::__va_list)",
   "name" : "long long (_JNIEnv *, _jobject *, _jclass *, _jmethodID *, std::__va_list)",
   "parameters" :
   [
    {
     "referenced_type" : "type-4"
    },
    {
     "referenced_type" : "type-22"
    },
    {
     "referenced_type" : "type-16"
    },
    {
     "referenced_type" : "type-30"
    },
    {
     "referenced_type" : "type-203"
    }
   ],
   "referenced_type" : "type-202",
   "return_type" : "type-2",
   "self_type" : "type-202",
   "source_file" : "/libnativehelper/include_jni/jni.h"
  },
  {
   "alignment" : 4,
   "linker_set_key" : "long long (_JNIEnv *, _jobject *, _jfieldID *)",
   "name" : "long long (_JNIEnv *, _jobject *, _jfieldID *)",
   "parameters" :
   [
    {
     "referenced_type" : "type-4"
    },
    {
     "referenced_type" : "type-22"
    },
    {
     "referenced_type" : "type-34"
    }
   ],
   "referenced_type" : "type-242",
   "return_type" : "type-2",
   "self_type" : "type-242",
   "source_file" : "/libnativehelper/include_jni/jni.h"
  },
  {
   "alignment" : 4,
   "linker_set_key" : "long long (_JNIEnv *, _jobject *, _jmethodID *, ...)",
   "name" : "long long (_JNIEnv *, _jobject *, _jmethodID *, ...)",
   "parameters" :
   [
    {
     "referenced_type" : "type-4"
    },
    {
     "referenced_type" : "type-22"
    },
    {
     "referenced_type" : "type-30"
    }
   ],
   "referenced_type" : "type-130",
   "return_type" : "type-2",
   "self_type" : "type-130",
   "source_file" : "/libnativehelper/include_jni/jni.h"
  },
  {
   "alignment" : 4,
   "linker_set_key" : "long long (_JNIEnv *, _jobject *, _jmethodID *, const jvalue *)",
   "name" : "long long (_JNIEnv *, _jobject *, _jmethodID *, const jvalue *)",
   "parameters" :
   [
    {
     "referenced_type" : "type-4"
    },
    {
     "referenced_type" : "type-22"
    },
    {
     "referenced_type" : "type-30"
    },
    {
     "referenced_type" : "type-74"
    }
   ],
   "referenced_type" : "type-135",
   "return_type" : "type-2",
   "self_type" : "type-135",
   "source_file" : "/libnativehelper/include_jni/jni.h"
  },
  {
   "alignment" : 4,
   "linker_set_key" : "long long (_JNIEnv *, _jobject *, _jmethodID *, std::__va_list)",
   "name" : "long long (_JNIEnv *, _jobject *, _jmethodID *, std::__va_list)",
   "parameters" :
   [
    {
     "referenced_type" : "type-4"
    },
    {
     "referenced_type" : "type-22"
    },
    {
     "referenced_type" : "type-30"
    },
    {
     "referenced_type" : "type-133"
    }
   ],
   "referenced_type" : "type-132",
   "return_type" : "type-2",
   "self_type" : "type-132",
   "source_file" : "/libnativehelper/include_jni/jni.h"
  },
  {
   "alignment" : 4,
   "linker_set_key" : "long long *(_JNIEnv *, _jlongArray *, unsigned char *)",
   "name" : "long long *(_JNIEnv *, _jlongArray *, unsigned char *)",
   "parameters" :
   [
    {
     "referenced_type" : "type-4"
    },
    {
     "referenced_type" : "type-417"
    },
    {
     "referenced_type" : "type-374"
    }
   ],
   "referenced_type" : "type-442",
   "return_type" : "type-443",
   "self_type" : "type-442",
   "source_file" : "/libnativehelper/include_jni/jni.h"
  },
  {
   "alignment" : 4,
   "linker_set_key" : "short (_JNIEnv *, _jclass *, _jfieldID *)",
   "name" : "short (_JNIEnv *, _jclass *, _jfieldID *)",
   "parameters" :
   [
    {
     "referenced_type" : "type-4"
    },
    {
     "referenced_type" : "type-16"
    },
    {
     "referenced_type" : "type-34"
    }
   ],
   "referenced_type" : "type-337",
   "return_type" : "type-78",
   "self_type" : "type-337",
   "source_file" : "/libnativehelper/include_jni/jni.h"
  },
  {
   "alignment" : 4,
   "linker_set_key" : "short (_JNIEnv *, _jclass *, _jmethodID *, ...)",
   "name" : "short (_JNIEnv *, _jclass *, _jmethodID *, ...)",
   "parameters" :
   [
    {
     "referenced_type" : "type-4"
    },
    {
     "referenced_type" : "type-16"
    },
    {
     "referenced_type" : "type-30"
    }
   ],
   "referenced_type" : "type-287",
   "return_type" : "type-78",
   "self_type" : "type-287",
   "source_file" : "/libnativehelper/include_jni/jni.h"
  },
  {
   "alignment" : 4,
   "linker_set_key" : "short (_JNIEnv *, _jclass *, _jmethodID *, const jvalue *)",
   "name" : "short (_JNIEnv *, _jclass *, _jmethodID *, const jvalue *)",
   "parameters" :
   [
    {
     "referenced_type" : "type-4"
    },
    {
     "referenced_type" : "type-16"
    },
    {
     "referenced_type" : "type-30"
    },
    {
     "referenced_type" : "type-74"
    }
   ],
   "referenced_type" : "type-292",
   "return_type" : "type-78",
   "self_type" : "type-292",
   "source_file" : "/libnativehelper/include_jni/jni.h"
  },
  {
   "alignment" : 4,
   "linker_set_key" : "short (_JNIEnv *, _jclass *, _jmethodID *, std::__va_list)",
   "name" : "short (_JNIEnv *, _jclass *, _jmethodID *, std::__va_list)",
   "parameters" :
   [
    {
     "referenced_type" : "type-4"
    },
    {
     "referenced_type" : "type-16"
    },
    {
     "referenced_type" : "type-30"
    },
    {
     "referenced_type" : "type-290"
    }
   ],
   "referenced_type" : "type-289",
   "return_type" : "type-78",
   "self_type" : "type-289",
   "source_file" : "/libnativehelper/include_jni/jni.h"
  },
  {
   "alignment" : 4,
   "linker_set_key" : "short (_JNIEnv *, _jobject *, _jclass *, _jmethodID *, ...)",
   "name" : "short (_JNIEnv *, _jobject *, _jclass *, _jmethodID *, ...)",
   "parameters" :
   [
    {
     "referenced_type" : "type-4"
    },
    {
     "referenced_type" : "type-22"
    },
    {
     "referenced_type" : "type-16"
    },
    {
     "referenced_type" : "type-30"
    }
   ],
   "referenced_type" : "type-186",
   "return_type" : "type-78",
   "self_type" : "type-186",
   "source_file" : "/libnativehelper/include_jni/jni.h"
  },
  {
   "alignment" : 4,
   "linker_set_key" : "short (_JNIEnv *, _jobject *, _jclass *, _jmethodID *, const jvalue *)",
   "name" : "short (_JNIEnv *, _jobject *, _jclass *, _jmethodID *, const jvalue *)",
   "parameters" :
   [
    {
     "referenced_type" : "type-4"
    },
    {
     "referenced_type" : "type-22"
    },
    {
     "referenced_type" : "type-16"
    },
    {
     "referenced_type" : "type-30"
    },
    {
     "referenced_type" : "type-74"
    }
   ],
   "referenced_type" : "type-191",
   "return_type" : "type-78",
   "self_type" : "type-191",
   "source_file" : "/libnativehelper/include_jni/jni.h"
  },
  {
   "alignment" : 4,
   "linker_set_key" : "short (_JNIEnv *, _jobject *, _jclass *, _jmethodID *, std::__va_list)",
   "name" : "short (_JNIEnv *, _jobject *, _jclass *, _jmethodID *, std::__va_list)",
   "parameters" :
   [
    {
     "referenced_type" : "type-4"
    },
    {
     "referenced_type" : "type-22"
    },
    {
     "referenced_type" : "type-16"
    },
    {
     "referenced_type" : "type-30"
    },
    {
     "referenced_type" : "type-189"
    }
   ],
   "referenced_type" : "type-188",
   "return_type" : "type-78",
   "self_type" : "type-188",
   "source_file" : "/libnativehelper/include_jni/jni.h"
  },
  {
   "alignment" : 4,
   "linker_set_key" : "short (_JNIEnv *, _jobject *, _jfieldID *)",
   "name" : "short (_JNIEnv *, _jobject *, _jfieldID *)",
   "parameters" :
   [
    {
     "referenced_type" : "type-4"
    },
    {
     "referenced_type" : "type-22"
    },
    {
     "referenced_type" : "type-34"
    }
   ],
   "referenced_type" : "type-238",
   "return_type" : "type-78",
   "self_type" : "type-238",
   "source_file" : "/libnativehelper/include_jni/jni.h"
  },
  {
   "alignment" : 4,
   "linker_set_key" : "short (_JNIEnv *, _jobject *, _jmethodID *, ...)",
   "name" : "short (_JNIEnv *, _jobject *, _jmethodID *, ...)",
   "parameters" :
   [
    {
     "referenced_type" : "type-4"
    },
    {
     "referenced_type" : "type-22"
    },
    {
     "referenced_type" : "type-30"
    }
   ],
   "referenced_type" : "type-116",
   "return_type" : "type-78",
   "self_type" : "type-116",
   "source_file" : "/libnativehelper/include_jni/jni.h"
  },
  {
   "alignment" : 4,
   "linker_set_key" : "short (_JNIEnv *, _jobject *, _jmethodID *, const jvalue *)",
   "name" : "short (_JNIEnv *, _jobject *, _jmethodID *, const jvalue *)",
   "parameters" :
   [
    {
     "referenced_type" : "type-4"
    },
    {
     "referenced_type" : "type-22"
    },
    {
     "referenced_type" : "type-30"
    },
    {
     "referenced_type" : "type-74"
    }
   ],
   "referenced_type" : "type-121",
   "return_type" : "type-78",
   "self_type" : "type-121",
   "source_file" : "/libnativehelper/include_jni/jni.h"
  },
  {
   "alignment" : 4,
   "linker_set_key" : "short (_JNIEnv *, _jobject *, _jmethodID *, std::__va_list)",
   "name" : "short (_JNIEnv *, _jobject *, _jmethodID *, std::__va_list)",
   "parameters" :
   [
    {
     "referenced_type" : "type-4"
    },
    {
     "referenced_type" : "type-22"
    },
    {
     "referenced_type" : "type-30"
    },
    {
     "referenced_type" : "type-119"
    }
   ],
   "referenced_type" : "type-118",
   "return_type" : "type-78",
   "self_type" : "type-118",
   "source_file" : "/libnativehelper/include_jni/jni.h"
  },
  {
   "alignment" : 4,
   "linker_set_key" : "short *(_JNIEnv *, _jshortArray *, unsigned char *)",
   "name" : "short *(_JNIEnv *, _jshortArray *, unsigned char *)",
   "parameters" :
   [
    {
     "referenced_type" : "type-4"
    },
    {
     "referenced_type" : "type-409"
    },
    {
     "referenced_type" : "type-374"
    }
   ],
   "referenced_type" : "type-436",
   "return_type" : "type-437",
   "self_type" : "type-436",
   "source_file" : "/libnativehelper/include_jni/jni.h"
  },
  {
   "alignment" : 4,
   "linker_set_key" : "signed char (_JNIEnv *, _jclass *, _jfieldID *)",
   "name" : "signed char (_JNIEnv *, _jclass *, _jfieldID *)",
   "parameters" :
   [
    {
     "referenced_type" : "type-4"
    },
    {
     "referenced_type" : "type-16"
    },
    {
     "referenced_type" : "type-34"
    }
   ],
   "referenced_type" : "type-333",
   "return_type" : "type-25",
   "self_type" : "type-333",
   "source_file" : "/libnativehelper/include_jni/jni.h"
  },
  {
   "alignment" : 4,
   "linker_set_key" : "signed char (_JNIEnv *, _jclass *, _jmethodID *, ...)",
   "name" : "signed char (_JNIEnv *, _jclass *, _jmethodID *, ...)",
   "parameters" :
   [
    {
     "referenced_type" : "type-4"
    },
    {
     "referenced_type" : "type-16"
    },
    {
     "referenced_type" : "type-30"
    }
   ],
   "referenced_type" : "type-273",
   "return_type" : "type-25",
   "self_type" : "type-273",
   "source_file" : "/libnativehelper/include_jni/jni.h"
  },
  {
   "alignment" : 4,
   "linker_set_key" : "signed char (_JNIEnv *, _jclass *, _jmethodID *, const jvalue *)",
   "name" : "signed char (_JNIEnv *, _jclass *, _jmethodID *, const jvalue *)",
   "parameters" :
   [
    {
     "referenced_type" : "type-4"
    },
    {
     "referenced_type" : "type-16"
    },
    {
     "referenced_type" : "type-30"
    },
    {
     "referenced_type" : "type-74"
    }
   ],
   "referenced_type" : "type-278",
   "return_type" : "type-25",
   "self_type" : "type-278",
   "source_file" : "/libnativehelper/include_jni/jni.h"
  },
  {
   "alignment" : 4,
   "linker_set_key" : "signed char (_JNIEnv *, _jclass *, _jmethodID *, std::__va_list)",
   "name" : "signed char (_JNIEnv *, _jclass *, _jmethodID *, std::__va_list)",
   "parameters" :
   [
    {
     "referenced_type" : "type-4"
    },
    {
     "referenced_type" : "type-16"
    },
    {
     "referenced_type" : "type-30"
    },
    {
     "referenced_type" : "type-276"
    }
   ],
   "referenced_type" : "type-275",
   "return_type" : "type-25",
   "self_type" : "type-275",
   "source_file" : "/libnativehelper/include_jni/jni.h"
  },
  {
   "alignment" : 4,
   "linker_set_key" : "signed char (_JNIEnv *, _jobject *, _jclass *, _jmethodID *, ...)",
   "name" : "signed char (_JNIEnv *, _jobject *, _jclass *, _jmethodID *, ...)",
   "parameters" :
   [
    {
     "referenced_type" : "type-4"
    },
    {
     "referenced_type" : "type-22"
    },
    {
     "referenced_type" : "type-16"
    },
    {
     "referenced_type" : "type-30"
    }
   ],
   "referenced_type" : "type-172",
   "return_type" : "type-25",
   "self_type" : "type-172",
   "source_file" : "/libnativehelper/include_jni/jni.h"
  },
  {
   "alignment" : 4,
   "linker_set_key" : "signed char (_JNIEnv *, _jobject *, _jclass *, _jmethodID *, const jvalue *)",
   "name" : "signed char (_JNIEnv *, _jobject *, _jclass *, _jmethodID *, const jvalue *)",
   "parameters" :
   [
    {
     "referenced_type" : "type-4"
    },
    {
     "referenced_type" : "type-22"
    },
    {
     "referenced_type" : "type-16"
    },
    {
     "referenced_type" : "type-30"
    },
    {
     "referenced_type" : "type-74"
    }
   ],
   "referenced_type" : "type-177",
   "return_type" : "type-25",
   "self_type" : "type-177",
   "source_file" : "/libnativehelper/include_jni/jni.h"
  },
  {
   "alignment" : 4,
   "linker_set_key" : "signed char (_JNIEnv *, _jobject *, _jclass *, _jmethodID *, std::__va_list)",
   "name" : "signed char (_JNIEnv *, _jobject *, _jclass *, _jmethodID *, std::__va_list)",
   "parameters" :
   [
    {
     "referenced_type" : "type-4"
    },
    {
     "referenced_type" : "type-22"
    },
    {
     "referenced_type" : "type-16"
    },
    {
     "referenced_type" : "type-30"
    },
    {
     "referenced_type" : "type-175"
    }
   ],
   "referenced_type" : "type-174",
   "return_type" : "type-25",
   "self_type" : "type-174",
   "source_file" : "/libnativehelper/include_jni/jni.h"
  },
  {
   "alignment" : 4,
   "linker_set_key" : "signed char (_JNIEnv *, _jobject *, _jfieldID *)",
   "name" : "signed char (_JNIEnv *, _jobject *, _jfieldID *)",
   "parameters" :
   [
    {
     "referenced_type" : "type-4"
    },
    {
     "referenced_type" : "type-22"
    },
    {
     "referenced_type" : "type-34"
    }
   ],
   "referenced_type" : "type-234",
   "return_type" : "type-25",
   "self_type" : "type-234",
   "source_file" : "/libnativehelper/include_jni/jni.h"
  },
  {
   "alignment" : 4,
   "linker_set_key" : "signed char (_JNIEnv *, _jobject *, _jmethodID *, ...)",
   "name" : "signed char (_JNIEnv *, _jobject *, _jmethodID *, ...)",
   "parameters" :
   [
    {
     "referenced_type" : "type-4"
    },
    {
     "referenced_type" : "type-22"
    },
    {
     "referenced_type" : "type-30"
    }
   ],
   "referenced_type" : "type-102",
   "return_type" : "type-25",
   "self_type" : "type-102",
   "source_file" : "/libnativehelper/include_jni/jni.h"
  },
  {
   "alignment" : 4,
   "linker_set_key" : "signed char (_JNIEnv *, _jobject *, _jmethodID *, const jvalue *)",
   "name" : "signed char (_JNIEnv *, _jobject *, _jmethodID *, const jvalue *)",
   "parameters" :
   [
    {
     "referenced_type" : "type-4"
    },
    {
     "referenced_type" : "type-22"
    },
    {
     "referenced_type" : "type-30"
    },
    {
     "referenced_type" : "type-74"
    }
   ],
   "referenced_type" : "type-107",
   "return_type" : "type-25",
   "self_type" : "type-107",
   "source_file" : "/libnativehelper/include_jni/jni.h"
  },
  {
   "alignment" : 4,
   "linker_set_key" : "signed char (_JNIEnv *, _jobject *, _jmethodID *, std::__va_list)",
   "name" : "signed char (_JNIEnv *, _jobject *, _jmethodID *, std::__va_list)",
   "parameters" :
   [
    {
     "referenced_type" : "type-4"
    },
    {
     "referenced_type" : "type-22"
    },
    {
     "referenced_type" : "type-30"
    },
    {
     "referenced_type" : "type-105"
    }
   ],
   "referenced_type" : "type-104",
   "return_type" : "type-25",
   "self_type" : "type-104",
   "source_file" : "/libnativehelper/include_jni/jni.h"
  },
  {
   "alignment" : 4,
   "linker_set_key" : "signed char *(_JNIEnv *, _jbyteArray *, unsigned char *)",
   "name" : "signed char *(_JNIEnv *, _jbyteArray *, unsigned char *)",
   "parameters" :
   [
    {
     "referenced_type" : "type-4"
    },
    {
     "referenced_type" : "type-401"
    },
    {
     "referenced_type" : "type-374"
    }
   ],
   "referenced_type" : "type-430",
   "return_type" : "type-431",
   "self_type" : "type-430",
   "source_file" : "/libnativehelper/include_jni/jni.h"
  },
  {
   "alignment" : 4,
   "linker_set_key" : "unsigned char (_JNIEnv *)",
   "name" : "unsigned char (_JNIEnv *)",
   "parameters" :
   [
    {
     "referenced_type" : "type-4"
    }
   ],
   "referenced_type" : "type-545",
   "return_type" : "type-38",
   "self_type" : "type-545",
   "source_file" : "/libnativehelper/include_jni/jni.h"
  },
  {
   "alignment" : 4,
   "linker_set_key" : "unsigned char (_JNIEnv *, _jclass *, _jclass *)",
   "name" : "unsigned char (_JNIEnv *, _jclass *, _jclass *)",
   "parameters" :
   [
    {
     "referenced_type" : "type-4"
    },
    {
     "referenced_type" : "type-16"
    },
    {
     "referenced_type" : "type-16"
    }
   ],
   "referenced_type" : "type-42",
   "return_type" : "type-38",
   "self_type" : "type-42",
   "source_file" : "/libnativehelper/include_jni/jni.h"
  },
  {
   "alignment" : 4,
   "linker_set_key" : "unsigned char (_JNIEnv *, _jclass *, _jfieldID *)",
   "name" : "unsigned char (_JNIEnv *, _jclass *, _jfieldID *)",
   "parameters" :
   [
    {
     "referenced_type" : "type-4"
    },
    {
     "referenced_type" : "type-16"
    },
    {
     "referenced_type" : "type-34"
    }
   ],
   "referenced_type" : "type-331",
   "return_type" : "type-38",
   "self_type" : "type-331",
   "source_file" : "/libnativehelper/include_jni/jni.h"
  },
  {
   "alignment" : 4,
   "linker_set_key" : "unsigned char (_JNIEnv *, _jclass *, _jmethodID *, ...)",
   "name" : "unsigned char (_JNIEnv *, _jclass *, _jmethodID *, ...)",
   "parameters" :
   [
    {
     "referenced_type" : "type-4"
    },
    {
     "referenced_type" : "type-16"
    },
    {
     "referenced_type" : "type-30"
    }
   ],
   "referenced_type" : "type-266",
   "return_type" : "type-38",
   "self_type" : "type-266",
   "source_file" : "/libnativehelper/include_jni/jni.h"
  },
  {
   "alignment" : 4,
   "linker_set_key" : "unsigned char (_JNIEnv *, _jclass *, _jmethodID *, const jvalue *)",
   "name" : "unsigned char (_JNIEnv *, _jclass *, _jmethodID *, const jvalue *)",
   "parameters" :
   [
    {
     "referenced_type" : "type-4"
    },
    {
     "referenced_type" : "type-16"
    },
    {
     "referenced_type" : "type-30"
    },
    {
     "referenced_type" : "type-74"
    }
   ],
   "referenced_type" : "type-271",
   "return_type" : "type-38",
   "self_type" : "type-271",
   "source_file" : "/libnativehelper/include_jni/jni.h"
  },
  {
   "alignment" : 4,
   "linker_set_key" : "unsigned char (_JNIEnv *, _jclass *, _jmethodID *, std::__va_list)",
   "name" : "unsigned char (_JNIEnv *, _jclass *, _jmethodID *, std::__va_list)",
   "parameters" :
   [
    {
     "referenced_type" : "type-4"
    },
    {
     "referenced_type" : "type-16"
    },
    {
     "referenced_type" : "type-30"
    },
    {
     "referenced_type" : "type-269"
    }
   ],
   "referenced_type" : "type-268",
   "return_type" : "type-38",
   "self_type" : "type-268",
   "source_file" : "/libnativehelper/include_jni/jni.h"
  },
  {
   "alignment" : 4,
   "linker_set_key" : "unsigned char (_JNIEnv *, _jobject *, _jclass *)",
   "name" : "unsigned char (_JNIEnv *, _jobject *, _jclass *)",
   "parameters" :
   [
    {
     "referenced_type" : "type-4"
    },
    {
     "referenced_type" : "type-22"
    },
    {
     "referenced_type" : "type-16"
    }
   ],
   "referenced_type" : "type-84",
   "return_type" : "type-38",
   "self_type" : "type-84",
   "source_file" : "/libnativehelper/include_jni/jni.h"
  },
  {
   "alignment" : 4,
   "linker_set_key" : "unsigned char (_JNIEnv *, _jobject *, _jclass *, _jmethodID *, ...)",
   "name" : "unsigned char (_JNIEnv *, _jobject *, _jclass *, _jmethodID *, ...)",
   "parameters" :
   [
    {
     "referenced_type" : "type-4"
    },
    {
     "referenced_type" : "type-22"
    },
    {
     "referenced_type" : "type-16"
    },
    {
     "referenced_type" : "type-30"
    }
   ],
   "referenced_type" : "type-165",
   "return_type" : "type-38",
   "self_type" : "type-165",
   "source_file" : "/libnativehelper/include_jni/jni.h"
  },
  {
   "alignment" : 4,
   "linker_set_key" : "unsigned char (_JNIEnv *, _jobject *, _jclass *, _jmethodID *, const jvalue *)",
   "name" : "unsigned char (_JNIEnv *, _jobject *, _jclass *, _jmethodID *, const jvalue *)",
   "parameters" :
   [
    {
     "referenced_type" : "type-4"
    },
    {
     "referenced_type" : "type-22"
    },
    {
     "referenced_type" : "type-16"
    },
    {
     "referenced_type" : "type-30"
    },
    {
     "referenced_type" : "type-74"
    }
   ],
   "referenced_type" : "type-170",
   "return_type" : "type-38",
   "self_type" : "type-170",
   "source_file" : "/libnativehelper/include_jni/jni.h"
  },
  {
   "alignment" : 4,
   "linker_set_key" : "unsigned char (_JNIEnv *, _jobject *, _jclass *, _jmethodID *, std::__va_list)",
   "name" : "unsigned char (_JNIEnv *, _jobject *, _jclass *, _jmethodID *, std::__va_list)",
   "parameters" :
   [
    {
     "referenced_type" : "type-4"
    },
    {
     "referenced_type" : "type-22"
    },
    {
     "referenced_type" : "type-16"
    },
    {
     "referenced_type" : "type-30"
    },
    {
     "referenced_type" : "type-168"
    }
   ],
   "referenced_type" : "type-167",
   "return_type" : "type-38",
   "self_type" : "type-167",
   "source_file" : "/libnativehelper/include_jni/jni.h"
  },
  {
   "alignment" : 4,
   "linker_set_key" : "unsigned char (_JNIEnv *, _jobject *, _jfieldID *)",
   "name" : "unsigned char (_JNIEnv *, _jobject *, _jfieldID *)",
   "parameters" :
   [
    {
     "referenced_type" : "type-4"
    },
    {
     "referenced_type" : "type-22"
    },
    {
     "referenced_type" : "type-34"
    }
   ],
   "referenced_type" : "type-232",
   "return_type" : "type-38",
   "self_type" : "type-232",
   "source_file" : "/libnativehelper/include_jni/jni.h"
  },
  {
   "alignment" : 4,
   "linker_set_key" : "unsigned char (_JNIEnv *, _jobject *, _jmethodID *, ...)",
   "name" : "unsigned char (_JNIEnv *, _jobject *, _jmethodID *, ...)",
   "parameters" :
   [
    {
     "referenced_type" : "type-4"
    },
    {
     "referenced_type" : "type-22"
    },
    {
     "referenced_type" : "type-30"
    }
   ],
   "referenced_type" : "type-95",
   "return_type" : "type-38",
   "self_type" : "type-95",
   "source_file" : "/libnativehelper/include_jni/jni.h"
  },
  {
   "alignment" : 4,
   "linker_set_key" : "unsigned char (_JNIEnv *, _jobject *, _jmethodID *, const jvalue *)",
   "name" : "unsigned char (_JNIEnv *, _jobject *, _jmethodID *, const jvalue *)",
   "parameters" :
   [
    {
     "referenced_type" : "type-4"
    },
    {
     "referenced_type" : "type-22"
    },
    {
     "referenced_type" : "type-30"
    },
    {
     "referenced_type" : "type-74"
    }
   ],
   "referenced_type" : "type-100",
   "return_type" : "type-38",
   "self_type" : "type-100",
   "source_file" : "/libnativehelper/include_jni/jni.h"
  },
  {
   "alignment" : 4,
   "linker_set_key" : "unsigned char (_JNIEnv *, _jobject *, _jmethodID *, std::__va_list)",
   "name" : "unsigned char (_JNIEnv *, _jobject *, _jmethodID *, std::__va_list)",
   "parameters" :
   [
    {
     "referenced_type" : "type-4"
    },
    {
     "referenced_type" : "type-22"
    },
    {
     "referenced_type" : "type-30"
    },
    {
     "referenced_type" : "type-98"
    }
   ],
   "referenced_type" : "type-97",
   "return_type" : "type-38",
   "self_type" : "type-97",
   "source_file" : "/libnativehelper/include_jni/jni.h"
  },
  {
   "alignment" : 4,
   "linker_set_key" : "unsigned char (_JNIEnv *, _jobject *, _jobject *)",
   "name" : "unsigned char (_JNIEnv *, _jobject *, _jobject *)",
   "parameters" :
   [
    {
     "referenced_type" : "type-4"
    },
    {
     "referenced_type" : "type-22"
    },
    {
     "referenced_type" : "type-22"
    }
   ],
   "referenced_type" : "type-64",
   "return_type" : "type-38",
   "self_type" : "type-64",
   "source_file" : "/libnativehelper/include_jni/jni.h"
  },
  {
   "alignment" : 4,
   "linker_set_key" : "unsigned char *(_JNIEnv *, _jbooleanArray *, unsigned char *)",
   "name" : "unsigned char *(_JNIEnv *, _jbooleanArray *, unsigned char *)",
   "parameters" :
   [
    {
     "referenced_type" : "type-4"
    },
    {
     "referenced_type" : "type-397"
    },
    {
     "referenced_type" : "type-374"
    }
   ],
   "referenced_type" : "type-428",
   "return_type" : "type-374",
   "self_type" : "type-428",
   "source_file" : "/libnativehelper/include_jni/jni.h"
  },
  {
   "alignment" : 4,
   "linker_set_key" : "unsigned short (_JNIEnv *, _jclass *, _jfieldID *)",
   "name" : "unsigned short (_JNIEnv *, _jclass *, _jfieldID *)",
   "parameters" :
   [
    {
     "referenced_type" : "type-4"
    },
    {
     "referenced_type" : "type-16"
    },
    {
     "referenced_type" : "type-34"
    }
   ],
   "referenced_type" : "type-335",
   "return_type" : "type-77",
   "self_type" : "type-335",
   "source_file" : "/libnativehelper/include_jni/jni.h"
  },
  {
   "alignment" : 4,
   "linker_set_key" : "unsigned short (_JNIEnv *, _jclass *, _jmethodID *, ...)",
   "name" : "unsigned short (_JNIEnv *, _jclass *, _jmethodID *, ...)",
   "parameters" :
   [
    {
     "referenced_type" : "type-4"
    },
    {
     "referenced_type" : "type-16"
    },
    {
     "referenced_type" : "type-30"
    }
   ],
   "referenced_type" : "type-280",
   "return_type" : "type-77",
   "self_type" : "type-280",
   "source_file" : "/libnativehelper/include_jni/jni.h"
  },
  {
   "alignment" : 4,
   "linker_set_key" : "unsigned short (_JNIEnv *, _jclass *, _jmethodID *, const jvalue *)",
   "name" : "unsigned short (_JNIEnv *, _jclass *, _jmethodID *, const jvalue *)",
   "parameters" :
   [
    {
     "referenced_type" : "type-4"
    },
    {
     "referenced_type" : "type-16"
    },
    {
     "referenced_type" : "type-30"
    },
    {
     "referenced_type" : "type-74"
    }
   ],
   "referenced_type" : "type-285",
   "return_type" : "type-77",
   "self_type" : "type-285",
   "source_file" : "/libnativehelper/include_jni/jni.h"
  },
  {
   "alignment" : 4,
   "linker_set_key" : "unsigned short (_JNIEnv *, _jclass *, _jmethodID *, std::__va_list)",
   "name" : "unsigned short (_JNIEnv *, _jclass *, _jmethodID *, std::__va_list)",
   "parameters" :
   [
    {
     "referenced_type" : "type-4"
    },
    {
     "referenced_type" : "type-16"
    },
    {
     "referenced_type" : "type-30"
    },
    {
     "referenced_type" : "type-283"
    }
   ],
   "referenced_type" : "type-282",
   "return_type" : "type-77",
   "self_type" : "type-282",
   "source_file" : "/libnativehelper/include_jni/jni.h"
  },
  {
   "alignment" : 4,
   "linker_set_key" : "unsigned short (_JNIEnv *, _jobject *, _jclass *, _jmethodID *, ...)",
   "name" : "unsigned short (_JNIEnv *, _jobject *, _jclass *, _jmethodID *, ...)",
   "parameters" :
   [
    {
     "referenced_type" : "type-4"
    },
    {
     "referenced_type" : "type-22"
    },
    {
     "referenced_type" : "type-16"
    },
    {
     "referenced_type" : "type-30"
    }
   ],
   "referenced_type" : "type-179",
   "return_type" : "type-77",
   "self_type" : "type-179",
   "source_file" : "/libnativehelper/include_jni/jni.h"
  },
  {
   "alignment" : 4,
   "linker_set_key" : "unsigned short (_JNIEnv *, _jobject *, _jclass *, _jmethodID *, const jvalue *)",
   "name" : "unsigned short (_JNIEnv *, _jobject *, _jclass *, _jmethodID *, const jvalue *)",
   "parameters" :
   [
    {
     "referenced_type" : "type-4"
    },
    {
     "referenced_type" : "type-22"
    },
    {
     "referenced_type" : "type-16"
    },
    {
     "referenced_type" : "type-30"
    },
    {
     "referenced_type" : "type-74"
    }
   ],
   "referenced_type" : "type-184",
   "return_type" : "type-77",
   "self_type" : "type-184",
   "source_file" : "/libnativehelper/include_jni/jni.h"
  },
  {
   "alignment" : 4,
   "linker_set_key" : "unsigned short (_JNIEnv *, _jobject *, _jclass *, _jmethodID *, std::__va_list)",
   "name" : "unsigned short (_JNIEnv *, _jobject *, _jclass *, _jmethodID *, std::__va_list)",
   "parameters" :
   [
    {
     "referenced_type" : "type-4"
    },
    {
     "referenced_type" : "type-22"
    },
    {
     "referenced_type" : "type-16"
    },
    {
     "referenced_type" : "type-30"
    },
    {
     "referenced_type" : "type-182"
    }
   ],
   "referenced_type" : "type-181",
   "return_type" : "type-77",
   "self_type" : "type-181",
   "source_file" : "/libnativehelper/include_jni/jni.h"
  },
  {
   "alignment" : 4,
   "linker_set_key" : "unsigned short (_JNIEnv *, _jobject *, _jfieldID *)",
   "name" : "unsigned short (_JNIEnv *, _jobject *, _jfieldID *)",
   "parameters" :
   [
    {
     "referenced_type" : "type-4"
    },
    {
     "referenced_type" : "type-22"
    },
    {
     "referenced_type" : "type-34"
    }
   ],
   "referenced_type" : "type-236",
   "return_type" : "type-77",
   "self_type" : "type-236",
   "source_file" : "/libnativehelper/include_jni/jni.h"
  },
  {
   "alignment" : 4,
   "linker_set_key" : "unsigned short (_JNIEnv *, _jobject *, _jmethodID *, ...)",
   "name" : "unsigned short (_JNIEnv *, _jobject *, _jmethodID *, ...)",
   "parameters" :
   [
    {
     "referenced_type" : "type-4"
    },
    {
     "referenced_type" : "type-22"
    },
    {
     "referenced_type" : "type-30"
    }
   ],
   "referenced_type" : "type-109",
   "return_type" : "type-77",
   "self_type" : "type-109",
   "source_file" : "/libnativehelper/include_jni/jni.h"
  },
  {
   "alignment" : 4,
   "linker_set_key" : "unsigned short (_JNIEnv *, _jobject *, _jmethodID *, const jvalue *)",
   "name" : "unsigned short (_JNIEnv *, _jobject *, _jmethodID *, const jvalue *)",
   "parameters" :
   [
    {
     "referenced_type" : "type-4"
    },
    {
     "referenced_type" : "type-22"
    },
    {
     "referenced_type" : "type-30"
    },
    {
     "referenced_type" : "type-74"
    }
   ],
   "referenced_type" : "type-114",
   "return_type" : "type-77",
   "self_type" : "type-114",
   "source_file" : "/libnativehelper/include_jni/jni.h"
  },
  {
   "alignment" : 4,
   "linker_set_key" : "unsigned short (_JNIEnv *, _jobject *, _jmethodID *, std::__va_list)",
   "name" : "unsigned short (_JNIEnv *, _jobject *, _jmethodID *, std::__va_list)",
   "parameters" :
   [
    {
     "referenced_type" : "type-4"
    },
    {
     "referenced_type" : "type-22"
    },
    {
     "referenced_type" : "type-30"
    },
    {
     "referenced_type" : "type-112"
    }
   ],
   "referenced_type" : "type-111",
   "return_type" : "type-77",
   "self_type" : "type-111",
   "source_file" : "/libnativehelper/include_jni/jni.h"
  },
  {
   "alignment" : 4,
   "linker_set_key" : "unsigned short *(_JNIEnv *, _jcharArray *, unsigned char *)",
   "name" : "unsigned short *(_JNIEnv *, _jcharArray *, unsigned char *)",
   "parameters" :
   [
    {
     "referenced_type" : "type-4"
    },
    {
     "referenced_type" : "type-405"
    },
    {
     "referenced_type" : "type-374"
    }
   ],
   "referenced_type" : "type-433",
   "return_type" : "type-434",
   "self_type" : "type-433",
   "source_file" : "/libnativehelper/include_jni/jni.h"
  },
  {
   "alignment" : 4,
   "linker_set_key" : "void ()",
   "name" : "void ()",
   "referenced_type" : "type-1539",
   "return_type" : "type-10",
   "self_type" : "type-1539",
   "source_file" : "/bionic/libc/kernel/uapi/asm-arm/asm/signal.h"
  },
  {
   "alignment" : 4,
   "linker_set_key" : "void (_JNIEnv *)",
   "name" : "void (_JNIEnv *)",
   "parameters" :
   [
    {
     "referenced_type" : "type-4"
    }
   ],
   "referenced_type" : "type-54",
   "return_type" : "type-10",
   "self_type" : "type-54",
   "source_file" : "/libnativehelper/include_jni/jni.h"
  },
  {
   "alignment" : 4,
   "linker_set_key" : "void (_JNIEnv *, _jarray *, void *, int)",
   "name" : "void (_JNIEnv *, _jarray *, void *, int)",
   "parameters" :
   [
    {
     "referenced_type" : "type-4"
    },
    {
     "referenced_type" : "type-385"
    },
    {
     "referenced_type" : "type-9"
    },
    {
     "referenced_type" : "type-13"
    }
   ],
   "referenced_type" : "type-543",
   "return_type" : "type-10",
   "self_type" : "type-543",
   "source_file" : "/libnativehelper/include_jni/jni.h"
  },
  {
   "alignment" : 4,
   "linker_set_key" : "void (_JNIEnv *, _jbooleanArray *, int, int, const unsigned char *)",
   "name" : "void (_JNIEnv *, _jbooleanArray *, int, int, const unsigned char *)",
   "parameters" :
   [
    {
     "referenced_type" : "type-4"
    },
    {
     "referenced_type" : "type-397"
    },
    {
     "referenced_type" : "type-13"
    },
    {
     "referenced_type" : "type-13"
    },
    {
     "referenced_type" : "type-484"
    }
   ],
   "referenced_type" : "type-483",
   "return_type" : "type-10",
   "self_type" : "type-483",
   "source_file" : "/libnativehelper/include_jni/jni.h"
  },
  {
   "alignment" : 4,
   "linker_set_key" : "void (_JNIEnv *, _jbooleanArray *, int, int, unsigned char *)",
   "name" : "void (_JNIEnv *, _jbooleanArray *, int, int, unsigned char *)",
   "parameters" :
   [
    {
     "referenced_type" : "type-4"
    },
    {
     "referenced_type" : "type-397"
    },
    {
     "referenced_type" : "type-13"
    },
    {
     "referenced_type" : "type-13"
    },
    {
     "referenced_type" : "type-374"
    }
   ],
   "referenced_type" : "type-467",
   "return_type" : "type-10",
   "self_type" : "type-467",
   "source_file" : "/libnativehelper/include_jni/jni.h"
  },
  {
   "alignment" : 4,
   "linker_set_key" : "void (_JNIEnv *, _jbooleanArray *, unsigned char *, int)",
   "name" : "void (_JNIEnv *, _jbooleanArray *, unsigned char *, int)",
   "parameters" :
   [
    {
     "referenced_type" : "type-4"
    },
    {
     "referenced_type" : "type-397"
    },
    {
     "referenced_type" : "type-374"
    },
    {
     "referenced_type" : "type-13"
    }
   ],
   "referenced_type" : "type-451",
   "return_type" : "type-10",
   "self_type" : "type-451",
   "source_file" : "/libnativehelper/include_jni/jni.h"
  },
  {
   "alignment" : 4,
   "linker_set_key" : "void (_JNIEnv *, _jbyteArray *, int, int, const signed char *)",
   "name" : "void (_JNIEnv *, _jbyteArray *, int, int, const signed char *)",
   "parameters" :
   [
    {
     "referenced_type" : "type-4"
    },
    {
     "referenced_type" : "type-401"
    },
    {
     "referenced_type" : "type-13"
    },
    {
     "referenced_type" : "type-13"
    },
    {
     "referenced_type" : "type-23"
    }
   ],
   "referenced_type" : "type-487",
   "return_type" : "type-10",
   "self_type" : "type-487",
   "source_file" : "/libnativehelper/include_jni/jni.h"
  },
  {
   "alignment" : 4,
   "linker_set_key" : "void (_JNIEnv *, _jbyteArray *, int, int, signed char *)",
   "name" : "void (_JNIEnv *, _jbyteArray *, int, int, signed char *)",
   "parameters" :
   [
    {
     "referenced_type" : "type-4"
    },
    {
     "referenced_type" : "type-401"
    },
    {
     "referenced_type" : "type-13"
    },
    {
     "referenced_type" : "type-13"
    },
    {
     "referenced_type" : "type-431"
    }
   ],
   "referenced_type" : "type-469",
   "return_type" : "type-10",
   "self_type" : "type-469",
   "source_file" : "/libnativehelper/include_jni/jni.h"
  },
  {
   "alignment" : 4,
   "linker_set_key" : "void (_JNIEnv *, _jbyteArray *, signed char *, int)",
   "name" : "void (_JNIEnv *, _jbyteArray *, signed char *, int)",
   "parameters" :
   [
    {
     "referenced_type" : "type-4"
    },
    {
     "referenced_type" : "type-401"
    },
    {
     "referenced_type" : "type-431"
    },
    {
     "referenced_type" : "type-13"
    }
   ],
   "referenced_type" : "type-453",
   "return_type" : "type-10",
   "self_type" : "type-453",
   "source_file" : "/libnativehelper/include_jni/jni.h"
  },
  {
   "alignment" : 4,
   "linker_set_key" : "void (_JNIEnv *, _jcharArray *, int, int, const unsigned short *)",
   "name" : "void (_JNIEnv *, _jcharArray *, int, int, const unsigned short *)",
   "parameters" :
   [
    {
     "referenced_type" : "type-4"
    },
    {
     "referenced_type" : "type-405"
    },
    {
     "referenced_type" : "type-13"
    },
    {
     "referenced_type" : "type-13"
    },
    {
     "referenced_type" : "type-368"
    }
   ],
   "referenced_type" : "type-489",
   "return_type" : "type-10",
   "self_type" : "type-489",
   "source_file" : "/libnativehelper/include_jni/jni.h"
  },
  {
   "alignment" : 4,
   "linker_set_key" : "void (_JNIEnv *, _jcharArray *, int, int, unsigned short *)",
   "name" : "void (_JNIEnv *, _jcharArray *, int, int, unsigned short *)",
   "parameters" :
   [
    {
     "referenced_type" : "type-4"
    },
    {
     "referenced_type" : "type-405"
    },
    {
     "referenced_type" : "type-13"
    },
    {
     "referenced_type" : "type-13"
    },
    {
     "referenced_type" : "type-434"
    }
   ],
   "referenced_type" : "type-471",
   "return_type" : "type-10",
   "self_type" : "type-471",
   "source_file" : "/libnativehelper/include_jni/jni.h"
  },
  {
   "alignment" : 4,
   "linker_set_key" : "void (_JNIEnv *, _jcharArray *, unsigned short *, int)",
   "name" : "void (_JNIEnv *, _jcharArray *, unsigned short *, int)",
   "parameters" :
   [
    {
     "referenced_type" : "type-4"
    },
    {
     "referenced_type" : "type-405"
    },
    {
     "referenced_type" : "type-434"
    },
    {
     "referenced_type" : "type-13"
    }
   ],
   "referenced_type" : "type-455",
   "return_type" : "type-10",
   "self_type" : "type-455",
   "source_file" : "/libnativehelper/include_jni/jni.h"
  },
  {
   "alignment" : 4,
   "linker_set_key" : "void (_JNIEnv *, _jclass *, _jfieldID *, _jobject *)",
   "name" : "void (_JNIEnv *, _jclass *, _jfieldID *, _jobject *)",
   "parameters" :
   [
    {
     "referenced_type" : "type-4"
    },
    {
     "referenced_type" : "type-16"
    },
    {
     "referenced_type" : "type-34"
    },
    {
     "referenced_type" : "type-22"
    }
   ],
   "referenced_type" : "type-347",
   "return_type" : "type-10",
   "self_type" : "type-347",
   "source_file" : "/libnativehelper/include_jni/jni.h"
  },
  {
   "alignment" : 4,
   "linker_set_key" : "void (_JNIEnv *, _jclass *, _jfieldID *, double)",
   "name" : "void (_JNIEnv *, _jclass *, _jfieldID *, double)",
   "parameters" :
   [
    {
     "referenced_type" : "type-4"
    },
    {
     "referenced_type" : "type-16"
    },
    {
     "referenced_type" : "type-34"
    },
    {
     "referenced_type" : "type-80"
    }
   ],
   "referenced_type" : "type-363",
   "return_type" : "type-10",
   "self_type" : "type-363",
   "source_file" : "/libnativehelper/include_jni/jni.h"
  },
  {
   "alignment" : 4,
   "linker_set_key" : "void (_JNIEnv *, _jclass *, _jfieldID *, float)",
   "name" : "void (_JNIEnv *, _jclass *, _jfieldID *, float)",
   "parameters" :
   [
    {
     "referenced_type" : "type-4"
    },
    {
     "referenced_type" : "type-16"
    },
    {
     "referenced_type" : "type-34"
    },
    {
     "referenced_type" : "type-79"
    }
   ],
   "referenced_type" : "type-361",
   "return_type" : "type-10",
   "self_type" : "type-361",
   "source_file" : "/libnativehelper/include_jni/jni.h"
  },
  {
   "alignment" : 4,
   "linker_set_key" : "void (_JNIEnv *, _jclass *, _jfieldID *, int)",
   "name" : "void (_JNIEnv *, _jclass *, _jfieldID *, int)",
   "parameters" :
   [
    {
     "referenced_type" : "type-4"
    },
    {
     "referenced_type" : "type-16"
    },
    {
     "referenced_type" : "type-34"
    },
    {
     "referenced_type" : "type-13"
    }
   ],
   "referenced_type" : "type-357",
   "return_type" : "type-10",
   "self_type" : "type-357",
   "source_file" : "/libnativehelper/include_jni/jni.h"
  },
  {
   "alignment" : 4,
   "linker_set_key" : "void (_JNIEnv *, _jclass *, _jfieldID *, long long)",
   "name" : "void (_JNIEnv *, _jclass *, _jfieldID *, long long)",
   "parameters" :
   [
    {
     "referenced_type" : "type-4"
    },
    {
     "referenced_type" : "type-16"
    },
    {
     "referenced_type" : "type-34"
    },
    {
     "referenced_type" : "type-2"
    }
   ],
   "referenced_type" : "type-359",
   "return_type" : "type-10",
   "self_type" : "type-359",
   "source_file" : "/libnativehelper/include_jni/jni.h"
  },
  {
   "alignment" : 4,
   "linker_set_key" : "void (_JNIEnv *, _jclass *, _jfieldID *, short)",
   "name" : "void (_JNIEnv *, _jclass *, _jfieldID *, short)",
   "parameters" :
   [
    {
     "referenced_type" : "type-4"
    },
    {
     "referenced_type" : "type-16"
    },
    {
     "referenced_type" : "type-34"
    },
    {
     "referenced_type" : "type-78"
    }
   ],
   "referenced_type" : "type-355",
   "return_type" : "type-10",
   "self_type" : "type-355",
   "source_file" : "/libnativehelper/include_jni/jni.h"
  },
  {
   "alignment" : 4,
   "linker_set_key" : "void (_JNIEnv *, _jclass *, _jfieldID *, signed char)",
   "name" : "void (_JNIEnv *, _jclass *, _jfieldID *, signed char)",
   "parameters" :
   [
    {
     "referenced_type" : "type-4"
    },
    {
     "referenced_type" : "type-16"
    },
    {
     "referenced_type" : "type-34"
    },
    {
     "referenced_type" : "type-25"
    }
   ],
   "referenced_type" : "type-351",
   "return_type" : "type-10",
   "self_type" : "type-351",
   "source_file" : "/libnativehelper/include_jni/jni.h"
  },
  {
   "alignment" : 4,
   "linker_set_key" : "void (_JNIEnv *, _jclass *, _jfieldID *, unsigned char)",
   "name" : "void (_JNIEnv *, _jclass *, _jfieldID *, unsigned char)",
   "parameters" :
   [
    {
     "referenced_type" : "type-4"
    },
    {
     "referenced_type" : "type-16"
    },
    {
     "referenced_type" : "type-34"
    },
    {
     "referenced_type" : "type-38"
    }
   ],
   "referenced_type" : "type-349",
   "return_type" : "type-10",
   "self_type" : "type-349",
   "source_file" : "/libnativehelper/include_jni/jni.h"
  },
  {
   "alignment" : 4,
   "linker_set_key" : "void (_JNIEnv *, _jclass *, _jfieldID *, unsigned short)",
   "name" : "void (_JNIEnv *, _jclass *, _jfieldID *, unsigned short)",
   "parameters" :
   [
    {
     "referenced_type" : "type-4"
    },
    {
     "referenced_type" : "type-16"
    },
    {
     "referenced_type" : "type-34"
    },
    {
     "referenced_type" : "type-77"
    }
   ],
   "referenced_type" : "type-353",
   "return_type" : "type-10",
   "self_type" : "type-353",
   "source_file" : "/libnativehelper/include_jni/jni.h"
  },
  {
   "alignment" : 4,
   "linker_set_key" : "void (_JNIEnv *, _jclass *, _jmethodID *, ...)",
   "name" : "void (_JNIEnv *, _jclass *, _jmethodID *, ...)",
   "parameters" :
   [
    {
     "referenced_type" : "type-4"
    },
    {
     "referenced_type" : "type-16"
    },
    {
     "referenced_type" : "type-30"
    }
   ],
   "referenced_type" : "type-322",
   "return_type" : "type-10",
   "self_type" : "type-322",
   "source_file" : "/libnativehelper/include_jni/jni.h"
  },
  {
   "alignment" : 4,
   "linker_set_key" : "void (_JNIEnv *, _jclass *, _jmethodID *, const jvalue *)",
   "name" : "void (_JNIEnv *, _jclass *, _jmethodID *, const jvalue *)",
   "parameters" :
   [
    {
     "referenced_type" : "type-4"
    },
    {
     "referenced_type" : "type-16"
    },
    {
     "referenced_type" : "type-30"
    },
    {
     "referenced_type" : "type-74"
    }
   ],
   "referenced_type" : "type-327",
   "return_type" : "type-10",
   "self_type" : "type-327",
   "source_file" : "/libnativehelper/include_jni/jni.h"
  },
  {
   "alignment" : 4,
   "linker_set_key" : "void (_JNIEnv *, _jclass *, _jmethodID *, std::__va_list)",
   "name" : "void (_JNIEnv *, _jclass *, _jmethodID *, std::__va_list)",
   "parameters" :
   [
    {
     "referenced_type" : "type-4"
    },
    {
     "referenced_type" : "type-16"
    },
    {
     "referenced_type" : "type-30"
    },
    {
     "referenced_type" : "type-325"
    }
   ],
   "referenced_type" : "type-324",
   "return_type" : "type-10",
   "self_type" : "type-324",
   "source_file" : "/libnativehelper/include_jni/jni.h"
  },
  {
   "alignment" : 4,
   "linker_set_key" : "void (_JNIEnv *, _jdoubleArray *, double *, int)",
   "name" : "void (_JNIEnv *, _jdoubleArray *, double *, int)",
   "parameters" :
   [
    {
     "referenced_type" : "type-4"
    },
    {
     "referenced_type" : "type-425"
    },
    {
     "referenced_type" : "type-449"
    },
    {
     "referenced_type" : "type-13"
    }
   ],
   "referenced_type" : "type-465",
   "return_type" : "type-10",
   "self_type" : "type-465",
   "source_file" : "/libnativehelper/include_jni/jni.h"
  },
  {
   "alignment" : 4,
   "linker_set_key" : "void (_JNIEnv *, _jdoubleArray *, int, int, const double *)",
   "name" : "void (_JNIEnv *, _jdoubleArray *, int, int, const double *)",
   "parameters" :
   [
    {
     "referenced_type" : "type-4"
    },
    {
     "referenced_type" : "type-425"
    },
    {
     "referenced_type" : "type-13"
    },
    {
     "referenced_type" : "type-13"
    },
    {
     "referenced_type" : "type-508"
    }
   ],
   "referenced_type" : "type-507",
   "return_type" : "type-10",
   "self_type" : "type-507",
   "source_file" : "/libnativehelper/include_jni/jni.h"
  },
  {
   "alignment" : 4,
   "linker_set_key" : "void (_JNIEnv *, _jdoubleArray *, int, int, double *)",
   "name" : "void (_JNIEnv *, _jdoubleArray *, int, int, double *)",
   "parameters" :
   [
    {
     "referenced_type" : "type-4"
    },
    {
     "referenced_type" : "type-425"
    },
    {
     "referenced_type" : "type-13"
    },
    {
     "referenced_type" : "type-13"
    },
    {
     "referenced_type" : "type-449"
    }
   ],
   "referenced_type" : "type-481",
   "return_type" : "type-10",
   "self_type" : "type-481",
   "source_file" : "/libnativehelper/include_jni/jni.h"
  },
  {
   "alignment" : 4,
   "linker_set_key" : "void (_JNIEnv *, _jfloatArray *, float *, int)",
   "name" : "void (_JNIEnv *, _jfloatArray *, float *, int)",
   "parameters" :
   [
    {
     "referenced_type" : "type-4"
    },
    {
     "referenced_type" : "type-421"
    },
    {
     "referenced_type" : "type-446"
    },
    {
     "referenced_type" : "type-13"
    }
   ],
   "referenced_type" : "type-463",
   "return_type" : "type-10",
   "self_type" : "type-463",
   "source_file" : "/libnativehelper/include_jni/jni.h"
  },
  {
   "alignment" : 4,
   "linker_set_key" : "void (_JNIEnv *, _jfloatArray *, int, int, const float *)",
   "name" : "void (_JNIEnv *, _jfloatArray *, int, int, const float *)",
   "parameters" :
   [
    {
     "referenced_type" : "type-4"
    },
    {
     "referenced_type" : "type-421"
    },
    {
     "referenced_type" : "type-13"
    },
    {
     "referenced_type" : "type-13"
    },
    {
     "referenced_type" : "type-504"
    }
   ],
   "referenced_type" : "type-503",
   "return_type" : "type-10",
   "self_type" : "type-503",
   "source_file" : "/libnativehelper/include_jni/jni.h"
  },
  {
   "alignment" : 4,
   "linker_set_key" : "void (_JNIEnv *, _jfloatArray *, int, int, float *)",
   "name" : "void (_JNIEnv *, _jfloatArray *, int, int, float *)",
   "parameters" :
   [
    {
     "referenced_type" : "type-4"
    },
    {
     "referenced_type" : "type-421"
    },
    {
     "referenced_type" : "type-13"
    },
    {
     "referenced_type" : "type-13"
    },
    {
     "referenced_type" : "type-446"
    }
   ],
   "referenced_type" : "type-479",
   "return_type" : "type-10",
   "self_type" : "type-479",
   "source_file" : "/libnativehelper/include_jni/jni.h"
  },
  {
   "alignment" : 4,
   "linker_set_key" : "void (_JNIEnv *, _jintArray *, int *, int)",
   "name" : "void (_JNIEnv *, _jintArray *, int *, int)",
   "parameters" :
   [
    {
     "referenced_type" : "type-4"
    },
    {
     "referenced_type" : "type-413"
    },
    {
     "referenced_type" : "type-440"
    },
    {
     "referenced_type" : "type-13"
    }
   ],
   "referenced_type" : "type-459",
   "return_type" : "type-10",
   "self_type" : "type-459",
   "source_file" : "/libnativehelper/include_jni/jni.h"
  },
  {
   "alignment" : 4,
   "linker_set_key" : "void (_JNIEnv *, _jintArray *, int, int, const int *)",
   "name" : "void (_JNIEnv *, _jintArray *, int, int, const int *)",
   "parameters" :
   [
    {
     "referenced_type" : "type-4"
    },
    {
     "referenced_type" : "type-413"
    },
    {
     "referenced_type" : "type-13"
    },
    {
     "referenced_type" : "type-13"
    },
    {
     "referenced_type" : "type-496"
    }
   ],
   "referenced_type" : "type-495",
   "return_type" : "type-10",
   "self_type" : "type-495",
   "source_file" : "/libnativehelper/include_jni/jni.h"
  },
  {
   "alignment" : 4,
   "linker_set_key" : "void (_JNIEnv *, _jintArray *, int, int, int *)",
   "name" : "void (_JNIEnv *, _jintArray *, int, int, int *)",
   "parameters" :
   [
    {
     "referenced_type" : "type-4"
    },
    {
     "referenced_type" : "type-413"
    },
    {
     "referenced_type" : "type-13"
    },
    {
     "referenced_type" : "type-13"
    },
    {
     "referenced_type" : "type-440"
    }
   ],
   "referenced_type" : "type-475",
   "return_type" : "type-10",
   "self_type" : "type-475",
   "source_file" : "/libnativehelper/include_jni/jni.h"
  },
  {
   "alignment" : 4,
   "linker_set_key" : "void (_JNIEnv *, _jlongArray *, int, int, const long long *)",
   "name" : "void (_JNIEnv *, _jlongArray *, int, int, const long long *)",
   "parameters" :
   [
    {
     "referenced_type" : "type-4"
    },
    {
     "referenced_type" : "type-417"
    },
    {
     "referenced_type" : "type-13"
    },
    {
     "referenced_type" : "type-13"
    },
    {
     "referenced_type" : "type-500"
    }
   ],
   "referenced_type" : "type-499",
   "return_type" : "type-10",
   "self_type" : "type-499",
   "source_file" : "/libnativehelper/include_jni/jni.h"
  },
  {
   "alignment" : 4,
   "linker_set_key" : "void (_JNIEnv *, _jlongArray *, int, int, long long *)",
   "name" : "void (_JNIEnv *, _jlongArray *, int, int, long long *)",
   "parameters" :
   [
    {
     "referenced_type" : "type-4"
    },
    {
     "referenced_type" : "type-417"
    },
    {
     "referenced_type" : "type-13"
    },
    {
     "referenced_type" : "type-13"
    },
    {
     "referenced_type" : "type-443"
    }
   ],
   "referenced_type" : "type-477",
   "return_type" : "type-10",
   "self_type" : "type-477",
   "source_file" : "/libnativehelper/include_jni/jni.h"
  },
  {
   "alignment" : 4,
   "linker_set_key" : "void (_JNIEnv *, _jlongArray *, long long *, int)",
   "name" : "void (_JNIEnv *, _jlongArray *, long long *, int)",
   "parameters" :
   [
    {
     "referenced_type" : "type-4"
    },
    {
     "referenced_type" : "type-417"
    },
    {
     "referenced_type" : "type-443"
    },
    {
     "referenced_type" : "type-13"
    }
   ],
   "referenced_type" : "type-461",
   "return_type" : "type-10",
   "self_type" : "type-461",
   "source_file" : "/libnativehelper/include_jni/jni.h"
  },
  {
   "alignment" : 4,
   "linker_set_key" : "void (_JNIEnv *, _jobject *)",
   "name" : "void (_JNIEnv *, _jobject *)",
   "parameters" :
   [
    {
     "referenced_type" : "type-4"
    },
    {
     "referenced_type" : "type-22"
    }
   ],
   "referenced_type" : "type-62",
   "return_type" : "type-10",
   "self_type" : "type-62",
   "source_file" : "/libnativehelper/include_jni/jni.h"
  },
  {
   "alignment" : 4,
   "linker_set_key" : "void (_JNIEnv *, _jobject *, _jclass *, _jmethodID *, ...)",
   "name" : "void (_JNIEnv *, _jobject *, _jclass *, _jmethodID *, ...)",
   "parameters" :
   [
    {
     "referenced_type" : "type-4"
    },
    {
     "referenced_type" : "type-22"
    },
    {
     "referenced_type" : "type-16"
    },
    {
     "referenced_type" : "type-30"
    }
   ],
   "referenced_type" : "type-221",
   "return_type" : "type-10",
   "self_type" : "type-221",
   "source_file" : "/libnativehelper/include_jni/jni.h"
  },
  {
   "alignment" : 4,
   "linker_set_key" : "void (_JNIEnv *, _jobject *, _jclass *, _jmethodID *, const jvalue *)",
   "name" : "void (_JNIEnv *, _jobject *, _jclass *, _jmethodID *, const jvalue *)",
   "parameters" :
   [
    {
     "referenced_type" : "type-4"
    },
    {
     "referenced_type" : "type-22"
    },
    {
     "referenced_type" : "type-16"
    },
    {
     "referenced_type" : "type-30"
    },
    {
     "referenced_type" : "type-74"
    }
   ],
   "referenced_type" : "type-226",
   "return_type" : "type-10",
   "self_type" : "type-226",
   "source_file" : "/libnativehelper/include_jni/jni.h"
  },
  {
   "alignment" : 4,
   "linker_set_key" : "void (_JNIEnv *, _jobject *, _jclass *, _jmethodID *, std::__va_list)",
   "name" : "void (_JNIEnv *, _jobject *, _jclass *, _jmethodID *, std::__va_list)",
   "parameters" :
   [
    {
     "referenced_type" : "type-4"
    },
    {
     "referenced_type" : "type-22"
    },
    {
     "referenced_type" : "type-16"
    },
    {
     "referenced_type" : "type-30"
    },
    {
     "referenced_type" : "type-224"
    }
   ],
   "referenced_type" : "type-223",
   "return_type" : "type-10",
   "self_type" : "type-223",
   "source_file" : "/libnativehelper/include_jni/jni.h"
  },
  {
   "alignment" : 4,
   "linker_set_key" : "void (_JNIEnv *, _jobject *, _jfieldID *, _jobject *)",
   "name" : "void (_JNIEnv *, _jobject *, _jfieldID *, _jobject *)",
   "parameters" :
   [
    {
     "referenced_type" : "type-4"
    },
    {
     "referenced_type" : "type-22"
    },
    {
     "referenced_type" : "type-34"
    },
    {
     "referenced_type" : "type-22"
    }
   ],
   "referenced_type" : "type-248",
   "return_type" : "type-10",
   "self_type" : "type-248",
   "source_file" : "/libnativehelper/include_jni/jni.h"
  },
  {
   "alignment" : 4,
   "linker_set_key" : "void (_JNIEnv *, _jobject *, _jfieldID *, double)",
   "name" : "void (_JNIEnv *, _jobject *, _jfieldID *, double)",
   "parameters" :
   [
    {
     "referenced_type" : "type-4"
    },
    {
     "referenced_type" : "type-22"
    },
    {
     "referenced_type" : "type-34"
    },
    {
     "referenced_type" : "type-80"
    }
   ],
   "referenced_type" : "type-264",
   "return_type" : "type-10",
   "self_type" : "type-264",
   "source_file" : "/libnativehelper/include_jni/jni.h"
  },
  {
   "alignment" : 4,
   "linker_set_key" : "void (_JNIEnv *, _jobject *, _jfieldID *, float)",
   "name" : "void (_JNIEnv *, _jobject *, _jfieldID *, float)",
   "parameters" :
   [
    {
     "referenced_type" : "type-4"
    },
    {
     "referenced_type" : "type-22"
    },
    {
     "referenced_type" : "type-34"
    },
    {
     "referenced_type" : "type-79"
    }
   ],
   "referenced_type" : "type-262",
   "return_type" : "type-10",
   "self_type" : "type-262",
   "source_file" : "/libnativehelper/include_jni/jni.h"
  },
  {
   "alignment" : 4,
   "linker_set_key" : "void (_JNIEnv *, _jobject *, _jfieldID *, int)",
   "name" : "void (_JNIEnv *, _jobject *, _jfieldID *, int)",
   "parameters" :
   [
    {
     "referenced_type" : "type-4"
    },
    {
     "referenced_type" : "type-22"
    },
    {
     "referenced_type" : "type-34"
    },
    {
     "referenced_type" : "type-13"
    }
   ],
   "referenced_type" : "type-258",
   "return_type" : "type-10",
   "self_type" : "type-258",
   "source_file" : "/libnativehelper/include_jni/jni.h"
  },
  {
   "alignment" : 4,
   "linker_set_key" : "void (_JNIEnv *, _jobject *, _jfieldID *, long long)",
   "name" : "void (_JNIEnv *, _jobject *, _jfieldID *, long long)",
   "parameters" :
   [
    {
     "referenced_type" : "type-4"
    },
    {
     "referenced_type" : "type-22"
    },
    {
     "referenced_type" : "type-34"
    },
    {
     "referenced_type" : "type-2"
    }
   ],
   "referenced_type" : "type-260",
   "return_type" : "type-10",
   "self_type" : "type-260",
   "source_file" : "/libnativehelper/include_jni/jni.h"
  },
  {
   "alignment" : 4,
   "linker_set_key" : "void (_JNIEnv *, _jobject *, _jfieldID *, short)",
   "name" : "void (_JNIEnv *, _jobject *, _jfieldID *, short)",
   "parameters" :
   [
    {
     "referenced_type" : "type-4"
    },
    {
     "referenced_type" : "type-22"
    },
    {
     "referenced_type" : "type-34"
    },
    {
     "referenced_type" : "type-78"
    }
   ],
   "referenced_type" : "type-256",
   "return_type" : "type-10",
   "self_type" : "type-256",
   "source_file" : "/libnativehelper/include_jni/jni.h"
  },
  {
   "alignment" : 4,
   "linker_set_key" : "void (_JNIEnv *, _jobject *, _jfieldID *, signed char)",
   "name" : "void (_JNIEnv *, _jobject *, _jfieldID *, signed char)",
   "parameters" :
   [
    {
     "referenced_type" : "type-4"
    },
    {
     "referenced_type" : "type-22"
    },
    {
     "referenced_type" : "type-34"
    },
    {
     "referenced_type" : "type-25"
    }
   ],
   "referenced_type" : "type-252",
   "return_type" : "type-10",
   "self_type" : "type-252",
   "source_file" : "/libnativehelper/include_jni/jni.h"
  },
  {
   "alignment" : 4,
   "linker_set_key" : "void (_JNIEnv *, _jobject *, _jfieldID *, unsigned char)",
   "name" : "void (_JNIEnv *, _jobject *, _jfieldID *, unsigned char)",
   "parameters" :
   [
    {
     "referenced_type" : "type-4"
    },
    {
     "referenced_type" : "type-22"
    },
    {
     "referenced_type" : "type-34"
    },
    {
     "referenced_type" : "type-38"
    }
   ],
   "referenced_type" : "type-250",
   "return_type" : "type-10",
   "self_type" : "type-250",
   "source_file" : "/libnativehelper/include_jni/jni.h"
  },
  {
   "alignment" : 4,
   "linker_set_key" : "void (_JNIEnv *, _jobject *, _jfieldID *, unsigned short)",
   "name" : "void (_JNIEnv *, _jobject *, _jfieldID *, unsigned short)",
   "parameters" :
   [
    {
     "referenced_type" : "type-4"
    },
    {
     "referenced_type" : "type-22"
    },
    {
     "referenced_type" : "type-34"
    },
    {
     "referenced_type" : "type-77"
    }
   ],
   "referenced_type" : "type-254",
   "return_type" : "type-10",
   "self_type" : "type-254",
   "source_file" : "/libnativehelper/include_jni/jni.h"
  },
  {
   "alignment" : 4,
   "linker_set_key" : "void (_JNIEnv *, _jobject *, _jmethodID *, ...)",
   "name" : "void (_JNIEnv *, _jobject *, _jmethodID *, ...)",
   "parameters" :
   [
    {
     "referenced_type" : "type-4"
    },
    {
     "referenced_type" : "type-22"
    },
    {
     "referenced_type" : "type-30"
    }
   ],
   "referenced_type" : "type-151",
   "return_type" : "type-10",
   "self_type" : "type-151",
   "source_file" : "/libnativehelper/include_jni/jni.h"
  },
  {
   "alignment" : 4,
   "linker_set_key" : "void (_JNIEnv *, _jobject *, _jmethodID *, const jvalue *)",
   "name" : "void (_JNIEnv *, _jobject *, _jmethodID *, const jvalue *)",
   "parameters" :
   [
    {
     "referenced_type" : "type-4"
    },
    {
     "referenced_type" : "type-22"
    },
    {
     "referenced_type" : "type-30"
    },
    {
     "referenced_type" : "type-74"
    }
   ],
   "referenced_type" : "type-156",
   "return_type" : "type-10",
   "self_type" : "type-156",
   "source_file" : "/libnativehelper/include_jni/jni.h"
  },
  {
   "alignment" : 4,
   "linker_set_key" : "void (_JNIEnv *, _jobject *, _jmethodID *, std::__va_list)",
   "name" : "void (_JNIEnv *, _jobject *, _jmethodID *, std::__va_list)",
   "parameters" :
   [
    {
     "referenced_type" : "type-4"
    },
    {
     "referenced_type" : "type-22"
    },
    {
     "referenced_type" : "type-30"
    },
    {
     "referenced_type" : "type-154"
    }
   ],
   "referenced_type" : "type-153",
   "return_type" : "type-10",
   "self_type" : "type-153",
   "source_file" : "/libnativehelper/include_jni/jni.h"
  },
  {
   "alignment" : 4,
   "linker_set_key" : "void (_JNIEnv *, _jobjectArray *, int, _jobject *)",
   "name" : "void (_JNIEnv *, _jobjectArray *, int, _jobject *)",
   "parameters" :
   [
    {
     "referenced_type" : "type-4"
    },
    {
     "referenced_type" : "type-389"
    },
    {
     "referenced_type" : "type-13"
    },
    {
     "referenced_type" : "type-22"
    }
   ],
   "referenced_type" : "type-394",
   "return_type" : "type-10",
   "self_type" : "type-394",
   "source_file" : "/libnativehelper/include_jni/jni.h"
  },
  {
   "alignment" : 4,
   "linker_set_key" : "void (_JNIEnv *, _jshortArray *, int, int, const short *)",
   "name" : "void (_JNIEnv *, _jshortArray *, int, int, const short *)",
   "parameters" :
   [
    {
     "referenced_type" : "type-4"
    },
    {
     "referenced_type" : "type-409"
    },
    {
     "referenced_type" : "type-13"
    },
    {
     "referenced_type" : "type-13"
    },
    {
     "referenced_type" : "type-492"
    }
   ],
   "referenced_type" : "type-491",
   "return_type" : "type-10",
   "self_type" : "type-491",
   "source_file" : "/libnativehelper/include_jni/jni.h"
  },
  {
   "alignment" : 4,
   "linker_set_key" : "void (_JNIEnv *, _jshortArray *, int, int, short *)",
   "name" : "void (_JNIEnv *, _jshortArray *, int, int, short *)",
   "parameters" :
   [
    {
     "referenced_type" : "type-4"
    },
    {
     "referenced_type" : "type-409"
    },
    {
     "referenced_type" : "type-13"
    },
    {
     "referenced_type" : "type-13"
    },
    {
     "referenced_type" : "type-437"
    }
   ],
   "referenced_type" : "type-473",
   "return_type" : "type-10",
   "self_type" : "type-473",
   "source_file" : "/libnativehelper/include_jni/jni.h"
  },
  {
   "alignment" : 4,
   "linker_set_key" : "void (_JNIEnv *, _jshortArray *, short *, int)",
   "name" : "void (_JNIEnv *, _jshortArray *, short *, int)",
   "parameters" :
   [
    {
     "referenced_type" : "type-4"
    },
    {
     "referenced_type" : "type-409"
    },
    {
     "referenced_type" : "type-437"
    },
    {
     "referenced_type" : "type-13"
    }
   ],
   "referenced_type" : "type-457",
   "return_type" : "type-10",
   "self_type" : "type-457",
   "source_file" : "/libnativehelper/include_jni/jni.h"
  },
  {
   "alignment" : 4,
   "linker_set_key" : "void (_JNIEnv *, _jstring *, const char *)",
   "name" : "void (_JNIEnv *, _jstring *, const char *)",
   "parameters" :
   [
    {
     "referenced_type" : "type-4"
    },
    {
     "referenced_type" : "type-366"
    },
    {
     "referenced_type" : "type-19"
    }
   ],
   "referenced_type" : "type-382",
   "return_type" : "type-10",
   "self_type" : "type-382",
   "source_file" : "/libnativehelper/include_jni/jni.h"
  },
  {
   "alignment" : 4,
   "linker_set_key" : "void (_JNIEnv *, _jstring *, const unsigned short *)",
   "name" : "void (_JNIEnv *, _jstring *, const unsigned short *)",
   "parameters" :
   [
    {
     "referenced_type" : "type-4"
    },
    {
     "referenced_type" : "type-366"
    },
    {
     "referenced_type" : "type-368"
    }
   ],
   "referenced_type" : "type-376",
   "return_type" : "type-10",
   "self_type" : "type-376",
   "source_file" : "/libnativehelper/include_jni/jni.h"
  },
  {
   "alignment" : 4,
   "linker_set_key" : "void (_JNIEnv *, _jstring *, int, int, char *)",
   "name" : "void (_JNIEnv *, _jstring *, int, int, char *)",
   "parameters" :
   [
    {
     "referenced_type" : "type-4"
    },
    {
     "referenced_type" : "type-366"
    },
    {
     "referenced_type" : "type-13"
    },
    {
     "referenced_type" : "type-13"
    },
    {
     "referenced_type" : "type-539"
    }
   ],
   "referenced_type" : "type-538",
   "return_type" : "type-10",
   "self_type" : "type-538",
   "source_file" : "/libnativehelper/include_jni/jni.h"
  },
  {
   "alignment" : 4,
   "linker_set_key" : "void (_JNIEnv *, _jstring *, int, int, unsigned short *)",
   "name" : "void (_JNIEnv *, _jstring *, int, int, unsigned short *)",
   "parameters" :
   [
    {
     "referenced_type" : "type-4"
    },
    {
     "referenced_type" : "type-366"
    },
    {
     "referenced_type" : "type-13"
    },
    {
     "referenced_type" : "type-13"
    },
    {
     "referenced_type" : "type-434"
    }
   ],
   "referenced_type" : "type-536",
   "return_type" : "type-10",
   "self_type" : "type-536",
   "source_file" : "/libnativehelper/include_jni/jni.h"
  },
  {
   "alignment" : 4,
   "linker_set_key" : "void (_JNIEnv *, const char *)",
   "name" : "void (_JNIEnv *, const char *)",
   "parameters" :
   [
    {
     "referenced_type" : "type-4"
    },
    {
     "referenced_type" : "type-19"
    }
   ],
   "referenced_type" : "type-56",
   "return_type" : "type-10",
   "self_type" : "type-56",
   "source_file" : "/libnativehelper/include_jni/jni.h"
  },
  {
   "alignment" : 4,
   "linker_set_key" : "void (_Unwind_Reason_Code, _Unwind_Control_Block *)",
   "name" : "void (_Unwind_Reason_Code, _Unwind_Control_Block *)",
   "parameters" :
   [
    {
     "referenced_type" : "type-3356"
    },
    {
     "referenced_type" : "type-3361"
    }
   ],
   "referenced_type" : "type-3360",
   "return_type" : "type-10",
   "self_type" : "type-3360",
   "source_file" : "/external/libunwind_llvm/include/unwind.h"
  },
  {
   "alignment" : 4,
   "linker_set_key" : "void (_Unwind_Reason_Code, _Unwind_Control_Block *)",
   "name" : "void (_Unwind_Reason_Code, _Unwind_Control_Block *)",
   "parameters" :
   [
    {
     "referenced_type" : "type-3371"
    },
    {
     "referenced_type" : "type-3372"
    }
   ],
   "referenced_type" : "type-3375",
   "return_type" : "type-10",
   "self_type" : "type-3375",
   "source_file" : "/external/libunwind_llvm/include/unwind.h"
  },
  {
   "alignment" : 4,
   "linker_set_key" : "void (const SkMatrix &, SkPoint *, const SkPoint *, int)",
   "name" : "void (const SkMatrix &, SkPoint *, const SkPoint *, int)",
   "parameters" :
   [
    {
     "referenced_type" : "type-1822"
    },
    {
     "referenced_type" : "type-1792"
    },
    {
     "referenced_type" : "type-1791"
    },
    {
     "referenced_type" : "type-13"
    }
   ],
   "referenced_type" : "type-1826",
   "return_type" : "type-10",
   "self_type" : "type-1826",
   "source_file" : "/external/skia/include/core/SkMatrix.h"
  },
  {
   "alignment" : 4,
   "linker_set_key" : "void (const SkMatrix &, float, float, SkPoint *)",
   "name" : "void (const SkMatrix &, float, float, SkPoint *)",
   "parameters" :
   [
    {
     "referenced_type" : "type-1822"
    },
    {
     "referenced_type" : "type-79"
    },
    {
     "referenced_type" : "type-79"
    },
    {
     "referenced_type" : "type-1792"
    }
   ],
   "referenced_type" : "type-1824",
   "return_type" : "type-10",
   "self_type" : "type-1824",
   "source_file" : "/external/skia/include/core/SkMatrix.h"
  },
  {
   "alignment" : 4,
   "linker_set_key" : "void (const std::__1::__libcpp_debug_info &)",
   "name" : "void (const std::__1::__libcpp_debug_info &)",
   "parameters" :
   [
    {
     "referenced_type" : "type-1657"
    }
   ],
   "referenced_type" : "type-1656",
   "return_type" : "type-10",
   "self_type" : "type-1656",
   "source_file" : "/external/libcxx/include/__debug"
  },
  {
   "alignment" : 4,
   "linker_set_key" : "void (int)",
   "name" : "void (int)",
   "parameters" :
   [
    {
     "referenced_type" : "type-13"
    }
   ],
   "referenced_type" : "type-1517",
   "return_type" : "type-10",
   "self_type" : "type-1517",
   "source_file" : "/bionic/libc/kernel/uapi/asm-arm/asm/signal.h"
  },
  {
   "alignment" : 4,
   "linker_set_key" : "void (int, siginfo *, void *)",
   "name" : "void (int, siginfo *, void *)",
   "parameters" :
   [
    {
     "referenced_type" : "type-13"
    },
    {
     "referenced_type" : "type-1520"
    },
    {
     "referenced_type" : "type-9"
    }
   ],
   "referenced_type" : "type-1519",
   "return_type" : "type-10",
   "self_type" : "type-1519",
   "source_file" : "/bionic/libc/kernel/uapi/asm-arm/asm/signal.h"
  },
  {
   "alignment" : 4,
   "linker_set_key" : "void (sigval)",
   "name" : "void (sigval)",
   "parameters" :
   [
    {
     "referenced_type" : "type-1527"
    }
   ],
   "referenced_type" : "type-1546",
   "return_type" : "type-10",
   "self_type" : "type-1546",
   "source_file" : "/bionic/libc/kernel/uapi/asm-generic/siginfo.h"
  },
  {
   "alignment" : 4,
   "linker_set_key" : "void (std::__1::ios_base::event, std::__1::ios_base &, int)",
   "name" : "void (std::__1::ios_base::event, std::__1::ios_base &, int)",
   "parameters" :
   [
    {
     "referenced_type" : "type-2526"
    },
    {
     "referenced_type" : "type-2527"
    },
    {
     "referenced_type" : "type-13"
    }
   ],
   "referenced_type" : "type-2525",
   "return_type" : "type-10",
   "self_type" : "type-2525",
   "source_file" : "/external/libcxx/include/ios"
  },
  {
   "alignment" : 4,
   "linker_set_key" : "void (void *)",
   "name" : "void (void *)",
   "parameters" :
   [
    {
     "referenced_type" : "type-9"
    }
   ],
   "referenced_type" : "type-627",
   "return_type" : "type-10",
   "self_type" : "type-627",
   "source_file" : "/external/libcxx/include/type_traits"
  },
  {
   "alignment" : 4,
   "linker_set_key" : "void (void *, const void *)",
   "name" : "void (void *, const void *)",
   "parameters" :
   [
    {
     "referenced_type" : "type-9"
    },
    {
     "referenced_type" : "type-1284"
    }
   ],
   "referenced_type" : "type-1856",
   "return_type" : "type-10",
   "self_type" : "type-1856",
   "source_file" : "/bionic/libc/include/malloc.h"
  },
  {
   "alignment" : 4,
   "linker_set_key" : "void *(_JNIEnv *, _jarray *, unsigned char *)",
   "name" : "void *(_JNIEnv *, _jarray *, unsigned char *)",
   "parameters" :
   [
    {
     "referenced_type" : "type-4"
    },
    {
     "referenced_type" : "type-385"
    },
    {
     "referenced_type" : "type-374"
    }
   ],
   "referenced_type" : "type-541",
   "return_type" : "type-9",
   "self_type" : "type-541",
   "source_file" : "/libnativehelper/include_jni/jni.h"
  },
  {
   "alignment" : 4,
   "linker_set_key" : "void *(_JNIEnv *, _jobject *)",
   "name" : "void *(_JNIEnv *, _jobject *)",
   "parameters" :
   [
    {
     "referenced_type" : "type-4"
    },
    {
     "referenced_type" : "type-22"
    }
   ],
   "referenced_type" : "type-549",
   "return_type" : "type-9",
   "self_type" : "type-549",
   "source_file" : "/libnativehelper/include_jni/jni.h"
  },
  {
   "alignment" : 4,
   "linker_set_key" : "void *(const void *)",
   "name" : "void *(const void *)",
   "parameters" :
   [
    {
     "referenced_type" : "type-1284"
    }
   ],
   "referenced_type" : "type-2149",
   "return_type" : "type-9",
   "self_type" : "type-2149",
   "source_file" : "/external/libcxx/include/functional"
  },
  {
   "alignment" : 4,
   "linker_set_key" : "void *(unsigned int, const void *)",
   "name" : "void *(unsigned int, const void *)",
   "parameters" :
   [
    {
     "referenced_type" : "type-555"
    },
    {
     "referenced_type" : "type-1284"
    }
   ],
   "referenced_type" : "type-1850",
   "return_type" : "type-9",
   "self_type" : "type-1850",
   "source_file" : "/bionic/libc/include/malloc.h"
  },
  {
   "alignment" : 4,
   "linker_set_key" : "void *(unsigned int, unsigned int, const void *)",
   "name" : "void *(unsigned int, unsigned int, const void *)",
   "parameters" :
   [
    {
     "referenced_type" : "type-555"
    },
    {
     "referenced_type" : "type-555"
    },
    {
     "referenced_type" : "type-1284"
    }
   ],
   "referenced_type" : "type-1859",
   "return_type" : "type-9",
   "self_type" : "type-1859",
   "source_file" : "/bionic/libc/include/malloc.h"
  },
  {
   "alignment" : 4,
   "linker_set_key" : "void *(void *)",
   "name" : "void *(void *)",
   "parameters" :
   [
    {
     "referenced_type" : "type-9"
    }
   ],
   "referenced_type" : "type-2424",
   "return_type" : "type-9",
   "self_type" : "type-2424",
   "source_file" : "/external/libcxx/include/__threading_support"
  },
  {
   "alignment" : 4,
   "linker_set_key" : "void *(void *, unsigned int, const void *)",
   "name" : "void *(void *, unsigned int, const void *)",
   "parameters" :
   [
    {
     "referenced_type" : "type-9"
    },
    {
     "referenced_type" : "type-555"
    },
    {
     "referenced_type" : "type-1284"
    }
   ],
   "referenced_type" : "type-1853",
   "return_type" : "type-9",
   "self_type" : "type-1853",
   "source_file" : "/bionic/libc/include/malloc.h"
  }
 ],
 "functions" :
 [
  {
   "function_name" : "AndroidBitmap_getInfo",
   "linker_set_key" : "AndroidBitmap_getInfo",
   "parameters" :
   [
    {
     "referenced_type" : "type-4"
    },
    {
     "referenced_type" : "type-22"
    },
    {
     "referenced_type" : "type-2709"
    }
   ],
   "return_type" : "type-13",
   "source_file" : "/frameworks/native/include/android/bitmap.h"
  },
  {
   "function_name" : "AndroidBitmap_lockPixels",
   "linker_set_key" : "AndroidBitmap_lockPixels",
   "parameters" :
   [
    {
     "referenced_type" : "type-4"
    },
    {
     "referenced_type" : "type-22"
    },
    {
     "referenced_type" : "type-534"
    }
   ],
   "return_type" : "type-13",
   "source_file" : "/frameworks/native/include/android/bitmap.h"
  },
  {
   "function_name" : "AndroidBitmap_unlockPixels",
   "linker_set_key" : "AndroidBitmap_unlockPixels",
   "parameters" :
   [
    {
     "referenced_type" : "type-4"
    },
    {
     "referenced_type" : "type-22"
    }
   ],
   "return_type" : "type-13",
   "source_file" : "/frameworks/native/include/android/bitmap.h"
  }
 ],
 "global_vars" : [],
 "lvalue_reference_types" :
 [
  {
   "alignment" : 4,
   "linker_set_key" : "SkMatrix44 &",
   "name" : "SkMatrix44 &",
   "referenced_type" : "type-1836",
   "self_type" : "type-1843",
   "size" : 4,
   "source_file" : "/external/skia/include/core/SkMatrix44.h"
  },
  {
   "alignment" : 4,
   "linker_set_key" : "SkPoint &",
   "name" : "SkPoint &",
   "referenced_type" : "type-1789",
   "self_type" : "type-1794",
   "size" : 4,
   "source_file" : "/external/skia/include/core/SkPoint.h"
  },
  {
   "alignment" : 4,
   "linker_set_key" : "SkSize &",
   "name" : "SkSize &",
   "referenced_type" : "type-1799",
   "self_type" : "type-1801",
   "size" : 4,
   "source_file" : "/external/skia/include/core/SkSize.h"
  },
  {
   "alignment" : 4,
   "linker_set_key" : "SkVector4 &",
   "name" : "SkVector4 &",
   "referenced_type" : "type-1831",
   "self_type" : "type-1835",
   "size" : 4,
   "source_file" : "/external/skia/include/core/SkMatrix44.h"
  },
  {
   "alignment" : 4,
   "linker_set_key" : "__locale_t *&",
   "name" : "__locale_t *&",
   "referenced_type" : "type-1282",
   "self_type" : "type-2448",
   "size" : 4,
   "source_file" : "/external/libcxx/include/__locale"
  },
  {
   "alignment" : 4,
   "linker_set_key" : "char &",
   "name" : "char &",
   "referenced_type" : "type-21",
   "self_type" : "type-3614",
   "size" : 4,
   "source_file" : "/external/libcxx/include/type_traits"
  },
  {
   "alignment" : 4,
   "linker_set_key" : "char *&",
   "name" : "char *&",
   "referenced_type" : "type-539",
   "self_type" : "type-2482",
   "size" : 4,
   "source_file" : "/external/libcxx/include/__locale"
  },
  {
   "alignment" : 4,
   "linker_set_key" : "char16_t &",
   "name" : "char16_t &",
   "referenced_type" : "type-565",
   "self_type" : "type-2843",
   "size" : 4,
   "source_file" : "/external/libcxx/include/type_traits"
  },
  {
   "alignment" : 4,
   "linker_set_key" : "char16_t *&",
   "name" : "char16_t *&",
   "referenced_type" : "type-564",
   "self_type" : "type-2493",
   "size" : 4,
   "source_file" : "/external/libcxx/include/__locale"
  },
  {
   "alignment" : 4,
   "linker_set_key" : "char32_t &",
   "name" : "char32_t &",
   "referenced_type" : "type-583",
   "self_type" : "type-2844",
   "size" : 4,
   "source_file" : "/external/libcxx/include/type_traits"
  },
  {
   "alignment" : 4,
   "linker_set_key" : "char32_t *&",
   "name" : "char32_t *&",
   "referenced_type" : "type-582",
   "self_type" : "type-2499",
   "size" : 4,
   "source_file" : "/external/libcxx/include/__locale"
  },
  {
   "alignment" : 4,
   "linker_set_key" : "const SkBitmap &",
   "name" : "const SkBitmap &",
   "referenced_type" : "type-2691",
   "self_type" : "type-2693",
   "size" : 4,
   "source_file" : "/external/skia/include/core/SkBitmap.h"
  },
  {
   "alignment" : 4,
   "linker_set_key" : "const SkIPoint &",
   "name" : "const SkIPoint &",
   "referenced_type" : "type-1785",
   "self_type" : "type-1788",
   "size" : 4,
   "source_file" : "/external/skia/include/core/SkPoint.h"
  },
  {
   "alignment" : 4,
   "linker_set_key" : "const SkIRect &",
   "name" : "const SkIRect &",
   "referenced_type" : "type-1806",
   "self_type" : "type-1808",
   "size" : 4,
   "source_file" : "/external/skia/include/core/SkRect.h"
  },
  {
   "alignment" : 4,
   "linker_set_key" : "const SkISize &",
   "name" : "const SkISize &",
   "referenced_type" : "type-1797",
   "self_type" : "type-1800",
   "size" : 4,
   "source_file" : "/external/skia/include/core/SkSize.h"
  },
  {
   "alignment" : 4,
   "linker_set_key" : "const SkImageInfo &",
   "name" : "const SkImageInfo &",
   "referenced_type" : "type-2677",
   "self_type" : "type-2679",
   "size" : 4,
   "source_file" : "/external/skia/include/core/SkImageInfo.h"
  },
  {
   "alignment" : 4,
   "linker_set_key" : "const SkMatrix &",
   "name" : "const SkMatrix &",
   "referenced_type" : "type-1818",
   "self_type" : "type-1822",
   "size" : 4,
   "source_file" : "/external/skia/include/core/SkMatrix.h"
  },
  {
   "alignment" : 4,
   "linker_set_key" : "const SkMatrix44 &",
   "name" : "const SkMatrix44 &",
   "referenced_type" : "type-1841",
   "self_type" : "type-1842",
   "size" : 4,
   "source_file" : "/external/skia/include/core/SkMatrix44.h"
  },
  {
   "alignment" : 4,
   "linker_set_key" : "const SkPixmap &",
   "name" : "const SkPixmap &",
   "referenced_type" : "type-2685",
   "self_type" : "type-2689",
   "size" : 4,
   "source_file" : "/external/skia/include/core/SkPixmap.h"
  },
  {
   "alignment" : 4,
   "linker_set_key" : "const SkPoint &",
   "name" : "const SkPoint &",
   "referenced_type" : "type-1790",
   "self_type" : "type-1793",
   "size" : 4,
   "source_file" : "/external/skia/include/core/SkPoint.h"
  },
  {
   "alignment" : 4,
   "linker_set_key" : "const SkRect &",
   "name" : "const SkRect &",
   "referenced_type" : "type-1810",
   "self_type" : "type-1812",
   "size" : 4,
   "source_file" : "/external/skia/include/core/SkRect.h"
  },
  {
   "alignment" : 4,
   "linker_set_key" : "const SkSize &",
   "name" : "const SkSize &",
   "referenced_type" : "type-1803",
   "self_type" : "type-1813",
   "size" : 4,
   "source_file" : "/external/skia/include/core/SkRect.h"
  },
  {
   "alignment" : 4,
   "linker_set_key" : "const SkVector4 &",
   "name" : "const SkVector4 &",
   "referenced_type" : "type-1833",
   "self_type" : "type-1834",
   "size" : 4,
   "source_file" : "/external/skia/include/core/SkMatrix44.h"
  },
  {
   "linker_set_key" : "const __bit_iterator<_Cp, _IsConst, > &",
   "name" : "const __bit_iterator<_Cp, _IsConst, > &",
   "referenced_type" : "type-2637",
   "self_type" : "type-2639",
   "source_file" : "/external/libcxx/include/__bit_reference"
  },
  {
   "alignment" : 4,
   "linker_set_key" : "const char &",
   "name" : "const char &",
   "referenced_type" : "type-20",
   "self_type" : "type-2193",
   "size" : 4,
   "source_file" : "/external/libcxx/include/__string"
  },
  {
   "alignment" : 4,
   "linker_set_key" : "const char *&",
   "name" : "const char *&",
   "referenced_type" : "type-19",
   "self_type" : "type-2481",
   "size" : 4,
   "source_file" : "/external/libcxx/include/__locale"
  },
  {
   "alignment" : 4,
   "linker_set_key" : "const char *const &",
   "name" : "const char *const &",
   "referenced_type" : "type-1015",
   "self_type" : "type-1014",
   "size" : 4,
   "source_file" : "/external/libcxx/include/type_traits"
  },
  {
   "alignment" : 4,
   "linker_set_key" : "const char16_t &",
   "name" : "const char16_t &",
   "referenced_type" : "type-985",
   "self_type" : "type-2195",
   "size" : 4,
   "source_file" : "/external/libcxx/include/__string"
  },
  {
   "alignment" : 4,
   "linker_set_key" : "const char16_t *&",
   "name" : "const char16_t *&",
   "referenced_type" : "type-984",
   "self_type" : "type-2492",
   "size" : 4,
   "source_file" : "/external/libcxx/include/__locale"
  },
  {
   "alignment" : 4,
   "linker_set_key" : "const char16_t *const &",
   "name" : "const char16_t *const &",
   "referenced_type" : "type-1023",
   "self_type" : "type-1022",
   "size" : 4,
   "source_file" : "/external/libcxx/include/type_traits"
  },
  {
   "alignment" : 4,
   "linker_set_key" : "const char32_t &",
   "name" : "const char32_t &",
   "referenced_type" : "type-991",
   "self_type" : "type-2196",
   "size" : 4,
   "source_file" : "/external/libcxx/include/__string"
  },
  {
   "alignment" : 4,
   "linker_set_key" : "const char32_t *&",
   "name" : "const char32_t *&",
   "referenced_type" : "type-990",
   "self_type" : "type-2498",
   "size" : 4,
   "source_file" : "/external/libcxx/include/__locale"
  },
  {
   "alignment" : 4,
   "linker_set_key" : "const char32_t *const &",
   "name" : "const char32_t *const &",
   "referenced_type" : "type-1027",
   "self_type" : "type-1026",
   "size" : 4,
   "source_file" : "/external/libcxx/include/type_traits"
  },
  {
   "linker_set_key" : "const class std::__1::uniform_int_distribution::param_type &",
   "name" : "const class std::__1::uniform_int_distribution::param_type &",
   "referenced_type" : "type-2184",
   "self_type" : "type-2186",
   "source_file" : "/external/libcxx/include/algorithm"
  },
  {
   "alignment" : 4,
   "linker_set_key" : "const double &",
   "name" : "const double &",
   "referenced_type" : "type-509",
   "self_type" : "type-1267",
   "size" : 4,
   "source_file" : "/external/skia/include/core/SkTypes.h"
  },
  {
   "alignment" : 4,
   "linker_set_key" : "const float &",
   "name" : "const float &",
   "referenced_type" : "type-505",
   "self_type" : "type-1266",
   "size" : 4,
   "source_file" : "/external/skia/include/core/SkTypes.h"
  },
  {
   "alignment" : 4,
   "linker_set_key" : "const int &",
   "name" : "const int &",
   "referenced_type" : "type-497",
   "self_type" : "type-2183",
   "size" : 4,
   "source_file" : "/external/libcxx/include/algorithm"
  },
  {
   "alignment" : 4,
   "linker_set_key" : "const libunwind::EHABISectionIterator<libunwind::LocalAddressSpace> &",
   "name" : "const libunwind::EHABISectionIterator<libunwind::LocalAddressSpace> &",
   "referenced_type" : "type-3312",
   "self_type" : "type-3313",
   "size" : 4,
   "source_file" : "/external/libunwind_llvm/src/UnwindCursor.hpp"
  },
  {
   "alignment" : 4,
   "linker_set_key" : "const libunwind::UnwindInfoSections &",
   "name" : "const libunwind::UnwindInfoSections &",
   "referenced_type" : "type-3305",
   "self_type" : "type-3306",
   "size" : 4,
   "source_file" : "/external/libunwind_llvm/src/UnwindCursor.hpp"
  },
  {
   "alignment" : 4,
   "linker_set_key" : "const long &",
   "name" : "const long &",
   "referenced_type" : "type-1243",
   "self_type" : "type-2303",
   "size" : 4,
   "source_file" : "/external/libcxx/include/chrono"
  },
  {
   "alignment" : 4,
   "linker_set_key" : "const long double &",
   "name" : "const long double &",
   "referenced_type" : "type-2311",
   "self_type" : "type-2312",
   "size" : 4,
   "source_file" : "/external/libcxx/include/chrono"
  },
  {
   "alignment" : 4,
   "linker_set_key" : "const long long &",
   "name" : "const long long &",
   "referenced_type" : "type-501",
   "self_type" : "type-2293",
   "size" : 4,
   "source_file" : "/external/libcxx/include/chrono"
  },
  {
   "alignment" : 4,
   "linker_set_key" : "const sk_sp<SkColorSpace> &",
   "name" : "const sk_sp<SkColorSpace> &",
   "referenced_type" : "type-2657",
   "self_type" : "type-2658",
   "size" : 4,
   "source_file" : "/external/skia/include/core/SkRefCnt.h"
  },
  {
   "alignment" : 4,
   "linker_set_key" : "const sk_sp<SkPixelRef> &",
   "name" : "const sk_sp<SkPixelRef> &",
   "referenced_type" : "type-2664",
   "self_type" : "type-2666",
   "size" : 4,
   "source_file" : "/external/skia/include/core/SkRefCnt.h"
  },
  {
   "alignment" : 4,
   "linker_set_key" : "const std::__bitset<0, 0> &",
   "name" : "const std::__bitset<0, 0> &",
   "referenced_type" : "type-2641",
   "self_type" : "type-2643",
   "size" : 4,
   "source_file" : "/external/libcxx/include/bitset"
  },
  {
   "alignment" : 4,
   "linker_set_key" : "const std::__compressed_pair<char *, void (*)(void *)> &",
   "name" : "const std::__compressed_pair<char *, void (*)(void *)> &",
   "referenced_type" : "type-639",
   "self_type" : "type-726",
   "size" : 4,
   "source_file" : "/external/libcxx/include/type_traits"
  },
  {
   "alignment" : 4,
   "linker_set_key" : "const std::__compressed_pair<unsigned char *, void (*)(void *)> &",
   "name" : "const std::__compressed_pair<unsigned char *, void (*)(void *)> &",
   "referenced_type" : "type-631",
   "self_type" : "type-717",
   "size" : 4,
   "source_file" : "/external/libcxx/include/type_traits"
  },
  {
   "alignment" : 4,
   "linker_set_key" : "const std::__compressed_pair<unsigned int *, void (*)(void *)> &",
   "name" : "const std::__compressed_pair<unsigned int *, void (*)(void *)> &",
   "referenced_type" : "type-648",
   "self_type" : "type-733",
   "size" : 4,
   "source_file" : "/external/libcxx/include/type_traits"
  },
  {
   "alignment" : 4,
   "linker_set_key" : "const std::__compressed_pair_elem<char *, 0, false> &",
   "name" : "const std::__compressed_pair_elem<char *, 0, false> &",
   "referenced_type" : "type-635",
   "self_type" : "type-722",
   "size" : 4,
   "source_file" : "/external/libcxx/include/type_traits"
  },
  {
   "alignment" : 4,
   "linker_set_key" : "const std::__compressed_pair_elem<std::allocator<char16_t>, 1, true> &",
   "name" : "const std::__compressed_pair_elem<std::allocator<char16_t>, 1, true> &",
   "referenced_type" : "type-687",
   "self_type" : "type-774",
   "size" : 4,
   "source_file" : "/external/libcxx/include/type_traits"
  },
  {
   "alignment" : 4,
   "linker_set_key" : "const std::__compressed_pair_elem<std::allocator<char32_t>, 1, true> &",
   "name" : "const std::__compressed_pair_elem<std::allocator<char32_t>, 1, true> &",
   "referenced_type" : "type-590",
   "self_type" : "type-782",
   "size" : 4,
   "source_file" : "/external/libcxx/include/type_traits"
  },
  {
   "alignment" : 4,
   "linker_set_key" : "const std::__compressed_pair_elem<std::allocator<char>, 1, true> &",
   "name" : "const std::__compressed_pair_elem<std::allocator<char>, 1, true> &",
   "referenced_type" : "type-661",
   "self_type" : "type-758",
   "size" : 4,
   "source_file" : "/external/libcxx/include/type_traits"
  },
  {
   "alignment" : 4,
   "linker_set_key" : "const std::__compressed_pair_elem<std::allocator<wchar_t>, 1, true> &",
   "name" : "const std::__compressed_pair_elem<std::allocator<wchar_t>, 1, true> &",
   "referenced_type" : "type-679",
   "self_type" : "type-766",
   "size" : 4,
   "source_file" : "/external/libcxx/include/type_traits"
  },
  {
   "alignment" : 4,
   "linker_set_key" : "const std::__compressed_pair_elem<std::basic_string<char16_t, char_traits<char16_t>, allocator<char16_t> >::__rep, 0, false> &",
   "name" : "const std::__compressed_pair_elem<std::basic_string<char16_t, char_traits<char16_t>, allocator<char16_t> >::__rep, 0, false> &",
   "referenced_type" : "type-685",
   "self_type" : "type-771",
   "size" : 4,
   "source_file" : "/external/libcxx/include/type_traits"
  },
  {
   "alignment" : 4,
   "linker_set_key" : "const std::__compressed_pair_elem<std::basic_string<char32_t, char_traits<char32_t>, allocator<char32_t> >::__rep, 0, false> &",
   "name" : "const std::__compressed_pair_elem<std::basic_string<char32_t, char_traits<char32_t>, allocator<char32_t> >::__rep, 0, false> &",
   "referenced_type" : "type-577",
   "self_type" : "type-779",
   "size" : 4,
   "source_file" : "/external/libcxx/include/type_traits"
  },
  {
   "alignment" : 4,
   "linker_set_key" : "const std::__compressed_pair_elem<std::basic_string<char>::__rep, 0, false> &",
   "name" : "const std::__compressed_pair_elem<std::basic_string<char>::__rep, 0, false> &",
   "referenced_type" : "type-651",
   "self_type" : "type-755",
   "size" : 4,
   "source_file" : "/external/libcxx/include/type_traits"
  },
  {
   "alignment" : 4,
   "linker_set_key" : "const std::__compressed_pair_elem<std::basic_string<wchar_t>::__rep, 0, false> &",
   "name" : "const std::__compressed_pair_elem<std::basic_string<wchar_t>::__rep, 0, false> &",
   "referenced_type" : "type-667",
   "self_type" : "type-763",
   "size" : 4,
   "source_file" : "/external/libcxx/include/type_traits"
  },
  {
   "alignment" : 4,
   "linker_set_key" : "const std::__compressed_pair_elem<unsigned char *, 0, false> &",
   "name" : "const std::__compressed_pair_elem<unsigned char *, 0, false> &",
   "referenced_type" : "type-621",
   "self_type" : "type-709",
   "size" : 4,
   "source_file" : "/external/libcxx/include/type_traits"
  },
  {
   "alignment" : 4,
   "linker_set_key" : "const std::__compressed_pair_elem<unsigned int *, 0, false> &",
   "name" : "const std::__compressed_pair_elem<unsigned int *, 0, false> &",
   "referenced_type" : "type-643",
   "self_type" : "type-729",
   "size" : 4,
   "source_file" : "/external/libcxx/include/type_traits"
  },
  {
   "alignment" : 4,
   "linker_set_key" : "const std::__compressed_pair_elem<void (*)(void *), 1, false> &",
   "name" : "const std::__compressed_pair_elem<void (*)(void *), 1, false> &",
   "referenced_type" : "type-624",
   "self_type" : "type-712",
   "size" : 4,
   "source_file" : "/external/libcxx/include/type_traits"
  },
  {
   "alignment" : 4,
   "linker_set_key" : "const std::__libcpp_debug_info &",
   "name" : "const std::__libcpp_debug_info &",
   "referenced_type" : "type-1658",
   "self_type" : "type-1657",
   "size" : 4,
   "source_file" : "/external/libcxx/include/__debug"
  },
  {
   "alignment" : 4,
   "linker_set_key" : "const std::__sfinae_assign_base<false, false> &",
   "name" : "const std::__sfinae_assign_base<false, false> &",
   "referenced_type" : "type-1634",
   "self_type" : "type-1635",
   "size" : 4,
   "source_file" : "/external/libcxx/include/__tuple"
  },
  {
   "alignment" : 4,
   "linker_set_key" : "const std::__sfinae_assign_base<false, true> &",
   "name" : "const std::__sfinae_assign_base<false, true> &",
   "referenced_type" : "type-1645",
   "self_type" : "type-1646",
   "size" : 4,
   "source_file" : "/external/libcxx/include/__tuple"
  },
  {
   "alignment" : 4,
   "linker_set_key" : "const std::__sfinae_assign_base<true, false> &",
   "name" : "const std::__sfinae_assign_base<true, false> &",
   "referenced_type" : "type-1639",
   "self_type" : "type-1640",
   "size" : 4,
   "source_file" : "/external/libcxx/include/__tuple"
  },
  {
   "alignment" : 4,
   "linker_set_key" : "const std::__sfinae_ctor_base<false, false> &",
   "name" : "const std::__sfinae_ctor_base<false, false> &",
   "referenced_type" : "type-1617",
   "self_type" : "type-1618",
   "size" : 4,
   "source_file" : "/external/libcxx/include/__tuple"
  },
  {
   "alignment" : 4,
   "linker_set_key" : "const std::__sfinae_ctor_base<false, true> &",
   "name" : "const std::__sfinae_ctor_base<false, true> &",
   "referenced_type" : "type-1630",
   "self_type" : "type-1631",
   "size" : 4,
   "source_file" : "/external/libcxx/include/__tuple"
  },
  {
   "alignment" : 4,
   "linker_set_key" : "const std::__sfinae_ctor_base<true, false> &",
   "name" : "const std::__sfinae_ctor_base<true, false> &",
   "referenced_type" : "type-1622",
   "self_type" : "type-1623",
   "size" : 4,
   "source_file" : "/external/libcxx/include/__tuple"
  },
  {
   "alignment" : 4,
   "linker_set_key" : "const std::allocator<char16_t> &",
   "name" : "const std::allocator<char16_t> &",
   "referenced_type" : "type-1901",
   "self_type" : "type-1913",
   "size" : 4,
   "source_file" : "/external/libcxx/include/string"
  },
  {
   "alignment" : 4,
   "linker_set_key" : "const std::allocator<char32_t> &",
   "name" : "const std::allocator<char32_t> &",
   "referenced_type" : "type-1904",
   "self_type" : "type-1921",
   "size" : 4,
   "source_file" : "/external/libcxx/include/string"
  },
  {
   "alignment" : 4,
   "linker_set_key" : "const std::allocator<char> &",
   "name" : "const std::allocator<char> &",
   "referenced_type" : "type-1895",
   "self_type" : "type-2067",
   "size" : 4,
   "source_file" : "/external/libcxx/include/memory"
  },
  {
   "alignment" : 4,
   "linker_set_key" : "const std::allocator<wchar_t> &",
   "name" : "const std::allocator<wchar_t> &",
   "referenced_type" : "type-1898",
   "self_type" : "type-2070",
   "size" : 4,
   "source_file" : "/external/libcxx/include/memory"
  },
  {
   "alignment" : 4,
   "linker_set_key" : "const std::basic_string<char, std::char_traits<char>, std::allocator<char> > &",
   "name" : "const std::basic_string<char, std::char_traits<char>, std::allocator<char> > &",
   "referenced_type" : "type-1043",
   "self_type" : "type-1042",
   "size" : 4,
   "source_file" : "/external/libcxx/include/type_traits"
  },
  {
   "alignment" : 4,
   "linker_set_key" : "const std::basic_string<char16_t, char_traits<char16_t>, allocator<char16_t> >::__rep &",
   "name" : "const std::basic_string<char16_t, char_traits<char16_t>, allocator<char16_t> >::__rep &",
   "referenced_type" : "type-2081",
   "self_type" : "type-2080",
   "size" : 4,
   "source_file" : "/external/libcxx/include/memory"
  },
  {
   "alignment" : 4,
   "linker_set_key" : "const std::basic_string<char32_t, char_traits<char32_t>, allocator<char32_t> >::__rep &",
   "name" : "const std::basic_string<char32_t, char_traits<char32_t>, allocator<char32_t> >::__rep &",
   "referenced_type" : "type-2084",
   "self_type" : "type-2083",
   "size" : 4,
   "source_file" : "/external/libcxx/include/memory"
  },
  {
   "alignment" : 4,
   "linker_set_key" : "const std::basic_string<char>::__rep &",
   "name" : "const std::basic_string<char>::__rep &",
   "referenced_type" : "type-2075",
   "self_type" : "type-2074",
   "size" : 4,
   "source_file" : "/external/libcxx/include/memory"
  },
  {
   "alignment" : 4,
   "linker_set_key" : "const std::basic_string<wchar_t, std::char_traits<wchar_t>, std::allocator<wchar_t> > &",
   "name" : "const std::basic_string<wchar_t, std::char_traits<wchar_t>, std::allocator<wchar_t> > &",
   "referenced_type" : "type-1050",
   "self_type" : "type-1049",
   "size" : 4,
   "source_file" : "/external/libcxx/include/type_traits"
  },
  {
   "alignment" : 4,
   "linker_set_key" : "const std::basic_string<wchar_t>::__rep &",
   "name" : "const std::basic_string<wchar_t>::__rep &",
   "referenced_type" : "type-2078",
   "self_type" : "type-2077",
   "size" : 4,
   "source_file" : "/external/libcxx/include/memory"
  },
  {
   "alignment" : 4,
   "linker_set_key" : "const std::basic_string_view<char, std::char_traits<char> > &",
   "name" : "const std::basic_string_view<char, std::char_traits<char> > &",
   "referenced_type" : "type-2198",
   "self_type" : "type-2199",
   "size" : 4,
   "source_file" : "/external/libcxx/include/string_view"
  },
  {
   "alignment" : 4,
   "linker_set_key" : "const std::basic_string_view<char16_t, std::char_traits<char16_t> > &",
   "name" : "const std::basic_string_view<char16_t, std::char_traits<char16_t> > &",
   "referenced_type" : "type-2202",
   "self_type" : "type-2203",
   "size" : 4,
   "source_file" : "/external/libcxx/include/string_view"
  },
  {
   "alignment" : 4,
   "linker_set_key" : "const std::basic_string_view<char32_t, std::char_traits<char32_t> > &",
   "name" : "const std::basic_string_view<char32_t, std::char_traits<char32_t> > &",
   "referenced_type" : "type-2206",
   "self_type" : "type-2207",
   "size" : 4,
   "source_file" : "/external/libcxx/include/string_view"
  },
  {
   "alignment" : 4,
   "linker_set_key" : "const std::basic_string_view<wchar_t, std::char_traits<wchar_t> > &",
   "name" : "const std::basic_string_view<wchar_t, std::char_traits<wchar_t> > &",
   "referenced_type" : "type-2210",
   "self_type" : "type-2211",
   "size" : 4,
   "source_file" : "/external/libcxx/include/string_view"
  },
  {
   "alignment" : 4,
   "linker_set_key" : "const std::chrono::duration<long long, std::ratio<1, 1000000000> > &",
   "name" : "const std::chrono::duration<long long, std::ratio<1, 1000000000> > &",
   "referenced_type" : "type-2296",
   "self_type" : "type-2324",
   "size" : 4,
   "source_file" : "/external/libcxx/include/chrono"
  },
  {
   "alignment" : 4,
   "linker_set_key" : "const std::chrono::duration<long long, std::ratio<1, 1> > &",
   "name" : "const std::chrono::duration<long long, std::ratio<1, 1> > &",
   "referenced_type" : "type-2294",
   "self_type" : "type-2295",
   "size" : 4,
   "source_file" : "/external/libcxx/include/chrono"
  },
  {
   "alignment" : 4,
   "linker_set_key" : "const std::chrono::time_point<std::chrono::steady_clock, std::chrono::duration<long long, std::ratio<1, 1000000000> > > &",
   "name" : "const std::chrono::time_point<std::chrono::steady_clock, std::chrono::duration<long long, std::ratio<1, 1000000000> > > &",
   "referenced_type" : "type-2366",
   "self_type" : "type-2380",
   "size" : 4,
   "source_file" : "/external/libcxx/include/chrono"
  },
  {
   "alignment" : 4,
   "linker_set_key" : "const std::chrono::time_point<std::chrono::system_clock, std::chrono::duration<long long, std::ratio<1, 1000000000> > > &",
   "name" : "const std::chrono::time_point<std::chrono::system_clock, std::chrono::duration<long long, std::ratio<1, 1000000000> > > &",
   "referenced_type" : "type-2375",
   "self_type" : "type-2379",
   "size" : 4,
   "source_file" : "/external/libcxx/include/chrono"
  },
  {
   "alignment" : 4,
   "linker_set_key" : "const std::chrono::time_point<std::filesystem::_FilesystemClock, std::chrono::duration<long long, std::ratio<1, 1000000000> > > &",
   "name" : "const std::chrono::time_point<std::filesystem::_FilesystemClock, std::chrono::duration<long long, std::ratio<1, 1000000000> > > &",
   "referenced_type" : "type-2371",
   "self_type" : "type-2381",
   "size" : 4,
   "source_file" : "/external/libcxx/include/chrono"
  },
  {
   "alignment" : 4,
   "linker_set_key" : "const std::error_category &",
   "name" : "const std::error_category &",
   "referenced_type" : "type-1691",
   "self_type" : "type-2397",
   "size" : 4,
   "source_file" : "/external/libcxx/include/system_error"
  },
  {
   "alignment" : 4,
   "linker_set_key" : "const std::error_code &",
   "name" : "const std::error_code &",
   "referenced_type" : "type-2404",
   "self_type" : "type-2406",
   "size" : 4,
   "source_file" : "/external/libcxx/include/system_error"
  },
  {
   "alignment" : 4,
   "linker_set_key" : "const std::error_condition &",
   "name" : "const std::error_condition &",
   "referenced_type" : "type-2400",
   "self_type" : "type-2402",
   "size" : 4,
   "source_file" : "/external/libcxx/include/system_error"
  },
  {
   "alignment" : 4,
   "linker_set_key" : "const std::exception_ptr &",
   "name" : "const std::exception_ptr &",
   "referenced_type" : "type-1870",
   "self_type" : "type-1872",
   "size" : 4,
   "source_file" : "/external/libcxx/include/exception"
  },
  {
   "alignment" : 4,
   "linker_set_key" : "const std::locale &",
   "name" : "const std::locale &",
   "referenced_type" : "type-2449",
   "self_type" : "type-2451",
   "size" : 4,
   "source_file" : "/external/libcxx/include/__locale"
  },
  {
   "alignment" : 4,
   "linker_set_key" : "const std::type_info &",
   "name" : "const std::type_info &",
   "referenced_type" : "type-1878",
   "self_type" : "type-1880",
   "size" : 4,
   "source_file" : "/external/libcxx/include/typeinfo"
  },
  {
   "linker_set_key" : "const uniform_int_distribution<_IntType> &",
   "name" : "const uniform_int_distribution<_IntType> &",
   "referenced_type" : "type-2187",
   "self_type" : "type-2189",
   "source_file" : "/external/libcxx/include/algorithm"
  },
  {
   "alignment" : 4,
   "linker_set_key" : "const unsigned int &",
   "name" : "const unsigned int &",
   "referenced_type" : "type-2179",
   "self_type" : "type-2178",
   "size" : 4,
   "source_file" : "/external/libcxx/include/algorithm"
  },
  {
   "alignment" : 4,
   "linker_set_key" : "const wchar_t &",
   "name" : "const wchar_t &",
   "referenced_type" : "type-979",
   "self_type" : "type-2194",
   "size" : 4,
   "source_file" : "/external/libcxx/include/__string"
  },
  {
   "alignment" : 4,
   "linker_set_key" : "const wchar_t *&",
   "name" : "const wchar_t *&",
   "referenced_type" : "type-978",
   "self_type" : "type-2486",
   "size" : 4,
   "source_file" : "/external/libcxx/include/__locale"
  },
  {
   "alignment" : 4,
   "linker_set_key" : "const wchar_t *const &",
   "name" : "const wchar_t *const &",
   "referenced_type" : "type-1019",
   "self_type" : "type-1018",
   "size" : 4,
   "source_file" : "/external/libcxx/include/type_traits"
  },
  {
   "alignment" : 4,
   "linker_set_key" : "float &",
   "name" : "float &",
   "referenced_type" : "type-79",
   "self_type" : "type-753",
   "size" : 4,
   "source_file" : "/external/libcxx/include/type_traits"
  },
  {
   "alignment" : 4,
   "linker_set_key" : "int &",
   "name" : "int &",
   "referenced_type" : "type-13",
   "self_type" : "type-720",
   "size" : 4,
   "source_file" : "/external/libcxx/include/type_traits"
  },
  {
   "alignment" : 4,
   "linker_set_key" : "libunwind::EHABISectionIterator<libunwind::LocalAddressSpace> &",
   "name" : "libunwind::EHABISectionIterator<libunwind::LocalAddressSpace> &",
   "referenced_type" : "type-3308",
   "self_type" : "type-3311",
   "size" : 4,
   "source_file" : "/external/libunwind_llvm/src/UnwindCursor.hpp"
  },
  {
   "alignment" : 4,
   "linker_set_key" : "libunwind::LocalAddressSpace &",
   "name" : "libunwind::LocalAddressSpace &",
   "referenced_type" : "type-3225",
   "self_type" : "type-3302",
   "size" : 4,
   "source_file" : "/external/libunwind_llvm/src/UnwindCursor.hpp"
  },
  {
   "alignment" : 4,
   "linker_set_key" : "libunwind::UnwindInfoSections &",
   "name" : "libunwind::UnwindInfoSections &",
   "referenced_type" : "type-3224",
   "self_type" : "type-3227",
   "size" : 4,
   "source_file" : "/external/libunwind_llvm/src/AddressSpace.hpp"
  },
  {
   "alignment" : 4,
   "linker_set_key" : "long &",
   "name" : "long &",
   "referenced_type" : "type-606",
   "self_type" : "type-3589",
   "size" : 4,
   "source_file" : "/external/libcxx/include/type_traits"
  },
  {
   "alignment" : 4,
   "linker_set_key" : "long double &",
   "name" : "long double &",
   "referenced_type" : "type-3",
   "self_type" : "type-3593",
   "size" : 4,
   "source_file" : "/external/libcxx/include/type_traits"
  },
  {
   "alignment" : 4,
   "linker_set_key" : "long long &",
   "name" : "long long &",
   "referenced_type" : "type-2",
   "self_type" : "type-3585",
   "size" : 4,
   "source_file" : "/external/libcxx/include/type_traits"
  },
  {
   "alignment" : 4,
   "linker_set_key" : "mbstate_t &",
   "name" : "mbstate_t &",
   "referenced_type" : "type-1893",
   "self_type" : "type-2480",
   "size" : 4,
   "source_file" : "/external/libcxx/include/__locale"
  },
  {
   "alignment" : 4,
   "linker_set_key" : "sk_sp<SkColorSpace> &",
   "name" : "sk_sp<SkColorSpace> &",
   "referenced_type" : "type-737",
   "self_type" : "type-736",
   "size" : 4,
   "source_file" : "/external/libcxx/include/type_traits"
  },
  {
   "alignment" : 4,
   "linker_set_key" : "std::__compressed_pair_elem<char *, 0, false> &",
   "name" : "std::__compressed_pair_elem<char *, 0, false> &",
   "referenced_type" : "type-636",
   "self_type" : "type-3619",
   "size" : 4,
   "source_file" : "/external/libcxx/include/type_traits"
  },
  {
   "alignment" : 4,
   "linker_set_key" : "std::__compressed_pair_elem<std::allocator<char16_t>, 1, true> &",
   "name" : "std::__compressed_pair_elem<std::allocator<char16_t>, 1, true> &",
   "referenced_type" : "type-573",
   "self_type" : "type-3665",
   "size" : 4,
   "source_file" : "/external/libcxx/include/type_traits"
  },
  {
   "alignment" : 4,
   "linker_set_key" : "std::__compressed_pair_elem<std::allocator<char32_t>, 1, true> &",
   "name" : "std::__compressed_pair_elem<std::allocator<char32_t>, 1, true> &",
   "referenced_type" : "type-591",
   "self_type" : "type-3675",
   "size" : 4,
   "source_file" : "/external/libcxx/include/type_traits"
  },
  {
   "alignment" : 4,
   "linker_set_key" : "std::__compressed_pair_elem<std::allocator<char>, 1, true> &",
   "name" : "std::__compressed_pair_elem<std::allocator<char>, 1, true> &",
   "referenced_type" : "type-662",
   "self_type" : "type-3644",
   "size" : 4,
   "source_file" : "/external/libcxx/include/type_traits"
  },
  {
   "alignment" : 4,
   "linker_set_key" : "std::__compressed_pair_elem<std::allocator<wchar_t>, 1, true> &",
   "name" : "std::__compressed_pair_elem<std::allocator<wchar_t>, 1, true> &",
   "referenced_type" : "type-680",
   "self_type" : "type-3655",
   "size" : 4,
   "source_file" : "/external/libcxx/include/type_traits"
  },
  {
   "alignment" : 4,
   "linker_set_key" : "std::__compressed_pair_elem<std::basic_string<char16_t, char_traits<char16_t>, allocator<char16_t> >::__rep, 0, false> &",
   "name" : "std::__compressed_pair_elem<std::basic_string<char16_t, char_traits<char16_t>, allocator<char16_t> >::__rep, 0, false> &",
   "referenced_type" : "type-560",
   "self_type" : "type-3663",
   "size" : 4,
   "source_file" : "/external/libcxx/include/type_traits"
  },
  {
   "alignment" : 4,
   "linker_set_key" : "std::__compressed_pair_elem<std::basic_string<char32_t, char_traits<char32_t>, allocator<char32_t> >::__rep, 0, false> &",
   "name" : "std::__compressed_pair_elem<std::basic_string<char32_t, char_traits<char32_t>, allocator<char32_t> >::__rep, 0, false> &",
   "referenced_type" : "type-578",
   "self_type" : "type-3673",
   "size" : 4,
   "source_file" : "/external/libcxx/include/type_traits"
  },
  {
   "alignment" : 4,
   "linker_set_key" : "std::__compressed_pair_elem<std::basic_string<char>::__rep, 0, false> &",
   "name" : "std::__compressed_pair_elem<std::basic_string<char>::__rep, 0, false> &",
   "referenced_type" : "type-652",
   "self_type" : "type-3642",
   "size" : 4,
   "source_file" : "/external/libcxx/include/type_traits"
  },
  {
   "alignment" : 4,
   "linker_set_key" : "std::__compressed_pair_elem<std::basic_string<wchar_t>::__rep, 0, false> &",
   "name" : "std::__compressed_pair_elem<std::basic_string<wchar_t>::__rep, 0, false> &",
   "referenced_type" : "type-668",
   "self_type" : "type-3653",
   "size" : 4,
   "source_file" : "/external/libcxx/include/type_traits"
  },
  {
   "alignment" : 4,
   "linker_set_key" : "std::__compressed_pair_elem<unsigned char *, 0, false> &",
   "name" : "std::__compressed_pair_elem<unsigned char *, 0, false> &",
   "referenced_type" : "type-622",
   "self_type" : "type-3606",
   "size" : 4,
   "source_file" : "/external/libcxx/include/type_traits"
  },
  {
   "alignment" : 4,
   "linker_set_key" : "std::__compressed_pair_elem<unsigned int *, 0, false> &",
   "name" : "std::__compressed_pair_elem<unsigned int *, 0, false> &",
   "referenced_type" : "type-644",
   "self_type" : "type-3630",
   "size" : 4,
   "source_file" : "/external/libcxx/include/type_traits"
  },
  {
   "alignment" : 4,
   "linker_set_key" : "std::__compressed_pair_elem<void (*)(void *), 1, false> &",
   "name" : "std::__compressed_pair_elem<void (*)(void *), 1, false> &",
   "referenced_type" : "type-625",
   "self_type" : "type-3608",
   "size" : 4,
   "source_file" : "/external/libcxx/include/type_traits"
  },
  {
   "alignment" : 4,
   "linker_set_key" : "std::__sfinae_assign_base<false, true> &",
   "name" : "std::__sfinae_assign_base<false, true> &",
   "referenced_type" : "type-1643",
   "self_type" : "type-1648",
   "size" : 4,
   "source_file" : "/external/libcxx/include/__tuple"
  },
  {
   "alignment" : 4,
   "linker_set_key" : "std::__sfinae_assign_base<true, false> &",
   "name" : "std::__sfinae_assign_base<true, false> &",
   "referenced_type" : "type-1637",
   "self_type" : "type-1642",
   "size" : 4,
   "source_file" : "/external/libcxx/include/__tuple"
  },
  {
   "alignment" : 4,
   "linker_set_key" : "std::__sfinae_ctor_base<false, false> &",
   "name" : "std::__sfinae_ctor_base<false, false> &",
   "referenced_type" : "type-1614",
   "self_type" : "type-1616",
   "size" : 4,
   "source_file" : "/external/libcxx/include/__tuple"
  },
  {
   "alignment" : 4,
   "linker_set_key" : "std::__sfinae_ctor_base<false, true> &",
   "name" : "std::__sfinae_ctor_base<false, true> &",
   "referenced_type" : "type-1626",
   "self_type" : "type-1629",
   "size" : 4,
   "source_file" : "/external/libcxx/include/__tuple"
  },
  {
   "alignment" : 4,
   "linker_set_key" : "std::__sfinae_ctor_base<true, false> &",
   "name" : "std::__sfinae_ctor_base<true, false> &",
   "referenced_type" : "type-1620",
   "self_type" : "type-1624",
   "size" : 4,
   "source_file" : "/external/libcxx/include/__tuple"
  },
  {
   "alignment" : 4,
   "linker_set_key" : "std::allocator<char16_t> &",
   "name" : "std::allocator<char16_t> &",
   "referenced_type" : "type-574",
   "self_type" : "type-1912",
   "size" : 4,
   "source_file" : "/external/libcxx/include/string"
  },
  {
   "alignment" : 4,
   "linker_set_key" : "std::allocator<char32_t> &",
   "name" : "std::allocator<char32_t> &",
   "referenced_type" : "type-592",
   "self_type" : "type-1920",
   "size" : 4,
   "source_file" : "/external/libcxx/include/string"
  },
  {
   "alignment" : 4,
   "linker_set_key" : "std::allocator<char> &",
   "name" : "std::allocator<char> &",
   "referenced_type" : "type-663",
   "self_type" : "type-2066",
   "size" : 4,
   "source_file" : "/external/libcxx/include/memory"
  },
  {
   "alignment" : 4,
   "linker_set_key" : "std::allocator<wchar_t> &",
   "name" : "std::allocator<wchar_t> &",
   "referenced_type" : "type-681",
   "self_type" : "type-2069",
   "size" : 4,
   "source_file" : "/external/libcxx/include/memory"
  },
  {
   "alignment" : 4,
   "linker_set_key" : "std::basic_ostream<char, std::char_traits<char> > &",
   "name" : "std::basic_ostream<char, std::char_traits<char> > &",
   "referenced_type" : "type-2541",
   "self_type" : "type-2645",
   "size" : 4,
   "source_file" : "/external/libcxx/include/ostream"
  },
  {
   "alignment" : 4,
   "linker_set_key" : "std::basic_ostream<wchar_t, std::char_traits<wchar_t> > &",
   "name" : "std::basic_ostream<wchar_t, std::char_traits<wchar_t> > &",
   "referenced_type" : "type-2544",
   "self_type" : "type-2647",
   "size" : 4,
   "source_file" : "/external/libcxx/include/ostream"
  },
  {
   "alignment" : 4,
   "linker_set_key" : "std::basic_string<char16_t, char_traits<char16_t>, allocator<char16_t> >::__rep &",
   "name" : "std::basic_string<char16_t, char_traits<char16_t>, allocator<char16_t> >::__rep &",
   "referenced_type" : "type-561",
   "self_type" : "type-2079",
   "size" : 4,
   "source_file" : "/external/libcxx/include/memory"
  },
  {
   "alignment" : 4,
   "linker_set_key" : "std::basic_string<char32_t, char_traits<char32_t>, allocator<char32_t> >::__rep &",
   "name" : "std::basic_string<char32_t, char_traits<char32_t>, allocator<char32_t> >::__rep &",
   "referenced_type" : "type-579",
   "self_type" : "type-2082",
   "size" : 4,
   "source_file" : "/external/libcxx/include/memory"
  },
  {
   "alignment" : 4,
   "linker_set_key" : "std::basic_string<char>::__rep &",
   "name" : "std::basic_string<char>::__rep &",
   "referenced_type" : "type-653",
   "self_type" : "type-2073",
   "size" : 4,
   "source_file" : "/external/libcxx/include/memory"
  },
  {
   "alignment" : 4,
   "linker_set_key" : "std::basic_string<wchar_t>::__rep &",
   "name" : "std::basic_string<wchar_t>::__rep &",
   "referenced_type" : "type-669",
   "self_type" : "type-2076",
   "size" : 4,
   "source_file" : "/external/libcxx/include/memory"
  },
  {
   "alignment" : 4,
   "linker_set_key" : "std::basic_string_view<char, std::char_traits<char> > &",
   "name" : "std::basic_string_view<char, std::char_traits<char> > &",
   "referenced_type" : "type-973",
   "self_type" : "type-2200",
   "size" : 4,
   "source_file" : "/external/libcxx/include/string_view"
  },
  {
   "alignment" : 4,
   "linker_set_key" : "std::basic_string_view<char16_t, std::char_traits<char16_t> > &",
   "name" : "std::basic_string_view<char16_t, std::char_traits<char16_t> > &",
   "referenced_type" : "type-983",
   "self_type" : "type-2204",
   "size" : 4,
   "source_file" : "/external/libcxx/include/string_view"
  },
  {
   "alignment" : 4,
   "linker_set_key" : "std::basic_string_view<char32_t, std::char_traits<char32_t> > &",
   "name" : "std::basic_string_view<char32_t, std::char_traits<char32_t> > &",
   "referenced_type" : "type-989",
   "self_type" : "type-2208",
   "size" : 4,
   "source_file" : "/external/libcxx/include/string_view"
  },
  {
   "alignment" : 4,
   "linker_set_key" : "std::basic_string_view<wchar_t, std::char_traits<wchar_t> > &",
   "name" : "std::basic_string_view<wchar_t, std::char_traits<wchar_t> > &",
   "referenced_type" : "type-977",
   "self_type" : "type-2212",
   "size" : 4,
   "source_file" : "/external/libcxx/include/string_view"
  },
  {
   "alignment" : 4,
   "linker_set_key" : "std::byte &",
   "name" : "std::byte &",
   "referenced_type" : "type-2710",
   "self_type" : "type-2711",
   "size" : 4,
   "source_file" : "/external/libcxx/include/cstddef"
  },
  {
   "alignment" : 4,
   "linker_set_key" : "std::error_code &",
   "name" : "std::error_code &",
   "referenced_type" : "type-1689",
   "self_type" : "type-2839",
   "size" : 4,
   "source_file" : "/external/libcxx/include/type_traits"
  },
  {
   "alignment" : 4,
   "linker_set_key" : "std::ios_base &",
   "name" : "std::ios_base &",
   "referenced_type" : "type-2522",
   "self_type" : "type-2527",
   "size" : 4,
   "source_file" : "/external/libcxx/include/ios"
  },
  {
   "alignment" : 4,
   "linker_set_key" : "std::tuple<> &",
   "name" : "std::tuple<> &",
   "referenced_type" : "type-1932",
   "self_type" : "type-1934",
   "size" : 4,
   "source_file" : "/external/libcxx/include/tuple"
  },
  {
   "alignment" : 4,
   "linker_set_key" : "unsigned char &",
   "name" : "unsigned char &",
   "referenced_type" : "type-38",
   "self_type" : "type-3598",
   "size" : 4,
   "source_file" : "/external/libcxx/include/type_traits"
  },
  {
   "alignment" : 4,
   "linker_set_key" : "unsigned int &",
   "name" : "unsigned int &",
   "referenced_type" : "type-555",
   "self_type" : "type-3625",
   "size" : 4,
   "source_file" : "/external/libcxx/include/type_traits"
  },
  {
   "alignment" : 4,
   "linker_set_key" : "wchar_t &",
   "name" : "wchar_t &",
   "referenced_type" : "type-673",
   "self_type" : "type-2842",
   "size" : 4,
   "source_file" : "/external/libcxx/include/type_traits"
  },
  {
   "alignment" : 4,
   "linker_set_key" : "wchar_t *&",
   "name" : "wchar_t *&",
   "referenced_type" : "type-672",
   "self_type" : "type-2487",
   "size" : 4,
   "source_file" : "/external/libcxx/include/__locale"
  }
 ],
 "pointer_types" :
 [
  {
   "alignment" : 4,
   "linker_set_key" : "AndroidBitmapInfo *",
   "name" : "AndroidBitmapInfo *",
   "referenced_type" : "type-2708",
   "self_type" : "type-2709",
   "size" : 4,
   "source_file" : "/frameworks/native/include/android/bitmap.h"
  },
  {
   "alignment" : 4,
   "linker_set_key" : "JavaVMOption *",
   "name" : "JavaVMOption *",
   "referenced_type" : "type-2704",
   "self_type" : "type-2706",
   "size" : 4,
   "source_file" : "/libnativehelper/include_jni/jni.h"
  },
  {
   "alignment" : 4,
   "linker_set_key" : "SkBitmap *",
   "name" : "SkBitmap *",
   "referenced_type" : "type-2690",
   "self_type" : "type-2695",
   "size" : 4,
   "source_file" : "/external/skia/include/core/SkBitmap.h"
  },
  {
   "alignment" : 4,
   "linker_set_key" : "SkColorSpace *",
   "name" : "SkColorSpace *",
   "referenced_type" : "type-739",
   "self_type" : "type-738",
   "size" : 4,
   "source_file" : "/external/libcxx/include/type_traits"
  },
  {
   "alignment" : 4,
   "linker_set_key" : "SkIPoint *",
   "name" : "SkIPoint *",
   "referenced_type" : "type-1784",
   "self_type" : "type-1787",
   "size" : 4,
   "source_file" : "/external/skia/include/core/SkPoint.h"
  },
  {
   "alignment" : 4,
   "linker_set_key" : "SkIRect *",
   "name" : "SkIRect *",
   "referenced_type" : "type-1805",
   "self_type" : "type-1809",
   "size" : 4,
   "source_file" : "/external/skia/include/core/SkRect.h"
  },
  {
   "alignment" : 4,
   "linker_set_key" : "SkISize *",
   "name" : "SkISize *",
   "referenced_type" : "type-1795",
   "self_type" : "type-1796",
   "size" : 4,
   "source_file" : "/external/skia/include/core/SkSize.h"
  },
  {
   "alignment" : 4,
   "linker_set_key" : "SkImageInfo *",
   "name" : "SkImageInfo *",
   "referenced_type" : "type-2675",
   "self_type" : "type-2676",
   "size" : 4,
   "source_file" : "/external/skia/include/core/SkImageInfo.h"
  },
  {
   "alignment" : 4,
   "linker_set_key" : "SkMatrix *",
   "name" : "SkMatrix *",
   "referenced_type" : "type-1816",
   "self_type" : "type-1820",
   "size" : 4,
   "source_file" : "/external/skia/include/core/SkMatrix.h"
  },
  {
   "alignment" : 4,
   "linker_set_key" : "SkMatrix44 *",
   "name" : "SkMatrix44 *",
   "referenced_type" : "type-1836",
   "self_type" : "type-1840",
   "size" : 4,
   "source_file" : "/external/skia/include/core/SkMatrix44.h"
  },
  {
   "alignment" : 4,
   "linker_set_key" : "SkNVRefCnt<SkColorSpace> *",
   "name" : "SkNVRefCnt<SkColorSpace> *",
   "referenced_type" : "type-747",
   "self_type" : "type-2653",
   "size" : 4,
   "source_file" : "/external/skia/include/core/SkRefCnt.h"
  },
  {
   "alignment" : 4,
   "linker_set_key" : "SkOnce *",
   "name" : "SkOnce *",
   "referenced_type" : "type-742",
   "self_type" : "type-1764",
   "size" : 4,
   "source_file" : "/external/skia/include/private/SkOnce.h"
  },
  {
   "alignment" : 4,
   "linker_set_key" : "SkPixelRef *",
   "name" : "SkPixelRef *",
   "referenced_type" : "type-2662",
   "self_type" : "type-2661",
   "size" : 4,
   "source_file" : "/external/skia/include/core/SkRefCnt.h"
  },
  {
   "alignment" : 4,
   "linker_set_key" : "SkPixmap *",
   "name" : "SkPixmap *",
   "referenced_type" : "type-2683",
   "self_type" : "type-2684",
   "size" : 4,
   "source_file" : "/external/skia/include/core/SkPixmap.h"
  },
  {
   "alignment" : 4,
   "linker_set_key" : "SkPoint *",
   "name" : "SkPoint *",
   "referenced_type" : "type-1789",
   "self_type" : "type-1792",
   "size" : 4,
   "source_file" : "/external/skia/include/core/SkPoint.h"
  },
  {
   "alignment" : 4,
   "linker_set_key" : "SkRect *",
   "name" : "SkRect *",
   "referenced_type" : "type-1811",
   "self_type" : "type-1815",
   "size" : 4,
   "source_file" : "/external/skia/include/core/SkRect.h"
  },
  {
   "alignment" : 4,
   "linker_set_key" : "SkRefCntBase *",
   "name" : "SkRefCntBase *",
   "referenced_type" : "type-2648",
   "self_type" : "type-2649",
   "size" : 4,
   "source_file" : "/external/skia/include/core/SkRefCnt.h"
  },
  {
   "alignment" : 4,
   "linker_set_key" : "SkSize *",
   "name" : "SkSize *",
   "referenced_type" : "type-1799",
   "self_type" : "type-1802",
   "size" : 4,
   "source_file" : "/external/skia/include/core/SkSize.h"
  },
  {
   "alignment" : 4,
   "linker_set_key" : "SkVector4 *",
   "name" : "SkVector4 *",
   "referenced_type" : "type-1831",
   "self_type" : "type-1832",
   "size" : 4,
   "source_file" : "/external/skia/include/core/SkMatrix44.h"
  },
  {
   "alignment" : 4,
   "linker_set_key" : "_JNIEnv *",
   "name" : "_JNIEnv *",
   "referenced_type" : "type-5",
   "self_type" : "type-4",
   "size" : 4,
   "source_file" : "/libnativehelper/include_jni/jni.h"
  },
  {
   "alignment" : 4,
   "linker_set_key" : "_JNIEnv **",
   "name" : "_JNIEnv **",
   "referenced_type" : "type-4",
   "self_type" : "type-531",
   "size" : 4,
   "source_file" : "/libnativehelper/include_jni/jni.h"
  },
  {
   "alignment" : 4,
   "linker_set_key" : "_JavaVM *",
   "name" : "_JavaVM *",
   "referenced_type" : "type-523",
   "self_type" : "type-522",
   "size" : 4,
   "source_file" : "/libnativehelper/include_jni/jni.h"
  },
  {
   "alignment" : 4,
   "linker_set_key" : "_JavaVM **",
   "name" : "_JavaVM **",
   "referenced_type" : "type-522",
   "self_type" : "type-521",
   "size" : 4,
   "source_file" : "/libnativehelper/include_jni/jni.h"
  },
  {
   "alignment" : 4,
   "linker_set_key" : "_Unwind_Context *",
   "name" : "_Unwind_Context *",
   "referenced_type" : "type-3366",
   "self_type" : "type-3365",
   "size" : 4,
   "source_file" : "/external/libunwind_llvm/include/unwind.h"
  },
  {
   "alignment" : 4,
   "linker_set_key" : "_Unwind_Context *",
   "name" : "_Unwind_Context *",
   "referenced_type" : "type-3395",
   "self_type" : "type-3394",
   "size" : 4,
   "source_file" : "/external/libunwind_llvm/include/unwind.h"
  },
  {
   "alignment" : 4,
   "linker_set_key" : "_Unwind_Context *",
   "name" : "_Unwind_Context *",
   "referenced_type" : "type-3401",
   "self_type" : "type-3400",
   "size" : 4,
   "source_file" : "/external/libunwind_llvm/include/unwind.h"
  },
  {
   "alignment" : 4,
   "linker_set_key" : "_Unwind_Control_Block *",
   "name" : "_Unwind_Control_Block *",
   "referenced_type" : "type-3358",
   "self_type" : "type-3361",
   "size" : 4,
   "source_file" : "/external/libunwind_llvm/include/unwind.h"
  },
  {
   "alignment" : 4,
   "linker_set_key" : "_Unwind_Control_Block *",
   "name" : "_Unwind_Control_Block *",
   "referenced_type" : "type-3373",
   "self_type" : "type-3372",
   "size" : 4,
   "source_file" : "/external/libunwind_llvm/include/unwind.h"
  },
  {
   "alignment" : 4,
   "linker_set_key" : "_Unwind_Reason_Code (*)(_Unwind_Context *, void *)",
   "name" : "_Unwind_Reason_Code (*)(_Unwind_Context *, void *)",
   "referenced_type" : "type-3393",
   "self_type" : "type-3396",
   "size" : 4,
   "source_file" : "/external/libunwind_llvm/include/unwind.h"
  },
  {
   "alignment" : 4,
   "linker_set_key" : "__locale_t *",
   "name" : "__locale_t *",
   "referenced_type" : "type-1283",
   "self_type" : "type-1282",
   "size" : 4,
   "source_file" : "/bionic/libc/include/string.h"
  },
  {
   "alignment" : 4,
   "linker_set_key" : "__pthread_cleanup_t *",
   "name" : "__pthread_cleanup_t *",
   "referenced_type" : "type-2419",
   "self_type" : "type-2420",
   "size" : 4,
   "source_file" : "/bionic/libc/include/pthread.h"
  },
  {
   "alignment" : 4,
   "linker_set_key" : "__pthread_cleanup_t *",
   "name" : "__pthread_cleanup_t *",
   "referenced_type" : "type-3294",
   "self_type" : "type-3295",
   "size" : 4,
   "source_file" : "/out/soong/ndk/sysroot/usr/include/pthread.h"
  },
  {
   "alignment" : 4,
   "linker_set_key" : "__sFILE *",
   "name" : "__sFILE *",
   "referenced_type" : "type-1847",
   "self_type" : "type-1846",
   "size" : 4,
   "source_file" : "/bionic/libc/include/stdio.h"
  },
  {
   "alignment" : 4,
   "linker_set_key" : "_jarray *",
   "name" : "_jarray *",
   "referenced_type" : "type-386",
   "self_type" : "type-385",
   "size" : 4,
   "source_file" : "/libnativehelper/include_jni/jni.h"
  },
  {
   "alignment" : 4,
   "linker_set_key" : "_jbooleanArray *",
   "name" : "_jbooleanArray *",
   "referenced_type" : "type-398",
   "self_type" : "type-397",
   "size" : 4,
   "source_file" : "/libnativehelper/include_jni/jni.h"
  },
  {
   "alignment" : 4,
   "linker_set_key" : "_jbooleanArray *(*)(_JNIEnv *, int)",
   "name" : "_jbooleanArray *(*)(_JNIEnv *, int)",
   "referenced_type" : "type-396",
   "self_type" : "type-395",
   "size" : 4,
   "source_file" : "/libnativehelper/include_jni/jni.h"
  },
  {
   "alignment" : 4,
   "linker_set_key" : "_jbyteArray *",
   "name" : "_jbyteArray *",
   "referenced_type" : "type-402",
   "self_type" : "type-401",
   "size" : 4,
   "source_file" : "/libnativehelper/include_jni/jni.h"
  },
  {
   "alignment" : 4,
   "linker_set_key" : "_jbyteArray *(*)(_JNIEnv *, int)",
   "name" : "_jbyteArray *(*)(_JNIEnv *, int)",
   "referenced_type" : "type-400",
   "self_type" : "type-399",
   "size" : 4,
   "source_file" : "/libnativehelper/include_jni/jni.h"
  },
  {
   "alignment" : 4,
   "linker_set_key" : "_jcharArray *",
   "name" : "_jcharArray *",
   "referenced_type" : "type-406",
   "self_type" : "type-405",
   "size" : 4,
   "source_file" : "/libnativehelper/include_jni/jni.h"
  },
  {
   "alignment" : 4,
   "linker_set_key" : "_jcharArray *(*)(_JNIEnv *, int)",
   "name" : "_jcharArray *(*)(_JNIEnv *, int)",
   "referenced_type" : "type-404",
   "self_type" : "type-403",
   "size" : 4,
   "source_file" : "/libnativehelper/include_jni/jni.h"
  },
  {
   "alignment" : 4,
   "linker_set_key" : "_jclass *",
   "name" : "_jclass *",
   "referenced_type" : "type-17",
   "self_type" : "type-16",
   "size" : 4,
   "source_file" : "/libnativehelper/include_jni/jni.h"
  },
  {
   "alignment" : 4,
   "linker_set_key" : "_jclass *(*)(_JNIEnv *, _jclass *)",
   "name" : "_jclass *(*)(_JNIEnv *, _jclass *)",
   "referenced_type" : "type-40",
   "self_type" : "type-39",
   "size" : 4,
   "source_file" : "/libnativehelper/include_jni/jni.h"
  },
  {
   "alignment" : 4,
   "linker_set_key" : "_jclass *(*)(_JNIEnv *, _jobject *)",
   "name" : "_jclass *(*)(_JNIEnv *, _jobject *)",
   "referenced_type" : "type-82",
   "self_type" : "type-81",
   "size" : 4,
   "source_file" : "/libnativehelper/include_jni/jni.h"
  },
  {
   "alignment" : 4,
   "linker_set_key" : "_jclass *(*)(_JNIEnv *, const char *)",
   "name" : "_jclass *(*)(_JNIEnv *, const char *)",
   "referenced_type" : "type-27",
   "self_type" : "type-26",
   "size" : 4,
   "source_file" : "/libnativehelper/include_jni/jni.h"
  },
  {
   "alignment" : 4,
   "linker_set_key" : "_jclass *(*)(_JNIEnv *, const char *, _jobject *, const signed char *, int)",
   "name" : "_jclass *(*)(_JNIEnv *, const char *, _jobject *, const signed char *, int)",
   "referenced_type" : "type-15",
   "self_type" : "type-14",
   "size" : 4,
   "source_file" : "/libnativehelper/include_jni/jni.h"
  },
  {
   "alignment" : 4,
   "linker_set_key" : "_jdoubleArray *",
   "name" : "_jdoubleArray *",
   "referenced_type" : "type-426",
   "self_type" : "type-425",
   "size" : 4,
   "source_file" : "/libnativehelper/include_jni/jni.h"
  },
  {
   "alignment" : 4,
   "linker_set_key" : "_jdoubleArray *(*)(_JNIEnv *, int)",
   "name" : "_jdoubleArray *(*)(_JNIEnv *, int)",
   "referenced_type" : "type-424",
   "self_type" : "type-423",
   "size" : 4,
   "source_file" : "/libnativehelper/include_jni/jni.h"
  },
  {
   "alignment" : 4,
   "linker_set_key" : "_jfieldID *",
   "name" : "_jfieldID *",
   "referenced_type" : "type-35",
   "self_type" : "type-34",
   "size" : 4,
   "source_file" : "/libnativehelper/include_jni/jni.h"
  },
  {
   "alignment" : 4,
   "linker_set_key" : "_jfieldID *(*)(_JNIEnv *, _jclass *, const char *, const char *)",
   "name" : "_jfieldID *(*)(_JNIEnv *, _jclass *, const char *, const char *)",
   "referenced_type" : "type-228",
   "self_type" : "type-227",
   "size" : 4,
   "source_file" : "/libnativehelper/include_jni/jni.h"
  },
  {
   "alignment" : 4,
   "linker_set_key" : "_jfieldID *(*)(_JNIEnv *, _jobject *)",
   "name" : "_jfieldID *(*)(_JNIEnv *, _jobject *)",
   "referenced_type" : "type-33",
   "self_type" : "type-32",
   "size" : 4,
   "source_file" : "/libnativehelper/include_jni/jni.h"
  },
  {
   "alignment" : 4,
   "linker_set_key" : "_jfloatArray *",
   "name" : "_jfloatArray *",
   "referenced_type" : "type-422",
   "self_type" : "type-421",
   "size" : 4,
   "source_file" : "/libnativehelper/include_jni/jni.h"
  },
  {
   "alignment" : 4,
   "linker_set_key" : "_jfloatArray *(*)(_JNIEnv *, int)",
   "name" : "_jfloatArray *(*)(_JNIEnv *, int)",
   "referenced_type" : "type-420",
   "self_type" : "type-419",
   "size" : 4,
   "source_file" : "/libnativehelper/include_jni/jni.h"
  },
  {
   "alignment" : 4,
   "linker_set_key" : "_jintArray *",
   "name" : "_jintArray *",
   "referenced_type" : "type-414",
   "self_type" : "type-413",
   "size" : 4,
   "source_file" : "/libnativehelper/include_jni/jni.h"
  },
  {
   "alignment" : 4,
   "linker_set_key" : "_jintArray *(*)(_JNIEnv *, int)",
   "name" : "_jintArray *(*)(_JNIEnv *, int)",
   "referenced_type" : "type-412",
   "self_type" : "type-411",
   "size" : 4,
   "source_file" : "/libnativehelper/include_jni/jni.h"
  },
  {
   "alignment" : 4,
   "linker_set_key" : "_jlongArray *",
   "name" : "_jlongArray *",
   "referenced_type" : "type-418",
   "self_type" : "type-417",
   "size" : 4,
   "source_file" : "/libnativehelper/include_jni/jni.h"
  },
  {
   "alignment" : 4,
   "linker_set_key" : "_jlongArray *(*)(_JNIEnv *, int)",
   "name" : "_jlongArray *(*)(_JNIEnv *, int)",
   "referenced_type" : "type-416",
   "self_type" : "type-415",
   "size" : 4,
   "source_file" : "/libnativehelper/include_jni/jni.h"
  },
  {
   "alignment" : 4,
   "linker_set_key" : "_jmethodID *",
   "name" : "_jmethodID *",
   "referenced_type" : "type-31",
   "self_type" : "type-30",
   "size" : 4,
   "source_file" : "/libnativehelper/include_jni/jni.h"
  },
  {
   "alignment" : 4,
   "linker_set_key" : "_jmethodID *(*)(_JNIEnv *, _jclass *, const char *, const char *)",
   "name" : "_jmethodID *(*)(_JNIEnv *, _jclass *, const char *, const char *)",
   "referenced_type" : "type-86",
   "self_type" : "type-85",
   "size" : 4,
   "source_file" : "/libnativehelper/include_jni/jni.h"
  },
  {
   "alignment" : 4,
   "linker_set_key" : "_jmethodID *(*)(_JNIEnv *, _jobject *)",
   "name" : "_jmethodID *(*)(_JNIEnv *, _jobject *)",
   "referenced_type" : "type-29",
   "self_type" : "type-28",
   "size" : 4,
   "source_file" : "/libnativehelper/include_jni/jni.h"
  },
  {
   "alignment" : 4,
   "linker_set_key" : "_jobject *",
   "name" : "_jobject *",
   "referenced_type" : "type-18",
   "self_type" : "type-22",
   "size" : 4,
   "source_file" : "/libnativehelper/include_jni/jni.h"
  },
  {
   "alignment" : 4,
   "linker_set_key" : "_jobject *(*)(_JNIEnv *, _jclass *)",
   "name" : "_jobject *(*)(_JNIEnv *, _jclass *)",
   "referenced_type" : "type-66",
   "self_type" : "type-65",
   "size" : 4,
   "source_file" : "/libnativehelper/include_jni/jni.h"
  },
  {
   "alignment" : 4,
   "linker_set_key" : "_jobject *(*)(_JNIEnv *, _jclass *, _jfieldID *)",
   "name" : "_jobject *(*)(_JNIEnv *, _jclass *, _jfieldID *)",
   "referenced_type" : "type-329",
   "self_type" : "type-328",
   "size" : 4,
   "source_file" : "/libnativehelper/include_jni/jni.h"
  },
  {
   "alignment" : 4,
   "linker_set_key" : "_jobject *(*)(_JNIEnv *, _jclass *, _jfieldID *, unsigned char)",
   "name" : "_jobject *(*)(_JNIEnv *, _jclass *, _jfieldID *, unsigned char)",
   "referenced_type" : "type-44",
   "self_type" : "type-43",
   "size" : 4,
   "source_file" : "/libnativehelper/include_jni/jni.h"
  },
  {
   "alignment" : 4,
   "linker_set_key" : "_jobject *(*)(_JNIEnv *, _jclass *, _jmethodID *, ...)",
   "name" : "_jobject *(*)(_JNIEnv *, _jclass *, _jmethodID *, ...)",
   "referenced_type" : "type-68",
   "self_type" : "type-67",
   "size" : 4,
   "source_file" : "/libnativehelper/include_jni/jni.h"
  },
  {
   "alignment" : 4,
   "linker_set_key" : "_jobject *(*)(_JNIEnv *, _jclass *, _jmethodID *, const jvalue *)",
   "name" : "_jobject *(*)(_JNIEnv *, _jclass *, _jmethodID *, const jvalue *)",
   "referenced_type" : "type-73",
   "self_type" : "type-72",
   "size" : 4,
   "source_file" : "/libnativehelper/include_jni/jni.h"
  },
  {
   "alignment" : 4,
   "linker_set_key" : "_jobject *(*)(_JNIEnv *, _jclass *, _jmethodID *, std::__va_list)",
   "name" : "_jobject *(*)(_JNIEnv *, _jclass *, _jmethodID *, std::__va_list)",
   "referenced_type" : "type-70",
   "self_type" : "type-69",
   "size" : 4,
   "source_file" : "/libnativehelper/include_jni/jni.h"
  },
  {
   "alignment" : 4,
   "linker_set_key" : "_jobject *(*)(_JNIEnv *, _jclass *, _jmethodID *, unsigned char)",
   "name" : "_jobject *(*)(_JNIEnv *, _jclass *, _jmethodID *, unsigned char)",
   "referenced_type" : "type-37",
   "self_type" : "type-36",
   "size" : 4,
   "source_file" : "/libnativehelper/include_jni/jni.h"
  },
  {
   "alignment" : 4,
   "linker_set_key" : "_jobject *(*)(_JNIEnv *, _jobject *)",
   "name" : "_jobject *(*)(_JNIEnv *, _jobject *)",
   "referenced_type" : "type-60",
   "self_type" : "type-59",
   "size" : 4,
   "source_file" : "/libnativehelper/include_jni/jni.h"
  },
  {
   "alignment" : 4,
   "linker_set_key" : "_jobject *(*)(_JNIEnv *, _jobject *, _jclass *, _jmethodID *, ...)",
   "name" : "_jobject *(*)(_JNIEnv *, _jobject *, _jclass *, _jmethodID *, ...)",
   "referenced_type" : "type-158",
   "self_type" : "type-157",
   "size" : 4,
   "source_file" : "/libnativehelper/include_jni/jni.h"
  },
  {
   "alignment" : 4,
   "linker_set_key" : "_jobject *(*)(_JNIEnv *, _jobject *, _jclass *, _jmethodID *, const jvalue *)",
   "name" : "_jobject *(*)(_JNIEnv *, _jobject *, _jclass *, _jmethodID *, const jvalue *)",
   "referenced_type" : "type-163",
   "self_type" : "type-162",
   "size" : 4,
   "source_file" : "/libnativehelper/include_jni/jni.h"
  },
  {
   "alignment" : 4,
   "linker_set_key" : "_jobject *(*)(_JNIEnv *, _jobject *, _jclass *, _jmethodID *, std::__va_list)",
   "name" : "_jobject *(*)(_JNIEnv *, _jobject *, _jclass *, _jmethodID *, std::__va_list)",
   "referenced_type" : "type-160",
   "self_type" : "type-159",
   "size" : 4,
   "source_file" : "/libnativehelper/include_jni/jni.h"
  },
  {
   "alignment" : 4,
   "linker_set_key" : "_jobject *(*)(_JNIEnv *, _jobject *, _jfieldID *)",
   "name" : "_jobject *(*)(_JNIEnv *, _jobject *, _jfieldID *)",
   "referenced_type" : "type-230",
   "self_type" : "type-229",
   "size" : 4,
   "source_file" : "/libnativehelper/include_jni/jni.h"
  },
  {
   "alignment" : 4,
   "linker_set_key" : "_jobject *(*)(_JNIEnv *, _jobject *, _jmethodID *, ...)",
   "name" : "_jobject *(*)(_JNIEnv *, _jobject *, _jmethodID *, ...)",
   "referenced_type" : "type-88",
   "self_type" : "type-87",
   "size" : 4,
   "source_file" : "/libnativehelper/include_jni/jni.h"
  },
  {
   "alignment" : 4,
   "linker_set_key" : "_jobject *(*)(_JNIEnv *, _jobject *, _jmethodID *, const jvalue *)",
   "name" : "_jobject *(*)(_JNIEnv *, _jobject *, _jmethodID *, const jvalue *)",
   "referenced_type" : "type-93",
   "self_type" : "type-92",
   "size" : 4,
   "source_file" : "/libnativehelper/include_jni/jni.h"
  },
  {
   "alignment" : 4,
   "linker_set_key" : "_jobject *(*)(_JNIEnv *, _jobject *, _jmethodID *, std::__va_list)",
   "name" : "_jobject *(*)(_JNIEnv *, _jobject *, _jmethodID *, std::__va_list)",
   "referenced_type" : "type-90",
   "self_type" : "type-89",
   "size" : 4,
   "source_file" : "/libnativehelper/include_jni/jni.h"
  },
  {
   "alignment" : 4,
   "linker_set_key" : "_jobject *(*)(_JNIEnv *, _jobjectArray *, int)",
   "name" : "_jobject *(*)(_JNIEnv *, _jobjectArray *, int)",
   "referenced_type" : "type-392",
   "self_type" : "type-391",
   "size" : 4,
   "source_file" : "/libnativehelper/include_jni/jni.h"
  },
  {
   "alignment" : 4,
   "linker_set_key" : "_jobject *(*)(_JNIEnv *, void *, long long)",
   "name" : "_jobject *(*)(_JNIEnv *, void *, long long)",
   "referenced_type" : "type-547",
   "self_type" : "type-546",
   "size" : 4,
   "source_file" : "/libnativehelper/include_jni/jni.h"
  },
  {
   "alignment" : 4,
   "linker_set_key" : "_jobjectArray *",
   "name" : "_jobjectArray *",
   "referenced_type" : "type-390",
   "self_type" : "type-389",
   "size" : 4,
   "source_file" : "/libnativehelper/include_jni/jni.h"
  },
  {
   "alignment" : 4,
   "linker_set_key" : "_jobjectArray *(*)(_JNIEnv *, int, _jclass *, _jobject *)",
   "name" : "_jobjectArray *(*)(_JNIEnv *, int, _jclass *, _jobject *)",
   "referenced_type" : "type-388",
   "self_type" : "type-387",
   "size" : 4,
   "source_file" : "/libnativehelper/include_jni/jni.h"
  },
  {
   "alignment" : 4,
   "linker_set_key" : "_jshortArray *",
   "name" : "_jshortArray *",
   "referenced_type" : "type-410",
   "self_type" : "type-409",
   "size" : 4,
   "source_file" : "/libnativehelper/include_jni/jni.h"
  },
  {
   "alignment" : 4,
   "linker_set_key" : "_jshortArray *(*)(_JNIEnv *, int)",
   "name" : "_jshortArray *(*)(_JNIEnv *, int)",
   "referenced_type" : "type-408",
   "self_type" : "type-407",
   "size" : 4,
   "source_file" : "/libnativehelper/include_jni/jni.h"
  },
  {
   "alignment" : 4,
   "linker_set_key" : "_jstring *",
   "name" : "_jstring *",
   "referenced_type" : "type-367",
   "self_type" : "type-366",
   "size" : 4,
   "source_file" : "/libnativehelper/include_jni/jni.h"
  },
  {
   "alignment" : 4,
   "linker_set_key" : "_jstring *(*)(_JNIEnv *, const char *)",
   "name" : "_jstring *(*)(_JNIEnv *, const char *)",
   "referenced_type" : "type-378",
   "self_type" : "type-377",
   "size" : 4,
   "source_file" : "/libnativehelper/include_jni/jni.h"
  },
  {
   "alignment" : 4,
   "linker_set_key" : "_jstring *(*)(_JNIEnv *, const unsigned short *, int)",
   "name" : "_jstring *(*)(_JNIEnv *, const unsigned short *, int)",
   "referenced_type" : "type-365",
   "self_type" : "type-364",
   "size" : 4,
   "source_file" : "/libnativehelper/include_jni/jni.h"
  },
  {
   "alignment" : 4,
   "linker_set_key" : "_jthrowable *",
   "name" : "_jthrowable *",
   "referenced_type" : "type-48",
   "self_type" : "type-47",
   "size" : 4,
   "source_file" : "/libnativehelper/include_jni/jni.h"
  },
  {
   "alignment" : 4,
   "linker_set_key" : "_jthrowable *(*)(_JNIEnv *)",
   "name" : "_jthrowable *(*)(_JNIEnv *)",
   "referenced_type" : "type-52",
   "self_type" : "type-51",
   "size" : 4,
   "source_file" : "/libnativehelper/include_jni/jni.h"
  },
  {
   "alignment" : 4,
   "linker_set_key" : "char *",
   "name" : "char *",
   "referenced_type" : "type-21",
   "self_type" : "type-539",
   "size" : 4,
   "source_file" : "/libnativehelper/include_jni/jni.h"
  },
  {
   "alignment" : 4,
   "linker_set_key" : "char **",
   "name" : "char **",
   "referenced_type" : "type-539",
   "self_type" : "type-1575",
   "size" : 4,
   "source_file" : "/bionic/libc/include/unistd.h"
  },
  {
   "alignment" : 4,
   "linker_set_key" : "char16_t *",
   "name" : "char16_t *",
   "referenced_type" : "type-565",
   "self_type" : "type-564",
   "size" : 4,
   "source_file" : "/external/libcxx/include/type_traits"
  },
  {
   "alignment" : 4,
   "linker_set_key" : "char32_t *",
   "name" : "char32_t *",
   "referenced_type" : "type-583",
   "self_type" : "type-582",
   "size" : 4,
   "source_file" : "/external/libcxx/include/type_traits"
  },
  {
   "alignment" : 4,
   "linker_set_key" : "const JNIInvokeInterface *",
   "name" : "const JNIInvokeInterface *",
   "referenced_type" : "type-525",
   "self_type" : "type-524",
   "size" : 4,
   "source_file" : "/libnativehelper/include_jni/jni.h"
  },
  {
   "alignment" : 4,
   "linker_set_key" : "const JNINativeInterface *",
   "name" : "const JNINativeInterface *",
   "referenced_type" : "type-7",
   "self_type" : "type-6",
   "size" : 4,
   "source_file" : "/libnativehelper/include_jni/jni.h"
  },
  {
   "alignment" : 4,
   "linker_set_key" : "const JNINativeMethod *",
   "name" : "const JNINativeMethod *",
   "referenced_type" : "type-513",
   "self_type" : "type-512",
   "size" : 4,
   "source_file" : "/libnativehelper/include_jni/jni.h"
  },
  {
   "alignment" : 4,
   "linker_set_key" : "const SkBitmap *",
   "name" : "const SkBitmap *",
   "referenced_type" : "type-2691",
   "self_type" : "type-2692",
   "size" : 4,
   "source_file" : "/external/skia/include/core/SkBitmap.h"
  },
  {
   "alignment" : 4,
   "linker_set_key" : "const SkColorSpace *",
   "name" : "const SkColorSpace *",
   "referenced_type" : "type-2670",
   "self_type" : "type-2671",
   "size" : 4,
   "source_file" : "/external/skia/include/core/SkColorSpace.h"
  },
  {
   "alignment" : 4,
   "linker_set_key" : "const SkIPoint *",
   "name" : "const SkIPoint *",
   "referenced_type" : "type-1785",
   "self_type" : "type-1786",
   "size" : 4,
   "source_file" : "/external/skia/include/core/SkPoint.h"
  },
  {
   "alignment" : 4,
   "linker_set_key" : "const SkIRect *",
   "name" : "const SkIRect *",
   "referenced_type" : "type-1806",
   "self_type" : "type-1807",
   "size" : 4,
   "source_file" : "/external/skia/include/core/SkRect.h"
  },
  {
   "alignment" : 4,
   "linker_set_key" : "const SkISize *",
   "name" : "const SkISize *",
   "referenced_type" : "type-1797",
   "self_type" : "type-1798",
   "size" : 4,
   "source_file" : "/external/skia/include/core/SkSize.h"
  },
  {
   "alignment" : 4,
   "linker_set_key" : "const SkImageInfo *",
   "name" : "const SkImageInfo *",
   "referenced_type" : "type-2677",
   "self_type" : "type-2678",
   "size" : 4,
   "source_file" : "/external/skia/include/core/SkImageInfo.h"
  },
  {
   "alignment" : 4,
   "linker_set_key" : "const SkMatrix *",
   "name" : "const SkMatrix *",
   "referenced_type" : "type-1818",
   "self_type" : "type-1819",
   "size" : 4,
   "source_file" : "/external/skia/include/core/SkMatrix.h"
  },
  {
   "alignment" : 4,
   "linker_set_key" : "const SkMatrix44 *",
   "name" : "const SkMatrix44 *",
   "referenced_type" : "type-1841",
   "self_type" : "type-1844",
   "size" : 4,
   "source_file" : "/external/skia/include/core/SkMatrix44.h"
  },
  {
   "alignment" : 4,
   "linker_set_key" : "const SkNVRefCnt<SkColorSpace> *",
   "name" : "const SkNVRefCnt<SkColorSpace> *",
   "referenced_type" : "type-2654",
   "self_type" : "type-2655",
   "size" : 4,
   "source_file" : "/external/skia/include/core/SkRefCnt.h"
  },
  {
   "alignment" : 4,
   "linker_set_key" : "const SkPaint *",
   "name" : "const SkPaint *",
   "referenced_type" : "type-2696",
   "self_type" : "type-2698",
   "size" : 4,
   "source_file" : "/external/skia/include/core/SkBitmap.h"
  },
  {
   "alignment" : 4,
   "linker_set_key" : "const SkPixmap *",
   "name" : "const SkPixmap *",
   "referenced_type" : "type-2685",
   "self_type" : "type-2686",
   "size" : 4,
   "source_file" : "/external/skia/include/core/SkPixmap.h"
  },
  {
   "alignment" : 4,
   "linker_set_key" : "const SkPoint *",
   "name" : "const SkPoint *",
   "referenced_type" : "type-1790",
   "self_type" : "type-1791",
   "size" : 4,
   "source_file" : "/external/skia/include/core/SkPoint.h"
  },
  {
   "alignment" : 4,
   "linker_set_key" : "const SkRect *",
   "name" : "const SkRect *",
   "referenced_type" : "type-1810",
   "self_type" : "type-1814",
   "size" : 4,
   "source_file" : "/external/skia/include/core/SkRect.h"
  },
  {
   "alignment" : 4,
   "linker_set_key" : "const SkRefCntBase *",
   "name" : "const SkRefCntBase *",
   "referenced_type" : "type-2650",
   "self_type" : "type-2651",
   "size" : 4,
   "source_file" : "/external/skia/include/core/SkRefCnt.h"
  },
  {
   "alignment" : 4,
   "linker_set_key" : "const SkSize *",
   "name" : "const SkSize *",
   "referenced_type" : "type-1803",
   "self_type" : "type-1804",
   "size" : 4,
   "source_file" : "/external/skia/include/core/SkSize.h"
  },
  {
   "alignment" : 4,
   "linker_set_key" : "const char *",
   "name" : "const char *",
   "referenced_type" : "type-20",
   "self_type" : "type-19",
   "size" : 4,
   "source_file" : "/libnativehelper/include_jni/jni.h"
  },
  {
   "alignment" : 4,
   "linker_set_key" : "const char *(*)(_JNIEnv *, _jstring *, unsigned char *)",
   "name" : "const char *(*)(_JNIEnv *, _jstring *, unsigned char *)",
   "referenced_type" : "type-380",
   "self_type" : "type-379",
   "size" : 4,
   "source_file" : "/libnativehelper/include_jni/jni.h"
  },
  {
   "alignment" : 4,
   "linker_set_key" : "const char **",
   "name" : "const char **",
   "referenced_type" : "type-19",
   "self_type" : "type-2547",
   "size" : 4,
   "source_file" : "/external/libcxx/include/__bsd_locale_fallbacks.h"
  },
  {
   "alignment" : 4,
   "linker_set_key" : "const char16_t *",
   "name" : "const char16_t *",
   "referenced_type" : "type-985",
   "self_type" : "type-984",
   "size" : 4,
   "source_file" : "/external/libcxx/include/type_traits"
  },
  {
   "alignment" : 4,
   "linker_set_key" : "const char32_t *",
   "name" : "const char32_t *",
   "referenced_type" : "type-991",
   "self_type" : "type-990",
   "size" : 4,
   "source_file" : "/external/libcxx/include/type_traits"
  },
  {
   "alignment" : 4,
   "linker_set_key" : "const double *",
   "name" : "const double *",
   "referenced_type" : "type-509",
   "self_type" : "type-508",
   "size" : 4,
   "source_file" : "/libnativehelper/include_jni/jni.h"
  },
  {
   "alignment" : 4,
   "linker_set_key" : "const elf32_phdr *",
   "name" : "const elf32_phdr *",
   "referenced_type" : "type-3219",
   "self_type" : "type-3218",
   "size" : 4,
   "source_file" : "/out/soong/ndk/sysroot/usr/include/link.h"
  },
  {
   "alignment" : 4,
   "linker_set_key" : "const float *",
   "name" : "const float *",
   "referenced_type" : "type-505",
   "self_type" : "type-504",
   "size" : 4,
   "source_file" : "/libnativehelper/include_jni/jni.h"
  },
  {
   "alignment" : 4,
   "linker_set_key" : "const int *",
   "name" : "const int *",
   "referenced_type" : "type-497",
   "self_type" : "type-496",
   "size" : 4,
   "source_file" : "/libnativehelper/include_jni/jni.h"
  },
  {
   "alignment" : 4,
   "linker_set_key" : "const jvalue *",
   "name" : "const jvalue *",
   "referenced_type" : "type-75",
   "self_type" : "type-74",
   "size" : 4,
   "source_file" : "/libnativehelper/include_jni/jni.h"
  },
  {
   "alignment" : 4,
   "linker_set_key" : "const libunwind::EHABISectionIterator<libunwind::LocalAddressSpace> *",
   "name" : "const libunwind::EHABISectionIterator<libunwind::LocalAddressSpace> *",
   "referenced_type" : "type-3312",
   "self_type" : "type-3314",
   "size" : 4,
   "source_file" : "/external/libunwind_llvm/src/UnwindCursor.hpp"
  },
  {
   "alignment" : 4,
   "linker_set_key" : "const libunwind::Registers_arm *",
   "name" : "const libunwind::Registers_arm *",
   "referenced_type" : "type-3154",
   "self_type" : "type-3155",
   "size" : 4,
   "source_file" : "/external/libunwind_llvm/src/Registers.hpp"
  },
  {
   "alignment" : 4,
   "linker_set_key" : "const libunwind::Registers_arm64 *",
   "name" : "const libunwind::Registers_arm64 *",
   "referenced_type" : "type-3146",
   "self_type" : "type-3147",
   "size" : 4,
   "source_file" : "/external/libunwind_llvm/src/Registers.hpp"
  },
  {
   "alignment" : 4,
   "linker_set_key" : "const libunwind::Registers_mips_newabi *",
   "name" : "const libunwind::Registers_mips_newabi *",
   "referenced_type" : "type-3170",
   "self_type" : "type-3171",
   "size" : 4,
   "source_file" : "/external/libunwind_llvm/src/Registers.hpp"
  },
  {
   "alignment" : 4,
   "linker_set_key" : "const libunwind::Registers_mips_o32 *",
   "name" : "const libunwind::Registers_mips_o32 *",
   "referenced_type" : "type-3165",
   "self_type" : "type-3166",
   "size" : 4,
   "source_file" : "/external/libunwind_llvm/src/Registers.hpp"
  },
  {
   "alignment" : 4,
   "linker_set_key" : "const libunwind::Registers_or1k *",
   "name" : "const libunwind::Registers_or1k *",
   "referenced_type" : "type-3160",
   "self_type" : "type-3161",
   "size" : 4,
   "source_file" : "/external/libunwind_llvm/src/Registers.hpp"
  },
  {
   "alignment" : 4,
   "linker_set_key" : "const libunwind::Registers_ppc *",
   "name" : "const libunwind::Registers_ppc *",
   "referenced_type" : "type-3129",
   "self_type" : "type-3133",
   "size" : 4,
   "source_file" : "/external/libunwind_llvm/src/Registers.hpp"
  },
  {
   "alignment" : 4,
   "linker_set_key" : "const libunwind::Registers_ppc64 *",
   "name" : "const libunwind::Registers_ppc64 *",
   "referenced_type" : "type-3140",
   "self_type" : "type-3141",
   "size" : 4,
   "source_file" : "/external/libunwind_llvm/src/Registers.hpp"
  },
  {
   "alignment" : 4,
   "linker_set_key" : "const libunwind::Registers_sparc *",
   "name" : "const libunwind::Registers_sparc *",
   "referenced_type" : "type-3175",
   "self_type" : "type-3176",
   "size" : 4,
   "source_file" : "/external/libunwind_llvm/src/Registers.hpp"
  },
  {
   "alignment" : 4,
   "linker_set_key" : "const libunwind::Registers_x86 *",
   "name" : "const libunwind::Registers_x86 *",
   "referenced_type" : "type-3113",
   "self_type" : "type-3114",
   "size" : 4,
   "source_file" : "/external/libunwind_llvm/src/Registers.hpp"
  },
  {
   "alignment" : 4,
   "linker_set_key" : "const libunwind::Registers_x86_64 *",
   "name" : "const libunwind::Registers_x86_64 *",
   "referenced_type" : "type-3121",
   "self_type" : "type-3122",
   "size" : 4,
   "source_file" : "/external/libunwind_llvm/src/Registers.hpp"
  },
  {
   "alignment" : 4,
   "linker_set_key" : "const libunwind::UnwindInfoSections *",
   "name" : "const libunwind::UnwindInfoSections *",
   "referenced_type" : "type-3305",
   "self_type" : "type-3309",
   "size" : 4,
   "source_file" : "/external/libunwind_llvm/src/UnwindCursor.hpp"
  },
  {
   "alignment" : 4,
   "linker_set_key" : "const long *",
   "name" : "const long *",
   "referenced_type" : "type-1243",
   "self_type" : "type-1959",
   "size" : 4,
   "source_file" : "/external/libcxx/include/memory"
  },
  {
   "alignment" : 4,
   "linker_set_key" : "const long long *",
   "name" : "const long long *",
   "referenced_type" : "type-501",
   "self_type" : "type-500",
   "size" : 4,
   "source_file" : "/libnativehelper/include_jni/jni.h"
  },
  {
   "alignment" : 4,
   "linker_set_key" : "const short *",
   "name" : "const short *",
   "referenced_type" : "type-493",
   "self_type" : "type-492",
   "size" : 4,
   "source_file" : "/libnativehelper/include_jni/jni.h"
  },
  {
   "alignment" : 4,
   "linker_set_key" : "const signed char *",
   "name" : "const signed char *",
   "referenced_type" : "type-24",
   "self_type" : "type-23",
   "size" : 4,
   "source_file" : "/libnativehelper/include_jni/jni.h"
  },
  {
   "alignment" : 4,
   "linker_set_key" : "const sk_sp<SkColorSpace> *",
   "name" : "const sk_sp<SkColorSpace> *",
   "referenced_type" : "type-2657",
   "self_type" : "type-2659",
   "size" : 4,
   "source_file" : "/external/skia/include/core/SkRefCnt.h"
  },
  {
   "alignment" : 4,
   "linker_set_key" : "const sk_sp<SkPixelRef> *",
   "name" : "const sk_sp<SkPixelRef> *",
   "referenced_type" : "type-2664",
   "self_type" : "type-2665",
   "size" : 4,
   "source_file" : "/external/skia/include/core/SkRefCnt.h"
  },
  {
   "alignment" : 4,
   "linker_set_key" : "const std::__atomic_base<int, false> *",
   "name" : "const std::__atomic_base<int, false> *",
   "referenced_type" : "type-1588",
   "self_type" : "type-1589",
   "size" : 4,
   "source_file" : "/external/libcxx/include/atomic"
  },
  {
   "alignment" : 4,
   "linker_set_key" : "const std::__atomic_base<unsigned int, false> *",
   "name" : "const std::__atomic_base<unsigned int, false> *",
   "referenced_type" : "type-1585",
   "self_type" : "type-1586",
   "size" : 4,
   "source_file" : "/external/libcxx/include/atomic"
  },
  {
   "alignment" : 4,
   "linker_set_key" : "const std::__bitset<0, 0> *",
   "name" : "const std::__bitset<0, 0> *",
   "referenced_type" : "type-2641",
   "self_type" : "type-2642",
   "size" : 4,
   "source_file" : "/external/libcxx/include/bitset"
  },
  {
   "alignment" : 4,
   "linker_set_key" : "const std::__compressed_pair<char *, void (*)(void *)> *",
   "name" : "const std::__compressed_pair<char *, void (*)(void *)> *",
   "referenced_type" : "type-639",
   "self_type" : "type-2785",
   "size" : 4,
   "source_file" : "/external/libcxx/include/type_traits"
  },
  {
   "alignment" : 4,
   "linker_set_key" : "const std::__compressed_pair<std::basic_string<char16_t, char_traits<char16_t>, allocator<char16_t> >::__rep, std::allocator<char16_t> > *",
   "name" : "const std::__compressed_pair<std::basic_string<char16_t, char_traits<char16_t>, allocator<char16_t> >::__rep, std::allocator<char16_t> > *",
   "referenced_type" : "type-2093",
   "self_type" : "type-2094",
   "size" : 4,
   "source_file" : "/external/libcxx/include/memory"
  },
  {
   "alignment" : 4,
   "linker_set_key" : "const std::__compressed_pair<std::basic_string<char32_t, char_traits<char32_t>, allocator<char32_t> >::__rep, std::allocator<char32_t> > *",
   "name" : "const std::__compressed_pair<std::basic_string<char32_t, char_traits<char32_t>, allocator<char32_t> >::__rep, std::allocator<char32_t> > *",
   "referenced_type" : "type-2096",
   "self_type" : "type-2097",
   "size" : 4,
   "source_file" : "/external/libcxx/include/memory"
  },
  {
   "alignment" : 4,
   "linker_set_key" : "const std::__compressed_pair<std::basic_string<char>::__rep, std::allocator<char> > *",
   "name" : "const std::__compressed_pair<std::basic_string<char>::__rep, std::allocator<char> > *",
   "referenced_type" : "type-2087",
   "self_type" : "type-2088",
   "size" : 4,
   "source_file" : "/external/libcxx/include/memory"
  },
  {
   "alignment" : 4,
   "linker_set_key" : "const std::__compressed_pair<std::basic_string<wchar_t>::__rep, std::allocator<wchar_t> > *",
   "name" : "const std::__compressed_pair<std::basic_string<wchar_t>::__rep, std::allocator<wchar_t> > *",
   "referenced_type" : "type-2090",
   "self_type" : "type-2091",
   "size" : 4,
   "source_file" : "/external/libcxx/include/memory"
  },
  {
   "alignment" : 4,
   "linker_set_key" : "const std::__compressed_pair<unsigned char *, void (*)(void *)> *",
   "name" : "const std::__compressed_pair<unsigned char *, void (*)(void *)> *",
   "referenced_type" : "type-631",
   "self_type" : "type-2779",
   "size" : 4,
   "source_file" : "/external/libcxx/include/type_traits"
  },
  {
   "alignment" : 4,
   "linker_set_key" : "const std::__compressed_pair<unsigned int *, void (*)(void *)> *",
   "name" : "const std::__compressed_pair<unsigned int *, void (*)(void *)> *",
   "referenced_type" : "type-648",
   "self_type" : "type-2791",
   "size" : 4,
   "source_file" : "/external/libcxx/include/type_traits"
  },
  {
   "alignment" : 4,
   "linker_set_key" : "const std::__compressed_pair_elem<char *, 0, false> *",
   "name" : "const std::__compressed_pair_elem<char *, 0, false> *",
   "referenced_type" : "type-635",
   "self_type" : "type-2781",
   "size" : 4,
   "source_file" : "/external/libcxx/include/type_traits"
  },
  {
   "alignment" : 4,
   "linker_set_key" : "const std::__compressed_pair_elem<std::allocator<char16_t>, 1, true> *",
   "name" : "const std::__compressed_pair_elem<std::allocator<char16_t>, 1, true> *",
   "referenced_type" : "type-687",
   "self_type" : "type-2815",
   "size" : 4,
   "source_file" : "/external/libcxx/include/type_traits"
  },
  {
   "alignment" : 4,
   "linker_set_key" : "const std::__compressed_pair_elem<std::allocator<char32_t>, 1, true> *",
   "name" : "const std::__compressed_pair_elem<std::allocator<char32_t>, 1, true> *",
   "referenced_type" : "type-590",
   "self_type" : "type-2823",
   "size" : 4,
   "source_file" : "/external/libcxx/include/type_traits"
  },
  {
   "alignment" : 4,
   "linker_set_key" : "const std::__compressed_pair_elem<std::allocator<char>, 1, true> *",
   "name" : "const std::__compressed_pair_elem<std::allocator<char>, 1, true> *",
   "referenced_type" : "type-661",
   "self_type" : "type-2799",
   "size" : 4,
   "source_file" : "/external/libcxx/include/type_traits"
  },
  {
   "alignment" : 4,
   "linker_set_key" : "const std::__compressed_pair_elem<std::allocator<wchar_t>, 1, true> *",
   "name" : "const std::__compressed_pair_elem<std::allocator<wchar_t>, 1, true> *",
   "referenced_type" : "type-679",
   "self_type" : "type-2807",
   "size" : 4,
   "source_file" : "/external/libcxx/include/type_traits"
  },
  {
   "alignment" : 4,
   "linker_set_key" : "const std::__compressed_pair_elem<std::basic_string<char16_t, char_traits<char16_t>, allocator<char16_t> >::__rep, 0, false> *",
   "name" : "const std::__compressed_pair_elem<std::basic_string<char16_t, char_traits<char16_t>, allocator<char16_t> >::__rep, 0, false> *",
   "referenced_type" : "type-685",
   "self_type" : "type-2813",
   "size" : 4,
   "source_file" : "/external/libcxx/include/type_traits"
  },
  {
   "alignment" : 4,
   "linker_set_key" : "const std::__compressed_pair_elem<std::basic_string<char32_t, char_traits<char32_t>, allocator<char32_t> >::__rep, 0, false> *",
   "name" : "const std::__compressed_pair_elem<std::basic_string<char32_t, char_traits<char32_t>, allocator<char32_t> >::__rep, 0, false> *",
   "referenced_type" : "type-577",
   "self_type" : "type-2821",
   "size" : 4,
   "source_file" : "/external/libcxx/include/type_traits"
  },
  {
   "alignment" : 4,
   "linker_set_key" : "const std::__compressed_pair_elem<std::basic_string<char>::__rep, 0, false> *",
   "name" : "const std::__compressed_pair_elem<std::basic_string<char>::__rep, 0, false> *",
   "referenced_type" : "type-651",
   "self_type" : "type-2797",
   "size" : 4,
   "source_file" : "/external/libcxx/include/type_traits"
  },
  {
   "alignment" : 4,
   "linker_set_key" : "const std::__compressed_pair_elem<std::basic_string<wchar_t>::__rep, 0, false> *",
   "name" : "const std::__compressed_pair_elem<std::basic_string<wchar_t>::__rep, 0, false> *",
   "referenced_type" : "type-667",
   "self_type" : "type-2805",
   "size" : 4,
   "source_file" : "/external/libcxx/include/type_traits"
  },
  {
   "alignment" : 4,
   "linker_set_key" : "const std::__compressed_pair_elem<unsigned char *, 0, false> *",
   "name" : "const std::__compressed_pair_elem<unsigned char *, 0, false> *",
   "referenced_type" : "type-621",
   "self_type" : "type-2771",
   "size" : 4,
   "source_file" : "/external/libcxx/include/type_traits"
  },
  {
   "alignment" : 4,
   "linker_set_key" : "const std::__compressed_pair_elem<unsigned int *, 0, false> *",
   "name" : "const std::__compressed_pair_elem<unsigned int *, 0, false> *",
   "referenced_type" : "type-643",
   "self_type" : "type-2787",
   "size" : 4,
   "source_file" : "/external/libcxx/include/type_traits"
  },
  {
   "alignment" : 4,
   "linker_set_key" : "const std::__compressed_pair_elem<void (*)(void *), 1, false> *",
   "name" : "const std::__compressed_pair_elem<void (*)(void *), 1, false> *",
   "referenced_type" : "type-624",
   "self_type" : "type-2773",
   "size" : 4,
   "source_file" : "/external/libcxx/include/type_traits"
  },
  {
   "alignment" : 4,
   "linker_set_key" : "const std::__function::__policy *",
   "name" : "const std::__function::__policy *",
   "referenced_type" : "type-2154",
   "self_type" : "type-2153",
   "size" : 4,
   "source_file" : "/external/libcxx/include/functional"
  },
  {
   "alignment" : 4,
   "linker_set_key" : "const std::__less<int, int> *",
   "name" : "const std::__less<int, int> *",
   "referenced_type" : "type-2181",
   "self_type" : "type-2182",
   "size" : 4,
   "source_file" : "/external/libcxx/include/algorithm"
  },
  {
   "alignment" : 4,
   "linker_set_key" : "const std::__less<unsigned int, unsigned int> *",
   "name" : "const std::__less<unsigned int, unsigned int> *",
   "referenced_type" : "type-2176",
   "self_type" : "type-2177",
   "size" : 4,
   "source_file" : "/external/libcxx/include/algorithm"
  },
  {
   "alignment" : 4,
   "linker_set_key" : "const std::__libcpp_refstring *",
   "name" : "const std::__libcpp_refstring *",
   "referenced_type" : "type-1941",
   "self_type" : "type-1942",
   "size" : 4,
   "source_file" : "/external/libcxx/include/stdexcept"
  },
  {
   "alignment" : 4,
   "linker_set_key" : "const std::__scalar_hash<double, 2> *",
   "name" : "const std::__scalar_hash<double, 2> *",
   "referenced_type" : "type-1706",
   "self_type" : "type-1707",
   "size" : 4,
   "source_file" : "/external/libcxx/include/utility"
  },
  {
   "alignment" : 4,
   "linker_set_key" : "const std::__scalar_hash<float, 1> *",
   "name" : "const std::__scalar_hash<float, 1> *",
   "referenced_type" : "type-1703",
   "self_type" : "type-1704",
   "size" : 4,
   "source_file" : "/external/libcxx/include/utility"
  },
  {
   "alignment" : 4,
   "linker_set_key" : "const std::__scalar_hash<long double, 2> *",
   "name" : "const std::__scalar_hash<long double, 2> *",
   "referenced_type" : "type-1709",
   "self_type" : "type-1710",
   "size" : 4,
   "source_file" : "/external/libcxx/include/utility"
  },
  {
   "alignment" : 4,
   "linker_set_key" : "const std::__scalar_hash<std::_PairT, 2> *",
   "name" : "const std::__scalar_hash<std::_PairT, 2> *",
   "referenced_type" : "type-1698",
   "self_type" : "type-1699",
   "size" : 4,
   "source_file" : "/external/libcxx/include/utility"
  },
  {
   "alignment" : 4,
   "linker_set_key" : "const std::__shared_count *",
   "name" : "const std::__shared_count *",
   "referenced_type" : "type-2106",
   "self_type" : "type-2107",
   "size" : 4,
   "source_file" : "/external/libcxx/include/memory"
  },
  {
   "alignment" : 4,
   "linker_set_key" : "const std::__shared_weak_count *",
   "name" : "const std::__shared_weak_count *",
   "referenced_type" : "type-2110",
   "self_type" : "type-2111",
   "size" : 4,
   "source_file" : "/external/libcxx/include/memory"
  },
  {
   "alignment" : 4,
   "linker_set_key" : "const std::allocator<char16_t> *",
   "name" : "const std::allocator<char16_t> *",
   "referenced_type" : "type-1901",
   "self_type" : "type-1902",
   "size" : 4,
   "source_file" : "/external/libcxx/include/memory"
  },
  {
   "alignment" : 4,
   "linker_set_key" : "const std::allocator<char32_t> *",
   "name" : "const std::allocator<char32_t> *",
   "referenced_type" : "type-1904",
   "self_type" : "type-1905",
   "size" : 4,
   "source_file" : "/external/libcxx/include/memory"
  },
  {
   "alignment" : 4,
   "linker_set_key" : "const std::allocator<char> *",
   "name" : "const std::allocator<char> *",
   "referenced_type" : "type-1895",
   "self_type" : "type-1896",
   "size" : 4,
   "source_file" : "/external/libcxx/include/memory"
  },
  {
   "alignment" : 4,
   "linker_set_key" : "const std::allocator<wchar_t> *",
   "name" : "const std::allocator<wchar_t> *",
   "referenced_type" : "type-1898",
   "self_type" : "type-1899",
   "size" : 4,
   "source_file" : "/external/libcxx/include/memory"
  },
  {
   "alignment" : 4,
   "linker_set_key" : "const std::basic_string<char, std::char_traits<char>, std::allocator<char> > *",
   "name" : "const std::basic_string<char, std::char_traits<char>, std::allocator<char> > *",
   "referenced_type" : "type-1043",
   "self_type" : "type-2221",
   "size" : 4,
   "source_file" : "/external/libcxx/include/string"
  },
  {
   "alignment" : 4,
   "linker_set_key" : "const std::basic_string<char16_t, std::char_traits<char16_t>, std::allocator<char16_t> > *",
   "name" : "const std::basic_string<char16_t, std::char_traits<char16_t>, std::allocator<char16_t> > *",
   "referenced_type" : "type-1910",
   "self_type" : "type-1911",
   "size" : 4,
   "source_file" : "/external/libcxx/include/string"
  },
  {
   "alignment" : 4,
   "linker_set_key" : "const std::basic_string<char32_t, std::char_traits<char32_t>, std::allocator<char32_t> > *",
   "name" : "const std::basic_string<char32_t, std::char_traits<char32_t>, std::allocator<char32_t> > *",
   "referenced_type" : "type-1918",
   "self_type" : "type-1919",
   "size" : 4,
   "source_file" : "/external/libcxx/include/string"
  },
  {
   "alignment" : 4,
   "linker_set_key" : "const std::basic_string<wchar_t, std::char_traits<wchar_t>, std::allocator<wchar_t> > *",
   "name" : "const std::basic_string<wchar_t, std::char_traits<wchar_t>, std::allocator<wchar_t> > *",
   "referenced_type" : "type-1050",
   "self_type" : "type-2224",
   "size" : 4,
   "source_file" : "/external/libcxx/include/string"
  },
  {
   "alignment" : 4,
   "linker_set_key" : "const std::chrono::__duration_cast<std::chrono::duration<long long, std::ratio<1, 1000000000> >, std::chrono::duration<long double, std::ratio<1, 1000000000> >, std::ratio<1, 1>, true, true> *",
   "name" : "const std::chrono::__duration_cast<std::chrono::duration<long long, std::ratio<1, 1000000000> >, std::chrono::duration<long double, std::ratio<1, 1000000000> >, std::ratio<1, 1>, true, true> *",
   "referenced_type" : "type-2341",
   "self_type" : "type-2342",
   "size" : 4,
   "source_file" : "/external/libcxx/include/chrono"
  },
  {
   "alignment" : 4,
   "linker_set_key" : "const std::chrono::__duration_cast<std::chrono::duration<long long, std::ratio<1, 1000000000> >, std::chrono::duration<long long, std::ratio<1, 1> >, std::ratio<1, 1000000000>, true, false> *",
   "name" : "const std::chrono::__duration_cast<std::chrono::duration<long long, std::ratio<1, 1000000000> >, std::chrono::duration<long long, std::ratio<1, 1> >, std::ratio<1, 1000000000>, true, false> *",
   "referenced_type" : "type-2335",
   "self_type" : "type-2336",
   "size" : 4,
   "source_file" : "/external/libcxx/include/chrono"
  },
  {
   "alignment" : 4,
   "linker_set_key" : "const std::chrono::__duration_cast<std::chrono::duration<long long, std::ratio<1, 1> >, std::chrono::duration<long long, std::ratio<1, 1000000000> >, std::ratio<1000000000, 1>, false, true> *",
   "name" : "const std::chrono::__duration_cast<std::chrono::duration<long long, std::ratio<1, 1> >, std::chrono::duration<long long, std::ratio<1, 1000000000> >, std::ratio<1000000000, 1>, false, true> *",
   "referenced_type" : "type-2338",
   "self_type" : "type-2339",
   "size" : 4,
   "source_file" : "/external/libcxx/include/chrono"
  },
  {
   "alignment" : 4,
   "linker_set_key" : "const std::chrono::duration<long double, std::ratio<1, 1000000000> > *",
   "name" : "const std::chrono::duration<long double, std::ratio<1, 1000000000> > *",
   "referenced_type" : "type-2325",
   "self_type" : "type-2326",
   "size" : 4,
   "source_file" : "/external/libcxx/include/chrono"
  },
  {
   "alignment" : 4,
   "linker_set_key" : "const std::chrono::duration<long long, std::ratio<1, 1000000000> > *",
   "name" : "const std::chrono::duration<long long, std::ratio<1, 1000000000> > *",
   "referenced_type" : "type-2296",
   "self_type" : "type-2297",
   "size" : 4,
   "source_file" : "/external/libcxx/include/chrono"
  },
  {
   "alignment" : 4,
   "linker_set_key" : "const std::chrono::duration<long long, std::ratio<1, 1> > *",
   "name" : "const std::chrono::duration<long long, std::ratio<1, 1> > *",
   "referenced_type" : "type-2294",
   "self_type" : "type-2304",
   "size" : 4,
   "source_file" : "/external/libcxx/include/chrono"
  },
  {
   "alignment" : 4,
   "linker_set_key" : "const std::chrono::time_point<std::chrono::steady_clock, std::chrono::duration<long long, std::ratio<1, 1000000000> > > *",
   "name" : "const std::chrono::time_point<std::chrono::steady_clock, std::chrono::duration<long long, std::ratio<1, 1000000000> > > *",
   "referenced_type" : "type-2366",
   "self_type" : "type-2367",
   "size" : 4,
   "source_file" : "/external/libcxx/include/chrono"
  },
  {
   "alignment" : 4,
   "linker_set_key" : "const std::chrono::time_point<std::chrono::system_clock, std::chrono::duration<long long, std::ratio<1, 1000000000> > > *",
   "name" : "const std::chrono::time_point<std::chrono::system_clock, std::chrono::duration<long long, std::ratio<1, 1000000000> > > *",
   "referenced_type" : "type-2375",
   "self_type" : "type-2376",
   "size" : 4,
   "source_file" : "/external/libcxx/include/chrono"
  },
  {
   "alignment" : 4,
   "linker_set_key" : "const std::chrono::time_point<std::filesystem::_FilesystemClock, std::chrono::duration<long long, std::ratio<1, 1000000000> > > *",
   "name" : "const std::chrono::time_point<std::filesystem::_FilesystemClock, std::chrono::duration<long long, std::ratio<1, 1000000000> > > *",
   "referenced_type" : "type-2371",
   "self_type" : "type-2372",
   "size" : 4,
   "source_file" : "/external/libcxx/include/chrono"
  },
  {
   "alignment" : 4,
   "linker_set_key" : "const std::codecvt<char, char, mbstate_t> *",
   "name" : "const std::codecvt<char, char, mbstate_t> *",
   "referenced_type" : "type-2478",
   "self_type" : "type-2479",
   "size" : 4,
   "source_file" : "/external/libcxx/include/__locale"
  },
  {
   "alignment" : 4,
   "linker_set_key" : "const std::codecvt<char16_t, char, mbstate_t> *",
   "name" : "const std::codecvt<char16_t, char, mbstate_t> *",
   "referenced_type" : "type-2490",
   "self_type" : "type-2491",
   "size" : 4,
   "source_file" : "/external/libcxx/include/__locale"
  },
  {
   "alignment" : 4,
   "linker_set_key" : "const std::codecvt<char32_t, char, mbstate_t> *",
   "name" : "const std::codecvt<char32_t, char, mbstate_t> *",
   "referenced_type" : "type-2496",
   "self_type" : "type-2497",
   "size" : 4,
   "source_file" : "/external/libcxx/include/__locale"
  },
  {
   "alignment" : 4,
   "linker_set_key" : "const std::codecvt<wchar_t, char, mbstate_t> *",
   "name" : "const std::codecvt<wchar_t, char, mbstate_t> *",
   "referenced_type" : "type-2484",
   "self_type" : "type-2485",
   "size" : 4,
   "source_file" : "/external/libcxx/include/__locale"
  },
  {
   "alignment" : 4,
   "linker_set_key" : "const std::ctype<char> *",
   "name" : "const std::ctype<char> *",
   "referenced_type" : "type-2469",
   "self_type" : "type-2470",
   "size" : 4,
   "source_file" : "/external/libcxx/include/__locale"
  },
  {
   "alignment" : 4,
   "linker_set_key" : "const std::ctype<wchar_t> *",
   "name" : "const std::ctype<wchar_t> *",
   "referenced_type" : "type-2464",
   "self_type" : "type-2465",
   "size" : 4,
   "source_file" : "/external/libcxx/include/__locale"
  },
  {
   "alignment" : 4,
   "linker_set_key" : "const std::error_category *",
   "name" : "const std::error_category *",
   "referenced_type" : "type-1691",
   "self_type" : "type-1690",
   "size" : 4,
   "source_file" : "/external/libcxx/include/system_error"
  },
  {
   "alignment" : 4,
   "linker_set_key" : "const std::error_code *",
   "name" : "const std::error_code *",
   "referenced_type" : "type-2404",
   "self_type" : "type-2405",
   "size" : 4,
   "source_file" : "/external/libcxx/include/system_error"
  },
  {
   "alignment" : 4,
   "linker_set_key" : "const std::error_condition *",
   "name" : "const std::error_condition *",
   "referenced_type" : "type-2400",
   "self_type" : "type-2401",
   "size" : 4,
   "source_file" : "/external/libcxx/include/system_error"
  },
  {
   "alignment" : 4,
   "linker_set_key" : "const std::exception_ptr *",
   "name" : "const std::exception_ptr *",
   "referenced_type" : "type-1870",
   "self_type" : "type-1871",
   "size" : 4,
   "source_file" : "/external/libcxx/include/exception"
  },
  {
   "alignment" : 4,
   "linker_set_key" : "const std::hash<bool> *",
   "name" : "const std::hash<bool> *",
   "referenced_type" : "type-1712",
   "self_type" : "type-1713",
   "size" : 4,
   "source_file" : "/external/libcxx/include/utility"
  },
  {
   "alignment" : 4,
   "linker_set_key" : "const std::hash<char16_t> *",
   "name" : "const std::hash<char16_t> *",
   "referenced_type" : "type-1724",
   "self_type" : "type-1725",
   "size" : 4,
   "source_file" : "/external/libcxx/include/utility"
  },
  {
   "alignment" : 4,
   "linker_set_key" : "const std::hash<char32_t> *",
   "name" : "const std::hash<char32_t> *",
   "referenced_type" : "type-1727",
   "self_type" : "type-1728",
   "size" : 4,
   "source_file" : "/external/libcxx/include/utility"
  },
  {
   "alignment" : 4,
   "linker_set_key" : "const std::hash<char> *",
   "name" : "const std::hash<char> *",
   "referenced_type" : "type-1715",
   "self_type" : "type-1716",
   "size" : 4,
   "source_file" : "/external/libcxx/include/utility"
  },
  {
   "alignment" : 4,
   "linker_set_key" : "const std::hash<double> *",
   "name" : "const std::hash<double> *",
   "referenced_type" : "type-1756",
   "self_type" : "type-1757",
   "size" : 4,
   "source_file" : "/external/libcxx/include/utility"
  },
  {
   "alignment" : 4,
   "linker_set_key" : "const std::hash<float> *",
   "name" : "const std::hash<float> *",
   "referenced_type" : "type-1753",
   "self_type" : "type-1754",
   "size" : 4,
   "source_file" : "/external/libcxx/include/utility"
  },
  {
   "alignment" : 4,
   "linker_set_key" : "const std::hash<int> *",
   "name" : "const std::hash<int> *",
   "referenced_type" : "type-1739",
   "self_type" : "type-1740",
   "size" : 4,
   "source_file" : "/external/libcxx/include/utility"
  },
  {
   "alignment" : 4,
   "linker_set_key" : "const std::hash<long double> *",
   "name" : "const std::hash<long double> *",
   "referenced_type" : "type-1759",
   "self_type" : "type-1760",
   "size" : 4,
   "source_file" : "/external/libcxx/include/utility"
  },
  {
   "alignment" : 4,
   "linker_set_key" : "const std::hash<long> *",
   "name" : "const std::hash<long> *",
   "referenced_type" : "type-1745",
   "self_type" : "type-1746",
   "size" : 4,
   "source_file" : "/external/libcxx/include/utility"
  },
  {
   "alignment" : 4,
   "linker_set_key" : "const std::hash<nullptr_t> *",
   "name" : "const std::hash<nullptr_t> *",
   "referenced_type" : "type-1762",
   "self_type" : "type-1763",
   "size" : 4,
   "source_file" : "/external/libcxx/include/utility"
  },
  {
   "alignment" : 4,
   "linker_set_key" : "const std::hash<short> *",
   "name" : "const std::hash<short> *",
   "referenced_type" : "type-1733",
   "self_type" : "type-1734",
   "size" : 4,
   "source_file" : "/external/libcxx/include/utility"
  },
  {
   "alignment" : 4,
   "linker_set_key" : "const std::hash<signed char> *",
   "name" : "const std::hash<signed char> *",
   "referenced_type" : "type-1718",
   "self_type" : "type-1719",
   "size" : 4,
   "source_file" : "/external/libcxx/include/utility"
  },
  {
   "alignment" : 4,
   "linker_set_key" : "const std::hash<std::error_code> *",
   "name" : "const std::hash<std::error_code> *",
   "referenced_type" : "type-2408",
   "self_type" : "type-2409",
   "size" : 4,
   "source_file" : "/external/libcxx/include/system_error"
  },
  {
   "alignment" : 4,
   "linker_set_key" : "const std::hash<std::error_condition> *",
   "name" : "const std::hash<std::error_condition> *",
   "referenced_type" : "type-2411",
   "self_type" : "type-2412",
   "size" : 4,
   "source_file" : "/external/libcxx/include/system_error"
  },
  {
   "alignment" : 4,
   "linker_set_key" : "const std::hash<unsigned char> *",
   "name" : "const std::hash<unsigned char> *",
   "referenced_type" : "type-1721",
   "self_type" : "type-1722",
   "size" : 4,
   "source_file" : "/external/libcxx/include/utility"
  },
  {
   "alignment" : 4,
   "linker_set_key" : "const std::hash<unsigned int> *",
   "name" : "const std::hash<unsigned int> *",
   "referenced_type" : "type-1742",
   "self_type" : "type-1743",
   "size" : 4,
   "source_file" : "/external/libcxx/include/utility"
  },
  {
   "alignment" : 4,
   "linker_set_key" : "const std::hash<unsigned long> *",
   "name" : "const std::hash<unsigned long> *",
   "referenced_type" : "type-1748",
   "self_type" : "type-1749",
   "size" : 4,
   "source_file" : "/external/libcxx/include/utility"
  },
  {
   "alignment" : 4,
   "linker_set_key" : "const std::hash<unsigned short> *",
   "name" : "const std::hash<unsigned short> *",
   "referenced_type" : "type-1736",
   "self_type" : "type-1737",
   "size" : 4,
   "source_file" : "/external/libcxx/include/utility"
  },
  {
   "alignment" : 4,
   "linker_set_key" : "const std::hash<wchar_t> *",
   "name" : "const std::hash<wchar_t> *",
   "referenced_type" : "type-1730",
   "self_type" : "type-1731",
   "size" : 4,
   "source_file" : "/external/libcxx/include/utility"
  },
  {
   "alignment" : 4,
   "linker_set_key" : "const std::ios_base *",
   "name" : "const std::ios_base *",
   "referenced_type" : "type-2530",
   "self_type" : "type-2531",
   "size" : 4,
   "source_file" : "/external/libcxx/include/ios"
  },
  {
   "alignment" : 4,
   "linker_set_key" : "const std::locale *",
   "name" : "const std::locale *",
   "referenced_type" : "type-2449",
   "self_type" : "type-2450",
   "size" : 4,
   "source_file" : "/external/libcxx/include/__locale"
  },
  {
   "alignment" : 4,
   "linker_set_key" : "const std::nested_exception *",
   "name" : "const std::nested_exception *",
   "referenced_type" : "type-1874",
   "self_type" : "type-1875",
   "size" : 4,
   "source_file" : "/external/libcxx/include/exception"
  },
  {
   "alignment" : 4,
   "linker_set_key" : "const std::numpunct<char> *",
   "name" : "const std::numpunct<char> *",
   "referenced_type" : "type-2515",
   "self_type" : "type-2516",
   "size" : 4,
   "source_file" : "/external/libcxx/include/__locale"
  },
  {
   "alignment" : 4,
   "linker_set_key" : "const std::numpunct<wchar_t> *",
   "name" : "const std::numpunct<wchar_t> *",
   "referenced_type" : "type-2518",
   "self_type" : "type-2519",
   "size" : 4,
   "source_file" : "/external/libcxx/include/__locale"
  },
  {
   "alignment" : 4,
   "linker_set_key" : "const std::pointer_safety *",
   "name" : "const std::pointer_safety *",
   "referenced_type" : "type-2119",
   "self_type" : "type-2120",
   "size" : 4,
   "source_file" : "/external/libcxx/include/memory"
  },
  {
   "alignment" : 4,
   "linker_set_key" : "const std::system_error *",
   "name" : "const std::system_error *",
   "referenced_type" : "type-2414",
   "self_type" : "type-2415",
   "size" : 4,
   "source_file" : "/external/libcxx/include/system_error"
  },
  {
   "alignment" : 4,
   "linker_set_key" : "const std::type_info *",
   "name" : "const std::type_info *",
   "referenced_type" : "type-1878",
   "self_type" : "type-1879",
   "size" : 4,
   "source_file" : "/external/libcxx/include/typeinfo"
  },
  {
   "alignment" : 4,
   "linker_set_key" : "const tm *",
   "name" : "const tm *",
   "referenced_type" : "type-1891",
   "self_type" : "type-1892",
   "size" : 4,
   "source_file" : "/bionic/libc/include/time.h"
  },
  {
   "alignment" : 4,
   "linker_set_key" : "const unsigned char *",
   "name" : "const unsigned char *",
   "referenced_type" : "type-485",
   "self_type" : "type-484",
   "size" : 4,
   "source_file" : "/libnativehelper/include_jni/jni.h"
  },
  {
   "alignment" : 4,
   "linker_set_key" : "const unsigned int *",
   "name" : "const unsigned int *",
   "referenced_type" : "type-2179",
   "self_type" : "type-2630",
   "size" : 4,
   "source_file" : "/external/libcxx/include/type_traits"
  },
  {
   "alignment" : 4,
   "linker_set_key" : "const unsigned long *",
   "name" : "const unsigned long *",
   "referenced_type" : "type-1246",
   "self_type" : "type-2468",
   "size" : 4,
   "source_file" : "/external/libcxx/include/__locale"
  },
  {
   "alignment" : 4,
   "linker_set_key" : "const unsigned long long *",
   "name" : "const unsigned long long *",
   "referenced_type" : "type-1248",
   "self_type" : "type-2687",
   "size" : 4,
   "source_file" : "/external/skia/include/core/SkPixmap.h"
  },
  {
   "alignment" : 4,
   "linker_set_key" : "const unsigned short *",
   "name" : "const unsigned short *",
   "referenced_type" : "type-369",
   "self_type" : "type-368",
   "size" : 4,
   "source_file" : "/libnativehelper/include_jni/jni.h"
  },
  {
   "alignment" : 4,
   "linker_set_key" : "const unsigned short *(*)(_JNIEnv *, _jstring *, unsigned char *)",
   "name" : "const unsigned short *(*)(_JNIEnv *, _jstring *, unsigned char *)",
   "referenced_type" : "type-373",
   "self_type" : "type-372",
   "size" : 4,
   "source_file" : "/libnativehelper/include_jni/jni.h"
  },
  {
   "alignment" : 4,
   "linker_set_key" : "const void *",
   "name" : "const void *",
   "referenced_type" : "type-1285",
   "self_type" : "type-1284",
   "size" : 4,
   "source_file" : "/bionic/libc/include/string.h"
  },
  {
   "alignment" : 4,
   "linker_set_key" : "const wchar_t *",
   "name" : "const wchar_t *",
   "referenced_type" : "type-979",
   "self_type" : "type-978",
   "size" : 4,
   "source_file" : "/external/libcxx/include/type_traits"
  },
  {
   "alignment" : 4,
   "linker_set_key" : "const wchar_t **",
   "name" : "const wchar_t **",
   "referenced_type" : "type-978",
   "self_type" : "type-2545",
   "size" : 4,
   "source_file" : "/external/libcxx/include/__bsd_locale_fallbacks.h"
  },
  {
   "alignment" : 4,
   "linker_set_key" : "double (*)(_JNIEnv *, _jclass *, _jfieldID *)",
   "name" : "double (*)(_JNIEnv *, _jclass *, _jfieldID *)",
   "referenced_type" : "type-345",
   "self_type" : "type-344",
   "size" : 4,
   "source_file" : "/libnativehelper/include_jni/jni.h"
  },
  {
   "alignment" : 4,
   "linker_set_key" : "double (*)(_JNIEnv *, _jclass *, _jmethodID *, ...)",
   "name" : "double (*)(_JNIEnv *, _jclass *, _jmethodID *, ...)",
   "referenced_type" : "type-315",
   "self_type" : "type-314",
   "size" : 4,
   "source_file" : "/libnativehelper/include_jni/jni.h"
  },
  {
   "alignment" : 4,
   "linker_set_key" : "double (*)(_JNIEnv *, _jclass *, _jmethodID *, const jvalue *)",
   "name" : "double (*)(_JNIEnv *, _jclass *, _jmethodID *, const jvalue *)",
   "referenced_type" : "type-320",
   "self_type" : "type-319",
   "size" : 4,
   "source_file" : "/libnativehelper/include_jni/jni.h"
  },
  {
   "alignment" : 4,
   "linker_set_key" : "double (*)(_JNIEnv *, _jclass *, _jmethodID *, std::__va_list)",
   "name" : "double (*)(_JNIEnv *, _jclass *, _jmethodID *, std::__va_list)",
   "referenced_type" : "type-317",
   "self_type" : "type-316",
   "size" : 4,
   "source_file" : "/libnativehelper/include_jni/jni.h"
  },
  {
   "alignment" : 4,
   "linker_set_key" : "double (*)(_JNIEnv *, _jobject *, _jclass *, _jmethodID *, ...)",
   "name" : "double (*)(_JNIEnv *, _jobject *, _jclass *, _jmethodID *, ...)",
   "referenced_type" : "type-214",
   "self_type" : "type-213",
   "size" : 4,
   "source_file" : "/libnativehelper/include_jni/jni.h"
  },
  {
   "alignment" : 4,
   "linker_set_key" : "double (*)(_JNIEnv *, _jobject *, _jclass *, _jmethodID *, const jvalue *)",
   "name" : "double (*)(_JNIEnv *, _jobject *, _jclass *, _jmethodID *, const jvalue *)",
   "referenced_type" : "type-219",
   "self_type" : "type-218",
   "size" : 4,
   "source_file" : "/libnativehelper/include_jni/jni.h"
  },
  {
   "alignment" : 4,
   "linker_set_key" : "double (*)(_JNIEnv *, _jobject *, _jclass *, _jmethodID *, std::__va_list)",
   "name" : "double (*)(_JNIEnv *, _jobject *, _jclass *, _jmethodID *, std::__va_list)",
   "referenced_type" : "type-216",
   "self_type" : "type-215",
   "size" : 4,
   "source_file" : "/libnativehelper/include_jni/jni.h"
  },
  {
   "alignment" : 4,
   "linker_set_key" : "double (*)(_JNIEnv *, _jobject *, _jfieldID *)",
   "name" : "double (*)(_JNIEnv *, _jobject *, _jfieldID *)",
   "referenced_type" : "type-246",
   "self_type" : "type-245",
   "size" : 4,
   "source_file" : "/libnativehelper/include_jni/jni.h"
  },
  {
   "alignment" : 4,
   "linker_set_key" : "double (*)(_JNIEnv *, _jobject *, _jmethodID *, ...)",
   "name" : "double (*)(_JNIEnv *, _jobject *, _jmethodID *, ...)",
   "referenced_type" : "type-144",
   "self_type" : "type-143",
   "size" : 4,
   "source_file" : "/libnativehelper/include_jni/jni.h"
  },
  {
   "alignment" : 4,
   "linker_set_key" : "double (*)(_JNIEnv *, _jobject *, _jmethodID *, const jvalue *)",
   "name" : "double (*)(_JNIEnv *, _jobject *, _jmethodID *, const jvalue *)",
   "referenced_type" : "type-149",
   "self_type" : "type-148",
   "size" : 4,
   "source_file" : "/libnativehelper/include_jni/jni.h"
  },
  {
   "alignment" : 4,
   "linker_set_key" : "double (*)(_JNIEnv *, _jobject *, _jmethodID *, std::__va_list)",
   "name" : "double (*)(_JNIEnv *, _jobject *, _jmethodID *, std::__va_list)",
   "referenced_type" : "type-146",
   "self_type" : "type-145",
   "size" : 4,
   "source_file" : "/libnativehelper/include_jni/jni.h"
  },
  {
   "alignment" : 4,
   "linker_set_key" : "double *",
   "name" : "double *",
   "referenced_type" : "type-80",
   "self_type" : "type-449",
   "size" : 4,
   "source_file" : "/libnativehelper/include_jni/jni.h"
  },
  {
   "alignment" : 4,
   "linker_set_key" : "double *(*)(_JNIEnv *, _jdoubleArray *, unsigned char *)",
   "name" : "double *(*)(_JNIEnv *, _jdoubleArray *, unsigned char *)",
   "referenced_type" : "type-448",
   "self_type" : "type-447",
   "size" : 4,
   "source_file" : "/libnativehelper/include_jni/jni.h"
  },
  {
   "alignment" : 4,
   "linker_set_key" : "dwarf_eh_bases *",
   "name" : "dwarf_eh_bases *",
   "referenced_type" : "type-3106",
   "self_type" : "type-3397",
   "size" : 4,
   "source_file" : "/external/libunwind_llvm/include/unwind.h"
  },
  {
   "alignment" : 4,
   "linker_set_key" : "dynamic *",
   "name" : "dynamic *",
   "referenced_type" : "type-3177",
   "self_type" : "type-3221",
   "size" : 4,
   "source_file" : "/out/soong/ndk/sysroot/usr/include/link.h"
  },
  {
   "alignment" : 4,
   "linker_set_key" : "float (*)(_JNIEnv *, _jclass *, _jfieldID *)",
   "name" : "float (*)(_JNIEnv *, _jclass *, _jfieldID *)",
   "referenced_type" : "type-343",
   "self_type" : "type-342",
   "size" : 4,
   "source_file" : "/libnativehelper/include_jni/jni.h"
  },
  {
   "alignment" : 4,
   "linker_set_key" : "float (*)(_JNIEnv *, _jclass *, _jmethodID *, ...)",
   "name" : "float (*)(_JNIEnv *, _jclass *, _jmethodID *, ...)",
   "referenced_type" : "type-308",
   "self_type" : "type-307",
   "size" : 4,
   "source_file" : "/libnativehelper/include_jni/jni.h"
  },
  {
   "alignment" : 4,
   "linker_set_key" : "float (*)(_JNIEnv *, _jclass *, _jmethodID *, const jvalue *)",
   "name" : "float (*)(_JNIEnv *, _jclass *, _jmethodID *, const jvalue *)",
   "referenced_type" : "type-313",
   "self_type" : "type-312",
   "size" : 4,
   "source_file" : "/libnativehelper/include_jni/jni.h"
  },
  {
   "alignment" : 4,
   "linker_set_key" : "float (*)(_JNIEnv *, _jclass *, _jmethodID *, std::__va_list)",
   "name" : "float (*)(_JNIEnv *, _jclass *, _jmethodID *, std::__va_list)",
   "referenced_type" : "type-310",
   "self_type" : "type-309",
   "size" : 4,
   "source_file" : "/libnativehelper/include_jni/jni.h"
  },
  {
   "alignment" : 4,
   "linker_set_key" : "float (*)(_JNIEnv *, _jobject *, _jclass *, _jmethodID *, ...)",
   "name" : "float (*)(_JNIEnv *, _jobject *, _jclass *, _jmethodID *, ...)",
   "referenced_type" : "type-207",
   "self_type" : "type-206",
   "size" : 4,
   "source_file" : "/libnativehelper/include_jni/jni.h"
  },
  {
   "alignment" : 4,
   "linker_set_key" : "float (*)(_JNIEnv *, _jobject *, _jclass *, _jmethodID *, const jvalue *)",
   "name" : "float (*)(_JNIEnv *, _jobject *, _jclass *, _jmethodID *, const jvalue *)",
   "referenced_type" : "type-212",
   "self_type" : "type-211",
   "size" : 4,
   "source_file" : "/libnativehelper/include_jni/jni.h"
  },
  {
   "alignment" : 4,
   "linker_set_key" : "float (*)(_JNIEnv *, _jobject *, _jclass *, _jmethodID *, std::__va_list)",
   "name" : "float (*)(_JNIEnv *, _jobject *, _jclass *, _jmethodID *, std::__va_list)",
   "referenced_type" : "type-209",
   "self_type" : "type-208",
   "size" : 4,
   "source_file" : "/libnativehelper/include_jni/jni.h"
  },
  {
   "alignment" : 4,
   "linker_set_key" : "float (*)(_JNIEnv *, _jobject *, _jfieldID *)",
   "name" : "float (*)(_JNIEnv *, _jobject *, _jfieldID *)",
   "referenced_type" : "type-244",
   "self_type" : "type-243",
   "size" : 4,
   "source_file" : "/libnativehelper/include_jni/jni.h"
  },
  {
   "alignment" : 4,
   "linker_set_key" : "float (*)(_JNIEnv *, _jobject *, _jmethodID *, ...)",
   "name" : "float (*)(_JNIEnv *, _jobject *, _jmethodID *, ...)",
   "referenced_type" : "type-137",
   "self_type" : "type-136",
   "size" : 4,
   "source_file" : "/libnativehelper/include_jni/jni.h"
  },
  {
   "alignment" : 4,
   "linker_set_key" : "float (*)(_JNIEnv *, _jobject *, _jmethodID *, const jvalue *)",
   "name" : "float (*)(_JNIEnv *, _jobject *, _jmethodID *, const jvalue *)",
   "referenced_type" : "type-142",
   "self_type" : "type-141",
   "size" : 4,
   "source_file" : "/libnativehelper/include_jni/jni.h"
  },
  {
   "alignment" : 4,
   "linker_set_key" : "float (*)(_JNIEnv *, _jobject *, _jmethodID *, std::__va_list)",
   "name" : "float (*)(_JNIEnv *, _jobject *, _jmethodID *, std::__va_list)",
   "referenced_type" : "type-139",
   "self_type" : "type-138",
   "size" : 4,
   "source_file" : "/libnativehelper/include_jni/jni.h"
  },
  {
   "alignment" : 4,
   "linker_set_key" : "float *",
   "name" : "float *",
   "referenced_type" : "type-79",
   "self_type" : "type-446",
   "size" : 4,
   "source_file" : "/libnativehelper/include_jni/jni.h"
  },
  {
   "alignment" : 4,
   "linker_set_key" : "float *(*)(_JNIEnv *, _jfloatArray *, unsigned char *)",
   "name" : "float *(*)(_JNIEnv *, _jfloatArray *, unsigned char *)",
   "referenced_type" : "type-445",
   "self_type" : "type-444",
   "size" : 4,
   "source_file" : "/libnativehelper/include_jni/jni.h"
  },
  {
   "alignment" : 4,
   "linker_set_key" : "int (*)(_JNIEnv *)",
   "name" : "int (*)(_JNIEnv *)",
   "referenced_type" : "type-12",
   "self_type" : "type-11",
   "size" : 4,
   "source_file" : "/libnativehelper/include_jni/jni.h"
  },
  {
   "alignment" : 4,
   "linker_set_key" : "int (*)(_JNIEnv *, _JavaVM **)",
   "name" : "int (*)(_JNIEnv *, _JavaVM **)",
   "referenced_type" : "type-520",
   "self_type" : "type-519",
   "size" : 4,
   "source_file" : "/libnativehelper/include_jni/jni.h"
  },
  {
   "alignment" : 4,
   "linker_set_key" : "int (*)(_JNIEnv *, _jarray *)",
   "name" : "int (*)(_JNIEnv *, _jarray *)",
   "referenced_type" : "type-384",
   "self_type" : "type-383",
   "size" : 4,
   "source_file" : "/libnativehelper/include_jni/jni.h"
  },
  {
   "alignment" : 4,
   "linker_set_key" : "int (*)(_JNIEnv *, _jclass *)",
   "name" : "int (*)(_JNIEnv *, _jclass *)",
   "referenced_type" : "type-516",
   "self_type" : "type-515",
   "size" : 4,
   "source_file" : "/libnativehelper/include_jni/jni.h"
  },
  {
   "alignment" : 4,
   "linker_set_key" : "int (*)(_JNIEnv *, _jclass *, _jfieldID *)",
   "name" : "int (*)(_JNIEnv *, _jclass *, _jfieldID *)",
   "referenced_type" : "type-339",
   "self_type" : "type-338",
   "size" : 4,
   "source_file" : "/libnativehelper/include_jni/jni.h"
  },
  {
   "alignment" : 4,
   "linker_set_key" : "int (*)(_JNIEnv *, _jclass *, _jmethodID *, ...)",
   "name" : "int (*)(_JNIEnv *, _jclass *, _jmethodID *, ...)",
   "referenced_type" : "type-294",
   "self_type" : "type-293",
   "size" : 4,
   "source_file" : "/libnativehelper/include_jni/jni.h"
  },
  {
   "alignment" : 4,
   "linker_set_key" : "int (*)(_JNIEnv *, _jclass *, _jmethodID *, const jvalue *)",
   "name" : "int (*)(_JNIEnv *, _jclass *, _jmethodID *, const jvalue *)",
   "referenced_type" : "type-299",
   "self_type" : "type-298",
   "size" : 4,
   "source_file" : "/libnativehelper/include_jni/jni.h"
  },
  {
   "alignment" : 4,
   "linker_set_key" : "int (*)(_JNIEnv *, _jclass *, _jmethodID *, std::__va_list)",
   "name" : "int (*)(_JNIEnv *, _jclass *, _jmethodID *, std::__va_list)",
   "referenced_type" : "type-296",
   "self_type" : "type-295",
   "size" : 4,
   "source_file" : "/libnativehelper/include_jni/jni.h"
  },
  {
   "alignment" : 4,
   "linker_set_key" : "int (*)(_JNIEnv *, _jclass *, const JNINativeMethod *, int)",
   "name" : "int (*)(_JNIEnv *, _jclass *, const JNINativeMethod *, int)",
   "referenced_type" : "type-511",
   "self_type" : "type-510",
   "size" : 4,
   "source_file" : "/libnativehelper/include_jni/jni.h"
  },
  {
   "alignment" : 4,
   "linker_set_key" : "int (*)(_JNIEnv *, _jclass *, const char *)",
   "name" : "int (*)(_JNIEnv *, _jclass *, const char *)",
   "referenced_type" : "type-50",
   "self_type" : "type-49",
   "size" : 4,
   "source_file" : "/libnativehelper/include_jni/jni.h"
  },
  {
   "alignment" : 4,
   "linker_set_key" : "int (*)(_JNIEnv *, _jobject *)",
   "name" : "int (*)(_JNIEnv *, _jobject *)",
   "referenced_type" : "type-518",
   "self_type" : "type-517",
   "size" : 4,
   "source_file" : "/libnativehelper/include_jni/jni.h"
  },
  {
   "alignment" : 4,
   "linker_set_key" : "int (*)(_JNIEnv *, _jobject *, _jclass *, _jmethodID *, ...)",
   "name" : "int (*)(_JNIEnv *, _jobject *, _jclass *, _jmethodID *, ...)",
   "referenced_type" : "type-193",
   "self_type" : "type-192",
   "size" : 4,
   "source_file" : "/libnativehelper/include_jni/jni.h"
  },
  {
   "alignment" : 4,
   "linker_set_key" : "int (*)(_JNIEnv *, _jobject *, _jclass *, _jmethodID *, const jvalue *)",
   "name" : "int (*)(_JNIEnv *, _jobject *, _jclass *, _jmethodID *, const jvalue *)",
   "referenced_type" : "type-198",
   "self_type" : "type-197",
   "size" : 4,
   "source_file" : "/libnativehelper/include_jni/jni.h"
  },
  {
   "alignment" : 4,
   "linker_set_key" : "int (*)(_JNIEnv *, _jobject *, _jclass *, _jmethodID *, std::__va_list)",
   "name" : "int (*)(_JNIEnv *, _jobject *, _jclass *, _jmethodID *, std::__va_list)",
   "referenced_type" : "type-195",
   "self_type" : "type-194",
   "size" : 4,
   "source_file" : "/libnativehelper/include_jni/jni.h"
  },
  {
   "alignment" : 4,
   "linker_set_key" : "int (*)(_JNIEnv *, _jobject *, _jfieldID *)",
   "name" : "int (*)(_JNIEnv *, _jobject *, _jfieldID *)",
   "referenced_type" : "type-240",
   "self_type" : "type-239",
   "size" : 4,
   "source_file" : "/libnativehelper/include_jni/jni.h"
  },
  {
   "alignment" : 4,
   "linker_set_key" : "int (*)(_JNIEnv *, _jobject *, _jmethodID *, ...)",
   "name" : "int (*)(_JNIEnv *, _jobject *, _jmethodID *, ...)",
   "referenced_type" : "type-123",
   "self_type" : "type-122",
   "size" : 4,
   "source_file" : "/libnativehelper/include_jni/jni.h"
  },
  {
   "alignment" : 4,
   "linker_set_key" : "int (*)(_JNIEnv *, _jobject *, _jmethodID *, const jvalue *)",
   "name" : "int (*)(_JNIEnv *, _jobject *, _jmethodID *, const jvalue *)",
   "referenced_type" : "type-128",
   "self_type" : "type-127",
   "size" : 4,
   "source_file" : "/libnativehelper/include_jni/jni.h"
  },
  {
   "alignment" : 4,
   "linker_set_key" : "int (*)(_JNIEnv *, _jobject *, _jmethodID *, std::__va_list)",
   "name" : "int (*)(_JNIEnv *, _jobject *, _jmethodID *, std::__va_list)",
   "referenced_type" : "type-125",
   "self_type" : "type-124",
   "size" : 4,
   "source_file" : "/libnativehelper/include_jni/jni.h"
  },
  {
   "alignment" : 4,
   "linker_set_key" : "int (*)(_JNIEnv *, _jstring *)",
   "name" : "int (*)(_JNIEnv *, _jstring *)",
   "referenced_type" : "type-371",
   "self_type" : "type-370",
   "size" : 4,
   "source_file" : "/libnativehelper/include_jni/jni.h"
  },
  {
   "alignment" : 4,
   "linker_set_key" : "int (*)(_JNIEnv *, _jthrowable *)",
   "name" : "int (*)(_JNIEnv *, _jthrowable *)",
   "referenced_type" : "type-46",
   "self_type" : "type-45",
   "size" : 4,
   "source_file" : "/libnativehelper/include_jni/jni.h"
  },
  {
   "alignment" : 4,
   "linker_set_key" : "int (*)(_JNIEnv *, int)",
   "name" : "int (*)(_JNIEnv *, int)",
   "referenced_type" : "type-58",
   "self_type" : "type-57",
   "size" : 4,
   "source_file" : "/libnativehelper/include_jni/jni.h"
  },
  {
   "alignment" : 4,
   "linker_set_key" : "int (*)(_JavaVM *)",
   "name" : "int (*)(_JavaVM *)",
   "referenced_type" : "type-528",
   "self_type" : "type-527",
   "size" : 4,
   "source_file" : "/libnativehelper/include_jni/jni.h"
  },
  {
   "alignment" : 4,
   "linker_set_key" : "int (*)(_JavaVM *, _JNIEnv **, void *)",
   "name" : "int (*)(_JavaVM *, _JNIEnv **, void *)",
   "referenced_type" : "type-530",
   "self_type" : "type-529",
   "size" : 4,
   "source_file" : "/libnativehelper/include_jni/jni.h"
  },
  {
   "alignment" : 4,
   "linker_set_key" : "int (*)(_JavaVM *, void **, int)",
   "name" : "int (*)(_JavaVM *, void **, int)",
   "referenced_type" : "type-533",
   "self_type" : "type-532",
   "size" : 4,
   "source_file" : "/libnativehelper/include_jni/jni.h"
  },
  {
   "alignment" : 4,
   "linker_set_key" : "int *",
   "name" : "int *",
   "referenced_type" : "type-13",
   "self_type" : "type-440",
   "size" : 4,
   "source_file" : "/libnativehelper/include_jni/jni.h"
  },
  {
   "alignment" : 4,
   "linker_set_key" : "int *(*)(_JNIEnv *, _jintArray *, unsigned char *)",
   "name" : "int *(*)(_JNIEnv *, _jintArray *, unsigned char *)",
   "referenced_type" : "type-439",
   "self_type" : "type-438",
   "size" : 4,
   "source_file" : "/libnativehelper/include_jni/jni.h"
  },
  {
   "alignment" : 4,
   "linker_set_key" : "jobjectRefType (*)(_JNIEnv *, _jobject *)",
   "name" : "jobjectRefType (*)(_JNIEnv *, _jobject *)",
   "referenced_type" : "type-553",
   "self_type" : "type-552",
   "size" : 4,
   "source_file" : "/libnativehelper/include_jni/jni.h"
  },
  {
   "alignment" : 4,
   "linker_set_key" : "lconv *",
   "name" : "lconv *",
   "referenced_type" : "type-2445",
   "self_type" : "type-2548",
   "size" : 4,
   "source_file" : "/external/libcxx/include/__bsd_locale_fallbacks.h"
  },
  {
   "alignment" : 4,
   "linker_set_key" : "libunwind::AbstractUnwindCursor *",
   "name" : "libunwind::AbstractUnwindCursor *",
   "referenced_type" : "type-3300",
   "self_type" : "type-3301",
   "size" : 4,
   "source_file" : "/external/libunwind_llvm/src/UnwindCursor.hpp"
  },
  {
   "alignment" : 4,
   "linker_set_key" : "libunwind::EHABISectionIterator<libunwind::LocalAddressSpace> *",
   "name" : "libunwind::EHABISectionIterator<libunwind::LocalAddressSpace> *",
   "referenced_type" : "type-3308",
   "self_type" : "type-3310",
   "size" : 4,
   "source_file" : "/external/libunwind_llvm/src/UnwindCursor.hpp"
  },
  {
   "alignment" : 4,
   "linker_set_key" : "libunwind::LocalAddressSpace *",
   "name" : "libunwind::LocalAddressSpace *",
   "referenced_type" : "type-3225",
   "self_type" : "type-3226",
   "size" : 4,
   "source_file" : "/external/libunwind_llvm/src/AddressSpace.hpp"
  },
  {
   "alignment" : 4,
   "linker_set_key" : "libunwind::RWMutex *",
   "name" : "libunwind::RWMutex *",
   "referenced_type" : "type-3297",
   "self_type" : "type-3299",
   "size" : 4,
   "source_file" : "/external/libunwind_llvm/src/RWMutex.hpp"
  },
  {
   "alignment" : 4,
   "linker_set_key" : "libunwind::Registers_arm *",
   "name" : "libunwind::Registers_arm *",
   "referenced_type" : "type-3153",
   "self_type" : "type-3152",
   "size" : 4,
   "source_file" : "/external/libunwind_llvm/src/Registers.hpp"
  },
  {
   "alignment" : 4,
   "linker_set_key" : "libunwind::Registers_arm64 *",
   "name" : "libunwind::Registers_arm64 *",
   "referenced_type" : "type-3145",
   "self_type" : "type-3144",
   "size" : 4,
   "source_file" : "/external/libunwind_llvm/src/Registers.hpp"
  },
  {
   "alignment" : 4,
   "linker_set_key" : "libunwind::Registers_mips_newabi *",
   "name" : "libunwind::Registers_mips_newabi *",
   "referenced_type" : "type-3169",
   "self_type" : "type-3168",
   "size" : 4,
   "source_file" : "/external/libunwind_llvm/src/Registers.hpp"
  },
  {
   "alignment" : 4,
   "linker_set_key" : "libunwind::Registers_mips_o32 *",
   "name" : "libunwind::Registers_mips_o32 *",
   "referenced_type" : "type-3164",
   "self_type" : "type-3163",
   "size" : 4,
   "source_file" : "/external/libunwind_llvm/src/Registers.hpp"
  },
  {
   "alignment" : 4,
   "linker_set_key" : "libunwind::Registers_or1k *",
   "name" : "libunwind::Registers_or1k *",
   "referenced_type" : "type-3159",
   "self_type" : "type-3158",
   "size" : 4,
   "source_file" : "/external/libunwind_llvm/src/Registers.hpp"
  },
  {
   "alignment" : 4,
   "linker_set_key" : "libunwind::Registers_ppc *",
   "name" : "libunwind::Registers_ppc *",
   "referenced_type" : "type-3128",
   "self_type" : "type-3127",
   "size" : 4,
   "source_file" : "/external/libunwind_llvm/src/Registers.hpp"
  },
  {
   "alignment" : 4,
   "linker_set_key" : "libunwind::Registers_ppc64 *",
   "name" : "libunwind::Registers_ppc64 *",
   "referenced_type" : "type-3139",
   "self_type" : "type-3138",
   "size" : 4,
   "source_file" : "/external/libunwind_llvm/src/Registers.hpp"
  },
  {
   "alignment" : 4,
   "linker_set_key" : "libunwind::Registers_sparc *",
   "name" : "libunwind::Registers_sparc *",
   "referenced_type" : "type-3174",
   "self_type" : "type-3173",
   "size" : 4,
   "source_file" : "/external/libunwind_llvm/src/Registers.hpp"
  },
  {
   "alignment" : 4,
   "linker_set_key" : "libunwind::Registers_x86 *",
   "name" : "libunwind::Registers_x86 *",
   "referenced_type" : "type-3112",
   "self_type" : "type-3111",
   "size" : 4,
   "source_file" : "/external/libunwind_llvm/src/Registers.hpp"
  },
  {
   "alignment" : 4,
   "linker_set_key" : "libunwind::Registers_x86_64 *",
   "name" : "libunwind::Registers_x86_64 *",
   "referenced_type" : "type-3120",
   "self_type" : "type-3119",
   "size" : 4,
   "source_file" : "/external/libunwind_llvm/src/Registers.hpp"
  },
  {
   "alignment" : 4,
   "linker_set_key" : "libunwind::UnwindCursor<libunwind::LocalAddressSpace, libunwind::Registers_arm> *",
   "name" : "libunwind::UnwindCursor<libunwind::LocalAddressSpace, libunwind::Registers_arm> *",
   "referenced_type" : "type-3304",
   "self_type" : "type-3303",
   "size" : 4,
   "source_file" : "/external/libunwind_llvm/src/UnwindCursor.hpp"
  },
  {
   "alignment" : 4,
   "linker_set_key" : "libunwind::UnwindInfoSections *",
   "name" : "libunwind::UnwindInfoSections *",
   "referenced_type" : "type-3224",
   "self_type" : "type-3229",
   "size" : 4,
   "source_file" : "/external/libunwind_llvm/src/AddressSpace.hpp"
  },
  {
   "alignment" : 4,
   "linker_set_key" : "link_map *",
   "name" : "link_map *",
   "referenced_type" : "type-3220",
   "self_type" : "type-3222",
   "size" : 4,
   "source_file" : "/out/soong/ndk/sysroot/usr/include/link.h"
  },
  {
   "alignment" : 4,
   "linker_set_key" : "long *",
   "name" : "long *",
   "referenced_type" : "type-606",
   "self_type" : "type-2528",
   "size" : 4,
   "source_file" : "/external/libcxx/include/type_traits"
  },
  {
   "alignment" : 4,
   "linker_set_key" : "long double *",
   "name" : "long double *",
   "referenced_type" : "type-3",
   "self_type" : "type-2766",
   "size" : 4,
   "source_file" : "/external/libcxx/include/type_traits"
  },
  {
   "alignment" : 4,
   "linker_set_key" : "long long (*)(_JNIEnv *, _jclass *, _jfieldID *)",
   "name" : "long long (*)(_JNIEnv *, _jclass *, _jfieldID *)",
   "referenced_type" : "type-341",
   "self_type" : "type-340",
   "size" : 4,
   "source_file" : "/libnativehelper/include_jni/jni.h"
  },
  {
   "alignment" : 4,
   "linker_set_key" : "long long (*)(_JNIEnv *, _jclass *, _jmethodID *, ...)",
   "name" : "long long (*)(_JNIEnv *, _jclass *, _jmethodID *, ...)",
   "referenced_type" : "type-301",
   "self_type" : "type-300",
   "size" : 4,
   "source_file" : "/libnativehelper/include_jni/jni.h"
  },
  {
   "alignment" : 4,
   "linker_set_key" : "long long (*)(_JNIEnv *, _jclass *, _jmethodID *, const jvalue *)",
   "name" : "long long (*)(_JNIEnv *, _jclass *, _jmethodID *, const jvalue *)",
   "referenced_type" : "type-306",
   "self_type" : "type-305",
   "size" : 4,
   "source_file" : "/libnativehelper/include_jni/jni.h"
  },
  {
   "alignment" : 4,
   "linker_set_key" : "long long (*)(_JNIEnv *, _jclass *, _jmethodID *, std::__va_list)",
   "name" : "long long (*)(_JNIEnv *, _jclass *, _jmethodID *, std::__va_list)",
   "referenced_type" : "type-303",
   "self_type" : "type-302",
   "size" : 4,
   "source_file" : "/libnativehelper/include_jni/jni.h"
  },
  {
   "alignment" : 4,
   "linker_set_key" : "long long (*)(_JNIEnv *, _jobject *)",
   "name" : "long long (*)(_JNIEnv *, _jobject *)",
   "referenced_type" : "type-551",
   "self_type" : "type-550",
   "size" : 4,
   "source_file" : "/libnativehelper/include_jni/jni.h"
  },
  {
   "alignment" : 4,
   "linker_set_key" : "long long (*)(_JNIEnv *, _jobject *, _jclass *, _jmethodID *, ...)",
   "name" : "long long (*)(_JNIEnv *, _jobject *, _jclass *, _jmethodID *, ...)",
   "referenced_type" : "type-200",
   "self_type" : "type-199",
   "size" : 4,
   "source_file" : "/libnativehelper/include_jni/jni.h"
  },
  {
   "alignment" : 4,
   "linker_set_key" : "long long (*)(_JNIEnv *, _jobject *, _jclass *, _jmethodID *, const jvalue *)",
   "name" : "long long (*)(_JNIEnv *, _jobject *, _jclass *, _jmethodID *, const jvalue *)",
   "referenced_type" : "type-205",
   "self_type" : "type-204",
   "size" : 4,
   "source_file" : "/libnativehelper/include_jni/jni.h"
  },
  {
   "alignment" : 4,
   "linker_set_key" : "long long (*)(_JNIEnv *, _jobject *, _jclass *, _jmethodID *, std::__va_list)",
   "name" : "long long (*)(_JNIEnv *, _jobject *, _jclass *, _jmethodID *, std::__va_list)",
   "referenced_type" : "type-202",
   "self_type" : "type-201",
   "size" : 4,
   "source_file" : "/libnativehelper/include_jni/jni.h"
  },
  {
   "alignment" : 4,
   "linker_set_key" : "long long (*)(_JNIEnv *, _jobject *, _jfieldID *)",
   "name" : "long long (*)(_JNIEnv *, _jobject *, _jfieldID *)",
   "referenced_type" : "type-242",
   "self_type" : "type-241",
   "size" : 4,
   "source_file" : "/libnativehelper/include_jni/jni.h"
  },
  {
   "alignment" : 4,
   "linker_set_key" : "long long (*)(_JNIEnv *, _jobject *, _jmethodID *, ...)",
   "name" : "long long (*)(_JNIEnv *, _jobject *, _jmethodID *, ...)",
   "referenced_type" : "type-130",
   "self_type" : "type-129",
   "size" : 4,
   "source_file" : "/libnativehelper/include_jni/jni.h"
  },
  {
   "alignment" : 4,
   "linker_set_key" : "long long (*)(_JNIEnv *, _jobject *, _jmethodID *, const jvalue *)",
   "name" : "long long (*)(_JNIEnv *, _jobject *, _jmethodID *, const jvalue *)",
   "referenced_type" : "type-135",
   "self_type" : "type-134",
   "size" : 4,
   "source_file" : "/libnativehelper/include_jni/jni.h"
  },
  {
   "alignment" : 4,
   "linker_set_key" : "long long (*)(_JNIEnv *, _jobject *, _jmethodID *, std::__va_list)",
   "name" : "long long (*)(_JNIEnv *, _jobject *, _jmethodID *, std::__va_list)",
   "referenced_type" : "type-132",
   "self_type" : "type-131",
   "size" : 4,
   "source_file" : "/libnativehelper/include_jni/jni.h"
  },
  {
   "alignment" : 4,
   "linker_set_key" : "long long *",
   "name" : "long long *",
   "referenced_type" : "type-2",
   "self_type" : "type-443",
   "size" : 4,
   "source_file" : "/libnativehelper/include_jni/jni.h"
  },
  {
   "alignment" : 4,
   "linker_set_key" : "long long *(*)(_JNIEnv *, _jlongArray *, unsigned char *)",
   "name" : "long long *(*)(_JNIEnv *, _jlongArray *, unsigned char *)",
   "referenced_type" : "type-442",
   "self_type" : "type-441",
   "size" : 4,
   "source_file" : "/libnativehelper/include_jni/jni.h"
  },
  {
   "alignment" : 4,
   "linker_set_key" : "mbstate_t *",
   "name" : "mbstate_t *",
   "referenced_type" : "type-1893",
   "self_type" : "type-2546",
   "size" : 4,
   "source_file" : "/external/libcxx/include/__bsd_locale_fallbacks.h"
  },
  {
   "alignment" : 4,
   "linker_set_key" : "pthread_cond_t *",
   "name" : "pthread_cond_t *",
   "referenced_type" : "type-1278",
   "self_type" : "type-2422",
   "size" : 4,
   "source_file" : "/external/libcxx/include/__threading_support"
  },
  {
   "alignment" : 4,
   "linker_set_key" : "pthread_mutex_t *",
   "name" : "pthread_mutex_t *",
   "referenced_type" : "type-1193",
   "self_type" : "type-2421",
   "size" : 4,
   "source_file" : "/external/libcxx/include/__threading_support"
  },
  {
   "alignment" : 4,
   "linker_set_key" : "short (*)(_JNIEnv *, _jclass *, _jfieldID *)",
   "name" : "short (*)(_JNIEnv *, _jclass *, _jfieldID *)",
   "referenced_type" : "type-337",
   "self_type" : "type-336",
   "size" : 4,
   "source_file" : "/libnativehelper/include_jni/jni.h"
  },
  {
   "alignment" : 4,
   "linker_set_key" : "short (*)(_JNIEnv *, _jclass *, _jmethodID *, ...)",
   "name" : "short (*)(_JNIEnv *, _jclass *, _jmethodID *, ...)",
   "referenced_type" : "type-287",
   "self_type" : "type-286",
   "size" : 4,
   "source_file" : "/libnativehelper/include_jni/jni.h"
  },
  {
   "alignment" : 4,
   "linker_set_key" : "short (*)(_JNIEnv *, _jclass *, _jmethodID *, const jvalue *)",
   "name" : "short (*)(_JNIEnv *, _jclass *, _jmethodID *, const jvalue *)",
   "referenced_type" : "type-292",
   "self_type" : "type-291",
   "size" : 4,
   "source_file" : "/libnativehelper/include_jni/jni.h"
  },
  {
   "alignment" : 4,
   "linker_set_key" : "short (*)(_JNIEnv *, _jclass *, _jmethodID *, std::__va_list)",
   "name" : "short (*)(_JNIEnv *, _jclass *, _jmethodID *, std::__va_list)",
   "referenced_type" : "type-289",
   "self_type" : "type-288",
   "size" : 4,
   "source_file" : "/libnativehelper/include_jni/jni.h"
  },
  {
   "alignment" : 4,
   "linker_set_key" : "short (*)(_JNIEnv *, _jobject *, _jclass *, _jmethodID *, ...)",
   "name" : "short (*)(_JNIEnv *, _jobject *, _jclass *, _jmethodID *, ...)",
   "referenced_type" : "type-186",
   "self_type" : "type-185",
   "size" : 4,
   "source_file" : "/libnativehelper/include_jni/jni.h"
  },
  {
   "alignment" : 4,
   "linker_set_key" : "short (*)(_JNIEnv *, _jobject *, _jclass *, _jmethodID *, const jvalue *)",
   "name" : "short (*)(_JNIEnv *, _jobject *, _jclass *, _jmethodID *, const jvalue *)",
   "referenced_type" : "type-191",
   "self_type" : "type-190",
   "size" : 4,
   "source_file" : "/libnativehelper/include_jni/jni.h"
  },
  {
   "alignment" : 4,
   "linker_set_key" : "short (*)(_JNIEnv *, _jobject *, _jclass *, _jmethodID *, std::__va_list)",
   "name" : "short (*)(_JNIEnv *, _jobject *, _jclass *, _jmethodID *, std::__va_list)",
   "referenced_type" : "type-188",
   "self_type" : "type-187",
   "size" : 4,
   "source_file" : "/libnativehelper/include_jni/jni.h"
  },
  {
   "alignment" : 4,
   "linker_set_key" : "short (*)(_JNIEnv *, _jobject *, _jfieldID *)",
   "name" : "short (*)(_JNIEnv *, _jobject *, _jfieldID *)",
   "referenced_type" : "type-238",
   "self_type" : "type-237",
   "size" : 4,
   "source_file" : "/libnativehelper/include_jni/jni.h"
  },
  {
   "alignment" : 4,
   "linker_set_key" : "short (*)(_JNIEnv *, _jobject *, _jmethodID *, ...)",
   "name" : "short (*)(_JNIEnv *, _jobject *, _jmethodID *, ...)",
   "referenced_type" : "type-116",
   "self_type" : "type-115",
   "size" : 4,
   "source_file" : "/libnativehelper/include_jni/jni.h"
  },
  {
   "alignment" : 4,
   "linker_set_key" : "short (*)(_JNIEnv *, _jobject *, _jmethodID *, const jvalue *)",
   "name" : "short (*)(_JNIEnv *, _jobject *, _jmethodID *, const jvalue *)",
   "referenced_type" : "type-121",
   "self_type" : "type-120",
   "size" : 4,
   "source_file" : "/libnativehelper/include_jni/jni.h"
  },
  {
   "alignment" : 4,
   "linker_set_key" : "short (*)(_JNIEnv *, _jobject *, _jmethodID *, std::__va_list)",
   "name" : "short (*)(_JNIEnv *, _jobject *, _jmethodID *, std::__va_list)",
   "referenced_type" : "type-118",
   "self_type" : "type-117",
   "size" : 4,
   "source_file" : "/libnativehelper/include_jni/jni.h"
  },
  {
   "alignment" : 4,
   "linker_set_key" : "short *",
   "name" : "short *",
   "referenced_type" : "type-78",
   "self_type" : "type-437",
   "size" : 4,
   "source_file" : "/libnativehelper/include_jni/jni.h"
  },
  {
   "alignment" : 4,
   "linker_set_key" : "short *(*)(_JNIEnv *, _jshortArray *, unsigned char *)",
   "name" : "short *(*)(_JNIEnv *, _jshortArray *, unsigned char *)",
   "referenced_type" : "type-436",
   "self_type" : "type-435",
   "size" : 4,
   "source_file" : "/libnativehelper/include_jni/jni.h"
  },
  {
   "alignment" : 4,
   "linker_set_key" : "siginfo *",
   "name" : "siginfo *",
   "referenced_type" : "type-1521",
   "self_type" : "type-1520",
   "size" : 4,
   "source_file" : "/bionic/libc/kernel/uapi/asm-arm/asm/signal.h"
  },
  {
   "alignment" : 4,
   "linker_set_key" : "siginfo *",
   "name" : "siginfo *",
   "referenced_type" : "type-3252",
   "self_type" : "type-3267",
   "size" : 4,
   "source_file" : "/out/soong/ndk/sysroot/usr/include/arm-linux-androideabi/asm/signal.h"
  },
  {
   "alignment" : 4,
   "linker_set_key" : "signed char (*)(_JNIEnv *, _jclass *, _jfieldID *)",
   "name" : "signed char (*)(_JNIEnv *, _jclass *, _jfieldID *)",
   "referenced_type" : "type-333",
   "self_type" : "type-332",
   "size" : 4,
   "source_file" : "/libnativehelper/include_jni/jni.h"
  },
  {
   "alignment" : 4,
   "linker_set_key" : "signed char (*)(_JNIEnv *, _jclass *, _jmethodID *, ...)",
   "name" : "signed char (*)(_JNIEnv *, _jclass *, _jmethodID *, ...)",
   "referenced_type" : "type-273",
   "self_type" : "type-272",
   "size" : 4,
   "source_file" : "/libnativehelper/include_jni/jni.h"
  },
  {
   "alignment" : 4,
   "linker_set_key" : "signed char (*)(_JNIEnv *, _jclass *, _jmethodID *, const jvalue *)",
   "name" : "signed char (*)(_JNIEnv *, _jclass *, _jmethodID *, const jvalue *)",
   "referenced_type" : "type-278",
   "self_type" : "type-277",
   "size" : 4,
   "source_file" : "/libnativehelper/include_jni/jni.h"
  },
  {
   "alignment" : 4,
   "linker_set_key" : "signed char (*)(_JNIEnv *, _jclass *, _jmethodID *, std::__va_list)",
   "name" : "signed char (*)(_JNIEnv *, _jclass *, _jmethodID *, std::__va_list)",
   "referenced_type" : "type-275",
   "self_type" : "type-274",
   "size" : 4,
   "source_file" : "/libnativehelper/include_jni/jni.h"
  },
  {
   "alignment" : 4,
   "linker_set_key" : "signed char (*)(_JNIEnv *, _jobject *, _jclass *, _jmethodID *, ...)",
   "name" : "signed char (*)(_JNIEnv *, _jobject *, _jclass *, _jmethodID *, ...)",
   "referenced_type" : "type-172",
   "self_type" : "type-171",
   "size" : 4,
   "source_file" : "/libnativehelper/include_jni/jni.h"
  },
  {
   "alignment" : 4,
   "linker_set_key" : "signed char (*)(_JNIEnv *, _jobject *, _jclass *, _jmethodID *, const jvalue *)",
   "name" : "signed char (*)(_JNIEnv *, _jobject *, _jclass *, _jmethodID *, const jvalue *)",
   "referenced_type" : "type-177",
   "self_type" : "type-176",
   "size" : 4,
   "source_file" : "/libnativehelper/include_jni/jni.h"
  },
  {
   "alignment" : 4,
   "linker_set_key" : "signed char (*)(_JNIEnv *, _jobject *, _jclass *, _jmethodID *, std::__va_list)",
   "name" : "signed char (*)(_JNIEnv *, _jobject *, _jclass *, _jmethodID *, std::__va_list)",
   "referenced_type" : "type-174",
   "self_type" : "type-173",
   "size" : 4,
   "source_file" : "/libnativehelper/include_jni/jni.h"
  },
  {
   "alignment" : 4,
   "linker_set_key" : "signed char (*)(_JNIEnv *, _jobject *, _jfieldID *)",
   "name" : "signed char (*)(_JNIEnv *, _jobject *, _jfieldID *)",
   "referenced_type" : "type-234",
   "self_type" : "type-233",
   "size" : 4,
   "source_file" : "/libnativehelper/include_jni/jni.h"
  },
  {
   "alignment" : 4,
   "linker_set_key" : "signed char (*)(_JNIEnv *, _jobject *, _jmethodID *, ...)",
   "name" : "signed char (*)(_JNIEnv *, _jobject *, _jmethodID *, ...)",
   "referenced_type" : "type-102",
   "self_type" : "type-101",
   "size" : 4,
   "source_file" : "/libnativehelper/include_jni/jni.h"
  },
  {
   "alignment" : 4,
   "linker_set_key" : "signed char (*)(_JNIEnv *, _jobject *, _jmethodID *, const jvalue *)",
   "name" : "signed char (*)(_JNIEnv *, _jobject *, _jmethodID *, const jvalue *)",
   "referenced_type" : "type-107",
   "self_type" : "type-106",
   "size" : 4,
   "source_file" : "/libnativehelper/include_jni/jni.h"
  },
  {
   "alignment" : 4,
   "linker_set_key" : "signed char (*)(_JNIEnv *, _jobject *, _jmethodID *, std::__va_list)",
   "name" : "signed char (*)(_JNIEnv *, _jobject *, _jmethodID *, std::__va_list)",
   "referenced_type" : "type-104",
   "self_type" : "type-103",
   "size" : 4,
   "source_file" : "/libnativehelper/include_jni/jni.h"
  },
  {
   "alignment" : 4,
   "linker_set_key" : "signed char *",
   "name" : "signed char *",
   "referenced_type" : "type-25",
   "self_type" : "type-431",
   "size" : 4,
   "source_file" : "/libnativehelper/include_jni/jni.h"
  },
  {
   "alignment" : 4,
   "linker_set_key" : "signed char *(*)(_JNIEnv *, _jbyteArray *, unsigned char *)",
   "name" : "signed char *(*)(_JNIEnv *, _jbyteArray *, unsigned char *)",
   "referenced_type" : "type-430",
   "self_type" : "type-429",
   "size" : 4,
   "source_file" : "/libnativehelper/include_jni/jni.h"
  },
  {
   "alignment" : 4,
   "linker_set_key" : "sk_sp<SkColorSpace> *",
   "name" : "sk_sp<SkColorSpace> *",
   "referenced_type" : "type-737",
   "self_type" : "type-2656",
   "size" : 4,
   "source_file" : "/external/skia/include/core/SkRefCnt.h"
  },
  {
   "alignment" : 4,
   "linker_set_key" : "std::__atomic_base<int, false> *",
   "name" : "std::__atomic_base<int, false> *",
   "referenced_type" : "type-750",
   "self_type" : "type-1590",
   "size" : 4,
   "source_file" : "/external/libcxx/include/atomic"
  },
  {
   "alignment" : 4,
   "linker_set_key" : "std::__atomic_base<int, true> *",
   "name" : "std::__atomic_base<int, true> *",
   "referenced_type" : "type-749",
   "self_type" : "type-1587",
   "size" : 4,
   "source_file" : "/external/libcxx/include/atomic"
  },
  {
   "alignment" : 4,
   "linker_set_key" : "std::__atomic_base<unsigned char, false> *",
   "name" : "std::__atomic_base<unsigned char, false> *",
   "referenced_type" : "type-745",
   "self_type" : "type-1579",
   "size" : 4,
   "source_file" : "/external/libcxx/include/atomic"
  },
  {
   "alignment" : 4,
   "linker_set_key" : "std::__atomic_base<unsigned char, true> *",
   "name" : "std::__atomic_base<unsigned char, true> *",
   "referenced_type" : "type-744",
   "self_type" : "type-1578",
   "size" : 4,
   "source_file" : "/external/libcxx/include/atomic"
  },
  {
   "alignment" : 4,
   "linker_set_key" : "std::__atomic_base<unsigned int, false> *",
   "name" : "std::__atomic_base<unsigned int, false> *",
   "referenced_type" : "type-1581",
   "self_type" : "type-1584",
   "size" : 4,
   "source_file" : "/external/libcxx/include/atomic"
  },
  {
   "alignment" : 4,
   "linker_set_key" : "std::__atomic_base<unsigned int, true> *",
   "name" : "std::__atomic_base<unsigned int, true> *",
   "referenced_type" : "type-1580",
   "self_type" : "type-1583",
   "size" : 4,
   "source_file" : "/external/libcxx/include/atomic"
  },
  {
   "alignment" : 4,
   "linker_set_key" : "std::__bit_const_reference<std::__bitset<0, 0> > *",
   "name" : "std::__bit_const_reference<std::__bitset<0, 0> > *",
   "referenced_type" : "type-2633",
   "self_type" : "type-2632",
   "size" : 4,
   "source_file" : "/external/libcxx/include/__bit_reference"
  },
  {
   "alignment" : 4,
   "linker_set_key" : "std::__bit_iterator<std::__bitset<0, 0>, false, 0> *",
   "name" : "std::__bit_iterator<std::__bitset<0, 0>, false, 0> *",
   "referenced_type" : "type-2626",
   "self_type" : "type-2628",
   "size" : 4,
   "source_file" : "/external/libcxx/include/__bit_reference"
  },
  {
   "alignment" : 4,
   "linker_set_key" : "std::__bit_iterator<std::__bitset<0, 0>, true, 0> *",
   "name" : "std::__bit_iterator<std::__bitset<0, 0>, true, 0> *",
   "referenced_type" : "type-2629",
   "self_type" : "type-2631",
   "size" : 4,
   "source_file" : "/external/libcxx/include/__bit_reference"
  },
  {
   "alignment" : 4,
   "linker_set_key" : "std::__bit_reference<std::__bitset<0, 0>, true> *",
   "name" : "std::__bit_reference<std::__bitset<0, 0>, true> *",
   "referenced_type" : "type-2636",
   "self_type" : "type-2635",
   "size" : 4,
   "source_file" : "/external/libcxx/include/__bit_reference"
  },
  {
   "alignment" : 4,
   "linker_set_key" : "std::__bitset<0, 0> *",
   "name" : "std::__bitset<0, 0> *",
   "referenced_type" : "type-2627",
   "self_type" : "type-2640",
   "size" : 4,
   "source_file" : "/external/libcxx/include/bitset"
  },
  {
   "alignment" : 4,
   "linker_set_key" : "std::__compressed_pair<std::basic_string<char16_t, char_traits<char16_t>, allocator<char16_t> >::__rep, std::allocator<char16_t> > *",
   "name" : "std::__compressed_pair<std::basic_string<char16_t, char_traits<char16_t>, allocator<char16_t> >::__rep, std::allocator<char16_t> > *",
   "referenced_type" : "type-1907",
   "self_type" : "type-2092",
   "size" : 4,
   "source_file" : "/external/libcxx/include/memory"
  },
  {
   "alignment" : 4,
   "linker_set_key" : "std::__compressed_pair<std::basic_string<char32_t, char_traits<char32_t>, allocator<char32_t> >::__rep, std::allocator<char32_t> > *",
   "name" : "std::__compressed_pair<std::basic_string<char32_t, char_traits<char32_t>, allocator<char32_t> >::__rep, std::allocator<char32_t> > *",
   "referenced_type" : "type-1915",
   "self_type" : "type-2095",
   "size" : 4,
   "source_file" : "/external/libcxx/include/memory"
  },
  {
   "alignment" : 4,
   "linker_set_key" : "std::__compressed_pair<std::basic_string<char>::__rep, std::allocator<char> > *",
   "name" : "std::__compressed_pair<std::basic_string<char>::__rep, std::allocator<char> > *",
   "referenced_type" : "type-1045",
   "self_type" : "type-2086",
   "size" : 4,
   "source_file" : "/external/libcxx/include/memory"
  },
  {
   "alignment" : 4,
   "linker_set_key" : "std::__compressed_pair<std::basic_string<wchar_t>::__rep, std::allocator<wchar_t> > *",
   "name" : "std::__compressed_pair<std::basic_string<wchar_t>::__rep, std::allocator<wchar_t> > *",
   "referenced_type" : "type-1052",
   "self_type" : "type-2089",
   "size" : 4,
   "source_file" : "/external/libcxx/include/memory"
  },
  {
   "alignment" : 4,
   "linker_set_key" : "std::__compressed_pair_elem<char *, 0, false> *",
   "name" : "std::__compressed_pair_elem<char *, 0, false> *",
   "referenced_type" : "type-636",
   "self_type" : "type-2783",
   "size" : 4,
   "source_file" : "/external/libcxx/include/type_traits"
  },
  {
   "alignment" : 4,
   "linker_set_key" : "std::__compressed_pair_elem<std::allocator<char16_t>, 1, true> *",
   "name" : "std::__compressed_pair_elem<std::allocator<char16_t>, 1, true> *",
   "referenced_type" : "type-573",
   "self_type" : "type-2819",
   "size" : 4,
   "source_file" : "/external/libcxx/include/type_traits"
  },
  {
   "alignment" : 4,
   "linker_set_key" : "std::__compressed_pair_elem<std::allocator<char32_t>, 1, true> *",
   "name" : "std::__compressed_pair_elem<std::allocator<char32_t>, 1, true> *",
   "referenced_type" : "type-591",
   "self_type" : "type-2827",
   "size" : 4,
   "source_file" : "/external/libcxx/include/type_traits"
  },
  {
   "alignment" : 4,
   "linker_set_key" : "std::__compressed_pair_elem<std::allocator<char>, 1, true> *",
   "name" : "std::__compressed_pair_elem<std::allocator<char>, 1, true> *",
   "referenced_type" : "type-662",
   "self_type" : "type-2803",
   "size" : 4,
   "source_file" : "/external/libcxx/include/type_traits"
  },
  {
   "alignment" : 4,
   "linker_set_key" : "std::__compressed_pair_elem<std::allocator<wchar_t>, 1, true> *",
   "name" : "std::__compressed_pair_elem<std::allocator<wchar_t>, 1, true> *",
   "referenced_type" : "type-680",
   "self_type" : "type-2811",
   "size" : 4,
   "source_file" : "/external/libcxx/include/type_traits"
  },
  {
   "alignment" : 4,
   "linker_set_key" : "std::__compressed_pair_elem<std::basic_string<char16_t, char_traits<char16_t>, allocator<char16_t> >::__rep, 0, false> *",
   "name" : "std::__compressed_pair_elem<std::basic_string<char16_t, char_traits<char16_t>, allocator<char16_t> >::__rep, 0, false> *",
   "referenced_type" : "type-560",
   "self_type" : "type-2817",
   "size" : 4,
   "source_file" : "/external/libcxx/include/type_traits"
  },
  {
   "alignment" : 4,
   "linker_set_key" : "std::__compressed_pair_elem<std::basic_string<char32_t, char_traits<char32_t>, allocator<char32_t> >::__rep, 0, false> *",
   "name" : "std::__compressed_pair_elem<std::basic_string<char32_t, char_traits<char32_t>, allocator<char32_t> >::__rep, 0, false> *",
   "referenced_type" : "type-578",
   "self_type" : "type-2825",
   "size" : 4,
   "source_file" : "/external/libcxx/include/type_traits"
  },
  {
   "alignment" : 4,
   "linker_set_key" : "std::__compressed_pair_elem<std::basic_string<char>::__rep, 0, false> *",
   "name" : "std::__compressed_pair_elem<std::basic_string<char>::__rep, 0, false> *",
   "referenced_type" : "type-652",
   "self_type" : "type-2801",
   "size" : 4,
   "source_file" : "/external/libcxx/include/type_traits"
  },
  {
   "alignment" : 4,
   "linker_set_key" : "std::__compressed_pair_elem<std::basic_string<wchar_t>::__rep, 0, false> *",
   "name" : "std::__compressed_pair_elem<std::basic_string<wchar_t>::__rep, 0, false> *",
   "referenced_type" : "type-668",
   "self_type" : "type-2809",
   "size" : 4,
   "source_file" : "/external/libcxx/include/type_traits"
  },
  {
   "alignment" : 4,
   "linker_set_key" : "std::__compressed_pair_elem<unsigned char *, 0, false> *",
   "name" : "std::__compressed_pair_elem<unsigned char *, 0, false> *",
   "referenced_type" : "type-622",
   "self_type" : "type-2775",
   "size" : 4,
   "source_file" : "/external/libcxx/include/type_traits"
  },
  {
   "alignment" : 4,
   "linker_set_key" : "std::__compressed_pair_elem<unsigned int *, 0, false> *",
   "name" : "std::__compressed_pair_elem<unsigned int *, 0, false> *",
   "referenced_type" : "type-644",
   "self_type" : "type-2789",
   "size" : 4,
   "source_file" : "/external/libcxx/include/type_traits"
  },
  {
   "alignment" : 4,
   "linker_set_key" : "std::__compressed_pair_elem<void (*)(void *), 1, false> *",
   "name" : "std::__compressed_pair_elem<void (*)(void *), 1, false> *",
   "referenced_type" : "type-625",
   "self_type" : "type-2777",
   "size" : 4,
   "source_file" : "/external/libcxx/include/type_traits"
  },
  {
   "alignment" : 4,
   "linker_set_key" : "std::__destruct_n *",
   "name" : "std::__destruct_n *",
   "referenced_type" : "type-2101",
   "self_type" : "type-2102",
   "size" : 4,
   "source_file" : "/external/libcxx/include/memory"
  },
  {
   "alignment" : 4,
   "linker_set_key" : "std::__libcpp_debug_info *",
   "name" : "std::__libcpp_debug_info *",
   "referenced_type" : "type-1654",
   "self_type" : "type-1655",
   "size" : 4,
   "source_file" : "/external/libcxx/include/__debug"
  },
  {
   "alignment" : 4,
   "linker_set_key" : "std::__libcpp_locale_guard *",
   "name" : "std::__libcpp_locale_guard *",
   "referenced_type" : "type-2446",
   "self_type" : "type-2447",
   "size" : 4,
   "source_file" : "/external/libcxx/include/__locale"
  },
  {
   "alignment" : 4,
   "linker_set_key" : "std::__murmur2_or_cityhash<unsigned int, 32> *",
   "name" : "std::__murmur2_or_cityhash<unsigned int, 32> *",
   "referenced_type" : "type-1695",
   "self_type" : "type-1696",
   "size" : 4,
   "source_file" : "/external/libcxx/include/utility"
  },
  {
   "alignment" : 4,
   "linker_set_key" : "std::__narrow_to_utf8<16> *",
   "name" : "std::__narrow_to_utf8<16> *",
   "referenced_type" : "type-2505",
   "self_type" : "type-2506",
   "size" : 4,
   "source_file" : "/external/libcxx/include/__locale"
  },
  {
   "alignment" : 4,
   "linker_set_key" : "std::__narrow_to_utf8<32> *",
   "name" : "std::__narrow_to_utf8<32> *",
   "referenced_type" : "type-2507",
   "self_type" : "type-2508",
   "size" : 4,
   "source_file" : "/external/libcxx/include/__locale"
  },
  {
   "alignment" : 4,
   "linker_set_key" : "std::__sfinae_assign_base<false, false> *",
   "name" : "std::__sfinae_assign_base<false, false> *",
   "referenced_type" : "type-1632",
   "self_type" : "type-1633",
   "size" : 4,
   "source_file" : "/external/libcxx/include/__tuple"
  },
  {
   "alignment" : 4,
   "linker_set_key" : "std::__sfinae_assign_base<false, true> *",
   "name" : "std::__sfinae_assign_base<false, true> *",
   "referenced_type" : "type-1643",
   "self_type" : "type-1644",
   "size" : 4,
   "source_file" : "/external/libcxx/include/__tuple"
  },
  {
   "alignment" : 4,
   "linker_set_key" : "std::__sfinae_assign_base<true, false> *",
   "name" : "std::__sfinae_assign_base<true, false> *",
   "referenced_type" : "type-1637",
   "self_type" : "type-1638",
   "size" : 4,
   "source_file" : "/external/libcxx/include/__tuple"
  },
  {
   "alignment" : 4,
   "linker_set_key" : "std::__sfinae_ctor_base<false, false> *",
   "name" : "std::__sfinae_ctor_base<false, false> *",
   "referenced_type" : "type-1614",
   "self_type" : "type-1615",
   "size" : 4,
   "source_file" : "/external/libcxx/include/__tuple"
  },
  {
   "alignment" : 4,
   "linker_set_key" : "std::__sfinae_ctor_base<false, true> *",
   "name" : "std::__sfinae_ctor_base<false, true> *",
   "referenced_type" : "type-1626",
   "self_type" : "type-1627",
   "size" : 4,
   "source_file" : "/external/libcxx/include/__tuple"
  },
  {
   "alignment" : 4,
   "linker_set_key" : "std::__sfinae_ctor_base<true, false> *",
   "name" : "std::__sfinae_ctor_base<true, false> *",
   "referenced_type" : "type-1620",
   "self_type" : "type-1621",
   "size" : 4,
   "source_file" : "/external/libcxx/include/__tuple"
  },
  {
   "alignment" : 4,
   "linker_set_key" : "std::__shared_count *",
   "name" : "std::__shared_count *",
   "referenced_type" : "type-2104",
   "self_type" : "type-2105",
   "size" : 4,
   "source_file" : "/external/libcxx/include/memory"
  },
  {
   "alignment" : 4,
   "linker_set_key" : "std::__shared_weak_count *",
   "name" : "std::__shared_weak_count *",
   "referenced_type" : "type-2108",
   "self_type" : "type-2109",
   "size" : 4,
   "source_file" : "/external/libcxx/include/memory"
  },
  {
   "alignment" : 4,
   "linker_set_key" : "std::__time_put *",
   "name" : "std::__time_put *",
   "referenced_type" : "type-2586",
   "self_type" : "type-2587",
   "size" : 4,
   "source_file" : "/external/libcxx/include/locale"
  },
  {
   "alignment" : 4,
   "linker_set_key" : "std::__widen_from_utf8<16> *",
   "name" : "std::__widen_from_utf8<16> *",
   "referenced_type" : "type-2510",
   "self_type" : "type-2511",
   "size" : 4,
   "source_file" : "/external/libcxx/include/__locale"
  },
  {
   "alignment" : 4,
   "linker_set_key" : "std::__widen_from_utf8<32> *",
   "name" : "std::__widen_from_utf8<32> *",
   "referenced_type" : "type-2512",
   "self_type" : "type-2513",
   "size" : 4,
   "source_file" : "/external/libcxx/include/__locale"
  },
  {
   "alignment" : 4,
   "linker_set_key" : "std::allocator<char16_t> *",
   "name" : "std::allocator<char16_t> *",
   "referenced_type" : "type-574",
   "self_type" : "type-1900",
   "size" : 4,
   "source_file" : "/external/libcxx/include/memory"
  },
  {
   "alignment" : 4,
   "linker_set_key" : "std::allocator<char32_t> *",
   "name" : "std::allocator<char32_t> *",
   "referenced_type" : "type-592",
   "self_type" : "type-1903",
   "size" : 4,
   "source_file" : "/external/libcxx/include/memory"
  },
  {
   "alignment" : 4,
   "linker_set_key" : "std::allocator<char> *",
   "name" : "std::allocator<char> *",
   "referenced_type" : "type-663",
   "self_type" : "type-1894",
   "size" : 4,
   "source_file" : "/external/libcxx/include/memory"
  },
  {
   "alignment" : 4,
   "linker_set_key" : "std::allocator<wchar_t> *",
   "name" : "std::allocator<wchar_t> *",
   "referenced_type" : "type-681",
   "self_type" : "type-1897",
   "size" : 4,
   "source_file" : "/external/libcxx/include/memory"
  },
  {
   "alignment" : 4,
   "linker_set_key" : "std::atomic<int> *",
   "name" : "std::atomic<int> *",
   "referenced_type" : "type-748",
   "self_type" : "type-1592",
   "size" : 4,
   "source_file" : "/external/libcxx/include/atomic"
  },
  {
   "alignment" : 4,
   "linker_set_key" : "std::atomic<unsigned char> *",
   "name" : "std::atomic<unsigned char> *",
   "referenced_type" : "type-743",
   "self_type" : "type-1591",
   "size" : 4,
   "source_file" : "/external/libcxx/include/atomic"
  },
  {
   "alignment" : 4,
   "linker_set_key" : "std::atomic<unsigned int> *",
   "name" : "std::atomic<unsigned int> *",
   "referenced_type" : "type-1593",
   "self_type" : "type-1594",
   "size" : 4,
   "source_file" : "/external/libcxx/include/atomic"
  },
  {
   "alignment" : 4,
   "linker_set_key" : "std::atomic_flag *",
   "name" : "std::atomic_flag *",
   "referenced_type" : "type-1595",
   "self_type" : "type-1599",
   "size" : 4,
   "source_file" : "/external/libcxx/include/atomic"
  },
  {
   "alignment" : 4,
   "linker_set_key" : "std::bad_exception *",
   "name" : "std::bad_exception *",
   "referenced_type" : "type-1866",
   "self_type" : "type-1867",
   "size" : 4,
   "source_file" : "/external/libcxx/include/exception"
  },
  {
   "alignment" : 4,
   "linker_set_key" : "std::basic_ostream<char, std::char_traits<char> > *",
   "name" : "std::basic_ostream<char, std::char_traits<char> > *",
   "referenced_type" : "type-2541",
   "self_type" : "type-2540",
   "size" : 4,
   "source_file" : "/external/libcxx/include/streambuf"
  },
  {
   "alignment" : 4,
   "linker_set_key" : "std::basic_ostream<wchar_t, std::char_traits<wchar_t> > *",
   "name" : "std::basic_ostream<wchar_t, std::char_traits<wchar_t> > *",
   "referenced_type" : "type-2544",
   "self_type" : "type-2543",
   "size" : 4,
   "source_file" : "/external/libcxx/include/streambuf"
  },
  {
   "alignment" : 4,
   "linker_set_key" : "std::basic_string<char, std::char_traits<char>, std::allocator<char> > *",
   "name" : "std::basic_string<char, std::char_traits<char>, std::allocator<char> > *",
   "referenced_type" : "type-1044",
   "self_type" : "type-2220",
   "size" : 4,
   "source_file" : "/external/libcxx/include/string"
  },
  {
   "alignment" : 4,
   "linker_set_key" : "std::basic_string<char16_t, std::char_traits<char16_t>, std::allocator<char16_t> > *",
   "name" : "std::basic_string<char16_t, std::char_traits<char16_t>, std::allocator<char16_t> > *",
   "referenced_type" : "type-1906",
   "self_type" : "type-1909",
   "size" : 4,
   "source_file" : "/external/libcxx/include/string"
  },
  {
   "alignment" : 4,
   "linker_set_key" : "std::basic_string<char32_t, std::char_traits<char32_t>, std::allocator<char32_t> > *",
   "name" : "std::basic_string<char32_t, std::char_traits<char32_t>, std::allocator<char32_t> > *",
   "referenced_type" : "type-1914",
   "self_type" : "type-1917",
   "size" : 4,
   "source_file" : "/external/libcxx/include/string"
  },
  {
   "alignment" : 4,
   "linker_set_key" : "std::basic_string<wchar_t, std::char_traits<wchar_t>, std::allocator<wchar_t> > *",
   "name" : "std::basic_string<wchar_t, std::char_traits<wchar_t>, std::allocator<wchar_t> > *",
   "referenced_type" : "type-1051",
   "self_type" : "type-2223",
   "size" : 4,
   "source_file" : "/external/libcxx/include/string"
  },
  {
   "alignment" : 4,
   "linker_set_key" : "std::basic_string_view<char, std::char_traits<char> > *",
   "name" : "std::basic_string_view<char, std::char_traits<char> > *",
   "referenced_type" : "type-973",
   "self_type" : "type-2197",
   "size" : 4,
   "source_file" : "/external/libcxx/include/string_view"
  },
  {
   "alignment" : 4,
   "linker_set_key" : "std::basic_string_view<char16_t, std::char_traits<char16_t> > *",
   "name" : "std::basic_string_view<char16_t, std::char_traits<char16_t> > *",
   "referenced_type" : "type-983",
   "self_type" : "type-2201",
   "size" : 4,
   "source_file" : "/external/libcxx/include/string_view"
  },
  {
   "alignment" : 4,
   "linker_set_key" : "std::basic_string_view<char32_t, std::char_traits<char32_t> > *",
   "name" : "std::basic_string_view<char32_t, std::char_traits<char32_t> > *",
   "referenced_type" : "type-989",
   "self_type" : "type-2205",
   "size" : 4,
   "source_file" : "/external/libcxx/include/string_view"
  },
  {
   "alignment" : 4,
   "linker_set_key" : "std::basic_string_view<wchar_t, std::char_traits<wchar_t> > *",
   "name" : "std::basic_string_view<wchar_t, std::char_traits<wchar_t> > *",
   "referenced_type" : "type-977",
   "self_type" : "type-2209",
   "size" : 4,
   "source_file" : "/external/libcxx/include/string_view"
  },
  {
   "alignment" : 4,
   "linker_set_key" : "std::chrono::duration<long double, std::ratio<1, 1000000000> > *",
   "name" : "std::chrono::duration<long double, std::ratio<1, 1000000000> > *",
   "referenced_type" : "type-998",
   "self_type" : "type-2323",
   "size" : 4,
   "source_file" : "/external/libcxx/include/chrono"
  },
  {
   "alignment" : 4,
   "linker_set_key" : "std::chrono::duration<long double, std::ratio<1, 1000000> > *",
   "name" : "std::chrono::duration<long double, std::ratio<1, 1000000> > *",
   "referenced_type" : "type-2319",
   "self_type" : "type-2320",
   "size" : 4,
   "source_file" : "/external/libcxx/include/chrono"
  },
  {
   "alignment" : 4,
   "linker_set_key" : "std::chrono::duration<long double, std::ratio<1, 1000> > *",
   "name" : "std::chrono::duration<long double, std::ratio<1, 1000> > *",
   "referenced_type" : "type-2317",
   "self_type" : "type-2318",
   "size" : 4,
   "source_file" : "/external/libcxx/include/chrono"
  },
  {
   "alignment" : 4,
   "linker_set_key" : "std::chrono::duration<long double, std::ratio<1, 1> > *",
   "name" : "std::chrono::duration<long double, std::ratio<1, 1> > *",
   "referenced_type" : "type-2315",
   "self_type" : "type-2316",
   "size" : 4,
   "source_file" : "/external/libcxx/include/chrono"
  },
  {
   "alignment" : 4,
   "linker_set_key" : "std::chrono::duration<long double, std::ratio<3600, 1> > *",
   "name" : "std::chrono::duration<long double, std::ratio<3600, 1> > *",
   "referenced_type" : "type-2309",
   "self_type" : "type-2310",
   "size" : 4,
   "source_file" : "/external/libcxx/include/chrono"
  },
  {
   "alignment" : 4,
   "linker_set_key" : "std::chrono::duration<long double, std::ratio<60, 1> > *",
   "name" : "std::chrono::duration<long double, std::ratio<60, 1> > *",
   "referenced_type" : "type-2313",
   "self_type" : "type-2314",
   "size" : 4,
   "source_file" : "/external/libcxx/include/chrono"
  },
  {
   "alignment" : 4,
   "linker_set_key" : "std::chrono::duration<long long, std::ratio<1, 1000000000> > *",
   "name" : "std::chrono::duration<long long, std::ratio<1, 1000000000> > *",
   "referenced_type" : "type-1034",
   "self_type" : "type-2292",
   "size" : 4,
   "source_file" : "/external/libcxx/include/chrono"
  },
  {
   "alignment" : 4,
   "linker_set_key" : "std::chrono::duration<long long, std::ratio<1, 1000000> > *",
   "name" : "std::chrono::duration<long long, std::ratio<1, 1000000> > *",
   "referenced_type" : "type-2298",
   "self_type" : "type-2299",
   "size" : 4,
   "source_file" : "/external/libcxx/include/chrono"
  },
  {
   "alignment" : 4,
   "linker_set_key" : "std::chrono::duration<long long, std::ratio<1, 1000> > *",
   "name" : "std::chrono::duration<long long, std::ratio<1, 1000> > *",
   "referenced_type" : "type-2300",
   "self_type" : "type-2301",
   "size" : 4,
   "source_file" : "/external/libcxx/include/chrono"
  },
  {
   "alignment" : 4,
   "linker_set_key" : "std::chrono::duration<long long, std::ratio<1, 1> > *",
   "name" : "std::chrono::duration<long long, std::ratio<1, 1> > *",
   "referenced_type" : "type-1036",
   "self_type" : "type-2302",
   "size" : 4,
   "source_file" : "/external/libcxx/include/chrono"
  },
  {
   "alignment" : 4,
   "linker_set_key" : "std::chrono::duration<long, std::ratio<3600, 1> > *",
   "name" : "std::chrono::duration<long, std::ratio<3600, 1> > *",
   "referenced_type" : "type-2307",
   "self_type" : "type-2308",
   "size" : 4,
   "source_file" : "/external/libcxx/include/chrono"
  },
  {
   "alignment" : 4,
   "linker_set_key" : "std::chrono::duration<long, std::ratio<60, 1> > *",
   "name" : "std::chrono::duration<long, std::ratio<60, 1> > *",
   "referenced_type" : "type-2305",
   "self_type" : "type-2306",
   "size" : 4,
   "source_file" : "/external/libcxx/include/chrono"
  },
  {
   "alignment" : 4,
   "linker_set_key" : "std::chrono::time_point<std::chrono::system_clock, std::chrono::duration<long double, std::ratio<1, 1000000000> > > *",
   "name" : "std::chrono::time_point<std::chrono::system_clock, std::chrono::duration<long double, std::ratio<1, 1000000000> > > *",
   "referenced_type" : "type-2377",
   "self_type" : "type-2378",
   "size" : 4,
   "source_file" : "/external/libcxx/include/chrono"
  },
  {
   "alignment" : 4,
   "linker_set_key" : "std::chrono::time_point<std::chrono::system_clock, std::chrono::duration<long long, std::ratio<1, 1000000000> > > *",
   "name" : "std::chrono::time_point<std::chrono::system_clock, std::chrono::duration<long long, std::ratio<1, 1000000000> > > *",
   "referenced_type" : "type-2373",
   "self_type" : "type-2374",
   "size" : 4,
   "source_file" : "/external/libcxx/include/chrono"
  },
  {
   "alignment" : 4,
   "linker_set_key" : "std::chrono::time_point<std::filesystem::_FilesystemClock, std::chrono::duration<long long, std::ratio<1, 1000000000> > > *",
   "name" : "std::chrono::time_point<std::filesystem::_FilesystemClock, std::chrono::duration<long long, std::ratio<1, 1000000000> > > *",
   "referenced_type" : "type-2368",
   "self_type" : "type-2370",
   "size" : 4,
   "source_file" : "/external/libcxx/include/chrono"
  },
  {
   "alignment" : 4,
   "linker_set_key" : "std::codecvt<char, char, mbstate_t> *",
   "name" : "std::codecvt<char, char, mbstate_t> *",
   "referenced_type" : "type-2476",
   "self_type" : "type-2477",
   "size" : 4,
   "source_file" : "/external/libcxx/include/__locale"
  },
  {
   "alignment" : 4,
   "linker_set_key" : "std::codecvt<char16_t, char, mbstate_t> *",
   "name" : "std::codecvt<char16_t, char, mbstate_t> *",
   "referenced_type" : "type-2488",
   "self_type" : "type-2489",
   "size" : 4,
   "source_file" : "/external/libcxx/include/__locale"
  },
  {
   "alignment" : 4,
   "linker_set_key" : "std::codecvt<char32_t, char, mbstate_t> *",
   "name" : "std::codecvt<char32_t, char, mbstate_t> *",
   "referenced_type" : "type-2494",
   "self_type" : "type-2495",
   "size" : 4,
   "source_file" : "/external/libcxx/include/__locale"
  },
  {
   "alignment" : 4,
   "linker_set_key" : "std::codecvt_base *",
   "name" : "std::codecvt_base *",
   "referenced_type" : "type-2473",
   "self_type" : "type-2474",
   "size" : 4,
   "source_file" : "/external/libcxx/include/__locale"
  },
  {
   "alignment" : 4,
   "linker_set_key" : "std::condition_variable *",
   "name" : "std::condition_variable *",
   "referenced_type" : "type-2435",
   "self_type" : "type-2436",
   "size" : 4,
   "source_file" : "/external/libcxx/include/__mutex_base"
  },
  {
   "alignment" : 4,
   "linker_set_key" : "std::ctype<wchar_t> *",
   "name" : "std::ctype<wchar_t> *",
   "referenced_type" : "type-2462",
   "self_type" : "type-2463",
   "size" : 4,
   "source_file" : "/external/libcxx/include/__locale"
  },
  {
   "alignment" : 4,
   "linker_set_key" : "std::ctype_base *",
   "name" : "std::ctype_base *",
   "referenced_type" : "type-2460",
   "self_type" : "type-2461",
   "size" : 4,
   "source_file" : "/external/libcxx/include/__locale"
  },
  {
   "alignment" : 4,
   "linker_set_key" : "std::domain_error *",
   "name" : "std::domain_error *",
   "referenced_type" : "type-1945",
   "self_type" : "type-1946",
   "size" : 4,
   "source_file" : "/external/libcxx/include/stdexcept"
  },
  {
   "alignment" : 4,
   "linker_set_key" : "std::error_category *",
   "name" : "std::error_category *",
   "referenced_type" : "type-1692",
   "self_type" : "type-2396",
   "size" : 4,
   "source_file" : "/external/libcxx/include/system_error"
  },
  {
   "alignment" : 4,
   "linker_set_key" : "std::error_code *",
   "name" : "std::error_code *",
   "referenced_type" : "type-1689",
   "self_type" : "type-2403",
   "size" : 4,
   "source_file" : "/external/libcxx/include/system_error"
  },
  {
   "alignment" : 4,
   "linker_set_key" : "std::error_condition *",
   "name" : "std::error_condition *",
   "referenced_type" : "type-1694",
   "self_type" : "type-2399",
   "size" : 4,
   "source_file" : "/external/libcxx/include/system_error"
  },
  {
   "alignment" : 4,
   "linker_set_key" : "std::exception *",
   "name" : "std::exception *",
   "referenced_type" : "type-1864",
   "self_type" : "type-1865",
   "size" : 4,
   "source_file" : "/external/libcxx/include/exception"
  },
  {
   "alignment" : 4,
   "linker_set_key" : "std::exception_ptr *",
   "name" : "std::exception_ptr *",
   "referenced_type" : "type-1868",
   "self_type" : "type-1869",
   "size" : 4,
   "source_file" : "/external/libcxx/include/exception"
  },
  {
   "alignment" : 4,
   "linker_set_key" : "std::in_place_t *",
   "name" : "std::in_place_t *",
   "referenced_type" : "type-1664",
   "self_type" : "type-1665",
   "size" : 4,
   "source_file" : "/external/libcxx/include/utility"
  },
  {
   "alignment" : 4,
   "linker_set_key" : "std::invalid_argument *",
   "name" : "std::invalid_argument *",
   "referenced_type" : "type-1947",
   "self_type" : "type-1948",
   "size" : 4,
   "source_file" : "/external/libcxx/include/stdexcept"
  },
  {
   "alignment" : 4,
   "linker_set_key" : "std::ios_base *",
   "name" : "std::ios_base *",
   "referenced_type" : "type-2522",
   "self_type" : "type-2532",
   "size" : 4,
   "source_file" : "/external/libcxx/include/ios"
  },
  {
   "alignment" : 4,
   "linker_set_key" : "std::length_error *",
   "name" : "std::length_error *",
   "referenced_type" : "type-1949",
   "self_type" : "type-1950",
   "size" : 4,
   "source_file" : "/external/libcxx/include/stdexcept"
  },
  {
   "alignment" : 4,
   "linker_set_key" : "std::locale::__imp *",
   "name" : "std::locale::__imp *",
   "referenced_type" : "type-2390",
   "self_type" : "type-2389",
   "size" : 4,
   "source_file" : "/external/libcxx/include/__locale"
  },
  {
   "alignment" : 4,
   "linker_set_key" : "std::locale::facet *",
   "name" : "std::locale::facet *",
   "referenced_type" : "type-2452",
   "self_type" : "type-2453",
   "size" : 4,
   "source_file" : "/external/libcxx/include/__locale"
  },
  {
   "alignment" : 4,
   "linker_set_key" : "std::locale::id *",
   "name" : "std::locale::id *",
   "referenced_type" : "type-2454",
   "self_type" : "type-2455",
   "size" : 4,
   "source_file" : "/external/libcxx/include/__locale"
  },
  {
   "alignment" : 4,
   "linker_set_key" : "std::messages_base *",
   "name" : "std::messages_base *",
   "referenced_type" : "type-2620",
   "self_type" : "type-2621",
   "size" : 4,
   "source_file" : "/external/libcxx/include/locale"
  },
  {
   "alignment" : 4,
   "linker_set_key" : "std::money_base *",
   "name" : "std::money_base *",
   "referenced_type" : "type-2596",
   "self_type" : "type-2599",
   "size" : 4,
   "source_file" : "/external/libcxx/include/locale"
  },
  {
   "alignment" : 4,
   "linker_set_key" : "std::mutex *",
   "name" : "std::mutex *",
   "referenced_type" : "type-1192",
   "self_type" : "type-2426",
   "size" : 4,
   "source_file" : "/external/libcxx/include/__mutex_base"
  },
  {
   "alignment" : 4,
   "linker_set_key" : "std::once_flag *",
   "name" : "std::once_flag *",
   "referenced_type" : "type-2443",
   "self_type" : "type-2444",
   "size" : 4,
   "source_file" : "/external/libcxx/include/mutex"
  },
  {
   "alignment" : 4,
   "linker_set_key" : "std::out_of_range *",
   "name" : "std::out_of_range *",
   "referenced_type" : "type-1951",
   "self_type" : "type-1952",
   "size" : 4,
   "source_file" : "/external/libcxx/include/stdexcept"
  },
  {
   "alignment" : 4,
   "linker_set_key" : "std::overflow_error *",
   "name" : "std::overflow_error *",
   "referenced_type" : "type-1955",
   "self_type" : "type-1956",
   "size" : 4,
   "source_file" : "/external/libcxx/include/stdexcept"
  },
  {
   "alignment" : 4,
   "linker_set_key" : "std::pointer_safety *",
   "name" : "std::pointer_safety *",
   "referenced_type" : "type-2116",
   "self_type" : "type-2118",
   "size" : 4,
   "source_file" : "/external/libcxx/include/memory"
  },
  {
   "alignment" : 4,
   "linker_set_key" : "std::range_error *",
   "name" : "std::range_error *",
   "referenced_type" : "type-1953",
   "self_type" : "type-1954",
   "size" : 4,
   "source_file" : "/external/libcxx/include/stdexcept"
  },
  {
   "alignment" : 4,
   "linker_set_key" : "std::recursive_mutex *",
   "name" : "std::recursive_mutex *",
   "referenced_type" : "type-2437",
   "self_type" : "type-2438",
   "size" : 4,
   "source_file" : "/external/libcxx/include/mutex"
  },
  {
   "alignment" : 4,
   "linker_set_key" : "std::scoped_lock<> *",
   "name" : "std::scoped_lock<> *",
   "referenced_type" : "type-2441",
   "self_type" : "type-2442",
   "size" : 4,
   "source_file" : "/external/libcxx/include/mutex"
  },
  {
   "alignment" : 4,
   "linker_set_key" : "std::tuple<> *",
   "name" : "std::tuple<> *",
   "referenced_type" : "type-1932",
   "self_type" : "type-1933",
   "size" : 4,
   "source_file" : "/external/libcxx/include/tuple"
  },
  {
   "alignment" : 4,
   "linker_set_key" : "std::type_info *",
   "name" : "std::type_info *",
   "referenced_type" : "type-1876",
   "self_type" : "type-1877",
   "size" : 4,
   "source_file" : "/external/libcxx/include/typeinfo"
  },
  {
   "alignment" : 4,
   "linker_set_key" : "std::underflow_error *",
   "name" : "std::underflow_error *",
   "referenced_type" : "type-1957",
   "self_type" : "type-1958",
   "size" : 4,
   "source_file" : "/external/libcxx/include/stdexcept"
  },
  {
   "alignment" : 4,
   "linker_set_key" : "timespec *",
   "name" : "timespec *",
   "referenced_type" : "type-1505",
   "self_type" : "type-2423",
   "size" : 4,
   "source_file" : "/external/libcxx/include/__threading_support"
  },
  {
   "alignment" : 4,
   "linker_set_key" : "ucontext *",
   "name" : "ucontext *",
   "referenced_type" : "type-1566",
   "self_type" : "type-1567",
   "size" : 4,
   "source_file" : "/bionic/libc/include/sys/ucontext.h"
  },
  {
   "alignment" : 4,
   "linker_set_key" : "ucontext *",
   "name" : "ucontext *",
   "referenced_type" : "type-3288",
   "self_type" : "type-3289",
   "size" : 4,
   "source_file" : "/out/soong/ndk/sysroot/usr/include/sys/ucontext.h"
  },
  {
   "alignment" : 4,
   "linker_set_key" : "unsigned char (*)(_JNIEnv *)",
   "name" : "unsigned char (*)(_JNIEnv *)",
   "referenced_type" : "type-545",
   "self_type" : "type-544",
   "size" : 4,
   "source_file" : "/libnativehelper/include_jni/jni.h"
  },
  {
   "alignment" : 4,
   "linker_set_key" : "unsigned char (*)(_JNIEnv *, _jclass *, _jclass *)",
   "name" : "unsigned char (*)(_JNIEnv *, _jclass *, _jclass *)",
   "referenced_type" : "type-42",
   "self_type" : "type-41",
   "size" : 4,
   "source_file" : "/libnativehelper/include_jni/jni.h"
  },
  {
   "alignment" : 4,
   "linker_set_key" : "unsigned char (*)(_JNIEnv *, _jclass *, _jfieldID *)",
   "name" : "unsigned char (*)(_JNIEnv *, _jclass *, _jfieldID *)",
   "referenced_type" : "type-331",
   "self_type" : "type-330",
   "size" : 4,
   "source_file" : "/libnativehelper/include_jni/jni.h"
  },
  {
   "alignment" : 4,
   "linker_set_key" : "unsigned char (*)(_JNIEnv *, _jclass *, _jmethodID *, ...)",
   "name" : "unsigned char (*)(_JNIEnv *, _jclass *, _jmethodID *, ...)",
   "referenced_type" : "type-266",
   "self_type" : "type-265",
   "size" : 4,
   "source_file" : "/libnativehelper/include_jni/jni.h"
  },
  {
   "alignment" : 4,
   "linker_set_key" : "unsigned char (*)(_JNIEnv *, _jclass *, _jmethodID *, const jvalue *)",
   "name" : "unsigned char (*)(_JNIEnv *, _jclass *, _jmethodID *, const jvalue *)",
   "referenced_type" : "type-271",
   "self_type" : "type-270",
   "size" : 4,
   "source_file" : "/libnativehelper/include_jni/jni.h"
  },
  {
   "alignment" : 4,
   "linker_set_key" : "unsigned char (*)(_JNIEnv *, _jclass *, _jmethodID *, std::__va_list)",
   "name" : "unsigned char (*)(_JNIEnv *, _jclass *, _jmethodID *, std::__va_list)",
   "referenced_type" : "type-268",
   "self_type" : "type-267",
   "size" : 4,
   "source_file" : "/libnativehelper/include_jni/jni.h"
  },
  {
   "alignment" : 4,
   "linker_set_key" : "unsigned char (*)(_JNIEnv *, _jobject *, _jclass *)",
   "name" : "unsigned char (*)(_JNIEnv *, _jobject *, _jclass *)",
   "referenced_type" : "type-84",
   "self_type" : "type-83",
   "size" : 4,
   "source_file" : "/libnativehelper/include_jni/jni.h"
  },
  {
   "alignment" : 4,
   "linker_set_key" : "unsigned char (*)(_JNIEnv *, _jobject *, _jclass *, _jmethodID *, ...)",
   "name" : "unsigned char (*)(_JNIEnv *, _jobject *, _jclass *, _jmethodID *, ...)",
   "referenced_type" : "type-165",
   "self_type" : "type-164",
   "size" : 4,
   "source_file" : "/libnativehelper/include_jni/jni.h"
  },
  {
   "alignment" : 4,
   "linker_set_key" : "unsigned char (*)(_JNIEnv *, _jobject *, _jclass *, _jmethodID *, const jvalue *)",
   "name" : "unsigned char (*)(_JNIEnv *, _jobject *, _jclass *, _jmethodID *, const jvalue *)",
   "referenced_type" : "type-170",
   "self_type" : "type-169",
   "size" : 4,
   "source_file" : "/libnativehelper/include_jni/jni.h"
  },
  {
   "alignment" : 4,
   "linker_set_key" : "unsigned char (*)(_JNIEnv *, _jobject *, _jclass *, _jmethodID *, std::__va_list)",
   "name" : "unsigned char (*)(_JNIEnv *, _jobject *, _jclass *, _jmethodID *, std::__va_list)",
   "referenced_type" : "type-167",
   "self_type" : "type-166",
   "size" : 4,
   "source_file" : "/libnativehelper/include_jni/jni.h"
  },
  {
   "alignment" : 4,
   "linker_set_key" : "unsigned char (*)(_JNIEnv *, _jobject *, _jfieldID *)",
   "name" : "unsigned char (*)(_JNIEnv *, _jobject *, _jfieldID *)",
   "referenced_type" : "type-232",
   "self_type" : "type-231",
   "size" : 4,
   "source_file" : "/libnativehelper/include_jni/jni.h"
  },
  {
   "alignment" : 4,
   "linker_set_key" : "unsigned char (*)(_JNIEnv *, _jobject *, _jmethodID *, ...)",
   "name" : "unsigned char (*)(_JNIEnv *, _jobject *, _jmethodID *, ...)",
   "referenced_type" : "type-95",
   "self_type" : "type-94",
   "size" : 4,
   "source_file" : "/libnativehelper/include_jni/jni.h"
  },
  {
   "alignment" : 4,
   "linker_set_key" : "unsigned char (*)(_JNIEnv *, _jobject *, _jmethodID *, const jvalue *)",
   "name" : "unsigned char (*)(_JNIEnv *, _jobject *, _jmethodID *, const jvalue *)",
   "referenced_type" : "type-100",
   "self_type" : "type-99",
   "size" : 4,
   "source_file" : "/libnativehelper/include_jni/jni.h"
  },
  {
   "alignment" : 4,
   "linker_set_key" : "unsigned char (*)(_JNIEnv *, _jobject *, _jmethodID *, std::__va_list)",
   "name" : "unsigned char (*)(_JNIEnv *, _jobject *, _jmethodID *, std::__va_list)",
   "referenced_type" : "type-97",
   "self_type" : "type-96",
   "size" : 4,
   "source_file" : "/libnativehelper/include_jni/jni.h"
  },
  {
   "alignment" : 4,
   "linker_set_key" : "unsigned char (*)(_JNIEnv *, _jobject *, _jobject *)",
   "name" : "unsigned char (*)(_JNIEnv *, _jobject *, _jobject *)",
   "referenced_type" : "type-64",
   "self_type" : "type-63",
   "size" : 4,
   "source_file" : "/libnativehelper/include_jni/jni.h"
  },
  {
   "alignment" : 4,
   "linker_set_key" : "unsigned char *",
   "name" : "unsigned char *",
   "referenced_type" : "type-38",
   "self_type" : "type-374",
   "size" : 4,
   "source_file" : "/libnativehelper/include_jni/jni.h"
  },
  {
   "alignment" : 4,
   "linker_set_key" : "unsigned char *(*)(_JNIEnv *, _jbooleanArray *, unsigned char *)",
   "name" : "unsigned char *(*)(_JNIEnv *, _jbooleanArray *, unsigned char *)",
   "referenced_type" : "type-428",
   "self_type" : "type-427",
   "size" : 4,
   "source_file" : "/libnativehelper/include_jni/jni.h"
  },
  {
   "alignment" : 4,
   "linker_set_key" : "unsigned int *",
   "name" : "unsigned int *",
   "referenced_type" : "type-555",
   "self_type" : "type-645",
   "size" : 4,
   "source_file" : "/external/libcxx/include/type_traits"
  },
  {
   "alignment" : 4,
   "linker_set_key" : "unsigned long *",
   "name" : "unsigned long *",
   "referenced_type" : "type-608",
   "self_type" : "type-2466",
   "size" : 4,
   "source_file" : "/external/libcxx/include/__locale"
  },
  {
   "alignment" : 4,
   "linker_set_key" : "unsigned long long *",
   "name" : "unsigned long long *",
   "referenced_type" : "type-600",
   "self_type" : "type-2688",
   "size" : 4,
   "source_file" : "/external/skia/include/core/SkPixmap.h"
  },
  {
   "alignment" : 4,
   "linker_set_key" : "unsigned short (*)(_JNIEnv *, _jclass *, _jfieldID *)",
   "name" : "unsigned short (*)(_JNIEnv *, _jclass *, _jfieldID *)",
   "referenced_type" : "type-335",
   "self_type" : "type-334",
   "size" : 4,
   "source_file" : "/libnativehelper/include_jni/jni.h"
  },
  {
   "alignment" : 4,
   "linker_set_key" : "unsigned short (*)(_JNIEnv *, _jclass *, _jmethodID *, ...)",
   "name" : "unsigned short (*)(_JNIEnv *, _jclass *, _jmethodID *, ...)",
   "referenced_type" : "type-280",
   "self_type" : "type-279",
   "size" : 4,
   "source_file" : "/libnativehelper/include_jni/jni.h"
  },
  {
   "alignment" : 4,
   "linker_set_key" : "unsigned short (*)(_JNIEnv *, _jclass *, _jmethodID *, const jvalue *)",
   "name" : "unsigned short (*)(_JNIEnv *, _jclass *, _jmethodID *, const jvalue *)",
   "referenced_type" : "type-285",
   "self_type" : "type-284",
   "size" : 4,
   "source_file" : "/libnativehelper/include_jni/jni.h"
  },
  {
   "alignment" : 4,
   "linker_set_key" : "unsigned short (*)(_JNIEnv *, _jclass *, _jmethodID *, std::__va_list)",
   "name" : "unsigned short (*)(_JNIEnv *, _jclass *, _jmethodID *, std::__va_list)",
   "referenced_type" : "type-282",
   "self_type" : "type-281",
   "size" : 4,
   "source_file" : "/libnativehelper/include_jni/jni.h"
  },
  {
   "alignment" : 4,
   "linker_set_key" : "unsigned short (*)(_JNIEnv *, _jobject *, _jclass *, _jmethodID *, ...)",
   "name" : "unsigned short (*)(_JNIEnv *, _jobject *, _jclass *, _jmethodID *, ...)",
   "referenced_type" : "type-179",
   "self_type" : "type-178",
   "size" : 4,
   "source_file" : "/libnativehelper/include_jni/jni.h"
  },
  {
   "alignment" : 4,
   "linker_set_key" : "unsigned short (*)(_JNIEnv *, _jobject *, _jclass *, _jmethodID *, const jvalue *)",
   "name" : "unsigned short (*)(_JNIEnv *, _jobject *, _jclass *, _jmethodID *, const jvalue *)",
   "referenced_type" : "type-184",
   "self_type" : "type-183",
   "size" : 4,
   "source_file" : "/libnativehelper/include_jni/jni.h"
  },
  {
   "alignment" : 4,
   "linker_set_key" : "unsigned short (*)(_JNIEnv *, _jobject *, _jclass *, _jmethodID *, std::__va_list)",
   "name" : "unsigned short (*)(_JNIEnv *, _jobject *, _jclass *, _jmethodID *, std::__va_list)",
   "referenced_type" : "type-181",
   "self_type" : "type-180",
   "size" : 4,
   "source_file" : "/libnativehelper/include_jni/jni.h"
  },
  {
   "alignment" : 4,
   "linker_set_key" : "unsigned short (*)(_JNIEnv *, _jobject *, _jfieldID *)",
   "name" : "unsigned short (*)(_JNIEnv *, _jobject *, _jfieldID *)",
   "referenced_type" : "type-236",
   "self_type" : "type-235",
   "size" : 4,
   "source_file" : "/libnativehelper/include_jni/jni.h"
  },
  {
   "alignment" : 4,
   "linker_set_key" : "unsigned short (*)(_JNIEnv *, _jobject *, _jmethodID *, ...)",
   "name" : "unsigned short (*)(_JNIEnv *, _jobject *, _jmethodID *, ...)",
   "referenced_type" : "type-109",
   "self_type" : "type-108",
   "size" : 4,
   "source_file" : "/libnativehelper/include_jni/jni.h"
  },
  {
   "alignment" : 4,
   "linker_set_key" : "unsigned short (*)(_JNIEnv *, _jobject *, _jmethodID *, const jvalue *)",
   "name" : "unsigned short (*)(_JNIEnv *, _jobject *, _jmethodID *, const jvalue *)",
   "referenced_type" : "type-114",
   "self_type" : "type-113",
   "size" : 4,
   "source_file" : "/libnativehelper/include_jni/jni.h"
  },
  {
   "alignment" : 4,
   "linker_set_key" : "unsigned short (*)(_JNIEnv *, _jobject *, _jmethodID *, std::__va_list)",
   "name" : "unsigned short (*)(_JNIEnv *, _jobject *, _jmethodID *, std::__va_list)",
   "referenced_type" : "type-111",
   "self_type" : "type-110",
   "size" : 4,
   "source_file" : "/libnativehelper/include_jni/jni.h"
  },
  {
   "alignment" : 4,
   "linker_set_key" : "unsigned short *",
   "name" : "unsigned short *",
   "referenced_type" : "type-77",
   "self_type" : "type-434",
   "size" : 4,
   "source_file" : "/libnativehelper/include_jni/jni.h"
  },
  {
   "alignment" : 4,
   "linker_set_key" : "unsigned short *(*)(_JNIEnv *, _jcharArray *, unsigned char *)",
   "name" : "unsigned short *(*)(_JNIEnv *, _jcharArray *, unsigned char *)",
   "referenced_type" : "type-433",
   "self_type" : "type-432",
   "size" : 4,
   "source_file" : "/libnativehelper/include_jni/jni.h"
  },
  {
   "alignment" : 4,
   "linker_set_key" : "unw_addr_space *",
   "name" : "unw_addr_space *",
   "referenced_type" : "type-3237",
   "self_type" : "type-3236",
   "size" : 4,
   "source_file" : "/external/libunwind_llvm/include/libunwind.h"
  },
  {
   "alignment" : 4,
   "linker_set_key" : "unw_addr_space *",
   "name" : "unw_addr_space *",
   "referenced_type" : "type-3368",
   "self_type" : "type-3367",
   "size" : 4,
   "source_file" : "/external/libunwind_llvm/include/libunwind.h"
  },
  {
   "alignment" : 4,
   "linker_set_key" : "unw_addr_space *",
   "name" : "unw_addr_space *",
   "referenced_type" : "type-3392",
   "self_type" : "type-3391",
   "size" : 4,
   "source_file" : "/external/libunwind_llvm/include/libunwind.h"
  },
  {
   "alignment" : 4,
   "linker_set_key" : "unw_addr_space *",
   "name" : "unw_addr_space *",
   "referenced_type" : "type-3399",
   "self_type" : "type-3398",
   "size" : 4,
   "source_file" : "/external/libunwind_llvm/include/libunwind.h"
  },
  {
   "alignment" : 4,
   "linker_set_key" : "unw_context_t *",
   "name" : "unw_context_t *",
   "referenced_type" : "type-3131",
   "self_type" : "type-3130",
   "size" : 4,
   "source_file" : "/external/libunwind_llvm/include/libunwind.h"
  },
  {
   "alignment" : 4,
   "linker_set_key" : "unw_cursor_t *",
   "name" : "unw_cursor_t *",
   "referenced_type" : "type-3116",
   "self_type" : "type-3115",
   "size" : 4,
   "source_file" : "/external/libunwind_llvm/include/libunwind.h"
  },
  {
   "alignment" : 4,
   "linker_set_key" : "unw_proc_info_t *",
   "name" : "unw_proc_info_t *",
   "referenced_type" : "type-3206",
   "self_type" : "type-3205",
   "size" : 4,
   "source_file" : "/external/libunwind_llvm/include/libunwind.h"
  },
  {
   "alignment" : 4,
   "linker_set_key" : "user_fpregs *",
   "name" : "user_fpregs *",
   "referenced_type" : "type-1553",
   "self_type" : "type-1565",
   "size" : 4,
   "source_file" : "/bionic/libc/include/sys/user.h"
  },
  {
   "alignment" : 4,
   "linker_set_key" : "user_fpregs *",
   "name" : "user_fpregs *",
   "referenced_type" : "type-3278",
   "self_type" : "type-3287",
   "size" : 4,
   "source_file" : "/out/soong/ndk/sysroot/usr/include/sys/user.h"
  },
  {
   "alignment" : 4,
   "linker_set_key" : "user_regs *",
   "name" : "user_regs *",
   "referenced_type" : "type-1557",
   "self_type" : "type-1563",
   "size" : 4,
   "source_file" : "/bionic/libc/include/sys/user.h"
  },
  {
   "alignment" : 4,
   "linker_set_key" : "user_regs *",
   "name" : "user_regs *",
   "referenced_type" : "type-3281",
   "self_type" : "type-3286",
   "size" : 4,
   "source_file" : "/out/soong/ndk/sysroot/usr/include/sys/user.h"
  },
  {
   "alignment" : 4,
   "linker_set_key" : "void (*)()",
   "name" : "void (*)()",
   "referenced_type" : "type-1539",
   "self_type" : "type-1538",
   "size" : 4,
   "source_file" : "/bionic/libc/kernel/uapi/asm-arm/asm/signal.h"
  },
  {
   "alignment" : 4,
   "linker_set_key" : "void (*)(_JNIEnv *)",
   "name" : "void (*)(_JNIEnv *)",
   "referenced_type" : "type-54",
   "self_type" : "type-53",
   "size" : 4,
   "source_file" : "/libnativehelper/include_jni/jni.h"
  },
  {
   "alignment" : 4,
   "linker_set_key" : "void (*)(_JNIEnv *, _jarray *, void *, int)",
   "name" : "void (*)(_JNIEnv *, _jarray *, void *, int)",
   "referenced_type" : "type-543",
   "self_type" : "type-542",
   "size" : 4,
   "source_file" : "/libnativehelper/include_jni/jni.h"
  },
  {
   "alignment" : 4,
   "linker_set_key" : "void (*)(_JNIEnv *, _jbooleanArray *, int, int, const unsigned char *)",
   "name" : "void (*)(_JNIEnv *, _jbooleanArray *, int, int, const unsigned char *)",
   "referenced_type" : "type-483",
   "self_type" : "type-482",
   "size" : 4,
   "source_file" : "/libnativehelper/include_jni/jni.h"
  },
  {
   "alignment" : 4,
   "linker_set_key" : "void (*)(_JNIEnv *, _jbooleanArray *, int, int, unsigned char *)",
   "name" : "void (*)(_JNIEnv *, _jbooleanArray *, int, int, unsigned char *)",
   "referenced_type" : "type-467",
   "self_type" : "type-466",
   "size" : 4,
   "source_file" : "/libnativehelper/include_jni/jni.h"
  },
  {
   "alignment" : 4,
   "linker_set_key" : "void (*)(_JNIEnv *, _jbooleanArray *, unsigned char *, int)",
   "name" : "void (*)(_JNIEnv *, _jbooleanArray *, unsigned char *, int)",
   "referenced_type" : "type-451",
   "self_type" : "type-450",
   "size" : 4,
   "source_file" : "/libnativehelper/include_jni/jni.h"
  },
  {
   "alignment" : 4,
   "linker_set_key" : "void (*)(_JNIEnv *, _jbyteArray *, int, int, const signed char *)",
   "name" : "void (*)(_JNIEnv *, _jbyteArray *, int, int, const signed char *)",
   "referenced_type" : "type-487",
   "self_type" : "type-486",
   "size" : 4,
   "source_file" : "/libnativehelper/include_jni/jni.h"
  },
  {
   "alignment" : 4,
   "linker_set_key" : "void (*)(_JNIEnv *, _jbyteArray *, int, int, signed char *)",
   "name" : "void (*)(_JNIEnv *, _jbyteArray *, int, int, signed char *)",
   "referenced_type" : "type-469",
   "self_type" : "type-468",
   "size" : 4,
   "source_file" : "/libnativehelper/include_jni/jni.h"
  },
  {
   "alignment" : 4,
   "linker_set_key" : "void (*)(_JNIEnv *, _jbyteArray *, signed char *, int)",
   "name" : "void (*)(_JNIEnv *, _jbyteArray *, signed char *, int)",
   "referenced_type" : "type-453",
   "self_type" : "type-452",
   "size" : 4,
   "source_file" : "/libnativehelper/include_jni/jni.h"
  },
  {
   "alignment" : 4,
   "linker_set_key" : "void (*)(_JNIEnv *, _jcharArray *, int, int, const unsigned short *)",
   "name" : "void (*)(_JNIEnv *, _jcharArray *, int, int, const unsigned short *)",
   "referenced_type" : "type-489",
   "self_type" : "type-488",
   "size" : 4,
   "source_file" : "/libnativehelper/include_jni/jni.h"
  },
  {
   "alignment" : 4,
   "linker_set_key" : "void (*)(_JNIEnv *, _jcharArray *, int, int, unsigned short *)",
   "name" : "void (*)(_JNIEnv *, _jcharArray *, int, int, unsigned short *)",
   "referenced_type" : "type-471",
   "self_type" : "type-470",
   "size" : 4,
   "source_file" : "/libnativehelper/include_jni/jni.h"
  },
  {
   "alignment" : 4,
   "linker_set_key" : "void (*)(_JNIEnv *, _jcharArray *, unsigned short *, int)",
   "name" : "void (*)(_JNIEnv *, _jcharArray *, unsigned short *, int)",
   "referenced_type" : "type-455",
   "self_type" : "type-454",
   "size" : 4,
   "source_file" : "/libnativehelper/include_jni/jni.h"
  },
  {
   "alignment" : 4,
   "linker_set_key" : "void (*)(_JNIEnv *, _jclass *, _jfieldID *, _jobject *)",
   "name" : "void (*)(_JNIEnv *, _jclass *, _jfieldID *, _jobject *)",
   "referenced_type" : "type-347",
   "self_type" : "type-346",
   "size" : 4,
   "source_file" : "/libnativehelper/include_jni/jni.h"
  },
  {
   "alignment" : 4,
   "linker_set_key" : "void (*)(_JNIEnv *, _jclass *, _jfieldID *, double)",
   "name" : "void (*)(_JNIEnv *, _jclass *, _jfieldID *, double)",
   "referenced_type" : "type-363",
   "self_type" : "type-362",
   "size" : 4,
   "source_file" : "/libnativehelper/include_jni/jni.h"
  },
  {
   "alignment" : 4,
   "linker_set_key" : "void (*)(_JNIEnv *, _jclass *, _jfieldID *, float)",
   "name" : "void (*)(_JNIEnv *, _jclass *, _jfieldID *, float)",
   "referenced_type" : "type-361",
   "self_type" : "type-360",
   "size" : 4,
   "source_file" : "/libnativehelper/include_jni/jni.h"
  },
  {
   "alignment" : 4,
   "linker_set_key" : "void (*)(_JNIEnv *, _jclass *, _jfieldID *, int)",
   "name" : "void (*)(_JNIEnv *, _jclass *, _jfieldID *, int)",
   "referenced_type" : "type-357",
   "self_type" : "type-356",
   "size" : 4,
   "source_file" : "/libnativehelper/include_jni/jni.h"
  },
  {
   "alignment" : 4,
   "linker_set_key" : "void (*)(_JNIEnv *, _jclass *, _jfieldID *, long long)",
   "name" : "void (*)(_JNIEnv *, _jclass *, _jfieldID *, long long)",
   "referenced_type" : "type-359",
   "self_type" : "type-358",
   "size" : 4,
   "source_file" : "/libnativehelper/include_jni/jni.h"
  },
  {
   "alignment" : 4,
   "linker_set_key" : "void (*)(_JNIEnv *, _jclass *, _jfieldID *, short)",
   "name" : "void (*)(_JNIEnv *, _jclass *, _jfieldID *, short)",
   "referenced_type" : "type-355",
   "self_type" : "type-354",
   "size" : 4,
   "source_file" : "/libnativehelper/include_jni/jni.h"
  },
  {
   "alignment" : 4,
   "linker_set_key" : "void (*)(_JNIEnv *, _jclass *, _jfieldID *, signed char)",
   "name" : "void (*)(_JNIEnv *, _jclass *, _jfieldID *, signed char)",
   "referenced_type" : "type-351",
   "self_type" : "type-350",
   "size" : 4,
   "source_file" : "/libnativehelper/include_jni/jni.h"
  },
  {
   "alignment" : 4,
   "linker_set_key" : "void (*)(_JNIEnv *, _jclass *, _jfieldID *, unsigned char)",
   "name" : "void (*)(_JNIEnv *, _jclass *, _jfieldID *, unsigned char)",
   "referenced_type" : "type-349",
   "self_type" : "type-348",
   "size" : 4,
   "source_file" : "/libnativehelper/include_jni/jni.h"
  },
  {
   "alignment" : 4,
   "linker_set_key" : "void (*)(_JNIEnv *, _jclass *, _jfieldID *, unsigned short)",
   "name" : "void (*)(_JNIEnv *, _jclass *, _jfieldID *, unsigned short)",
   "referenced_type" : "type-353",
   "self_type" : "type-352",
   "size" : 4,
   "source_file" : "/libnativehelper/include_jni/jni.h"
  },
  {
   "alignment" : 4,
   "linker_set_key" : "void (*)(_JNIEnv *, _jclass *, _jmethodID *, ...)",
   "name" : "void (*)(_JNIEnv *, _jclass *, _jmethodID *, ...)",
   "referenced_type" : "type-322",
   "self_type" : "type-321",
   "size" : 4,
   "source_file" : "/libnativehelper/include_jni/jni.h"
  },
  {
   "alignment" : 4,
   "linker_set_key" : "void (*)(_JNIEnv *, _jclass *, _jmethodID *, const jvalue *)",
   "name" : "void (*)(_JNIEnv *, _jclass *, _jmethodID *, const jvalue *)",
   "referenced_type" : "type-327",
   "self_type" : "type-326",
   "size" : 4,
   "source_file" : "/libnativehelper/include_jni/jni.h"
  },
  {
   "alignment" : 4,
   "linker_set_key" : "void (*)(_JNIEnv *, _jclass *, _jmethodID *, std::__va_list)",
   "name" : "void (*)(_JNIEnv *, _jclass *, _jmethodID *, std::__va_list)",
   "referenced_type" : "type-324",
   "self_type" : "type-323",
   "size" : 4,
   "source_file" : "/libnativehelper/include_jni/jni.h"
  },
  {
   "alignment" : 4,
   "linker_set_key" : "void (*)(_JNIEnv *, _jdoubleArray *, double *, int)",
   "name" : "void (*)(_JNIEnv *, _jdoubleArray *, double *, int)",
   "referenced_type" : "type-465",
   "self_type" : "type-464",
   "size" : 4,
   "source_file" : "/libnativehelper/include_jni/jni.h"
  },
  {
   "alignment" : 4,
   "linker_set_key" : "void (*)(_JNIEnv *, _jdoubleArray *, int, int, const double *)",
   "name" : "void (*)(_JNIEnv *, _jdoubleArray *, int, int, const double *)",
   "referenced_type" : "type-507",
   "self_type" : "type-506",
   "size" : 4,
   "source_file" : "/libnativehelper/include_jni/jni.h"
  },
  {
   "alignment" : 4,
   "linker_set_key" : "void (*)(_JNIEnv *, _jdoubleArray *, int, int, double *)",
   "name" : "void (*)(_JNIEnv *, _jdoubleArray *, int, int, double *)",
   "referenced_type" : "type-481",
   "self_type" : "type-480",
   "size" : 4,
   "source_file" : "/libnativehelper/include_jni/jni.h"
  },
  {
   "alignment" : 4,
   "linker_set_key" : "void (*)(_JNIEnv *, _jfloatArray *, float *, int)",
   "name" : "void (*)(_JNIEnv *, _jfloatArray *, float *, int)",
   "referenced_type" : "type-463",
   "self_type" : "type-462",
   "size" : 4,
   "source_file" : "/libnativehelper/include_jni/jni.h"
  },
  {
   "alignment" : 4,
   "linker_set_key" : "void (*)(_JNIEnv *, _jfloatArray *, int, int, const float *)",
   "name" : "void (*)(_JNIEnv *, _jfloatArray *, int, int, const float *)",
   "referenced_type" : "type-503",
   "self_type" : "type-502",
   "size" : 4,
   "source_file" : "/libnativehelper/include_jni/jni.h"
  },
  {
   "alignment" : 4,
   "linker_set_key" : "void (*)(_JNIEnv *, _jfloatArray *, int, int, float *)",
   "name" : "void (*)(_JNIEnv *, _jfloatArray *, int, int, float *)",
   "referenced_type" : "type-479",
   "self_type" : "type-478",
   "size" : 4,
   "source_file" : "/libnativehelper/include_jni/jni.h"
  },
  {
   "alignment" : 4,
   "linker_set_key" : "void (*)(_JNIEnv *, _jintArray *, int *, int)",
   "name" : "void (*)(_JNIEnv *, _jintArray *, int *, int)",
   "referenced_type" : "type-459",
   "self_type" : "type-458",
   "size" : 4,
   "source_file" : "/libnativehelper/include_jni/jni.h"
  },
  {
   "alignment" : 4,
   "linker_set_key" : "void (*)(_JNIEnv *, _jintArray *, int, int, const int *)",
   "name" : "void (*)(_JNIEnv *, _jintArray *, int, int, const int *)",
   "referenced_type" : "type-495",
   "self_type" : "type-494",
   "size" : 4,
   "source_file" : "/libnativehelper/include_jni/jni.h"
  },
  {
   "alignment" : 4,
   "linker_set_key" : "void (*)(_JNIEnv *, _jintArray *, int, int, int *)",
   "name" : "void (*)(_JNIEnv *, _jintArray *, int, int, int *)",
   "referenced_type" : "type-475",
   "self_type" : "type-474",
   "size" : 4,
   "source_file" : "/libnativehelper/include_jni/jni.h"
  },
  {
   "alignment" : 4,
   "linker_set_key" : "void (*)(_JNIEnv *, _jlongArray *, int, int, const long long *)",
   "name" : "void (*)(_JNIEnv *, _jlongArray *, int, int, const long long *)",
   "referenced_type" : "type-499",
   "self_type" : "type-498",
   "size" : 4,
   "source_file" : "/libnativehelper/include_jni/jni.h"
  },
  {
   "alignment" : 4,
   "linker_set_key" : "void (*)(_JNIEnv *, _jlongArray *, int, int, long long *)",
   "name" : "void (*)(_JNIEnv *, _jlongArray *, int, int, long long *)",
   "referenced_type" : "type-477",
   "self_type" : "type-476",
   "size" : 4,
   "source_file" : "/libnativehelper/include_jni/jni.h"
  },
  {
   "alignment" : 4,
   "linker_set_key" : "void (*)(_JNIEnv *, _jlongArray *, long long *, int)",
   "name" : "void (*)(_JNIEnv *, _jlongArray *, long long *, int)",
   "referenced_type" : "type-461",
   "self_type" : "type-460",
   "size" : 4,
   "source_file" : "/libnativehelper/include_jni/jni.h"
  },
  {
   "alignment" : 4,
   "linker_set_key" : "void (*)(_JNIEnv *, _jobject *)",
   "name" : "void (*)(_JNIEnv *, _jobject *)",
   "referenced_type" : "type-62",
   "self_type" : "type-61",
   "size" : 4,
   "source_file" : "/libnativehelper/include_jni/jni.h"
  },
  {
   "alignment" : 4,
   "linker_set_key" : "void (*)(_JNIEnv *, _jobject *, _jclass *, _jmethodID *, ...)",
   "name" : "void (*)(_JNIEnv *, _jobject *, _jclass *, _jmethodID *, ...)",
   "referenced_type" : "type-221",
   "self_type" : "type-220",
   "size" : 4,
   "source_file" : "/libnativehelper/include_jni/jni.h"
  },
  {
   "alignment" : 4,
   "linker_set_key" : "void (*)(_JNIEnv *, _jobject *, _jclass *, _jmethodID *, const jvalue *)",
   "name" : "void (*)(_JNIEnv *, _jobject *, _jclass *, _jmethodID *, const jvalue *)",
   "referenced_type" : "type-226",
   "self_type" : "type-225",
   "size" : 4,
   "source_file" : "/libnativehelper/include_jni/jni.h"
  },
  {
   "alignment" : 4,
   "linker_set_key" : "void (*)(_JNIEnv *, _jobject *, _jclass *, _jmethodID *, std::__va_list)",
   "name" : "void (*)(_JNIEnv *, _jobject *, _jclass *, _jmethodID *, std::__va_list)",
   "referenced_type" : "type-223",
   "self_type" : "type-222",
   "size" : 4,
   "source_file" : "/libnativehelper/include_jni/jni.h"
  },
  {
   "alignment" : 4,
   "linker_set_key" : "void (*)(_JNIEnv *, _jobject *, _jfieldID *, _jobject *)",
   "name" : "void (*)(_JNIEnv *, _jobject *, _jfieldID *, _jobject *)",
   "referenced_type" : "type-248",
   "self_type" : "type-247",
   "size" : 4,
   "source_file" : "/libnativehelper/include_jni/jni.h"
  },
  {
   "alignment" : 4,
   "linker_set_key" : "void (*)(_JNIEnv *, _jobject *, _jfieldID *, double)",
   "name" : "void (*)(_JNIEnv *, _jobject *, _jfieldID *, double)",
   "referenced_type" : "type-264",
   "self_type" : "type-263",
   "size" : 4,
   "source_file" : "/libnativehelper/include_jni/jni.h"
  },
  {
   "alignment" : 4,
   "linker_set_key" : "void (*)(_JNIEnv *, _jobject *, _jfieldID *, float)",
   "name" : "void (*)(_JNIEnv *, _jobject *, _jfieldID *, float)",
   "referenced_type" : "type-262",
   "self_type" : "type-261",
   "size" : 4,
   "source_file" : "/libnativehelper/include_jni/jni.h"
  },
  {
   "alignment" : 4,
   "linker_set_key" : "void (*)(_JNIEnv *, _jobject *, _jfieldID *, int)",
   "name" : "void (*)(_JNIEnv *, _jobject *, _jfieldID *, int)",
   "referenced_type" : "type-258",
   "self_type" : "type-257",
   "size" : 4,
   "source_file" : "/libnativehelper/include_jni/jni.h"
  },
  {
   "alignment" : 4,
   "linker_set_key" : "void (*)(_JNIEnv *, _jobject *, _jfieldID *, long long)",
   "name" : "void (*)(_JNIEnv *, _jobject *, _jfieldID *, long long)",
   "referenced_type" : "type-260",
   "self_type" : "type-259",
   "size" : 4,
   "source_file" : "/libnativehelper/include_jni/jni.h"
  },
  {
   "alignment" : 4,
   "linker_set_key" : "void (*)(_JNIEnv *, _jobject *, _jfieldID *, short)",
   "name" : "void (*)(_JNIEnv *, _jobject *, _jfieldID *, short)",
   "referenced_type" : "type-256",
   "self_type" : "type-255",
   "size" : 4,
   "source_file" : "/libnativehelper/include_jni/jni.h"
  },
  {
   "alignment" : 4,
   "linker_set_key" : "void (*)(_JNIEnv *, _jobject *, _jfieldID *, signed char)",
   "name" : "void (*)(_JNIEnv *, _jobject *, _jfieldID *, signed char)",
   "referenced_type" : "type-252",
   "self_type" : "type-251",
   "size" : 4,
   "source_file" : "/libnativehelper/include_jni/jni.h"
  },
  {
   "alignment" : 4,
   "linker_set_key" : "void (*)(_JNIEnv *, _jobject *, _jfieldID *, unsigned char)",
   "name" : "void (*)(_JNIEnv *, _jobject *, _jfieldID *, unsigned char)",
   "referenced_type" : "type-250",
   "self_type" : "type-249",
   "size" : 4,
   "source_file" : "/libnativehelper/include_jni/jni.h"
  },
  {
   "alignment" : 4,
   "linker_set_key" : "void (*)(_JNIEnv *, _jobject *, _jfieldID *, unsigned short)",
   "name" : "void (*)(_JNIEnv *, _jobject *, _jfieldID *, unsigned short)",
   "referenced_type" : "type-254",
   "self_type" : "type-253",
   "size" : 4,
   "source_file" : "/libnativehelper/include_jni/jni.h"
  },
  {
   "alignment" : 4,
   "linker_set_key" : "void (*)(_JNIEnv *, _jobject *, _jmethodID *, ...)",
   "name" : "void (*)(_JNIEnv *, _jobject *, _jmethodID *, ...)",
   "referenced_type" : "type-151",
   "self_type" : "type-150",
   "size" : 4,
   "source_file" : "/libnativehelper/include_jni/jni.h"
  },
  {
   "alignment" : 4,
   "linker_set_key" : "void (*)(_JNIEnv *, _jobject *, _jmethodID *, const jvalue *)",
   "name" : "void (*)(_JNIEnv *, _jobject *, _jmethodID *, const jvalue *)",
   "referenced_type" : "type-156",
   "self_type" : "type-155",
   "size" : 4,
   "source_file" : "/libnativehelper/include_jni/jni.h"
  },
  {
   "alignment" : 4,
   "linker_set_key" : "void (*)(_JNIEnv *, _jobject *, _jmethodID *, std::__va_list)",
   "name" : "void (*)(_JNIEnv *, _jobject *, _jmethodID *, std::__va_list)",
   "referenced_type" : "type-153",
   "self_type" : "type-152",
   "size" : 4,
   "source_file" : "/libnativehelper/include_jni/jni.h"
  },
  {
   "alignment" : 4,
   "linker_set_key" : "void (*)(_JNIEnv *, _jobjectArray *, int, _jobject *)",
   "name" : "void (*)(_JNIEnv *, _jobjectArray *, int, _jobject *)",
   "referenced_type" : "type-394",
   "self_type" : "type-393",
   "size" : 4,
   "source_file" : "/libnativehelper/include_jni/jni.h"
  },
  {
   "alignment" : 4,
   "linker_set_key" : "void (*)(_JNIEnv *, _jshortArray *, int, int, const short *)",
   "name" : "void (*)(_JNIEnv *, _jshortArray *, int, int, const short *)",
   "referenced_type" : "type-491",
   "self_type" : "type-490",
   "size" : 4,
   "source_file" : "/libnativehelper/include_jni/jni.h"
  },
  {
   "alignment" : 4,
   "linker_set_key" : "void (*)(_JNIEnv *, _jshortArray *, int, int, short *)",
   "name" : "void (*)(_JNIEnv *, _jshortArray *, int, int, short *)",
   "referenced_type" : "type-473",
   "self_type" : "type-472",
   "size" : 4,
   "source_file" : "/libnativehelper/include_jni/jni.h"
  },
  {
   "alignment" : 4,
   "linker_set_key" : "void (*)(_JNIEnv *, _jshortArray *, short *, int)",
   "name" : "void (*)(_JNIEnv *, _jshortArray *, short *, int)",
   "referenced_type" : "type-457",
   "self_type" : "type-456",
   "size" : 4,
   "source_file" : "/libnativehelper/include_jni/jni.h"
  },
  {
   "alignment" : 4,
   "linker_set_key" : "void (*)(_JNIEnv *, _jstring *, const char *)",
   "name" : "void (*)(_JNIEnv *, _jstring *, const char *)",
   "referenced_type" : "type-382",
   "self_type" : "type-381",
   "size" : 4,
   "source_file" : "/libnativehelper/include_jni/jni.h"
  },
  {
   "alignment" : 4,
   "linker_set_key" : "void (*)(_JNIEnv *, _jstring *, const unsigned short *)",
   "name" : "void (*)(_JNIEnv *, _jstring *, const unsigned short *)",
   "referenced_type" : "type-376",
   "self_type" : "type-375",
   "size" : 4,
   "source_file" : "/libnativehelper/include_jni/jni.h"
  },
  {
   "alignment" : 4,
   "linker_set_key" : "void (*)(_JNIEnv *, _jstring *, int, int, char *)",
   "name" : "void (*)(_JNIEnv *, _jstring *, int, int, char *)",
   "referenced_type" : "type-538",
   "self_type" : "type-537",
   "size" : 4,
   "source_file" : "/libnativehelper/include_jni/jni.h"
  },
  {
   "alignment" : 4,
   "linker_set_key" : "void (*)(_JNIEnv *, _jstring *, int, int, unsigned short *)",
   "name" : "void (*)(_JNIEnv *, _jstring *, int, int, unsigned short *)",
   "referenced_type" : "type-536",
   "self_type" : "type-535",
   "size" : 4,
   "source_file" : "/libnativehelper/include_jni/jni.h"
  },
  {
   "alignment" : 4,
   "linker_set_key" : "void (*)(_JNIEnv *, const char *)",
   "name" : "void (*)(_JNIEnv *, const char *)",
   "referenced_type" : "type-56",
   "self_type" : "type-55",
   "size" : 4,
   "source_file" : "/libnativehelper/include_jni/jni.h"
  },
  {
   "alignment" : 4,
   "linker_set_key" : "void (*)(_Unwind_Reason_Code, _Unwind_Control_Block *)",
   "name" : "void (*)(_Unwind_Reason_Code, _Unwind_Control_Block *)",
   "referenced_type" : "type-3360",
   "self_type" : "type-3359",
   "size" : 4,
   "source_file" : "/external/libunwind_llvm/include/unwind.h"
  },
  {
   "alignment" : 4,
   "linker_set_key" : "void (*)(_Unwind_Reason_Code, _Unwind_Control_Block *)",
   "name" : "void (*)(_Unwind_Reason_Code, _Unwind_Control_Block *)",
   "referenced_type" : "type-3375",
   "self_type" : "type-3374",
   "size" : 4,
   "source_file" : "/external/libunwind_llvm/include/unwind.h"
  },
  {
   "alignment" : 4,
   "linker_set_key" : "void (*)(const SkMatrix &, SkPoint *, const SkPoint *, int)",
   "name" : "void (*)(const SkMatrix &, SkPoint *, const SkPoint *, int)",
   "referenced_type" : "type-1826",
   "self_type" : "type-1825",
   "size" : 4,
   "source_file" : "/external/skia/include/core/SkMatrix.h"
  },
  {
   "alignment" : 4,
   "linker_set_key" : "void (*)(const SkMatrix &, float, float, SkPoint *)",
   "name" : "void (*)(const SkMatrix &, float, float, SkPoint *)",
   "referenced_type" : "type-1824",
   "self_type" : "type-1823",
   "size" : 4,
   "source_file" : "/external/skia/include/core/SkMatrix.h"
  },
  {
   "alignment" : 4,
   "linker_set_key" : "void (*)(const std::__1::__libcpp_debug_info &)",
   "name" : "void (*)(const std::__1::__libcpp_debug_info &)",
   "referenced_type" : "type-1656",
   "self_type" : "type-1659",
   "size" : 4,
   "source_file" : "/external/libcxx/include/__debug"
  },
  {
   "alignment" : 4,
   "linker_set_key" : "void (*)(int)",
   "name" : "void (*)(int)",
   "referenced_type" : "type-1517",
   "self_type" : "type-1516",
   "size" : 4,
   "source_file" : "/bionic/libc/kernel/uapi/asm-arm/asm/signal.h"
  },
  {
   "alignment" : 4,
   "linker_set_key" : "void (*)(int, siginfo *, void *)",
   "name" : "void (*)(int, siginfo *, void *)",
   "referenced_type" : "type-1519",
   "self_type" : "type-1518",
   "size" : 4,
   "source_file" : "/bionic/libc/kernel/uapi/asm-arm/asm/signal.h"
  },
  {
   "alignment" : 4,
   "linker_set_key" : "void (*)(sigval)",
   "name" : "void (*)(sigval)",
   "referenced_type" : "type-1546",
   "self_type" : "type-1545",
   "size" : 4,
   "source_file" : "/bionic/libc/kernel/uapi/asm-generic/siginfo.h"
  },
  {
   "alignment" : 4,
   "linker_set_key" : "void (*)(std::__1::ios_base::event, std::__1::ios_base &, int)",
   "name" : "void (*)(std::__1::ios_base::event, std::__1::ios_base &, int)",
   "referenced_type" : "type-2525",
   "self_type" : "type-2524",
   "size" : 4,
   "source_file" : "/external/libcxx/include/ios"
  },
  {
   "alignment" : 4,
   "linker_set_key" : "void (*)(void *)",
   "name" : "void (*)(void *)",
   "referenced_type" : "type-627",
   "self_type" : "type-626",
   "size" : 4,
   "source_file" : "/external/libcxx/include/type_traits"
  },
  {
   "alignment" : 4,
   "linker_set_key" : "void (*)(void *, const void *)",
   "name" : "void (*)(void *, const void *)",
   "referenced_type" : "type-1856",
   "self_type" : "type-1855",
   "size" : 4,
   "source_file" : "/bionic/libc/include/malloc.h"
  },
  {
   "alignment" : 4,
   "linker_set_key" : "void (**)(std::__1::ios_base::event, std::__1::ios_base &, int)",
   "name" : "void (**)(std::__1::ios_base::event, std::__1::ios_base &, int)",
   "referenced_type" : "type-2524",
   "self_type" : "type-2523",
   "size" : 4,
   "source_file" : "/external/libcxx/include/ios"
  },
  {
   "alignment" : 4,
   "linker_set_key" : "void *",
   "name" : "void *",
   "referenced_type" : "type-10",
   "self_type" : "type-9",
   "size" : 4,
   "source_file" : "/libnativehelper/include_jni/jni.h"
  },
  {
   "alignment" : 4,
   "linker_set_key" : "void *(*)(_JNIEnv *, _jarray *, unsigned char *)",
   "name" : "void *(*)(_JNIEnv *, _jarray *, unsigned char *)",
   "referenced_type" : "type-541",
   "self_type" : "type-540",
   "size" : 4,
   "source_file" : "/libnativehelper/include_jni/jni.h"
  },
  {
   "alignment" : 4,
   "linker_set_key" : "void *(*)(_JNIEnv *, _jobject *)",
   "name" : "void *(*)(_JNIEnv *, _jobject *)",
   "referenced_type" : "type-549",
   "self_type" : "type-548",
   "size" : 4,
   "source_file" : "/libnativehelper/include_jni/jni.h"
  },
  {
   "alignment" : 4,
   "linker_set_key" : "void *(*)(const void *)",
   "name" : "void *(*)(const void *)",
   "referenced_type" : "type-2149",
   "self_type" : "type-2148",
   "size" : 4,
   "source_file" : "/external/libcxx/include/functional"
  },
  {
   "alignment" : 4,
   "linker_set_key" : "void *(*)(unsigned int, const void *)",
   "name" : "void *(*)(unsigned int, const void *)",
   "referenced_type" : "type-1850",
   "self_type" : "type-1849",
   "size" : 4,
   "source_file" : "/bionic/libc/include/malloc.h"
  },
  {
   "alignment" : 4,
   "linker_set_key" : "void *(*)(unsigned int, unsigned int, const void *)",
   "name" : "void *(*)(unsigned int, unsigned int, const void *)",
   "referenced_type" : "type-1859",
   "self_type" : "type-1858",
   "size" : 4,
   "source_file" : "/bionic/libc/include/malloc.h"
  },
  {
   "alignment" : 4,
   "linker_set_key" : "void *(*)(void *)",
   "name" : "void *(*)(void *)",
   "referenced_type" : "type-2424",
   "self_type" : "type-2425",
   "size" : 4,
   "source_file" : "/external/libcxx/include/__threading_support"
  },
  {
   "alignment" : 4,
   "linker_set_key" : "void *(*)(void *, unsigned int, const void *)",
   "name" : "void *(*)(void *, unsigned int, const void *)",
   "referenced_type" : "type-1853",
   "self_type" : "type-1852",
   "size" : 4,
   "source_file" : "/bionic/libc/include/malloc.h"
  },
  {
   "alignment" : 4,
   "linker_set_key" : "void **",
   "name" : "void **",
   "referenced_type" : "type-9",
   "self_type" : "type-534",
   "size" : 4,
   "source_file" : "/libnativehelper/include_jni/jni.h"
  },
  {
   "alignment" : 4,
   "linker_set_key" : "volatile std::atomic_flag *",
   "name" : "volatile std::atomic_flag *",
   "referenced_type" : "type-1597",
   "self_type" : "type-1598",
   "size" : 4,
   "source_file" : "/external/libcxx/include/atomic"
  },
  {
   "alignment" : 4,
   "linker_set_key" : "wchar_t *",
   "name" : "wchar_t *",
   "referenced_type" : "type-673",
   "self_type" : "type-672",
   "size" : 4,
   "source_file" : "/external/libcxx/include/type_traits"
  }
 ],
 "qualified_types" :
 [
  {
   "alignment" : 4,
   "is_const" : true,
   "linker_set_key" : "char *const",
   "name" : "char *const",
   "referenced_type" : "type-539",
   "self_type" : "type-1288",
   "size" : 4,
   "source_file" : "/bionic/libc/include/string.h"
  },
  {
   "alignment" : 1,
   "is_const" : true,
   "linker_set_key" : "char const[33]",
   "name" : "char const[33]",
   "referenced_type" : "type-2550",
   "self_type" : "type-2551",
   "size" : 33,
   "source_file" : "/external/libcxx/include/locale"
  },
  {
   "alignment" : 4,
   "is_const" : true,
   "linker_set_key" : "const JNIInvokeInterface",
   "name" : "const JNIInvokeInterface",
   "referenced_type" : "type-526",
   "self_type" : "type-525",
   "size" : 32,
   "source_file" : "/libnativehelper/include_jni/jni.h"
  },
  {
   "alignment" : 4,
   "is_const" : true,
   "linker_set_key" : "const JNINativeInterface",
   "name" : "const JNINativeInterface",
   "referenced_type" : "type-8",
   "self_type" : "type-7",
   "size" : 932,
   "source_file" : "/libnativehelper/include_jni/jni.h"
  },
  {
   "alignment" : 4,
   "is_const" : true,
   "linker_set_key" : "const JNINativeMethod",
   "name" : "const JNINativeMethod",
   "referenced_type" : "type-514",
   "self_type" : "type-513",
   "size" : 12,
   "source_file" : "/libnativehelper/include_jni/jni.h"
  },
  {
   "alignment" : 4,
   "is_const" : true,
   "linker_set_key" : "const SkBitmap",
   "name" : "const SkBitmap",
   "referenced_type" : "type-2690",
   "self_type" : "type-2691",
   "size" : 36,
   "source_file" : "/external/skia/include/core/SkBitmap.h"
  },
  {
   "alignment" : 4,
   "is_const" : true,
   "linker_set_key" : "const SkColorSpace",
   "name" : "const SkColorSpace",
   "referenced_type" : "type-739",
   "self_type" : "type-2670",
   "size" : 144,
   "source_file" : "/external/skia/include/core/SkColorSpace.h"
  },
  {
   "alignment" : 4,
   "is_const" : true,
   "linker_set_key" : "const SkIPoint",
   "name" : "const SkIPoint",
   "referenced_type" : "type-1784",
   "self_type" : "type-1785",
   "size" : 8,
   "source_file" : "/external/skia/include/core/SkPoint.h"
  },
  {
   "alignment" : 4,
   "is_const" : true,
   "linker_set_key" : "const SkIRect",
   "name" : "const SkIRect",
   "referenced_type" : "type-1805",
   "self_type" : "type-1806",
   "size" : 16,
   "source_file" : "/external/skia/include/core/SkRect.h"
  },
  {
   "alignment" : 4,
   "is_const" : true,
   "linker_set_key" : "const SkISize",
   "name" : "const SkISize",
   "referenced_type" : "type-1795",
   "self_type" : "type-1797",
   "size" : 8,
   "source_file" : "/external/skia/include/core/SkSize.h"
  },
  {
   "alignment" : 4,
   "is_const" : true,
   "linker_set_key" : "const SkImageInfo",
   "name" : "const SkImageInfo",
   "referenced_type" : "type-2675",
   "self_type" : "type-2677",
   "size" : 20,
   "source_file" : "/external/skia/include/core/SkImageInfo.h"
  },
  {
   "alignment" : 4,
   "is_const" : true,
   "linker_set_key" : "const SkMatrix",
   "name" : "const SkMatrix",
   "referenced_type" : "type-1816",
   "self_type" : "type-1818",
   "size" : 40,
   "source_file" : "/external/skia/include/core/SkMatrix.h"
  },
  {
   "alignment" : 4,
   "is_const" : true,
   "linker_set_key" : "const SkMatrix44",
   "name" : "const SkMatrix44",
   "referenced_type" : "type-1836",
   "self_type" : "type-1841",
   "size" : 68,
   "source_file" : "/external/skia/include/core/SkMatrix44.h"
  },
  {
   "alignment" : 4,
   "is_const" : true,
   "linker_set_key" : "const SkNVRefCnt<SkColorSpace>",
   "name" : "const SkNVRefCnt<SkColorSpace>",
   "referenced_type" : "type-747",
   "self_type" : "type-2654",
   "size" : 4,
   "source_file" : "/external/skia/include/core/SkRefCnt.h"
  },
  {
   "is_const" : true,
   "linker_set_key" : "const SkPaint",
   "name" : "const SkPaint",
   "referenced_type" : "type-2697",
   "self_type" : "type-2696",
   "source_file" : "/external/skia/include/core/SkBitmap.h"
  },
  {
   "alignment" : 4,
   "is_const" : true,
   "linker_set_key" : "const SkPixmap",
   "name" : "const SkPixmap",
   "referenced_type" : "type-2683",
   "self_type" : "type-2685",
   "size" : 28,
   "source_file" : "/external/skia/include/core/SkPixmap.h"
  },
  {
   "alignment" : 4,
   "is_const" : true,
   "linker_set_key" : "const SkPoint",
   "name" : "const SkPoint",
   "referenced_type" : "type-1789",
   "self_type" : "type-1790",
   "size" : 8,
   "source_file" : "/external/skia/include/core/SkPoint.h"
  },
  {
   "alignment" : 4,
   "is_const" : true,
   "linker_set_key" : "const SkRect",
   "name" : "const SkRect",
   "referenced_type" : "type-1811",
   "self_type" : "type-1810",
   "size" : 16,
   "source_file" : "/external/skia/include/core/SkRect.h"
  },
  {
   "alignment" : 4,
   "is_const" : true,
   "linker_set_key" : "const SkRefCntBase",
   "name" : "const SkRefCntBase",
   "referenced_type" : "type-2648",
   "self_type" : "type-2650",
   "size" : 8,
   "source_file" : "/external/skia/include/core/SkRefCnt.h"
  },
  {
   "alignment" : 4,
   "is_const" : true,
   "linker_set_key" : "const SkSize",
   "name" : "const SkSize",
   "referenced_type" : "type-1799",
   "self_type" : "type-1803",
   "size" : 8,
   "source_file" : "/external/skia/include/core/SkSize.h"
  },
  {
   "alignment" : 4,
   "is_const" : true,
   "linker_set_key" : "const SkVector4",
   "name" : "const SkVector4",
   "referenced_type" : "type-1831",
   "self_type" : "type-1833",
   "size" : 16,
   "source_file" : "/external/skia/include/core/SkMatrix44.h"
  },
  {
   "is_const" : true,
   "linker_set_key" : "const __bit_iterator<_Cp, _IsConst, >",
   "name" : "const __bit_iterator<_Cp, _IsConst, >",
   "referenced_type" : "type-2638",
   "self_type" : "type-2637",
   "source_file" : "/external/libcxx/include/__bit_reference"
  },
  {
   "alignment" : 1,
   "is_const" : true,
   "linker_set_key" : "const bool",
   "name" : "const bool",
   "referenced_type" : "type-559",
   "self_type" : "type-2151",
   "size" : 1,
   "source_file" : "/external/libcxx/include/type_traits"
  },
  {
   "alignment" : 1,
   "is_const" : true,
   "linker_set_key" : "const char",
   "name" : "const char",
   "referenced_type" : "type-21",
   "self_type" : "type-20",
   "size" : 1,
   "source_file" : "/libnativehelper/include_jni/jni.h"
  },
  {
   "alignment" : 4,
   "is_const" : true,
   "linker_set_key" : "const char *const",
   "name" : "const char *const",
   "referenced_type" : "type-19",
   "self_type" : "type-1015",
   "size" : 4,
   "source_file" : "/external/libcxx/include/type_traits"
  },
  {
   "alignment" : 4,
   "is_const" : true,
   "linker_set_key" : "const char *const[65]",
   "name" : "const char *const[65]",
   "referenced_type" : "type-1572",
   "self_type" : "type-1573",
   "size" : 260,
   "source_file" : "/bionic/libc/include/signal.h"
  },
  {
   "alignment" : 2,
   "is_const" : true,
   "linker_set_key" : "const char16_t",
   "name" : "const char16_t",
   "referenced_type" : "type-565",
   "self_type" : "type-985",
   "size" : 2,
   "source_file" : "/external/libcxx/include/type_traits"
  },
  {
   "alignment" : 4,
   "is_const" : true,
   "linker_set_key" : "const char16_t *const",
   "name" : "const char16_t *const",
   "referenced_type" : "type-984",
   "self_type" : "type-1023",
   "size" : 4,
   "source_file" : "/external/libcxx/include/type_traits"
  },
  {
   "alignment" : 4,
   "is_const" : true,
   "linker_set_key" : "const char32_t",
   "name" : "const char32_t",
   "referenced_type" : "type-583",
   "self_type" : "type-991",
   "size" : 4,
   "source_file" : "/external/libcxx/include/type_traits"
  },
  {
   "alignment" : 4,
   "is_const" : true,
   "linker_set_key" : "const char32_t *const",
   "name" : "const char32_t *const",
   "referenced_type" : "type-990",
   "self_type" : "type-1027",
   "size" : 4,
   "source_file" : "/external/libcxx/include/type_traits"
  },
  {
   "is_const" : true,
   "linker_set_key" : "const class std::__1::uniform_int_distribution::param_type",
   "name" : "const class std::__1::uniform_int_distribution::param_type",
   "referenced_type" : "type-2185",
   "self_type" : "type-2184",
   "source_file" : "/external/libcxx/include/algorithm"
  },
  {
   "alignment" : 8,
   "is_const" : true,
   "linker_set_key" : "const double",
   "name" : "const double",
   "referenced_type" : "type-80",
   "self_type" : "type-509",
   "size" : 8,
   "source_file" : "/libnativehelper/include_jni/jni.h"
  },
  {
   "alignment" : 4,
   "is_const" : true,
   "linker_set_key" : "const elf32_phdr",
   "name" : "const elf32_phdr",
   "referenced_type" : "type-3189",
   "self_type" : "type-3219",
   "size" : 32,
   "source_file" : "/out/soong/ndk/sysroot/usr/include/link.h"
  },
  {
   "alignment" : 4,
   "is_const" : true,
   "linker_set_key" : "const float",
   "name" : "const float",
   "referenced_type" : "type-79",
   "self_type" : "type-505",
   "size" : 4,
   "source_file" : "/libnativehelper/include_jni/jni.h"
  },
  {
   "alignment" : 4,
   "is_const" : true,
   "linker_set_key" : "const int",
   "name" : "const int",
   "referenced_type" : "type-13",
   "self_type" : "type-497",
   "size" : 4,
   "source_file" : "/libnativehelper/include_jni/jni.h"
  },
  {
   "alignment" : 8,
   "is_const" : true,
   "linker_set_key" : "const jvalue",
   "name" : "const jvalue",
   "referenced_type" : "type-76",
   "self_type" : "type-75",
   "size" : 8,
   "source_file" : "/libnativehelper/include_jni/jni.h"
  },
  {
   "alignment" : 4,
   "is_const" : true,
   "linker_set_key" : "const libunwind::EHABISectionIterator<libunwind::LocalAddressSpace>",
   "name" : "const libunwind::EHABISectionIterator<libunwind::LocalAddressSpace>",
   "referenced_type" : "type-3308",
   "self_type" : "type-3312",
   "size" : 12,
   "source_file" : "/external/libunwind_llvm/src/UnwindCursor.hpp"
  },
  {
   "alignment" : 8,
   "is_const" : true,
   "linker_set_key" : "const libunwind::Registers_arm",
   "name" : "const libunwind::Registers_arm",
   "referenced_type" : "type-3153",
   "self_type" : "type-3154",
   "size" : 336,
   "source_file" : "/external/libunwind_llvm/src/Registers.hpp"
  },
  {
   "alignment" : 8,
   "is_const" : true,
   "linker_set_key" : "const libunwind::Registers_arm64",
   "name" : "const libunwind::Registers_arm64",
   "referenced_type" : "type-3145",
   "self_type" : "type-3146",
   "size" : 528,
   "source_file" : "/external/libunwind_llvm/src/Registers.hpp"
  },
  {
   "alignment" : 8,
   "is_const" : true,
   "linker_set_key" : "const libunwind::Registers_mips_newabi",
   "name" : "const libunwind::Registers_mips_newabi",
   "referenced_type" : "type-3169",
   "self_type" : "type-3170",
   "size" : 280,
   "source_file" : "/external/libunwind_llvm/src/Registers.hpp"
  },
  {
   "alignment" : 4,
   "is_const" : true,
   "linker_set_key" : "const libunwind::Registers_mips_o32",
   "name" : "const libunwind::Registers_mips_o32",
   "referenced_type" : "type-3164",
   "self_type" : "type-3165",
   "size" : 140,
   "source_file" : "/external/libunwind_llvm/src/Registers.hpp"
  },
  {
   "alignment" : 4,
   "is_const" : true,
   "linker_set_key" : "const libunwind::Registers_or1k",
   "name" : "const libunwind::Registers_or1k",
   "referenced_type" : "type-3159",
   "self_type" : "type-3160",
   "size" : 136,
   "source_file" : "/external/libunwind_llvm/src/Registers.hpp"
  },
  {
   "alignment" : 8,
   "is_const" : true,
   "linker_set_key" : "const libunwind::Registers_ppc",
   "name" : "const libunwind::Registers_ppc",
   "referenced_type" : "type-3128",
   "self_type" : "type-3129",
   "size" : 936,
   "source_file" : "/external/libunwind_llvm/src/Registers.hpp"
  },
  {
   "alignment" : 8,
   "is_const" : true,
   "linker_set_key" : "const libunwind::Registers_ppc64",
   "name" : "const libunwind::Registers_ppc64",
   "referenced_type" : "type-3139",
   "self_type" : "type-3140",
   "size" : 1336,
   "source_file" : "/external/libunwind_llvm/src/Registers.hpp"
  },
  {
   "alignment" : 4,
   "is_const" : true,
   "linker_set_key" : "const libunwind::Registers_sparc",
   "name" : "const libunwind::Registers_sparc",
   "referenced_type" : "type-3174",
   "self_type" : "type-3175",
   "size" : 128,
   "source_file" : "/external/libunwind_llvm/src/Registers.hpp"
  },
  {
   "alignment" : 4,
   "is_const" : true,
   "linker_set_key" : "const libunwind::Registers_x86",
   "name" : "const libunwind::Registers_x86",
   "referenced_type" : "type-3112",
   "self_type" : "type-3113",
   "size" : 64,
   "source_file" : "/external/libunwind_llvm/src/Registers.hpp"
  },
  {
   "alignment" : 8,
   "is_const" : true,
   "linker_set_key" : "const libunwind::Registers_x86_64",
   "name" : "const libunwind::Registers_x86_64",
   "referenced_type" : "type-3120",
   "self_type" : "type-3121",
   "size" : 168,
   "source_file" : "/external/libunwind_llvm/src/Registers.hpp"
  },
  {
   "alignment" : 4,
   "is_const" : true,
   "linker_set_key" : "const libunwind::UnwindInfoSections",
   "name" : "const libunwind::UnwindInfoSections",
   "referenced_type" : "type-3224",
   "self_type" : "type-3305",
   "size" : 8,
   "source_file" : "/external/libunwind_llvm/src/UnwindCursor.hpp"
  },
  {
   "alignment" : 4,
   "is_const" : true,
   "linker_set_key" : "const long",
   "name" : "const long",
   "referenced_type" : "type-606",
   "self_type" : "type-1243",
   "size" : 4,
   "source_file" : "/external/libcxx/include/limits"
  },
  {
   "alignment" : 8,
   "is_const" : true,
   "linker_set_key" : "const long double",
   "name" : "const long double",
   "referenced_type" : "type-3",
   "self_type" : "type-2311",
   "size" : 8,
   "source_file" : "/external/libcxx/include/chrono"
  },
  {
   "alignment" : 8,
   "is_const" : true,
   "linker_set_key" : "const long long",
   "name" : "const long long",
   "referenced_type" : "type-2",
   "self_type" : "type-501",
   "size" : 8,
   "source_file" : "/libnativehelper/include_jni/jni.h"
  },
  {
   "alignment" : 2,
   "is_const" : true,
   "linker_set_key" : "const short",
   "name" : "const short",
   "referenced_type" : "type-78",
   "self_type" : "type-493",
   "size" : 2,
   "source_file" : "/libnativehelper/include_jni/jni.h"
  },
  {
   "alignment" : 1,
   "is_const" : true,
   "linker_set_key" : "const signed char",
   "name" : "const signed char",
   "referenced_type" : "type-25",
   "self_type" : "type-24",
   "size" : 1,
   "source_file" : "/libnativehelper/include_jni/jni.h"
  },
  {
   "alignment" : 4,
   "is_const" : true,
   "linker_set_key" : "const sk_sp<SkColorSpace>",
   "name" : "const sk_sp<SkColorSpace>",
   "referenced_type" : "type-737",
   "self_type" : "type-2657",
   "size" : 4,
   "source_file" : "/external/skia/include/core/SkRefCnt.h"
  },
  {
   "alignment" : 4,
   "is_const" : true,
   "linker_set_key" : "const sk_sp<SkPixelRef>",
   "name" : "const sk_sp<SkPixelRef>",
   "referenced_type" : "type-2660",
   "self_type" : "type-2664",
   "size" : 4,
   "source_file" : "/external/skia/include/core/SkRefCnt.h"
  },
  {
   "alignment" : 4,
   "is_const" : true,
   "linker_set_key" : "const skcms_Matrix3x3",
   "name" : "const skcms_Matrix3x3",
   "referenced_type" : "type-1766",
   "self_type" : "type-2669",
   "size" : 36,
   "source_file" : "/external/skia/include/core/SkColorSpace.h"
  },
  {
   "alignment" : 4,
   "is_const" : true,
   "linker_set_key" : "const skcms_TransferFunction",
   "name" : "const skcms_TransferFunction",
   "referenced_type" : "type-1772",
   "self_type" : "type-2668",
   "size" : 28,
   "source_file" : "/external/skia/include/core/SkColorSpace.h"
  },
  {
   "alignment" : 4,
   "is_const" : true,
   "linker_set_key" : "const std::__atomic_base<int, false>",
   "name" : "const std::__atomic_base<int, false>",
   "referenced_type" : "type-750",
   "self_type" : "type-1588",
   "size" : 4,
   "source_file" : "/external/libcxx/include/atomic"
  },
  {
   "alignment" : 4,
   "is_const" : true,
   "linker_set_key" : "const std::__atomic_base<unsigned int, false>",
   "name" : "const std::__atomic_base<unsigned int, false>",
   "referenced_type" : "type-1581",
   "self_type" : "type-1585",
   "size" : 4,
   "source_file" : "/external/libcxx/include/atomic"
  },
  {
   "alignment" : 1,
   "is_const" : true,
   "linker_set_key" : "const std::__bitset<0, 0>",
   "name" : "const std::__bitset<0, 0>",
   "referenced_type" : "type-2627",
   "self_type" : "type-2641",
   "size" : 1,
   "source_file" : "/external/libcxx/include/bitset"
  },
  {
   "alignment" : 4,
   "is_const" : true,
   "linker_set_key" : "const std::__compressed_pair<char *, void (*)(void *)>",
   "name" : "const std::__compressed_pair<char *, void (*)(void *)>",
   "referenced_type" : "type-640",
   "self_type" : "type-639",
   "size" : 8,
   "source_file" : "/external/libcxx/include/type_traits"
  },
  {
   "alignment" : 4,
   "is_const" : true,
   "linker_set_key" : "const std::__compressed_pair<std::basic_string<char16_t, char_traits<char16_t>, allocator<char16_t> >::__rep, std::allocator<char16_t> >",
   "name" : "const std::__compressed_pair<std::basic_string<char16_t, char_traits<char16_t>, allocator<char16_t> >::__rep, std::allocator<char16_t> >",
   "referenced_type" : "type-1907",
   "self_type" : "type-2093",
   "size" : 12,
   "source_file" : "/external/libcxx/include/memory"
  },
  {
   "alignment" : 4,
   "is_const" : true,
   "linker_set_key" : "const std::__compressed_pair<std::basic_string<char32_t, char_traits<char32_t>, allocator<char32_t> >::__rep, std::allocator<char32_t> >",
   "name" : "const std::__compressed_pair<std::basic_string<char32_t, char_traits<char32_t>, allocator<char32_t> >::__rep, std::allocator<char32_t> >",
   "referenced_type" : "type-1915",
   "self_type" : "type-2096",
   "size" : 12,
   "source_file" : "/external/libcxx/include/memory"
  },
  {
   "alignment" : 4,
   "is_const" : true,
   "linker_set_key" : "const std::__compressed_pair<std::basic_string<char>::__rep, std::allocator<char> >",
   "name" : "const std::__compressed_pair<std::basic_string<char>::__rep, std::allocator<char> >",
   "referenced_type" : "type-1045",
   "self_type" : "type-2087",
   "size" : 12,
   "source_file" : "/external/libcxx/include/memory"
  },
  {
   "alignment" : 4,
   "is_const" : true,
   "linker_set_key" : "const std::__compressed_pair<std::basic_string<wchar_t>::__rep, std::allocator<wchar_t> >",
   "name" : "const std::__compressed_pair<std::basic_string<wchar_t>::__rep, std::allocator<wchar_t> >",
   "referenced_type" : "type-1052",
   "self_type" : "type-2090",
   "size" : 12,
   "source_file" : "/external/libcxx/include/memory"
  },
  {
   "alignment" : 4,
   "is_const" : true,
   "linker_set_key" : "const std::__compressed_pair<unsigned char *, void (*)(void *)>",
   "name" : "const std::__compressed_pair<unsigned char *, void (*)(void *)>",
   "referenced_type" : "type-632",
   "self_type" : "type-631",
   "size" : 8,
   "source_file" : "/external/libcxx/include/type_traits"
  },
  {
   "alignment" : 4,
   "is_const" : true,
   "linker_set_key" : "const std::__compressed_pair<unsigned int *, void (*)(void *)>",
   "name" : "const std::__compressed_pair<unsigned int *, void (*)(void *)>",
   "referenced_type" : "type-649",
   "self_type" : "type-648",
   "size" : 8,
   "source_file" : "/external/libcxx/include/type_traits"
  },
  {
   "alignment" : 4,
   "is_const" : true,
   "linker_set_key" : "const std::__compressed_pair_elem<char *, 0, false>",
   "name" : "const std::__compressed_pair_elem<char *, 0, false>",
   "referenced_type" : "type-636",
   "self_type" : "type-635",
   "size" : 4,
   "source_file" : "/external/libcxx/include/type_traits"
  },
  {
   "alignment" : 1,
   "is_const" : true,
   "linker_set_key" : "const std::__compressed_pair_elem<std::allocator<char16_t>, 1, true>",
   "name" : "const std::__compressed_pair_elem<std::allocator<char16_t>, 1, true>",
   "referenced_type" : "type-573",
   "self_type" : "type-687",
   "size" : 1,
   "source_file" : "/external/libcxx/include/type_traits"
  },
  {
   "alignment" : 1,
   "is_const" : true,
   "linker_set_key" : "const std::__compressed_pair_elem<std::allocator<char32_t>, 1, true>",
   "name" : "const std::__compressed_pair_elem<std::allocator<char32_t>, 1, true>",
   "referenced_type" : "type-591",
   "self_type" : "type-590",
   "size" : 1,
   "source_file" : "/external/libcxx/include/type_traits"
  },
  {
   "alignment" : 1,
   "is_const" : true,
   "linker_set_key" : "const std::__compressed_pair_elem<std::allocator<char>, 1, true>",
   "name" : "const std::__compressed_pair_elem<std::allocator<char>, 1, true>",
   "referenced_type" : "type-662",
   "self_type" : "type-661",
   "size" : 1,
   "source_file" : "/external/libcxx/include/type_traits"
  },
  {
   "alignment" : 1,
   "is_const" : true,
   "linker_set_key" : "const std::__compressed_pair_elem<std::allocator<wchar_t>, 1, true>",
   "name" : "const std::__compressed_pair_elem<std::allocator<wchar_t>, 1, true>",
   "referenced_type" : "type-680",
   "self_type" : "type-679",
   "size" : 1,
   "source_file" : "/external/libcxx/include/type_traits"
  },
  {
   "alignment" : 4,
   "is_const" : true,
   "linker_set_key" : "const std::__compressed_pair_elem<std::basic_string<char16_t, char_traits<char16_t>, allocator<char16_t> >::__rep, 0, false>",
   "name" : "const std::__compressed_pair_elem<std::basic_string<char16_t, char_traits<char16_t>, allocator<char16_t> >::__rep, 0, false>",
   "referenced_type" : "type-560",
   "self_type" : "type-685",
   "size" : 12,
   "source_file" : "/external/libcxx/include/type_traits"
  },
  {
   "alignment" : 4,
   "is_const" : true,
   "linker_set_key" : "const std::__compressed_pair_elem<std::basic_string<char32_t, char_traits<char32_t>, allocator<char32_t> >::__rep, 0, false>",
   "name" : "const std::__compressed_pair_elem<std::basic_string<char32_t, char_traits<char32_t>, allocator<char32_t> >::__rep, 0, false>",
   "referenced_type" : "type-578",
   "self_type" : "type-577",
   "size" : 12,
   "source_file" : "/external/libcxx/include/type_traits"
  },
  {
   "alignment" : 4,
   "is_const" : true,
   "linker_set_key" : "const std::__compressed_pair_elem<std::basic_string<char>::__rep, 0, false>",
   "name" : "const std::__compressed_pair_elem<std::basic_string<char>::__rep, 0, false>",
   "referenced_type" : "type-652",
   "self_type" : "type-651",
   "size" : 12,
   "source_file" : "/external/libcxx/include/type_traits"
  },
  {
   "alignment" : 4,
   "is_const" : true,
   "linker_set_key" : "const std::__compressed_pair_elem<std::basic_string<wchar_t>::__rep, 0, false>",
   "name" : "const std::__compressed_pair_elem<std::basic_string<wchar_t>::__rep, 0, false>",
   "referenced_type" : "type-668",
   "self_type" : "type-667",
   "size" : 12,
   "source_file" : "/external/libcxx/include/type_traits"
  },
  {
   "alignment" : 4,
   "is_const" : true,
   "linker_set_key" : "const std::__compressed_pair_elem<unsigned char *, 0, false>",
   "name" : "const std::__compressed_pair_elem<unsigned char *, 0, false>",
   "referenced_type" : "type-622",
   "self_type" : "type-621",
   "size" : 4,
   "source_file" : "/external/libcxx/include/type_traits"
  },
  {
   "alignment" : 4,
   "is_const" : true,
   "linker_set_key" : "const std::__compressed_pair_elem<unsigned int *, 0, false>",
   "name" : "const std::__compressed_pair_elem<unsigned int *, 0, false>",
   "referenced_type" : "type-644",
   "self_type" : "type-643",
   "size" : 4,
   "source_file" : "/external/libcxx/include/type_traits"
  },
  {
   "alignment" : 4,
   "is_const" : true,
   "linker_set_key" : "const std::__compressed_pair_elem<void (*)(void *), 1, false>",
   "name" : "const std::__compressed_pair_elem<void (*)(void *), 1, false>",
   "referenced_type" : "type-625",
   "self_type" : "type-624",
   "size" : 4,
   "source_file" : "/external/libcxx/include/type_traits"
  },
  {
   "alignment" : 4,
   "is_const" : true,
   "linker_set_key" : "const std::__function::__policy",
   "name" : "const std::__function::__policy",
   "referenced_type" : "type-2146",
   "self_type" : "type-2154",
   "size" : 16,
   "source_file" : "/external/libcxx/include/functional"
  },
  {
   "alignment" : 1,
   "is_const" : true,
   "linker_set_key" : "const std::__ignore_t<unsigned char>",
   "name" : "const std::__ignore_t<unsigned char>",
   "referenced_type" : "type-1935",
   "self_type" : "type-1936",
   "size" : 1,
   "source_file" : "/external/libcxx/include/tuple"
  },
  {
   "alignment" : 1,
   "is_const" : true,
   "linker_set_key" : "const std::__less<int, int>",
   "name" : "const std::__less<int, int>",
   "referenced_type" : "type-2180",
   "self_type" : "type-2181",
   "size" : 1,
   "source_file" : "/external/libcxx/include/algorithm"
  },
  {
   "alignment" : 1,
   "is_const" : true,
   "linker_set_key" : "const std::__less<unsigned int, unsigned int>",
   "name" : "const std::__less<unsigned int, unsigned int>",
   "referenced_type" : "type-2175",
   "self_type" : "type-2176",
   "size" : 1,
   "source_file" : "/external/libcxx/include/algorithm"
  },
  {
   "alignment" : 4,
   "is_const" : true,
   "linker_set_key" : "const std::__libcpp_debug_info",
   "name" : "const std::__libcpp_debug_info",
   "referenced_type" : "type-1654",
   "self_type" : "type-1658",
   "size" : 16,
   "source_file" : "/external/libcxx/include/__debug"
  },
  {
   "alignment" : 4,
   "is_const" : true,
   "linker_set_key" : "const std::__libcpp_refstring",
   "name" : "const std::__libcpp_refstring",
   "referenced_type" : "type-1940",
   "self_type" : "type-1941",
   "size" : 4,
   "source_file" : "/external/libcxx/include/stdexcept"
  },
  {
   "alignment" : 1,
   "is_const" : true,
   "linker_set_key" : "const std::__scalar_hash<double, 2>",
   "name" : "const std::__scalar_hash<double, 2>",
   "referenced_type" : "type-1705",
   "self_type" : "type-1706",
   "size" : 1,
   "source_file" : "/external/libcxx/include/utility"
  },
  {
   "alignment" : 1,
   "is_const" : true,
   "linker_set_key" : "const std::__scalar_hash<float, 1>",
   "name" : "const std::__scalar_hash<float, 1>",
   "referenced_type" : "type-1702",
   "self_type" : "type-1703",
   "size" : 1,
   "source_file" : "/external/libcxx/include/utility"
  },
  {
   "alignment" : 1,
   "is_const" : true,
   "linker_set_key" : "const std::__scalar_hash<long double, 2>",
   "name" : "const std::__scalar_hash<long double, 2>",
   "referenced_type" : "type-1708",
   "self_type" : "type-1709",
   "size" : 1,
   "source_file" : "/external/libcxx/include/utility"
  },
  {
   "alignment" : 1,
   "is_const" : true,
   "linker_set_key" : "const std::__scalar_hash<std::_PairT, 2>",
   "name" : "const std::__scalar_hash<std::_PairT, 2>",
   "referenced_type" : "type-1697",
   "self_type" : "type-1698",
   "size" : 1,
   "source_file" : "/external/libcxx/include/utility"
  },
  {
   "alignment" : 1,
   "is_const" : true,
   "linker_set_key" : "const std::__sfinae_assign_base<false, false>",
   "name" : "const std::__sfinae_assign_base<false, false>",
   "referenced_type" : "type-1632",
   "self_type" : "type-1634",
   "size" : 1,
   "source_file" : "/external/libcxx/include/__tuple"
  },
  {
   "alignment" : 1,
   "is_const" : true,
   "linker_set_key" : "const std::__sfinae_assign_base<false, true>",
   "name" : "const std::__sfinae_assign_base<false, true>",
   "referenced_type" : "type-1643",
   "self_type" : "type-1645",
   "size" : 1,
   "source_file" : "/external/libcxx/include/__tuple"
  },
  {
   "alignment" : 1,
   "is_const" : true,
   "linker_set_key" : "const std::__sfinae_assign_base<true, false>",
   "name" : "const std::__sfinae_assign_base<true, false>",
   "referenced_type" : "type-1637",
   "self_type" : "type-1639",
   "size" : 1,
   "source_file" : "/external/libcxx/include/__tuple"
  },
  {
   "alignment" : 1,
   "is_const" : true,
   "linker_set_key" : "const std::__sfinae_ctor_base<false, false>",
   "name" : "const std::__sfinae_ctor_base<false, false>",
   "referenced_type" : "type-1614",
   "self_type" : "type-1617",
   "size" : 1,
   "source_file" : "/external/libcxx/include/__tuple"
  },
  {
   "alignment" : 1,
   "is_const" : true,
   "linker_set_key" : "const std::__sfinae_ctor_base<false, true>",
   "name" : "const std::__sfinae_ctor_base<false, true>",
   "referenced_type" : "type-1626",
   "self_type" : "type-1630",
   "size" : 1,
   "source_file" : "/external/libcxx/include/__tuple"
  },
  {
   "alignment" : 1,
   "is_const" : true,
   "linker_set_key" : "const std::__sfinae_ctor_base<true, false>",
   "name" : "const std::__sfinae_ctor_base<true, false>",
   "referenced_type" : "type-1620",
   "self_type" : "type-1622",
   "size" : 1,
   "source_file" : "/external/libcxx/include/__tuple"
  },
  {
   "alignment" : 4,
   "is_const" : true,
   "linker_set_key" : "const std::__shared_count",
   "name" : "const std::__shared_count",
   "referenced_type" : "type-2104",
   "self_type" : "type-2106",
   "size" : 8,
   "source_file" : "/external/libcxx/include/memory"
  },
  {
   "alignment" : 4,
   "is_const" : true,
   "linker_set_key" : "const std::__shared_weak_count",
   "name" : "const std::__shared_weak_count",
   "referenced_type" : "type-2108",
   "self_type" : "type-2110",
   "size" : 12,
   "source_file" : "/external/libcxx/include/memory"
  },
  {
   "alignment" : 1,
   "is_const" : true,
   "linker_set_key" : "const std::adopt_lock_t",
   "name" : "const std::adopt_lock_t",
   "referenced_type" : "type-2429",
   "self_type" : "type-2432",
   "size" : 1,
   "source_file" : "/external/libcxx/include/__mutex_base"
  },
  {
   "alignment" : 1,
   "is_const" : true,
   "linker_set_key" : "const std::allocator<char16_t>",
   "name" : "const std::allocator<char16_t>",
   "referenced_type" : "type-574",
   "self_type" : "type-1901",
   "size" : 1,
   "source_file" : "/external/libcxx/include/memory"
  },
  {
   "alignment" : 1,
   "is_const" : true,
   "linker_set_key" : "const std::allocator<char32_t>",
   "name" : "const std::allocator<char32_t>",
   "referenced_type" : "type-592",
   "self_type" : "type-1904",
   "size" : 1,
   "source_file" : "/external/libcxx/include/memory"
  },
  {
   "alignment" : 1,
   "is_const" : true,
   "linker_set_key" : "const std::allocator<char>",
   "name" : "const std::allocator<char>",
   "referenced_type" : "type-663",
   "self_type" : "type-1895",
   "size" : 1,
   "source_file" : "/external/libcxx/include/memory"
  },
  {
   "alignment" : 1,
   "is_const" : true,
   "linker_set_key" : "const std::allocator<wchar_t>",
   "name" : "const std::allocator<wchar_t>",
   "referenced_type" : "type-681",
   "self_type" : "type-1898",
   "size" : 1,
   "source_file" : "/external/libcxx/include/memory"
  },
  {
   "alignment" : 1,
   "is_const" : true,
   "linker_set_key" : "const std::allocator_arg_t",
   "name" : "const std::allocator_arg_t",
   "referenced_type" : "type-1924",
   "self_type" : "type-1925",
   "size" : 1,
   "source_file" : "/external/libcxx/include/__functional_base"
  },
  {
   "alignment" : 4,
   "is_const" : true,
   "linker_set_key" : "const std::basic_string<char, std::char_traits<char>, std::allocator<char> >",
   "name" : "const std::basic_string<char, std::char_traits<char>, std::allocator<char> >",
   "referenced_type" : "type-1044",
   "self_type" : "type-1043",
   "size" : 12,
   "source_file" : "/external/libcxx/include/type_traits"
  },
  {
   "alignment" : 4,
   "is_const" : true,
   "linker_set_key" : "const std::basic_string<char16_t, char_traits<char16_t>, allocator<char16_t> >::__rep",
   "name" : "const std::basic_string<char16_t, char_traits<char16_t>, allocator<char16_t> >::__rep",
   "referenced_type" : "type-561",
   "self_type" : "type-2081",
   "size" : 12,
   "source_file" : "/external/libcxx/include/memory"
  },
  {
   "alignment" : 4,
   "is_const" : true,
   "linker_set_key" : "const std::basic_string<char16_t, std::char_traits<char16_t>, std::allocator<char16_t> >",
   "name" : "const std::basic_string<char16_t, std::char_traits<char16_t>, std::allocator<char16_t> >",
   "referenced_type" : "type-1906",
   "self_type" : "type-1910",
   "size" : 12,
   "source_file" : "/external/libcxx/include/string"
  },
  {
   "alignment" : 4,
   "is_const" : true,
   "linker_set_key" : "const std::basic_string<char32_t, char_traits<char32_t>, allocator<char32_t> >::__rep",
   "name" : "const std::basic_string<char32_t, char_traits<char32_t>, allocator<char32_t> >::__rep",
   "referenced_type" : "type-579",
   "self_type" : "type-2084",
   "size" : 12,
   "source_file" : "/external/libcxx/include/memory"
  },
  {
   "alignment" : 4,
   "is_const" : true,
   "linker_set_key" : "const std::basic_string<char32_t, std::char_traits<char32_t>, std::allocator<char32_t> >",
   "name" : "const std::basic_string<char32_t, std::char_traits<char32_t>, std::allocator<char32_t> >",
   "referenced_type" : "type-1914",
   "self_type" : "type-1918",
   "size" : 12,
   "source_file" : "/external/libcxx/include/string"
  },
  {
   "alignment" : 4,
   "is_const" : true,
   "linker_set_key" : "const std::basic_string<char>::__rep",
   "name" : "const std::basic_string<char>::__rep",
   "referenced_type" : "type-653",
   "self_type" : "type-2075",
   "size" : 12,
   "source_file" : "/external/libcxx/include/memory"
  },
  {
   "alignment" : 4,
   "is_const" : true,
   "linker_set_key" : "const std::basic_string<wchar_t, std::char_traits<wchar_t>, std::allocator<wchar_t> >",
   "name" : "const std::basic_string<wchar_t, std::char_traits<wchar_t>, std::allocator<wchar_t> >",
   "referenced_type" : "type-1051",
   "self_type" : "type-1050",
   "size" : 12,
   "source_file" : "/external/libcxx/include/type_traits"
  },
  {
   "alignment" : 4,
   "is_const" : true,
   "linker_set_key" : "const std::basic_string<wchar_t>::__rep",
   "name" : "const std::basic_string<wchar_t>::__rep",
   "referenced_type" : "type-669",
   "self_type" : "type-2078",
   "size" : 12,
   "source_file" : "/external/libcxx/include/memory"
  },
  {
   "alignment" : 4,
   "is_const" : true,
   "linker_set_key" : "const std::basic_string_view<char, std::char_traits<char> >",
   "name" : "const std::basic_string_view<char, std::char_traits<char> >",
   "referenced_type" : "type-973",
   "self_type" : "type-2198",
   "size" : 8,
   "source_file" : "/external/libcxx/include/string_view"
  },
  {
   "alignment" : 4,
   "is_const" : true,
   "linker_set_key" : "const std::basic_string_view<char16_t, std::char_traits<char16_t> >",
   "name" : "const std::basic_string_view<char16_t, std::char_traits<char16_t> >",
   "referenced_type" : "type-983",
   "self_type" : "type-2202",
   "size" : 8,
   "source_file" : "/external/libcxx/include/string_view"
  },
  {
   "alignment" : 4,
   "is_const" : true,
   "linker_set_key" : "const std::basic_string_view<char32_t, std::char_traits<char32_t> >",
   "name" : "const std::basic_string_view<char32_t, std::char_traits<char32_t> >",
   "referenced_type" : "type-989",
   "self_type" : "type-2206",
   "size" : 8,
   "source_file" : "/external/libcxx/include/string_view"
  },
  {
   "alignment" : 4,
   "is_const" : true,
   "linker_set_key" : "const std::basic_string_view<wchar_t, std::char_traits<wchar_t> >",
   "name" : "const std::basic_string_view<wchar_t, std::char_traits<wchar_t> >",
   "referenced_type" : "type-977",
   "self_type" : "type-2210",
   "size" : 8,
   "source_file" : "/external/libcxx/include/string_view"
  },
  {
   "alignment" : 1,
   "is_const" : true,
   "linker_set_key" : "const std::chrono::__duration_cast<std::chrono::duration<long long, std::ratio<1, 1000000000> >, std::chrono::duration<long double, std::ratio<1, 1000000000> >, std::ratio<1, 1>, true, true>",
   "name" : "const std::chrono::__duration_cast<std::chrono::duration<long long, std::ratio<1, 1000000000> >, std::chrono::duration<long double, std::ratio<1, 1000000000> >, std::ratio<1, 1>, true, true>",
   "referenced_type" : "type-2340",
   "self_type" : "type-2341",
   "size" : 1,
   "source_file" : "/external/libcxx/include/chrono"
  },
  {
   "alignment" : 1,
   "is_const" : true,
   "linker_set_key" : "const std::chrono::__duration_cast<std::chrono::duration<long long, std::ratio<1, 1000000000> >, std::chrono::duration<long long, std::ratio<1, 1> >, std::ratio<1, 1000000000>, true, false>",
   "name" : "const std::chrono::__duration_cast<std::chrono::duration<long long, std::ratio<1, 1000000000> >, std::chrono::duration<long long, std::ratio<1, 1> >, std::ratio<1, 1000000000>, true, false>",
   "referenced_type" : "type-2334",
   "self_type" : "type-2335",
   "size" : 1,
   "source_file" : "/external/libcxx/include/chrono"
  },
  {
   "alignment" : 1,
   "is_const" : true,
   "linker_set_key" : "const std::chrono::__duration_cast<std::chrono::duration<long long, std::ratio<1, 1> >, std::chrono::duration<long long, std::ratio<1, 1000000000> >, std::ratio<1000000000, 1>, false, true>",
   "name" : "const std::chrono::__duration_cast<std::chrono::duration<long long, std::ratio<1, 1> >, std::chrono::duration<long long, std::ratio<1, 1000000000> >, std::ratio<1000000000, 1>, false, true>",
   "referenced_type" : "type-2337",
   "self_type" : "type-2338",
   "size" : 1,
   "source_file" : "/external/libcxx/include/chrono"
  },
  {
   "alignment" : 8,
   "is_const" : true,
   "linker_set_key" : "const std::chrono::duration<long double, std::ratio<1, 1000000000> >",
   "name" : "const std::chrono::duration<long double, std::ratio<1, 1000000000> >",
   "referenced_type" : "type-998",
   "self_type" : "type-2325",
   "size" : 8,
   "source_file" : "/external/libcxx/include/chrono"
  },
  {
   "alignment" : 8,
   "is_const" : true,
   "linker_set_key" : "const std::chrono::duration<long long, std::ratio<1, 1000000000> >",
   "name" : "const std::chrono::duration<long long, std::ratio<1, 1000000000> >",
   "referenced_type" : "type-1034",
   "self_type" : "type-2296",
   "size" : 8,
   "source_file" : "/external/libcxx/include/chrono"
  },
  {
   "alignment" : 8,
   "is_const" : true,
   "linker_set_key" : "const std::chrono::duration<long long, std::ratio<1, 1> >",
   "name" : "const std::chrono::duration<long long, std::ratio<1, 1> >",
   "referenced_type" : "type-1036",
   "self_type" : "type-2294",
   "size" : 8,
   "source_file" : "/external/libcxx/include/chrono"
  },
  {
   "alignment" : 8,
   "is_const" : true,
   "linker_set_key" : "const std::chrono::time_point<std::chrono::steady_clock, std::chrono::duration<long long, std::ratio<1, 1000000000> > >",
   "name" : "const std::chrono::time_point<std::chrono::steady_clock, std::chrono::duration<long long, std::ratio<1, 1000000000> > >",
   "referenced_type" : "type-2364",
   "self_type" : "type-2366",
   "size" : 8,
   "source_file" : "/external/libcxx/include/chrono"
  },
  {
   "alignment" : 8,
   "is_const" : true,
   "linker_set_key" : "const std::chrono::time_point<std::chrono::system_clock, std::chrono::duration<long long, std::ratio<1, 1000000000> > >",
   "name" : "const std::chrono::time_point<std::chrono::system_clock, std::chrono::duration<long long, std::ratio<1, 1000000000> > >",
   "referenced_type" : "type-2373",
   "self_type" : "type-2375",
   "size" : 8,
   "source_file" : "/external/libcxx/include/chrono"
  },
  {
   "alignment" : 8,
   "is_const" : true,
   "linker_set_key" : "const std::chrono::time_point<std::filesystem::_FilesystemClock, std::chrono::duration<long long, std::ratio<1, 1000000000> > >",
   "name" : "const std::chrono::time_point<std::filesystem::_FilesystemClock, std::chrono::duration<long long, std::ratio<1, 1000000000> > >",
   "referenced_type" : "type-2368",
   "self_type" : "type-2371",
   "size" : 8,
   "source_file" : "/external/libcxx/include/chrono"
  },
  {
   "alignment" : 4,
   "is_const" : true,
   "linker_set_key" : "const std::codecvt<char, char, mbstate_t>",
   "name" : "const std::codecvt<char, char, mbstate_t>",
   "referenced_type" : "type-2476",
   "self_type" : "type-2478",
   "size" : 8,
   "source_file" : "/external/libcxx/include/__locale"
  },
  {
   "alignment" : 4,
   "is_const" : true,
   "linker_set_key" : "const std::codecvt<char16_t, char, mbstate_t>",
   "name" : "const std::codecvt<char16_t, char, mbstate_t>",
   "referenced_type" : "type-2488",
   "self_type" : "type-2490",
   "size" : 8,
   "source_file" : "/external/libcxx/include/__locale"
  },
  {
   "alignment" : 4,
   "is_const" : true,
   "linker_set_key" : "const std::codecvt<char32_t, char, mbstate_t>",
   "name" : "const std::codecvt<char32_t, char, mbstate_t>",
   "referenced_type" : "type-2494",
   "self_type" : "type-2496",
   "size" : 8,
   "source_file" : "/external/libcxx/include/__locale"
  },
  {
   "alignment" : 4,
   "is_const" : true,
   "linker_set_key" : "const std::codecvt<wchar_t, char, mbstate_t>",
   "name" : "const std::codecvt<wchar_t, char, mbstate_t>",
   "referenced_type" : "type-2483",
   "self_type" : "type-2484",
   "size" : 12,
   "source_file" : "/external/libcxx/include/__locale"
  },
  {
   "alignment" : 4,
   "is_const" : true,
   "linker_set_key" : "const std::ctype<char>",
   "name" : "const std::ctype<char>",
   "referenced_type" : "type-2467",
   "self_type" : "type-2469",
   "size" : 16,
   "source_file" : "/external/libcxx/include/__locale"
  },
  {
   "alignment" : 4,
   "is_const" : true,
   "linker_set_key" : "const std::ctype<wchar_t>",
   "name" : "const std::ctype<wchar_t>",
   "referenced_type" : "type-2462",
   "self_type" : "type-2464",
   "size" : 8,
   "source_file" : "/external/libcxx/include/__locale"
  },
  {
   "alignment" : 1,
   "is_const" : true,
   "linker_set_key" : "const std::defer_lock_t",
   "name" : "const std::defer_lock_t",
   "referenced_type" : "type-2427",
   "self_type" : "type-2430",
   "size" : 1,
   "source_file" : "/external/libcxx/include/__mutex_base"
  },
  {
   "alignment" : 4,
   "is_const" : true,
   "linker_set_key" : "const std::error_category",
   "name" : "const std::error_category",
   "referenced_type" : "type-1692",
   "self_type" : "type-1691",
   "size" : 4,
   "source_file" : "/external/libcxx/include/system_error"
  },
  {
   "alignment" : 4,
   "is_const" : true,
   "linker_set_key" : "const std::error_code",
   "name" : "const std::error_code",
   "referenced_type" : "type-1689",
   "self_type" : "type-2404",
   "size" : 8,
   "source_file" : "/external/libcxx/include/system_error"
  },
  {
   "alignment" : 4,
   "is_const" : true,
   "linker_set_key" : "const std::error_condition",
   "name" : "const std::error_condition",
   "referenced_type" : "type-1694",
   "self_type" : "type-2400",
   "size" : 8,
   "source_file" : "/external/libcxx/include/system_error"
  },
  {
   "alignment" : 4,
   "is_const" : true,
   "linker_set_key" : "const std::exception_ptr",
   "name" : "const std::exception_ptr",
   "referenced_type" : "type-1868",
   "self_type" : "type-1870",
   "size" : 4,
   "source_file" : "/external/libcxx/include/exception"
  },
  {
   "alignment" : 4,
   "is_const" : true,
   "linker_set_key" : "const std::float_denorm_style",
   "name" : "const std::float_denorm_style",
   "referenced_type" : "type-1237",
   "self_type" : "type-1238",
   "size" : 4,
   "source_file" : "/external/libcxx/include/limits"
  },
  {
   "alignment" : 4,
   "is_const" : true,
   "linker_set_key" : "const std::float_round_style",
   "name" : "const std::float_round_style",
   "referenced_type" : "type-1236",
   "self_type" : "type-1239",
   "size" : 4,
   "source_file" : "/external/libcxx/include/limits"
  },
  {
   "alignment" : 1,
   "is_const" : true,
   "linker_set_key" : "const std::hash<bool>",
   "name" : "const std::hash<bool>",
   "referenced_type" : "type-1711",
   "self_type" : "type-1712",
   "size" : 1,
   "source_file" : "/external/libcxx/include/utility"
  },
  {
   "alignment" : 1,
   "is_const" : true,
   "linker_set_key" : "const std::hash<char16_t>",
   "name" : "const std::hash<char16_t>",
   "referenced_type" : "type-1723",
   "self_type" : "type-1724",
   "size" : 1,
   "source_file" : "/external/libcxx/include/utility"
  },
  {
   "alignment" : 1,
   "is_const" : true,
   "linker_set_key" : "const std::hash<char32_t>",
   "name" : "const std::hash<char32_t>",
   "referenced_type" : "type-1726",
   "self_type" : "type-1727",
   "size" : 1,
   "source_file" : "/external/libcxx/include/utility"
  },
  {
   "alignment" : 1,
   "is_const" : true,
   "linker_set_key" : "const std::hash<char>",
   "name" : "const std::hash<char>",
   "referenced_type" : "type-1714",
   "self_type" : "type-1715",
   "size" : 1,
   "source_file" : "/external/libcxx/include/utility"
  },
  {
   "alignment" : 1,
   "is_const" : true,
   "linker_set_key" : "const std::hash<double>",
   "name" : "const std::hash<double>",
   "referenced_type" : "type-1755",
   "self_type" : "type-1756",
   "size" : 1,
   "source_file" : "/external/libcxx/include/utility"
  },
  {
   "alignment" : 1,
   "is_const" : true,
   "linker_set_key" : "const std::hash<float>",
   "name" : "const std::hash<float>",
   "referenced_type" : "type-1752",
   "self_type" : "type-1753",
   "size" : 1,
   "source_file" : "/external/libcxx/include/utility"
  },
  {
   "alignment" : 1,
   "is_const" : true,
   "linker_set_key" : "const std::hash<int>",
   "name" : "const std::hash<int>",
   "referenced_type" : "type-1738",
   "self_type" : "type-1739",
   "size" : 1,
   "source_file" : "/external/libcxx/include/utility"
  },
  {
   "alignment" : 1,
   "is_const" : true,
   "linker_set_key" : "const std::hash<long double>",
   "name" : "const std::hash<long double>",
   "referenced_type" : "type-1758",
   "self_type" : "type-1759",
   "size" : 1,
   "source_file" : "/external/libcxx/include/utility"
  },
  {
   "alignment" : 1,
   "is_const" : true,
   "linker_set_key" : "const std::hash<long>",
   "name" : "const std::hash<long>",
   "referenced_type" : "type-1744",
   "self_type" : "type-1745",
   "size" : 1,
   "source_file" : "/external/libcxx/include/utility"
  },
  {
   "alignment" : 1,
   "is_const" : true,
   "linker_set_key" : "const std::hash<nullptr_t>",
   "name" : "const std::hash<nullptr_t>",
   "referenced_type" : "type-1761",
   "self_type" : "type-1762",
   "size" : 1,
   "source_file" : "/external/libcxx/include/utility"
  },
  {
   "alignment" : 1,
   "is_const" : true,
   "linker_set_key" : "const std::hash<short>",
   "name" : "const std::hash<short>",
   "referenced_type" : "type-1732",
   "self_type" : "type-1733",
   "size" : 1,
   "source_file" : "/external/libcxx/include/utility"
  },
  {
   "alignment" : 1,
   "is_const" : true,
   "linker_set_key" : "const std::hash<signed char>",
   "name" : "const std::hash<signed char>",
   "referenced_type" : "type-1717",
   "self_type" : "type-1718",
   "size" : 1,
   "source_file" : "/external/libcxx/include/utility"
  },
  {
   "alignment" : 1,
   "is_const" : true,
   "linker_set_key" : "const std::hash<std::error_code>",
   "name" : "const std::hash<std::error_code>",
   "referenced_type" : "type-2407",
   "self_type" : "type-2408",
   "size" : 1,
   "source_file" : "/external/libcxx/include/system_error"
  },
  {
   "alignment" : 1,
   "is_const" : true,
   "linker_set_key" : "const std::hash<std::error_condition>",
   "name" : "const std::hash<std::error_condition>",
   "referenced_type" : "type-2410",
   "self_type" : "type-2411",
   "size" : 1,
   "source_file" : "/external/libcxx/include/system_error"
  },
  {
   "alignment" : 1,
   "is_const" : true,
   "linker_set_key" : "const std::hash<unsigned char>",
   "name" : "const std::hash<unsigned char>",
   "referenced_type" : "type-1720",
   "self_type" : "type-1721",
   "size" : 1,
   "source_file" : "/external/libcxx/include/utility"
  },
  {
   "alignment" : 1,
   "is_const" : true,
   "linker_set_key" : "const std::hash<unsigned int>",
   "name" : "const std::hash<unsigned int>",
   "referenced_type" : "type-1741",
   "self_type" : "type-1742",
   "size" : 1,
   "source_file" : "/external/libcxx/include/utility"
  },
  {
   "alignment" : 1,
   "is_const" : true,
   "linker_set_key" : "const std::hash<unsigned long>",
   "name" : "const std::hash<unsigned long>",
   "referenced_type" : "type-1747",
   "self_type" : "type-1748",
   "size" : 1,
   "source_file" : "/external/libcxx/include/utility"
  },
  {
   "alignment" : 1,
   "is_const" : true,
   "linker_set_key" : "const std::hash<unsigned short>",
   "name" : "const std::hash<unsigned short>",
   "referenced_type" : "type-1735",
   "self_type" : "type-1736",
   "size" : 1,
   "source_file" : "/external/libcxx/include/utility"
  },
  {
   "alignment" : 1,
   "is_const" : true,
   "linker_set_key" : "const std::hash<wchar_t>",
   "name" : "const std::hash<wchar_t>",
   "referenced_type" : "type-1729",
   "self_type" : "type-1730",
   "size" : 1,
   "source_file" : "/external/libcxx/include/utility"
  },
  {
   "alignment" : 1,
   "is_const" : true,
   "linker_set_key" : "const std::in_place_t",
   "name" : "const std::in_place_t",
   "referenced_type" : "type-1664",
   "self_type" : "type-1666",
   "size" : 1,
   "source_file" : "/external/libcxx/include/utility"
  },
  {
   "alignment" : 4,
   "is_const" : true,
   "linker_set_key" : "const std::ios_base",
   "name" : "const std::ios_base",
   "referenced_type" : "type-2522",
   "self_type" : "type-2530",
   "size" : 72,
   "source_file" : "/external/libcxx/include/ios"
  },
  {
   "alignment" : 4,
   "is_const" : true,
   "linker_set_key" : "const std::locale",
   "name" : "const std::locale",
   "referenced_type" : "type-2388",
   "self_type" : "type-2449",
   "size" : 4,
   "source_file" : "/external/libcxx/include/__locale"
  },
  {
   "alignment" : 4,
   "is_const" : true,
   "linker_set_key" : "const std::nested_exception",
   "name" : "const std::nested_exception",
   "referenced_type" : "type-1873",
   "self_type" : "type-1874",
   "size" : 8,
   "source_file" : "/external/libcxx/include/exception"
  },
  {
   "alignment" : 1,
   "is_const" : true,
   "linker_set_key" : "const std::nothrow_t",
   "name" : "const std::nothrow_t",
   "referenced_type" : "type-1883",
   "self_type" : "type-1884",
   "size" : 1,
   "source_file" : "/external/libcxx/include/new"
  },
  {
   "alignment" : 4,
   "is_const" : true,
   "linker_set_key" : "const std::numpunct<char>",
   "name" : "const std::numpunct<char>",
   "referenced_type" : "type-2514",
   "self_type" : "type-2515",
   "size" : 24,
   "source_file" : "/external/libcxx/include/__locale"
  },
  {
   "alignment" : 4,
   "is_const" : true,
   "linker_set_key" : "const std::numpunct<wchar_t>",
   "name" : "const std::numpunct<wchar_t>",
   "referenced_type" : "type-2517",
   "self_type" : "type-2518",
   "size" : 28,
   "source_file" : "/external/libcxx/include/__locale"
  },
  {
   "alignment" : 1,
   "is_const" : true,
   "linker_set_key" : "const std::piecewise_construct_t",
   "name" : "const std::piecewise_construct_t",
   "referenced_type" : "type-1660",
   "self_type" : "type-1661",
   "size" : 1,
   "source_file" : "/external/libcxx/include/utility"
  },
  {
   "alignment" : 1,
   "is_const" : true,
   "linker_set_key" : "const std::placeholders::__ph<10>",
   "name" : "const std::placeholders::__ph<10>",
   "referenced_type" : "type-2164",
   "self_type" : "type-2174",
   "size" : 1,
   "source_file" : "/external/libcxx/include/functional"
  },
  {
   "alignment" : 1,
   "is_const" : true,
   "linker_set_key" : "const std::placeholders::__ph<1>",
   "name" : "const std::placeholders::__ph<1>",
   "referenced_type" : "type-2155",
   "self_type" : "type-2165",
   "size" : 1,
   "source_file" : "/external/libcxx/include/functional"
  },
  {
   "alignment" : 1,
   "is_const" : true,
   "linker_set_key" : "const std::placeholders::__ph<2>",
   "name" : "const std::placeholders::__ph<2>",
   "referenced_type" : "type-2156",
   "self_type" : "type-2166",
   "size" : 1,
   "source_file" : "/external/libcxx/include/functional"
  },
  {
   "alignment" : 1,
   "is_const" : true,
   "linker_set_key" : "const std::placeholders::__ph<3>",
   "name" : "const std::placeholders::__ph<3>",
   "referenced_type" : "type-2157",
   "self_type" : "type-2167",
   "size" : 1,
   "source_file" : "/external/libcxx/include/functional"
  },
  {
   "alignment" : 1,
   "is_const" : true,
   "linker_set_key" : "const std::placeholders::__ph<4>",
   "name" : "const std::placeholders::__ph<4>",
   "referenced_type" : "type-2158",
   "self_type" : "type-2168",
   "size" : 1,
   "source_file" : "/external/libcxx/include/functional"
  },
  {
   "alignment" : 1,
   "is_const" : true,
   "linker_set_key" : "const std::placeholders::__ph<5>",
   "name" : "const std::placeholders::__ph<5>",
   "referenced_type" : "type-2159",
   "self_type" : "type-2169",
   "size" : 1,
   "source_file" : "/external/libcxx/include/functional"
  },
  {
   "alignment" : 1,
   "is_const" : true,
   "linker_set_key" : "const std::placeholders::__ph<6>",
   "name" : "const std::placeholders::__ph<6>",
   "referenced_type" : "type-2160",
   "self_type" : "type-2170",
   "size" : 1,
   "source_file" : "/external/libcxx/include/functional"
  },
  {
   "alignment" : 1,
   "is_const" : true,
   "linker_set_key" : "const std::placeholders::__ph<7>",
   "name" : "const std::placeholders::__ph<7>",
   "referenced_type" : "type-2161",
   "self_type" : "type-2171",
   "size" : 1,
   "source_file" : "/external/libcxx/include/functional"
  },
  {
   "alignment" : 1,
   "is_const" : true,
   "linker_set_key" : "const std::placeholders::__ph<8>",
   "name" : "const std::placeholders::__ph<8>",
   "referenced_type" : "type-2162",
   "self_type" : "type-2172",
   "size" : 1,
   "source_file" : "/external/libcxx/include/functional"
  },
  {
   "alignment" : 1,
   "is_const" : true,
   "linker_set_key" : "const std::placeholders::__ph<9>",
   "name" : "const std::placeholders::__ph<9>",
   "referenced_type" : "type-2163",
   "self_type" : "type-2173",
   "size" : 1,
   "source_file" : "/external/libcxx/include/functional"
  },
  {
   "alignment" : 4,
   "is_const" : true,
   "linker_set_key" : "const std::pointer_safety",
   "name" : "const std::pointer_safety",
   "referenced_type" : "type-2116",
   "self_type" : "type-2119",
   "size" : 4,
   "source_file" : "/external/libcxx/include/memory"
  },
  {
   "alignment" : 4,
   "is_const" : true,
   "linker_set_key" : "const std::system_error",
   "name" : "const std::system_error",
   "referenced_type" : "type-2413",
   "self_type" : "type-2414",
   "size" : 16,
   "source_file" : "/external/libcxx/include/system_error"
  },
  {
   "alignment" : 1,
   "is_const" : true,
   "linker_set_key" : "const std::try_to_lock_t",
   "name" : "const std::try_to_lock_t",
   "referenced_type" : "type-2428",
   "self_type" : "type-2431",
   "size" : 1,
   "source_file" : "/external/libcxx/include/__mutex_base"
  },
  {
   "alignment" : 4,
   "is_const" : true,
   "linker_set_key" : "const std::type_info",
   "name" : "const std::type_info",
   "referenced_type" : "type-1876",
   "self_type" : "type-1878",
   "size" : 8,
   "source_file" : "/external/libcxx/include/typeinfo"
  },
  {
   "alignment" : 4,
   "is_const" : true,
   "linker_set_key" : "const std::type_info *const",
   "name" : "const std::type_info *const",
   "referenced_type" : "type-1879",
   "self_type" : "type-2152",
   "size" : 4,
   "source_file" : "/external/libcxx/include/functional"
  },
  {
   "alignment" : 4,
   "is_const" : true,
   "linker_set_key" : "const tm",
   "name" : "const tm",
   "referenced_type" : "type-1890",
   "self_type" : "type-1891",
   "size" : 44,
   "source_file" : "/bionic/libc/include/time.h"
  },
  {
   "is_const" : true,
   "linker_set_key" : "const uniform_int_distribution<_IntType>",
   "name" : "const uniform_int_distribution<_IntType>",
   "referenced_type" : "type-2188",
   "self_type" : "type-2187",
   "source_file" : "/external/libcxx/include/algorithm"
  },
  {
   "alignment" : 1,
   "is_const" : true,
   "linker_set_key" : "const unsigned char",
   "name" : "const unsigned char",
   "referenced_type" : "type-38",
   "self_type" : "type-485",
   "size" : 1,
   "source_file" : "/libnativehelper/include_jni/jni.h"
  },
  {
   "alignment" : 4,
   "is_const" : true,
   "linker_set_key" : "const unsigned int",
   "name" : "const unsigned int",
   "referenced_type" : "type-555",
   "self_type" : "type-2179",
   "size" : 4,
   "source_file" : "/external/libcxx/include/type_traits"
  },
  {
   "alignment" : 4,
   "is_const" : true,
   "linker_set_key" : "const unsigned long",
   "name" : "const unsigned long",
   "referenced_type" : "type-608",
   "self_type" : "type-1246",
   "size" : 4,
   "source_file" : "/external/libcxx/include/limits"
  },
  {
   "alignment" : 8,
   "is_const" : true,
   "linker_set_key" : "const unsigned long long",
   "name" : "const unsigned long long",
   "referenced_type" : "type-600",
   "self_type" : "type-1248",
   "size" : 8,
   "source_file" : "/external/libcxx/include/limits"
  },
  {
   "alignment" : 2,
   "is_const" : true,
   "linker_set_key" : "const unsigned short",
   "name" : "const unsigned short",
   "referenced_type" : "type-77",
   "self_type" : "type-369",
   "size" : 2,
   "source_file" : "/libnativehelper/include_jni/jni.h"
  },
  {
   "is_const" : true,
   "linker_set_key" : "const void",
   "name" : "const void",
   "referenced_type" : "type-10",
   "self_type" : "type-1285",
   "source_file" : "/bionic/libc/include/string.h"
  },
  {
   "alignment" : 4,
   "is_const" : true,
   "linker_set_key" : "const void *const",
   "name" : "const void *const",
   "referenced_type" : "type-1284",
   "self_type" : "type-1286",
   "size" : 4,
   "source_file" : "/bionic/libc/include/string.h"
  },
  {
   "alignment" : 4,
   "is_const" : true,
   "linker_set_key" : "const wchar_t",
   "name" : "const wchar_t",
   "referenced_type" : "type-673",
   "self_type" : "type-979",
   "size" : 4,
   "source_file" : "/external/libcxx/include/type_traits"
  },
  {
   "alignment" : 4,
   "is_const" : true,
   "linker_set_key" : "const wchar_t *const",
   "name" : "const wchar_t *const",
   "referenced_type" : "type-978",
   "self_type" : "type-1019",
   "size" : 4,
   "source_file" : "/external/libcxx/include/type_traits"
  },
  {
   "alignment" : 4,
   "is_const" : true,
   "linker_set_key" : "void (*const)(void *)",
   "name" : "void (*const)(void *)",
   "referenced_type" : "type-626",
   "self_type" : "type-2150",
   "size" : 4,
   "source_file" : "/external/libcxx/include/functional"
  },
  {
   "is_const" : true,
   "linker_set_key" : "void (*const[])(const SkMatrix &, SkPoint *, const SkPoint *, int)",
   "name" : "void (*const[])(const SkMatrix &, SkPoint *, const SkPoint *, int)",
   "referenced_type" : "type-1829",
   "self_type" : "type-1830",
   "source_file" : "/external/skia/include/core/SkMatrix.h"
  },
  {
   "is_const" : true,
   "linker_set_key" : "void (*const[])(const SkMatrix &, float, float, SkPoint *)",
   "name" : "void (*const[])(const SkMatrix &, float, float, SkPoint *)",
   "referenced_type" : "type-1827",
   "self_type" : "type-1828",
   "source_file" : "/external/skia/include/core/SkMatrix.h"
  },
  {
   "alignment" : 4,
   "is_volatile" : true,
   "linker_set_key" : "void (*volatile)(void *, const void *)",
   "name" : "void (*volatile)(void *, const void *)",
   "referenced_type" : "type-1855",
   "self_type" : "type-1857",
   "size" : 4,
   "source_file" : "/bionic/libc/include/malloc.h"
  },
  {
   "alignment" : 4,
   "is_const" : true,
   "linker_set_key" : "void *(*const)(const void *)",
   "name" : "void *(*const)(const void *)",
   "referenced_type" : "type-2148",
   "self_type" : "type-2147",
   "size" : 4,
   "source_file" : "/external/libcxx/include/functional"
  },
  {
   "alignment" : 4,
   "is_volatile" : true,
   "linker_set_key" : "void *(*volatile)(unsigned int, const void *)",
   "name" : "void *(*volatile)(unsigned int, const void *)",
   "referenced_type" : "type-1849",
   "self_type" : "type-1851",
   "size" : 4,
   "source_file" : "/bionic/libc/include/malloc.h"
  },
  {
   "alignment" : 4,
   "is_volatile" : true,
   "linker_set_key" : "void *(*volatile)(unsigned int, unsigned int, const void *)",
   "name" : "void *(*volatile)(unsigned int, unsigned int, const void *)",
   "referenced_type" : "type-1858",
   "self_type" : "type-1860",
   "size" : 4,
   "source_file" : "/bionic/libc/include/malloc.h"
  },
  {
   "alignment" : 4,
   "is_volatile" : true,
   "linker_set_key" : "void *(*volatile)(void *, unsigned int, const void *)",
   "name" : "void *(*volatile)(void *, unsigned int, const void *)",
   "referenced_type" : "type-1852",
   "self_type" : "type-1854",
   "size" : 4,
   "source_file" : "/bionic/libc/include/malloc.h"
  },
  {
   "alignment" : 4,
   "is_const" : true,
   "linker_set_key" : "void *const",
   "name" : "void *const",
   "referenced_type" : "type-9",
   "self_type" : "type-1287",
   "size" : 4,
   "source_file" : "/bionic/libc/include/string.h"
  },
  {
   "alignment" : 1,
   "is_volatile" : true,
   "linker_set_key" : "volatile std::atomic_flag",
   "name" : "volatile std::atomic_flag",
   "referenced_type" : "type-1595",
   "self_type" : "type-1597",
   "size" : 1,
   "source_file" : "/external/libcxx/include/atomic"
  }
 ],
 "record_types" :
 [
  {
   "alignment" : 4,
   "fields" :
   [
    {
     "field_name" : "width",
     "referenced_type" : "type-555"
    },
    {
     "field_name" : "height",
     "field_offset" : 32,
     "referenced_type" : "type-555"
    },
    {
     "field_name" : "stride",
     "field_offset" : 64,
     "referenced_type" : "type-555"
    },
    {
     "field_name" : "format",
     "field_offset" : 96,
     "referenced_type" : "type-13"
    },
    {
     "field_name" : "flags",
     "field_offset" : 128,
     "referenced_type" : "type-555"
    }
   ],
   "linker_set_key" : "AndroidBitmapInfo",
   "name" : "AndroidBitmapInfo",
   "referenced_type" : "type-2708",
   "self_type" : "type-2708",
   "size" : 20,
   "source_file" : "/frameworks/native/include/android/bitmap.h",
   "unique_id" : "AndroidBitmapInfo"
  },
  {
   "alignment" : 4,
   "fields" :
   [
    {
     "field_name" : "dli_fname",
     "referenced_type" : "type-19"
    },
    {
     "field_name" : "dli_fbase",
     "field_offset" : 32,
     "referenced_type" : "type-9"
    },
    {
     "field_name" : "dli_sname",
     "field_offset" : 64,
     "referenced_type" : "type-19"
    },
    {
     "field_name" : "dli_saddr",
     "field_offset" : 96,
     "referenced_type" : "type-9"
    }
   ],
   "linker_set_key" : "Dl_info",
   "name" : "Dl_info",
   "referenced_type" : "type-3107",
   "self_type" : "type-3107",
   "size" : 16,
   "source_file" : "/out/soong/ndk/sysroot/usr/include/dlfcn.h",
   "unique_id" : "Dl_info"
  },
  {
   "alignment" : 4,
   "fields" :
   [
    {
     "field_name" : "ch_type",
     "referenced_type" : "type-555"
    },
    {
     "field_name" : "ch_size",
     "field_offset" : 32,
     "referenced_type" : "type-555"
    },
    {
     "field_name" : "ch_addralign",
     "field_offset" : 64,
     "referenced_type" : "type-555"
    }
   ],
   "linker_set_key" : "Elf32_Chdr",
   "name" : "Elf32_Chdr",
   "referenced_type" : "type-3199",
   "self_type" : "type-3199",
   "size" : 12,
   "source_file" : "/out/soong/ndk/sysroot/usr/include/elf.h",
   "unique_id" : "_ZTS10Elf32_Chdr"
  },
  {
   "alignment" : 4,
   "fields" :
   [
    {
     "field_name" : "l_name",
     "referenced_type" : "type-555"
    },
    {
     "field_name" : "l_time_stamp",
     "field_offset" : 32,
     "referenced_type" : "type-555"
    },
    {
     "field_name" : "l_checksum",
     "field_offset" : 64,
     "referenced_type" : "type-555"
    },
    {
     "field_name" : "l_version",
     "field_offset" : 96,
     "referenced_type" : "type-555"
    },
    {
     "field_name" : "l_flags",
     "field_offset" : 128,
     "referenced_type" : "type-555"
    }
   ],
   "linker_set_key" : "Elf32_Lib",
   "name" : "Elf32_Lib",
   "referenced_type" : "type-3201",
   "self_type" : "type-3201",
   "size" : 20,
   "source_file" : "/out/soong/ndk/sysroot/usr/include/elf.h",
   "unique_id" : "_ZTS9Elf32_Lib"
  },
  {
   "alignment" : 8,
   "fields" :
   [
    {
     "field_name" : "m_value",
     "referenced_type" : "type-600"
    },
    {
     "field_name" : "m_info",
     "field_offset" : 64,
     "referenced_type" : "type-555"
    },
    {
     "field_name" : "m_poffset",
     "field_offset" : 96,
     "referenced_type" : "type-555"
    },
    {
     "field_name" : "m_repeat",
     "field_offset" : 128,
     "referenced_type" : "type-77"
    },
    {
     "field_name" : "m_stride",
     "field_offset" : 144,
     "referenced_type" : "type-77"
    }
   ],
   "linker_set_key" : "Elf32_Move",
   "name" : "Elf32_Move",
   "referenced_type" : "type-3203",
   "self_type" : "type-3203",
   "size" : 24,
   "source_file" : "/out/soong/ndk/sysroot/usr/include/elf.h",
   "unique_id" : "_ZTS10Elf32_Move"
  },
  {
   "alignment" : 2,
   "fields" :
   [
    {
     "field_name" : "si_boundto",
     "referenced_type" : "type-77"
    },
    {
     "field_name" : "si_flags",
     "field_offset" : 16,
     "referenced_type" : "type-77"
    }
   ],
   "linker_set_key" : "Elf32_Syminfo",
   "name" : "Elf32_Syminfo",
   "referenced_type" : "type-3207",
   "self_type" : "type-3207",
   "size" : 4,
   "source_file" : "/out/soong/ndk/sysroot/usr/include/elf.h",
   "unique_id" : "_ZTS13Elf32_Syminfo"
  },
  {
   "alignment" : 4,
   "fields" :
   [
    {
     "field_name" : "vda_name",
     "referenced_type" : "type-555"
    },
    {
     "field_name" : "vda_next",
     "field_offset" : 32,
     "referenced_type" : "type-555"
    }
   ],
   "linker_set_key" : "Elf32_Verdaux",
   "name" : "Elf32_Verdaux",
   "referenced_type" : "type-3210",
   "self_type" : "type-3210",
   "size" : 8,
   "source_file" : "/out/soong/ndk/sysroot/usr/include/elf.h",
   "unique_id" : "_ZTS13Elf32_Verdaux"
  },
  {
   "alignment" : 4,
   "fields" :
   [
    {
     "field_name" : "vd_version",
     "referenced_type" : "type-77"
    },
    {
     "field_name" : "vd_flags",
     "field_offset" : 16,
     "referenced_type" : "type-77"
    },
    {
     "field_name" : "vd_ndx",
     "field_offset" : 32,
     "referenced_type" : "type-77"
    },
    {
     "field_name" : "vd_cnt",
     "field_offset" : 48,
     "referenced_type" : "type-77"
    },
    {
     "field_name" : "vd_hash",
     "field_offset" : 64,
     "referenced_type" : "type-555"
    },
    {
     "field_name" : "vd_aux",
     "field_offset" : 96,
     "referenced_type" : "type-555"
    },
    {
     "field_name" : "vd_next",
     "field_offset" : 128,
     "referenced_type" : "type-555"
    }
   ],
   "linker_set_key" : "Elf32_Verdef",
   "name" : "Elf32_Verdef",
   "referenced_type" : "type-3209",
   "self_type" : "type-3209",
   "size" : 20,
   "source_file" : "/out/soong/ndk/sysroot/usr/include/elf.h",
   "unique_id" : "_ZTS12Elf32_Verdef"
  },
  {
   "alignment" : 4,
   "fields" :
   [
    {
     "field_name" : "vna_hash",
     "referenced_type" : "type-555"
    },
    {
     "field_name" : "vna_flags",
     "field_offset" : 32,
     "referenced_type" : "type-77"
    },
    {
     "field_name" : "vna_other",
     "field_offset" : 48,
     "referenced_type" : "type-77"
    },
    {
     "field_name" : "vna_name",
     "field_offset" : 64,
     "referenced_type" : "type-555"
    },
    {
     "field_name" : "vna_next",
     "field_offset" : 96,
     "referenced_type" : "type-555"
    }
   ],
   "linker_set_key" : "Elf32_Vernaux",
   "name" : "Elf32_Vernaux",
   "referenced_type" : "type-3214",
   "self_type" : "type-3214",
   "size" : 16,
   "source_file" : "/out/soong/ndk/sysroot/usr/include/elf.h",
   "unique_id" : "_ZTS13Elf32_Vernaux"
  },
  {
   "alignment" : 4,
   "fields" :
   [
    {
     "field_name" : "vn_version",
     "referenced_type" : "type-77"
    },
    {
     "field_name" : "vn_cnt",
     "field_offset" : 16,
     "referenced_type" : "type-77"
    },
    {
     "field_name" : "vn_file",
     "field_offset" : 32,
     "referenced_type" : "type-555"
    },
    {
     "field_name" : "vn_aux",
     "field_offset" : 64,
     "referenced_type" : "type-555"
    },
    {
     "field_name" : "vn_next",
     "field_offset" : 96,
     "referenced_type" : "type-555"
    }
   ],
   "linker_set_key" : "Elf32_Verneed",
   "name" : "Elf32_Verneed",
   "referenced_type" : "type-3213",
   "self_type" : "type-3213",
   "size" : 16,
   "source_file" : "/out/soong/ndk/sysroot/usr/include/elf.h",
   "unique_id" : "_ZTS13Elf32_Verneed"
  },
  {
   "alignment" : 4,
   "fields" :
   [
    {
     "field_name" : "a_type",
     "referenced_type" : "type-555"
    },
    {
     "field_name" : "a_un",
     "field_offset" : 32,
     "referenced_type" : "type-3196"
    }
   ],
   "linker_set_key" : "Elf32_auxv_t",
   "name" : "Elf32_auxv_t",
   "referenced_type" : "type-3195",
   "self_type" : "type-3195",
   "size" : 8,
   "source_file" : "/out/soong/ndk/sysroot/usr/include/elf.h",
   "unique_id" : "_ZTS12Elf32_auxv_t"
  },
  {
   "alignment" : 4,
   "fields" :
   [
    {
     "field_name" : "a_val",
     "referenced_type" : "type-555"
    }
   ],
   "is_anonymous" : true,
   "linker_set_key" : "Elf32_auxv_t::(anonymous union at out/soong/ndk/sysroot/usr/include/elf.h:49:3) at out/soong/ndk/sysroot/usr/include/elf.h:49:3",
   "name" : "Elf32_auxv_t::(anonymous union at out/soong/ndk/sysroot/usr/include/elf.h:49:3) at out/soong/ndk/sysroot/usr/include/elf.h:49:3",
   "record_kind" : "union",
   "referenced_type" : "type-3196",
   "self_type" : "type-3196",
   "size" : 4,
   "source_file" : "/out/soong/ndk/sysroot/usr/include/elf.h",
   "unique_id" : "_ZTSN12Elf32_auxv_tUt_E"
  },
  {
   "alignment" : 8,
   "fields" :
   [
    {
     "field_name" : "ch_type",
     "referenced_type" : "type-555"
    },
    {
     "field_name" : "ch_reserved",
     "field_offset" : 32,
     "referenced_type" : "type-555"
    },
    {
     "field_name" : "ch_size",
     "field_offset" : 64,
     "referenced_type" : "type-600"
    },
    {
     "field_name" : "ch_addralign",
     "field_offset" : 128,
     "referenced_type" : "type-600"
    }
   ],
   "linker_set_key" : "Elf64_Chdr",
   "name" : "Elf64_Chdr",
   "referenced_type" : "type-3200",
   "self_type" : "type-3200",
   "size" : 24,
   "source_file" : "/out/soong/ndk/sysroot/usr/include/elf.h",
   "unique_id" : "_ZTS10Elf64_Chdr"
  },
  {
   "alignment" : 8,
   "fields" :
   [
    {
     "field_name" : "d_tag",
     "referenced_type" : "type-2"
    },
    {
     "field_name" : "d_un",
     "field_offset" : 64,
     "referenced_type" : "type-3180"
    }
   ],
   "linker_set_key" : "Elf64_Dyn",
   "name" : "Elf64_Dyn",
   "referenced_type" : "type-3179",
   "self_type" : "type-3179",
   "size" : 16,
   "source_file" : "/out/soong/ndk/sysroot/usr/include/linux/elf.h",
   "unique_id" : "_ZTS9Elf64_Dyn"
  },
  {
   "alignment" : 8,
   "fields" :
   [
    {
     "field_name" : "d_val",
     "referenced_type" : "type-600"
    },
    {
     "field_name" : "d_ptr",
     "referenced_type" : "type-600"
    }
   ],
   "is_anonymous" : true,
   "linker_set_key" : "Elf64_Dyn::(anonymous union at out/soong/ndk/sysroot/usr/include/linux/elf.h:126:3) at out/soong/ndk/sysroot/usr/include/linux/elf.h:126:3",
   "name" : "Elf64_Dyn::(anonymous union at out/soong/ndk/sysroot/usr/include/linux/elf.h:126:3) at out/soong/ndk/sysroot/usr/include/linux/elf.h:126:3",
   "record_kind" : "union",
   "referenced_type" : "type-3180",
   "self_type" : "type-3180",
   "size" : 8,
   "source_file" : "/out/soong/ndk/sysroot/usr/include/linux/elf.h",
   "unique_id" : "_ZTSN9Elf64_DynUt_E"
  },
  {
   "alignment" : 4,
   "fields" :
   [
    {
     "field_name" : "l_name",
     "referenced_type" : "type-555"
    },
    {
     "field_name" : "l_time_stamp",
     "field_offset" : 32,
     "referenced_type" : "type-555"
    },
    {
     "field_name" : "l_checksum",
     "field_offset" : 64,
     "referenced_type" : "type-555"
    },
    {
     "field_name" : "l_version",
     "field_offset" : 96,
     "referenced_type" : "type-555"
    },
    {
     "field_name" : "l_flags",
     "field_offset" : 128,
     "referenced_type" : "type-555"
    }
   ],
   "linker_set_key" : "Elf64_Lib",
   "name" : "Elf64_Lib",
   "referenced_type" : "type-3202",
   "self_type" : "type-3202",
   "size" : 20,
   "source_file" : "/out/soong/ndk/sysroot/usr/include/elf.h",
   "unique_id" : "_ZTS9Elf64_Lib"
  },
  {
   "alignment" : 8,
   "fields" :
   [
    {
     "field_name" : "m_value",
     "referenced_type" : "type-600"
    },
    {
     "field_name" : "m_info",
     "field_offset" : 64,
     "referenced_type" : "type-600"
    },
    {
     "field_name" : "m_poffset",
     "field_offset" : 128,
     "referenced_type" : "type-600"
    },
    {
     "field_name" : "m_repeat",
     "field_offset" : 192,
     "referenced_type" : "type-77"
    },
    {
     "field_name" : "m_stride",
     "field_offset" : 208,
     "referenced_type" : "type-77"
    }
   ],
   "linker_set_key" : "Elf64_Move",
   "name" : "Elf64_Move",
   "referenced_type" : "type-3204",
   "self_type" : "type-3204",
   "size" : 32,
   "source_file" : "/out/soong/ndk/sysroot/usr/include/elf.h",
   "unique_id" : "_ZTS10Elf64_Move"
  },
  {
   "alignment" : 2,
   "fields" :
   [
    {
     "field_name" : "si_boundto",
     "referenced_type" : "type-77"
    },
    {
     "field_name" : "si_flags",
     "field_offset" : 16,
     "referenced_type" : "type-77"
    }
   ],
   "linker_set_key" : "Elf64_Syminfo",
   "name" : "Elf64_Syminfo",
   "referenced_type" : "type-3208",
   "self_type" : "type-3208",
   "size" : 4,
   "source_file" : "/out/soong/ndk/sysroot/usr/include/elf.h",
   "unique_id" : "_ZTS13Elf64_Syminfo"
  },
  {
   "alignment" : 4,
   "fields" :
   [
    {
     "field_name" : "vda_name",
     "referenced_type" : "type-555"
    },
    {
     "field_name" : "vda_next",
     "field_offset" : 32,
     "referenced_type" : "type-555"
    }
   ],
   "linker_set_key" : "Elf64_Verdaux",
   "name" : "Elf64_Verdaux",
   "referenced_type" : "type-3212",
   "self_type" : "type-3212",
   "size" : 8,
   "source_file" : "/out/soong/ndk/sysroot/usr/include/elf.h",
   "unique_id" : "_ZTS13Elf64_Verdaux"
  },
  {
   "alignment" : 4,
   "fields" :
   [
    {
     "field_name" : "vd_version",
     "referenced_type" : "type-77"
    },
    {
     "field_name" : "vd_flags",
     "field_offset" : 16,
     "referenced_type" : "type-77"
    },
    {
     "field_name" : "vd_ndx",
     "field_offset" : 32,
     "referenced_type" : "type-77"
    },
    {
     "field_name" : "vd_cnt",
     "field_offset" : 48,
     "referenced_type" : "type-77"
    },
    {
     "field_name" : "vd_hash",
     "field_offset" : 64,
     "referenced_type" : "type-555"
    },
    {
     "field_name" : "vd_aux",
     "field_offset" : 96,
     "referenced_type" : "type-555"
    },
    {
     "field_name" : "vd_next",
     "field_offset" : 128,
     "referenced_type" : "type-555"
    }
   ],
   "linker_set_key" : "Elf64_Verdef",
   "name" : "Elf64_Verdef",
   "referenced_type" : "type-3211",
   "self_type" : "type-3211",
   "size" : 20,
   "source_file" : "/out/soong/ndk/sysroot/usr/include/elf.h",
   "unique_id" : "_ZTS12Elf64_Verdef"
  },
  {
   "alignment" : 4,
   "fields" :
   [
    {
     "field_name" : "vna_hash",
     "referenced_type" : "type-555"
    },
    {
     "field_name" : "vna_flags",
     "field_offset" : 32,
     "referenced_type" : "type-77"
    },
    {
     "field_name" : "vna_other",
     "field_offset" : 48,
     "referenced_type" : "type-77"
    },
    {
     "field_name" : "vna_name",
     "field_offset" : 64,
     "referenced_type" : "type-555"
    },
    {
     "field_name" : "vna_next",
     "field_offset" : 96,
     "referenced_type" : "type-555"
    }
   ],
   "linker_set_key" : "Elf64_Vernaux",
   "name" : "Elf64_Vernaux",
   "referenced_type" : "type-3216",
   "self_type" : "type-3216",
   "size" : 16,
   "source_file" : "/out/soong/ndk/sysroot/usr/include/elf.h",
   "unique_id" : "_ZTS13Elf64_Vernaux"
  },
  {
   "alignment" : 4,
   "fields" :
   [
    {
     "field_name" : "vn_version",
     "referenced_type" : "type-77"
    },
    {
     "field_name" : "vn_cnt",
     "field_offset" : 16,
     "referenced_type" : "type-77"
    },
    {
     "field_name" : "vn_file",
     "field_offset" : 32,
     "referenced_type" : "type-555"
    },
    {
     "field_name" : "vn_aux",
     "field_offset" : 64,
     "referenced_type" : "type-555"
    },
    {
     "field_name" : "vn_next",
     "field_offset" : 96,
     "referenced_type" : "type-555"
    }
   ],
   "linker_set_key" : "Elf64_Verneed",
   "name" : "Elf64_Verneed",
   "referenced_type" : "type-3215",
   "self_type" : "type-3215",
   "size" : 16,
   "source_file" : "/out/soong/ndk/sysroot/usr/include/elf.h",
   "unique_id" : "_ZTS13Elf64_Verneed"
  },
  {
   "alignment" : 8,
   "fields" :
   [
    {
     "field_name" : "a_type",
     "referenced_type" : "type-600"
    },
    {
     "field_name" : "a_un",
     "field_offset" : 64,
     "referenced_type" : "type-3198"
    }
   ],
   "linker_set_key" : "Elf64_auxv_t",
   "name" : "Elf64_auxv_t",
   "referenced_type" : "type-3197",
   "self_type" : "type-3197",
   "size" : 16,
   "source_file" : "/out/soong/ndk/sysroot/usr/include/elf.h",
   "unique_id" : "_ZTS12Elf64_auxv_t"
  },
  {
   "alignment" : 8,
   "fields" :
   [
    {
     "field_name" : "a_val",
     "referenced_type" : "type-600"
    }
   ],
   "is_anonymous" : true,
   "linker_set_key" : "Elf64_auxv_t::(anonymous union at out/soong/ndk/sysroot/usr/include/elf.h:56:3) at out/soong/ndk/sysroot/usr/include/elf.h:56:3",
