{
 "record_types":[
  {
   "vtable_components":[
    {
     "kind":"vbase_offset",
     "component_value":60
    },
    {
     "kind":"offset_to_top"
    },
    {
     "kind":"rtti",
     "mangled_component_name":"_ZTIN7android8hardware4wifi10supplicant4V1_028BsSupplicantStaIfaceCallbackE"
    },
    {
     "mangled_component_name":"_ZNK7android8hardware4wifi10supplicant4V1_027ISupplicantStaIfaceCallback8isRemoteEv"
    },
    {
     "mangled_component_name":"_ZN7android8hardware4wifi10supplicant4V1_028BsSupplicantStaIfaceCallback14interfaceChainENSt3__18functionIFvRKNS0_8hidl_vecINS0_11hidl_stringEEEEEE"
    },
    {
     "mangled_component_name":"_ZN7android8hardware4wifi10supplicant4V1_028BsSupplicantStaIfaceCallback5debugERKNS0_11hidl_handleERKNS0_8hidl_vecINS0_11hidl_stringEEE"
    },
    {
     "mangled_component_name":"_ZN7android8hardware4wifi10supplicant4V1_028BsSupplicantStaIfaceCallback19interfaceDescriptorENSt3__18functionIFvRKNS0_11hidl_stringEEEE"
    },
    {
     "mangled_component_name":"_ZN7android8hardware4wifi10supplicant4V1_028BsSupplicantStaIfaceCallback12getHashChainENSt3__18functionIFvRKNS0_8hidl_vecINS0_10hidl_arrayIhLj32EJEEEEEEEE"
    },
    {
     "mangled_component_name":"_ZN7android8hardware4wifi10supplicant4V1_028BsSupplicantStaIfaceCallback21setHALInstrumentationEv"
    },
    {
     "mangled_component_name":"_ZN7android8hardware4wifi10supplicant4V1_028BsSupplicantStaIfaceCallback11linkToDeathERKNS_2spINS0_20hidl_death_recipientEEEy"
    },
    {
     "mangled_component_name":"_ZN7android8hardware4wifi10supplicant4V1_028BsSupplicantStaIfaceCallback4pingEv"
    },
    {
     "mangled_component_name":"_ZN7android8hardware4wifi10supplicant4V1_028BsSupplicantStaIfaceCallback12getDebugInfoENSt3__18functionIFvRKNS_4hidl4base4V1_09DebugInfoEEEE"
    },
    {
     "mangled_component_name":"_ZN7android8hardware4wifi10supplicant4V1_028BsSupplicantStaIfaceCallback21notifySyspropsChangedEv"
    },
    {
     "mangled_component_name":"_ZN7android8hardware4wifi10supplicant4V1_028BsSupplicantStaIfaceCallback13unlinkToDeathERKNS_2spINS0_20hidl_death_recipientEEE"
    },
    {
     "kind":"complete_dtor_pointer",
     "mangled_component_name":"_ZN7android8hardware4wifi10supplicant4V1_028BsSupplicantStaIfaceCallbackD1Ev"
    },
    {
     "kind":"deleting_dtor_pointer",
     "mangled_component_name":"_ZN7android8hardware4wifi10supplicant4V1_028BsSupplicantStaIfaceCallbackD0Ev"
    },
    {
     "mangled_component_name":"_ZN7android8hardware4wifi10supplicant4V1_028BsSupplicantStaIfaceCallback14onNetworkAddedEj"
    },
    {
     "mangled_component_name":"_ZN7android8hardware4wifi10supplicant4V1_028BsSupplicantStaIfaceCallback16onNetworkRemovedEj"
    },
    {
     "mangled_component_name":"_ZN7android8hardware4wifi10supplicant4V1_028BsSupplicantStaIfaceCallback14onStateChangedENS3_27ISupplicantStaIfaceCallback5StateERKNS0_10hidl_arrayIhLj6EJEEEjRKNS0_8hidl_vecIhEE"
    },
    {
     "mangled_component_name":"_ZN7android8hardware4wifi10supplicant4V1_028BsSupplicantStaIfaceCallback15onAnqpQueryDoneERKNS0_10hidl_arrayIhLj6EJEEERKNS3_27ISupplicantStaIfaceCallback8AnqpDataERKNS9_12Hs20AnqpDataE"
    },
    {
     "mangled_component_name":"_ZN7android8hardware4wifi10supplicant4V1_028BsSupplicantStaIfaceCallback19onHs20IconQueryDoneERKNS0_10hidl_arrayIhLj6EJEEERKNS0_11hidl_stringERKNS0_8hidl_vecIhEE"
    },
    {
     "mangled_component_name":"_ZN7android8hardware4wifi10supplicant4V1_028BsSupplicantStaIfaceCallback29onHs20SubscriptionRemediationERKNS0_10hidl_arrayIhLj6EJEEENS3_27ISupplicantStaIfaceCallback9OsuMethodERKNS0_11hidl_stringE"
    },
    {
     "mangled_component_name":"_ZN7android8hardware4wifi10supplicant4V1_028BsSupplicantStaIfaceCallback26onHs20DeauthImminentNoticeERKNS0_10hidl_arrayIhLj6EJEEEjjRKNS0_11hidl_stringE"
    },
    {
     "mangled_component_name":"_ZN7android8hardware4wifi10supplicant4V1_028BsSupplicantStaIfaceCallback14onDisconnectedERKNS0_10hidl_arrayIhLj6EJEEEbNS3_27ISupplicantStaIfaceCallback10ReasonCodeE"
    },
    {
     "mangled_component_name":"_ZN7android8hardware4wifi10supplicant4V1_028BsSupplicantStaIfaceCallback21onAssociationRejectedERKNS0_10hidl_arrayIhLj6EJEEENS3_27ISupplicantStaIfaceCallback10StatusCodeEb"
    },
    {
     "mangled_component_name":"_ZN7android8hardware4wifi10supplicant4V1_028BsSupplicantStaIfaceCallback23onAuthenticationTimeoutERKNS0_10hidl_arrayIhLj6EJEEE"
    },
    {
     "mangled_component_name":"_ZN7android8hardware4wifi10supplicant4V1_028BsSupplicantStaIfaceCallback12onEapFailureEv"
    },
    {
     "mangled_component_name":"_ZN7android8hardware4wifi10supplicant4V1_028BsSupplicantStaIfaceCallback14onBssidChangedENS3_27ISupplicantStaIfaceCallback17BssidChangeReasonERKNS0_10hidl_arrayIhLj6EJEEE"
    },
    {
     "mangled_component_name":"_ZN7android8hardware4wifi10supplicant4V1_028BsSupplicantStaIfaceCallback17onWpsEventSuccessEv"
    },
    {
     "mangled_component_name":"_ZN7android8hardware4wifi10supplicant4V1_028BsSupplicantStaIfaceCallback14onWpsEventFailERKNS0_10hidl_arrayIhLj6EJEEENS3_27ISupplicantStaIfaceCallback14WpsConfigErrorENS9_18WpsErrorIndicationE"
    },
    {
     "mangled_component_name":"_ZN7android8hardware4wifi10supplicant4V1_028BsSupplicantStaIfaceCallback20onWpsEventPbcOverlapEv"
    },
    {
     "mangled_component_name":"_ZN7android8hardware4wifi10supplicant4V1_028BsSupplicantStaIfaceCallback19onExtRadioWorkStartEj"
    },
    {
     "mangled_component_name":"_ZN7android8hardware4wifi10supplicant4V1_028BsSupplicantStaIfaceCallback21onExtRadioWorkTimeoutEj"
    },
    {
     "kind":"offset_to_top",
     "component_value":-4
    },
    {
     "kind":"rtti",
     "mangled_component_name":"_ZTIN7android8hardware4wifi10supplicant4V1_028BsSupplicantStaIfaceCallbackE"
    },
    {
     "kind":"complete_dtor_pointer",
     "mangled_component_name":"_ZThn4_N7android8hardware4wifi10supplicant4V1_028BsSupplicantStaIfaceCallbackD1Ev"
    },
    {
     "kind":"deleting_dtor_pointer",
     "mangled_component_name":"_ZThn4_N7android8hardware4wifi10supplicant4V1_028BsSupplicantStaIfaceCallbackD0Ev"
    },
    {
     "kind":"vcall_offset"
    },
    {
     "kind":"vcall_offset"
    },
    {
     "kind":"vcall_offset"
    },
    {
     "kind":"vcall_offset"
    },
    {
     "kind":"vcall_offset",
     "component_value":-60
    },
    {
     "kind":"offset_to_top",
     "component_value":-60
    },
    {
     "kind":"rtti",
     "mangled_component_name":"_ZTIN7android8hardware4wifi10supplicant4V1_028BsSupplicantStaIfaceCallbackE"
    },
    {
     "kind":"complete_dtor_pointer",
     "mangled_component_name":"_ZTv0_n12_N7android8hardware4wifi10supplicant4V1_028BsSupplicantStaIfaceCallbackD1Ev"
    },
    {
     "kind":"deleting_dtor_pointer",
     "mangled_component_name":"_ZTv0_n12_N7android8hardware4wifi10supplicant4V1_028BsSupplicantStaIfaceCallbackD0Ev"
    },
    {
     "mangled_component_name":"_ZN7android7RefBase10onFirstRefEv"
    },
    {
     "mangled_component_name":"_ZN7android7RefBase15onLastStrongRefEPKv"
    },
    {
     "mangled_component_name":"_ZN7android7RefBase20onIncStrongAttemptedEjPKv"
    },
    {
     "mangled_component_name":"_ZN7android7RefBase13onLastWeakRefEPKv"
    }
   ],
   "unique_id":"_ZTSN7android8hardware4wifi10supplicant4V1_028BsSupplicantStaIfaceCallbackE"
  },
  {
   "vtable_components":[
    {
     "kind":"vbase_offset",
     "component_value":72
    },
    {
     "kind":"offset_to_top"
    },
    {
     "kind":"rtti",
     "mangled_component_name":"_ZTIN7android8hardware4wifi10supplicant4V1_024BnHwSupplicantStaNetworkE"
    },
    {
     "mangled_component_name":"_ZN7android8hardware9BHwBinder8transactEjRKNS0_6ParcelEPS2_jNSt3__18functionIFvRS2_EEE"
    },
    {
     "mangled_component_name":"_ZN7android8hardware9BHwBinder11linkToDeathERKNS_2spINS0_7IBinder14DeathRecipientEEEPvj"
    },
    {
     "mangled_component_name":"_ZN7android8hardware9BHwBinder13unlinkToDeathERKNS_2wpINS0_7IBinder14DeathRecipientEEEPvjPS5_"
    },
    {
     "mangled_component_name":"_ZNK7android8hardware7IBinder13checkSubclassEPKv"
    },
    {
     "mangled_component_name":"_ZN7android8hardware9BHwBinder12attachObjectEPKvPvS4_PFvS3_S4_S4_E"
    },
    {
     "mangled_component_name":"_ZNK7android8hardware9BHwBinder10findObjectEPKv"
    },
    {
     "mangled_component_name":"_ZN7android8hardware9BHwBinder12detachObjectEPKv"
    },
    {
     "mangled_component_name":"_ZN7android8hardware9BHwBinder11localBinderEv"
    },
    {
     "mangled_component_name":"_ZN7android8hardware7IBinder12remoteBinderEv"
    },
    {
     "kind":"complete_dtor_pointer",
     "mangled_component_name":"_ZN7android8hardware4wifi10supplicant4V1_024BnHwSupplicantStaNetworkD1Ev"
    },
    {
     "kind":"deleting_dtor_pointer",
     "mangled_component_name":"_ZN7android8hardware4wifi10supplicant4V1_024BnHwSupplicantStaNetworkD0Ev"
    },
    {
     "mangled_component_name":"_ZN7android8hardware4wifi10supplicant4V1_024BnHwSupplicantStaNetwork10onTransactEjRKNS0_6ParcelEPS5_jNSt3__18functionIFvRS5_EEE"
    },
    {
     "kind":"offset_to_top",
     "component_value":-20
    },
    {
     "kind":"rtti",
     "mangled_component_name":"_ZTIN7android8hardware4wifi10supplicant4V1_024BnHwSupplicantStaNetworkE"
    },
    {
     "kind":"complete_dtor_pointer",
     "mangled_component_name":"_ZThn20_N7android8hardware4wifi10supplicant4V1_024BnHwSupplicantStaNetworkD1Ev"
    },
    {
     "kind":"deleting_dtor_pointer",
     "mangled_component_name":"_ZThn20_N7android8hardware4wifi10supplicant4V1_024BnHwSupplicantStaNetworkD0Ev"
    },
    {
     "kind":"vcall_offset"
    },
    {
     "kind":"vcall_offset"
    },
    {
     "kind":"vcall_offset"
    },
    {
     "kind":"vcall_offset"
    },
    {
     "kind":"vcall_offset",
     "component_value":-72
    },
    {
     "kind":"offset_to_top",
     "component_value":-72
    },
    {
     "kind":"rtti",
     "mangled_component_name":"_ZTIN7android8hardware4wifi10supplicant4V1_024BnHwSupplicantStaNetworkE"
    },
    {
     "kind":"complete_dtor_pointer",
     "mangled_component_name":"_ZTv0_n12_N7android8hardware4wifi10supplicant4V1_024BnHwSupplicantStaNetworkD1Ev"
    },
    {
     "kind":"deleting_dtor_pointer",
     "mangled_component_name":"_ZTv0_n12_N7android8hardware4wifi10supplicant4V1_024BnHwSupplicantStaNetworkD0Ev"
    },
    {
     "mangled_component_name":"_ZN7android7RefBase10onFirstRefEv"
    },
    {
     "mangled_component_name":"_ZN7android7RefBase15onLastStrongRefEPKv"
    },
    {
     "mangled_component_name":"_ZN7android7RefBase20onIncStrongAttemptedEjPKv"
    },
    {
     "mangled_component_name":"_ZN7android7RefBase13onLastWeakRefEPKv"
    }
   ],
   "unique_id":"_ZTSN7android8hardware4wifi10supplicant4V1_024BnHwSupplicantStaNetworkE"
  },
  {
   "vtable_components":[
    {
     "kind":"vbase_offset",
     "component_value":4
    },
    {
     "kind":"offset_to_top"
    },
    {
     "kind":"rtti",
     "mangled_component_name":"_ZTIN7android8hardware4wifi10supplicant4V1_021ISupplicantStaNetworkE"
    },
    {
     "mangled_component_name":"_ZNK7android8hardware4wifi10supplicant4V1_021ISupplicantStaNetwork8isRemoteEv"
    },
    {
     "mangled_component_name":"_ZN7android8hardware4wifi10supplicant4V1_021ISupplicantStaNetwork14interfaceChainENSt3__18functionIFvRKNS0_8hidl_vecINS0_11hidl_stringEEEEEE"
    },
    {
     "mangled_component_name":"_ZN7android8hardware4wifi10supplicant4V1_021ISupplicantStaNetwork5debugERKNS0_11hidl_handleERKNS0_8hidl_vecINS0_11hidl_stringEEE"
    },
    {
     "mangled_component_name":"_ZN7android8hardware4wifi10supplicant4V1_021ISupplicantStaNetwork19interfaceDescriptorENSt3__18functionIFvRKNS0_11hidl_stringEEEE"
    },
    {
     "mangled_component_name":"_ZN7android8hardware4wifi10supplicant4V1_021ISupplicantStaNetwork12getHashChainENSt3__18functionIFvRKNS0_8hidl_vecINS0_10hidl_arrayIhLj32EJEEEEEEEE"
    },
    {
     "mangled_component_name":"_ZN7android8hardware4wifi10supplicant4V1_021ISupplicantStaNetwork21setHALInstrumentationEv"
    },
    {
     "mangled_component_name":"_ZN7android8hardware4wifi10supplicant4V1_021ISupplicantStaNetwork11linkToDeathERKNS_2spINS0_20hidl_death_recipientEEEy"
    },
    {
     "mangled_component_name":"_ZN7android8hardware4wifi10supplicant4V1_021ISupplicantStaNetwork4pingEv"
    },
    {
     "mangled_component_name":"_ZN7android8hardware4wifi10supplicant4V1_021ISupplicantStaNetwork12getDebugInfoENSt3__18functionIFvRKNS_4hidl4base4V1_09DebugInfoEEEE"
    },
    {
     "mangled_component_name":"_ZN7android8hardware4wifi10supplicant4V1_021ISupplicantStaNetwork21notifySyspropsChangedEv"
    },
    {
     "mangled_component_name":"_ZN7android8hardware4wifi10supplicant4V1_021ISupplicantStaNetwork13unlinkToDeathERKNS_2spINS0_20hidl_death_recipientEEE"
    },
    {
     "kind":"complete_dtor_pointer",
     "mangled_component_name":"_ZN7android8hardware4wifi10supplicant4V1_021ISupplicantStaNetworkD1Ev"
    },
    {
     "kind":"deleting_dtor_pointer",
     "mangled_component_name":"_ZN7android8hardware4wifi10supplicant4V1_021ISupplicantStaNetworkD0Ev"
    },
    {
     "is_pure":true,
     "mangled_component_name":"_ZN7android8hardware4wifi10supplicant4V1_021ISupplicantStaNetwork5getIdENSt3__18functionIFvRKNS3_16SupplicantStatusEjEEE"
    },
    {
     "is_pure":true,
     "mangled_component_name":"_ZN7android8hardware4wifi10supplicant4V1_021ISupplicantStaNetwork16getInterfaceNameENSt3__18functionIFvRKNS3_16SupplicantStatusERKNS0_11hidl_stringEEEE"
    },
    {
     "is_pure":true,
     "mangled_component_name":"_ZN7android8hardware4wifi10supplicant4V1_021ISupplicantStaNetwork7getTypeENSt3__18functionIFvRKNS3_16SupplicantStatusENS3_9IfaceTypeEEEE"
    },
    {
     "is_pure":true,
     "mangled_component_name":"_ZN7android8hardware4wifi10supplicant4V1_021ISupplicantStaNetwork16registerCallbackERKNS_2spINS3_29ISupplicantStaNetworkCallbackEEENSt3__18functionIFvRKNS3_16SupplicantStatusEEEE"
    },
    {
     "is_pure":true,
     "mangled_component_name":"_ZN7android8hardware4wifi10supplicant4V1_021ISupplicantStaNetwork7setSsidERKNS0_8hidl_vecIhEENSt3__18functionIFvRKNS3_16SupplicantStatusEEEE"
    },
    {
     "is_pure":true,
     "mangled_component_name":"_ZN7android8hardware4wifi10supplicant4V1_021ISupplicantStaNetwork8setBssidERKNS0_10hidl_arrayIhLj6EJEEENSt3__18functionIFvRKNS3_16SupplicantStatusEEEE"
    },
    {
     "is_pure":true,
     "mangled_component_name":"_ZN7android8hardware4wifi10supplicant4V1_021ISupplicantStaNetwork11setScanSsidEbNSt3__18functionIFvRKNS3_16SupplicantStatusEEEE"
    },
    {
     "is_pure":true,
     "mangled_component_name":"_ZN7android8hardware4wifi10supplicant4V1_021ISupplicantStaNetwork10setKeyMgmtEjNSt3__18functionIFvRKNS3_16SupplicantStatusEEEE"
    },
    {
     "is_pure":true,
     "mangled_component_name":"_ZN7android8hardware4wifi10supplicant4V1_021ISupplicantStaNetwork8setProtoEjNSt3__18functionIFvRKNS3_16SupplicantStatusEEEE"
    },
    {
     "is_pure":true,
     "mangled_component_name":"_ZN7android8hardware4wifi10supplicant4V1_021ISupplicantStaNetwork10setAuthAlgEjNSt3__18functionIFvRKNS3_16SupplicantStatusEEEE"
    },
    {
     "is_pure":true,
     "mangled_component_name":"_ZN7android8hardware4wifi10supplicant4V1_021ISupplicantStaNetwork14setGroupCipherEjNSt3__18functionIFvRKNS3_16SupplicantStatusEEEE"
    },
    {
     "is_pure":true,
     "mangled_component_name":"_ZN7android8hardware4wifi10supplicant4V1_021ISupplicantStaNetwork17setPairwiseCipherEjNSt3__18functionIFvRKNS3_16SupplicantStatusEEEE"
    },
    {
     "is_pure":true,
     "mangled_component_name":"_ZN7android8hardware4wifi10supplicant4V1_021ISupplicantStaNetwork16setPskPassphraseERKNS0_11hidl_stringENSt3__18functionIFvRKNS3_16SupplicantStatusEEEE"
    },
    {
     "is_pure":true,
     "mangled_component_name":"_ZN7android8hardware4wifi10supplicant4V1_021ISupplicantStaNetwork6setPskERKNS0_10hidl_arrayIhLj32EJEEENSt3__18functionIFvRKNS3_16SupplicantStatusEEEE"
    },
    {
     "is_pure":true,
     "mangled_component_name":"_ZN7android8hardware4wifi10supplicant4V1_021ISupplicantStaNetwork9setWepKeyEjRKNS0_8hidl_vecIhEENSt3__18functionIFvRKNS3_16SupplicantStatusEEEE"
    },
    {
     "is_pure":true,
     "mangled_component_name":"_ZN7android8hardware4wifi10supplicant4V1_021ISupplicantStaNetwork14setWepTxKeyIdxEjNSt3__18functionIFvRKNS3_16SupplicantStatusEEEE"
    },
    {
     "is_pure":true,
     "mangled_component_name":"_ZN7android8hardware4wifi10supplicant4V1_021ISupplicantStaNetwork13setRequirePmfEbNSt3__18functionIFvRKNS3_16SupplicantStatusEEEE"
    },
    {
     "is_pure":true,
     "mangled_component_name":"_ZN7android8hardware4wifi10supplicant4V1_021ISupplicantStaNetwork12setEapMethodENS4_9EapMethodENSt3__18functionIFvRKNS3_16SupplicantStatusEEEE"
    },
    {
     "is_pure":true,
     "mangled_component_name":"_ZN7android8hardware4wifi10supplicant4V1_021ISupplicantStaNetwork18setEapPhase2MethodENS4_15EapPhase2MethodENSt3__18functionIFvRKNS3_16SupplicantStatusEEEE"
    },
    {
     "is_pure":true,
     "mangled_component_name":"_ZN7android8hardware4wifi10supplicant4V1_021ISupplicantStaNetwork14setEapIdentityERKNS0_8hidl_vecIhEENSt3__18functionIFvRKNS3_16SupplicantStatusEEEE"
    },
    {
     "is_pure":true,
     "mangled_component_name":"_ZN7android8hardware4wifi10supplicant4V1_021ISupplicantStaNetwork23setEapAnonymousIdentityERKNS0_8hidl_vecIhEENSt3__18functionIFvRKNS3_16SupplicantStatusEEEE"
    },
    {
     "is_pure":true,
     "mangled_component_name":"_ZN7android8hardware4wifi10supplicant4V1_021ISupplicantStaNetwork14setEapPasswordERKNS0_8hidl_vecIhEENSt3__18functionIFvRKNS3_16SupplicantStatusEEEE"
    },
    {
     "is_pure":true,
     "mangled_component_name":"_ZN7android8hardware4wifi10supplicant4V1_021ISupplicantStaNetwork12setEapCACertERKNS0_11hidl_stringENSt3__18functionIFvRKNS3_16SupplicantStatusEEEE"
    },
    {
     "is_pure":true,
     "mangled_component_name":"_ZN7android8hardware4wifi10supplicant4V1_021ISupplicantStaNetwork12setEapCAPathERKNS0_11hidl_stringENSt3__18functionIFvRKNS3_16SupplicantStatusEEEE"
    },
    {
     "is_pure":true,
     "mangled_component_name":"_ZN7android8hardware4wifi10supplicant4V1_021ISupplicantStaNetwork16setEapClientCertERKNS0_11hidl_stringENSt3__18functionIFvRKNS3_16SupplicantStatusEEEE"
    },
    {
     "is_pure":true,
     "mangled_component_name":"_ZN7android8hardware4wifi10supplicant4V1_021ISupplicantStaNetwork18setEapPrivateKeyIdERKNS0_11hidl_stringENSt3__18functionIFvRKNS3_16SupplicantStatusEEEE"
    },
    {
     "is_pure":true,
     "mangled_component_name":"_ZN7android8hardware4wifi10supplicant4V1_021ISupplicantStaNetwork18setEapSubjectMatchERKNS0_11hidl_stringENSt3__18functionIFvRKNS3_16SupplicantStatusEEEE"
    },
    {
     "is_pure":true,
     "mangled_component_name":"_ZN7android8hardware4wifi10supplicant4V1_021ISupplicantStaNetwork21setEapAltSubjectMatchERKNS0_11hidl_stringENSt3__18functionIFvRKNS3_16SupplicantStatusEEEE"
    },
    {
     "is_pure":true,
     "mangled_component_name":"_ZN7android8hardware4wifi10supplicant4V1_021ISupplicantStaNetwork12setEapEngineEbNSt3__18functionIFvRKNS3_16SupplicantStatusEEEE"
    },
    {
     "is_pure":true,
     "mangled_component_name":"_ZN7android8hardware4wifi10supplicant4V1_021ISupplicantStaNetwork14setEapEngineIDERKNS0_11hidl_stringENSt3__18functionIFvRKNS3_16SupplicantStatusEEEE"
    },
    {
     "is_pure":true,
     "mangled_component_name":"_ZN7android8hardware4wifi10supplicant4V1_021ISupplicantStaNetwork23setEapDomainSuffixMatchERKNS0_11hidl_stringENSt3__18functionIFvRKNS3_16SupplicantStatusEEEE"
    },
    {
     "is_pure":true,
     "mangled_component_name":"_ZN7android8hardware4wifi10supplicant4V1_021ISupplicantStaNetwork22setProactiveKeyCachingEbNSt3__18functionIFvRKNS3_16SupplicantStatusEEEE"
    },
    {
     "is_pure":true,
     "mangled_component_name":"_ZN7android8hardware4wifi10supplicant4V1_021ISupplicantStaNetwork8setIdStrERKNS0_11hidl_stringENSt3__18functionIFvRKNS3_16SupplicantStatusEEEE"
    },
    {
     "is_pure":true,
     "mangled_component_name":"_ZN7android8hardware4wifi10supplicant4V1_021ISupplicantStaNetwork19setUpdateIdentifierEjNSt3__18functionIFvRKNS3_16SupplicantStatusEEEE"
    },
    {
     "is_pure":true,
     "mangled_component_name":"_ZN7android8hardware4wifi10supplicant4V1_021ISupplicantStaNetwork7getSsidENSt3__18functionIFvRKNS3_16SupplicantStatusERKNS0_8hidl_vecIhEEEEE"
    },
    {
     "is_pure":true,
     "mangled_component_name":"_ZN7android8hardware4wifi10supplicant4V1_021ISupplicantStaNetwork8getBssidENSt3__18functionIFvRKNS3_16SupplicantStatusERKNS0_10hidl_arrayIhLj6EJEEEEEE"
    },
    {
     "is_pure":true,
     "mangled_component_name":"_ZN7android8hardware4wifi10supplicant4V1_021ISupplicantStaNetwork11getScanSsidENSt3__18functionIFvRKNS3_16SupplicantStatusEbEEE"
    },
    {
     "is_pure":true,
     "mangled_component_name":"_ZN7android8hardware4wifi10supplicant4V1_021ISupplicantStaNetwork10getKeyMgmtENSt3__18functionIFvRKNS3_16SupplicantStatusEjEEE"
    },
    {
     "is_pure":true,
     "mangled_component_name":"_ZN7android8hardware4wifi10supplicant4V1_021ISupplicantStaNetwork8getProtoENSt3__18functionIFvRKNS3_16SupplicantStatusEjEEE"
    },
    {
     "is_pure":true,
     "mangled_component_name":"_ZN7android8hardware4wifi10supplicant4V1_021ISupplicantStaNetwork10getAuthAlgENSt3__18functionIFvRKNS3_16SupplicantStatusEjEEE"
    },
    {
     "is_pure":true,
     "mangled_component_name":"_ZN7android8hardware4wifi10supplicant4V1_021ISupplicantStaNetwork14getGroupCipherENSt3__18functionIFvRKNS3_16SupplicantStatusEjEEE"
    },
    {
     "is_pure":true,
     "mangled_component_name":"_ZN7android8hardware4wifi10supplicant4V1_021ISupplicantStaNetwork17getPairwiseCipherENSt3__18functionIFvRKNS3_16SupplicantStatusEjEEE"
    },
    {
     "is_pure":true,
     "mangled_component_name":"_ZN7android8hardware4wifi10supplicant4V1_021ISupplicantStaNetwork16getPskPassphraseENSt3__18functionIFvRKNS3_16SupplicantStatusERKNS0_11hidl_stringEEEE"
    },
    {
     "is_pure":true,
     "mangled_component_name":"_ZN7android8hardware4wifi10supplicant4V1_021ISupplicantStaNetwork6getPskENSt3__18functionIFvRKNS3_16SupplicantStatusERKNS0_10hidl_arrayIhLj32EJEEEEEE"
    },
    {
     "is_pure":true,
     "mangled_component_name":"_ZN7android8hardware4wifi10supplicant4V1_021ISupplicantStaNetwork9getWepKeyEjNSt3__18functionIFvRKNS3_16SupplicantStatusERKNS0_8hidl_vecIhEEEEE"
    },
    {
     "is_pure":true,
     "mangled_component_name":"_ZN7android8hardware4wifi10supplicant4V1_021ISupplicantStaNetwork14getWepTxKeyIdxENSt3__18functionIFvRKNS3_16SupplicantStatusEjEEE"
    },
    {
     "is_pure":true,
     "mangled_component_name":"_ZN7android8hardware4wifi10supplicant4V1_021ISupplicantStaNetwork13getRequirePmfENSt3__18functionIFvRKNS3_16SupplicantStatusEbEEE"
    },
    {
     "is_pure":true,
     "mangled_component_name":"_ZN7android8hardware4wifi10supplicant4V1_021ISupplicantStaNetwork12getEapMethodENSt3__18functionIFvRKNS3_16SupplicantStatusENS4_9EapMethodEEEE"
    },
    {
     "is_pure":true,
     "mangled_component_name":"_ZN7android8hardware4wifi10supplicant4V1_021ISupplicantStaNetwork18getEapPhase2MethodENSt3__18functionIFvRKNS3_16SupplicantStatusENS4_15EapPhase2MethodEEEE"
    },
    {
     "is_pure":true,
     "mangled_component_name":"_ZN7android8hardware4wifi10supplicant4V1_021ISupplicantStaNetwork14getEapIdentityENSt3__18functionIFvRKNS3_16SupplicantStatusERKNS0_8hidl_vecIhEEEEE"
    },
    {
     "is_pure":true,
     "mangled_component_name":"_ZN7android8hardware4wifi10supplicant4V1_021ISupplicantStaNetwork23getEapAnonymousIdentityENSt3__18functionIFvRKNS3_16SupplicantStatusERKNS0_8hidl_vecIhEEEEE"
    },
    {
     "is_pure":true,
     "mangled_component_name":"_ZN7android8hardware4wifi10supplicant4V1_021ISupplicantStaNetwork14getEapPasswordENSt3__18functionIFvRKNS3_16SupplicantStatusERKNS0_8hidl_vecIhEEEEE"
    },
    {
     "is_pure":true,
     "mangled_component_name":"_ZN7android8hardware4wifi10supplicant4V1_021ISupplicantStaNetwork12getEapCACertENSt3__18functionIFvRKNS3_16SupplicantStatusERKNS0_11hidl_stringEEEE"
    },
    {
     "is_pure":true,
     "mangled_component_name":"_ZN7android8hardware4wifi10supplicant4V1_021ISupplicantStaNetwork12getEapCAPathENSt3__18functionIFvRKNS3_16SupplicantStatusERKNS0_11hidl_stringEEEE"
    },
    {
     "is_pure":true,
     "mangled_component_name":"_ZN7android8hardware4wifi10supplicant4V1_021ISupplicantStaNetwork16getEapClientCertENSt3__18functionIFvRKNS3_16SupplicantStatusERKNS0_11hidl_stringEEEE"
    },
    {
     "is_pure":true,
     "mangled_component_name":"_ZN7android8hardware4wifi10supplicant4V1_021ISupplicantStaNetwork18getEapPrivateKeyIdENSt3__18functionIFvRKNS3_16SupplicantStatusERKNS0_11hidl_stringEEEE"
    },
    {
     "is_pure":true,
     "mangled_component_name":"_ZN7android8hardware4wifi10supplicant4V1_021ISupplicantStaNetwork18getEapSubjectMatchENSt3__18functionIFvRKNS3_16SupplicantStatusERKNS0_11hidl_stringEEEE"
    },
    {
     "is_pure":true,
     "mangled_component_name":"_ZN7android8hardware4wifi10supplicant4V1_021ISupplicantStaNetwork21getEapAltSubjectMatchENSt3__18functionIFvRKNS3_16SupplicantStatusERKNS0_11hidl_stringEEEE"
    },
    {
     "is_pure":true,
     "mangled_component_name":"_ZN7android8hardware4wifi10supplicant4V1_021ISupplicantStaNetwork12getEapEngineENSt3__18functionIFvRKNS3_16SupplicantStatusEbEEE"
    },
    {
     "is_pure":true,
     "mangled_component_name":"_ZN7android8hardware4wifi10supplicant4V1_021ISupplicantStaNetwork14getEapEngineIDENSt3__18functionIFvRKNS3_16SupplicantStatusERKNS0_11hidl_stringEEEE"
    },
    {
     "is_pure":true,
     "mangled_component_name":"_ZN7android8hardware4wifi10supplicant4V1_021ISupplicantStaNetwork23getEapDomainSuffixMatchENSt3__18functionIFvRKNS3_16SupplicantStatusERKNS0_11hidl_stringEEEE"
    },
    {
     "is_pure":true,
     "mangled_component_name":"_ZN7android8hardware4wifi10supplicant4V1_021ISupplicantStaNetwork8getIdStrENSt3__18functionIFvRKNS3_16SupplicantStatusERKNS0_11hidl_stringEEEE"
    },
    {
     "is_pure":true,
     "mangled_component_name":"_ZN7android8hardware4wifi10supplicant4V1_021ISupplicantStaNetwork27getWpsNfcConfigurationTokenENSt3__18functionIFvRKNS3_16SupplicantStatusERKNS0_8hidl_vecIhEEEEE"
    },
    {
     "is_pure":true,
     "mangled_component_name":"_ZN7android8hardware4wifi10supplicant4V1_021ISupplicantStaNetwork6enableEbNSt3__18functionIFvRKNS3_16SupplicantStatusEEEE"
    },
    {
     "is_pure":true,
     "mangled_component_name":"_ZN7android8hardware4wifi10supplicant4V1_021ISupplicantStaNetwork7disableENSt3__18functionIFvRKNS3_16SupplicantStatusEEEE"
    },
    {
     "is_pure":true,
     "mangled_component_name":"_ZN7android8hardware4wifi10supplicant4V1_021ISupplicantStaNetwork6selectENSt3__18functionIFvRKNS3_16SupplicantStatusEEEE"
    },
    {
     "is_pure":true,
     "mangled_component_name":"_ZN7android8hardware4wifi10supplicant4V1_021ISupplicantStaNetwork32sendNetworkEapSimGsmAuthResponseERKNS0_8hidl_vecINS4_34NetworkResponseEapSimGsmAuthParamsEEENSt3__18functionIFvRKNS3_16SupplicantStatusEEEE"
    },
    {
     "is_pure":true,
     "mangled_component_name":"_ZN7android8hardware4wifi10supplicant4V1_021ISupplicantStaNetwork31sendNetworkEapSimGsmAuthFailureENSt3__18functionIFvRKNS3_16SupplicantStatusEEEE"
    },
    {
     "is_pure":true,
     "mangled_component_name":"_ZN7android8hardware4wifi10supplicant4V1_021ISupplicantStaNetwork33sendNetworkEapSimUmtsAuthResponseERKNS4_35NetworkResponseEapSimUmtsAuthParamsENSt3__18functionIFvRKNS3_16SupplicantStatusEEEE"
    },
    {
     "is_pure":true,
     "mangled_component_name":"_ZN7android8hardware4wifi10supplicant4V1_021ISupplicantStaNetwork33sendNetworkEapSimUmtsAutsResponseERKNS0_10hidl_arrayIhLj14EJEEENSt3__18functionIFvRKNS3_16SupplicantStatusEEEE"
    },
    {
     "is_pure":true,
     "mangled_component_name":"_ZN7android8hardware4wifi10supplicant4V1_021ISupplicantStaNetwork32sendNetworkEapSimUmtsAuthFailureENSt3__18functionIFvRKNS3_16SupplicantStatusEEEE"
    },
    {
     "is_pure":true,
     "mangled_component_name":"_ZN7android8hardware4wifi10supplicant4V1_021ISupplicantStaNetwork30sendNetworkEapIdentityResponseERKNS0_8hidl_vecIhEENSt3__18functionIFvRKNS3_16SupplicantStatusEEEE"
    },
    {
     "kind":"vcall_offset"
    },
    {
     "kind":"vcall_offset"
    },
    {
     "kind":"vcall_offset"
    },
    {
     "kind":"vcall_offset"
    },
    {
     "kind":"vcall_offset",
     "component_value":-4
    },
    {
     "kind":"offset_to_top",
     "component_value":-4
    },
    {
     "kind":"rtti",
     "mangled_component_name":"_ZTIN7android8hardware4wifi10supplicant4V1_021ISupplicantStaNetworkE"
    },
    {
     "kind":"complete_dtor_pointer",
     "mangled_component_name":"_ZTv0_n12_N7android8hardware4wifi10supplicant4V1_021ISupplicantStaNetworkD1Ev"
    },
    {
     "kind":"deleting_dtor_pointer",
     "mangled_component_name":"_ZTv0_n12_N7android8hardware4wifi10supplicant4V1_021ISupplicantStaNetworkD0Ev"
    },
    {
     "mangled_component_name":"_ZN7android7RefBase10onFirstRefEv"
    },
    {
     "mangled_component_name":"_ZN7android7RefBase15onLastStrongRefEPKv"
    },
    {
     "mangled_component_name":"_ZN7android7RefBase20onIncStrongAttemptedEjPKv"
    },
    {
     "mangled_component_name":"_ZN7android7RefBase13onLastWeakRefEPKv"
    }
   ],
   "unique_id":"_ZTSN7android8hardware4wifi10supplicant4V1_021ISupplicantStaNetworkE"
  },
  {
   "vtable_components":[
    {
     "kind":"vbase_offset",
     "component_value":4
    },
    {
     "kind":"offset_to_top"
    },
    {
     "kind":"rtti",
     "mangled_component_name":"_ZTIN7android8hardware4wifi10supplicant4V1_029ISupplicantStaNetworkCallbackE"
    },
    {
     "mangled_component_name":"_ZNK7android8hardware4wifi10supplicant4V1_029ISupplicantStaNetworkCallback8isRemoteEv"
    },
    {
     "mangled_component_name":"_ZN7android8hardware4wifi10supplicant4V1_029ISupplicantStaNetworkCallback14interfaceChainENSt3__18functionIFvRKNS0_8hidl_vecINS0_11hidl_stringEEEEEE"
    },
    {
     "mangled_component_name":"_ZN7android8hardware4wifi10supplicant4V1_029ISupplicantStaNetworkCallback5debugERKNS0_11hidl_handleERKNS0_8hidl_vecINS0_11hidl_stringEEE"
    },
    {
     "mangled_component_name":"_ZN7android8hardware4wifi10supplicant4V1_029ISupplicantStaNetworkCallback19interfaceDescriptorENSt3__18functionIFvRKNS0_11hidl_stringEEEE"
    },
    {
     "mangled_component_name":"_ZN7android8hardware4wifi10supplicant4V1_029ISupplicantStaNetworkCallback12getHashChainENSt3__18functionIFvRKNS0_8hidl_vecINS0_10hidl_arrayIhLj32EJEEEEEEEE"
    },
    {
     "mangled_component_name":"_ZN7android8hardware4wifi10supplicant4V1_029ISupplicantStaNetworkCallback21setHALInstrumentationEv"
    },
    {
     "mangled_component_name":"_ZN7android8hardware4wifi10supplicant4V1_029ISupplicantStaNetworkCallback11linkToDeathERKNS_2spINS0_20hidl_death_recipientEEEy"
    },
    {
     "mangled_component_name":"_ZN7android8hardware4wifi10supplicant4V1_029ISupplicantStaNetworkCallback4pingEv"
    },
    {
     "mangled_component_name":"_ZN7android8hardware4wifi10supplicant4V1_029ISupplicantStaNetworkCallback12getDebugInfoENSt3__18functionIFvRKNS_4hidl4base4V1_09DebugInfoEEEE"
    },
    {
     "mangled_component_name":"_ZN7android8hardware4wifi10supplicant4V1_029ISupplicantStaNetworkCallback21notifySyspropsChangedEv"
    },
    {
     "mangled_component_name":"_ZN7android8hardware4wifi10supplicant4V1_029ISupplicantStaNetworkCallback13unlinkToDeathERKNS_2spINS0_20hidl_death_recipientEEE"
    },
    {
     "kind":"complete_dtor_pointer",
     "mangled_component_name":"_ZN7android8hardware4wifi10supplicant4V1_029ISupplicantStaNetworkCallbackD1Ev"
    },
    {
     "kind":"deleting_dtor_pointer",
     "mangled_component_name":"_ZN7android8hardware4wifi10supplicant4V1_029ISupplicantStaNetworkCallbackD0Ev"
    },
    {
     "is_pure":true,
     "mangled_component_name":"_ZN7android8hardware4wifi10supplicant4V1_029ISupplicantStaNetworkCallback29onNetworkEapSimGsmAuthRequestERKNS4_33NetworkRequestEapSimGsmAuthParamsE"
    },
    {
     "is_pure":true,
     "mangled_component_name":"_ZN7android8hardware4wifi10supplicant4V1_029ISupplicantStaNetworkCallback30onNetworkEapSimUmtsAuthRequestERKNS4_34NetworkRequestEapSimUmtsAuthParamsE"
    },
    {
     "is_pure":true,
     "mangled_component_name":"_ZN7android8hardware4wifi10supplicant4V1_029ISupplicantStaNetworkCallback27onNetworkEapIdentityRequestEv"
    },
    {
     "kind":"vcall_offset"
    },
    {
     "kind":"vcall_offset"
    },
    {
     "kind":"vcall_offset"
    },
    {
     "kind":"vcall_offset"
    },
    {
     "kind":"vcall_offset",
     "component_value":-4
    },
    {
     "kind":"offset_to_top",
     "component_value":-4
    },
    {
     "kind":"rtti",
     "mangled_component_name":"_ZTIN7android8hardware4wifi10supplicant4V1_029ISupplicantStaNetworkCallbackE"
    },
    {
     "kind":"complete_dtor_pointer",
     "mangled_component_name":"_ZTv0_n12_N7android8hardware4wifi10supplicant4V1_029ISupplicantStaNetworkCallbackD1Ev"
    },
    {
     "kind":"deleting_dtor_pointer",
     "mangled_component_name":"_ZTv0_n12_N7android8hardware4wifi10supplicant4V1_029ISupplicantStaNetworkCallbackD0Ev"
    },
    {
     "mangled_component_name":"_ZN7android7RefBase10onFirstRefEv"
    },
    {
     "mangled_component_name":"_ZN7android7RefBase15onLastStrongRefEPKv"
    },
    {
     "mangled_component_name":"_ZN7android7RefBase20onIncStrongAttemptedEjPKv"
    },
    {
     "mangled_component_name":"_ZN7android7RefBase13onLastWeakRefEPKv"
    }
   ],
   "unique_id":"_ZTSN7android8hardware4wifi10supplicant4V1_029ISupplicantStaNetworkCallbackE"
  },
  {
   "vtable_components":[
    {
     "kind":"vbase_offset",
     "component_value":60
    },
    {
     "kind":"offset_to_top"
    },
    {
     "kind":"rtti",
     "mangled_component_name":"_ZTIN7android8hardware4wifi10supplicant4V1_022BsSupplicantStaNetworkE"
    },
    {
     "mangled_component_name":"_ZNK7android8hardware4wifi10supplicant4V1_021ISupplicantStaNetwork8isRemoteEv"
    },
    {
     "mangled_component_name":"_ZN7android8hardware4wifi10supplicant4V1_022BsSupplicantStaNetwork14interfaceChainENSt3__18functionIFvRKNS0_8hidl_vecINS0_11hidl_stringEEEEEE"
    },
    {
     "mangled_component_name":"_ZN7android8hardware4wifi10supplicant4V1_022BsSupplicantStaNetwork5debugERKNS0_11hidl_handleERKNS0_8hidl_vecINS0_11hidl_stringEEE"
    },
    {
     "mangled_component_name":"_ZN7android8hardware4wifi10supplicant4V1_022BsSupplicantStaNetwork19interfaceDescriptorENSt3__18functionIFvRKNS0_11hidl_stringEEEE"
    },
    {
     "mangled_component_name":"_ZN7android8hardware4wifi10supplicant4V1_022BsSupplicantStaNetwork12getHashChainENSt3__18functionIFvRKNS0_8hidl_vecINS0_10hidl_arrayIhLj32EJEEEEEEEE"
    },
    {
     "mangled_component_name":"_ZN7android8hardware4wifi10supplicant4V1_022BsSupplicantStaNetwork21setHALInstrumentationEv"
    },
    {
     "mangled_component_name":"_ZN7android8hardware4wifi10supplicant4V1_022BsSupplicantStaNetwork11linkToDeathERKNS_2spINS0_20hidl_death_recipientEEEy"
    },
    {
     "mangled_component_name":"_ZN7android8hardware4wifi10supplicant4V1_022BsSupplicantStaNetwork4pingEv"
    },
    {
     "mangled_component_name":"_ZN7android8hardware4wifi10supplicant4V1_022BsSupplicantStaNetwork12getDebugInfoENSt3__18functionIFvRKNS_4hidl4base4V1_09DebugInfoEEEE"
    },
    {
     "mangled_component_name":"_ZN7android8hardware4wifi10supplicant4V1_022BsSupplicantStaNetwork21notifySyspropsChangedEv"
    },
    {
     "mangled_component_name":"_ZN7android8hardware4wifi10supplicant4V1_022BsSupplicantStaNetwork13unlinkToDeathERKNS_2spINS0_20hidl_death_recipientEEE"
    },
    {
     "kind":"complete_dtor_pointer",
     "mangled_component_name":"_ZN7android8hardware4wifi10supplicant4V1_022BsSupplicantStaNetworkD1Ev"
    },
    {
     "kind":"deleting_dtor_pointer",
     "mangled_component_name":"_ZN7android8hardware4wifi10supplicant4V1_022BsSupplicantStaNetworkD0Ev"
    },
    {
     "mangled_component_name":"_ZN7android8hardware4wifi10supplicant4V1_022BsSupplicantStaNetwork5getIdENSt3__18functionIFvRKNS3_16SupplicantStatusEjEEE"
    },
    {
     "mangled_component_name":"_ZN7android8hardware4wifi10supplicant4V1_022BsSupplicantStaNetwork16getInterfaceNameENSt3__18functionIFvRKNS3_16SupplicantStatusERKNS0_11hidl_stringEEEE"
    },
    {
     "mangled_component_name":"_ZN7android8hardware4wifi10supplicant4V1_022BsSupplicantStaNetwork7getTypeENSt3__18functionIFvRKNS3_16SupplicantStatusENS3_9IfaceTypeEEEE"
    },
    {
     "mangled_component_name":"_ZN7android8hardware4wifi10supplicant4V1_022BsSupplicantStaNetwork16registerCallbackERKNS_2spINS3_29ISupplicantStaNetworkCallbackEEENSt3__18functionIFvRKNS3_16SupplicantStatusEEEE"
    },
    {
     "mangled_component_name":"_ZN7android8hardware4wifi10supplicant4V1_022BsSupplicantStaNetwork7setSsidERKNS0_8hidl_vecIhEENSt3__18functionIFvRKNS3_16SupplicantStatusEEEE"
    },
    {
     "mangled_component_name":"_ZN7android8hardware4wifi10supplicant4V1_022BsSupplicantStaNetwork8setBssidERKNS0_10hidl_arrayIhLj6EJEEENSt3__18functionIFvRKNS3_16SupplicantStatusEEEE"
    },
    {
     "mangled_component_name":"_ZN7android8hardware4wifi10supplicant4V1_022BsSupplicantStaNetwork11setScanSsidEbNSt3__18functionIFvRKNS3_16SupplicantStatusEEEE"
    },
    {
     "mangled_component_name":"_ZN7android8hardware4wifi10supplicant4V1_022BsSupplicantStaNetwork10setKeyMgmtEjNSt3__18functionIFvRKNS3_16SupplicantStatusEEEE"
    },
    {
     "mangled_component_name":"_ZN7android8hardware4wifi10supplicant4V1_022BsSupplicantStaNetwork8setProtoEjNSt3__18functionIFvRKNS3_16SupplicantStatusEEEE"
    },
    {
     "mangled_component_name":"_ZN7android8hardware4wifi10supplicant4V1_022BsSupplicantStaNetwork10setAuthAlgEjNSt3__18functionIFvRKNS3_16SupplicantStatusEEEE"
    },
    {
     "mangled_component_name":"_ZN7android8hardware4wifi10supplicant4V1_022BsSupplicantStaNetwork14setGroupCipherEjNSt3__18functionIFvRKNS3_16SupplicantStatusEEEE"
    },
    {
     "mangled_component_name":"_ZN7android8hardware4wifi10supplicant4V1_022BsSupplicantStaNetwork17setPairwiseCipherEjNSt3__18functionIFvRKNS3_16SupplicantStatusEEEE"
    },
    {
     "mangled_component_name":"_ZN7android8hardware4wifi10supplicant4V1_022BsSupplicantStaNetwork16setPskPassphraseERKNS0_11hidl_stringENSt3__18functionIFvRKNS3_16SupplicantStatusEEEE"
    },
    {
     "mangled_component_name":"_ZN7android8hardware4wifi10supplicant4V1_022BsSupplicantStaNetwork6setPskERKNS0_10hidl_arrayIhLj32EJEEENSt3__18functionIFvRKNS3_16SupplicantStatusEEEE"
    },
    {
     "mangled_component_name":"_ZN7android8hardware4wifi10supplicant4V1_022BsSupplicantStaNetwork9setWepKeyEjRKNS0_8hidl_vecIhEENSt3__18functionIFvRKNS3_16SupplicantStatusEEEE"
    },
    {
     "mangled_component_name":"_ZN7android8hardware4wifi10supplicant4V1_022BsSupplicantStaNetwork14setWepTxKeyIdxEjNSt3__18functionIFvRKNS3_16SupplicantStatusEEEE"
    },
    {
     "mangled_component_name":"_ZN7android8hardware4wifi10supplicant4V1_022BsSupplicantStaNetwork13setRequirePmfEbNSt3__18functionIFvRKNS3_16SupplicantStatusEEEE"
    },
    {
     "mangled_component_name":"_ZN7android8hardware4wifi10supplicant4V1_022BsSupplicantStaNetwork12setEapMethodENS3_21ISupplicantStaNetwork9EapMethodENSt3__18functionIFvRKNS3_16SupplicantStatusEEEE"
    },
    {
     "mangled_component_name":"_ZN7android8hardware4wifi10supplicant4V1_022BsSupplicantStaNetwork18setEapPhase2MethodENS3_21ISupplicantStaNetwork15EapPhase2MethodENSt3__18functionIFvRKNS3_16SupplicantStatusEEEE"
    },
    {
     "mangled_component_name":"_ZN7android8hardware4wifi10supplicant4V1_022BsSupplicantStaNetwork14setEapIdentityERKNS0_8hidl_vecIhEENSt3__18functionIFvRKNS3_16SupplicantStatusEEEE"
    },
    {
     "mangled_component_name":"_ZN7android8hardware4wifi10supplicant4V1_022BsSupplicantStaNetwork23setEapAnonymousIdentityERKNS0_8hidl_vecIhEENSt3__18functionIFvRKNS3_16SupplicantStatusEEEE"
    },
    {
     "mangled_component_name":"_ZN7android8hardware4wifi10supplicant4V1_022BsSupplicantStaNetwork14setEapPasswordERKNS0_8hidl_vecIhEENSt3__18functionIFvRKNS3_16SupplicantStatusEEEE"
    },
    {
     "mangled_component_name":"_ZN7android8hardware4wifi10supplicant4V1_022BsSupplicantStaNetwork12setEapCACertERKNS0_11hidl_stringENSt3__18functionIFvRKNS3_16SupplicantStatusEEEE"
    },
    {
     "mangled_component_name":"_ZN7android8hardware4wifi10supplicant4V1_022BsSupplicantStaNetwork12setEapCAPathERKNS0_11hidl_stringENSt3__18functionIFvRKNS3_16SupplicantStatusEEEE"
    },
    {
     "mangled_component_name":"_ZN7android8hardware4wifi10supplicant4V1_022BsSupplicantStaNetwork16setEapClientCertERKNS0_11hidl_stringENSt3__18functionIFvRKNS3_16SupplicantStatusEEEE"
    },
    {
     "mangled_component_name":"_ZN7android8hardware4wifi10supplicant4V1_022BsSupplicantStaNetwork18setEapPrivateKeyIdERKNS0_11hidl_stringENSt3__18functionIFvRKNS3_16SupplicantStatusEEEE"
    },
    {
     "mangled_component_name":"_ZN7android8hardware4wifi10supplicant4V1_022BsSupplicantStaNetwork18setEapSubjectMatchERKNS0_11hidl_stringENSt3__18functionIFvRKNS3_16SupplicantStatusEEEE"
    },
    {
     "mangled_component_name":"_ZN7android8hardware4wifi10supplicant4V1_022BsSupplicantStaNetwork21setEapAltSubjectMatchERKNS0_11hidl_stringENSt3__18functionIFvRKNS3_16SupplicantStatusEEEE"
    },
    {
     "mangled_component_name":"_ZN7android8hardware4wifi10supplicant4V1_022BsSupplicantStaNetwork12setEapEngineEbNSt3__18functionIFvRKNS3_16SupplicantStatusEEEE"
    },
    {
     "mangled_component_name":"_ZN7android8hardware4wifi10supplicant4V1_022BsSupplicantStaNetwork14setEapEngineIDERKNS0_11hidl_stringENSt3__18functionIFvRKNS3_16SupplicantStatusEEEE"
    },
    {
     "mangled_component_name":"_ZN7android8hardware4wifi10supplicant4V1_022BsSupplicantStaNetwork23setEapDomainSuffixMatchERKNS0_11hidl_stringENSt3__18functionIFvRKNS3_16SupplicantStatusEEEE"
    },
    {
     "mangled_component_name":"_ZN7android8hardware4wifi10supplicant4V1_022BsSupplicantStaNetwork22setProactiveKeyCachingEbNSt3__18functionIFvRKNS3_16SupplicantStatusEEEE"
    },
    {
     "mangled_component_name":"_ZN7android8hardware4wifi10supplicant4V1_022BsSupplicantStaNetwork8setIdStrERKNS0_11hidl_stringENSt3__18functionIFvRKNS3_16SupplicantStatusEEEE"
    },
    {
     "mangled_component_name":"_ZN7android8hardware4wifi10supplicant4V1_022BsSupplicantStaNetwork19setUpdateIdentifierEjNSt3__18functionIFvRKNS3_16SupplicantStatusEEEE"
    },
    {
     "mangled_component_name":"_ZN7android8hardware4wifi10supplicant4V1_022BsSupplicantStaNetwork7getSsidENSt3__18functionIFvRKNS3_16SupplicantStatusERKNS0_8hidl_vecIhEEEEE"
    },
    {
     "mangled_component_name":"_ZN7android8hardware4wifi10supplicant4V1_022BsSupplicantStaNetwork8getBssidENSt3__18functionIFvRKNS3_16SupplicantStatusERKNS0_10hidl_arrayIhLj6EJEEEEEE"
    },
    {
     "mangled_component_name":"_ZN7android8hardware4wifi10supplicant4V1_022BsSupplicantStaNetwork11getScanSsidENSt3__18functionIFvRKNS3_16SupplicantStatusEbEEE"
    },
    {
     "mangled_component_name":"_ZN7android8hardware4wifi10supplicant4V1_022BsSupplicantStaNetwork10getKeyMgmtENSt3__18functionIFvRKNS3_16SupplicantStatusEjEEE"
    },
    {
     "mangled_component_name":"_ZN7android8hardware4wifi10supplicant4V1_022BsSupplicantStaNetwork8getProtoENSt3__18functionIFvRKNS3_16SupplicantStatusEjEEE"
    },
    {
     "mangled_component_name":"_ZN7android8hardware4wifi10supplicant4V1_022BsSupplicantStaNetwork10getAuthAlgENSt3__18functionIFvRKNS3_16SupplicantStatusEjEEE"
    },
    {
     "mangled_component_name":"_ZN7android8hardware4wifi10supplicant4V1_022BsSupplicantStaNetwork14getGroupCipherENSt3__18functionIFvRKNS3_16SupplicantStatusEjEEE"
    },
    {
     "mangled_component_name":"_ZN7android8hardware4wifi10supplicant4V1_022BsSupplicantStaNetwork17getPairwiseCipherENSt3__18functionIFvRKNS3_16SupplicantStatusEjEEE"
    },
    {
     "mangled_component_name":"_ZN7android8hardware4wifi10supplicant4V1_022BsSupplicantStaNetwork16getPskPassphraseENSt3__18functionIFvRKNS3_16SupplicantStatusERKNS0_11hidl_stringEEEE"
    },
    {
     "mangled_component_name":"_ZN7android8hardware4wifi10supplicant4V1_022BsSupplicantStaNetwork6getPskENSt3__18functionIFvRKNS3_16SupplicantStatusERKNS0_10hidl_arrayIhLj32EJEEEEEE"
    },
    {
     "mangled_component_name":"_ZN7android8hardware4wifi10supplicant4V1_022BsSupplicantStaNetwork9getWepKeyEjNSt3__18functionIFvRKNS3_16SupplicantStatusERKNS0_8hidl_vecIhEEEEE"
    },
    {
     "mangled_component_name":"_ZN7android8hardware4wifi10supplicant4V1_022BsSupplicantStaNetwork14getWepTxKeyIdxENSt3__18functionIFvRKNS3_16SupplicantStatusEjEEE"
    },
    {
     "mangled_component_name":"_ZN7android8hardware4wifi10supplicant4V1_022BsSupplicantStaNetwork13getRequirePmfENSt3__18functionIFvRKNS3_16SupplicantStatusEbEEE"
    },
    {
     "mangled_component_name":"_ZN7android8hardware4wifi10supplicant4V1_022BsSupplicantStaNetwork12getEapMethodENSt3__18functionIFvRKNS3_16SupplicantStatusENS3_21ISupplicantStaNetwork9EapMethodEEEE"
    },
    {
     "mangled_component_name":"_ZN7android8hardware4wifi10supplicant4V1_022BsSupplicantStaNetwork18getEapPhase2MethodENSt3__18functionIFvRKNS3_16SupplicantStatusENS3_21ISupplicantStaNetwork15EapPhase2MethodEEEE"
    },
    {
     "mangled_component_name":"_ZN7android8hardware4wifi10supplicant4V1_022BsSupplicantStaNetwork14getEapIdentityENSt3__18functionIFvRKNS3_16SupplicantStatusERKNS0_8hidl_vecIhEEEEE"
    },
    {
     "mangled_component_name":"_ZN7android8hardware4wifi10supplicant4V1_022BsSupplicantStaNetwork23getEapAnonymousIdentityENSt3__18functionIFvRKNS3_16SupplicantStatusERKNS0_8hidl_vecIhEEEEE"
    },
    {
     "mangled_component_name":"_ZN7android8hardware4wifi10supplicant4V1_022BsSupplicantStaNetwork14getEapPasswordENSt3__18functionIFvRKNS3_16SupplicantStatusERKNS0_8hidl_vecIhEEEEE"
    },
    {
     "mangled_component_name":"_ZN7android8hardware4wifi10supplicant4V1_022BsSupplicantStaNetwork12getEapCACertENSt3__18functionIFvRKNS3_16SupplicantStatusERKNS0_11hidl_stringEEEE"
    },
    {
     "mangled_component_name":"_ZN7android8hardware4wifi10supplicant4V1_022BsSupplicantStaNetwork12getEapCAPathENSt3__18functionIFvRKNS3_16SupplicantStatusERKNS0_11hidl_stringEEEE"
    },
    {
     "mangled_component_name":"_ZN7android8hardware4wifi10supplicant4V1_022BsSupplicantStaNetwork16getEapClientCertENSt3__18functionIFvRKNS3_16SupplicantStatusERKNS0_11hidl_stringEEEE"
    },
    {
     "mangled_component_name":"_ZN7android8hardware4wifi10supplicant4V1_022BsSupplicantStaNetwork18getEapPrivateKeyIdENSt3__18functionIFvRKNS3_16SupplicantStatusERKNS0_11hidl_stringEEEE"
    },
    {
     "mangled_component_name":"_ZN7android8hardware4wifi10supplicant4V1_022BsSupplicantStaNetwork18getEapSubjectMatchENSt3__18functionIFvRKNS3_16SupplicantStatusERKNS0_11hidl_stringEEEE"
    },
    {
     "mangled_component_name":"_ZN7android8hardware4wifi10supplicant4V1_022BsSupplicantStaNetwork21getEapAltSubjectMatchENSt3__18functionIFvRKNS3_16SupplicantStatusERKNS0_11hidl_stringEEEE"
    },
    {
     "mangled_component_name":"_ZN7android8hardware4wifi10supplicant4V1_022BsSupplicantStaNetwork12getEapEngineENSt3__18functionIFvRKNS3_16SupplicantStatusEbEEE"
    },
    {
     "mangled_component_name":"_ZN7android8hardware4wifi10supplicant4V1_022BsSupplicantStaNetwork14getEapEngineIDENSt3__18functionIFvRKNS3_16SupplicantStatusERKNS0_11hidl_stringEEEE"
    },
    {
     "mangled_component_name":"_ZN7android8hardware4wifi10supplicant4V1_022BsSupplicantStaNetwork23getEapDomainSuffixMatchENSt3__18functionIFvRKNS3_16SupplicantStatusERKNS0_11hidl_stringEEEE"
    },
    {
     "mangled_component_name":"_ZN7android8hardware4wifi10supplicant4V1_022BsSupplicantStaNetwork8getIdStrENSt3__18functionIFvRKNS3_16SupplicantStatusERKNS0_11hidl_stringEEEE"
    },
    {
     "mangled_component_name":"_ZN7android8hardware4wifi10supplicant4V1_022BsSupplicantStaNetwork27getWpsNfcConfigurationTokenENSt3__18functionIFvRKNS3_16SupplicantStatusERKNS0_8hidl_vecIhEEEEE"
    },
    {
     "mangled_component_name":"_ZN7android8hardware4wifi10supplicant4V1_022BsSupplicantStaNetwork6enableEbNSt3__18functionIFvRKNS3_16SupplicantStatusEEEE"
    },
    {
     "mangled_component_name":"_ZN7android8hardware4wifi10supplicant4V1_022BsSupplicantStaNetwork7disableENSt3__18functionIFvRKNS3_16SupplicantStatusEEEE"
    },
    {
     "mangled_component_name":"_ZN7android8hardware4wifi10supplicant4V1_022BsSupplicantStaNetwork6selectENSt3__18functionIFvRKNS3_16SupplicantStatusEEEE"
    },
    {
     "mangled_component_name":"_ZN7android8hardware4wifi10supplicant4V1_022BsSupplicantStaNetwork32sendNetworkEapSimGsmAuthResponseERKNS0_8hidl_vecINS3_21ISupplicantStaNetwork34NetworkResponseEapSimGsmAuthParamsEEENSt3__18functionIFvRKNS3_16SupplicantStatusEEEE"
    },
    {
     "mangled_component_name":"_ZN7android8hardware4wifi10supplicant4V1_022BsSupplicantStaNetwork31sendNetworkEapSimGsmAuthFailureENSt3__18functionIFvRKNS3_16SupplicantStatusEEEE"
    },
    {
     "mangled_component_name":"_ZN7android8hardware4wifi10supplicant4V1_022BsSupplicantStaNetwork33sendNetworkEapSimUmtsAuthResponseERKNS3_21ISupplicantStaNetwork35NetworkResponseEapSimUmtsAuthParamsENSt3__18functionIFvRKNS3_16SupplicantStatusEEEE"
    },
    {
     "mangled_component_name":"_ZN7android8hardware4wifi10supplicant4V1_022BsSupplicantStaNetwork33sendNetworkEapSimUmtsAutsResponseERKNS0_10hidl_arrayIhLj14EJEEENSt3__18functionIFvRKNS3_16SupplicantStatusEEEE"
    },
    {
     "mangled_component_name":"_ZN7android8hardware4wifi10supplicant4V1_022BsSupplicantStaNetwork32sendNetworkEapSimUmtsAuthFailureENSt3__18functionIFvRKNS3_16SupplicantStatusEEEE"
    },
    {
     "mangled_component_name":"_ZN7android8hardware4wifi10supplicant4V1_022BsSupplicantStaNetwork30sendNetworkEapIdentityResponseERKNS0_8hidl_vecIhEENSt3__18functionIFvRKNS3_16SupplicantStatusEEEE"
    },
    {
     "kind":"offset_to_top",
     "component_value":-4
    },
    {
     "kind":"rtti",
     "mangled_component_name":"_ZTIN7android8hardware4wifi10supplicant4V1_022BsSupplicantStaNetworkE"
    },
    {
     "kind":"complete_dtor_pointer",
     "mangled_component_name":"_ZThn4_N7android8hardware4wifi10supplicant4V1_022BsSupplicantStaNetworkD1Ev"
    },
    {
     "kind":"deleting_dtor_pointer",
     "mangled_component_name":"_ZThn4_N7android8hardware4wifi10supplicant4V1_022BsSupplicantStaNetworkD0Ev"
    },
    {
     "kind":"vcall_offset"
    },
    {
     "kind":"vcall_offset"
    },
    {
     "kind":"vcall_offset"
    },
    {
     "kind":"vcall_offset"
    },
    {
     "kind":"vcall_offset",
     "component_value":-60
    },
    {
     "kind":"offset_to_top",
     "component_value":-60
    },
    {
     "kind":"rtti",
     "mangled_component_name":"_ZTIN7android8hardware4wifi10supplicant4V1_022BsSupplicantStaNetworkE"
    },
    {
     "kind":"complete_dtor_pointer",
     "mangled_component_name":"_ZTv0_n12_N7android8hardware4wifi10supplicant4V1_022BsSupplicantStaNetworkD1Ev"
    },
    {
     "kind":"deleting_dtor_pointer",
     "mangled_component_name":"_ZTv0_n12_N7android8hardware4wifi10supplicant4V1_022BsSupplicantStaNetworkD0Ev"
    },
    {
     "mangled_component_name":"_ZN7android7RefBase10onFirstRefEv"
    },
    {
     "mangled_component_name":"_ZN7android7RefBase15onLastStrongRefEPKv"
    },
    {
     "mangled_component_name":"_ZN7android7RefBase20onIncStrongAttemptedEjPKv"
    },
    {
     "mangled_component_name":"_ZN7android7RefBase13onLastWeakRefEPKv"
    }
   ],
   "unique_id":"_ZTSN7android8hardware4wifi10supplicant4V1_022BsSupplicantStaNetworkE"
  },
  {
   "vtable_components":[
    {
     "kind":"vbase_offset",
     "component_value":84
    },
    {
     "kind":"offset_to_top"
    },
    {
     "kind":"rtti",
     "mangled_component_name":"_ZTIN7android8hardware4wifi10supplicant4V1_024BpHwSupplicantStaNetworkE"
    },
    {
     "mangled_component_name":"_ZNK7android8hardware4wifi10supplicant4V1_024BpHwSupplicantStaNetwork8isRemoteEv"
    },
    {
     "mangled_component_name":"_ZN7android8hardware4wifi10supplicant4V1_024BpHwSupplicantStaNetwork14interfaceChainENSt3__18functionIFvRKNS0_8hidl_vecINS0_11hidl_stringEEEEEE"
    },
    {
     "mangled_component_name":"_ZN7android8hardware4wifi10supplicant4V1_024BpHwSupplicantStaNetwork5debugERKNS0_11hidl_handleERKNS0_8hidl_vecINS0_11hidl_stringEEE"
    },
    {
     "mangled_component_name":"_ZN7android8hardware4wifi10supplicant4V1_024BpHwSupplicantStaNetwork19interfaceDescriptorENSt3__18functionIFvRKNS0_11hidl_stringEEEE"
    },
    {
     "mangled_component_name":"_ZN7android8hardware4wifi10supplicant4V1_024BpHwSupplicantStaNetwork12getHashChainENSt3__18functionIFvRKNS0_8hidl_vecINS0_10hidl_arrayIhLj32EJEEEEEEEE"
    },
    {
     "mangled_component_name":"_ZN7android8hardware4wifi10supplicant4V1_024BpHwSupplicantStaNetwork21setHALInstrumentationEv"
    },
    {
     "mangled_component_name":"_ZN7android8hardware4wifi10supplicant4V1_024BpHwSupplicantStaNetwork11linkToDeathERKNS_2spINS0_20hidl_death_recipientEEEy"
    },
    {
     "mangled_component_name":"_ZN7android8hardware4wifi10supplicant4V1_024BpHwSupplicantStaNetwork4pingEv"
    },
    {
     "mangled_component_name":"_ZN7android8hardware4wifi10supplicant4V1_024BpHwSupplicantStaNetwork12getDebugInfoENSt3__18functionIFvRKNS_4hidl4base4V1_09DebugInfoEEEE"
    },
    {
     "mangled_component_name":"_ZN7android8hardware4wifi10supplicant4V1_024BpHwSupplicantStaNetwork21notifySyspropsChangedEv"
    },
    {
     "mangled_component_name":"_ZN7android8hardware4wifi10supplicant4V1_024BpHwSupplicantStaNetwork13unlinkToDeathERKNS_2spINS0_20hidl_death_recipientEEE"
    },
    {
     "kind":"complete_dtor_pointer",
     "mangled_component_name":"_ZN7android8hardware4wifi10supplicant4V1_024BpHwSupplicantStaNetworkD1Ev"
    },
    {
     "kind":"deleting_dtor_pointer",
     "mangled_component_name":"_ZN7android8hardware4wifi10supplicant4V1_024BpHwSupplicantStaNetworkD0Ev"
    },
    {
     "mangled_component_name":"_ZN7android8hardware4wifi10supplicant4V1_024BpHwSupplicantStaNetwork5getIdENSt3__18functionIFvRKNS3_16SupplicantStatusEjEEE"
    },
    {
     "mangled_component_name":"_ZN7android8hardware4wifi10supplicant4V1_024BpHwSupplicantStaNetwork16getInterfaceNameENSt3__18functionIFvRKNS3_16SupplicantStatusERKNS0_11hidl_stringEEEE"
    },
    {
     "mangled_component_name":"_ZN7android8hardware4wifi10supplicant4V1_024BpHwSupplicantStaNetwork7getTypeENSt3__18functionIFvRKNS3_16SupplicantStatusENS3_9IfaceTypeEEEE"
    },
    {
     "mangled_component_name":"_ZN7android8hardware4wifi10supplicant4V1_024BpHwSupplicantStaNetwork16registerCallbackERKNS_2spINS3_29ISupplicantStaNetworkCallbackEEENSt3__18functionIFvRKNS3_16SupplicantStatusEEEE"
    },
    {
     "mangled_component_name":"_ZN7android8hardware4wifi10supplicant4V1_024BpHwSupplicantStaNetwork7setSsidERKNS0_8hidl_vecIhEENSt3__18functionIFvRKNS3_16SupplicantStatusEEEE"
    },
    {
     "mangled_component_name":"_ZN7android8hardware4wifi10supplicant4V1_024BpHwSupplicantStaNetwork8setBssidERKNS0_10hidl_arrayIhLj6EJEEENSt3__18functionIFvRKNS3_16SupplicantStatusEEEE"
    },
    {
     "mangled_component_name":"_ZN7android8hardware4wifi10supplicant4V1_024BpHwSupplicantStaNetwork11setScanSsidEbNSt3__18functionIFvRKNS3_16SupplicantStatusEEEE"
    },
    {
     "mangled_component_name":"_ZN7android8hardware4wifi10supplicant4V1_024BpHwSupplicantStaNetwork10setKeyMgmtEjNSt3__18functionIFvRKNS3_16SupplicantStatusEEEE"
    },
    {
     "mangled_component_name":"_ZN7android8hardware4wifi10supplicant4V1_024BpHwSupplicantStaNetwork8setProtoEjNSt3__18functionIFvRKNS3_16SupplicantStatusEEEE"
    },
    {
     "mangled_component_name":"_ZN7android8hardware4wifi10supplicant4V1_024BpHwSupplicantStaNetwork10setAuthAlgEjNSt3__18functionIFvRKNS3_16SupplicantStatusEEEE"
    },
    {
     "mangled_component_name":"_ZN7android8hardware4wifi10supplicant4V1_024BpHwSupplicantStaNetwork14setGroupCipherEjNSt3__18functionIFvRKNS3_16SupplicantStatusEEEE"
    },
    {
     "mangled_component_name":"_ZN7android8hardware4wifi10supplicant4V1_024BpHwSupplicantStaNetwork17setPairwiseCipherEjNSt3__18functionIFvRKNS3_16SupplicantStatusEEEE"
    },
    {
     "mangled_component_name":"_ZN7android8hardware4wifi10supplicant4V1_024BpHwSupplicantStaNetwork16setPskPassphraseERKNS0_11hidl_stringENSt3__18functionIFvRKNS3_16SupplicantStatusEEEE"
    },
    {
     "mangled_component_name":"_ZN7android8hardware4wifi10supplicant4V1_024BpHwSupplicantStaNetwork6setPskERKNS0_10hidl_arrayIhLj32EJEEENSt3__18functionIFvRKNS3_16SupplicantStatusEEEE"
    },
    {
     "mangled_component_name":"_ZN7android8hardware4wifi10supplicant4V1_024BpHwSupplicantStaNetwork9setWepKeyEjRKNS0_8hidl_vecIhEENSt3__18functionIFvRKNS3_16SupplicantStatusEEEE"
    },
    {
     "mangled_component_name":"_ZN7android8hardware4wifi10supplicant4V1_024BpHwSupplicantStaNetwork14setWepTxKeyIdxEjNSt3__18functionIFvRKNS3_16SupplicantStatusEEEE"
    },
    {
     "mangled_component_name":"_ZN7android8hardware4wifi10supplicant4V1_024BpHwSupplicantStaNetwork13setRequirePmfEbNSt3__18functionIFvRKNS3_16SupplicantStatusEEEE"
    },
    {
     "mangled_component_name":"_ZN7android8hardware4wifi10supplicant4V1_024BpHwSupplicantStaNetwork12setEapMethodENS3_21ISupplicantStaNetwork9EapMethodENSt3__18functionIFvRKNS3_16SupplicantStatusEEEE"
    },
    {
     "mangled_component_name":"_ZN7android8hardware4wifi10supplicant4V1_024BpHwSupplicantStaNetwork18setEapPhase2MethodENS3_21ISupplicantStaNetwork15EapPhase2MethodENSt3__18functionIFvRKNS3_16SupplicantStatusEEEE"
    },
    {
     "mangled_component_name":"_ZN7android8hardware4wifi10supplicant4V1_024BpHwSupplicantStaNetwork14setEapIdentityERKNS0_8hidl_vecIhEENSt3__18functionIFvRKNS3_16SupplicantStatusEEEE"
    },
    {
     "mangled_component_name":"_ZN7android8hardware4wifi10supplicant4V1_024BpHwSupplicantStaNetwork23setEapAnonymousIdentityERKNS0_8hidl_vecIhEENSt3__18functionIFvRKNS3_16SupplicantStatusEEEE"
    },
    {
     "mangled_component_name":"_ZN7android8hardware4wifi10supplicant4V1_024BpHwSupplicantStaNetwork14setEapPasswordERKNS0_8hidl_vecIhEENSt3__18functionIFvRKNS3_16SupplicantStatusEEEE"
    },
    {
     "mangled_component_name":"_ZN7android8hardware4wifi10supplicant4V1_024BpHwSupplicantStaNetwork12setEapCACertERKNS0_11hidl_stringENSt3__18functionIFvRKNS3_16SupplicantStatusEEEE"
    },
    {
     "mangled_component_name":"_ZN7android8hardware4wifi10supplicant4V1_024BpHwSupplicantStaNetwork12setEapCAPathERKNS0_11hidl_stringENSt3__18functionIFvRKNS3_16SupplicantStatusEEEE"
    },
    {
     "mangled_component_name":"_ZN7android8hardware4wifi10supplicant4V1_024BpHwSupplicantStaNetwork16setEapClientCertERKNS0_11hidl_stringENSt3__18functionIFvRKNS3_16SupplicantStatusEEEE"
    },
    {
     "mangled_component_name":"_ZN7android8hardware4wifi10supplicant4V1_024BpHwSupplicantStaNetwork18setEapPrivateKeyIdERKNS0_11hidl_stringENSt3__18functionIFvRKNS3_16SupplicantStatusEEEE"
    },
    {
     "mangled_component_name":"_ZN7android8hardware4wifi10supplicant4V1_024BpHwSupplicantStaNetwork18setEapSubjectMatchERKNS0_11hidl_stringENSt3__18functionIFvRKNS3_16SupplicantStatusEEEE"
    },
    {
     "mangled_component_name":"_ZN7android8hardware4wifi10supplicant4V1_024BpHwSupplicantStaNetwork21setEapAltSubjectMatchERKNS0_11hidl_stringENSt3__18functionIFvRKNS3_16SupplicantStatusEEEE"
    },
    {
     "mangled_component_name":"_ZN7android8hardware4wifi10supplicant4V1_024BpHwSupplicantStaNetwork12setEapEngineEbNSt3__18functionIFvRKNS3_16SupplicantStatusEEEE"
    },
    {
     "mangled_component_name":"_ZN7android8hardware4wifi10supplicant4V1_024BpHwSupplicantStaNetwork14setEapEngineIDERKNS0_11hidl_stringENSt3__18functionIFvRKNS3_16SupplicantStatusEEEE"
    },
    {
     "mangled_component_name":"_ZN7android8hardware4wifi10supplicant4V1_024BpHwSupplicantStaNetwork23setEapDomainSuffixMatchERKNS0_11hidl_stringENSt3__18functionIFvRKNS3_16SupplicantStatusEEEE"
    },
    {
     "mangled_component_name":"_ZN7android8hardware4wifi10supplicant4V1_024BpHwSupplicantStaNetwork22setProactiveKeyCachingEbNSt3__18functionIFvRKNS3_16SupplicantStatusEEEE"
    },
    {
     "mangled_component_name":"_ZN7android8hardware4wifi10supplicant4V1_024BpHwSupplicantStaNetwork8setIdStrERKNS0_11hidl_stringENSt3__18functionIFvRKNS3_16SupplicantStatusEEEE"
    },
    {
     "mangled_component_name":"_ZN7android8hardware4wifi10supplicant4V1_024BpHwSupplicantStaNetwork19setUpdateIdentifierEjNSt3__18functionIFvRKNS3_16SupplicantStatusEEEE"
    },
    {
     "mangled_component_name":"_ZN7android8hardware4wifi10supplicant4V1_024BpHwSupplicantStaNetwork7getSsidENSt3__18functionIFvRKNS3_16SupplicantStatusERKNS0_8hidl_vecIhEEEEE"
    },
    {
     "mangled_component_name":"_ZN7android8hardware4wifi10supplicant4V1_024BpHwSupplicantStaNetwork8getBssidENSt3__18functionIFvRKNS3_16SupplicantStatusERKNS0_10hidl_arrayIhLj6EJEEEEEE"
    },
    {
     "mangled_component_name":"_ZN7android8hardware4wifi10supplicant4V1_024BpHwSupplicantStaNetwork11getScanSsidENSt3__18functionIFvRKNS3_16SupplicantStatusEbEEE"
    },
    {
     "mangled_component_name":"_ZN7android8hardware4wifi10supplicant4V1_024BpHwSupplicantStaNetwork10getKeyMgmtENSt3__18functionIFvRKNS3_16SupplicantStatusEjEEE"
    },
    {
     "mangled_component_name":"_ZN7android8hardware4wifi10supplicant4V1_024BpHwSupplicantStaNetwork8getProtoENSt3__18functionIFvRKNS3_16SupplicantStatusEjEEE"
    },
    {
     "mangled_component_name":"_ZN7android8hardware4wifi10supplicant4V1_024BpHwSupplicantStaNetwork10getAuthAlgENSt3__18functionIFvRKNS3_16SupplicantStatusEjEEE"
    },
    {
     "mangled_component_name":"_ZN7android8hardware4wifi10supplicant4V1_024BpHwSupplicantStaNetwork14getGroupCipherENSt3__18functionIFvRKNS3_16SupplicantStatusEjEEE"
    },
    {
     "mangled_component_name":"_ZN7android8hardware4wifi10supplicant4V1_024BpHwSupplicantStaNetwork17getPairwiseCipherENSt3__18functionIFvRKNS3_16SupplicantStatusEjEEE"
    },
    {
     "mangled_component_name":"_ZN7android8hardware4wifi10supplicant4V1_024BpHwSupplicantStaNetwork16getPskPassphraseENSt3__18functionIFvRKNS3_16SupplicantStatusERKNS0_11hidl_stringEEEE"
    },
    {
     "mangled_component_name":"_ZN7android8hardware4wifi10supplicant4V1_024BpHwSupplicantStaNetwork6getPskENSt3__18functionIFvRKNS3_16SupplicantStatusERKNS0_10hidl_arrayIhLj32EJEEEEEE"
    },
    {
     "mangled_component_name":"_ZN7android8hardware4wifi10supplicant4V1_024BpHwSupplicantStaNetwork9getWepKeyEjNSt3__18functionIFvRKNS3_16SupplicantStatusERKNS0_8hidl_vecIhEEEEE"
    },
    {
     "mangled_component_name":"_ZN7android8hardware4wifi10supplicant4V1_024BpHwSupplicantStaNetwork14getWepTxKeyIdxENSt3__18functionIFvRKNS3_16SupplicantStatusEjEEE"
    },
    {
     "mangled_component_name":"_ZN7android8hardware4wifi10supplicant4V1_024BpHwSupplicantStaNetwork13getRequirePmfENSt3__18functionIFvRKNS3_16SupplicantStatusEbEEE"
    },
    {
     "mangled_component_name":"_ZN7android8hardware4wifi10supplicant4V1_024BpHwSupplicantStaNetwork12getEapMethodENSt3__18functionIFvRKNS3_16SupplicantStatusENS3_21ISupplicantStaNetwork9EapMethodEEEE"
    },
    {
     "mangled_component_name":"_ZN7android8hardware4wifi10supplicant4V1_024BpHwSupplicantStaNetwork18getEapPhase2MethodENSt3__18functionIFvRKNS3_16SupplicantStatusENS3_21ISupplicantStaNetwork15EapPhase2MethodEEEE"
    },
    {
     "mangled_component_name":"_ZN7android8hardware4wifi10supplicant4V1_024BpHwSupplicantStaNetwork14getEapIdentityENSt3__18functionIFvRKNS3_16SupplicantStatusERKNS0_8hidl_vecIhEEEEE"
    },
    {
     "mangled_component_name":"_ZN7android8hardware4wifi10supplicant4V1_024BpHwSupplicantStaNetwork23getEapAnonymousIdentityENSt3__18functionIFvRKNS3_16SupplicantStatusERKNS0_8hidl_vecIhEEEEE"
    },
    {
     "mangled_component_name":"_ZN7android8hardware4wifi10supplicant4V1_024BpHwSupplicantStaNetwork14getEapPasswordENSt3__18functionIFvRKNS3_16SupplicantStatusERKNS0_8hidl_vecIhEEEEE"
    },
    {
     "mangled_component_name":"_ZN7android8hardware4wifi10supplicant4V1_024BpHwSupplicantStaNetwork12getEapCACertENSt3__18functionIFvRKNS3_16SupplicantStatusERKNS0_11hidl_stringEEEE"
    },
    {
     "mangled_component_name":"_ZN7android8hardware4wifi10supplicant4V1_024BpHwSupplicantStaNetwork12getEapCAPathENSt3__18functionIFvRKNS3_16SupplicantStatusERKNS0_11hidl_stringEEEE"
    },
    {
     "mangled_component_name":"_ZN7android8hardware4wifi10supplicant4V1_024BpHwSupplicantStaNetwork16getEapClientCertENSt3__18functionIFvRKNS3_16SupplicantStatusERKNS0_11hidl_stringEEEE"
    },
    {
     "mangled_component_name":"_ZN7android8hardware4wifi10supplicant4V1_024BpHwSupplicantStaNetwork18getEapPrivateKeyIdENSt3__18functionIFvRKNS3_16SupplicantStatusERKNS0_11hidl_stringEEEE"
    },
    {
     "mangled_component_name":"_ZN7android8hardware4wifi10supplicant4V1_024BpHwSupplicantStaNetwork18getEapSubjectMatchENSt3__18functionIFvRKNS3_16SupplicantStatusERKNS0_11hidl_stringEEEE"
    },
    {
     "mangled_component_name":"_ZN7android8hardware4wifi10supplicant4V1_024BpHwSupplicantStaNetwork21getEapAltSubjectMatchENSt3__18functionIFvRKNS3_16SupplicantStatusERKNS0_11hidl_stringEEEE"
    },
    {
     "mangled_component_name":"_ZN7android8hardware4wifi10supplicant4V1_024BpHwSupplicantStaNetwork12getEapEngineENSt3__18functionIFvRKNS3_16SupplicantStatusEbEEE"
    },
    {
     "mangled_component_name":"_ZN7android8hardware4wifi10supplicant4V1_024BpHwSupplicantStaNetwork14getEapEngineIDENSt3__18functionIFvRKNS3_16SupplicantStatusERKNS0_11hidl_stringEEEE"
    },
    {
     "mangled_component_name":"_ZN7android8hardware4wifi10supplicant4V1_024BpHwSupplicantStaNetwork23getEapDomainSuffixMatchENSt3__18functionIFvRKNS3_16SupplicantStatusERKNS0_11hidl_stringEEEE"
    },
    {
     "mangled_component_name":"_ZN7android8hardware4wifi10supplicant4V1_024BpHwSupplicantStaNetwork8getIdStrENSt3__18functionIFvRKNS3_16SupplicantStatusERKNS0_11hidl_stringEEEE"
    },
    {
     "mangled_component_name":"_ZN7android8hardware4wifi10supplicant4V1_024BpHwSupplicantStaNetwork27getWpsNfcConfigurationTokenENSt3__18functionIFvRKNS3_16SupplicantStatusERKNS0_8hidl_vecIhEEEEE"
    },
    {
     "mangled_component_name":"_ZN7android8hardware4wifi10supplicant4V1_024BpHwSupplicantStaNetwork6enableEbNSt3__18functionIFvRKNS3_16SupplicantStatusEEEE"
    },
    {
     "mangled_component_name":"_ZN7android8hardware4wifi10supplicant4V1_024BpHwSupplicantStaNetwork7disableENSt3__18functionIFvRKNS3_16SupplicantStatusEEEE"
    },
    {
     "mangled_component_name":"_ZN7android8hardware4wifi10supplicant4V1_024BpHwSupplicantStaNetwork6selectENSt3__18functionIFvRKNS3_16SupplicantStatusEEEE"
    },
    {
     "mangled_component_name":"_ZN7android8hardware4wifi10supplicant4V1_024BpHwSupplicantStaNetwork32sendNetworkEapSimGsmAuthResponseERKNS0_8hidl_vecINS3_21ISupplicantStaNetwork34NetworkResponseEapSimGsmAuthParamsEEENSt3__18functionIFvRKNS3_16SupplicantStatusEEEE"
    },
    {
     "mangled_component_name":"_ZN7android8hardware4wifi10supplicant4V1_024BpHwSupplicantStaNetwork31sendNetworkEapSimGsmAuthFailureENSt3__18functionIFvRKNS3_16SupplicantStatusEEEE"
    },
    {
     "mangled_component_name":"_ZN7android8hardware4wifi10supplicant4V1_024BpHwSupplicantStaNetwork33sendNetworkEapSimUmtsAuthResponseERKNS3_21ISupplicantStaNetwork35NetworkResponseEapSimUmtsAuthParamsENSt3__18functionIFvRKNS3_16SupplicantStatusEEEE"
    },
    {
     "mangled_component_name":"_ZN7android8hardware4wifi10supplicant4V1_024BpHwSupplicantStaNetwork33sendNetworkEapSimUmtsAutsResponseERKNS0_10hidl_arrayIhLj14EJEEENSt3__18functionIFvRKNS3_16SupplicantStatusEEEE"
    },
    {
     "mangled_component_name":"_ZN7android8hardware4wifi10supplicant4V1_024BpHwSupplicantStaNetwork32sendNetworkEapSimUmtsAuthFailureENSt3__18functionIFvRKNS3_16SupplicantStatusEEEE"
    },
    {
     "mangled_component_name":"_ZN7android8hardware4wifi10supplicant4V1_024BpHwSupplicantStaNetwork30sendNetworkEapIdentityResponseERKNS0_8hidl_vecIhEENSt3__18functionIFvRKNS3_16SupplicantStatusEEEE"
    },
    {
     "mangled_component_name":"_ZN7android8hardware11BpInterfaceINS0_4wifi10supplicant4V1_021ISupplicantStaNetworkEE10onAsBinderEv"
    },
    {
     "kind":"vbase_offset",
     "component_value":80
    },
    {
     "kind":"offset_to_top",
     "component_value":-4
    },
    {
     "kind":"rtti",
     "mangled_component_name":"_ZTIN7android8hardware4wifi10supplicant4V1_024BpHwSupplicantStaNetworkE"
    },
    {
     "kind":"complete_dtor_pointer",
     "mangled_component_name":"_ZThn4_N7android8hardware4wifi10supplicant4V1_024BpHwSupplicantStaNetworkD1Ev"
    },
    {
     "kind":"deleting_dtor_pointer",
     "mangled_component_name":"_ZThn4_N7android8hardware4wifi10supplicant4V1_024BpHwSupplicantStaNetworkD0Ev"
    },
    {
     "mangled_component_name":"_ZThn4_N7android8hardware11BpInterfaceINS0_4wifi10supplicant4V1_021ISupplicantStaNetworkEE10onAsBinderEv"
    },
    {
     "kind":"vbase_offset",
     "component_value":76
    },
    {
     "kind":"offset_to_top",
     "component_value":-8
    },
    {
     "kind":"rtti",
     "mangled_component_name":"_ZTIN7android8hardware4wifi10supplicant4V1_024BpHwSupplicantStaNetworkE"
    },
    {
     "kind":"complete_dtor_pointer",
     "mangled_component_name":"_ZThn8_N7android8hardware4wifi10supplicant4V1_024BpHwSupplicantStaNetworkD1Ev"
    },
    {
     "kind":"deleting_dtor_pointer",
     "mangled_component_name":"_ZThn8_N7android8hardware4wifi10supplicant4V1_024BpHwSupplicantStaNetworkD0Ev"
    },
    {
     "mangled_component_name":"_ZN7android8hardware11BpHwRefBase10onFirstRefEv"
    },
    {
     "mangled_component_name":"_ZN7android8hardware11BpHwRefBase15onLastStrongRefEPKv"
    },
    {
     "mangled_component_name":"_ZN7android8hardware11BpHwRefBase20onIncStrongAttemptedEjPKv"
    },
    {
     "kind":"offset_to_top",
     "component_value":-24
    },
    {
     "kind":"rtti",
     "mangled_component_name":"_ZTIN7android8hardware4wifi10supplicant4V1_024BpHwSupplicantStaNetworkE"
    },
    {
     "kind":"complete_dtor_pointer",
     "mangled_component_name":"_ZThn24_N7android8hardware4wifi10supplicant4V1_024BpHwSupplicantStaNetworkD1Ev"
    },
    {
     "kind":"deleting_dtor_pointer",
     "mangled_component_name":"_ZThn24_N7android8hardware4wifi10supplicant4V1_024BpHwSupplicantStaNetworkD0Ev"
    },
    {
     "kind":"vcall_offset"
    },
    {
     "kind":"vcall_offset",
     "component_value":-76
    },
    {
     "kind":"vcall_offset",
     "component_value":-76
    },
    {
     "kind":"vcall_offset",
     "component_value":-76
    },
    {
     "kind":"vcall_offset",
     "component_value":-84
    },
    {
     "kind":"offset_to_top",
     "component_value":-84
    },
    {
     "kind":"rtti",
     "mangled_component_name":"_ZTIN7android8hardware4wifi10supplicant4V1_024BpHwSupplicantStaNetworkE"
    },
    {
     "kind":"complete_dtor_pointer",
     "mangled_component_name":"_ZTv0_n12_N7android8hardware4wifi10supplicant4V1_024BpHwSupplicantStaNetworkD1Ev"
    },
    {
     "kind":"deleting_dtor_pointer",
     "mangled_component_name":"_ZTv0_n12_N7android8hardware4wifi10supplicant4V1_024BpHwSupplicantStaNetworkD0Ev"
    },
    {
     "mangled_component_name":"_ZTv0_n16_N7android8hardware11BpHwRefBase10onFirstRefEv"
    },
    {
     "mangled_component_name":"_ZTv0_n20_N7android8hardware11BpHwRefBase15onLastStrongRefEPKv"
    },
    {
     "mangled_component_name":"_ZTv0_n24_N7android8hardware11BpHwRefBase20onIncStrongAttemptedEjPKv"
    },
    {
     "mangled_component_name":"_ZN7android7RefBase13onLastWeakRefEPKv"
    }
   ],
   "unique_id":"_ZTSN7android8hardware4wifi10supplicant4V1_024BpHwSupplicantStaNetworkE"
  },
  {
   "vtable_components":[
    {
     "kind":"vbase_offset",
     "component_value":84
    },
    {
     "kind":"offset_to_top"
    },
    {
     "kind":"rtti",
     "mangled_component_name":"_ZTIN7android8hardware4wifi10supplicant4V1_032BpHwSupplicantStaNetworkCallbackE"
    },
    {
     "mangled_component_name":"_ZNK7android8hardware4wifi10supplicant4V1_032BpHwSupplicantStaNetworkCallback8isRemoteEv"
    },
    {
     "mangled_component_name":"_ZN7android8hardware4wifi10supplicant4V1_032BpHwSupplicantStaNetworkCallback14interfaceChainENSt3__18functionIFvRKNS0_8hidl_vecINS0_11hidl_stringEEEEEE"
    },
    {
     "mangled_component_name":"_ZN7android8hardware4wifi10supplicant4V1_032BpHwSupplicantStaNetworkCallback5debugERKNS0_11hidl_handleERKNS0_8hidl_vecINS0_11hidl_stringEEE"
    },
    {
     "mangled_component_name":"_ZN7android8hardware4wifi10supplicant4V1_032BpHwSupplicantStaNetworkCallback19interfaceDescriptorENSt3__18functionIFvRKNS0_11hidl_stringEEEE"
    },
    {
     "mangled_component_name":"_ZN7android8hardware4wifi10supplicant4V1_032BpHwSupplicantStaNetworkCallback12getHashChainENSt3__18functionIFvRKNS0_8hidl_vecINS0_10hidl_arrayIhLj32EJEEEEEEEE"
    },
    {
     "mangled_component_name":"_ZN7android8hardware4wifi10supplicant4V1_032BpHwSupplicantStaNetworkCallback21setHALInstrumentationEv"
    },
    {
     "mangled_component_name":"_ZN7android8hardware4wifi10supplicant4V1_032BpHwSupplicantStaNetworkCallback11linkToDeathERKNS_2spINS0_20hidl_death_recipientEEEy"
    },
    {
     "mangled_component_name":"_ZN7android8hardware4wifi10supplicant4V1_032BpHwSupplicantStaNetworkCallback4pingEv"
    },
    {
     "mangled_component_name":"_ZN7android8hardware4wifi10supplicant4V1_032BpHwSupplicantStaNetworkCallback12getDebugInfoENSt3__18functionIFvRKNS_4hidl4base4V1_09DebugInfoEEEE"
    },
    {
     "mangled_component_name":"_ZN7android8hardware4wifi10supplicant4V1_032BpHwSupplicantStaNetworkCallback21notifySyspropsChangedEv"
    },
    {
     "mangled_component_name":"_ZN7android8hardware4wifi10supplicant4V1_032BpHwSupplicantStaNetworkCallback13unlinkToDeathERKNS_2spINS0_20hidl_death_recipientEEE"
    },
    {
     "kind":"complete_dtor_pointer",
     "mangled_component_name":"_ZN7android8hardware4wifi10supplicant4V1_032BpHwSupplicantStaNetworkCallbackD1Ev"
    },
    {
     "kind":"deleting_dtor_pointer",
     "mangled_component_name":"_ZN7android8hardware4wifi10supplicant4V1_032BpHwSupplicantStaNetworkCallbackD0Ev"
    },
    {
     "mangled_component_name":"_ZN7android8hardware4wifi10supplicant4V1_032BpHwSupplicantStaNetworkCallback29onNetworkEapSimGsmAuthRequestERKNS3_29ISupplicantStaNetworkCallback33NetworkRequestEapSimGsmAuthParamsE"
    },
    {
     "mangled_component_name":"_ZN7android8hardware4wifi10supplicant4V1_032BpHwSupplicantStaNetworkCallback30onNetworkEapSimUmtsAuthRequestERKNS3_29ISupplicantStaNetworkCallback34NetworkRequestEapSimUmtsAuthParamsE"
    },
    {
     "mangled_component_name":"_ZN7android8hardware4wifi10supplicant4V1_032BpHwSupplicantStaNetworkCallback27onNetworkEapIdentityRequestEv"
    },
    {
     "mangled_component_name":"_ZN7android8hardware11BpInterfaceINS0_4wifi10supplicant4V1_029ISupplicantStaNetworkCallbackEE10onAsBinderEv"
    },
    {
     "kind":"vbase_offset",
     "component_value":80
    },
    {
     "kind":"offset_to_top",
     "component_value":-4
    },
    {
     "kind":"rtti",
     "mangled_component_name":"_ZTIN7android8hardware4wifi10supplicant4V1_032BpHwSupplicantStaNetworkCallbackE"
    },
    {
     "kind":"complete_dtor_pointer",
     "mangled_component_name":"_ZThn4_N7android8hardware4wifi10supplicant4V1_032BpHwSupplicantStaNetworkCallbackD1Ev"
    },
    {
     "kind":"deleting_dtor_pointer",
     "mangled_component_name":"_ZThn4_N7android8hardware4wifi10supplicant4V1_032BpHwSupplicantStaNetworkCallbackD0Ev"
    },
    {
     "mangled_component_name":"_ZThn4_N7android8hardware11BpInterfaceINS0_4wifi10supplicant4V1_029ISupplicantStaNetworkCallbackEE10onAsBinderEv"
    },
    {
     "kind":"vbase_offset",
     "component_value":76
    },
    {
     "kind":"offset_to_top",
     "component_value":-8
    },
    {
     "kind":"rtti",
     "mangled_component_name":"_ZTIN7android8hardware4wifi10supplicant4V1_032BpHwSupplicantStaNetworkCallbackE"
    },
    {
     "kind":"complete_dtor_pointer",
     "mangled_component_name":"_ZThn8_N7android8hardware4wifi10supplicant4V1_032BpHwSupplicantStaNetworkCallbackD1Ev"
    },
    {
     "kind":"deleting_dtor_pointer",
     "mangled_component_name":"_ZThn8_N7android8hardware4wifi10supplicant4V1_032BpHwSupplicantStaNetworkCallbackD0Ev"
    },
    {
     "mangled_component_name":"_ZN7android8hardware11BpHwRefBase10onFirstRefEv"
    },
    {
     "mangled_component_name":"_ZN7android8hardware11BpHwRefBase15onLastStrongRefEPKv"
    },
    {
     "mangled_component_name":"_ZN7android8hardware11BpHwRefBase20onIncStrongAttemptedEjPKv"
    },
    {
     "kind":"offset_to_top",
     "component_value":-24
    },
    {
     "kind":"rtti",
     "mangled_component_name":"_ZTIN7android8hardware4wifi10supplicant4V1_032BpHwSupplicantStaNetworkCallbackE"
    },
    {
     "kind":"complete_dtor_pointer",
     "mangled_component_name":"_ZThn24_N7android8hardware4wifi10supplicant4V1_032BpHwSupplicantStaNetworkCallbackD1Ev"
    },
    {
     "kind":"deleting_dtor_pointer",
     "mangled_component_name":"_ZThn24_N7android8hardware4wifi10supplicant4V1_032BpHwSupplicantStaNetworkCallbackD0Ev"
    },
    {
     "kind":"vcall_offset"
    },
    {
     "kind":"vcall_offset",
     "component_value":-76
    },
    {
     "kind":"vcall_offset",
     "component_value":-76
    },
    {
     "kind":"vcall_offset",
     "component_value":-76
    },
    {
     "kind":"vcall_offset",
     "component_value":-84
    },
    {
     "kind":"offset_to_top",
     "component_value":-84
    },
    {
     "kind":"rtti",
     "mangled_component_name":"_ZTIN7android8hardware4wifi10supplicant4V1_032BpHwSupplicantStaNetworkCallbackE"
    },
    {
     "kind":"complete_dtor_pointer",
     "mangled_component_name":"_ZTv0_n12_N7android8hardware4wifi10supplicant4V1_032BpHwSupplicantStaNetworkCallbackD1Ev"
    },
    {
     "kind":"deleting_dtor_pointer",
     "mangled_component_name":"_ZTv0_n12_N7android8hardware4wifi10supplicant4V1_032BpHwSupplicantStaNetworkCallbackD0Ev"
    },
    {
     "mangled_component_name":"_ZTv0_n16_N7android8hardware11BpHwRefBase10onFirstRefEv"
    },
    {
     "mangled_component_name":"_ZTv0_n20_N7android8hardware11BpHwRefBase15onLastStrongRefEPKv"
    },
    {
     "mangled_component_name":"_ZTv0_n24_N7android8hardware11BpHwRefBase20onIncStrongAttemptedEjPKv"
    },
    {
     "mangled_component_name":"_ZN7android7RefBase13onLastWeakRefEPKv"
    }
   ],
   "unique_id":"_ZTSN7android8hardware4wifi10supplicant4V1_032BpHwSupplicantStaNetworkCallbackE"
  },
  {
   "vtable_components":[
    {
     "kind":"vbase_offset",
     "component_value":72
    },
    {
     "kind":"offset_to_top"
    },
    {
     "kind":"rtti",
     "mangled_component_name":"_ZTIN7android8hardware4wifi10supplicant4V1_032BnHwSupplicantStaNetworkCallbackE"
    },
    {
     "mangled_component_name":"_ZN7android8hardware9BHwBinder8transactEjRKNS0_6ParcelEPS2_jNSt3__18functionIFvRS2_EEE"
    },
    {
     "mangled_component_name":"_ZN7android8hardware9BHwBinder11linkToDeathERKNS_2spINS0_7IBinder14DeathRecipientEEEPvj"
    },
    {
     "mangled_component_name":"_ZN7android8hardware9BHwBinder13unlinkToDeathERKNS_2wpINS0_7IBinder14DeathRecipientEEEPvjPS5_"
    },
    {
     "mangled_component_name":"_ZNK7android8hardware7IBinder13checkSubclassEPKv"
    },
    {
     "mangled_component_name":"_ZN7android8hardware9BHwBinder12attachObjectEPKvPvS4_PFvS3_S4_S4_E"
    },
    {
     "mangled_component_name":"_ZNK7android8hardware9BHwBinder10findObjectEPKv"
    },
    {
     "mangled_component_name":"_ZN7android8hardware9BHwBinder12detachObjectEPKv"
    },
    {
     "mangled_component_name":"_ZN7android8hardware9BHwBinder11localBinderEv"
    },
    {
     "mangled_component_name":"_ZN7android8hardware7IBinder12remoteBinderEv"
    },
    {
     "kind":"complete_dtor_pointer",
     "mangled_component_name":"_ZN7android8hardware4wifi10supplicant4V1_032BnHwSupplicantStaNetworkCallbackD1Ev"
    },
    {
     "kind":"deleting_dtor_pointer",
     "mangled_component_name":"_ZN7android8hardware4wifi10supplicant4V1_032BnHwSupplicantStaNetworkCallbackD0Ev"
    },
    {
     "mangled_component_name":"_ZN7android8hardware4wifi10supplicant4V1_032BnHwSupplicantStaNetworkCallback10onTransactEjRKNS0_6ParcelEPS5_jNSt3__18functionIFvRS5_EEE"
    },
    {
     "kind":"offset_to_top",
     "component_value":-20
    },
    {
     "kind":"rtti",
     "mangled_component_name":"_ZTIN7android8hardware4wifi10supplicant4V1_032BnHwSupplicantStaNetworkCallbackE"
    },
    {
     "kind":"complete_dtor_pointer",
     "mangled_component_name":"_ZThn20_N7android8hardware4wifi10supplicant4V1_032BnHwSupplicantStaNetworkCallbackD1Ev"
    },
    {
     "kind":"deleting_dtor_pointer",
     "mangled_component_name":"_ZThn20_N7android8hardware4wifi10supplicant4V1_032BnHwSupplicantStaNetworkCallbackD0Ev"
    },
    {
     "kind":"vcall_offset"
    },
    {
     "kind":"vcall_offset"
    },
    {
     "kind":"vcall_offset"
    },
    {
     "kind":"vcall_offset"
    },
    {
     "kind":"vcall_offset",
     "component_value":-72
    },
    {
     "kind":"offset_to_top",
     "component_value":-72
    },
    {
     "kind":"rtti",
     "mangled_component_name":"_ZTIN7android8hardware4wifi10supplicant4V1_032BnHwSupplicantStaNetworkCallbackE"
    },
    {
     "kind":"complete_dtor_pointer",
     "mangled_component_name":"_ZTv0_n12_N7android8hardware4wifi10supplicant4V1_032BnHwSupplicantStaNetworkCallbackD1Ev"
    },
    {
     "kind":"deleting_dtor_pointer",
     "mangled_component_name":"_ZTv0_n12_N7android8hardware4wifi10supplicant4V1_032BnHwSupplicantStaNetworkCallbackD0Ev"
    },
    {
     "mangled_component_name":"_ZN7android7RefBase10onFirstRefEv"
    },
    {
     "mangled_component_name":"_ZN7android7RefBase15onLastStrongRefEPKv"
    },
    {
     "mangled_component_name":"_ZN7android7RefBase20onIncStrongAttemptedEjPKv"
    },
    {
     "mangled_component_name":"_ZN7android7RefBase13onLastWeakRefEPKv"
    }
   ],
   "unique_id":"_ZTSN7android8hardware4wifi10supplicant4V1_032BnHwSupplicantStaNetworkCallbackE"
  },
  {
   "vtable_components":[
    {
     "kind":"vbase_offset",
     "component_value":60
    },
    {
     "kind":"offset_to_top"
    },
    {
     "kind":"rtti",
     "mangled_component_name":"_ZTIN7android8hardware4wifi10supplicant4V1_030BsSupplicantStaNetworkCallbackE"
    },
    {
     "mangled_component_name":"_ZNK7android8hardware4wifi10supplicant4V1_029ISupplicantStaNetworkCallback8isRemoteEv"
    },
    {
     "mangled_component_name":"_ZN7android8hardware4wifi10supplicant4V1_030BsSupplicantStaNetworkCallback14interfaceChainENSt3__18functionIFvRKNS0_8hidl_vecINS0_11hidl_stringEEEEEE"
    },
    {
     "mangled_component_name":"_ZN7android8hardware4wifi10supplicant4V1_030BsSupplicantStaNetworkCallback5debugERKNS0_11hidl_handleERKNS0_8hidl_vecINS0_11hidl_stringEEE"
    },
    {
     "mangled_component_name":"_ZN7android8hardware4wifi10supplicant4V1_030BsSupplicantStaNetworkCallback19interfaceDescriptorENSt3__18functionIFvRKNS0_11hidl_stringEEEE"
    },
    {
     "mangled_component_name":"_ZN7android8hardware4wifi10supplicant4V1_030BsSupplicantStaNetworkCallback12getHashChainENSt3__18functionIFvRKNS0_8hidl_vecINS0_10hidl_arrayIhLj32EJEEEEEEEE"
    },
    {
     "mangled_component_name":"_ZN7android8hardware4wifi10supplicant4V1_030BsSupplicantStaNetworkCallback21setHALInstrumentationEv"
    },
    {
     "mangled_component_name":"_ZN7android8hardware4wifi10supplicant4V1_030BsSupplicantStaNetworkCallback11linkToDeathERKNS_2spINS0_20hidl_death_recipientEEEy"
    },
    {
     "mangled_component_name":"_ZN7android8hardware4wifi10supplicant4V1_030BsSupplicantStaNetworkCallback4pingEv"
    },
    {
     "mangled_component_name":"_ZN7android8hardware4wifi10supplicant4V1_030BsSupplicantStaNetworkCallback12getDebugInfoENSt3__18functionIFvRKNS_4hidl4base4V1_09DebugInfoEEEE"
    },
    {
     "mangled_component_name":"_ZN7android8hardware4wifi10supplicant4V1_030BsSupplicantStaNetworkCallback21notifySyspropsChangedEv"
    },
    {
     "mangled_component_name":"_ZN7android8hardware4wifi10supplicant4V1_030BsSupplicantStaNetworkCallback13unlinkToDeathERKNS_2spINS0_20hidl_death_recipientEEE"
    },
    {
     "kind":"complete_dtor_pointer",
     "mangled_component_name":"_ZN7android8hardware4wifi10supplicant4V1_030BsSupplicantStaNetworkCallbackD1Ev"
    },
    {
     "kind":"deleting_dtor_pointer",
     "mangled_component_name":"_ZN7android8hardware4wifi10supplicant4V1_030BsSupplicantStaNetworkCallbackD0Ev"
    },
    {
     "mangled_component_name":"_ZN7android8hardware4wifi10supplicant4V1_030BsSupplicantStaNetworkCallback29onNetworkEapSimGsmAuthRequestERKNS3_29ISupplicantStaNetworkCallback33NetworkRequestEapSimGsmAuthParamsE"
    },
    {
     "mangled_component_name":"_ZN7android8hardware4wifi10supplicant4V1_030BsSupplicantStaNetworkCallback30onNetworkEapSimUmtsAuthRequestERKNS3_29ISupplicantStaNetworkCallback34NetworkRequestEapSimUmtsAuthParamsE"
    },
    {
     "mangled_component_name":"_ZN7android8hardware4wifi10supplicant4V1_030BsSupplicantStaNetworkCallback27onNetworkEapIdentityRequestEv"
    },
    {
     "kind":"offset_to_top",
     "component_value":-4
    },
    {
     "kind":"rtti",
     "mangled_component_name":"_ZTIN7android8hardware4wifi10supplicant4V1_030BsSupplicantStaNetworkCallbackE"
    },
    {
     "kind":"complete_dtor_pointer",
     "mangled_component_name":"_ZThn4_N7android8hardware4wifi10supplicant4V1_030BsSupplicantStaNetworkCallbackD1Ev"
    },
    {
     "kind":"deleting_dtor_pointer",
     "mangled_component_name":"_ZThn4_N7android8hardware4wifi10supplicant4V1_030BsSupplicantStaNetworkCallbackD0Ev"
    },
    {
     "kind":"vcall_offset"
    },
    {
     "kind":"vcall_offset"
    },
    {
     "kind":"vcall_offset"
    },
    {
     "kind":"vcall_offset"
    },
    {
     "kind":"vcall_offset",
     "component_value":-60
    },
    {
     "kind":"offset_to_top",
     "component_value":-60
    },
    {
     "kind":"rtti",
     "mangled_component_name":"_ZTIN7android8hardware4wifi10supplicant4V1_030BsSupplicantStaNetworkCallbackE"
    },
    {
     "kind":"complete_dtor_pointer",
     "mangled_component_name":"_ZTv0_n12_N7android8hardware4wifi10supplicant4V1_030BsSupplicantStaNetworkCallbackD1Ev"
    },
    {
     "kind":"deleting_dtor_pointer",
     "mangled_component_name":"_ZTv0_n12_N7android8hardware4wifi10supplicant4V1_030BsSupplicantStaNetworkCallbackD0Ev"
    },
    {
     "mangled_component_name":"_ZN7android7RefBase10onFirstRefEv"
    },
    {
     "mangled_component_name":"_ZN7android7RefBase15onLastStrongRefEPKv"
    },
    {
     "mangled_component_name":"_ZN7android7RefBase20onIncStrongAttemptedEjPKv"
    },
    {
     "mangled_component_name":"_ZN7android7RefBase13onLastWeakRefEPKv"
    }
   ],
   "unique_id":"_ZTSN7android8hardware4wifi10supplicant4V1_030BsSupplicantStaNetworkCallbackE"
  },
  {
   "vtable_components":[
    {
     "kind":"vbase_offset",
     "component_value":72
    },
    {
     "kind":"offset_to_top"
    },
    {
     "kind":"rtti",
     "mangled_component_name":"_ZTIN7android8hardware4wifi10supplicant4V1_019BnHwSupplicantIfaceE"
    },
    {
     "mangled_component_name":"_ZN7android8hardware9BHwBinder8transactEjRKNS0_6ParcelEPS2_jNSt3__18functionIFvRS2_EEE"
    },
    {
     "mangled_component_name":"_ZN7android8hardware9BHwBinder11linkToDeathERKNS_2spINS0_7IBinder14DeathRecipientEEEPvj"
    },
    {
     "mangled_component_name":"_ZN7android8hardware9BHwBinder13unlinkToDeathERKNS_2wpINS0_7IBinder14DeathRecipientEEEPvjPS5_"
    },
    {
     "mangled_component_name":"_ZNK7android8hardware7IBinder13checkSubclassEPKv"
    },
    {
     "mangled_component_name":"_ZN7android8hardware9BHwBinder12attachObjectEPKvPvS4_PFvS3_S4_S4_E"
    },
    {
     "mangled_component_name":"_ZNK7android8hardware9BHwBinder10findObjectEPKv"
    },
    {
     "mangled_component_name":"_ZN7android8hardware9BHwBinder12detachObjectEPKv"
    },
    {
     "mangled_component_name":"_ZN7android8hardware9BHwBinder11localBinderEv"
    },
    {
     "mangled_component_name":"_ZN7android8hardware7IBinder12remoteBinderEv"
    },
    {
     "kind":"complete_dtor_pointer",
     "mangled_component_name":"_ZN7android8hardware4wifi10supplicant4V1_019BnHwSupplicantIfaceD1Ev"
    },
    {
     "kind":"deleting_dtor_pointer",
     "mangled_component_name":"_ZN7android8hardware4wifi10supplicant4V1_019BnHwSupplicantIfaceD0Ev"
    },
    {
     "mangled_component_name":"_ZN7android8hardware4wifi10supplicant4V1_019BnHwSupplicantIface10onTransactEjRKNS0_6ParcelEPS5_jNSt3__18functionIFvRS5_EEE"
    },
    {
     "kind":"offset_to_top",
     "component_value":-20
    },
    {
     "kind":"rtti",
     "mangled_component_name":"_ZTIN7android8hardware4wifi10supplicant4V1_019BnHwSupplicantIfaceE"
    },
    {
     "kind":"complete_dtor_pointer",
     "mangled_component_name":"_ZThn20_N7android8hardware4wifi10supplicant4V1_019BnHwSupplicantIfaceD1Ev"
    },
    {
     "kind":"deleting_dtor_pointer",
     "mangled_component_name":"_ZThn20_N7android8hardware4wifi10supplicant4V1_019BnHwSupplicantIfaceD0Ev"
    },
    {
     "kind":"vcall_offset"
    },
    {
     "kind":"vcall_offset"
    },
    {
     "kind":"vcall_offset"
    },
    {
     "kind":"vcall_offset"
    },
    {
     "kind":"vcall_offset",
     "component_value":-72
    },
    {
     "kind":"offset_to_top",
     "component_value":-72
    },
    {
     "kind":"rtti",
     "mangled_component_name":"_ZTIN7android8hardware4wifi10supplicant4V1_019BnHwSupplicantIfaceE"
    },
    {
     "kind":"complete_dtor_pointer",
     "mangled_component_name":"_ZTv0_n12_N7android8hardware4wifi10supplicant4V1_019BnHwSupplicantIfaceD1Ev"
    },
    {
     "kind":"deleting_dtor_pointer",
     "mangled_component_name":"_ZTv0_n12_N7android8hardware4wifi10supplicant4V1_019BnHwSupplicantIfaceD0Ev"
    },
    {
     "mangled_component_name":"_ZN7android7RefBase10onFirstRefEv"
    },
    {
     "mangled_component_name":"_ZN7android7RefBase15onLastStrongRefEPKv"
    },
    {
     "mangled_component_name":"_ZN7android7RefBase20onIncStrongAttemptedEjPKv"
    },
    {
     "mangled_component_name":"_ZN7android7RefBase13onLastWeakRefEPKv"
    }
   ],
   "unique_id":"_ZTSN7android8hardware4wifi10supplicant4V1_019BnHwSupplicantIfaceE"
  },
  {
   "vtable_components":[
    {
     "kind":"vbase_offset",
     "component_value":72
    },
    {
     "kind":"offset_to_top"
    },
    {
     "kind":"rtti",
     "mangled_component_name":"_ZTIN7android8hardware4wifi10supplicant4V1_022BnHwSupplicantCallbackE"
    },
    {
     "mangled_component_name":"_ZN7android8hardware9BHwBinder8transactEjRKNS0_6ParcelEPS2_jNSt3__18functionIFvRS2_EEE"
    },
    {
     "mangled_component_name":"_ZN7android8hardware9BHwBinder11linkToDeathERKNS_2spINS0_7IBinder14DeathRecipientEEEPvj"
    },
    {
     "mangled_component_name":"_ZN7android8hardware9BHwBinder13unlinkToDeathERKNS_2wpINS0_7IBinder14DeathRecipientEEEPvjPS5_"
    },
    {
     "mangled_component_name":"_ZNK7android8hardware7IBinder13checkSubclassEPKv"
    },
    {
     "mangled_component_name":"_ZN7android8hardware9BHwBinder12attachObjectEPKvPvS4_PFvS3_S4_S4_E"
    },
    {
     "mangled_component_name":"_ZNK7android8hardware9BHwBinder10findObjectEPKv"
    },
    {
     "mangled_component_name":"_ZN7android8hardware9BHwBinder12detachObjectEPKv"
    },
    {
     "mangled_component_name":"_ZN7android8hardware9BHwBinder11localBinderEv"
    },
    {
     "mangled_component_name":"_ZN7android8hardware7IBinder12remoteBinderEv"
    },
    {
     "kind":"complete_dtor_pointer",
     "mangled_component_name":"_ZN7android8hardware4wifi10supplicant4V1_022BnHwSupplicantCallbackD1Ev"
    },
    {
     "kind":"deleting_dtor_pointer",
     "mangled_component_name":"_ZN7android8hardware4wifi10supplicant4V1_022BnHwSupplicantCallbackD0Ev"
    },
    {
     "mangled_component_name":"_ZN7android8hardware4wifi10supplicant4V1_022BnHwSupplicantCallback10onTransactEjRKNS0_6ParcelEPS5_jNSt3__18functionIFvRS5_EEE"
    },
    {
     "kind":"offset_to_top",
     "component_value":-20
    },
    {
     "kind":"rtti",
     "mangled_component_name":"_ZTIN7android8hardware4wifi10supplicant4V1_022BnHwSupplicantCallbackE"
    },
    {
     "kind":"complete_dtor_pointer",
     "mangled_component_name":"_ZThn20_N7android8hardware4wifi10supplicant4V1_022BnHwSupplicantCallbackD1Ev"
    },
    {
     "kind":"deleting_dtor_pointer",
     "mangled_component_name":"_ZThn20_N7android8hardware4wifi10supplicant4V1_022BnHwSupplicantCallbackD0Ev"
    },
    {
     "kind":"vcall_offset"
    },
    {
     "kind":"vcall_offset"
    },
    {
     "kind":"vcall_offset"
    },
    {
     "kind":"vcall_offset"
    },
    {
     "kind":"vcall_offset",
     "component_value":-72
    },
    {
     "kind":"offset_to_top",
     "component_value":-72
    },
    {
     "kind":"rtti",
     "mangled_component_name":"_ZTIN7android8hardware4wifi10supplicant4V1_022BnHwSupplicantCallbackE"
    },
    {
     "kind":"complete_dtor_pointer",
     "mangled_component_name":"_ZTv0_n12_N7android8hardware4wifi10supplicant4V1_022BnHwSupplicantCallbackD1Ev"
    },
    {
     "kind":"deleting_dtor_pointer",
     "mangled_component_name":"_ZTv0_n12_N7android8hardware4wifi10supplicant4V1_022BnHwSupplicantCallbackD0Ev"
    },
    {
     "mangled_component_name":"_ZN7android7RefBase10onFirstRefEv"
    },
    {
     "mangled_component_name":"_ZN7android7RefBase15onLastStrongRefEPKv"
    },
    {
     "mangled_component_name":"_ZN7android7RefBase20onIncStrongAttemptedEjPKv"
    },
    {
     "mangled_component_name":"_ZN7android7RefBase13onLastWeakRefEPKv"
    }
   ],
   "unique_id":"_ZTSN7android8hardware4wifi10supplicant4V1_022BnHwSupplicantCallbackE"
  },
  {
   "vtable_components":[
    {
     "kind":"vbase_offset",
     "component_value":72
    },
    {
     "kind":"offset_to_top"
    },
    {
     "kind":"rtti",
     "mangled_component_name":"_ZTIN7android8hardware4wifi10supplicant4V1_021BnHwSupplicantNetworkE"
    },
    {
     "mangled_component_name":"_ZN7android8hardware9BHwBinder8transactEjRKNS0_6ParcelEPS2_jNSt3__18functionIFvRS2_EEE"
    },
    {
     "mangled_component_name":"_ZN7android8hardware9BHwBinder11linkToDeathERKNS_2spINS0_7IBinder14DeathRecipientEEEPvj"
    },
    {
     "mangled_component_name":"_ZN7android8hardware9BHwBinder13unlinkToDeathERKNS_2wpINS0_7IBinder14DeathRecipientEEEPvjPS5_"
    },
    {
     "mangled_component_name":"_ZNK7android8hardware7IBinder13checkSubclassEPKv"
    },
    {
     "mangled_component_name":"_ZN7android8hardware9BHwBinder12attachObjectEPKvPvS4_PFvS3_S4_S4_E"
    },
    {
     "mangled_component_name":"_ZNK7android8hardware9BHwBinder10findObjectEPKv"
    },
    {
     "mangled_component_name":"_ZN7android8hardware9BHwBinder12detachObjectEPKv"
    },
    {
     "mangled_component_name":"_ZN7android8hardware9BHwBinder11localBinderEv"
    },
    {
     "mangled_component_name":"_ZN7android8hardware7IBinder12remoteBinderEv"
    },
    {
     "kind":"complete_dtor_pointer",
     "mangled_component_name":"_ZN7android8hardware4wifi10supplicant4V1_021BnHwSupplicantNetworkD1Ev"
    },
    {
     "kind":"deleting_dtor_pointer",
     "mangled_component_name":"_ZN7android8hardware4wifi10supplicant4V1_021BnHwSupplicantNetworkD0Ev"
    },
    {
     "mangled_component_name":"_ZN7android8hardware4wifi10supplicant4V1_021BnHwSupplicantNetwork10onTransactEjRKNS0_6ParcelEPS5_jNSt3__18functionIFvRS5_EEE"
    },
    {
     "kind":"offset_to_top",
     "component_value":-20
    },
    {
     "kind":"rtti",
     "mangled_component_name":"_ZTIN7android8hardware4wifi10supplicant4V1_021BnHwSupplicantNetworkE"
    },
    {
     "kind":"complete_dtor_pointer",
     "mangled_component_name":"_ZThn20_N7android8hardware4wifi10supplicant4V1_021BnHwSupplicantNetworkD1Ev"
    },
    {
     "kind":"deleting_dtor_pointer",
     "mangled_component_name":"_ZThn20_N7android8hardware4wifi10supplicant4V1_021BnHwSupplicantNetworkD0Ev"
    },
    {
     "kind":"vcall_offset"
    },
    {
     "kind":"vcall_offset"
    },
    {
     "kind":"vcall_offset"
    },
    {
     "kind":"vcall_offset"
    },
    {
     "kind":"vcall_offset",
     "component_value":-72
    },
    {
     "kind":"offset_to_top",
     "component_value":-72
    },
    {
     "kind":"rtti",
     "mangled_component_name":"_ZTIN7android8hardware4wifi10supplicant4V1_021BnHwSupplicantNetworkE"
    },
    {
     "kind":"complete_dtor_pointer",
     "mangled_component_name":"_ZTv0_n12_N7android8hardware4wifi10supplicant4V1_021BnHwSupplicantNetworkD1Ev"
    },
    {
     "kind":"deleting_dtor_pointer",
     "mangled_component_name":"_ZTv0_n12_N7android8hardware4wifi10supplicant4V1_021BnHwSupplicantNetworkD0Ev"
    },
    {
     "mangled_component_name":"_ZN7android7RefBase10onFirstRefEv"
    },
    {
     "mangled_component_name":"_ZN7android7RefBase15onLastStrongRefEPKv"
    },
    {
     "mangled_component_name":"_ZN7android7RefBase20onIncStrongAttemptedEjPKv"
    },
    {
     "mangled_component_name":"_ZN7android7RefBase13onLastWeakRefEPKv"
    }
   ],
   "unique_id":"_ZTSN7android8hardware4wifi10supplicant4V1_021BnHwSupplicantNetworkE"
  },
  {
   "vtable_components":[
    {
     "kind":"vbase_offset",
     "component_value":84
    },
    {
     "kind":"offset_to_top"
    },
    {
     "kind":"rtti",
     "mangled_component_name":"_ZTIN7android8hardware4wifi10supplicant4V1_014BpHwSupplicantE"
    },
    {
     "mangled_component_name":"_ZNK7android8hardware4wifi10supplicant4V1_014BpHwSupplicant8isRemoteEv"
    },
    {
     "mangled_component_name":"_ZN7android8hardware4wifi10supplicant4V1_014BpHwSupplicant14interfaceChainENSt3__18functionIFvRKNS0_8hidl_vecINS0_11hidl_stringEEEEEE"
    },
    {
     "mangled_component_name":"_ZN7android8hardware4wifi10supplicant4V1_014BpHwSupplicant5debugERKNS0_11hidl_handleERKNS0_8hidl_vecINS0_11hidl_stringEEE"
    },
    {
     "mangled_component_name":"_ZN7android8hardware4wifi10supplicant4V1_014BpHwSupplicant19interfaceDescriptorENSt3__18functionIFvRKNS0_11hidl_stringEEEE"
    },
    {
     "mangled_component_name":"_ZN7android8hardware4wifi10supplicant4V1_014BpHwSupplicant12getHashChainENSt3__18functionIFvRKNS0_8hidl_vecINS0_10hidl_arrayIhLj32EJEEEEEEEE"
    },
    {
     "mangled_component_name":"_ZN7android8hardware4wifi10supplicant4V1_014BpHwSupplicant21setHALInstrumentationEv"
    },
    {
     "mangled_component_name":"_ZN7android8hardware4wifi10supplicant4V1_014BpHwSupplicant11linkToDeathERKNS_2spINS0_20hidl_death_recipientEEEy"
    },
    {
     "mangled_component_name":"_ZN7android8hardware4wifi10supplicant4V1_014BpHwSupplicant4pingEv"
    },
    {
     "mangled_component_name":"_ZN7android8hardware4wifi10supplicant4V1_014BpHwSupplicant12getDebugInfoENSt3__18functionIFvRKNS_4hidl4base4V1_09DebugInfoEEEE"
    },
    {
     "mangled_component_name":"_ZN7android8hardware4wifi10supplicant4V1_014BpHwSupplicant21notifySyspropsChangedEv"
    },
    {
     "mangled_component_name":"_ZN7android8hardware4wifi10supplicant4V1_014BpHwSupplicant13unlinkToDeathERKNS_2spINS0_20hidl_death_recipientEEE"
    },
    {
     "kind":"complete_dtor_pointer",
     "mangled_component_name":"_ZN7android8hardware4wifi10supplicant4V1_014BpHwSupplicantD1Ev"
    },
    {
     "kind":"deleting_dtor_pointer",
     "mangled_component_name":"_ZN7android8hardware4wifi10supplicant4V1_014BpHwSupplicantD0Ev"
    },
    {
     "mangled_component_name":"_ZN7android8hardware4wifi10supplicant4V1_014BpHwSupplicant12getInterfaceERKNS3_11ISupplicant9IfaceInfoENSt3__18functionIFvRKNS3_16SupplicantStatusERKNS_2spINS3_16ISupplicantIfaceEEEEEE"
    },
    {
     "mangled_component_name":"_ZN7android8hardware4wifi10supplicant4V1_014BpHwSupplicant14listInterfacesENSt3__18functionIFvRKNS3_16SupplicantStatusERKNS0_8hidl_vecINS3_11ISupplicant9IfaceInfoEEEEEE"
    },
    {
     "mangled_component_name":"_ZN7android8hardware4wifi10supplicant4V1_014BpHwSupplicant16registerCallbackERKNS_2spINS3_19ISupplicantCallbackEEENSt3__18functionIFvRKNS3_16SupplicantStatusEEEE"
    },
    {
     "mangled_component_name":"_ZN7android8hardware4wifi10supplicant4V1_014BpHwSupplicant14setDebugParamsENS3_11ISupplicant10DebugLevelEbbNSt3__18functionIFvRKNS3_16SupplicantStatusEEEE"
    },
    {
     "mangled_component_name":"_ZN7android8hardware4wifi10supplicant4V1_014BpHwSupplicant13getDebugLevelEv"
    },
    {
     "mangled_component_name":"_ZN7android8hardware4wifi10supplicant4V1_014BpHwSupplicant27isDebugShowTimestampEnabledEv"
    },
    {
     "mangled_component_name":"_ZN7android8hardware4wifi10supplicant4V1_014BpHwSupplicant22isDebugShowKeysEnabledEv"
    },
    {
     "mangled_component_name":"_ZN7android8hardware4wifi10supplicant4V1_014BpHwSupplicant22setConcurrencyPriorityENS3_9IfaceTypeENSt3__18functionIFvRKNS3_16SupplicantStatusEEEE"
    },
    {
     "mangled_component_name":"_ZN7android8hardware11BpInterfaceINS0_4wifi10supplicant4V1_011ISupplicantEE10onAsBinderEv"
    },
    {
     "kind":"vbase_offset",
     "component_value":80
    },
    {
     "kind":"offset_to_top",
     "component_value":-4
    },
    {
     "kind":"rtti",
     "mangled_component_name":"_ZTIN7android8hardware4wifi10supplicant4V1_014BpHwSupplicantE"
    },
    {
     "kind":"complete_dtor_pointer",
     "mangled_component_name":"_ZThn4_N7android8hardware4wifi10supplicant4V1_014BpHwSupplicantD1Ev"
    },
    {
     "kind":"deleting_dtor_pointer",
     "mangled_component_name":"_ZThn4_N7android8hardware4wifi10supplicant4V1_014BpHwSupplicantD0Ev"
    },
    {
     "mangled_component_name":"_ZThn4_N7android8hardware11BpInterfaceINS0_4wifi10supplicant4V1_011ISupplicantEE10onAsBinderEv"
    },
    {
     "kind":"vbase_offset",
     "component_value":76
    },
    {
     "kind":"offset_to_top",
     "component_value":-8
    },
    {
     "kind":"rtti",
     "mangled_component_name":"_ZTIN7android8hardware4wifi10supplicant4V1_014BpHwSupplicantE"
    },
    {
     "kind":"complete_dtor_pointer",
     "mangled_component_name":"_ZThn8_N7android8hardware4wifi10supplicant4V1_014BpHwSupplicantD1Ev"
    },
    {
     "kind":"deleting_dtor_pointer",
     "mangled_component_name":"_ZThn8_N7android8hardware4wifi10supplicant4V1_014BpHwSupplicantD0Ev"
    },
    {
     "mangled_component_name":"_ZN7android8hardware11BpHwRefBase10onFirstRefEv"
    },
    {
     "mangled_component_name":"_ZN7android8hardware11BpHwRefBase15onLastStrongRefEPKv"
    },
    {
     "mangled_component_name":"_ZN7android8hardware11BpHwRefBase20onIncStrongAttemptedEjPKv"
    },
    {
     "kind":"offset_to_top",
     "component_value":-24
    },
    {
     "kind":"rtti",
     "mangled_component_name":"_ZTIN7android8hardware4wifi10supplicant4V1_014BpHwSupplicantE"
    },
    {
     "kind":"complete_dtor_pointer",
     "mangled_component_name":"_ZThn24_N7android8hardware4wifi10supplicant4V1_014BpHwSupplicantD1Ev"
    },
    {
     "kind":"deleting_dtor_pointer",
     "mangled_component_name":"_ZThn24_N7android8hardware4wifi10supplicant4V1_014BpHwSupplicantD0Ev"
    },
    {
     "kind":"vcall_offset"
    },
    {
     "kind":"vcall_offset",
     "component_value":-76
    },
    {
     "kind":"vcall_offset",
     "component_value":-76
    },
    {
     "kind":"vcall_offset",
     "component_value":-76
    },
    {
     "kind":"vcall_offset",
     "component_value":-84
    },
    {
     "kind":"offset_to_top",
     "component_value":-84
    },
    {
     "kind":"rtti",
     "mangled_component_name":"_ZTIN7android8hardware4wifi10supplicant4V1_014BpHwSupplicantE"
    },
    {
     "kind":"complete_dtor_pointer",
     "mangled_component_name":"_ZTv0_n12_N7android8hardware4wifi10supplicant4V1_014BpHwSupplicantD1Ev"
    },
    {
     "kind":"deleting_dtor_pointer",
     "mangled_component_name":"_ZTv0_n12_N7android8hardware4wifi10supplicant4V1_014BpHwSupplicantD0Ev"
    },
    {
     "mangled_component_name":"_ZTv0_n16_N7android8hardware11BpHwRefBase10onFirstRefEv"
    },
    {
     "mangled_component_name":"_ZTv0_n20_N7android8hardware11BpHwRefBase15onLastStrongRefEPKv"
    },
    {
     "mangled_component_name":"_ZTv0_n24_N7android8hardware11BpHwRefBase20onIncStrongAttemptedEjPKv"
    },
    {
     "mangled_component_name":"_ZN7android7RefBase13onLastWeakRefEPKv"
    }
   ],
   "unique_id":"_ZTSN7android8hardware4wifi10supplicant4V1_014BpHwSupplicantE"
  },
  {
   "vtable_components":[
    {
     "kind":"vbase_offset",
     "component_value":60
    },
    {
     "kind":"offset_to_top"
    },
    {
     "kind":"rtti",
     "mangled_component_name":"_ZTIN7android8hardware4wifi10supplicant4V1_020BsSupplicantCallbackE"
    },
    {
     "mangled_component_name":"_ZNK7android8hardware4wifi10supplicant4V1_019ISupplicantCallback8isRemoteEv"
    },
    {
     "mangled_component_name":"_ZN7android8hardware4wifi10supplicant4V1_020BsSupplicantCallback14interfaceChainENSt3__18functionIFvRKNS0_8hidl_vecINS0_11hidl_stringEEEEEE"
    },
    {
     "mangled_component_name":"_ZN7android8hardware4wifi10supplicant4V1_020BsSupplicantCallback5debugERKNS0_11hidl_handleERKNS0_8hidl_vecINS0_11hidl_stringEEE"
    },
    {
     "mangled_component_name":"_ZN7android8hardware4wifi10supplicant4V1_020BsSupplicantCallback19interfaceDescriptorENSt3__18functionIFvRKNS0_11hidl_stringEEEE"
    },
    {
     "mangled_component_name":"_ZN7android8hardware4wifi10supplicant4V1_020BsSupplicantCallback12getHashChainENSt3__18functionIFvRKNS0_8hidl_vecINS0_10hidl_arrayIhLj32EJEEEEEEEE"
    },
    {
     "mangled_component_name":"_ZN7android8hardware4wifi10supplicant4V1_020BsSupplicantCallback21setHALInstrumentationEv"
    },
    {
     "mangled_component_name":"_ZN7android8hardware4wifi10supplicant4V1_020BsSupplicantCallback11linkToDeathERKNS_2spINS0_20hidl_death_recipientEEEy"
    },
    {
     "mangled_component_name":"_ZN7android8hardware4wifi10supplicant4V1_020BsSupplicantCallback4pingEv"
    },
    {
     "mangled_component_name":"_ZN7android8hardware4wifi10supplicant4V1_020BsSupplicantCallback12getDebugInfoENSt3__18functionIFvRKNS_4hidl4base4V1_09DebugInfoEEEE"
    },
    {
     "mangled_component_name":"_ZN7android8hardware4wifi10supplicant4V1_020BsSupplicantCallback21notifySyspropsChangedEv"
    },
    {
     "mangled_component_name":"_ZN7android8hardware4wifi10supplicant4V1_020BsSupplicantCallback13unlinkToDeathERKNS_2spINS0_20hidl_death_recipientEEE"
    },
    {
     "kind":"complete_dtor_pointer",
     "mangled_component_name":"_ZN7android8hardware4wifi10supplicant4V1_020BsSupplicantCallbackD1Ev"
    },
    {
     "kind":"deleting_dtor_pointer",
     "mangled_component_name":"_ZN7android8hardware4wifi10supplicant4V1_020BsSupplicantCallbackD0Ev"
    },
    {
     "mangled_component_name":"_ZN7android8hardware4wifi10supplicant4V1_020BsSupplicantCallback18onInterfaceCreatedERKNS0_11hidl_stringE"
    },
    {
     "mangled_component_name":"_ZN7android8hardware4wifi10supplicant4V1_020BsSupplicantCallback18onInterfaceRemovedERKNS0_11hidl_stringE"
    },
    {
     "mangled_component_name":"_ZN7android8hardware4wifi10supplicant4V1_020BsSupplicantCallback13onTerminatingEv"
    },
    {
     "kind":"offset_to_top",
     "component_value":-4
    },
    {
     "kind":"rtti",
     "mangled_component_name":"_ZTIN7android8hardware4wifi10supplicant4V1_020BsSupplicantCallbackE"
    },
    {
     "kind":"complete_dtor_pointer",
     "mangled_component_name":"_ZThn4_N7android8hardware4wifi10supplicant4V1_020BsSupplicantCallbackD1Ev"
    },
    {
     "kind":"deleting_dtor_pointer",
     "mangled_component_name":"_ZThn4_N7android8hardware4wifi10supplicant4V1_020BsSupplicantCallbackD0Ev"
    },
    {
     "kind":"vcall_offset"
    },
    {
     "kind":"vcall_offset"
    },
    {
     "kind":"vcall_offset"
    },
    {
     "kind":"vcall_offset"
    },
    {
     "kind":"vcall_offset",
     "component_value":-60
    },
    {
     "kind":"offset_to_top",
     "component_value":-60
    },
    {
     "kind":"rtti",
     "mangled_component_name":"_ZTIN7android8hardware4wifi10supplicant4V1_020BsSupplicantCallbackE"
    },
    {
     "kind":"complete_dtor_pointer",
     "mangled_component_name":"_ZTv0_n12_N7android8hardware4wifi10supplicant4V1_020BsSupplicantCallbackD1Ev"
    },
    {
     "kind":"deleting_dtor_pointer",
     "mangled_component_name":"_ZTv0_n12_N7android8hardware4wifi10supplicant4V1_020BsSupplicantCallbackD0Ev"
    },
    {
     "mangled_component_name":"_ZN7android7RefBase10onFirstRefEv"
    },
    {
     "mangled_component_name":"_ZN7android7RefBase15onLastStrongRefEPKv"
    },
    {
     "mangled_component_name":"_ZN7android7RefBase20onIncStrongAttemptedEjPKv"
    },
    {
     "mangled_component_name":"_ZN7android7RefBase13onLastWeakRefEPKv"
    }
   ],
   "unique_id":"_ZTSN7android8hardware4wifi10supplicant4V1_020BsSupplicantCallbackE"
  },
  {
   "vtable_components":[
    {
     "kind":"vbase_offset",
     "component_value":60
    },
    {
     "kind":"offset_to_top"
    },
    {
     "kind":"rtti",
     "mangled_component_name":"_ZTIN7android8hardware4wifi10supplicant4V1_012BsSupplicantE"
    },
    {
     "mangled_component_name":"_ZNK7android8hardware4wifi10supplicant4V1_011ISupplicant8isRemoteEv"
    },
    {
     "mangled_component_name":"_ZN7android8hardware4wifi10supplicant4V1_012BsSupplicant14interfaceChainENSt3__18functionIFvRKNS0_8hidl_vecINS0_11hidl_stringEEEEEE"
    },
    {
     "mangled_component_name":"_ZN7android8hardware4wifi10supplicant4V1_012BsSupplicant5debugERKNS0_11hidl_handleERKNS0_8hidl_vecINS0_11hidl_stringEEE"
    },
    {
     "mangled_component_name":"_ZN7android8hardware4wifi10supplicant4V1_012BsSupplicant19interfaceDescriptorENSt3__18functionIFvRKNS0_11hidl_stringEEEE"
    },
    {
     "mangled_component_name":"_ZN7android8hardware4wifi10supplicant4V1_012BsSupplicant12getHashChainENSt3__18functionIFvRKNS0_8hidl_vecINS0_10hidl_arrayIhLj32EJEEEEEEEE"
    },
    {
     "mangled_component_name":"_ZN7android8hardware4wifi10supplicant4V1_012BsSupplicant21setHALInstrumentationEv"
    },
    {
     "mangled_component_name":"_ZN7android8hardware4wifi10supplicant4V1_012BsSupplicant11linkToDeathERKNS_2spINS0_20hidl_death_recipientEEEy"
    },
    {
     "mangled_component_name":"_ZN7android8hardware4wifi10supplicant4V1_012BsSupplicant4pingEv"
    },
    {
     "mangled_component_name":"_ZN7android8hardware4wifi10supplicant4V1_012BsSupplicant12getDebugInfoENSt3__18functionIFvRKNS_4hidl4base4V1_09DebugInfoEEEE"
    },
    {
     "mangled_component_name":"_ZN7android8hardware4wifi10supplicant4V1_012BsSupplicant21notifySyspropsChangedEv"
    },
    {
     "mangled_component_name":"_ZN7android8hardware4wifi10supplicant4V1_012BsSupplicant13unlinkToDeathERKNS_2spINS0_20hidl_death_recipientEEE"
    },
    {
     "kind":"complete_dtor_pointer",
     "mangled_component_name":"_ZN7android8hardware4wifi10supplicant4V1_012BsSupplicantD1Ev"
    },
    {
     "kind":"deleting_dtor_pointer",
     "mangled_component_name":"_ZN7android8hardware4wifi10supplicant4V1_012BsSupplicantD0Ev"
    },
    {
     "mangled_component_name":"_ZN7android8hardware4wifi10supplicant4V1_012BsSupplicant12getInterfaceERKNS3_11ISupplicant9IfaceInfoENSt3__18functionIFvRKNS3_16SupplicantStatusERKNS_2spINS3_16ISupplicantIfaceEEEEEE"
    },
    {
     "mangled_component_name":"_ZN7android8hardware4wifi10supplicant4V1_012BsSupplicant14listInterfacesENSt3__18functionIFvRKNS3_16SupplicantStatusERKNS0_8hidl_vecINS3_11ISupplicant9IfaceInfoEEEEEE"
    },
    {
     "mangled_component_name":"_ZN7android8hardware4wifi10supplicant4V1_012BsSupplicant16registerCallbackERKNS_2spINS3_19ISupplicantCallbackEEENSt3__18functionIFvRKNS3_16SupplicantStatusEEEE"
    },
    {
     "mangled_component_name":"_ZN7android8hardware4wifi10supplicant4V1_012BsSupplicant14setDebugParamsENS3_11ISupplicant10DebugLevelEbbNSt3__18functionIFvRKNS3_16SupplicantStatusEEEE"
    },
    {
     "mangled_component_name":"_ZN7android8hardware4wifi10supplicant4V1_012BsSupplicant13getDebugLevelEv"
    },
    {
     "mangled_component_name":"_ZN7android8hardware4wifi10supplicant4V1_012BsSupplicant27isDebugShowTimestampEnabledEv"
    },
    {
     "mangled_component_name":"_ZN7android8hardware4wifi10supplicant4V1_012BsSupplicant22isDebugShowKeysEnabledEv"
    },
    {
     "mangled_component_name":"_ZN7android8hardware4wifi10supplicant4V1_012BsSupplicant22setConcurrencyPriorityENS3_9IfaceTypeENSt3__18functionIFvRKNS3_16SupplicantStatusEEEE"
    },
    {
     "kind":"offset_to_top",
     "component_value":-4
    },
    {
     "kind":"rtti",
     "mangled_component_name":"_ZTIN7android8hardware4wifi10supplicant4V1_012BsSupplicantE"
    },
    {
     "kind":"complete_dtor_pointer",
     "mangled_component_name":"_ZThn4_N7android8hardware4wifi10supplicant4V1_012BsSupplicantD1Ev"
    },
    {
     "kind":"deleting_dtor_pointer",
     "mangled_component_name":"_ZThn4_N7android8hardware4wifi10supplicant4V1_012BsSupplicantD0Ev"
    },
    {
     "kind":"vcall_offset"
    },
    {
     "kind":"vcall_offset"
    },
    {
     "kind":"vcall_offset"
    },
    {
     "kind":"vcall_offset"
    },
    {
     "kind":"vcall_offset",
     "component_value":-60
    },
    {
     "kind":"offset_to_top",
     "component_value":-60
    },
    {
     "kind":"rtti",
     "mangled_component_name":"_ZTIN7android8hardware4wifi10supplicant4V1_012BsSupplicantE"
    },
    {
     "kind":"complete_dtor_pointer",
     "mangled_component_name":"_ZTv0_n12_N7android8hardware4wifi10supplicant4V1_012BsSupplicantD1Ev"
    },
    {
     "kind":"deleting_dtor_pointer",
     "mangled_component_name":"_ZTv0_n12_N7android8hardware4wifi10supplicant4V1_012BsSupplicantD0Ev"
    },
    {
     "mangled_component_name":"_ZN7android7RefBase10onFirstRefEv"
    },
    {
     "mangled_component_name":"_ZN7android7RefBase15onLastStrongRefEPKv"
    },
    {
     "mangled_component_name":"_ZN7android7RefBase20onIncStrongAttemptedEjPKv"
    },
    {
     "mangled_component_name":"_ZN7android7RefBase13onLastWeakRefEPKv"
    }
   ],
   "unique_id":"_ZTSN7android8hardware4wifi10supplicant4V1_012BsSupplicantE"
  },
  {
   "vtable_components":[
    {
     "kind":"vbase_offset",
     "component_value":60
    },
    {
     "kind":"offset_to_top"
    },
    {
     "kind":"rtti",
     "mangled_component_name":"_ZTIN7android8hardware4wifi10supplicant4V1_019BsSupplicantNetworkE"
    },
    {
     "mangled_component_name":"_ZNK7android8hardware4wifi10supplicant4V1_018ISupplicantNetwork8isRemoteEv"
    },
    {
     "mangled_component_name":"_ZN7android8hardware4wifi10supplicant4V1_019BsSupplicantNetwork14interfaceChainENSt3__18functionIFvRKNS0_8hidl_vecINS0_11hidl_stringEEEEEE"
    },
    {
     "mangled_component_name":"_ZN7android8hardware4wifi10supplicant4V1_019BsSupplicantNetwork5debugERKNS0_11hidl_handleERKNS0_8hidl_vecINS0_11hidl_stringEEE"
    },
    {
     "mangled_component_name":"_ZN7android8hardware4wifi10supplicant4V1_019BsSupplicantNetwork19interfaceDescriptorENSt3__18functionIFvRKNS0_11hidl_stringEEEE"
    },
    {
     "mangled_component_name":"_ZN7android8hardware4wifi10supplicant4V1_019BsSupplicantNetwork12getHashChainENSt3__18functionIFvRKNS0_8hidl_vecINS0_10hidl_arrayIhLj32EJEEEEEEEE"
    },
    {
     "mangled_component_name":"_ZN7android8hardware4wifi10supplicant4V1_019BsSupplicantNetwork21setHALInstrumentationEv"
    },
    {
     "mangled_component_name":"_ZN7android8hardware4wifi10supplicant4V1_019BsSupplicantNetwork11linkToDeathERKNS_2spINS0_20hidl_death_recipientEEEy"
    },
    {
     "mangled_component_name":"_ZN7android8hardware4wifi10supplicant4V1_019BsSupplicantNetwork4pingEv"
    },
    {
     "mangled_component_name":"_ZN7android8hardware4wifi10supplicant4V1_019BsSupplicantNetwork12getDebugInfoENSt3__18functionIFvRKNS_4hidl4base4V1_09DebugInfoEEEE"
    },
    {
     "mangled_component_name":"_ZN7android8hardware4wifi10supplicant4V1_019BsSupplicantNetwork21notifySyspropsChangedEv"
    },
    {
     "mangled_component_name":"_ZN7android8hardware4wifi10supplicant4V1_019BsSupplicantNetwork13unlinkToDeathERKNS_2spINS0_20hidl_death_recipientEEE"
    },
    {
     "kind":"complete_dtor_pointer",
     "mangled_component_name":"_ZN7android8hardware4wifi10supplicant4V1_019BsSupplicantNetworkD1Ev"
    },
    {
     "kind":"deleting_dtor_pointer",
     "mangled_component_name":"_ZN7android8hardware4wifi10supplicant4V1_019BsSupplicantNetworkD0Ev"
    },
    {
     "mangled_component_name":"_ZN7android8hardware4wifi10supplicant4V1_019BsSupplicantNetwork5getIdENSt3__18functionIFvRKNS3_16SupplicantStatusEjEEE"
    },
    {
     "mangled_component_name":"_ZN7android8hardware4wifi10supplicant4V1_019BsSupplicantNetwork16getInterfaceNameENSt3__18functionIFvRKNS3_16SupplicantStatusERKNS0_11hidl_stringEEEE"
    },
    {
     "mangled_component_name":"_ZN7android8hardware4wifi10supplicant4V1_019BsSupplicantNetwork7getTypeENSt3__18functionIFvRKNS3_16SupplicantStatusENS3_9IfaceTypeEEEE"
    },
    {
     "kind":"offset_to_top",
     "component_value":-4
    },
    {
     "kind":"rtti",
     "mangled_component_name":"_ZTIN7android8hardware4wifi10supplicant4V1_019BsSupplicantNetworkE"
    },
    {
     "kind":"complete_dtor_pointer",
     "mangled_component_name":"_ZThn4_N7android8hardware4wifi10supplicant4V1_019BsSupplicantNetworkD1Ev"
    },
    {
     "kind":"deleting_dtor_pointer",
     "mangled_component_name":"_ZThn4_N7android8hardware4wifi10supplicant4V1_019BsSupplicantNetworkD0Ev"
    },
    {
     "kind":"vcall_offset"
    },
    {
     "kind":"vcall_offset"
    },
    {
     "kind":"vcall_offset"
    },
    {
     "kind":"vcall_offset"
    },
    {
     "kind":"vcall_offset",
     "component_value":-60
    },
    {
     "kind":"offset_to_top",
     "component_value":-60
    },
    {
     "kind":"rtti",
     "mangled_component_name":"_ZTIN7android8hardware4wifi10supplicant4V1_019BsSupplicantNetworkE"
    },
    {
     "kind":"complete_dtor_pointer",
     "mangled_component_name":"_ZTv0_n12_N7android8hardware4wifi10supplicant4V1_019BsSupplicantNetworkD1Ev"
    },
    {
     "kind":"deleting_dtor_pointer",
     "mangled_component_name":"_ZTv0_n12_N7android8hardware4wifi10supplicant4V1_019BsSupplicantNetworkD0Ev"
    },
    {
     "mangled_component_name":"_ZN7android7RefBase10onFirstRefEv"
    },
    {
     "mangled_component_name":"_ZN7android7RefBase15onLastStrongRefEPKv"
    },
    {
     "mangled_component_name":"_ZN7android7RefBase20onIncStrongAttemptedEjPKv"
    },
    {
     "mangled_component_name":"_ZN7android7RefBase13onLastWeakRefEPKv"
    }
   ],
   "unique_id":"_ZTSN7android8hardware4wifi10supplicant4V1_019BsSupplicantNetworkE"
  },
  {
   "vtable_components":[
    {
     "kind":"vbase_offset",
     "component_value":4
    },
    {
     "kind":"offset_to_top"
    },
    {
     "kind":"rtti",
     "mangled_component_name":"_ZTIN7android8hardware4wifi10supplicant4V1_019ISupplicantCallbackE"
    },
    {
     "mangled_component_name":"_ZNK7android8hardware4wifi10supplicant4V1_019ISupplicantCallback8isRemoteEv"
    },
    {
     "mangled_component_name":"_ZN7android8hardware4wifi10supplicant4V1_019ISupplicantCallback14interfaceChainENSt3__18functionIFvRKNS0_8hidl_vecINS0_11hidl_stringEEEEEE"
    },
    {
     "mangled_component_name":"_ZN7android8hardware4wifi10supplicant4V1_019ISupplicantCallback5debugERKNS0_11hidl_handleERKNS0_8hidl_vecINS0_11hidl_stringEEE"
    },
    {
     "mangled_component_name":"_ZN7android8hardware4wifi10supplicant4V1_019ISupplicantCallback19interfaceDescriptorENSt3__18functionIFvRKNS0_11hidl_stringEEEE"
    },
    {
     "mangled_component_name":"_ZN7android8hardware4wifi10supplicant4V1_019ISupplicantCallback12getHashChainENSt3__18functionIFvRKNS0_8hidl_vecINS0_10hidl_arrayIhLj32EJEEEEEEEE"
    },
    {
     "mangled_component_name":"_ZN7android8hardware4wifi10supplicant4V1_019ISupplicantCallback21setHALInstrumentationEv"
    },
    {
     "mangled_component_name":"_ZN7android8hardware4wifi10supplicant4V1_019ISupplicantCallback11linkToDeathERKNS_2spINS0_20hidl_death_recipientEEEy"
    },
    {
     "mangled_component_name":"_ZN7android8hardware4wifi10supplicant4V1_019ISupplicantCallback4pingEv"
    },
    {
     "mangled_component_name":"_ZN7android8hardware4wifi10supplicant4V1_019ISupplicantCallback12getDebugInfoENSt3__18functionIFvRKNS_4hidl4base4V1_09DebugInfoEEEE"
    },
    {
     "mangled_component_name":"_ZN7android8hardware4wifi10supplicant4V1_019ISupplicantCallback21notifySyspropsChangedEv"
    },
    {
     "mangled_component_name":"_ZN7android8hardware4wifi10supplicant4V1_019ISupplicantCallback13unlinkToDeathERKNS_2spINS0_20hidl_death_recipientEEE"
    },
    {
     "kind":"complete_dtor_pointer",
     "mangled_component_name":"_ZN7android8hardware4wifi10supplicant4V1_019ISupplicantCallbackD1Ev"
    },
    {
     "kind":"deleting_dtor_pointer",
     "mangled_component_name":"_ZN7android8hardware4wifi10supplicant4V1_019ISupplicantCallbackD0Ev"
    },
    {
     "is_pure":true,
     "mangled_component_name":"_ZN7android8hardware4wifi10supplicant4V1_019ISupplicantCallback18onInterfaceCreatedERKNS0_11hidl_stringE"
    },
    {
     "is_pure":true,
     "mangled_component_name":"_ZN7android8hardware4wifi10supplicant4V1_019ISupplicantCallback18onInterfaceRemovedERKNS0_11hidl_stringE"
    },
    {
     "is_pure":true,
     "mangled_component_name":"_ZN7android8hardware4wifi10supplicant4V1_019ISupplicantCallback13onTerminatingEv"
    },
    {
     "kind":"vcall_offset"
    },
    {
     "kind":"vcall_offset"
    },
    {
     "kind":"vcall_offset"
    },
    {
     "kind":"vcall_offset"
    },
    {
     "kind":"vcall_offset",
     "component_value":-4
    },
    {
     "kind":"offset_to_top",
     "component_value":-4
    },
    {
     "kind":"rtti",
     "mangled_component_name":"_ZTIN7android8hardware4wifi10supplicant4V1_019ISupplicantCallbackE"
    },
    {
     "kind":"complete_dtor_pointer",
     "mangled_component_name":"_ZTv0_n12_N7android8hardware4wifi10supplicant4V1_019ISupplicantCallbackD1Ev"
    },
    {
     "kind":"deleting_dtor_pointer",
     "mangled_component_name":"_ZTv0_n12_N7android8hardware4wifi10supplicant4V1_019ISupplicantCallbackD0Ev"
    },
    {
     "mangled_component_name":"_ZN7android7RefBase10onFirstRefEv"
    },
    {
     "mangled_component_name":"_ZN7android7RefBase15onLastStrongRefEPKv"
    },
    {
     "mangled_component_name":"_ZN7android7RefBase20onIncStrongAttemptedEjPKv"
    },
    {
     "mangled_component_name":"_ZN7android7RefBase13onLastWeakRefEPKv"
    }
   ],
   "unique_id":"_ZTSN7android8hardware4wifi10supplicant4V1_019ISupplicantCallbackE"
  },
  {
   "vtable_components":[
    {
     "kind":"vbase_offset",
     "component_value":84
    },
    {
     "kind":"offset_to_top"
    },
    {
     "kind":"rtti",
     "mangled_component_name":"_ZTIN7android8hardware4wifi10supplicant4V1_022BpHwSupplicantCallbackE"
    },
    {
     "mangled_component_name":"_ZNK7android8hardware4wifi10supplicant4V1_022BpHwSupplicantCallback8isRemoteEv"
    },
    {
     "mangled_component_name":"_ZN7android8hardware4wifi10supplicant4V1_022BpHwSupplicantCallback14interfaceChainENSt3__18functionIFvRKNS0_8hidl_vecINS0_11hidl_stringEEEEEE"
    },
    {
     "mangled_component_name":"_ZN7android8hardware4wifi10supplicant4V1_022BpHwSupplicantCallback5debugERKNS0_11hidl_handleERKNS0_8hidl_vecINS0_11hidl_stringEEE"
    },
    {
     "mangled_component_name":"_ZN7android8hardware4wifi10supplicant4V1_022BpHwSupplicantCallback19interfaceDescriptorENSt3__18functionIFvRKNS0_11hidl_stringEEEE"
    },
    {
     "mangled_component_name":"_ZN7android8hardware4wifi10supplicant4V1_022BpHwSupplicantCallback12getHashChainENSt3__18functionIFvRKNS0_8hidl_vecINS0_10hidl_arrayIhLj32EJEEEEEEEE"
    },
    {
     "mangled_component_name":"_ZN7android8hardware4wifi10supplicant4V1_022BpHwSupplicantCallback21setHALInstrumentationEv"
    },
    {
     "mangled_component_name":"_ZN7android8hardware4wifi10supplicant4V1_022BpHwSupplicantCallback11linkToDeathERKNS_2spINS0_20hidl_death_recipientEEEy"
    },
    {
     "mangled_component_name":"_ZN7android8hardware4wifi10supplicant4V1_022BpHwSupplicantCallback4pingEv"
    },
    {
     "mangled_component_name":"_ZN7android8hardware4wifi10supplicant4V1_022BpHwSupplicantCallback12getDebugInfoENSt3__18functionIFvRKNS_4hidl4base4V1_09DebugInfoEEEE"
    },
    {
     "mangled_component_name":"_ZN7android8hardware4wifi10supplicant4V1_022BpHwSupplicantCallback21notifySyspropsChangedEv"
    },
    {
     "mangled_component_name":"_ZN7android8hardware4wifi10supplicant4V1_022BpHwSupplicantCallback13unlinkToDeathERKNS_2spINS0_20hidl_death_recipientEEE"
    },
    {
     "kind":"complete_dtor_pointer",
     "mangled_component_name":"_ZN7android8hardware4wifi10supplicant4V1_022BpHwSupplicantCallbackD1Ev"
    },
    {
     "kind":"deleting_dtor_pointer",
     "mangled_component_name":"_ZN7android8hardware4wifi10supplicant4V1_022BpHwSupplicantCallbackD0Ev"
    },
    {
     "mangled_component_name":"_ZN7android8hardware4wifi10supplicant4V1_022BpHwSupplicantCallback18onInterfaceCreatedERKNS0_11hidl_stringE"
    },
    {
     "mangled_component_name":"_ZN7android8hardware4wifi10supplicant4V1_022BpHwSupplicantCallback18onInterfaceRemovedERKNS0_11hidl_stringE"
    },
    {
     "mangled_component_name":"_ZN7android8hardware4wifi10supplicant4V1_022BpHwSupplicantCallback13onTerminatingEv"
    },
    {
     "mangled_component_name":"_ZN7android8hardware11BpInterfaceINS0_4wifi10supplicant4V1_019ISupplicantCallbackEE10onAsBinderEv"
    },
    {
     "kind":"vbase_offset",
     "component_value":80
    },
    {
     "kind":"offset_to_top",
     "component_value":-4
    },
    {
     "kind":"rtti",
     "mangled_component_name":"_ZTIN7android8hardware4wifi10supplicant4V1_022BpHwSupplicantCallbackE"
    },
    {
     "kind":"complete_dtor_pointer",
     "mangled_component_name":"_ZThn4_N7android8hardware4wifi10supplicant4V1_022BpHwSupplicantCallbackD1Ev"
    },
    {
     "kind":"deleting_dtor_pointer",
     "mangled_component_name":"_ZThn4_N7android8hardware4wifi10supplicant4V1_022BpHwSupplicantCallbackD0Ev"
    },
    {
     "mangled_component_name":"_ZThn4_N7android8hardware11BpInterfaceINS0_4wifi10supplicant4V1_019ISupplicantCallbackEE10onAsBinderEv"
    },
    {
     "kind":"vbase_offset",
     "component_value":76
    },
    {
     "kind":"offset_to_top",
     "component_value":-8
    },
    {
     "kind":"rtti",
     "mangled_component_name":"_ZTIN7android8hardware4wifi10supplicant4V1_022BpHwSupplicantCallbackE"
    },
    {
     "kind":"complete_dtor_pointer",
     "mangled_component_name":"_ZThn8_N7android8hardware4wifi10supplicant4V1_022BpHwSupplicantCallbackD1Ev"
    },
    {
     "kind":"deleting_dtor_pointer",
     "mangled_component_name":"_ZThn8_N7android8hardware4wifi10supplicant4V1_022BpHwSupplicantCallbackD0Ev"
    },
    {
     "mangled_component_name":"_ZN7android8hardware11BpHwRefBase10onFirstRefEv"
    },
    {
     "mangled_component_name":"_ZN7android8hardware11BpHwRefBase15onLastStrongRefEPKv"
    },
    {
     "mangled_component_name":"_ZN7android8hardware11BpHwRefBase20onIncStrongAttemptedEjPKv"
    },
    {
     "kind":"offset_to_top",
     "component_value":-24
    },
    {
     "kind":"rtti",
     "mangled_component_name":"_ZTIN7android8hardware4wifi10supplicant4V1_022BpHwSupplicantCallbackE"
    },
    {
     "kind":"complete_dtor_pointer",
     "mangled_component_name":"_ZThn24_N7android8hardware4wifi10supplicant4V1_022BpHwSupplicantCallbackD1Ev"
    },
    {
     "kind":"deleting_dtor_pointer",
     "mangled_component_name":"_ZThn24_N7android8hardware4wifi10supplicant4V1_022BpHwSupplicantCallbackD0Ev"
    },
    {
     "kind":"vcall_offset"
    },
    {
     "kind":"vcall_offset",
     "component_value":-76
    },
    {
     "kind":"vcall_offset",
     "component_value":-76
    },
    {
     "kind":"vcall_offset",
     "component_value":-76
    },
    {
     "kind":"vcall_offset",
     "component_value":-84
    },
    {
     "kind":"offset_to_top",
     "component_value":-84
    },
    {
     "kind":"rtti",
     "mangled_component_name":"_ZTIN7android8hardware4wifi10supplicant4V1_022BpHwSupplicantCallbackE"
    },
    {
     "kind":"complete_dtor_pointer",
     "mangled_component_name":"_ZTv0_n12_N7android8hardware4wifi10supplicant4V1_022BpHwSupplicantCallbackD1Ev"
    },
    {
     "kind":"deleting_dtor_pointer",
     "mangled_component_name":"_ZTv0_n12_N7android8hardware4wifi10supplicant4V1_022BpHwSupplicantCallbackD0Ev"
    },
    {
     "mangled_component_name":"_ZTv0_n16_N7android8hardware11BpHwRefBase10onFirstRefEv"
    },
    {
     "mangled_component_name":"_ZTv0_n20_N7android8hardware11BpHwRefBase15onLastStrongRefEPKv"
    },
    {
     "mangled_component_name":"_ZTv0_n24_N7android8hardware11BpHwRefBase20onIncStrongAttemptedEjPKv"
    },
    {
     "mangled_component_name":"_ZN7android7RefBase13onLastWeakRefEPKv"
    }
   ],
   "unique_id":"_ZTSN7android8hardware4wifi10supplicant4V1_022BpHwSupplicantCallbackE"
  },
  {
   "vtable_components":[
    {
     "kind":"vbase_offset",
     "component_value":72
    },
    {
     "kind":"offset_to_top"
    },
    {
     "kind":"rtti",
     "mangled_component_name":"_ZTIN7android8hardware4wifi10supplicant4V1_022BnHwSupplicantP2pIfaceE"
    },
    {
     "mangled_component_name":"_ZN7android8hardware9BHwBinder8transactEjRKNS0_6ParcelEPS2_jNSt3__18functionIFvRS2_EEE"
    },
    {
     "mangled_component_name":"_ZN7android8hardware9BHwBinder11linkToDeathERKNS_2spINS0_7IBinder14DeathRecipientEEEPvj"
    },
    {
     "mangled_component_name":"_ZN7android8hardware9BHwBinder13unlinkToDeathERKNS_2wpINS0_7IBinder14DeathRecipientEEEPvjPS5_"
    },
    {
     "mangled_component_name":"_ZNK7android8hardware7IBinder13checkSubclassEPKv"
    },
    {
     "mangled_component_name":"_ZN7android8hardware9BHwBinder12attachObjectEPKvPvS4_PFvS3_S4_S4_E"
    },
    {
     "mangled_component_name":"_ZNK7android8hardware9BHwBinder10findObjectEPKv"
    },
    {
     "mangled_component_name":"_ZN7android8hardware9BHwBinder12detachObjectEPKv"
    },
    {
     "mangled_component_name":"_ZN7android8hardware9BHwBinder11localBinderEv"
    },
    {
     "mangled_component_name":"_ZN7android8hardware7IBinder12remoteBinderEv"
    },
    {
     "kind":"complete_dtor_pointer",
     "mangled_component_name":"_ZN7android8hardware4wifi10supplicant4V1_022BnHwSupplicantP2pIfaceD1Ev"
    },
    {
     "kind":"deleting_dtor_pointer",
     "mangled_component_name":"_ZN7android8hardware4wifi10supplicant4V1_022BnHwSupplicantP2pIfaceD0Ev"
    },
    {
     "mangled_component_name":"_ZN7android8hardware4wifi10supplicant4V1_022BnHwSupplicantP2pIface10onTransactEjRKNS0_6ParcelEPS5_jNSt3__18functionIFvRS5_EEE"
    },
    {
     "kind":"offset_to_top",
     "component_value":-20
    },
    {
     "kind":"rtti",
     "mangled_component_name":"_ZTIN7android8hardware4wifi10supplicant4V1_022BnHwSupplicantP2pIfaceE"
    },
    {
     "kind":"complete_dtor_pointer",
     "mangled_component_name":"_ZThn20_N7android8hardware4wifi10supplicant4V1_022BnHwSupplicantP2pIfaceD1Ev"
    },
    {
     "kind":"deleting_dtor_pointer",
     "mangled_component_name":"_ZThn20_N7android8hardware4wifi10supplicant4V1_022BnHwSupplicantP2pIfaceD0Ev"
    },
    {
     "kind":"vcall_offset"
    },
    {
     "kind":"vcall_offset"
    },
    {
     "kind":"vcall_offset"
    },
    {
     "kind":"vcall_offset"
    },
    {
     "kind":"vcall_offset",
     "component_value":-72
    },
    {
     "kind":"offset_to_top",
     "component_value":-72
    },
    {
     "kind":"rtti",
     "mangled_component_name":"_ZTIN7android8hardware4wifi10supplicant4V1_022BnHwSupplicantP2pIfaceE"
    },
    {
     "kind":"complete_dtor_pointer",
     "mangled_component_name":"_ZTv0_n12_N7android8hardware4wifi10supplicant4V1_022BnHwSupplicantP2pIfaceD1Ev"
    },
    {
     "kind":"deleting_dtor_pointer",
     "mangled_component_name":"_ZTv0_n12_N7android8hardware4wifi10supplicant4V1_022BnHwSupplicantP2pIfaceD0Ev"
    },
    {
     "mangled_component_name":"_ZN7android7RefBase10onFirstRefEv"
    },
    {
     "mangled_component_name":"_ZN7android7RefBase15onLastStrongRefEPKv"
    },
    {
     "mangled_component_name":"_ZN7android7RefBase20onIncStrongAttemptedEjPKv"
    },
    {
     "mangled_component_name":"_ZN7android7RefBase13onLastWeakRefEPKv"
    }
   ],
   "unique_id":"_ZTSN7android8hardware4wifi10supplicant4V1_022BnHwSupplicantP2pIfaceE"
  },
  {
   "vtable_components":[
    {
     "kind":"vbase_offset",
     "component_value":4
    },
    {
     "kind":"offset_to_top"
    },
    {
     "kind":"rtti",
     "mangled_component_name":"_ZTIN7android8hardware4wifi10supplicant4V1_019ISupplicantP2pIfaceE"
    },
    {
     "mangled_component_name":"_ZNK7android8hardware4wifi10supplicant4V1_019ISupplicantP2pIface8isRemoteEv"
    },
    {
     "mangled_component_name":"_ZN7android8hardware4wifi10supplicant4V1_019ISupplicantP2pIface14interfaceChainENSt3__18functionIFvRKNS0_8hidl_vecINS0_11hidl_stringEEEEEE"
    },
    {
     "mangled_component_name":"_ZN7android8hardware4wifi10supplicant4V1_019ISupplicantP2pIface5debugERKNS0_11hidl_handleERKNS0_8hidl_vecINS0_11hidl_stringEEE"
    },
    {
     "mangled_component_name":"_ZN7android8hardware4wifi10supplicant4V1_019ISupplicantP2pIface19interfaceDescriptorENSt3__18functionIFvRKNS0_11hidl_stringEEEE"
    },
    {
     "mangled_component_name":"_ZN7android8hardware4wifi10supplicant4V1_019ISupplicantP2pIface12getHashChainENSt3__18functionIFvRKNS0_8hidl_vecINS0_10hidl_arrayIhLj32EJEEEEEEEE"
    },
    {
     "mangled_component_name":"_ZN7android8hardware4wifi10supplicant4V1_019ISupplicantP2pIface21setHALInstrumentationEv"
    },
    {
     "mangled_component_name":"_ZN7android8hardware4wifi10supplicant4V1_019ISupplicantP2pIface11linkToDeathERKNS_2spINS0_20hidl_death_recipientEEEy"
    },
    {
     "mangled_component_name":"_ZN7android8hardware4wifi10supplicant4V1_019ISupplicantP2pIface4pingEv"
    },
    {
     "mangled_component_name":"_ZN7android8hardware4wifi10supplicant4V1_019ISupplicantP2pIface12getDebugInfoENSt3__18functionIFvRKNS_4hidl4base4V1_09DebugInfoEEEE"
    },
    {
     "mangled_component_name":"_ZN7android8hardware4wifi10supplicant4V1_019ISupplicantP2pIface21notifySyspropsChangedEv"
    },
    {
     "mangled_component_name":"_ZN7android8hardware4wifi10supplicant4V1_019ISupplicantP2pIface13unlinkToDeathERKNS_2spINS0_20hidl_death_recipientEEE"
    },
    {
     "kind":"complete_dtor_pointer",
     "mangled_component_name":"_ZN7android8hardware4wifi10supplicant4V1_019ISupplicantP2pIfaceD1Ev"
    },
    {
     "kind":"deleting_dtor_pointer",
     "mangled_component_name":"_ZN7android8hardware4wifi10supplicant4V1_019ISupplicantP2pIfaceD0Ev"
    },
    {
     "is_pure":true,
     "mangled_component_name":"_ZN7android8hardware4wifi10supplicant4V1_019ISupplicantP2pIface7getNameENSt3__18functionIFvRKNS3_16SupplicantStatusERKNS0_11hidl_stringEEEE"
    },
    {
     "is_pure":true,
     "mangled_component_name":"_ZN7android8hardware4wifi10supplicant4V1_019ISupplicantP2pIface7getTypeENSt3__18functionIFvRKNS3_16SupplicantStatusENS3_9IfaceTypeEEEE"
    },
    {
     "is_pure":true,
     "mangled_component_name":"_ZN7android8hardware4wifi10supplicant4V1_019ISupplicantP2pIface10addNetworkENSt3__18functionIFvRKNS3_16SupplicantStatusERKNS_2spINS3_18ISupplicantNetworkEEEEEE"
    },
    {
     "is_pure":true,
     "mangled_component_name":"_ZN7android8hardware4wifi10supplicant4V1_019ISupplicantP2pIface13removeNetworkEjNSt3__18functionIFvRKNS3_16SupplicantStatusEEEE"
    },
    {
     "is_pure":true,
     "mangled_component_name":"_ZN7android8hardware4wifi10supplicant4V1_019ISupplicantP2pIface10getNetworkEjNSt3__18functionIFvRKNS3_16SupplicantStatusERKNS_2spINS3_18ISupplicantNetworkEEEEEE"
    },
    {
     "is_pure":true,
     "mangled_component_name":"_ZN7android8hardware4wifi10supplicant4V1_019ISupplicantP2pIface12listNetworksENSt3__18functionIFvRKNS3_16SupplicantStatusERKNS0_8hidl_vecIjEEEEE"
    },
    {
     "is_pure":true,
     "mangled_component_name":"_ZN7android8hardware4wifi10supplicant4V1_019ISupplicantP2pIface16setWpsDeviceNameERKNS0_11hidl_stringENSt3__18functionIFvRKNS3_16SupplicantStatusEEEE"
    },
    {
     "is_pure":true,
     "mangled_component_name":"_ZN7android8hardware4wifi10supplicant4V1_019ISupplicantP2pIface16setWpsDeviceTypeERKNS0_10hidl_arrayIhLj8EJEEENSt3__18functionIFvRKNS3_16SupplicantStatusEEEE"
    },
    {
     "is_pure":true,
     "mangled_component_name":"_ZN7android8hardware4wifi10supplicant4V1_019ISupplicantP2pIface18setWpsManufacturerERKNS0_11hidl_stringENSt3__18functionIFvRKNS3_16SupplicantStatusEEEE"
    },
    {
     "is_pure":true,
     "mangled_component_name":"_ZN7android8hardware4wifi10supplicant4V1_019ISupplicantP2pIface15setWpsModelNameERKNS0_11hidl_stringENSt3__18functionIFvRKNS3_16SupplicantStatusEEEE"
    },
    {
     "is_pure":true,
     "mangled_component_name":"_ZN7android8hardware4wifi10supplicant4V1_019ISupplicantP2pIface17setWpsModelNumberERKNS0_11hidl_stringENSt3__18functionIFvRKNS3_16SupplicantStatusEEEE"
    },
    {
     "is_pure":true,
     "mangled_component_name":"_ZN7android8hardware4wifi10supplicant4V1_019ISupplicantP2pIface18setWpsSerialNumberERKNS0_11hidl_stringENSt3__18functionIFvRKNS3_16SupplicantStatusEEEE"
    },
    {
     "is_pure":true,
     "mangled_component_name":"_ZN7android8hardware4wifi10supplicant4V1_019ISupplicantP2pIface19setWpsConfigMethodsEtNSt3__18functionIFvRKNS3_16SupplicantStatusEEEE"
    },
    {
     "is_pure":true,
     "mangled_component_name":"_ZN7android8hardware4wifi10supplicant4V1_019ISupplicantP2pIface16registerCallbackERKNS_2spINS3_27ISupplicantP2pIfaceCallbackEEENSt3__18functionIFvRKNS3_16SupplicantStatusEEEE"
    },
    {
     "is_pure":true,
     "mangled_component_name":"_ZN7android8hardware4wifi10supplicant4V1_019ISupplicantP2pIface16getDeviceAddressENSt3__18functionIFvRKNS3_16SupplicantStatusERKNS0_10hidl_arrayIhLj6EJEEEEEE"
    },
    {
     "is_pure":true,
     "mangled_component_name":"_ZN7android8hardware4wifi10supplicant4V1_019ISupplicantP2pIface14setSsidPostfixERKNS0_8hidl_vecIhEENSt3__18functionIFvRKNS3_16SupplicantStatusEEEE"
    },
    {
     "is_pure":true,
     "mangled_component_name":"_ZN7android8hardware4wifi10supplicant4V1_019ISupplicantP2pIface12setGroupIdleERKNS0_11hidl_stringEjNSt3__18functionIFvRKNS3_16SupplicantStatusEEEE"
    },
    {
     "is_pure":true,
     "mangled_component_name":"_ZN7android8hardware4wifi10supplicant4V1_019ISupplicantP2pIface12setPowerSaveERKNS0_11hidl_stringEbNSt3__18functionIFvRKNS3_16SupplicantStatusEEEE"
    },
    {
     "is_pure":true,
     "mangled_component_name":"_ZN7android8hardware4wifi10supplicant4V1_019ISupplicantP2pIface4findEjNSt3__18functionIFvRKNS3_16SupplicantStatusEEEE"
    },
    {
     "is_pure":true,
     "mangled_component_name":"_ZN7android8hardware4wifi10supplicant4V1_019ISupplicantP2pIface8stopFindENSt3__18functionIFvRKNS3_16SupplicantStatusEEEE"
    },
    {
     "is_pure":true,
     "mangled_component_name":"_ZN7android8hardware4wifi10supplicant4V1_019ISupplicantP2pIface5flushENSt3__18functionIFvRKNS3_16SupplicantStatusEEEE"
    },
    {
     "is_pure":true,
     "mangled_component_name":"_ZN7android8hardware4wifi10supplicant4V1_019ISupplicantP2pIface7connectERKNS0_10hidl_arrayIhLj6EJEEENS4_18WpsProvisionMethodERKNS0_11hidl_stringEbbjNSt3__18functionIFvRKNS3_16SupplicantStatusESC_EEE"
    },
    {
     "is_pure":true,
     "mangled_component_name":"_ZN7android8hardware4wifi10supplicant4V1_019ISupplicantP2pIface13cancelConnectENSt3__18functionIFvRKNS3_16SupplicantStatusEEEE"
    },
    {
     "is_pure":true,
     "mangled_component_name":"_ZN7android8hardware4wifi10supplicant4V1_019ISupplicantP2pIface18provisionDiscoveryERKNS0_10hidl_arrayIhLj6EJEEENS4_18WpsProvisionMethodENSt3__18functionIFvRKNS3_16SupplicantStatusEEEE"
    },
    {
     "is_pure":true,
     "mangled_component_name":"_ZN7android8hardware4wifi10supplicant4V1_019ISupplicantP2pIface8addGroupEbjNSt3__18functionIFvRKNS3_16SupplicantStatusEEEE"
    },
    {
     "is_pure":true,
     "mangled_component_name":"_ZN7android8hardware4wifi10supplicant4V1_019ISupplicantP2pIface11removeGroupERKNS0_11hidl_stringENSt3__18functionIFvRKNS3_16SupplicantStatusEEEE"
    },
    {
     "is_pure":true,
     "mangled_component_name":"_ZN7android8hardware4wifi10supplicant4V1_019ISupplicantP2pIface6rejectERKNS0_10hidl_arrayIhLj6EJEEENSt3__18functionIFvRKNS3_16SupplicantStatusEEEE"
    },
    {
     "is_pure":true,
     "mangled_component_name":"_ZN7android8hardware4wifi10supplicant4V1_019ISupplicantP2pIface6inviteERKNS0_11hidl_stringERKNS0_10hidl_arrayIhLj6EJEEESB_NSt3__18functionIFvRKNS3_16SupplicantStatusEEEE"
    },
    {
     "is_pure":true,
     "mangled_component_name":"_ZN7android8hardware4wifi10supplicant4V1_019ISupplicantP2pIface8reinvokeEjRKNS0_10hidl_arrayIhLj6EJEEENSt3__18functionIFvRKNS3_16SupplicantStatusEEEE"
    },
    {
     "is_pure":true,
     "mangled_component_name":"_ZN7android8hardware4wifi10supplicant4V1_019ISupplicantP2pIface18configureExtListenEjjNSt3__18functionIFvRKNS3_16SupplicantStatusEEEE"
    },
    {
     "is_pure":true,
     "mangled_component_name":"_ZN7android8hardware4wifi10supplicant4V1_019ISupplicantP2pIface16setListenChannelEjjNSt3__18functionIFvRKNS3_16SupplicantStatusEEEE"
    },
    {
     "is_pure":true,
     "mangled_component_name":"_ZN7android8hardware4wifi10supplicant4V1_019ISupplicantP2pIface24setDisallowedFrequenciesERKNS0_8hidl_vecINS4_9FreqRangeEEENSt3__18functionIFvRKNS3_16SupplicantStatusEEEE"
    },
    {
     "is_pure":true,
     "mangled_component_name":"_ZN7android8hardware4wifi10supplicant4V1_019ISupplicantP2pIface7getSsidERKNS0_10hidl_arrayIhLj6EJEEENSt3__18functionIFvRKNS3_16SupplicantStatusERKNS0_8hidl_vecIhEEEEE"
    },
    {
     "is_pure":true,
     "mangled_component_name":"_ZN7android8hardware4wifi10supplicant4V1_019ISupplicantP2pIface18getGroupCapabilityERKNS0_10hidl_arrayIhLj6EJEEENSt3__18functionIFvRKNS3_16SupplicantStatusEjEEE"
    },
    {
     "is_pure":true,
     "mangled_component_name":"_ZN7android8hardware4wifi10supplicant4V1_019ISupplicantP2pIface17addBonjourServiceERKNS0_8hidl_vecIhEES8_NSt3__18functionIFvRKNS3_16SupplicantStatusEEEE"
    },
    {
     "is_pure":true,
     "mangled_component_name":"_ZN7android8hardware4wifi10supplicant4V1_019ISupplicantP2pIface20removeBonjourServiceERKNS0_8hidl_vecIhEENSt3__18functionIFvRKNS3_16SupplicantStatusEEEE"
    },
    {
     "is_pure":true,
     "mangled_component_name":"_ZN7android8hardware4wifi10supplicant4V1_019ISupplicantP2pIface14addUpnpServiceEjRKNS0_11hidl_stringENSt3__18functionIFvRKNS3_16SupplicantStatusEEEE"
    },
    {
     "is_pure":true,
     "mangled_component_name":"_ZN7android8hardware4wifi10supplicant4V1_019ISupplicantP2pIface17removeUpnpServiceEjRKNS0_11hidl_stringENSt3__18functionIFvRKNS3_16SupplicantStatusEEEE"
    },
    {
     "is_pure":true,
     "mangled_component_name":"_ZN7android8hardware4wifi10supplicant4V1_019ISupplicantP2pIface13flushServicesENSt3__18functionIFvRKNS3_16SupplicantStatusEEEE"
    },
    {
     "is_pure":true,
     "mangled_component_name":"_ZN7android8hardware4wifi10supplicant4V1_019ISupplicantP2pIface23requestServiceDiscoveryERKNS0_10hidl_arrayIhLj6EJEEERKNS0_8hidl_vecIhEENSt3__18functionIFvRKNS3_16SupplicantStatusEyEEE"
    },
    {
     "is_pure":true,
     "mangled_component_name":"_ZN7android8hardware4wifi10supplicant4V1_019ISupplicantP2pIface22cancelServiceDiscoveryEyNSt3__18functionIFvRKNS3_16SupplicantStatusEEEE"
    },
    {
     "is_pure":true,
     "mangled_component_name":"_ZN7android8hardware4wifi10supplicant4V1_019ISupplicantP2pIface15setMiracastModeENS4_12MiracastModeENSt3__18functionIFvRKNS3_16SupplicantStatusEEEE"
    },
    {
     "is_pure":true,
     "mangled_component_name":"_ZN7android8hardware4wifi10supplicant4V1_019ISupplicantP2pIface11startWpsPbcERKNS0_11hidl_stringERKNS0_10hidl_arrayIhLj6EJEEENSt3__18functionIFvRKNS3_16SupplicantStatusEEEE"
    },
    {
     "is_pure":true,
     "mangled_component_name":"_ZN7android8hardware4wifi10supplicant4V1_019ISupplicantP2pIface17startWpsPinKeypadERKNS0_11hidl_stringES7_NSt3__18functionIFvRKNS3_16SupplicantStatusEEEE"
    },
    {
     "is_pure":true,
     "mangled_component_name":"_ZN7android8hardware4wifi10supplicant4V1_019ISupplicantP2pIface18startWpsPinDisplayERKNS0_11hidl_stringERKNS0_10hidl_arrayIhLj6EJEEENSt3__18functionIFvRKNS3_16SupplicantStatusES7_EEE"
    },
    {
     "is_pure":true,
     "mangled_component_name":"_ZN7android8hardware4wifi10supplicant4V1_019ISupplicantP2pIface9cancelWpsERKNS0_11hidl_stringENSt3__18functionIFvRKNS3_16SupplicantStatusEEEE"
    },
    {
     "is_pure":true,
     "mangled_component_name":"_ZN7android8hardware4wifi10supplicant4V1_019ISupplicantP2pIface9enableWfdEbNSt3__18functionIFvRKNS3_16SupplicantStatusEEEE"
    },
    {
     "is_pure":true,
     "mangled_component_name":"_ZN7android8hardware4wifi10supplicant4V1_019ISupplicantP2pIface16setWfdDeviceInfoERKNS0_10hidl_arrayIhLj6EJEEENSt3__18functionIFvRKNS3_16SupplicantStatusEEEE"
    },
    {
     "is_pure":true,
     "mangled_component_name":"_ZN7android8hardware4wifi10supplicant4V1_019ISupplicantP2pIface31createNfcHandoverRequestMessageENSt3__18functionIFvRKNS3_16SupplicantStatusERKNS0_8hidl_vecIhEEEEE"
    },
    {
     "is_pure":true,
     "mangled_component_name":"_ZN7android8hardware4wifi10supplicant4V1_019ISupplicantP2pIface30createNfcHandoverSelectMessageENSt3__18functionIFvRKNS3_16SupplicantStatusERKNS0_8hidl_vecIhEEEEE"
    },
    {
     "is_pure":true,
     "mangled_component_name":"_ZN7android8hardware4wifi10supplicant4V1_019ISupplicantP2pIface25reportNfcHandoverResponseERKNS0_8hidl_vecIhEENSt3__18functionIFvRKNS3_16SupplicantStatusEEEE"
    },
    {
     "is_pure":true,
     "mangled_component_name":"_ZN7android8hardware4wifi10supplicant4V1_019ISupplicantP2pIface27reportNfcHandoverInitiationERKNS0_8hidl_vecIhEENSt3__18functionIFvRKNS3_16SupplicantStatusEEEE"
    },
    {
     "is_pure":true,
     "mangled_component_name":"_ZN7android8hardware4wifi10supplicant4V1_019ISupplicantP2pIface10saveConfigENSt3__18functionIFvRKNS3_16SupplicantStatusEEEE"
    },
    {
     "kind":"vcall_offset"
    },
    {
     "kind":"vcall_offset"
    },
    {
     "kind":"vcall_offset"
    },
    {
     "kind":"vcall_offset"
    },
    {
     "kind":"vcall_offset",
     "component_value":-4
    },
    {
     "kind":"offset_to_top",
     "component_value":-4
    },
    {
     "kind":"rtti",
     "mangled_component_name":"_ZTIN7android8hardware4wifi10supplicant4V1_019ISupplicantP2pIfaceE"
    },
    {
     "kind":"complete_dtor_pointer",
     "mangled_component_name":"_ZTv0_n12_N7android8hardware4wifi10supplicant4V1_019ISupplicantP2pIfaceD1Ev"
    },
    {
     "kind":"deleting_dtor_pointer",
     "mangled_component_name":"_ZTv0_n12_N7android8hardware4wifi10supplicant4V1_019ISupplicantP2pIfaceD0Ev"
    },
    {
     "mangled_component_name":"_ZN7android7RefBase10onFirstRefEv"
    },
    {
     "mangled_component_name":"_ZN7android7RefBase15onLastStrongRefEPKv"
    },
    {
     "mangled_component_name":"_ZN7android7RefBase20onIncStrongAttemptedEjPKv"
    },
    {
     "mangled_component_name":"_ZN7android7RefBase13onLastWeakRefEPKv"
    }
   ],
   "unique_id":"_ZTSN7android8hardware4wifi10supplicant4V1_019ISupplicantP2pIfaceE"
  },
  {
   "vtable_components":[
    {
     "kind":"vbase_offset",
     "component_value":4
    },
    {
     "kind":"offset_to_top"
    },
    {
     "kind":"rtti",
     "mangled_component_name":"_ZTIN7android8hardware4wifi10supplicant4V1_027ISupplicantP2pIfaceCallbackE"
    },
    {
     "mangled_component_name":"_ZNK7android8hardware4wifi10supplicant4V1_027ISupplicantP2pIfaceCallback8isRemoteEv"
    },
    {
     "mangled_component_name":"_ZN7android8hardware4wifi10supplicant4V1_027ISupplicantP2pIfaceCallback14interfaceChainENSt3__18functionIFvRKNS0_8hidl_vecINS0_11hidl_stringEEEEEE"
    },
    {
     "mangled_component_name":"_ZN7android8hardware4wifi10supplicant4V1_027ISupplicantP2pIfaceCallback5debugERKNS0_11hidl_handleERKNS0_8hidl_vecINS0_11hidl_stringEEE"
    },
    {
     "mangled_component_name":"_ZN7android8hardware4wifi10supplicant4V1_027ISupplicantP2pIfaceCallback19interfaceDescriptorENSt3__18functionIFvRKNS0_11hidl_stringEEEE"
    },
    {
     "mangled_component_name":"_ZN7android8hardware4wifi10supplicant4V1_027ISupplicantP2pIfaceCallback12getHashChainENSt3__18functionIFvRKNS0_8hidl_vecINS0_10hidl_arrayIhLj32EJEEEEEEEE"
    },
    {
     "mangled_component_name":"_ZN7android8hardware4wifi10supplicant4V1_027ISupplicantP2pIfaceCallback21setHALInstrumentationEv"
    },
    {
     "mangled_component_name":"_ZN7android8hardware4wifi10supplicant4V1_027ISupplicantP2pIfaceCallback11linkToDeathERKNS_2spINS0_20hidl_death_recipientEEEy"
    },
    {
     "mangled_component_name":"_ZN7android8hardware4wifi10supplicant4V1_027ISupplicantP2pIfaceCallback4pingEv"
    },
    {
     "mangled_component_name":"_ZN7android8hardware4wifi10supplicant4V1_027ISupplicantP2pIfaceCallback12getDebugInfoENSt3__18functionIFvRKNS_4hidl4base4V1_09DebugInfoEEEE"
    },
    {
     "mangled_component_name":"_ZN7android8hardware4wifi10supplicant4V1_027ISupplicantP2pIfaceCallback21notifySyspropsChangedEv"
    },
    {
     "mangled_component_name":"_ZN7android8hardware4wifi10supplicant4V1_027ISupplicantP2pIfaceCallback13unlinkToDeathERKNS_2spINS0_20hidl_death_recipientEEE"
    },
    {
     "kind":"complete_dtor_pointer",
     "mangled_component_name":"_ZN7android8hardware4wifi10supplicant4V1_027ISupplicantP2pIfaceCallbackD1Ev"
    },
    {
     "kind":"deleting_dtor_pointer",
     "mangled_component_name":"_ZN7android8hardware4wifi10supplicant4V1_027ISupplicantP2pIfaceCallbackD0Ev"
    },
    {
     "is_pure":true,
     "mangled_component_name":"_ZN7android8hardware4wifi10supplicant4V1_027ISupplicantP2pIfaceCallback14onNetworkAddedEj"
    },
    {
     "is_pure":true,
     "mangled_component_name":"_ZN7android8hardware4wifi10supplicant4V1_027ISupplicantP2pIfaceCallback16onNetworkRemovedEj"
    },
    {
     "is_pure":true,
     "mangled_component_name":"_ZN7android8hardware4wifi10supplicant4V1_027ISupplicantP2pIfaceCallback13onDeviceFoundERKNS0_10hidl_arrayIhLj6EJEEES8_RKNS5_IhLj8EJEEERKNS0_11hidl_stringEthjS8_"
    },
    {
     "is_pure":true,
     "mangled_component_name":"_ZN7android8hardware4wifi10supplicant4V1_027ISupplicantP2pIfaceCallback12onDeviceLostERKNS0_10hidl_arrayIhLj6EJEEE"
    },
    {
     "is_pure":true,
     "mangled_component_name":"_ZN7android8hardware4wifi10supplicant4V1_027ISupplicantP2pIfaceCallback13onFindStoppedEv"
    },
    {
     "is_pure":true,
     "mangled_component_name":"_ZN7android8hardware4wifi10supplicant4V1_027ISupplicantP2pIfaceCallback22onGoNegotiationRequestERKNS0_10hidl_arrayIhLj6EJEEENS4_16WpsDevPasswordIdE"
    },
    {
     "is_pure":true,
     "mangled_component_name":"_ZN7android8hardware4wifi10supplicant4V1_027ISupplicantP2pIfaceCallback24onGoNegotiationCompletedENS4_13P2pStatusCodeE"
    },
    {
     "is_pure":true,
     "mangled_component_name":"_ZN7android8hardware4wifi10supplicant4V1_027ISupplicantP2pIfaceCallback23onGroupFormationSuccessEv"
    },
    {
     "is_pure":true,
     "mangled_component_name":"_ZN7android8hardware4wifi10supplicant4V1_027ISupplicantP2pIfaceCallback23onGroupFormationFailureERKNS0_11hidl_stringE"
    },
    {
     "is_pure":true,
     "mangled_component_name":"_ZN7android8hardware4wifi10supplicant4V1_027ISupplicantP2pIfaceCallback14onGroupStartedERKNS0_11hidl_stringEbRKNS0_8hidl_vecIhEEjRKNS0_10hidl_arrayIhLj32EJEEES7_RKNSC_IhLj6EJEEEb"
    },
    {
     "is_pure":true,
     "mangled_component_name":"_ZN7android8hardware4wifi10supplicant4V1_027ISupplicantP2pIfaceCallback14onGroupRemovedERKNS0_11hidl_stringEb"
    },
    {
     "is_pure":true,
     "mangled_component_name":"_ZN7android8hardware4wifi10supplicant4V1_027ISupplicantP2pIfaceCallback20onInvitationReceivedERKNS0_10hidl_arrayIhLj6EJEEES8_S8_jj"
    },
    {
     "is_pure":true,
     "mangled_component_name":"_ZN7android8hardware4wifi10supplicant4V1_027ISupplicantP2pIfaceCallback18onInvitationResultERKNS0_10hidl_arrayIhLj6EJEEENS4_13P2pStatusCodeE"
    },
    {
     "is_pure":true,
     "mangled_component_name":"_ZN7android8hardware4wifi10supplicant4V1_027ISupplicantP2pIfaceCallback29onProvisionDiscoveryCompletedERKNS0_10hidl_arrayIhLj6EJEEEbNS4_21P2pProvDiscStatusCodeEtRKNS0_11hidl_stringE"
    },
    {
     "is_pure":true,
     "mangled_component_name":"_ZN7android8hardware4wifi10supplicant4V1_027ISupplicantP2pIfaceCallback26onServiceDiscoveryResponseERKNS0_10hidl_arrayIhLj6EJEEEtRKNS0_8hidl_vecIhEE"
    },
    {
     "is_pure":true,
     "mangled_component_name":"_ZN7android8hardware4wifi10supplicant4V1_027ISupplicantP2pIfaceCallback15onStaAuthorizedERKNS0_10hidl_arrayIhLj6EJEEES8_"
    },
    {
     "is_pure":true,
     "mangled_component_name":"_ZN7android8hardware4wifi10supplicant4V1_027ISupplicantP2pIfaceCallback17onStaDeauthorizedERKNS0_10hidl_arrayIhLj6EJEEES8_"
    },
    {
     "kind":"vcall_offset"
    },
    {
     "kind":"vcall_offset"
    },
    {
     "kind":"vcall_offset"
    },
    {
     "kind":"vcall_offset"
    },
    {
     "kind":"vcall_offset",
     "component_value":-4
    },
    {
     "kind":"offset_to_top",
     "component_value":-4
    },
    {
     "kind":"rtti",
     "mangled_component_name":"_ZTIN7android8hardware4wifi10supplicant4V1_027ISupplicantP2pIfaceCallbackE"
    },
    {
     "kind":"complete_dtor_pointer",
     "mangled_component_name":"_ZTv0_n12_N7android8hardware4wifi10supplicant4V1_027ISupplicantP2pIfaceCallbackD1Ev"
    },
    {
     "kind":"deleting_dtor_pointer",
     "mangled_component_name":"_ZTv0_n12_N7android8hardware4wifi10supplicant4V1_027ISupplicantP2pIfaceCallbackD0Ev"
    },
    {
     "mangled_component_name":"_ZN7android7RefBase10onFirstRefEv"
    },
    {
     "mangled_component_name":"_ZN7android7RefBase15onLastStrongRefEPKv"
    },
    {
     "mangled_component_name":"_ZN7android7RefBase20onIncStrongAttemptedEjPKv"
    },
    {
     "mangled_component_name":"_ZN7android7RefBase13onLastWeakRefEPKv"
    }
   ],
   "unique_id":"_ZTSN7android8hardware4wifi10supplicant4V1_027ISupplicantP2pIfaceCallbackE"
  },
  {
   "vtable_components":[
    {
     "kind":"vbase_offset",
     "component_value":60
    },
    {
     "kind":"offset_to_top"
    },
    {
     "kind":"rtti",
     "mangled_component_name":"_ZTIN7android8hardware4wifi10supplicant4V1_020BsSupplicantP2pIfaceE"
    },
    {
     "mangled_component_name":"_ZNK7android8hardware4wifi10supplicant4V1_019ISupplicantP2pIface8isRemoteEv"
    },
    {
     "mangled_component_name":"_ZN7android8hardware4wifi10supplicant4V1_020BsSupplicantP2pIface14interfaceChainENSt3__18functionIFvRKNS0_8hidl_vecINS0_11hidl_stringEEEEEE"
    },
    {
     "mangled_component_name":"_ZN7android8hardware4wifi10supplicant4V1_020BsSupplicantP2pIface5debugERKNS0_11hidl_handleERKNS0_8hidl_vecINS0_11hidl_stringEEE"
    },
    {
     "mangled_component_name":"_ZN7android8hardware4wifi10supplicant4V1_020BsSupplicantP2pIface19interfaceDescriptorENSt3__18functionIFvRKNS0_11hidl_stringEEEE"
    },
    {
     "mangled_component_name":"_ZN7android8hardware4wifi10supplicant4V1_020BsSupplicantP2pIface12getHashChainENSt3__18functionIFvRKNS0_8hidl_vecINS0_10hidl_arrayIhLj32EJEEEEEEEE"
    },
    {
     "mangled_component_name":"_ZN7android8hardware4wifi10supplicant4V1_020BsSupplicantP2pIface21setHALInstrumentationEv"
    },
    {
     "mangled_component_name":"_ZN7android8hardware4wifi10supplicant4V1_020BsSupplicantP2pIface11linkToDeathERKNS_2spINS0_20hidl_death_recipientEEEy"
    },
    {
     "mangled_component_name":"_ZN7android8hardware4wifi10supplicant4V1_020BsSupplicantP2pIface4pingEv"
    },
    {
     "mangled_component_name":"_ZN7android8hardware4wifi10supplicant4V1_020BsSupplicantP2pIface12getDebugInfoENSt3__18functionIFvRKNS_4hidl4base4V1_09DebugInfoEEEE"
    },
    {
     "mangled_component_name":"_ZN7android8hardware4wifi10supplicant4V1_020BsSupplicantP2pIface21notifySyspropsChangedEv"
    },
    {
     "mangled_component_name":"_ZN7android8hardware4wifi10supplicant4V1_020BsSupplicantP2pIface13unlinkToDeathERKNS_2spINS0_20hidl_death_recipientEEE"
    },
    {
     "kind":"complete_dtor_pointer",
     "mangled_component_name":"_ZN7android8hardware4wifi10supplicant4V1_020BsSupplicantP2pIfaceD1Ev"
    },
    {
     "kind":"deleting_dtor_pointer",
     "mangled_component_name":"_ZN7android8hardware4wifi10supplicant4V1_020BsSupplicantP2pIfaceD0Ev"
    },
    {
     "mangled_component_name":"_ZN7android8hardware4wifi10supplicant4V1_020BsSupplicantP2pIface7getNameENSt3__18functionIFvRKNS3_16SupplicantStatusERKNS0_11hidl_stringEEEE"
    },
    {
     "mangled_component_name":"_ZN7android8hardware4wifi10supplicant4V1_020BsSupplicantP2pIface7getTypeENSt3__18functionIFvRKNS3_16SupplicantStatusENS3_9IfaceTypeEEEE"
    },
    {
     "mangled_component_name":"_ZN7android8hardware4wifi10supplicant4V1_020BsSupplicantP2pIface10addNetworkENSt3__18functionIFvRKNS3_16SupplicantStatusERKNS_2spINS3_18ISupplicantNetworkEEEEEE"
    },
    {
     "mangled_component_name":"_ZN7android8hardware4wifi10supplicant4V1_020BsSupplicantP2pIface13removeNetworkEjNSt3__18functionIFvRKNS3_16SupplicantStatusEEEE"
    },
    {
     "mangled_component_name":"_ZN7android8hardware4wifi10supplicant4V1_020BsSupplicantP2pIface10getNetworkEjNSt3__18functionIFvRKNS3_16SupplicantStatusERKNS_2spINS3_18ISupplicantNetworkEEEEEE"
    },
    {
     "mangled_component_name":"_ZN7android8hardware4wifi10supplicant4V1_020BsSupplicantP2pIface12listNetworksENSt3__18functionIFvRKNS3_16SupplicantStatusERKNS0_8hidl_vecIjEEEEE"
    },
    {
     "mangled_component_name":"_ZN7android8hardware4wifi10supplicant4V1_020BsSupplicantP2pIface16setWpsDeviceNameERKNS0_11hidl_stringENSt3__18functionIFvRKNS3_16SupplicantStatusEEEE"
    },
    {
     "mangled_component_name":"_ZN7android8hardware4wifi10supplicant4V1_020BsSupplicantP2pIface16setWpsDeviceTypeERKNS0_10hidl_arrayIhLj8EJEEENSt3__18functionIFvRKNS3_16SupplicantStatusEEEE"
    },
    {
     "mangled_component_name":"_ZN7android8hardware4wifi10supplicant4V1_020BsSupplicantP2pIface18setWpsManufacturerERKNS0_11hidl_stringENSt3__18functionIFvRKNS3_16SupplicantStatusEEEE"
    },
    {
     "mangled_component_name":"_ZN7android8hardware4wifi10supplicant4V1_020BsSupplicantP2pIface15setWpsModelNameERKNS0_11hidl_stringENSt3__18functionIFvRKNS3_16SupplicantStatusEEEE"
    },
    {
     "mangled_component_name":"_ZN7android8hardware4wifi10supplicant4V1_020BsSupplicantP2pIface17setWpsModelNumberERKNS0_11hidl_stringENSt3__18functionIFvRKNS3_16SupplicantStatusEEEE"
    },
    {
     "mangled_component_name":"_ZN7android8hardware4wifi10supplicant4V1_020BsSupplicantP2pIface18setWpsSerialNumberERKNS0_11hidl_stringENSt3__18functionIFvRKNS3_16SupplicantStatusEEEE"
    },
    {
     "mangled_component_name":"_ZN7android8hardware4wifi10supplicant4V1_020BsSupplicantP2pIface19setWpsConfigMethodsEtNSt3__18functionIFvRKNS3_16SupplicantStatusEEEE"
    },
    {
     "mangled_component_name":"_ZN7android8hardware4wifi10supplicant4V1_020BsSupplicantP2pIface16registerCallbackERKNS_2spINS3_27ISupplicantP2pIfaceCallbackEEENSt3__18functionIFvRKNS3_16SupplicantStatusEEEE"
    },
    {
     "mangled_component_name":"_ZN7android8hardware4wifi10supplicant4V1_020BsSupplicantP2pIface16getDeviceAddressENSt3__18functionIFvRKNS3_16SupplicantStatusERKNS0_10hidl_arrayIhLj6EJEEEEEE"
    },
    {
     "mangled_component_name":"_ZN7android8hardware4wifi10supplicant4V1_020BsSupplicantP2pIface14setSsidPostfixERKNS0_8hidl_vecIhEENSt3__18functionIFvRKNS3_16SupplicantStatusEEEE"
    },
    {
     "mangled_component_name":"_ZN7android8hardware4wifi10supplicant4V1_020BsSupplicantP2pIface12setGroupIdleERKNS0_11hidl_stringEjNSt3__18functionIFvRKNS3_16SupplicantStatusEEEE"
    },
    {
     "mangled_component_name":"_ZN7android8hardware4wifi10supplicant4V1_020BsSupplicantP2pIface12setPowerSaveERKNS0_11hidl_stringEbNSt3__18functionIFvRKNS3_16SupplicantStatusEEEE"
    },
    {
     "mangled_component_name":"_ZN7android8hardware4wifi10supplicant4V1_020BsSupplicantP2pIface4findEjNSt3__18functionIFvRKNS3_16SupplicantStatusEEEE"
    },
    {
     "mangled_component_name":"_ZN7android8hardware4wifi10supplicant4V1_020BsSupplicantP2pIface8stopFindENSt3__18functionIFvRKNS3_16SupplicantStatusEEEE"
    },
    {
     "mangled_component_name":"_ZN7android8hardware4wifi10supplicant4V1_020BsSupplicantP2pIface5flushENSt3__18functionIFvRKNS3_16SupplicantStatusEEEE"
    },
    {
     "mangled_component_name":"_ZN7android8hardware4wifi10supplicant4V1_020BsSupplicantP2pIface7connectERKNS0_10hidl_arrayIhLj6EJEEENS3_19ISupplicantP2pIface18WpsProvisionMethodERKNS0_11hidl_stringEbbjNSt3__18functionIFvRKNS3_16SupplicantStatusESD_EEE"
    },
    {
     "mangled_component_name":"_ZN7android8hardware4wifi10supplicant4V1_020BsSupplicantP2pIface13cancelConnectENSt3__18functionIFvRKNS3_16SupplicantStatusEEEE"
    },
    {
     "mangled_component_name":"_ZN7android8hardware4wifi10supplicant4V1_020BsSupplicantP2pIface18provisionDiscoveryERKNS0_10hidl_arrayIhLj6EJEEENS3_19ISupplicantP2pIface18WpsProvisionMethodENSt3__18functionIFvRKNS3_16SupplicantStatusEEEE"
    },
    {
     "mangled_component_name":"_ZN7android8hardware4wifi10supplicant4V1_020BsSupplicantP2pIface8addGroupEbjNSt3__18functionIFvRKNS3_16SupplicantStatusEEEE"
    },
    {
     "mangled_component_name":"_ZN7android8hardware4wifi10supplicant4V1_020BsSupplicantP2pIface11removeGroupERKNS0_11hidl_stringENSt3__18functionIFvRKNS3_16SupplicantStatusEEEE"
    },
    {
     "mangled_component_name":"_ZN7android8hardware4wifi10supplicant4V1_020BsSupplicantP2pIface6rejectERKNS0_10hidl_arrayIhLj6EJEEENSt3__18functionIFvRKNS3_16SupplicantStatusEEEE"
    },
    {
     "mangled_component_name":"_ZN7android8hardware4wifi10supplicant4V1_020BsSupplicantP2pIface6inviteERKNS0_11hidl_stringERKNS0_10hidl_arrayIhLj6EJEEESB_NSt3__18functionIFvRKNS3_16SupplicantStatusEEEE"
    },
    {
     "mangled_component_name":"_ZN7android8hardware4wifi10supplicant4V1_020BsSupplicantP2pIface8reinvokeEjRKNS0_10hidl_arrayIhLj6EJEEENSt3__18functionIFvRKNS3_16SupplicantStatusEEEE"
    },
    {
     "mangled_component_name":"_ZN7android8hardware4wifi10supplicant4V1_020BsSupplicantP2pIface18configureExtListenEjjNSt3__18functionIFvRKNS3_16SupplicantStatusEEEE"
    },
    {
     "mangled_component_name":"_ZN7android8hardware4wifi10supplicant4V1_020BsSupplicantP2pIface16setListenChannelEjjNSt3__18functionIFvRKNS3_16SupplicantStatusEEEE"
    },
    {
     "mangled_component_name":"_ZN7android8hardware4wifi10supplicant4V1_020BsSupplicantP2pIface24setDisallowedFrequenciesERKNS0_8hidl_vecINS3_19ISupplicantP2pIface9FreqRangeEEENSt3__18functionIFvRKNS3_16SupplicantStatusEEEE"
    },
    {
     "mangled_component_name":"_ZN7android8hardware4wifi10supplicant4V1_020BsSupplicantP2pIface7getSsidERKNS0_10hidl_arrayIhLj6EJEEENSt3__18functionIFvRKNS3_16SupplicantStatusERKNS0_8hidl_vecIhEEEEE"
    },
    {
     "mangled_component_name":"_ZN7android8hardware4wifi10supplicant4V1_020BsSupplicantP2pIface18getGroupCapabilityERKNS0_10hidl_arrayIhLj6EJEEENSt3__18functionIFvRKNS3_16SupplicantStatusEjEEE"
    },
    {
     "mangled_component_name":"_ZN7android8hardware4wifi10supplicant4V1_020BsSupplicantP2pIface17addBonjourServiceERKNS0_8hidl_vecIhEES8_NSt3__18functionIFvRKNS3_16SupplicantStatusEEEE"
    },
    {
     "mangled_component_name":"_ZN7android8hardware4wifi10supplicant4V1_020BsSupplicantP2pIface20removeBonjourServiceERKNS0_8hidl_vecIhEENSt3__18functionIFvRKNS3_16SupplicantStatusEEEE"
    },
    {
     "mangled_component_name":"_ZN7android8hardware4wifi10supplicant4V1_020BsSupplicantP2pIface14addUpnpServiceEjRKNS0_11hidl_stringENSt3__18functionIFvRKNS3_16SupplicantStatusEEEE"
    },
    {
     "mangled_component_name":"_ZN7android8hardware4wifi10supplicant4V1_020BsSupplicantP2pIface17removeUpnpServiceEjRKNS0_11hidl_stringENSt3__18functionIFvRKNS3_16SupplicantStatusEEEE"
    },
    {
     "mangled_component_name":"_ZN7android8hardware4wifi10supplicant4V1_020BsSupplicantP2pIface13flushServicesENSt3__18functionIFvRKNS3_16SupplicantStatusEEEE"
    },
    {
     "mangled_component_name":"_ZN7android8hardware4wifi10supplicant4V1_020BsSupplicantP2pIface23requestServiceDiscoveryERKNS0_10hidl_arrayIhLj6EJEEERKNS0_8hidl_vecIhEENSt3__18functionIFvRKNS3_16SupplicantStatusEyEEE"
    },
    {
     "mangled_component_name":"_ZN7android8hardware4wifi10supplicant4V1_020BsSupplicantP2pIface22cancelServiceDiscoveryEyNSt3__18functionIFvRKNS3_16SupplicantStatusEEEE"
    },
    {
     "mangled_component_name":"_ZN7android8hardware4wifi10supplicant4V1_020BsSupplicantP2pIface15setMiracastModeENS3_19ISupplicantP2pIface12MiracastModeENSt3__18functionIFvRKNS3_16SupplicantStatusEEEE"
    },
    {
     "mangled_component_name":"_ZN7android8hardware4wifi10supplicant4V1_020BsSupplicantP2pIface11startWpsPbcERKNS0_11hidl_stringERKNS0_10hidl_arrayIhLj6EJEEENSt3__18functionIFvRKNS3_16SupplicantStatusEEEE"
    },
    {
     "mangled_component_name":"_ZN7android8hardware4wifi10supplicant4V1_020BsSupplicantP2pIface17startWpsPinKeypadERKNS0_11hidl_stringES7_NSt3__18functionIFvRKNS3_16SupplicantStatusEEEE"
    },
    {
     "mangled_component_name":"_ZN7android8hardware4wifi10supplicant4V1_020BsSupplicantP2pIface18startWpsPinDisplayERKNS0_11hidl_stringERKNS0_10hidl_arrayIhLj6EJEEENSt3__18functionIFvRKNS3_16SupplicantStatusES7_EEE"
    },
    {
     "mangled_component_name":"_ZN7android8hardware4wifi10supplicant4V1_020BsSupplicantP2pIface9cancelWpsERKNS0_11hidl_stringENSt3__18functionIFvRKNS3_16SupplicantStatusEEEE"
    },
    {
     "mangled_component_name":"_ZN7android8hardware4wifi10supplicant4V1_020BsSupplicantP2pIface9enableWfdEbNSt3__18functionIFvRKNS3_16SupplicantStatusEEEE"
    },
    {
     "mangled_component_name":"_ZN7android8hardware4wifi10supplicant4V1_020BsSupplicantP2pIface16setWfdDeviceInfoERKNS0_10hidl_arrayIhLj6EJEEENSt3__18functionIFvRKNS3_16SupplicantStatusEEEE"
    },
    {
     "mangled_component_name":"_ZN7android8hardware4wifi10supplicant4V1_020BsSupplicantP2pIface31createNfcHandoverRequestMessageENSt3__18functionIFvRKNS3_16SupplicantStatusERKNS0_8hidl_vecIhEEEEE"
    },
    {
     "mangled_component_name":"_ZN7android8hardware4wifi10supplicant4V1_020BsSupplicantP2pIface30createNfcHandoverSelectMessageENSt3__18functionIFvRKNS3_16SupplicantStatusERKNS0_8hidl_vecIhEEEEE"
    },
    {
     "mangled_component_name":"_ZN7android8hardware4wifi10supplicant4V1_020BsSupplicantP2pIface25reportNfcHandoverResponseERKNS0_8hidl_vecIhEENSt3__18functionIFvRKNS3_16SupplicantStatusEEEE"
    },
    {
     "mangled_component_name":"_ZN7android8hardware4wifi10supplicant4V1_020BsSupplicantP2pIface27reportNfcHandoverInitiationERKNS0_8hidl_vecIhEENSt3__18functionIFvRKNS3_16SupplicantStatusEEEE"
    },
    {
     "mangled_component_name":"_ZN7android8hardware4wifi10supplicant4V1_020BsSupplicantP2pIface10saveConfigENSt3__18functionIFvRKNS3_16SupplicantStatusEEEE"
    },
    {
     "kind":"offset_to_top",
     "component_value":-4
    },
    {
     "kind":"rtti",
     "mangled_component_name":"_ZTIN7android8hardware4wifi10supplicant4V1_020BsSupplicantP2pIfaceE"
    },
    {
     "kind":"complete_dtor_pointer",
     "mangled_component_name":"_ZThn4_N7android8hardware4wifi10supplicant4V1_020BsSupplicantP2pIfaceD1Ev"
    },
    {
     "kind":"deleting_dtor_pointer",
     "mangled_component_name":"_ZThn4_N7android8hardware4wifi10supplicant4V1_020BsSupplicantP2pIfaceD0Ev"
    },
    {
     "kind":"vcall_offset"
    },
    {
     "kind":"vcall_offset"
    },
    {
     "kind":"vcall_offset"
    },
    {
     "kind":"vcall_offset"
    },
    {
     "kind":"vcall_offset",
     "component_value":-60
    },
    {
     "kind":"offset_to_top",
     "component_value":-60
    },
    {
     "kind":"rtti",
     "mangled_component_name":"_ZTIN7android8hardware4wifi10supplicant4V1_020BsSupplicantP2pIfaceE"
    },
    {
     "kind":"complete_dtor_pointer",
     "mangled_component_name":"_ZTv0_n12_N7android8hardware4wifi10supplicant4V1_020BsSupplicantP2pIfaceD1Ev"
    },
    {
     "kind":"deleting_dtor_pointer",
     "mangled_component_name":"_ZTv0_n12_N7android8hardware4wifi10supplicant4V1_020BsSupplicantP2pIfaceD0Ev"
    },
    {
     "mangled_component_name":"_ZN7android7RefBase10onFirstRefEv"
    },
    {
     "mangled_component_name":"_ZN7android7RefBase15onLastStrongRefEPKv"
    },
    {
     "mangled_component_name":"_ZN7android7RefBase20onIncStrongAttemptedEjPKv"
    },
    {
     "mangled_component_name":"_ZN7android7RefBase13onLastWeakRefEPKv"
    }
   ],
   "unique_id":"_ZTSN7android8hardware4wifi10supplicant4V1_020BsSupplicantP2pIfaceE"
  },
  {
   "vtable_components":[
    {
     "kind":"vbase_offset",
     "component_value":84
    },
    {
     "kind":"offset_to_top"
    },
    {
     "kind":"rtti",
     "mangled_component_name":"_ZTIN7android8hardware4wifi10supplicant4V1_022BpHwSupplicantP2pIfaceE"
    },
    {
     "mangled_component_name":"_ZNK7android8hardware4wifi10supplicant4V1_022BpHwSupplicantP2pIface8isRemoteEv"
    },
    {
     "mangled_component_name":"_ZN7android8hardware4wifi10supplicant4V1_022BpHwSupplicantP2pIface14interfaceChainENSt3__18functionIFvRKNS0_8hidl_vecINS0_11hidl_stringEEEEEE"
    },
    {
     "mangled_component_name":"_ZN7android8hardware4wifi10supplicant4V1_022BpHwSupplicantP2pIface5debugERKNS0_11hidl_handleERKNS0_8hidl_vecINS0_11hidl_stringEEE"
    },
    {
     "mangled_component_name":"_ZN7android8hardware4wifi10supplicant4V1_022BpHwSupplicantP2pIface19interfaceDescriptorENSt3__18functionIFvRKNS0_11hidl_stringEEEE"
    },
    {
     "mangled_component_name":"_ZN7android8hardware4wifi10supplicant4V1_022BpHwSupplicantP2pIface12getHashChainENSt3__18functionIFvRKNS0_8hidl_vecINS0_10hidl_arrayIhLj32EJEEEEEEEE"
    },
    {
     "mangled_component_name":"_ZN7android8hardware4wifi10supplicant4V1_022BpHwSupplicantP2pIface21setHALInstrumentationEv"
    },
    {
     "mangled_component_name":"_ZN7android8hardware4wifi10supplicant4V1_022BpHwSupplicantP2pIface11linkToDeathERKNS_2spINS0_20hidl_death_recipientEEEy"
    },
    {
     "mangled_component_name":"_ZN7android8hardware4wifi10supplicant4V1_022BpHwSupplicantP2pIface4pingEv"
    },
    {
     "mangled_component_name":"_ZN7android8hardware4wifi10supplicant4V1_022BpHwSupplicantP2pIface12getDebugInfoENSt3__18functionIFvRKNS_4hidl4base4V1_09DebugInfoEEEE"
    },
    {
     "mangled_component_name":"_ZN7android8hardware4wifi10supplicant4V1_022BpHwSupplicantP2pIface21notifySyspropsChangedEv"
    },
    {
     "mangled_component_name":"_ZN7android8hardware4wifi10supplicant4V1_022BpHwSupplicantP2pIface13unlinkToDeathERKNS_2spINS0_20hidl_death_recipientEEE"
    },
    {
     "kind":"complete_dtor_pointer",
     "mangled_component_name":"_ZN7android8hardware4wifi10supplicant4V1_022BpHwSupplicantP2pIfaceD1Ev"
    },
    {
     "kind":"deleting_dtor_pointer",
     "mangled_component_name":"_ZN7android8hardware4wifi10supplicant4V1_022BpHwSupplicantP2pIfaceD0Ev"
    },
    {
     "mangled_component_name":"_ZN7android8hardware4wifi10supplicant4V1_022BpHwSupplicantP2pIface7getNameENSt3__18functionIFvRKNS3_16SupplicantStatusERKNS0_11hidl_stringEEEE"
    },
    {
     "mangled_component_name":"_ZN7android8hardware4wifi10supplicant4V1_022BpHwSupplicantP2pIface7getTypeENSt3__18functionIFvRKNS3_16SupplicantStatusENS3_9IfaceTypeEEEE"
    },
    {
     "mangled_component_name":"_ZN7android8hardware4wifi10supplicant4V1_022BpHwSupplicantP2pIface10addNetworkENSt3__18functionIFvRKNS3_16SupplicantStatusERKNS_2spINS3_18ISupplicantNetworkEEEEEE"
    },
    {
     "mangled_component_name":"_ZN7android8hardware4wifi10supplicant4V1_022BpHwSupplicantP2pIface13removeNetworkEjNSt3__18functionIFvRKNS3_16SupplicantStatusEEEE"
    },
    {
     "mangled_component_name":"_ZN7android8hardware4wifi10supplicant4V1_022BpHwSupplicantP2pIface10getNetworkEjNSt3__18functionIFvRKNS3_16SupplicantStatusERKNS_2spINS3_18ISupplicantNetworkEEEEEE"
    },
    {
     "mangled_component_name":"_ZN7android8hardware4wifi10supplicant4V1_022BpHwSupplicantP2pIface12listNetworksENSt3__18functionIFvRKNS3_16SupplicantStatusERKNS0_8hidl_vecIjEEEEE"
    },
    {
     "mangled_component_name":"_ZN7android8hardware4wifi10supplicant4V1_022BpHwSupplicantP2pIface16setWpsDeviceNameERKNS0_11hidl_stringENSt3__18functionIFvRKNS3_16SupplicantStatusEEEE"
    },
    {
     "mangled_component_name":"_ZN7android8hardware4wifi10supplicant4V1_022BpHwSupplicantP2pIface16setWpsDeviceTypeERKNS0_10hidl_arrayIhLj8EJEEENSt3__18functionIFvRKNS3_16SupplicantStatusEEEE"
    },
    {
     "mangled_component_name":"_ZN7android8hardware4wifi10supplicant4V1_022BpHwSupplicantP2pIface18setWpsManufacturerERKNS0_11hidl_stringENSt3__18functionIFvRKNS3_16SupplicantStatusEEEE"
    },
    {
     "mangled_component_name":"_ZN7android8hardware4wifi10supplicant4V1_022BpHwSupplicantP2pIface15setWpsModelNameERKNS0_11hidl_stringENSt3__18functionIFvRKNS3_16SupplicantStatusEEEE"
    },
    {
     "mangled_component_name":"_ZN7android8hardware4wifi10supplicant4V1_022BpHwSupplicantP2pIface17setWpsModelNumberERKNS0_11hidl_stringENSt3__18functionIFvRKNS3_16SupplicantStatusEEEE"
    },
    {
     "mangled_component_name":"_ZN7android8hardware4wifi10supplicant4V1_022BpHwSupplicantP2pIface18setWpsSerialNumberERKNS0_11hidl_stringENSt3__18functionIFvRKNS3_16SupplicantStatusEEEE"
    },
    {
     "mangled_component_name":"_ZN7android8hardware4wifi10supplicant4V1_022BpHwSupplicantP2pIface19setWpsConfigMethodsEtNSt3__18functionIFvRKNS3_16SupplicantStatusEEEE"
    },
    {
     "mangled_component_name":"_ZN7android8hardware4wifi10supplicant4V1_022BpHwSupplicantP2pIface16registerCallbackERKNS_2spINS3_27ISupplicantP2pIfaceCallbackEEENSt3__18functionIFvRKNS3_16SupplicantStatusEEEE"
    },
    {
     "mangled_component_name":"_ZN7android8hardware4wifi10supplicant4V1_022BpHwSupplicantP2pIface16getDeviceAddressENSt3__18functionIFvRKNS3_16SupplicantStatusERKNS0_10hidl_arrayIhLj6EJEEEEEE"
    },
    {
     "mangled_component_name":"_ZN7android8hardware4wifi10supplicant4V1_022BpHwSupplicantP2pIface14setSsidPostfixERKNS0_8hidl_vecIhEENSt3__18functionIFvRKNS3_16SupplicantStatusEEEE"
    },
    {
     "mangled_component_name":"_ZN7android8hardware4wifi10supplicant4V1_022BpHwSupplicantP2pIface12setGroupIdleERKNS0_11hidl_stringEjNSt3__18functionIFvRKNS3_16SupplicantStatusEEEE"
    },
    {
     "mangled_component_name":"_ZN7android8hardware4wifi10supplicant4V1_022BpHwSupplicantP2pIface12setPowerSaveERKNS0_11hidl_stringEbNSt3__18functionIFvRKNS3_16SupplicantStatusEEEE"
    },
    {
     "mangled_component_name":"_ZN7android8hardware4wifi10supplicant4V1_022BpHwSupplicantP2pIface4findEjNSt3__18functionIFvRKNS3_16SupplicantStatusEEEE"
    },
    {
     "mangled_component_name":"_ZN7android8hardware4wifi10supplicant4V1_022BpHwSupplicantP2pIface8stopFindENSt3__18functionIFvRKNS3_16SupplicantStatusEEEE"
    },
    {
     "mangled_component_name":"_ZN7android8hardware4wifi10supplicant4V1_022BpHwSupplicantP2pIface5flushENSt3__18functionIFvRKNS3_16SupplicantStatusEEEE"
    },
    {
     "mangled_component_name":"_ZN7android8hardware4wifi10supplicant4V1_022BpHwSupplicantP2pIface7connectERKNS0_10hidl_arrayIhLj6EJEEENS3_19ISupplicantP2pIface18WpsProvisionMethodERKNS0_11hidl_stringEbbjNSt3__18functionIFvRKNS3_16SupplicantStatusESD_EEE"
    },
    {
     "mangled_component_name":"_ZN7android8hardware4wifi10supplicant4V1_022BpHwSupplicantP2pIface13cancelConnectENSt3__18functionIFvRKNS3_16SupplicantStatusEEEE"
    },
    {
     "mangled_component_name":"_ZN7android8hardware4wifi10supplicant4V1_022BpHwSupplicantP2pIface18provisionDiscoveryERKNS0_10hidl_arrayIhLj6EJEEENS3_19ISupplicantP2pIface18WpsProvisionMethodENSt3__18functionIFvRKNS3_16SupplicantStatusEEEE"
    },
    {
     "mangled_component_name":"_ZN7android8hardware4wifi10supplicant4V1_022BpHwSupplicantP2pIface8addGroupEbjNSt3__18functionIFvRKNS3_16SupplicantStatusEEEE"
    },
    {
     "mangled_component_name":"_ZN7android8hardware4wifi10supplicant4V1_022BpHwSupplicantP2pIface11removeGroupERKNS0_11hidl_stringENSt3__18functionIFvRKNS3_16SupplicantStatusEEEE"
    },
    {
     "mangled_component_name":"_ZN7android8hardware4wifi10supplicant4V1_022BpHwSupplicantP2pIface6rejectERKNS0_10hidl_arrayIhLj6EJEEENSt3__18functionIFvRKNS3_16SupplicantStatusEEEE"
    },
    {
     "mangled_component_name":"_ZN7android8hardware4wifi10supplicant4V1_022BpHwSupplicantP2pIface6inviteERKNS0_11hidl_stringERKNS0_10hidl_arrayIhLj6EJEEESB_NSt3__18functionIFvRKNS3_16SupplicantStatusEEEE"
    },
    {
     "mangled_component_name":"_ZN7android8hardware4wifi10supplicant4V1_022BpHwSupplicantP2pIface8reinvokeEjRKNS0_10hidl_arrayIhLj6EJEEENSt3__18functionIFvRKNS3_16SupplicantStatusEEEE"
    },
    {
     "mangled_component_name":"_ZN7android8hardware4wifi10supplicant4V1_022BpHwSupplicantP2pIface18configureExtListenEjjNSt3__18functionIFvRKNS3_16SupplicantStatusEEEE"
    },
    {
     "mangled_component_name":"_ZN7android8hardware4wifi10supplicant4V1_022BpHwSupplicantP2pIface16setListenChannelEjjNSt3__18functionIFvRKNS3_16SupplicantStatusEEEE"
    },
    {
     "mangled_component_name":"_ZN7android8hardware4wifi10supplicant4V1_022BpHwSupplicantP2pIface24setDisallowedFrequenciesERKNS0_8hidl_vecINS3_19ISupplicantP2pIface9FreqRangeEEENSt3__18functionIFvRKNS3_16SupplicantStatusEEEE"
    },
    {
     "mangled_component_name":"_ZN7android8hardware4wifi10supplicant4V1_022BpHwSupplicantP2pIface7getSsidERKNS0_10hidl_arrayIhLj6EJEEENSt3__18functionIFvRKNS3_16SupplicantStatusERKNS0_8hidl_vecIhEEEEE"
    },
    {
     "mangled_component_name":"_ZN7android8hardware4wifi10supplicant4V1_022BpHwSupplicantP2pIface18getGroupCapabilityERKNS0_10hidl_arrayIhLj6EJEEENSt3__18functionIFvRKNS3_16SupplicantStatusEjEEE"
    },
    {
     "mangled_component_name":"_ZN7android8hardware4wifi10supplicant4V1_022BpHwSupplicantP2pIface17addBonjourServiceERKNS0_8hidl_vecIhEES8_NSt3__18functionIFvRKNS3_16SupplicantStatusEEEE"
    },
    {
     "mangled_component_name":"_ZN7android8hardware4wifi10supplicant4V1_022BpHwSupplicantP2pIface20removeBonjourServiceERKNS0_8hidl_vecIhEENSt3__18functionIFvRKNS3_16SupplicantStatusEEEE"
    },
    {
     "mangled_component_name":"_ZN7android8hardware4wifi10supplicant4V1_022BpHwSupplicantP2pIface14addUpnpServiceEjRKNS0_11hidl_stringENSt3__18functionIFvRKNS3_16SupplicantStatusEEEE"
    },
    {
     "mangled_component_name":"_ZN7android8hardware4wifi10supplicant4V1_022BpHwSupplicantP2pIface17removeUpnpServiceEjRKNS0_11hidl_stringENSt3__18functionIFvRKNS3_16SupplicantStatusEEEE"
    },
    {
     "mangled_component_name":"_ZN7android8hardware4wifi10supplicant4V1_022BpHwSupplicantP2pIface13flushServicesENSt3__18functionIFvRKNS3_16SupplicantStatusEEEE"
    },
    {
     "mangled_component_name":"_ZN7android8hardware4wifi10supplicant4V1_022BpHwSupplicantP2pIface23requestServiceDiscoveryERKNS0_10hidl_arrayIhLj6EJEEERKNS0_8hidl_vecIhEENSt3__18functionIFvRKNS3_16SupplicantStatusEyEEE"
    },
    {
     "mangled_component_name":"_ZN7android8hardware4wifi10supplicant4V1_022BpHwSupplicantP2pIface22cancelServiceDiscoveryEyNSt3__18functionIFvRKNS3_16SupplicantStatusEEEE"
    },
    {
     "mangled_component_name":"_ZN7android8hardware4wifi10supplicant4V1_022BpHwSupplicantP2pIface15setMiracastModeENS3_19ISupplicantP2pIface12MiracastModeENSt3__18functionIFvRKNS3_16SupplicantStatusEEEE"
    },
    {
     "mangled_component_name":"_ZN7android8hardware4wifi10supplicant4V1_022BpHwSupplicantP2pIface11startWpsPbcERKNS0_11hidl_stringERKNS0_10hidl_arrayIhLj6EJEEENSt3__18functionIFvRKNS3_16SupplicantStatusEEEE"
    },
    {
     "mangled_component_name":"_ZN7android8hardware4wifi10supplicant4V1_022BpHwSupplicantP2pIface17startWpsPinKeypadERKNS0_11hidl_stringES7_NSt3__18functionIFvRKNS3_16SupplicantStatusEEEE"
    },
    {
     "mangled_component_name":"_ZN7android8hardware4wifi10supplicant4V1_022BpHwSupplicantP2pIface18startWpsPinDisplayERKNS0_11hidl_stringERKNS0_10hidl_arrayIhLj6EJEEENSt3__18functionIFvRKNS3_16SupplicantStatusES7_EEE"
    },
    {
     "mangled_component_name":"_ZN7android8hardware4wifi10supplicant4V1_022BpHwSupplicantP2pIface9cancelWpsERKNS0_11hidl_stringENSt3__18functionIFvRKNS3_16SupplicantStatusEEEE"
    },
    {
     "mangled_component_name":"_ZN7android8hardware4wifi10supplicant4V1_022BpHwSupplicantP2pIface9enableWfdEbNSt3__18functionIFvRKNS3_16SupplicantStatusEEEE"
    },
    {
     "mangled_component_name":"_ZN7android8hardware4wifi10supplicant4V1_022BpHwSupplicantP2pIface16setWfdDeviceInfoERKNS0_10hidl_arrayIhLj6EJEEENSt3__18functionIFvRKNS3_16SupplicantStatusEEEE"
    },
    {
     "mangled_component_name":"_ZN7android8hardware4wifi10supplicant4V1_022BpHwSupplicantP2pIface31createNfcHandoverRequestMessageENSt3__18functionIFvRKNS3_16SupplicantStatusERKNS0_8hidl_vecIhEEEEE"
    },
    {
     "mangled_component_name":"_ZN7android8hardware4wifi10supplicant4V1_022BpHwSupplicantP2pIface30createNfcHandoverSelectMessageENSt3__18functionIFvRKNS3_16SupplicantStatusERKNS0_8hidl_vecIhEEEEE"
    },
    {
     "mangled_component_name":"_ZN7android8hardware4wifi10supplicant4V1_022BpHwSupplicantP2pIface25reportNfcHandoverResponseERKNS0_8hidl_vecIhEENSt3__18functionIFvRKNS3_16SupplicantStatusEEEE"
    },
    {
     "mangled_component_name":"_ZN7android8hardware4wifi10supplicant4V1_022BpHwSupplicantP2pIface27reportNfcHandoverInitiationERKNS0_8hidl_vecIhEENSt3__18functionIFvRKNS3_16SupplicantStatusEEEE"
    },
    {
     "mangled_component_name":"_ZN7android8hardware4wifi10supplicant4V1_022BpHwSupplicantP2pIface10saveConfigENSt3__18functionIFvRKNS3_16SupplicantStatusEEEE"
    },
    {
     "mangled_component_name":"_ZN7android8hardware11BpInterfaceINS0_4wifi10supplicant4V1_019ISupplicantP2pIfaceEE10onAsBinderEv"
    },
    {
     "kind":"vbase_offset",
     "component_value":80
    },
    {
     "kind":"offset_to_top",
     "component_value":-4
    },
    {
     "kind":"rtti",
     "mangled_component_name":"_ZTIN7android8hardware4wifi10supplicant4V1_022BpHwSupplicantP2pIfaceE"
    },
    {
     "kind":"complete_dtor_pointer",
     "mangled_component_name":"_ZThn4_N7android8hardware4wifi10supplicant4V1_022BpHwSupplicantP2pIfaceD1Ev"
    },
    {
     "kind":"deleting_dtor_pointer",
     "mangled_component_name":"_ZThn4_N7android8hardware4wifi10supplicant4V1_022BpHwSupplicantP2pIfaceD0Ev"
    },
    {
     "mangled_component_name":"_ZThn4_N7android8hardware11BpInterfaceINS0_4wifi10supplicant4V1_019ISupplicantP2pIfaceEE10onAsBinderEv"
    },
    {
     "kind":"vbase_offset",
     "component_value":76
    },
    {
     "kind":"offset_to_top",
     "component_value":-8
    },
    {
     "kind":"rtti",
     "mangled_component_name":"_ZTIN7android8hardware4wifi10supplicant4V1_022BpHwSupplicantP2pIfaceE"
    },
    {
     "kind":"complete_dtor_pointer",
     "mangled_component_name":"_ZThn8_N7android8hardware4wifi10supplicant4V1_022BpHwSupplicantP2pIfaceD1Ev"
    },
    {
     "kind":"deleting_dtor_pointer",
     "mangled_component_name":"_ZThn8_N7android8hardware4wifi10supplicant4V1_022BpHwSupplicantP2pIfaceD0Ev"
    },
    {
     "mangled_component_name":"_ZN7android8hardware11BpHwRefBase10onFirstRefEv"
    },
    {
     "mangled_component_name":"_ZN7android8hardware11BpHwRefBase15onLastStrongRefEPKv"
    },
    {
     "mangled_component_name":"_ZN7android8hardware11BpHwRefBase20onIncStrongAttemptedEjPKv"
    },
    {
     "kind":"offset_to_top",
     "component_value":-24
    },
    {
     "kind":"rtti",
     "mangled_component_name":"_ZTIN7android8hardware4wifi10supplicant4V1_022BpHwSupplicantP2pIfaceE"
    },
    {
     "kind":"complete_dtor_pointer",
     "mangled_component_name":"_ZThn24_N7android8hardware4wifi10supplicant4V1_022BpHwSupplicantP2pIfaceD1Ev"
    },
    {
     "kind":"deleting_dtor_pointer",
     "mangled_component_name":"_ZThn24_N7android8hardware4wifi10supplicant4V1_022BpHwSupplicantP2pIfaceD0Ev"
    },
    {
     "kind":"vcall_offset"
    },
    {
     "kind":"vcall_offset",
     "component_value":-76
    },
    {
     "kind":"vcall_offset",
     "component_value":-76
    },
    {
     "kind":"vcall_offset",
     "component_value":-76
    },
    {
     "kind":"vcall_offset",
     "component_value":-84
    },
    {
     "kind":"offset_to_top",
     "component_value":-84
    },
    {
     "kind":"rtti",
     "mangled_component_name":"_ZTIN7android8hardware4wifi10supplicant4V1_022BpHwSupplicantP2pIfaceE"
    },
    {
     "kind":"complete_dtor_pointer",
     "mangled_component_name":"_ZTv0_n12_N7android8hardware4wifi10supplicant4V1_022BpHwSupplicantP2pIfaceD1Ev"
    },
    {
     "kind":"deleting_dtor_pointer",
     "mangled_component_name":"_ZTv0_n12_N7android8hardware4wifi10supplicant4V1_022BpHwSupplicantP2pIfaceD0Ev"
    },
    {
     "mangled_component_name":"_ZTv0_n16_N7android8hardware11BpHwRefBase10onFirstRefEv"
    },
    {
     "mangled_component_name":"_ZTv0_n20_N7android8hardware11BpHwRefBase15onLastStrongRefEPKv"
    },
    {
     "mangled_component_name":"_ZTv0_n24_N7android8hardware11BpHwRefBase20onIncStrongAttemptedEjPKv"
    },
    {
     "mangled_component_name":"_ZN7android7RefBase13onLastWeakRefEPKv"
    }
   ],
   "unique_id":"_ZTSN7android8hardware4wifi10supplicant4V1_022BpHwSupplicantP2pIfaceE"
  },
  {
   "vtable_components":[
    {
     "kind":"vbase_offset",
     "component_value":84
    },
    {
     "kind":"offset_to_top"
    },
    {
     "kind":"rtti",
     "mangled_component_name":"_ZTIN7android8hardware4wifi10supplicant4V1_019BpHwSupplicantIfaceE"
    },
    {
     "mangled_component_name":"_ZNK7android8hardware4wifi10supplicant4V1_019BpHwSupplicantIface8isRemoteEv"
    },
    {
     "mangled_component_name":"_ZN7android8hardware4wifi10supplicant4V1_019BpHwSupplicantIface14interfaceChainENSt3__18functionIFvRKNS0_8hidl_vecINS0_11hidl_stringEEEEEE"
    },
    {
     "mangled_component_name":"_ZN7android8hardware4wifi10supplicant4V1_019BpHwSupplicantIface5debugERKNS0_11hidl_handleERKNS0_8hidl_vecINS0_11hidl_stringEEE"
    },
    {
     "mangled_component_name":"_ZN7android8hardware4wifi10supplicant4V1_019BpHwSupplicantIface19interfaceDescriptorENSt3__18functionIFvRKNS0_11hidl_stringEEEE"
    },
    {
     "mangled_component_name":"_ZN7android8hardware4wifi10supplicant4V1_019BpHwSupplicantIface12getHashChainENSt3__18functionIFvRKNS0_8hidl_vecINS0_10hidl_arrayIhLj32EJEEEEEEEE"
    },
    {
     "mangled_component_name":"_ZN7android8hardware4wifi10supplicant4V1_019BpHwSupplicantIface21setHALInstrumentationEv"
    },
    {
     "mangled_component_name":"_ZN7android8hardware4wifi10supplicant4V1_019BpHwSupplicantIface11linkToDeathERKNS_2spINS0_20hidl_death_recipientEEEy"
    },
    {
     "mangled_component_name":"_ZN7android8hardware4wifi10supplicant4V1_019BpHwSupplicantIface4pingEv"
    },
    {
     "mangled_component_name":"_ZN7android8hardware4wifi10supplicant4V1_019BpHwSupplicantIface12getDebugInfoENSt3__18functionIFvRKNS_4hidl4base4V1_09DebugInfoEEEE"
    },
    {
     "mangled_component_name":"_ZN7android8hardware4wifi10supplicant4V1_019BpHwSupplicantIface21notifySyspropsChangedEv"
    },
    {
     "mangled_component_name":"_ZN7android8hardware4wifi10supplicant4V1_019BpHwSupplicantIface13unlinkToDeathERKNS_2spINS0_20hidl_death_recipientEEE"
    },
    {
     "kind":"complete_dtor_pointer",
     "mangled_component_name":"_ZN7android8hardware4wifi10supplicant4V1_019BpHwSupplicantIfaceD1Ev"
    },
    {
     "kind":"deleting_dtor_pointer",
     "mangled_component_name":"_ZN7android8hardware4wifi10supplicant4V1_019BpHwSupplicantIfaceD0Ev"
    },
    {
     "mangled_component_name":"_ZN7android8hardware4wifi10supplicant4V1_019BpHwSupplicantIface7getNameENSt3__18functionIFvRKNS3_16SupplicantStatusERKNS0_11hidl_stringEEEE"
    },
    {
     "mangled_component_name":"_ZN7android8hardware4wifi10supplicant4V1_019BpHwSupplicantIface7getTypeENSt3__18functionIFvRKNS3_16SupplicantStatusENS3_9IfaceTypeEEEE"
    },
    {
     "mangled_component_name":"_ZN7android8hardware4wifi10supplicant4V1_019BpHwSupplicantIface10addNetworkENSt3__18functionIFvRKNS3_16SupplicantStatusERKNS_2spINS3_18ISupplicantNetworkEEEEEE"
    },
    {
     "mangled_component_name":"_ZN7android8hardware4wifi10supplicant4V1_019BpHwSupplicantIface13removeNetworkEjNSt3__18functionIFvRKNS3_16SupplicantStatusEEEE"
    },
    {
     "mangled_component_name":"_ZN7android8hardware4wifi10supplicant4V1_019BpHwSupplicantIface10getNetworkEjNSt3__18functionIFvRKNS3_16SupplicantStatusERKNS_2spINS3_18ISupplicantNetworkEEEEEE"
    },
    {
     "mangled_component_name":"_ZN7android8hardware4wifi10supplicant4V1_019BpHwSupplicantIface12listNetworksENSt3__18functionIFvRKNS3_16SupplicantStatusERKNS0_8hidl_vecIjEEEEE"
    },
    {
     "mangled_component_name":"_ZN7android8hardware4wifi10supplicant4V1_019BpHwSupplicantIface16setWpsDeviceNameERKNS0_11hidl_stringENSt3__18functionIFvRKNS3_16SupplicantStatusEEEE"
    },
    {
     "mangled_component_name":"_ZN7android8hardware4wifi10supplicant4V1_019BpHwSupplicantIface16setWpsDeviceTypeERKNS0_10hidl_arrayIhLj8EJEEENSt3__18functionIFvRKNS3_16SupplicantStatusEEEE"
    },
    {
     "mangled_component_name":"_ZN7android8hardware4wifi10supplicant4V1_019BpHwSupplicantIface18setWpsManufacturerERKNS0_11hidl_stringENSt3__18functionIFvRKNS3_16SupplicantStatusEEEE"
    },
    {
     "mangled_component_name":"_ZN7android8hardware4wifi10supplicant4V1_019BpHwSupplicantIface15setWpsModelNameERKNS0_11hidl_stringENSt3__18functionIFvRKNS3_16SupplicantStatusEEEE"
    },
    {
     "mangled_component_name":"_ZN7android8hardware4wifi10supplicant4V1_019BpHwSupplicantIface17setWpsModelNumberERKNS0_11hidl_stringENSt3__18functionIFvRKNS3_16SupplicantStatusEEEE"
    },
    {
     "mangled_component_name":"_ZN7android8hardware4wifi10supplicant4V1_019BpHwSupplicantIface18setWpsSerialNumberERKNS0_11hidl_stringENSt3__18functionIFvRKNS3_16SupplicantStatusEEEE"
    },
    {
     "mangled_component_name":"_ZN7android8hardware4wifi10supplicant4V1_019BpHwSupplicantIface19setWpsConfigMethodsEtNSt3__18functionIFvRKNS3_16SupplicantStatusEEEE"
    },
    {
     "mangled_component_name":"_ZN7android8hardware11BpInterfaceINS0_4wifi10supplicant4V1_016ISupplicantIfaceEE10onAsBinderEv"
    },
    {
     "kind":"vbase_offset",
     "component_value":80
    },
    {
     "kind":"offset_to_top",
     "component_value":-4
    },
    {
     "kind":"rtti",
     "mangled_component_name":"_ZTIN7android8hardware4wifi10supplicant4V1_019BpHwSupplicantIfaceE"
    },
    {
     "kind":"complete_dtor_pointer",
     "mangled_component_name":"_ZThn4_N7android8hardware4wifi10supplicant4V1_019BpHwSupplicantIfaceD1Ev"
    },
    {
     "kind":"deleting_dtor_pointer",
     "mangled_component_name":"_ZThn4_N7android8hardware4wifi10supplicant4V1_019BpHwSupplicantIfaceD0Ev"
    },
    {
     "mangled_component_name":"_ZThn4_N7android8hardware11BpInterfaceINS0_4wifi10supplicant4V1_016ISupplicantIfaceEE10onAsBinderEv"
    },
    {
     "kind":"vbase_offset",
     "component_value":76
    },
    {
     "kind":"offset_to_top",
     "component_value":-8
    },
    {
     "kind":"rtti",
     "mangled_component_name":"_ZTIN7android8hardware4wifi10supplicant4V1_019BpHwSupplicantIfaceE"
    },
    {
     "kind":"complete_dtor_pointer",
     "mangled_component_name":"_ZThn8_N7android8hardware4wifi10supplicant4V1_019BpHwSupplicantIfaceD1Ev"
    },
    {
     "kind":"deleting_dtor_pointer",
     "mangled_component_name":"_ZThn8_N7android8hardware4wifi10supplicant4V1_019BpHwSupplicantIfaceD0Ev"
    },
    {
     "mangled_component_name":"_ZN7android8hardware11BpHwRefBase10onFirstRefEv"
    },
    {
     "mangled_component_name":"_ZN7android8hardware11BpHwRefBase15onLastStrongRefEPKv"
    },
    {
     "mangled_component_name":"_ZN7android8hardware11BpHwRefBase20onIncStrongAttemptedEjPKv"
    },
    {
     "kind":"offset_to_top",
     "component_value":-24
    },
    {
     "kind":"rtti",
     "mangled_component_name":"_ZTIN7android8hardware4wifi10supplicant4V1_019BpHwSupplicantIfaceE"
    },
    {
     "kind":"complete_dtor_pointer",
     "mangled_component_name":"_ZThn24_N7android8hardware4wifi10supplicant4V1_019BpHwSupplicantIfaceD1Ev"
    },
    {
     "kind":"deleting_dtor_pointer",
     "mangled_component_name":"_ZThn24_N7android8hardware4wifi10supplicant4V1_019BpHwSupplicantIfaceD0Ev"
    },
    {
     "kind":"vcall_offset"
    },
    {
     "kind":"vcall_offset",
     "component_value":-76
    },
    {
     "kind":"vcall_offset",
     "component_value":-76
    },
    {
     "kind":"vcall_offset",
     "component_value":-76
    },
    {
     "kind":"vcall_offset",
     "component_value":-84
    },
    {
     "kind":"offset_to_top",
     "component_value":-84
    },
    {
     "kind":"rtti",
     "mangled_component_name":"_ZTIN7android8hardware4wifi10supplicant4V1_019BpHwSupplicantIfaceE"
    },
    {
     "kind":"complete_dtor_pointer",
     "mangled_component_name":"_ZTv0_n12_N7android8hardware4wifi10supplicant4V1_019BpHwSupplicantIfaceD1Ev"
    },
    {
     "kind":"deleting_dtor_pointer",
     "mangled_component_name":"_ZTv0_n12_N7android8hardware4wifi10supplicant4V1_019BpHwSupplicantIfaceD0Ev"
    },
    {
     "mangled_component_name":"_ZTv0_n16_N7android8hardware11BpHwRefBase10onFirstRefEv"
    },
    {
     "mangled_component_name":"_ZTv0_n20_N7android8hardware11BpHwRefBase15onLastStrongRefEPKv"
    },
    {
     "mangled_component_name":"_ZTv0_n24_N7android8hardware11BpHwRefBase20onIncStrongAttemptedEjPKv"
    },
    {
     "mangled_component_name":"_ZN7android7RefBase13onLastWeakRefEPKv"
    }
   ],
   "unique_id":"_ZTSN7android8hardware4wifi10supplicant4V1_019BpHwSupplicantIfaceE"
  },
  {
   "vtable_components":[
    {
     "kind":"vbase_offset",
     "component_value":84
    },
    {
     "kind":"offset_to_top"
    },
    {
     "kind":"rtti",
     "mangled_component_name":"_ZTIN7android8hardware4wifi10supplicant4V1_030BpHwSupplicantP2pIfaceCallbackE"
    },
    {
     "mangled_component_name":"_ZNK7android8hardware4wifi10supplicant4V1_030BpHwSupplicantP2pIfaceCallback8isRemoteEv"
    },
    {
     "mangled_component_name":"_ZN7android8hardware4wifi10supplicant4V1_030BpHwSupplicantP2pIfaceCallback14interfaceChainENSt3__18functionIFvRKNS0_8hidl_vecINS0_11hidl_stringEEEEEE"
    },
    {
     "mangled_component_name":"_ZN7android8hardware4wifi10supplicant4V1_030BpHwSupplicantP2pIfaceCallback5debugERKNS0_11hidl_handleERKNS0_8hidl_vecINS0_11hidl_stringEEE"
    },
    {
     "mangled_component_name":"_ZN7android8hardware4wifi10supplicant4V1_030BpHwSupplicantP2pIfaceCallback19interfaceDescriptorENSt3__18functionIFvRKNS0_11hidl_stringEEEE"
    },
    {
     "mangled_component_name":"_ZN7android8hardware4wifi10supplicant4V1_030BpHwSupplicantP2pIfaceCallback12getHashChainENSt3__18functionIFvRKNS0_8hidl_vecINS0_10hidl_arrayIhLj32EJEEEEEEEE"
    },
    {
     "mangled_component_name":"_ZN7android8hardware4wifi10supplicant4V1_030BpHwSupplicantP2pIfaceCallback21setHALInstrumentationEv"
    },
    {
     "mangled_component_name":"_ZN7android8hardware4wifi10supplicant4V1_030BpHwSupplicantP2pIfaceCallback11linkToDeathERKNS_2spINS0_20hidl_death_recipientEEEy"
    },
    {
     "mangled_component_name":"_ZN7android8hardware4wifi10supplicant4V1_030BpHwSupplicantP2pIfaceCallback4pingEv"
    },
    {
     "mangled_component_name":"_ZN7android8hardware4wifi10supplicant4V1_030BpHwSupplicantP2pIfaceCallback12getDebugInfoENSt3__18functionIFvRKNS_4hidl4base4V1_09DebugInfoEEEE"
    },
    {
     "mangled_component_name":"_ZN7android8hardware4wifi10supplicant4V1_030BpHwSupplicantP2pIfaceCallback21notifySyspropsChangedEv"
    },
    {
     "mangled_component_name":"_ZN7android8hardware4wifi10supplicant4V1_030BpHwSupplicantP2pIfaceCallback13unlinkToDeathERKNS_2spINS0_20hidl_death_recipientEEE"
    },
    {
     "kind":"complete_dtor_pointer",
     "mangled_component_name":"_ZN7android8hardware4wifi10supplicant4V1_030BpHwSupplicantP2pIfaceCallbackD1Ev"
    },
    {
     "kind":"deleting_dtor_pointer",
     "mangled_component_name":"_ZN7android8hardware4wifi10supplicant4V1_030BpHwSupplicantP2pIfaceCallbackD0Ev"
    },
    {
     "mangled_component_name":"_ZN7android8hardware4wifi10supplicant4V1_030BpHwSupplicantP2pIfaceCallback14onNetworkAddedEj"
    },
    {
     "mangled_component_name":"_ZN7android8hardware4wifi10supplicant4V1_030BpHwSupplicantP2pIfaceCallback16onNetworkRemovedEj"
    },
    {
     "mangled_component_name":"_ZN7android8hardware4wifi10supplicant4V1_030BpHwSupplicantP2pIfaceCallback13onDeviceFoundERKNS0_10hidl_arrayIhLj6EJEEES8_RKNS5_IhLj8EJEEERKNS0_11hidl_stringEthjS8_"
    },
    {
     "mangled_component_name":"_ZN7android8hardware4wifi10supplicant4V1_030BpHwSupplicantP2pIfaceCallback12onDeviceLostERKNS0_10hidl_arrayIhLj6EJEEE"
    },
    {
     "mangled_component_name":"_ZN7android8hardware4wifi10supplicant4V1_030BpHwSupplicantP2pIfaceCallback13onFindStoppedEv"
    },
    {
     "mangled_component_name":"_ZN7android8hardware4wifi10supplicant4V1_030BpHwSupplicantP2pIfaceCallback22onGoNegotiationRequestERKNS0_10hidl_arrayIhLj6EJEEENS3_27ISupplicantP2pIfaceCallback16WpsDevPasswordIdE"
    },
    {
     "mangled_component_name":"_ZN7android8hardware4wifi10supplicant4V1_030BpHwSupplicantP2pIfaceCallback24onGoNegotiationCompletedENS3_27ISupplicantP2pIfaceCallback13P2pStatusCodeE"
    },
    {
     "mangled_component_name":"_ZN7android8hardware4wifi10supplicant4V1_030BpHwSupplicantP2pIfaceCallback23onGroupFormationSuccessEv"
    },
    {
     "mangled_component_name":"_ZN7android8hardware4wifi10supplicant4V1_030BpHwSupplicantP2pIfaceCallback23onGroupFormationFailureERKNS0_11hidl_stringE"
    },
    {
     "mangled_component_name":"_ZN7android8hardware4wifi10supplicant4V1_030BpHwSupplicantP2pIfaceCallback14onGroupStartedERKNS0_11hidl_stringEbRKNS0_8hidl_vecIhEEjRKNS0_10hidl_arrayIhLj32EJEEES7_RKNSC_IhLj6EJEEEb"
    },
    {
     "mangled_component_name":"_ZN7android8hardware4wifi10supplicant4V1_030BpHwSupplicantP2pIfaceCallback14onGroupRemovedERKNS0_11hidl_stringEb"
    },
    {
     "mangled_component_name":"_ZN7android8hardware4wifi10supplicant4V1_030BpHwSupplicantP2pIfaceCallback20onInvitationReceivedERKNS0_10hidl_arrayIhLj6EJEEES8_S8_jj"
    },
    {
     "mangled_component_name":"_ZN7android8hardware4wifi10supplicant4V1_030BpHwSupplicantP2pIfaceCallback18onInvitationResultERKNS0_10hidl_arrayIhLj6EJEEENS3_27ISupplicantP2pIfaceCallback13P2pStatusCodeE"
    },
    {
     "mangled_component_name":"_ZN7android8hardware4wifi10supplicant4V1_030BpHwSupplicantP2pIfaceCallback29onProvisionDiscoveryCompletedERKNS0_10hidl_arrayIhLj6EJEEEbNS3_27ISupplicantP2pIfaceCallback21P2pProvDiscStatusCodeEtRKNS0_11hidl_stringE"
    },
    {
     "mangled_component_name":"_ZN7android8hardware4wifi10supplicant4V1_030BpHwSupplicantP2pIfaceCallback26onServiceDiscoveryResponseERKNS0_10hidl_arrayIhLj6EJEEEtRKNS0_8hidl_vecIhEE"
    },
    {
     "mangled_component_name":"_ZN7android8hardware4wifi10supplicant4V1_030BpHwSupplicantP2pIfaceCallback15onStaAuthorizedERKNS0_10hidl_arrayIhLj6EJEEES8_"
    },
    {
     "mangled_component_name":"_ZN7android8hardware4wifi10supplicant4V1_030BpHwSupplicantP2pIfaceCallback17onStaDeauthorizedERKNS0_10hidl_arrayIhLj6EJEEES8_"
    },
    {
     "mangled_component_name":"_ZN7android8hardware11BpInterfaceINS0_4wifi10supplicant4V1_027ISupplicantP2pIfaceCallbackEE10onAsBinderEv"
    },
    {
     "kind":"vbase_offset",
     "component_value":80
    },
    {
     "kind":"offset_to_top",
     "component_value":-4
    },
    {
     "kind":"rtti",
     "mangled_component_name":"_ZTIN7android8hardware4wifi10supplicant4V1_030BpHwSupplicantP2pIfaceCallbackE"
    },
    {
     "kind":"complete_dtor_pointer",
     "mangled_component_name":"_ZThn4_N7android8hardware4wifi10supplicant4V1_030BpHwSupplicantP2pIfaceCallbackD1Ev"
    },
    {
     "kind":"deleting_dtor_pointer",
     "mangled_component_name":"_ZThn4_N7android8hardware4wifi10supplicant4V1_030BpHwSupplicantP2pIfaceCallbackD0Ev"
    },
    {
     "mangled_component_name":"_ZThn4_N7android8hardware11BpInterfaceINS0_4wifi10supplicant4V1_027ISupplicantP2pIfaceCallbackEE10onAsBinderEv"
    },
    {
     "kind":"vbase_offset",
     "component_value":76
    },
    {
     "kind":"offset_to_top",
     "component_value":-8
    },
    {
     "kind":"rtti",
     "mangled_component_name":"_ZTIN7android8hardware4wifi10supplicant4V1_030BpHwSupplicantP2pIfaceCallbackE"
    },
    {
     "kind":"complete_dtor_pointer",
     "mangled_component_name":"_ZThn8_N7android8hardware4wifi10supplicant4V1_030BpHwSupplicantP2pIfaceCallbackD1Ev"
    },
    {
     "kind":"deleting_dtor_pointer",
     "mangled_component_name":"_ZThn8_N7android8hardware4wifi10supplicant4V1_030BpHwSupplicantP2pIfaceCallbackD0Ev"
    },
    {
     "mangled_component_name":"_ZN7android8hardware11BpHwRefBase10onFirstRefEv"
    },
    {
     "mangled_component_name":"_ZN7android8hardware11BpHwRefBase15onLastStrongRefEPKv"
    },
    {
     "mangled_component_name":"_ZN7android8hardware11BpHwRefBase20onIncStrongAttemptedEjPKv"
    },
    {
     "kind":"offset_to_top",
     "component_value":-24
    },
    {
     "kind":"rtti",
     "mangled_component_name":"_ZTIN7android8hardware4wifi10supplicant4V1_030BpHwSupplicantP2pIfaceCallbackE"
    },
    {
     "kind":"complete_dtor_pointer",
     "mangled_component_name":"_ZThn24_N7android8hardware4wifi10supplicant4V1_030BpHwSupplicantP2pIfaceCallbackD1Ev"
    },
    {
     "kind":"deleting_dtor_pointer",
     "mangled_component_name":"_ZThn24_N7android8hardware4wifi10supplicant4V1_030BpHwSupplicantP2pIfaceCallbackD0Ev"
    },
    {
     "kind":"vcall_offset"
    },
    {
     "kind":"vcall_offset",
     "component_value":-76
    },
    {
     "kind":"vcall_offset",
     "component_value":-76
    },
    {
     "kind":"vcall_offset",
     "component_value":-76
    },
    {
     "kind":"vcall_offset",
     "component_value":-84
    },
    {
     "kind":"offset_to_top",
     "component_value":-84
    },
    {
     "kind":"rtti",
     "mangled_component_name":"_ZTIN7android8hardware4wifi10supplicant4V1_030BpHwSupplicantP2pIfaceCallbackE"
    },
    {
     "kind":"complete_dtor_pointer",
     "mangled_component_name":"_ZTv0_n12_N7android8hardware4wifi10supplicant4V1_030BpHwSupplicantP2pIfaceCallbackD1Ev"
    },
    {
     "kind":"deleting_dtor_pointer",
     "mangled_component_name":"_ZTv0_n12_N7android8hardware4wifi10supplicant4V1_030BpHwSupplicantP2pIfaceCallbackD0Ev"
    },
    {
     "mangled_component_name":"_ZTv0_n16_N7android8hardware11BpHwRefBase10onFirstRefEv"
    },
    {
     "mangled_component_name":"_ZTv0_n20_N7android8hardware11BpHwRefBase15onLastStrongRefEPKv"
    },
    {
     "mangled_component_name":"_ZTv0_n24_N7android8hardware11BpHwRefBase20onIncStrongAttemptedEjPKv"
    },
    {
     "mangled_component_name":"_ZN7android7RefBase13onLastWeakRefEPKv"
    }
   ],
   "unique_id":"_ZTSN7android8hardware4wifi10supplicant4V1_030BpHwSupplicantP2pIfaceCallbackE"
  },
  {
   "vtable_components":[
    {
     "kind":"vbase_offset",
     "component_value":4
    },
    {
     "kind":"offset_to_top"
    },
    {
     "kind":"rtti",
     "mangled_component_name":"_ZTIN7android8hardware4wifi10supplicant4V1_011ISupplicantE"
    },
    {
     "mangled_component_name":"_ZNK7android8hardware4wifi10supplicant4V1_011ISupplicant8isRemoteEv"
    },
    {
     "mangled_component_name":"_ZN7android8hardware4wifi10supplicant4V1_011ISupplicant14interfaceChainENSt3__18functionIFvRKNS0_8hidl_vecINS0_11hidl_stringEEEEEE"
    },
    {
     "mangled_component_name":"_ZN7android8hardware4wifi10supplicant4V1_011ISupplicant5debugERKNS0_11hidl_handleERKNS0_8hidl_vecINS0_11hidl_stringEEE"
    },
    {
     "mangled_component_name":"_ZN7android8hardware4wifi10supplicant4V1_011ISupplicant19interfaceDescriptorENSt3__18functionIFvRKNS0_11hidl_stringEEEE"
    },
    {
     "mangled_component_name":"_ZN7android8hardware4wifi10supplicant4V1_011ISupplicant12getHashChainENSt3__18functionIFvRKNS0_8hidl_vecINS0_10hidl_arrayIhLj32EJEEEEEEEE"
    },
    {
     "mangled_component_name":"_ZN7android8hardware4wifi10supplicant4V1_011ISupplicant21setHALInstrumentationEv"
    },
    {
     "mangled_component_name":"_ZN7android8hardware4wifi10supplicant4V1_011ISupplicant11linkToDeathERKNS_2spINS0_20hidl_death_recipientEEEy"
    },
    {
     "mangled_component_name":"_ZN7android8hardware4wifi10supplicant4V1_011ISupplicant4pingEv"
    },
    {
     "mangled_component_name":"_ZN7android8hardware4wifi10supplicant4V1_011ISupplicant12getDebugInfoENSt3__18functionIFvRKNS_4hidl4base4V1_09DebugInfoEEEE"
    },
    {
     "mangled_component_name":"_ZN7android8hardware4wifi10supplicant4V1_011ISupplicant21notifySyspropsChangedEv"
    },
    {
     "mangled_component_name":"_ZN7android8hardware4wifi10supplicant4V1_011ISupplicant13unlinkToDeathERKNS_2spINS0_20hidl_death_recipientEEE"
    },
    {
     "kind":"complete_dtor_pointer",
     "mangled_component_name":"_ZN7android8hardware4wifi10supplicant4V1_011ISupplicantD1Ev"
    },
    {
     "kind":"deleting_dtor_pointer",
     "mangled_component_name":"_ZN7android8hardware4wifi10supplicant4V1_011ISupplicantD0Ev"
    },
    {
     "is_pure":true,
     "mangled_component_name":"_ZN7android8hardware4wifi10supplicant4V1_011ISupplicant12getInterfaceERKNS4_9IfaceInfoENSt3__18functionIFvRKNS3_16SupplicantStatusERKNS_2spINS3_16ISupplicantIfaceEEEEEE"
    },
    {
     "is_pure":true,
     "mangled_component_name":"_ZN7android8hardware4wifi10supplicant4V1_011ISupplicant14listInterfacesENSt3__18functionIFvRKNS3_16SupplicantStatusERKNS0_8hidl_vecINS4_9IfaceInfoEEEEEE"
    },
    {
     "is_pure":true,
     "mangled_component_name":"_ZN7android8hardware4wifi10supplicant4V1_011ISupplicant16registerCallbackERKNS_2spINS3_19ISupplicantCallbackEEENSt3__18functionIFvRKNS3_16SupplicantStatusEEEE"
    },
    {
     "is_pure":true,
     "mangled_component_name":"_ZN7android8hardware4wifi10supplicant4V1_011ISupplicant14setDebugParamsENS4_10DebugLevelEbbNSt3__18functionIFvRKNS3_16SupplicantStatusEEEE"
    },
    {
     "is_pure":true,
     "mangled_component_name":"_ZN7android8hardware4wifi10supplicant4V1_011ISupplicant13getDebugLevelEv"
    },
    {
     "is_pure":true,
     "mangled_component_name":"_ZN7android8hardware4wifi10supplicant4V1_011ISupplicant27isDebugShowTimestampEnabledEv"
    },
    {
     "is_pure":true,
     "mangled_component_name":"_ZN7android8hardware4wifi10supplicant4V1_011ISupplicant22isDebugShowKeysEnabledEv"
    },
    {
     "is_pure":true,
     "mangled_component_name":"_ZN7android8hardware4wifi10supplicant4V1_011ISupplicant22setConcurrencyPriorityENS3_9IfaceTypeENSt3__18functionIFvRKNS3_16SupplicantStatusEEEE"
    },
    {
     "kind":"vcall_offset"
    },
    {
     "kind":"vcall_offset"
    },
    {
     "kind":"vcall_offset"
    },
    {
     "kind":"vcall_offset"
    },
    {
     "kind":"vcall_offset",
     "component_value":-4
    },
    {
     "kind":"offset_to_top",
     "component_value":-4
    },
    {
     "kind":"rtti",
     "mangled_component_name":"_ZTIN7android8hardware4wifi10supplicant4V1_011ISupplicantE"
    },
    {
     "kind":"complete_dtor_pointer",
     "mangled_component_name":"_ZTv0_n12_N7android8hardware4wifi10supplicant4V1_011ISupplicantD1Ev"
    },
    {
     "kind":"deleting_dtor_pointer",
     "mangled_component_name":"_ZTv0_n12_N7android8hardware4wifi10supplicant4V1_011ISupplicantD0Ev"
    },
    {
     "mangled_component_name":"_ZN7android7RefBase10onFirstRefEv"
    },
    {
     "mangled_component_name":"_ZN7android7RefBase15onLastStrongRefEPKv"
    },
    {
     "mangled_component_name":"_ZN7android7RefBase20onIncStrongAttemptedEjPKv"
    },
    {
     "mangled_component_name":"_ZN7android7RefBase13onLastWeakRefEPKv"
    }
   ],
   "unique_id":"_ZTSN7android8hardware4wifi10supplicant4V1_011ISupplicantE"
  },
  {
   "vtable_components":[
    {
     "kind":"vbase_offset",
     "component_value":4
    },
    {
     "kind":"offset_to_top"
    },
    {
     "kind":"rtti",
     "mangled_component_name":"_ZTIN7android8hardware4wifi10supplicant4V1_018ISupplicantNetworkE"
    },
    {
     "mangled_component_name":"_ZNK7android8hardware4wifi10supplicant4V1_018ISupplicantNetwork8isRemoteEv"
    },
    {
     "mangled_component_name":"_ZN7android8hardware4wifi10supplicant4V1_018ISupplicantNetwork14interfaceChainENSt3__18functionIFvRKNS0_8hidl_vecINS0_11hidl_stringEEEEEE"
    },
    {
     "mangled_component_name":"_ZN7android8hardware4wifi10supplicant4V1_018ISupplicantNetwork5debugERKNS0_11hidl_handleERKNS0_8hidl_vecINS0_11hidl_stringEEE"
    },
    {
     "mangled_component_name":"_ZN7android8hardware4wifi10supplicant4V1_018ISupplicantNetwork19interfaceDescriptorENSt3__18functionIFvRKNS0_11hidl_stringEEEE"
    },
    {
     "mangled_component_name":"_ZN7android8hardware4wifi10supplicant4V1_018ISupplicantNetwork12getHashChainENSt3__18functionIFvRKNS0_8hidl_vecINS0_10hidl_arrayIhLj32EJEEEEEEEE"
    },
    {
     "mangled_component_name":"_ZN7android8hardware4wifi10supplicant4V1_018ISupplicantNetwork21setHALInstrumentationEv"
    },
    {
     "mangled_component_name":"_ZN7android8hardware4wifi10supplicant4V1_018ISupplicantNetwork11linkToDeathERKNS_2spINS0_20hidl_death_recipientEEEy"
    },
    {
     "mangled_component_name":"_ZN7android8hardware4wifi10supplicant4V1_018ISupplicantNetwork4pingEv"
    },
    {
     "mangled_component_name":"_ZN7android8hardware4wifi10supplicant4V1_018ISupplicantNetwork12getDebugInfoENSt3__18functionIFvRKNS_4hidl4base4V1_09DebugInfoEEEE"
    },
    {
     "mangled_component_name":"_ZN7android8hardware4wifi10supplicant4V1_018ISupplicantNetwork21notifySyspropsChangedEv"
    },
    {
     "mangled_component_name":"_ZN7android8hardware4wifi10supplicant4V1_018ISupplicantNetwork13unlinkToDeathERKNS_2spINS0_20hidl_death_recipientEEE"
    },
    {
     "kind":"complete_dtor_pointer",
     "mangled_component_name":"_ZN7android8hardware4wifi10supplicant4V1_018ISupplicantNetworkD1Ev"
    },
    {
     "kind":"deleting_dtor_pointer",
     "mangled_component_name":"_ZN7android8hardware4wifi10supplicant4V1_018ISupplicantNetworkD0Ev"
    },
    {
     "is_pure":true,
     "mangled_component_name":"_ZN7android8hardware4wifi10supplicant4V1_018ISupplicantNetwork5getIdENSt3__18functionIFvRKNS3_16SupplicantStatusEjEEE"
    },
    {
     "is_pure":true,
     "mangled_component_name":"_ZN7android8hardware4wifi10supplicant4V1_018ISupplicantNetwork16getInterfaceNameENSt3__18functionIFvRKNS3_16SupplicantStatusERKNS0_11hidl_stringEEEE"
    },
    {
     "is_pure":true,
     "mangled_component_name":"_ZN7android8hardware4wifi10supplicant4V1_018ISupplicantNetwork7getTypeENSt3__18functionIFvRKNS3_16SupplicantStatusENS3_9IfaceTypeEEEE"
    },
    {
     "kind":"vcall_offset"
    },
    {
     "kind":"vcall_offset"
    },
    {
     "kind":"vcall_offset"
    },
    {
     "kind":"vcall_offset"
    },
    {
     "kind":"vcall_offset",
     "component_value":-4
    },
    {
     "kind":"offset_to_top",
     "component_value":-4
    },
    {
     "kind":"rtti",
     "mangled_component_name":"_ZTIN7android8hardware4wifi10supplicant4V1_018ISupplicantNetworkE"
    },
    {
     "kind":"complete_dtor_pointer",
     "mangled_component_name":"_ZTv0_n12_N7android8hardware4wifi10supplicant4V1_018ISupplicantNetworkD1Ev"
    },
    {
     "kind":"deleting_dtor_pointer",
     "mangled_component_name":"_ZTv0_n12_N7android8hardware4wifi10supplicant4V1_018ISupplicantNetworkD0Ev"
    },
    {
     "mangled_component_name":"_ZN7android7RefBase10onFirstRefEv"
    },
    {
     "mangled_component_name":"_ZN7android7RefBase15onLastStrongRefEPKv"
    },
    {
     "mangled_component_name":"_ZN7android7RefBase20onIncStrongAttemptedEjPKv"
    },
    {
     "mangled_component_name":"_ZN7android7RefBase13onLastWeakRefEPKv"
    }
   ],
   "unique_id":"_ZTSN7android8hardware4wifi10supplicant4V1_018ISupplicantNetworkE"
  },
  {
   "vtable_components":[
    {
     "kind":"vbase_offset",
     "component_value":72
    },
    {
     "kind":"offset_to_top"
    },
    {
     "kind":"rtti",
     "mangled_component_name":"_ZTIN7android8hardware4wifi10supplicant4V1_030BnHwSupplicantP2pIfaceCallbackE"
    },
    {
     "mangled_component_name":"_ZN7android8hardware9BHwBinder8transactEjRKNS0_6ParcelEPS2_jNSt3__18functionIFvRS2_EEE"
    },
    {
     "mangled_component_name":"_ZN7android8hardware9BHwBinder11linkToDeathERKNS_2spINS0_7IBinder14DeathRecipientEEEPvj"
    },
    {
     "mangled_component_name":"_ZN7android8hardware9BHwBinder13unlinkToDeathERKNS_2wpINS0_7IBinder14DeathRecipientEEEPvjPS5_"
    },
    {
     "mangled_component_name":"_ZNK7android8hardware7IBinder13checkSubclassEPKv"
    },
    {
     "mangled_component_name":"_ZN7android8hardware9BHwBinder12attachObjectEPKvPvS4_PFvS3_S4_S4_E"
    },
    {
     "mangled_component_name":"_ZNK7android8hardware9BHwBinder10findObjectEPKv"
    },
    {
     "mangled_component_name":"_ZN7android8hardware9BHwBinder12detachObjectEPKv"
    },
    {
     "mangled_component_name":"_ZN7android8hardware9BHwBinder11localBinderEv"
    },
    {
     "mangled_component_name":"_ZN7android8hardware7IBinder12remoteBinderEv"
    },
    {
     "kind":"complete_dtor_pointer",
     "mangled_component_name":"_ZN7android8hardware4wifi10supplicant4V1_030BnHwSupplicantP2pIfaceCallbackD1Ev"
    },
    {
     "kind":"deleting_dtor_pointer",
     "mangled_component_name":"_ZN7android8hardware4wifi10supplicant4V1_030BnHwSupplicantP2pIfaceCallbackD0Ev"
    },
    {
     "mangled_component_name":"_ZN7android8hardware4wifi10supplicant4V1_030BnHwSupplicantP2pIfaceCallback10onTransactEjRKNS0_6ParcelEPS5_jNSt3__18functionIFvRS5_EEE"
    },
    {
     "kind":"offset_to_top",
     "component_value":-20
    },
    {
     "kind":"rtti",
     "mangled_component_name":"_ZTIN7android8hardware4wifi10supplicant4V1_030BnHwSupplicantP2pIfaceCallbackE"
    },
    {
     "kind":"complete_dtor_pointer",
     "mangled_component_name":"_ZThn20_N7android8hardware4wifi10supplicant4V1_030BnHwSupplicantP2pIfaceCallbackD1Ev"
    },
    {
     "kind":"deleting_dtor_pointer",
     "mangled_component_name":"_ZThn20_N7android8hardware4wifi10supplicant4V1_030BnHwSupplicantP2pIfaceCallbackD0Ev"
    },
    {
     "kind":"vcall_offset"
    },
    {
     "kind":"vcall_offset"
    },
    {
     "kind":"vcall_offset"
    },
    {
     "kind":"vcall_offset"
    },
    {
     "kind":"vcall_offset",
     "component_value":-72
    },
    {
     "kind":"offset_to_top",
     "component_value":-72
    },
    {
     "kind":"rtti",
     "mangled_component_name":"_ZTIN7android8hardware4wifi10supplicant4V1_030BnHwSupplicantP2pIfaceCallbackE"
    },
    {
     "kind":"complete_dtor_pointer",
     "mangled_component_name":"_ZTv0_n12_N7android8hardware4wifi10supplicant4V1_030BnHwSupplicantP2pIfaceCallbackD1Ev"
    },
    {
     "kind":"deleting_dtor_pointer",
     "mangled_component_name":"_ZTv0_n12_N7android8hardware4wifi10supplicant4V1_030BnHwSupplicantP2pIfaceCallbackD0Ev"
    },
    {
     "mangled_component_name":"_ZN7android7RefBase10onFirstRefEv"
    },
    {
     "mangled_component_name":"_ZN7android7RefBase15onLastStrongRefEPKv"
    },
    {
     "mangled_component_name":"_ZN7android7RefBase20onIncStrongAttemptedEjPKv"
    },
    {
     "mangled_component_name":"_ZN7android7RefBase13onLastWeakRefEPKv"
    }
   ],
   "unique_id":"_ZTSN7android8hardware4wifi10supplicant4V1_030BnHwSupplicantP2pIfaceCallbackE"
  },
  {
   "vtable_components":[
    {
     "kind":"vbase_offset",
     "component_value":60
    },
    {
     "kind":"offset_to_top"
    },
    {
     "kind":"rtti",
     "mangled_component_name":"_ZTIN7android8hardware4wifi10supplicant4V1_017BsSupplicantIfaceE"
    },
    {
     "mangled_component_name":"_ZNK7android8hardware4wifi10supplicant4V1_016ISupplicantIface8isRemoteEv"
    },
    {
     "mangled_component_name":"_ZN7android8hardware4wifi10supplicant4V1_017BsSupplicantIface14interfaceChainENSt3__18functionIFvRKNS0_8hidl_vecINS0_11hidl_stringEEEEEE"
    },
    {
     "mangled_component_name":"_ZN7android8hardware4wifi10supplicant4V1_017BsSupplicantIface5debugERKNS0_11hidl_handleERKNS0_8hidl_vecINS0_11hidl_stringEEE"
    },
    {
     "mangled_component_name":"_ZN7android8hardware4wifi10supplicant4V1_017BsSupplicantIface19interfaceDescriptorENSt3__18functionIFvRKNS0_11hidl_stringEEEE"
    },
    {
     "mangled_component_name":"_ZN7android8hardware4wifi10supplicant4V1_017BsSupplicantIface12getHashChainENSt3__18functionIFvRKNS0_8hidl_vecINS0_10hidl_arrayIhLj32EJEEEEEEEE"
    },
    {
     "mangled_component_name":"_ZN7android8hardware4wifi10supplicant4V1_017BsSupplicantIface21setHALInstrumentationEv"
    },
    {
     "mangled_component_name":"_ZN7android8hardware4wifi10supplicant4V1_017BsSupplicantIface11linkToDeathERKNS_2spINS0_20hidl_death_recipientEEEy"
    },
    {
     "mangled_component_name":"_ZN7android8hardware4wifi10supplicant4V1_017BsSupplicantIface4pingEv"
    },
    {
     "mangled_component_name":"_ZN7android8hardware4wifi10supplicant4V1_017BsSupplicantIface12getDebugInfoENSt3__18functionIFvRKNS_4hidl4base4V1_09DebugInfoEEEE"
    },
    {
     "mangled_component_name":"_ZN7android8hardware4wifi10supplicant4V1_017BsSupplicantIface21notifySyspropsChangedEv"
    },
    {
     "mangled_component_name":"_ZN7android8hardware4wifi10supplicant4V1_017BsSupplicantIface13unlinkToDeathERKNS_2spINS0_20hidl_death_recipientEEE"
    },
    {
     "kind":"complete_dtor_pointer",
     "mangled_component_name":"_ZN7android8hardware4wifi10supplicant4V1_017BsSupplicantIfaceD1Ev"
    },
    {
     "kind":"deleting_dtor_pointer",
     "mangled_component_name":"_ZN7android8hardware4wifi10supplicant4V1_017BsSupplicantIfaceD0Ev"
    },
    {
     "mangled_component_name":"_ZN7android8hardware4wifi10supplicant4V1_017BsSupplicantIface7getNameENSt3__18functionIFvRKNS3_16SupplicantStatusERKNS0_11hidl_stringEEEE"
    },
    {
     "mangled_component_name":"_ZN7android8hardware4wifi10supplicant4V1_017BsSupplicantIface7getTypeENSt3__18functionIFvRKNS3_16SupplicantStatusENS3_9IfaceTypeEEEE"
    },
    {
     "mangled_component_name":"_ZN7android8hardware4wifi10supplicant4V1_017BsSupplicantIface10addNetworkENSt3__18functionIFvRKNS3_16SupplicantStatusERKNS_2spINS3_18ISupplicantNetworkEEEEEE"
    },
    {
     "mangled_component_name":"_ZN7android8hardware4wifi10supplicant4V1_017BsSupplicantIface13removeNetworkEjNSt3__18functionIFvRKNS3_16SupplicantStatusEEEE"
    },
    {
     "mangled_component_name":"_ZN7android8hardware4wifi10supplicant4V1_017BsSupplicantIface10getNetworkEjNSt3__18functionIFvRKNS3_16SupplicantStatusERKNS_2spINS3_18ISupplicantNetworkEEEEEE"
    },
    {
     "mangled_component_name":"_ZN7android8hardware4wifi10supplicant4V1_017BsSupplicantIface12listNetworksENSt3__18functionIFvRKNS3_16SupplicantStatusERKNS0_8hidl_vecIjEEEEE"
    },
    {
     "mangled_component_name":"_ZN7android8hardware4wifi10supplicant4V1_017BsSupplicantIface16setWpsDeviceNameERKNS0_11hidl_stringENSt3__18functionIFvRKNS3_16SupplicantStatusEEEE"
    },
    {
     "mangled_component_name":"_ZN7android8hardware4wifi10supplicant4V1_017BsSupplicantIface16setWpsDeviceTypeERKNS0_10hidl_arrayIhLj8EJEEENSt3__18functionIFvRKNS3_16SupplicantStatusEEEE"
    },
    {
     "mangled_component_name":"_ZN7android8hardware4wifi10supplicant4V1_017BsSupplicantIface18setWpsManufacturerERKNS0_11hidl_stringENSt3__18functionIFvRKNS3_16SupplicantStatusEEEE"
    },
    {
     "mangled_component_name":"_ZN7android8hardware4wifi10supplicant4V1_017BsSupplicantIface15setWpsModelNameERKNS0_11hidl_stringENSt3__18functionIFvRKNS3_16SupplicantStatusEEEE"
    },
    {
     "mangled_component_name":"_ZN7android8hardware4wifi10supplicant4V1_017BsSupplicantIface17setWpsModelNumberERKNS0_11hidl_stringENSt3__18functionIFvRKNS3_16SupplicantStatusEEEE"
    },
    {
     "mangled_component_name":"_ZN7android8hardware4wifi10supplicant4V1_017BsSupplicantIface18setWpsSerialNumberERKNS0_11hidl_stringENSt3__18functionIFvRKNS3_16SupplicantStatusEEEE"
    },
    {
     "mangled_component_name":"_ZN7android8hardware4wifi10supplicant4V1_017BsSupplicantIface19setWpsConfigMethodsEtNSt3__18functionIFvRKNS3_16SupplicantStatusEEEE"
    },
    {
     "kind":"offset_to_top",
     "component_value":-4
    },
    {
     "kind":"rtti",
     "mangled_component_name":"_ZTIN7android8hardware4wifi10supplicant4V1_017BsSupplicantIfaceE"
    },
    {
     "kind":"complete_dtor_pointer",
     "mangled_component_name":"_ZThn4_N7android8hardware4wifi10supplicant4V1_017BsSupplicantIfaceD1Ev"
    },
    {
     "kind":"deleting_dtor_pointer",
     "mangled_component_name":"_ZThn4_N7android8hardware4wifi10supplicant4V1_017BsSupplicantIfaceD0Ev"
    },
    {
     "kind":"vcall_offset"
    },
    {
     "kind":"vcall_offset"
    },
    {
     "kind":"vcall_offset"
    },
    {
     "kind":"vcall_offset"
    },
    {
     "kind":"vcall_offset",
     "component_value":-60
    },
    {
     "kind":"offset_to_top",
     "component_value":-60
    },
    {
     "kind":"rtti",
     "mangled_component_name":"_ZTIN7android8hardware4wifi10supplicant4V1_017BsSupplicantIfaceE"
    },
    {
     "kind":"complete_dtor_pointer",
     "mangled_component_name":"_ZTv0_n12_N7android8hardware4wifi10supplicant4V1_017BsSupplicantIfaceD1Ev"
    },
    {
     "kind":"deleting_dtor_pointer",
     "mangled_component_name":"_ZTv0_n12_N7android8hardware4wifi10supplicant4V1_017BsSupplicantIfaceD0Ev"
    },
    {
     "mangled_component_name":"_ZN7android7RefBase10onFirstRefEv"
    },
    {
     "mangled_component_name":"_ZN7android7RefBase15onLastStrongRefEPKv"
    },
    {
     "mangled_component_name":"_ZN7android7RefBase20onIncStrongAttemptedEjPKv"
    },
    {
     "mangled_component_name":"_ZN7android7RefBase13onLastWeakRefEPKv"
    }
   ],
   "unique_id":"_ZTSN7android8hardware4wifi10supplicant4V1_017BsSupplicantIfaceE"
  },
  {
   "vtable_components":[
    {
     "kind":"vbase_offset",
     "component_value":4
    },
    {
     "kind":"offset_to_top"
    },
    {
     "kind":"rtti",
     "mangled_component_name":"_ZTIN7android8hardware4wifi10supplicant4V1_016ISupplicantIfaceE"
    },
    {
     "mangled_component_name":"_ZNK7android8hardware4wifi10supplicant4V1_016ISupplicantIface8isRemoteEv"
    },
    {
     "mangled_component_name":"_ZN7android8hardware4wifi10supplicant4V1_016ISupplicantIface14interfaceChainENSt3__18functionIFvRKNS0_8hidl_vecINS0_11hidl_stringEEEEEE"
    },
    {
     "mangled_component_name":"_ZN7android8hardware4wifi10supplicant4V1_016ISupplicantIface5debugERKNS0_11hidl_handleERKNS0_8hidl_vecINS0_11hidl_stringEEE"
    },
    {
     "mangled_component_name":"_ZN7android8hardware4wifi10supplicant4V1_016ISupplicantIface19interfaceDescriptorENSt3__18functionIFvRKNS0_11hidl_stringEEEE"
    },
    {
     "mangled_component_name":"_ZN7android8hardware4wifi10supplicant4V1_016ISupplicantIface12getHashChainENSt3__18functionIFvRKNS0_8hidl_vecINS0_10hidl_arrayIhLj32EJEEEEEEEE"
    },
    {
     "mangled_component_name":"_ZN7android8hardware4wifi10supplicant4V1_016ISupplicantIface21setHALInstrumentationEv"
    },
    {
     "mangled_component_name":"_ZN7android8hardware4wifi10supplicant4V1_016ISupplicantIface11linkToDeathERKNS_2spINS0_20hidl_death_recipientEEEy"
    },
    {
     "mangled_component_name":"_ZN7android8hardware4wifi10supplicant4V1_016ISupplicantIface4pingEv"
    },
    {
     "mangled_component_name":"_ZN7android8hardware4wifi10supplicant4V1_016ISupplicantIface12getDebugInfoENSt3__18functionIFvRKNS_4hidl4base4V1_09DebugInfoEEEE"
    },
    {
     "mangled_component_name":"_ZN7android8hardware4wifi10supplicant4V1_016ISupplicantIface21notifySyspropsChangedEv"
    },
    {
     "mangled_component_name":"_ZN7android8hardware4wifi10supplicant4V1_016ISupplicantIface13unlinkToDeathERKNS_2spINS0_20hidl_death_recipientEEE"
    },
    {
     "kind":"complete_dtor_pointer",
     "mangled_component_name":"_ZN7android8hardware4wifi10supplicant4V1_016ISupplicantIfaceD1Ev"
    },
    {
     "kind":"deleting_dtor_pointer",
     "mangled_component_name":"_ZN7android8hardware4wifi10supplicant4V1_016ISupplicantIfaceD0Ev"
    },
    {
     "is_pure":true,
     "mangled_component_name":"_ZN7android8hardware4wifi10supplicant4V1_016ISupplicantIface7getNameENSt3__18functionIFvRKNS3_16SupplicantStatusERKNS0_11hidl_stringEEEE"
    },
    {
     "is_pure":true,
     "mangled_component_name":"_ZN7android8hardware4wifi10supplicant4V1_016ISupplicantIface7getTypeENSt3__18functionIFvRKNS3_16SupplicantStatusENS3_9IfaceTypeEEEE"
    },
    {
     "is_pure":true,
     "mangled_component_name":"_ZN7android8hardware4wifi10supplicant4V1_016ISupplicantIface10addNetworkENSt3__18functionIFvRKNS3_16SupplicantStatusERKNS_2spINS3_18ISupplicantNetworkEEEEEE"
    },
    {
     "is_pure":true,
     "mangled_component_name":"_ZN7android8hardware4wifi10supplicant4V1_016ISupplicantIface13removeNetworkEjNSt3__18functionIFvRKNS3_16SupplicantStatusEEEE"
    },
    {
     "is_pure":true,
     "mangled_component_name":"_ZN7android8hardware4wifi10supplicant4V1_016ISupplicantIface10getNetworkEjNSt3__18functionIFvRKNS3_16SupplicantStatusERKNS_2spINS3_18ISupplicantNetworkEEEEEE"
    },
    {
     "is_pure":true,
     "mangled_component_name":"_ZN7android8hardware4wifi10supplicant4V1_016ISupplicantIface12listNetworksENSt3__18functionIFvRKNS3_16SupplicantStatusERKNS0_8hidl_vecIjEEEEE"
    },
    {
     "is_pure":true,
     "mangled_component_name":"_ZN7android8hardware4wifi10supplicant4V1_016ISupplicantIface16setWpsDeviceNameERKNS0_11hidl_stringENSt3__18functionIFvRKNS3_16SupplicantStatusEEEE"
    },
    {
     "is_pure":true,
     "mangled_component_name":"_ZN7android8hardware4wifi10supplicant4V1_016ISupplicantIface16setWpsDeviceTypeERKNS0_10hidl_arrayIhLj8EJEEENSt3__18functionIFvRKNS3_16SupplicantStatusEEEE"
    },
    {
     "is_pure":true,
     "mangled_component_name":"_ZN7android8hardware4wifi10supplicant4V1_016ISupplicantIface18setWpsManufacturerERKNS0_11hidl_stringENSt3__18functionIFvRKNS3_16SupplicantStatusEEEE"
    },
    {
     "is_pure":true,
     "mangled_component_name":"_ZN7android8hardware4wifi10supplicant4V1_016ISupplicantIface15setWpsModelNameERKNS0_11hidl_stringENSt3__18functionIFvRKNS3_16SupplicantStatusEEEE"
    },
    {
     "is_pure":true,
     "mangled_component_name":"_ZN7android8hardware4wifi10supplicant4V1_016ISupplicantIface17setWpsModelNumberERKNS0_11hidl_stringENSt3__18functionIFvRKNS3_16SupplicantStatusEEEE"
    },
    {
     "is_pure":true,
     "mangled_component_name":"_ZN7android8hardware4wifi10supplicant4V1_016ISupplicantIface18setWpsSerialNumberERKNS0_11hidl_stringENSt3__18functionIFvRKNS3_16SupplicantStatusEEEE"
    },
    {
     "is_pure":true,
     "mangled_component_name":"_ZN7android8hardware4wifi10supplicant4V1_016ISupplicantIface19setWpsConfigMethodsEtNSt3__18functionIFvRKNS3_16SupplicantStatusEEEE"
    },
    {
     "kind":"vcall_offset"
    },
    {
     "kind":"vcall_offset"
    },
    {
     "kind":"vcall_offset"
    },
    {
     "kind":"vcall_offset"
    },
    {
     "kind":"vcall_offset",
     "component_value":-4
    },
    {
     "kind":"offset_to_top",
     "component_value":-4
    },
    {
     "kind":"rtti",
     "mangled_component_name":"_ZTIN7android8hardware4wifi10supplicant4V1_016ISupplicantIfaceE"
    },
    {
     "kind":"complete_dtor_pointer",
     "mangled_component_name":"_ZTv0_n12_N7android8hardware4wifi10supplicant4V1_016ISupplicantIfaceD1Ev"
    },
    {
     "kind":"deleting_dtor_pointer",
     "mangled_component_name":"_ZTv0_n12_N7android8hardware4wifi10supplicant4V1_016ISupplicantIfaceD0Ev"
    },
    {
     "mangled_component_name":"_ZN7android7RefBase10onFirstRefEv"
    },
    {
     "mangled_component_name":"_ZN7android7RefBase15onLastStrongRefEPKv"
    },
    {
     "mangled_component_name":"_ZN7android7RefBase20onIncStrongAttemptedEjPKv"
    },
    {
     "mangled_component_name":"_ZN7android7RefBase13onLastWeakRefEPKv"
    }
   ],
   "unique_id":"_ZTSN7android8hardware4wifi10supplicant4V1_016ISupplicantIfaceE"
  },
  {
   "vtable_components":[
    {
     "kind":"vbase_offset",
     "component_value":60
    },
    {
     "kind":"offset_to_top"
    },
    {
     "kind":"rtti",
     "mangled_component_name":"_ZTIN7android8hardware4wifi10supplicant4V1_028BsSupplicantP2pIfaceCallbackE"
    },
    {
     "mangled_component_name":"_ZNK7android8hardware4wifi10supplicant4V1_027ISupplicantP2pIfaceCallback8isRemoteEv"
    },
    {
     "mangled_component_name":"_ZN7android8hardware4wifi10supplicant4V1_028BsSupplicantP2pIfaceCallback14interfaceChainENSt3__18functionIFvRKNS0_8hidl_vecINS0_11hidl_stringEEEEEE"
    },
    {
     "mangled_component_name":"_ZN7android8hardware4wifi10supplicant4V1_028BsSupplicantP2pIfaceCallback5debugERKNS0_11hidl_handleERKNS0_8hidl_vecINS0_11hidl_stringEEE"
    },
    {
     "mangled_component_name":"_ZN7android8hardware4wifi10supplicant4V1_028BsSupplicantP2pIfaceCallback19interfaceDescriptorENSt3__18functionIFvRKNS0_11hidl_stringEEEE"
    },
    {
     "mangled_component_name":"_ZN7android8hardware4wifi10supplicant4V1_028BsSupplicantP2pIfaceCallback12getHashChainENSt3__18functionIFvRKNS0_8hidl_vecINS0_10hidl_arrayIhLj32EJEEEEEEEE"
    },
    {
     "mangled_component_name":"_ZN7android8hardware4wifi10supplicant4V1_028BsSupplicantP2pIfaceCallback21setHALInstrumentationEv"
    },
    {
     "mangled_component_name":"_ZN7android8hardware4wifi10supplicant4V1_028BsSupplicantP2pIfaceCallback11linkToDeathERKNS_2spINS0_20hidl_death_recipientEEEy"
    },
    {
     "mangled_component_name":"_ZN7android8hardware4wifi10supplicant4V1_028BsSupplicantP2pIfaceCallback4pingEv"
    },
    {
     "mangled_component_name":"_ZN7android8hardware4wifi10supplicant4V1_028BsSupplicantP2pIfaceCallback12getDebugInfoENSt3__18functionIFvRKNS_4hidl4base4V1_09DebugInfoEEEE"
    },
    {
     "mangled_component_name":"_ZN7android8hardware4wifi10supplicant4V1_028BsSupplicantP2pIfaceCallback21notifySyspropsChangedEv"
    },
    {
     "mangled_component_name":"_ZN7android8hardware4wifi10supplicant4V1_028BsSupplicantP2pIfaceCallback13unlinkToDeathERKNS_2spINS0_20hidl_death_recipientEEE"
    },
    {
     "kind":"complete_dtor_pointer",
     "mangled_component_name":"_ZN7android8hardware4wifi10supplicant4V1_028BsSupplicantP2pIfaceCallbackD1Ev"
    },
    {
     "kind":"deleting_dtor_pointer",
     "mangled_component_name":"_ZN7android8hardware4wifi10supplicant4V1_028BsSupplicantP2pIfaceCallbackD0Ev"
    },
    {
     "mangled_component_name":"_ZN7android8hardware4wifi10supplicant4V1_028BsSupplicantP2pIfaceCallback14onNetworkAddedEj"
    },
    {
     "mangled_component_name":"_ZN7android8hardware4wifi10supplicant4V1_028BsSupplicantP2pIfaceCallback16onNetworkRemovedEj"
    },
    {
     "mangled_component_name":"_ZN7android8hardware4wifi10supplicant4V1_028BsSupplicantP2pIfaceCallback13onDeviceFoundERKNS0_10hidl_arrayIhLj6EJEEES8_RKNS5_IhLj8EJEEERKNS0_11hidl_stringEthjS8_"
    },
    {
     "mangled_component_name":"_ZN7android8hardware4wifi10supplicant4V1_028BsSupplicantP2pIfaceCallback12onDeviceLostERKNS0_10hidl_arrayIhLj6EJEEE"
    },
    {
     "mangled_component_name":"_ZN7android8hardware4wifi10supplicant4V1_028BsSupplicantP2pIfaceCallback13onFindStoppedEv"
    },
    {
     "mangled_component_name":"_ZN7android8hardware4wifi10supplicant4V1_028BsSupplicantP2pIfaceCallback22onGoNegotiationRequestERKNS0_10hidl_arrayIhLj6EJEEENS3_27ISupplicantP2pIfaceCallback16WpsDevPasswordIdE"
    },
    {
     "mangled_component_name":"_ZN7android8hardware4wifi10supplicant4V1_028BsSupplicantP2pIfaceCallback24onGoNegotiationCompletedENS3_27ISupplicantP2pIfaceCallback13P2pStatusCodeE"
    },
    {
     "mangled_component_name":"_ZN7android8hardware4wifi10supplicant4V1_028BsSupplicantP2pIfaceCallback23onGroupFormationSuccessEv"
    },
    {
     "mangled_component_name":"_ZN7android8hardware4wifi10supplicant4V1_028BsSupplicantP2pIfaceCallback23onGroupFormationFailureERKNS0_11hidl_stringE"
    },
    {
     "mangled_component_name":"_ZN7android8hardware4wifi10supplicant4V1_028BsSupplicantP2pIfaceCallback14onGroupStartedERKNS0_11hidl_stringEbRKNS0_8hidl_vecIhEEjRKNS0_10hidl_arrayIhLj32EJEEES7_RKNSC_IhLj6EJEEEb"
    },
    {
     "mangled_component_name":"_ZN7android8hardware4wifi10supplicant4V1_028BsSupplicantP2pIfaceCallback14onGroupRemovedERKNS0_11hidl_stringEb"
    },
    {
     "mangled_component_name":"_ZN7android8hardware4wifi10supplicant4V1_028BsSupplicantP2pIfaceCallback20onInvitationReceivedERKNS0_10hidl_arrayIhLj6EJEEES8_S8_jj"
    },
    {
     "mangled_component_name":"_ZN7android8hardware4wifi10supplicant4V1_028BsSupplicantP2pIfaceCallback18onInvitationResultERKNS0_10hidl_arrayIhLj6EJEEENS3_27ISupplicantP2pIfaceCallback13P2pStatusCodeE"
    },
    {
     "mangled_component_name":"_ZN7android8hardware4wifi10supplicant4V1_028BsSupplicantP2pIfaceCallback29onProvisionDiscoveryCompletedERKNS0_10hidl_arrayIhLj6EJEEEbNS3_27ISupplicantP2pIfaceCallback21P2pProvDiscStatusCodeEtRKNS0_11hidl_stringE"
    },
    {
     "mangled_component_name":"_ZN7android8hardware4wifi10supplicant4V1_028BsSupplicantP2pIfaceCallback26onServiceDiscoveryResponseERKNS0_10hidl_arrayIhLj6EJEEEtRKNS0_8hidl_vecIhEE"
    },
    {
     "mangled_component_name":"_ZN7android8hardware4wifi10supplicant4V1_028BsSupplicantP2pIfaceCallback15onStaAuthorizedERKNS0_10hidl_arrayIhLj6EJEEES8_"
    },
    {
     "mangled_component_name":"_ZN7android8hardware4wifi10supplicant4V1_028BsSupplicantP2pIfaceCallback17onStaDeauthorizedERKNS0_10hidl_arrayIhLj6EJEEES8_"
    },
    {
     "kind":"offset_to_top",
     "component_value":-4
    },
    {
     "kind":"rtti",
     "mangled_component_name":"_ZTIN7android8hardware4wifi10supplicant4V1_028BsSupplicantP2pIfaceCallbackE"
    },
    {
     "kind":"complete_dtor_pointer",
     "mangled_component_name":"_ZThn4_N7android8hardware4wifi10supplicant4V1_028BsSupplicantP2pIfaceCallbackD1Ev"
    },
    {
     "kind":"deleting_dtor_pointer",
     "mangled_component_name":"_ZThn4_N7android8hardware4wifi10supplicant4V1_028BsSupplicantP2pIfaceCallbackD0Ev"
    },
    {
     "kind":"vcall_offset"
    },
    {
     "kind":"vcall_offset"
    },
    {
     "kind":"vcall_offset"
    },
    {
     "kind":"vcall_offset"
    },
    {
     "kind":"vcall_offset",
     "component_value":-60
    },
    {
     "kind":"offset_to_top",
     "component_value":-60
    },
    {
     "kind":"rtti",
     "mangled_component_name":"_ZTIN7android8hardware4wifi10supplicant4V1_028BsSupplicantP2pIfaceCallbackE"
    },
    {
     "kind":"complete_dtor_pointer",
     "mangled_component_name":"_ZTv0_n12_N7android8hardware4wifi10supplicant4V1_028BsSupplicantP2pIfaceCallbackD1Ev"
    },
    {
     "kind":"deleting_dtor_pointer",
     "mangled_component_name":"_ZTv0_n12_N7android8hardware4wifi10supplicant4V1_028BsSupplicantP2pIfaceCallbackD0Ev"
    },
    {
     "mangled_component_name":"_ZN7android7RefBase10onFirstRefEv"
    },
    {
     "mangled_component_name":"_ZN7android7RefBase15onLastStrongRefEPKv"
    },
    {
     "mangled_component_name":"_ZN7android7RefBase20onIncStrongAttemptedEjPKv"
    },
    {
     "mangled_component_name":"_ZN7android7RefBase13onLastWeakRefEPKv"
    }
   ],
   "unique_id":"_ZTSN7android8hardware4wifi10supplicant4V1_028BsSupplicantP2pIfaceCallbackE"
  },
  {
   "vtable_components":[
    {
     "kind":"vbase_offset",
     "component_value":72
    },
    {
     "kind":"offset_to_top"
    },
    {
     "kind":"rtti",
     "mangled_component_name":"_ZTIN7android8hardware4wifi10supplicant4V1_024BnHwSupplicantP2pNetworkE"
    },
    {
     "mangled_component_name":"_ZN7android8hardware9BHwBinder8transactEjRKNS0_6ParcelEPS2_jNSt3__18functionIFvRS2_EEE"
    },
    {
     "mangled_component_name":"_ZN7android8hardware9BHwBinder11linkToDeathERKNS_2spINS0_7IBinder14DeathRecipientEEEPvj"
    },
    {
     "mangled_component_name":"_ZN7android8hardware9BHwBinder13unlinkToDeathERKNS_2wpINS0_7IBinder14DeathRecipientEEEPvjPS5_"
    },
    {
     "mangled_component_name":"_ZNK7android8hardware7IBinder13checkSubclassEPKv"
    },
    {
     "mangled_component_name":"_ZN7android8hardware9BHwBinder12attachObjectEPKvPvS4_PFvS3_S4_S4_E"
    },
    {
     "mangled_component_name":"_ZNK7android8hardware9BHwBinder10findObjectEPKv"
    },
    {
     "mangled_component_name":"_ZN7android8hardware9BHwBinder12detachObjectEPKv"
    },
    {
     "mangled_component_name":"_ZN7android8hardware9BHwBinder11localBinderEv"
    },
    {
     "mangled_component_name":"_ZN7android8hardware7IBinder12remoteBinderEv"
    },
    {
     "kind":"complete_dtor_pointer",
     "mangled_component_name":"_ZN7android8hardware4wifi10supplicant4V1_024BnHwSupplicantP2pNetworkD1Ev"
    },
    {
     "kind":"deleting_dtor_pointer",
     "mangled_component_name":"_ZN7android8hardware4wifi10supplicant4V1_024BnHwSupplicantP2pNetworkD0Ev"
    },
    {
     "mangled_component_name":"_ZN7android8hardware4wifi10supplicant4V1_024BnHwSupplicantP2pNetwork10onTransactEjRKNS0_6ParcelEPS5_jNSt3__18functionIFvRS5_EEE"
    },
    {
     "kind":"offset_to_top",
     "component_value":-20
    },
    {
     "kind":"rtti",
     "mangled_component_name":"_ZTIN7android8hardware4wifi10supplicant4V1_024BnHwSupplicantP2pNetworkE"
    },
    {
     "kind":"complete_dtor_pointer",
     "mangled_component_name":"_ZThn20_N7android8hardware4wifi10supplicant4V1_024BnHwSupplicantP2pNetworkD1Ev"
    },
    {
     "kind":"deleting_dtor_pointer",
     "mangled_component_name":"_ZThn20_N7android8hardware4wifi10supplicant4V1_024BnHwSupplicantP2pNetworkD0Ev"
    },
    {
     "kind":"vcall_offset"
    },
    {
     "kind":"vcall_offset"
    },
    {
     "kind":"vcall_offset"
    },
    {
     "kind":"vcall_offset"
    },
    {
     "kind":"vcall_offset",
     "component_value":-72
    },
    {
     "kind":"offset_to_top",
     "component_value":-72
    },
    {
     "kind":"rtti",
     "mangled_component_name":"_ZTIN7android8hardware4wifi10supplicant4V1_024BnHwSupplicantP2pNetworkE"
    },
    {
     "kind":"complete_dtor_pointer",
     "mangled_component_name":"_ZTv0_n12_N7android8hardware4wifi10supplicant4V1_024BnHwSupplicantP2pNetworkD1Ev"
    },
    {
     "kind":"deleting_dtor_pointer",
     "mangled_component_name":"_ZTv0_n12_N7android8hardware4wifi10supplicant4V1_024BnHwSupplicantP2pNetworkD0Ev"
    },
    {
     "mangled_component_name":"_ZN7android7RefBase10onFirstRefEv"
    },
    {
     "mangled_component_name":"_ZN7android7RefBase15onLastStrongRefEPKv"
    },
    {
     "mangled_component_name":"_ZN7android7RefBase20onIncStrongAttemptedEjPKv"
    },
    {
     "mangled_component_name":"_ZN7android7RefBase13onLastWeakRefEPKv"
    }
   ],
   "unique_id":"_ZTSN7android8hardware4wifi10supplicant4V1_024BnHwSupplicantP2pNetworkE"
  },
  {
   "vtable_components":[
    {
     "kind":"vbase_offset",
     "component_value":4
    },
    {
     "kind":"offset_to_top"
    },
    {
     "kind":"rtti",
     "mangled_component_name":"_ZTIN7android8hardware4wifi10supplicant4V1_021ISupplicantP2pNetworkE"
    },
    {
     "mangled_component_name":"_ZNK7android8hardware4wifi10supplicant4V1_021ISupplicantP2pNetwork8isRemoteEv"
    },
    {
     "mangled_component_name":"_ZN7android8hardware4wifi10supplicant4V1_021ISupplicantP2pNetwork14interfaceChainENSt3__18functionIFvRKNS0_8hidl_vecINS0_11hidl_stringEEEEEE"
    },
    {
     "mangled_component_name":"_ZN7android8hardware4wifi10supplicant4V1_021ISupplicantP2pNetwork5debugERKNS0_11hidl_handleERKNS0_8hidl_vecINS0_11hidl_stringEEE"
    },
    {
     "mangled_component_name":"_ZN7android8hardware4wifi10supplicant4V1_021ISupplicantP2pNetwork19interfaceDescriptorENSt3__18functionIFvRKNS0_11hidl_stringEEEE"
    },
    {
     "mangled_component_name":"_ZN7android8hardware4wifi10supplicant4V1_021ISupplicantP2pNetwork12getHashChainENSt3__18functionIFvRKNS0_8hidl_vecINS0_10hidl_arrayIhLj32EJEEEEEEEE"
    },
    {
     "mangled_component_name":"_ZN7android8hardware4wifi10supplicant4V1_021ISupplicantP2pNetwork21setHALInstrumentationEv"
    },
    {
     "mangled_component_name":"_ZN7android8hardware4wifi10supplicant4V1_021ISupplicantP2pNetwork11linkToDeathERKNS_2spINS0_20hidl_death_recipientEEEy"
    },
    {
     "mangled_component_name":"_ZN7android8hardware4wifi10supplicant4V1_021ISupplicantP2pNetwork4pingEv"
    },
    {
     "mangled_component_name":"_ZN7android8hardware4wifi10supplicant4V1_021ISupplicantP2pNetwork12getDebugInfoENSt3__18functionIFvRKNS_4hidl4base4V1_09DebugInfoEEEE"
    },
    {
     "mangled_component_name":"_ZN7android8hardware4wifi10supplicant4V1_021ISupplicantP2pNetwork21notifySyspropsChangedEv"
    },
    {
     "mangled_component_name":"_ZN7android8hardware4wifi10supplicant4V1_021ISupplicantP2pNetwork13unlinkToDeathERKNS_2spINS0_20hidl_death_recipientEEE"
    },
    {
     "kind":"complete_dtor_pointer",
     "mangled_component_name":"_ZN7android8hardware4wifi10supplicant4V1_021ISupplicantP2pNetworkD1Ev"
    },
    {
     "kind":"deleting_dtor_pointer",
     "mangled_component_name":"_ZN7android8hardware4wifi10supplicant4V1_021ISupplicantP2pNetworkD0Ev"
    },
    {
     "is_pure":true,
     "mangled_component_name":"_ZN7android8hardware4wifi10supplicant4V1_021ISupplicantP2pNetwork5getIdENSt3__18functionIFvRKNS3_16SupplicantStatusEjEEE"
    },
    {
     "is_pure":true,
     "mangled_component_name":"_ZN7android8hardware4wifi10supplicant4V1_021ISupplicantP2pNetwork16getInterfaceNameENSt3__18functionIFvRKNS3_16SupplicantStatusERKNS0_11hidl_stringEEEE"
    },
    {
     "is_pure":true,
     "mangled_component_name":"_ZN7android8hardware4wifi10supplicant4V1_021ISupplicantP2pNetwork7getTypeENSt3__18functionIFvRKNS3_16SupplicantStatusENS3_9IfaceTypeEEEE"
    },
    {
     "is_pure":true,
     "mangled_component_name":"_ZN7android8hardware4wifi10supplicant4V1_021ISupplicantP2pNetwork16registerCallbackERKNS_2spINS3_29ISupplicantP2pNetworkCallbackEEENSt3__18functionIFvRKNS3_16SupplicantStatusEEEE"
    },
    {
     "is_pure":true,
     "mangled_component_name":"_ZN7android8hardware4wifi10supplicant4V1_021ISupplicantP2pNetwork7getSsidENSt3__18functionIFvRKNS3_16SupplicantStatusERKNS0_8hidl_vecIhEEEEE"
    },
    {
     "is_pure":true,
     "mangled_component_name":"_ZN7android8hardware4wifi10supplicant4V1_021ISupplicantP2pNetwork8getBssidENSt3__18functionIFvRKNS3_16SupplicantStatusERKNS0_10hidl_arrayIhLj6EJEEEEEE"
    },
    {
     "is_pure":true,
     "mangled_component_name":"_ZN7android8hardware4wifi10supplicant4V1_021ISupplicantP2pNetwork9isCurrentENSt3__18functionIFvRKNS3_16SupplicantStatusEbEEE"
    },
    {
     "is_pure":true,
     "mangled_component_name":"_ZN7android8hardware4wifi10supplicant4V1_021ISupplicantP2pNetwork12isPersistentENSt3__18functionIFvRKNS3_16SupplicantStatusEbEEE"
    },
    {
     "is_pure":true,
     "mangled_component_name":"_ZN7android8hardware4wifi10supplicant4V1_021ISupplicantP2pNetwork4isGoENSt3__18functionIFvRKNS3_16SupplicantStatusEbEEE"
    },
    {
     "is_pure":true,
     "mangled_component_name":"_ZN7android8hardware4wifi10supplicant4V1_021ISupplicantP2pNetwork13setClientListERKNS0_8hidl_vecINS0_10hidl_arrayIhLj6EJEEEEENSt3__18functionIFvRKNS3_16SupplicantStatusEEEE"
    },
    {
     "is_pure":true,
     "mangled_component_name":"_ZN7android8hardware4wifi10supplicant4V1_021ISupplicantP2pNetwork13getClientListENSt3__18functionIFvRKNS3_16SupplicantStatusERKNS0_8hidl_vecINS0_10hidl_arrayIhLj6EJEEEEEEEE"
    },
    {
     "kind":"vcall_offset"
    },
    {
     "kind":"vcall_offset"
    },
    {
     "kind":"vcall_offset"
    },
    {
     "kind":"vcall_offset"
    },
    {
     "kind":"vcall_offset",
     "component_value":-4
    },
    {
     "kind":"offset_to_top",
     "component_value":-4
    },
    {
     "kind":"rtti",
     "mangled_component_name":"_ZTIN7android8hardware4wifi10supplicant4V1_021ISupplicantP2pNetworkE"
    },
    {
     "kind":"complete_dtor_pointer",
     "mangled_component_name":"_ZTv0_n12_N7android8hardware4wifi10supplicant4V1_021ISupplicantP2pNetworkD1Ev"
    },
    {
     "kind":"deleting_dtor_pointer",
     "mangled_component_name":"_ZTv0_n12_N7android8hardware4wifi10supplicant4V1_021ISupplicantP2pNetworkD0Ev"
    },
    {
     "mangled_component_name":"_ZN7android7RefBase10onFirstRefEv"
    },
    {
     "mangled_component_name":"_ZN7android7RefBase15onLastStrongRefEPKv"
    },
    {
     "mangled_component_name":"_ZN7android7RefBase20onIncStrongAttemptedEjPKv"
    },
    {
     "mangled_component_name":"_ZN7android7RefBase13onLastWeakRefEPKv"
    }
   ],
   "unique_id":"_ZTSN7android8hardware4wifi10supplicant4V1_021ISupplicantP2pNetworkE"
  },
  {
   "vtable_components":[
    {
     "kind":"vbase_offset",
     "component_value":4
    },
    {
     "kind":"offset_to_top"
    },
    {
     "kind":"rtti",
     "mangled_component_name":"_ZTIN7android8hardware4wifi10supplicant4V1_029ISupplicantP2pNetworkCallbackE"
    },
    {
     "mangled_component_name":"_ZNK7android8hardware4wifi10supplicant4V1_029ISupplicantP2pNetworkCallback8isRemoteEv"
    },
    {
     "mangled_component_name":"_ZN7android8hardware4wifi10supplicant4V1_029ISupplicantP2pNetworkCallback14interfaceChainENSt3__18functionIFvRKNS0_8hidl_vecINS0_11hidl_stringEEEEEE"
    },
    {
     "mangled_component_name":"_ZN7android8hardware4wifi10supplicant4V1_029ISupplicantP2pNetworkCallback5debugERKNS0_11hidl_handleERKNS0_8hidl_vecINS0_11hidl_stringEEE"
    },
    {
     "mangled_component_name":"_ZN7android8hardware4wifi10supplicant4V1_029ISupplicantP2pNetworkCallback19interfaceDescriptorENSt3__18functionIFvRKNS0_11hidl_stringEEEE"
    },
    {
     "mangled_component_name":"_ZN7android8hardware4wifi10supplicant4V1_029ISupplicantP2pNetworkCallback12getHashChainENSt3__18functionIFvRKNS0_8hidl_vecINS0_10hidl_arrayIhLj32EJEEEEEEEE"
    },
    {
     "mangled_component_name":"_ZN7android8hardware4wifi10supplicant4V1_029ISupplicantP2pNetworkCallback21setHALInstrumentationEv"
    },
    {
     "mangled_component_name":"_ZN7android8hardware4wifi10supplicant4V1_029ISupplicantP2pNetworkCallback11linkToDeathERKNS_2spINS0_20hidl_death_recipientEEEy"
    },
    {
     "mangled_component_name":"_ZN7android8hardware4wifi10supplicant4V1_029ISupplicantP2pNetworkCallback4pingEv"
    },
    {
     "mangled_component_name":"_ZN7android8hardware4wifi10supplicant4V1_029ISupplicantP2pNetworkCallback12getDebugInfoENSt3__18functionIFvRKNS_4hidl4base4V1_09DebugInfoEEEE"
    },
    {
     "mangled_component_name":"_ZN7android8hardware4wifi10supplicant4V1_029ISupplicantP2pNetworkCallback21notifySyspropsChangedEv"
    },
    {
     "mangled_component_name":"_ZN7android8hardware4wifi10supplicant4V1_029ISupplicantP2pNetworkCallback13unlinkToDeathERKNS_2spINS0_20hidl_death_recipientEEE"
    },
    {
     "kind":"complete_dtor_pointer",
     "mangled_component_name":"_ZN7android8hardware4wifi10supplicant4V1_029ISupplicantP2pNetworkCallbackD1Ev"
    },
    {
     "kind":"deleting_dtor_pointer",
     "mangled_component_name":"_ZN7android8hardware4wifi10supplicant4V1_029ISupplicantP2pNetworkCallbackD0Ev"
    },
    {
     "kind":"vcall_offset"
    },
    {
     "kind":"vcall_offset"
    },
    {
     "kind":"vcall_offset"
    },
    {
     "kind":"vcall_offset"
    },
    {
     "kind":"vcall_offset",
     "component_value":-4
    },
    {
     "kind":"offset_to_top",
     "component_value":-4
    },
    {
     "kind":"rtti",
     "mangled_component_name":"_ZTIN7android8hardware4wifi10supplicant4V1_029ISupplicantP2pNetworkCallbackE"
    },
    {
     "kind":"complete_dtor_pointer",
     "mangled_component_name":"_ZTv0_n12_N7android8hardware4wifi10supplicant4V1_029ISupplicantP2pNetworkCallbackD1Ev"
    },
    {
     "kind":"deleting_dtor_pointer",
     "mangled_component_name":"_ZTv0_n12_N7android8hardware4wifi10supplicant4V1_029ISupplicantP2pNetworkCallbackD0Ev"
    },
    {
     "mangled_component_name":"_ZN7android7RefBase10onFirstRefEv"
    },
    {
     "mangled_component_name":"_ZN7android7RefBase15onLastStrongRefEPKv"
    },
    {
     "mangled_component_name":"_ZN7android7RefBase20onIncStrongAttemptedEjPKv"
    },
    {
     "mangled_component_name":"_ZN7android7RefBase13onLastWeakRefEPKv"
    }
   ],
   "unique_id":"_ZTSN7android8hardware4wifi10supplicant4V1_029ISupplicantP2pNetworkCallbackE"
  },
  {
   "vtable_components":[
    {
     "kind":"vbase_offset",
     "component_value":60
    },
    {
     "kind":"offset_to_top"
    },
    {
     "kind":"rtti",
     "mangled_component_name":"_ZTIN7android8hardware4wifi10supplicant4V1_022BsSupplicantP2pNetworkE"
    },
    {
     "mangled_component_name":"_ZNK7android8hardware4wifi10supplicant4V1_021ISupplicantP2pNetwork8isRemoteEv"
    },
    {
     "mangled_component_name":"_ZN7android8hardware4wifi10supplicant4V1_022BsSupplicantP2pNetwork14interfaceChainENSt3__18functionIFvRKNS0_8hidl_vecINS0_11hidl_stringEEEEEE"
    },
    {
     "mangled_component_name":"_ZN7android8hardware4wifi10supplicant4V1_022BsSupplicantP2pNetwork5debugERKNS0_11hidl_handleERKNS0_8hidl_vecINS0_11hidl_stringEEE"
    },
    {
     "mangled_component_name":"_ZN7android8hardware4wifi10supplicant4V1_022BsSupplicantP2pNetwork19interfaceDescriptorENSt3__18functionIFvRKNS0_11hidl_stringEEEE"
    },
    {
     "mangled_component_name":"_ZN7android8hardware4wifi10supplicant4V1_022BsSupplicantP2pNetwork12getHashChainENSt3__18functionIFvRKNS0_8hidl_vecINS0_10hidl_arrayIhLj32EJEEEEEEEE"
    },
    {
     "mangled_component_name":"_ZN7android8hardware4wifi10supplicant4V1_022BsSupplicantP2pNetwork21setHALInstrumentationEv"
    },
    {
     "mangled_component_name":"_ZN7android8hardware4wifi10supplicant4V1_022BsSupplicantP2pNetwork11linkToDeathERKNS_2spINS0_20hidl_death_recipientEEEy"
    },
    {
     "mangled_component_name":"_ZN7android8hardware4wifi10supplicant4V1_022BsSupplicantP2pNetwork4pingEv"
    },
    {
     "mangled_component_name":"_ZN7android8hardware4wifi10supplicant4V1_022BsSupplicantP2pNetwork12getDebugInfoENSt3__18functionIFvRKNS_4hidl4base4V1_09DebugInfoEEEE"
    },
    {
     "mangled_component_name":"_ZN7android8hardware4wifi10supplicant4V1_022BsSupplicantP2pNetwork21notifySyspropsChangedEv"
    },
    {
     "mangled_component_name":"_ZN7android8hardware4wifi10supplicant4V1_022BsSupplicantP2pNetwork13unlinkToDeathERKNS_2spINS0_20hidl_death_recipientEEE"
    },
    {
     "kind":"complete_dtor_pointer",
     "mangled_component_name":"_ZN7android8hardware4wifi10supplicant4V1_022BsSupplicantP2pNetworkD1Ev"
    },
    {
     "kind":"deleting_dtor_pointer",
     "mangled_component_name":"_ZN7android8hardware4wifi10supplicant4V1_022BsSupplicantP2pNetworkD0Ev"
    },
    {
     "mangled_component_name":"_ZN7android8hardware4wifi10supplicant4V1_022BsSupplicantP2pNetwork5getIdENSt3__18functionIFvRKNS3_16SupplicantStatusEjEEE"
    },
    {
     "mangled_component_name":"_ZN7android8hardware4wifi10supplicant4V1_022BsSupplicantP2pNetwork16getInterfaceNameENSt3__18functionIFvRKNS3_16SupplicantStatusERKNS0_11hidl_stringEEEE"
    },
    {
     "mangled_component_name":"_ZN7android8hardware4wifi10supplicant4V1_022BsSupplicantP2pNetwork7getTypeENSt3__18functionIFvRKNS3_16SupplicantStatusENS3_9IfaceTypeEEEE"
    },
    {
     "mangled_component_name":"_ZN7android8hardware4wifi10supplicant4V1_022BsSupplicantP2pNetwork16registerCallbackERKNS_2spINS3_29ISupplicantP2pNetworkCallbackEEENSt3__18functionIFvRKNS3_16SupplicantStatusEEEE"
    },
    {
     "mangled_component_name":"_ZN7android8hardware4wifi10supplicant4V1_022BsSupplicantP2pNetwork7getSsidENSt3__18functionIFvRKNS3_16SupplicantStatusERKNS0_8hidl_vecIhEEEEE"
    },
    {
     "mangled_component_name":"_ZN7android8hardware4wifi10supplicant4V1_022BsSupplicantP2pNetwork8getBssidENSt3__18functionIFvRKNS3_16SupplicantStatusERKNS0_10hidl_arrayIhLj6EJEEEEEE"
    },
    {
     "mangled_component_name":"_ZN7android8hardware4wifi10supplicant4V1_022BsSupplicantP2pNetwork9isCurrentENSt3__18functionIFvRKNS3_16SupplicantStatusEbEEE"
    },
    {
     "mangled_component_name":"_ZN7android8hardware4wifi10supplicant4V1_022BsSupplicantP2pNetwork12isPersistentENSt3__18functionIFvRKNS3_16SupplicantStatusEbEEE"
    },
    {
     "mangled_component_name":"_ZN7android8hardware4wifi10supplicant4V1_022BsSupplicantP2pNetwork4isGoENSt3__18functionIFvRKNS3_16SupplicantStatusEbEEE"
    },
    {
     "mangled_component_name":"_ZN7android8hardware4wifi10supplicant4V1_022BsSupplicantP2pNetwork13setClientListERKNS0_8hidl_vecINS0_10hidl_arrayIhLj6EJEEEEENSt3__18functionIFvRKNS3_16SupplicantStatusEEEE"
    },
    {
     "mangled_component_name":"_ZN7android8hardware4wifi10supplicant4V1_022BsSupplicantP2pNetwork13getClientListENSt3__18functionIFvRKNS3_16SupplicantStatusERKNS0_8hidl_vecINS0_10hidl_arrayIhLj6EJEEEEEEEE"
    },
    {
     "kind":"offset_to_top",
     "component_value":-4
    },
    {
     "kind":"rtti",
     "mangled_component_name":"_ZTIN7android8hardware4wifi10supplicant4V1_022BsSupplicantP2pNetworkE"
    },
    {
     "kind":"complete_dtor_pointer",
     "mangled_component_name":"_ZThn4_N7android8hardware4wifi10supplicant4V1_022BsSupplicantP2pNetworkD1Ev"
    },
    {
     "kind":"deleting_dtor_pointer",
     "mangled_component_name":"_ZThn4_N7android8hardware4wifi10supplicant4V1_022BsSupplicantP2pNetworkD0Ev"
    },
    {
     "kind":"vcall_offset"
    },
    {
     "kind":"vcall_offset"
    },
    {
     "kind":"vcall_offset"
    },
    {
     "kind":"vcall_offset"
    },
    {
     "kind":"vcall_offset",
     "component_value":-60
    },
    {
     "kind":"offset_to_top",
     "component_value":-60
    },
    {
     "kind":"rtti",
     "mangled_component_name":"_ZTIN7android8hardware4wifi10supplicant4V1_022BsSupplicantP2pNetworkE"
    },
    {
     "kind":"complete_dtor_pointer",
     "mangled_component_name":"_ZTv0_n12_N7android8hardware4wifi10supplicant4V1_022BsSupplicantP2pNetworkD1Ev"
    },
    {
     "kind":"deleting_dtor_pointer",
     "mangled_component_name":"_ZTv0_n12_N7android8hardware4wifi10supplicant4V1_022BsSupplicantP2pNetworkD0Ev"
    },
    {
     "mangled_component_name":"_ZN7android7RefBase10onFirstRefEv"
    },
    {
     "mangled_component_name":"_ZN7android7RefBase15onLastStrongRefEPKv"
    },
    {
     "mangled_component_name":"_ZN7android7RefBase20onIncStrongAttemptedEjPKv"
    },
    {
     "mangled_component_name":"_ZN7android7RefBase13onLastWeakRefEPKv"
    }
   ],
   "unique_id":"_ZTSN7android8hardware4wifi10supplicant4V1_022BsSupplicantP2pNetworkE"
  },
  {
   "vtable_components":[
    {
     "kind":"vbase_offset",
     "component_value":84
    },
    {
     "kind":"offset_to_top"
    },
    {
     "kind":"rtti",
     "mangled_component_name":"_ZTIN7android8hardware4wifi10supplicant4V1_024BpHwSupplicantP2pNetworkE"
    },
    {
     "mangled_component_name":"_ZNK7android8hardware4wifi10supplicant4V1_024BpHwSupplicantP2pNetwork8isRemoteEv"
    },
    {
     "mangled_component_name":"_ZN7android8hardware4wifi10supplicant4V1_024BpHwSupplicantP2pNetwork14interfaceChainENSt3__18functionIFvRKNS0_8hidl_vecINS0_11hidl_stringEEEEEE"
    },
    {
     "mangled_component_name":"_ZN7android8hardware4wifi10supplicant4V1_024BpHwSupplicantP2pNetwork5debugERKNS0_11hidl_handleERKNS0_8hidl_vecINS0_11hidl_stringEEE"
    },
    {
     "mangled_component_name":"_ZN7android8hardware4wifi10supplicant4V1_024BpHwSupplicantP2pNetwork19interfaceDescriptorENSt3__18functionIFvRKNS0_11hidl_stringEEEE"
    },
    {
     "mangled_component_name":"_ZN7android8hardware4wifi10supplicant4V1_024BpHwSupplicantP2pNetwork12getHashChainENSt3__18functionIFvRKNS0_8hidl_vecINS0_10hidl_arrayIhLj32EJEEEEEEEE"
    },
    {
     "mangled_component_name":"_ZN7android8hardware4wifi10supplicant4V1_024BpHwSupplicantP2pNetwork21setHALInstrumentationEv"
    },
    {
     "mangled_component_name":"_ZN7android8hardware4wifi10supplicant4V1_024BpHwSupplicantP2pNetwork11linkToDeathERKNS_2spINS0_20hidl_death_recipientEEEy"
    },
    {
     "mangled_component_name":"_ZN7android8hardware4wifi10supplicant4V1_024BpHwSupplicantP2pNetwork4pingEv"
    },
    {
     "mangled_component_name":"_ZN7android8hardware4wifi10supplicant4V1_024BpHwSupplicantP2pNetwork12getDebugInfoENSt3__18functionIFvRKNS_4hidl4base4V1_09DebugInfoEEEE"
    },
    {
     "mangled_component_name":"_ZN7android8hardware4wifi10supplicant4V1_024BpHwSupplicantP2pNetwork21notifySyspropsChangedEv"
    },
    {
     "mangled_component_name":"_ZN7android8hardware4wifi10supplicant4V1_024BpHwSupplicantP2pNetwork13unlinkToDeathERKNS_2spINS0_20hidl_death_recipientEEE"
    },
    {
     "kind":"complete_dtor_pointer",
     "mangled_component_name":"_ZN7android8hardware4wifi10supplicant4V1_024BpHwSupplicantP2pNetworkD1Ev"
    },
    {
     "kind":"deleting_dtor_pointer",
     "mangled_component_name":"_ZN7android8hardware4wifi10supplicant4V1_024BpHwSupplicantP2pNetworkD0Ev"
    },
    {
     "mangled_component_name":"_ZN7android8hardware4wifi10supplicant4V1_024BpHwSupplicantP2pNetwork5getIdENSt3__18functionIFvRKNS3_16SupplicantStatusEjEEE"
    },
    {
     "mangled_component_name":"_ZN7android8hardware4wifi10supplicant4V1_024BpHwSupplicantP2pNetwork16getInterfaceNameENSt3__18functionIFvRKNS3_16SupplicantStatusERKNS0_11hidl_stringEEEE"
    },
    {
     "mangled_component_name":"_ZN7android8hardware4wifi10supplicant4V1_024BpHwSupplicantP2pNetwork7getTypeENSt3__18functionIFvRKNS3_16SupplicantStatusENS3_9IfaceTypeEEEE"
    },
    {
     "mangled_component_name":"_ZN7android8hardware4wifi10supplicant4V1_024BpHwSupplicantP2pNetwork16registerCallbackERKNS_2spINS3_29ISupplicantP2pNetworkCallbackEEENSt3__18functionIFvRKNS3_16SupplicantStatusEEEE"
    },
    {
     "mangled_component_name":"_ZN7android8hardware4wifi10supplicant4V1_024BpHwSupplicantP2pNetwork7getSsidENSt3__18functionIFvRKNS3_16SupplicantStatusERKNS0_8hidl_vecIhEEEEE"
    },
    {
     "mangled_component_name":"_ZN7android8hardware4wifi10supplicant4V1_024BpHwSupplicantP2pNetwork8getBssidENSt3__18functionIFvRKNS3_16SupplicantStatusERKNS0_10hidl_arrayIhLj6EJEEEEEE"
    },
    {
     "mangled_component_name":"_ZN7android8hardware4wifi10supplicant4V1_024BpHwSupplicantP2pNetwork9isCurrentENSt3__18functionIFvRKNS3_16SupplicantStatusEbEEE"
    },
    {
     "mangled_component_name":"_ZN7android8hardware4wifi10supplicant4V1_024BpHwSupplicantP2pNetwork12isPersistentENSt3__18functionIFvRKNS3_16SupplicantStatusEbEEE"
    },
    {
     "mangled_component_name":"_ZN7android8hardware4wifi10supplicant4V1_024BpHwSupplicantP2pNetwork4isGoENSt3__18functionIFvRKNS3_16SupplicantStatusEbEEE"
    },
    {
     "mangled_component_name":"_ZN7android8hardware4wifi10supplicant4V1_024BpHwSupplicantP2pNetwork13setClientListERKNS0_8hidl_vecINS0_10hidl_arrayIhLj6EJEEEEENSt3__18functionIFvRKNS3_16SupplicantStatusEEEE"
    },
    {
     "mangled_component_name":"_ZN7android8hardware4wifi10supplicant4V1_024BpHwSupplicantP2pNetwork13getClientListENSt3__18functionIFvRKNS3_16SupplicantStatusERKNS0_8hidl_vecINS0_10hidl_arrayIhLj6EJEEEEEEEE"
    },
    {
     "mangled_component_name":"_ZN7android8hardware11BpInterfaceINS0_4wifi10supplicant4V1_021ISupplicantP2pNetworkEE10onAsBinderEv"
    },
    {
     "kind":"vbase_offset",
     "component_value":80
    },
    {
     "kind":"offset_to_top",
     "component_value":-4
    },
    {
     "kind":"rtti",
     "mangled_component_name":"_ZTIN7android8hardware4wifi10supplicant4V1_024BpHwSupplicantP2pNetworkE"
    },
    {
     "kind":"complete_dtor_pointer",
     "mangled_component_name":"_ZThn4_N7android8hardware4wifi10supplicant4V1_024BpHwSupplicantP2pNetworkD1Ev"
    },
    {
     "kind":"deleting_dtor_pointer",
     "mangled_component_name":"_ZThn4_N7android8hardware4wifi10supplicant4V1_024BpHwSupplicantP2pNetworkD0Ev"
    },
    {
     "mangled_component_name":"_ZThn4_N7android8hardware11BpInterfaceINS0_4wifi10supplicant4V1_021ISupplicantP2pNetworkEE10onAsBinderEv"
    },
    {
     "kind":"vbase_offset",
     "component_value":76
    },
    {
     "kind":"offset_to_top",
     "component_value":-8
    },
    {
     "kind":"rtti",
     "mangled_component_name":"_ZTIN7android8hardware4wifi10supplicant4V1_024BpHwSupplicantP2pNetworkE"
    },
    {
     "kind":"complete_dtor_pointer",
     "mangled_component_name":"_ZThn8_N7android8hardware4wifi10supplicant4V1_024BpHwSupplicantP2pNetworkD1Ev"
    },
    {
     "kind":"deleting_dtor_pointer",
     "mangled_component_name":"_ZThn8_N7android8hardware4wifi10supplicant4V1_024BpHwSupplicantP2pNetworkD0Ev"
    },
    {
     "mangled_component_name":"_ZN7android8hardware11BpHwRefBase10onFirstRefEv"
    },
    {
     "mangled_component_name":"_ZN7android8hardware11BpHwRefBase15onLastStrongRefEPKv"
    },
    {
     "mangled_component_name":"_ZN7android8hardware11BpHwRefBase20onIncStrongAttemptedEjPKv"
    },
    {
     "kind":"offset_to_top",
     "component_value":-24
    },
    {
     "kind":"rtti",
     "mangled_component_name":"_ZTIN7android8hardware4wifi10supplicant4V1_024BpHwSupplicantP2pNetworkE"
    },
    {
     "kind":"complete_dtor_pointer",
     "mangled_component_name":"_ZThn24_N7android8hardware4wifi10supplicant4V1_024BpHwSupplicantP2pNetworkD1Ev"
    },
    {
     "kind":"deleting_dtor_pointer",
     "mangled_component_name":"_ZThn24_N7android8hardware4wifi10supplicant4V1_024BpHwSupplicantP2pNetworkD0Ev"
    },
    {
     "kind":"vcall_offset"
    },
    {
     "kind":"vcall_offset",
     "component_value":-76
    },
    {
     "kind":"vcall_offset",
     "component_value":-76
    },
    {
     "kind":"vcall_offset",
     "component_value":-76
    },
    {
     "kind":"vcall_offset",
     "component_value":-84
    },
    {
     "kind":"offset_to_top",
     "component_value":-84
    },
    {
     "kind":"rtti",
     "mangled_component_name":"_ZTIN7android8hardware4wifi10supplicant4V1_024BpHwSupplicantP2pNetworkE"
    },
    {
     "kind":"complete_dtor_pointer",
     "mangled_component_name":"_ZTv0_n12_N7android8hardware4wifi10supplicant4V1_024BpHwSupplicantP2pNetworkD1Ev"
    },
    {
     "kind":"deleting_dtor_pointer",
     "mangled_component_name":"_ZTv0_n12_N7android8hardware4wifi10supplicant4V1_024BpHwSupplicantP2pNetworkD0Ev"
    },
    {
     "mangled_component_name":"_ZTv0_n16_N7android8hardware11BpHwRefBase10onFirstRefEv"
    },
    {
     "mangled_component_name":"_ZTv0_n20_N7android8hardware11BpHwRefBase15onLastStrongRefEPKv"
    },
    {
     "mangled_component_name":"_ZTv0_n24_N7android8hardware11BpHwRefBase20onIncStrongAttemptedEjPKv"
    },
    {
     "mangled_component_name":"_ZN7android7RefBase13onLastWeakRefEPKv"
    }
   ],
   "unique_id":"_ZTSN7android8hardware4wifi10supplicant4V1_024BpHwSupplicantP2pNetworkE"
  },
  {
   "vtable_components":[
    {
     "kind":"vbase_offset",
     "component_value":84
    },
    {
     "kind":"offset_to_top"
    },
    {
     "kind":"rtti",
     "mangled_component_name":"_ZTIN7android8hardware4wifi10supplicant4V1_032BpHwSupplicantP2pNetworkCallbackE"
    },
    {
     "mangled_component_name":"_ZNK7android8hardware4wifi10supplicant4V1_032BpHwSupplicantP2pNetworkCallback8isRemoteEv"
    },
    {
     "mangled_component_name":"_ZN7android8hardware4wifi10supplicant4V1_032BpHwSupplicantP2pNetworkCallback14interfaceChainENSt3__18functionIFvRKNS0_8hidl_vecINS0_11hidl_stringEEEEEE"
    },
    {
     "mangled_component_name":"_ZN7android8hardware4wifi10supplicant4V1_032BpHwSupplicantP2pNetworkCallback5debugERKNS0_11hidl_handleERKNS0_8hidl_vecINS0_11hidl_stringEEE"
    },
    {
     "mangled_component_name":"_ZN7android8hardware4wifi10supplicant4V1_032BpHwSupplicantP2pNetworkCallback19interfaceDescriptorENSt3__18functionIFvRKNS0_11hidl_stringEEEE"
    },
    {
     "mangled_component_name":"_ZN7android8hardware4wifi10supplicant4V1_032BpHwSupplicantP2pNetworkCallback12getHashChainENSt3__18functionIFvRKNS0_8hidl_vecINS0_10hidl_arrayIhLj32EJEEEEEEEE"
    },
    {
     "mangled_component_name":"_ZN7android8hardware4wifi10supplicant4V1_032BpHwSupplicantP2pNetworkCallback21setHALInstrumentationEv"
    },
    {
     "mangled_component_name":"_ZN7android8hardware4wifi10supplicant4V1_032BpHwSupplicantP2pNetworkCallback11linkToDeathERKNS_2spINS0_20hidl_death_recipientEEEy"
    },
    {
     "mangled_component_name":"_ZN7android8hardware4wifi10supplicant4V1_032BpHwSupplicantP2pNetworkCallback4pingEv"
    },
    {
     "mangled_component_name":"_ZN7android8hardware4wifi10supplicant4V1_032BpHwSupplicantP2pNetworkCallback12getDebugInfoENSt3__18functionIFvRKNS_4hidl4base4V1_09DebugInfoEEEE"
    },
    {
     "mangled_component_name":"_ZN7android8hardware4wifi10supplicant4V1_032BpHwSupplicantP2pNetworkCallback21notifySyspropsChangedEv"
    },
    {
     "mangled_component_name":"_ZN7android8hardware4wifi10supplicant4V1_032BpHwSupplicantP2pNetworkCallback13unlinkToDeathERKNS_2spINS0_20hidl_death_recipientEEE"
    },
    {
     "kind":"complete_dtor_pointer",
     "mangled_component_name":"_ZN7android8hardware4wifi10supplicant4V1_032BpHwSupplicantP2pNetworkCallbackD1Ev"
    },
    {
     "kind":"deleting_dtor_pointer",
     "mangled_component_name":"_ZN7android8hardware4wifi10supplicant4V1_032BpHwSupplicantP2pNetworkCallbackD0Ev"
    },
    {
     "mangled_component_name":"_ZN7android8hardware11BpInterfaceINS0_4wifi10supplicant4V1_029ISupplicantP2pNetworkCallbackEE10onAsBinderEv"
    },
    {
     "kind":"vbase_offset",
     "component_value":80
    },
    {
     "kind":"offset_to_top",
     "component_value":-4
    },
    {
     "kind":"rtti",
     "mangled_component_name":"_ZTIN7android8hardware4wifi10supplicant4V1_032BpHwSupplicantP2pNetworkCallbackE"
    },
    {
     "kind":"complete_dtor_pointer",
     "mangled_component_name":"_ZThn4_N7android8hardware4wifi10supplicant4V1_032BpHwSupplicantP2pNetworkCallbackD1Ev"
    },
    {
     "kind":"deleting_dtor_pointer",
     "mangled_component_name":"_ZThn4_N7android8hardware4wifi10supplicant4V1_032BpHwSupplicantP2pNetworkCallbackD0Ev"
    },
    {
     "mangled_component_name":"_ZThn4_N7android8hardware11BpInterfaceINS0_4wifi10supplicant4V1_029ISupplicantP2pNetworkCallbackEE10onAsBinderEv"
    },
    {
     "kind":"vbase_offset",
     "component_value":76
    },
    {
     "kind":"offset_to_top",
     "component_value":-8
    },
    {
     "kind":"rtti",
     "mangled_component_name":"_ZTIN7android8hardware4wifi10supplicant4V1_032BpHwSupplicantP2pNetworkCallbackE"
    },
    {
     "kind":"complete_dtor_pointer",
     "mangled_component_name":"_ZThn8_N7android8hardware4wifi10supplicant4V1_032BpHwSupplicantP2pNetworkCallbackD1Ev"
    },
    {
     "kind":"deleting_dtor_pointer",
     "mangled_component_name":"_ZThn8_N7android8hardware4wifi10supplicant4V1_032BpHwSupplicantP2pNetworkCallbackD0Ev"
    },
    {
     "mangled_component_name":"_ZN7android8hardware11BpHwRefBase10onFirstRefEv"
    },
    {
     "mangled_component_name":"_ZN7android8hardware11BpHwRefBase15onLastStrongRefEPKv"
    },
    {
     "mangled_component_name":"_ZN7android8hardware11BpHwRefBase20onIncStrongAttemptedEjPKv"
    },
    {
     "kind":"offset_to_top",
     "component_value":-24
    },
    {
     "kind":"rtti",
     "mangled_component_name":"_ZTIN7android8hardware4wifi10supplicant4V1_032BpHwSupplicantP2pNetworkCallbackE"
    },
    {
     "kind":"complete_dtor_pointer",
     "mangled_component_name":"_ZThn24_N7android8hardware4wifi10supplicant4V1_032BpHwSupplicantP2pNetworkCallbackD1Ev"
    },
    {
     "kind":"deleting_dtor_pointer",
     "mangled_component_name":"_ZThn24_N7android8hardware4wifi10supplicant4V1_032BpHwSupplicantP2pNetworkCallbackD0Ev"
    },
    {
     "kind":"vcall_offset"
    },
    {
     "kind":"vcall_offset",
     "component_value":-76
    },
    {
     "kind":"vcall_offset",
     "component_value":-76
    },
    {
     "kind":"vcall_offset",
     "component_value":-76
    },
    {
     "kind":"vcall_offset",
     "component_value":-84
    },
    {
     "kind":"offset_to_top",
     "component_value":-84
    },
    {
     "kind":"rtti",
     "mangled_component_name":"_ZTIN7android8hardware4wifi10supplicant4V1_032BpHwSupplicantP2pNetworkCallbackE"
    },
    {
     "kind":"complete_dtor_pointer",
     "mangled_component_name":"_ZTv0_n12_N7android8hardware4wifi10supplicant4V1_032BpHwSupplicantP2pNetworkCallbackD1Ev"
    },
    {
     "kind":"deleting_dtor_pointer",
     "mangled_component_name":"_ZTv0_n12_N7android8hardware4wifi10supplicant4V1_032BpHwSupplicantP2pNetworkCallbackD0Ev"
    },
    {
     "mangled_component_name":"_ZTv0_n16_N7android8hardware11BpHwRefBase10onFirstRefEv"
    },
    {
     "mangled_component_name":"_ZTv0_n20_N7android8hardware11BpHwRefBase15onLastStrongRefEPKv"
    },
    {
     "mangled_component_name":"_ZTv0_n24_N7android8hardware11BpHwRefBase20onIncStrongAttemptedEjPKv"
    },
    {
     "mangled_component_name":"_ZN7android7RefBase13onLastWeakRefEPKv"
    }
   ],
   "unique_id":"_ZTSN7android8hardware4wifi10supplicant4V1_032BpHwSupplicantP2pNetworkCallbackE"
  },
  {
   "vtable_components":[
    {
     "kind":"vbase_offset",
     "component_value":24
    },
    {
     "kind":"offset_to_top"
    },
    {
     "kind":"rtti",
     "mangled_component_name":"_ZTIN7android8hardware11BpInterfaceINS0_4wifi10supplicant4V1_029ISupplicantP2pNetworkCallbackEEE"
    },
    {
     "mangled_component_name":"_ZNK7android8hardware4wifi10supplicant4V1_029ISupplicantP2pNetworkCallback8isRemoteEv"
    },
    {
     "mangled_component_name":"_ZN7android8hardware4wifi10supplicant4V1_029ISupplicantP2pNetworkCallback14interfaceChainENSt3__18functionIFvRKNS0_8hidl_vecINS0_11hidl_stringEEEEEE"
    },
    {
     "mangled_component_name":"_ZN7android8hardware4wifi10supplicant4V1_029ISupplicantP2pNetworkCallback5debugERKNS0_11hidl_handleERKNS0_8hidl_vecINS0_11hidl_stringEEE"
    },
    {
     "mangled_component_name":"_ZN7android8hardware4wifi10supplicant4V1_029ISupplicantP2pNetworkCallback19interfaceDescriptorENSt3__18functionIFvRKNS0_11hidl_stringEEEE"
    },
    {
     "mangled_component_name":"_ZN7android8hardware4wifi10supplicant4V1_029ISupplicantP2pNetworkCallback12getHashChainENSt3__18functionIFvRKNS0_8hidl_vecINS0_10hidl_arrayIhLj32EJEEEEEEEE"
    },
    {
     "mangled_component_name":"_ZN7android8hardware4wifi10supplicant4V1_029ISupplicantP2pNetworkCallback21setHALInstrumentationEv"
    },
    {
     "mangled_component_name":"_ZN7android8hardware4wifi10supplicant4V1_029ISupplicantP2pNetworkCallback11linkToDeathERKNS_2spINS0_20hidl_death_recipientEEEy"
    },
    {
     "mangled_component_name":"_ZN7android8hardware4wifi10supplicant4V1_029ISupplicantP2pNetworkCallback4pingEv"
    },
    {
     "mangled_component_name":"_ZN7android8hardware4wifi10supplicant4V1_029ISupplicantP2pNetworkCallback12getDebugInfoENSt3__18functionIFvRKNS_4hidl4base4V1_09DebugInfoEEEE"
    },
    {
     "mangled_component_name":"_ZN7android8hardware4wifi10supplicant4V1_029ISupplicantP2pNetworkCallback21notifySyspropsChangedEv"
    },
    {
     "mangled_component_name":"_ZN7android8hardware4wifi10supplicant4V1_029ISupplicantP2pNetworkCallback13unlinkToDeathERKNS_2spINS0_20hidl_death_recipientEEE"
    },
    {
     "kind":"complete_dtor_pointer",
     "mangled_component_name":"_ZN7android8hardware11BpInterfaceINS0_4wifi10supplicant4V1_029ISupplicantP2pNetworkCallbackEED1Ev"
    },
    {
     "kind":"deleting_dtor_pointer",
     "mangled_component_name":"_ZN7android8hardware11BpInterfaceINS0_4wifi10supplicant4V1_029ISupplicantP2pNetworkCallbackEED0Ev"
    },
    {
     "mangled_component_name":"_ZN7android8hardware11BpInterfaceINS0_4wifi10supplicant4V1_029ISupplicantP2pNetworkCallbackEE10onAsBinderEv"
    },
    {
     "kind":"vbase_offset",
     "component_value":20
    },
    {
     "kind":"offset_to_top",
     "component_value":-4
    },
    {
     "kind":"rtti",
     "mangled_component_name":"_ZTIN7android8hardware11BpInterfaceINS0_4wifi10supplicant4V1_029ISupplicantP2pNetworkCallbackEEE"
    },
    {
     "kind":"complete_dtor_pointer",
     "mangled_component_name":"_ZThn4_N7android8hardware11BpInterfaceINS0_4wifi10supplicant4V1_029ISupplicantP2pNetworkCallbackEED1Ev"
    },
    {
     "kind":"deleting_dtor_pointer",
     "mangled_component_name":"_ZThn4_N7android8hardware11BpInterfaceINS0_4wifi10supplicant4V1_029ISupplicantP2pNetworkCallbackEED0Ev"
    },
    {
     "mangled_component_name":"_ZThn4_N7android8hardware11BpInterfaceINS0_4wifi10supplicant4V1_029ISupplicantP2pNetworkCallbackEE10onAsBinderEv"
    },
    {
     "kind":"vbase_offset",
     "component_value":16
    },
    {
     "kind":"offset_to_top",
     "component_value":-8
    },
    {
     "kind":"rtti",
     "mangled_component_name":"_ZTIN7android8hardware11BpInterfaceINS0_4wifi10supplicant4V1_029ISupplicantP2pNetworkCallbackEEE"
    },
    {
     "kind":"complete_dtor_pointer",
     "mangled_component_name":"_ZThn8_N7android8hardware11BpInterfaceINS0_4wifi10supplicant4V1_029ISupplicantP2pNetworkCallbackEED1Ev"
    },
    {
     "kind":"deleting_dtor_pointer",
     "mangled_component_name":"_ZThn8_N7android8hardware11BpInterfaceINS0_4wifi10supplicant4V1_029ISupplicantP2pNetworkCallbackEED0Ev"
    },
    {
     "mangled_component_name":"_ZN7android8hardware11BpHwRefBase10onFirstRefEv"
    },
    {
     "mangled_component_name":"_ZN7android8hardware11BpHwRefBase15onLastStrongRefEPKv"
    },
    {
     "mangled_component_name":"_ZN7android8hardware11BpHwRefBase20onIncStrongAttemptedEjPKv"
    },
    {
     "kind":"vcall_offset"
    },
    {
     "kind":"vcall_offset",
     "component_value":-16
    },
    {
     "kind":"vcall_offset",
     "component_value":-16
    },
    {
     "kind":"vcall_offset",
     "component_value":-16
    },
    {
     "kind":"vcall_offset",
     "component_value":-24
    },
    {
     "kind":"offset_to_top",
     "component_value":-24
    },
    {
     "kind":"rtti",
     "mangled_component_name":"_ZTIN7android8hardware11BpInterfaceINS0_4wifi10supplicant4V1_029ISupplicantP2pNetworkCallbackEEE"
    },
    {
     "kind":"complete_dtor_pointer",
     "mangled_component_name":"_ZTv0_n12_N7android8hardware11BpInterfaceINS0_4wifi10supplicant4V1_029ISupplicantP2pNetworkCallbackEED1Ev"
    },
    {
     "kind":"deleting_dtor_pointer",
     "mangled_component_name":"_ZTv0_n12_N7android8hardware11BpInterfaceINS0_4wifi10supplicant4V1_029ISupplicantP2pNetworkCallbackEED0Ev"
    },
    {
     "mangled_component_name":"_ZTv0_n16_N7android8hardware11BpHwRefBase10onFirstRefEv"
    },
    {
     "mangled_component_name":"_ZTv0_n20_N7android8hardware11BpHwRefBase15onLastStrongRefEPKv"
    },
    {
     "mangled_component_name":"_ZTv0_n24_N7android8hardware11BpHwRefBase20onIncStrongAttemptedEjPKv"
    },
    {
     "mangled_component_name":"_ZN7android7RefBase13onLastWeakRefEPKv"
    }
   ],
   "unique_id":"_ZTSN7android8hardware11BpInterfaceINS0_4wifi10supplicant4V1_029ISupplicantP2pNetworkCallbackEEE"
  },
  {
   "vtable_components":[
    {
     "kind":"vbase_offset",
     "component_value":84
    },
    {
     "kind":"offset_to_top"
    },
    {
     "kind":"rtti",
     "mangled_component_name":"_ZTIN7android8hardware4wifi10supplicant4V1_021BpHwSupplicantNetworkE"
    },
    {
     "mangled_component_name":"_ZNK7android8hardware4wifi10supplicant4V1_021BpHwSupplicantNetwork8isRemoteEv"
    },
    {
     "mangled_component_name":"_ZN7android8hardware4wifi10supplicant4V1_021BpHwSupplicantNetwork14interfaceChainENSt3__18functionIFvRKNS0_8hidl_vecINS0_11hidl_stringEEEEEE"
    },
    {
     "mangled_component_name":"_ZN7android8hardware4wifi10supplicant4V1_021BpHwSupplicantNetwork5debugERKNS0_11hidl_handleERKNS0_8hidl_vecINS0_11hidl_stringEEE"
    },
    {
     "mangled_component_name":"_ZN7android8hardware4wifi10supplicant4V1_021BpHwSupplicantNetwork19interfaceDescriptorENSt3__18functionIFvRKNS0_11hidl_stringEEEE"
    },
    {
     "mangled_component_name":"_ZN7android8hardware4wifi10supplicant4V1_021BpHwSupplicantNetwork12getHashChainENSt3__18functionIFvRKNS0_8hidl_vecINS0_10hidl_arrayIhLj32EJEEEEEEEE"
    },
    {
     "mangled_component_name":"_ZN7android8hardware4wifi10supplicant4V1_021BpHwSupplicantNetwork21setHALInstrumentationEv"
    },
    {
     "mangled_component_name":"_ZN7android8hardware4wifi10supplicant4V1_021BpHwSupplicantNetwork11linkToDeathERKNS_2spINS0_20hidl_death_recipientEEEy"
    },
    {
     "mangled_component_name":"_ZN7android8hardware4wifi10supplicant4V1_021BpHwSupplicantNetwork4pingEv"
    },
    {
     "mangled_component_name":"_ZN7android8hardware4wifi10supplicant4V1_021BpHwSupplicantNetwork12getDebugInfoENSt3__18functionIFvRKNS_4hidl4base4V1_09DebugInfoEEEE"
    },
    {
     "mangled_component_name":"_ZN7android8hardware4wifi10supplicant4V1_021BpHwSupplicantNetwork21notifySyspropsChangedEv"
    },
    {
     "mangled_component_name":"_ZN7android8hardware4wifi10supplicant4V1_021BpHwSupplicantNetwork13unlinkToDeathERKNS_2spINS0_20hidl_death_recipientEEE"
    },
    {
     "kind":"complete_dtor_pointer",
     "mangled_component_name":"_ZN7android8hardware4wifi10supplicant4V1_021BpHwSupplicantNetworkD1Ev"
    },
    {
     "kind":"deleting_dtor_pointer",
     "mangled_component_name":"_ZN7android8hardware4wifi10supplicant4V1_021BpHwSupplicantNetworkD0Ev"
    },
    {
     "mangled_component_name":"_ZN7android8hardware4wifi10supplicant4V1_021BpHwSupplicantNetwork5getIdENSt3__18functionIFvRKNS3_16SupplicantStatusEjEEE"
    },
    {
     "mangled_component_name":"_ZN7android8hardware4wifi10supplicant4V1_021BpHwSupplicantNetwork16getInterfaceNameENSt3__18functionIFvRKNS3_16SupplicantStatusERKNS0_11hidl_stringEEEE"
    },
    {
     "mangled_component_name":"_ZN7android8hardware4wifi10supplicant4V1_021BpHwSupplicantNetwork7getTypeENSt3__18functionIFvRKNS3_16SupplicantStatusENS3_9IfaceTypeEEEE"
    },
    {
     "mangled_component_name":"_ZN7android8hardware11BpInterfaceINS0_4wifi10supplicant4V1_018ISupplicantNetworkEE10onAsBinderEv"
    },
    {
     "kind":"vbase_offset",
     "component_value":80
    },
    {
     "kind":"offset_to_top",
     "component_value":-4
    },
    {
     "kind":"rtti",
     "mangled_component_name":"_ZTIN7android8hardware4wifi10supplicant4V1_021BpHwSupplicantNetworkE"
    },
    {
     "kind":"complete_dtor_pointer",
     "mangled_component_name":"_ZThn4_N7android8hardware4wifi10supplicant4V1_021BpHwSupplicantNetworkD1Ev"
    },
    {
     "kind":"deleting_dtor_pointer",
     "mangled_component_name":"_ZThn4_N7android8hardware4wifi10supplicant4V1_021BpHwSupplicantNetworkD0Ev"
    },
    {
     "mangled_component_name":"_ZThn4_N7android8hardware11BpInterfaceINS0_4wifi10supplicant4V1_018ISupplicantNetworkEE10onAsBinderEv"
    },
    {
     "kind":"vbase_offset",
     "component_value":76
    },
    {
     "kind":"offset_to_top",
     "component_value":-8
    },
    {
     "kind":"rtti",
     "mangled_component_name":"_ZTIN7android8hardware4wifi10supplicant4V1_021BpHwSupplicantNetworkE"
    },
    {
     "kind":"complete_dtor_pointer",
     "mangled_component_name":"_ZThn8_N7android8hardware4wifi10supplicant4V1_021BpHwSupplicantNetworkD1Ev"
    },
    {
     "kind":"deleting_dtor_pointer",
     "mangled_component_name":"_ZThn8_N7android8hardware4wifi10supplicant4V1_021BpHwSupplicantNetworkD0Ev"
    },
    {
     "mangled_component_name":"_ZN7android8hardware11BpHwRefBase10onFirstRefEv"
    },
    {
     "mangled_component_name":"_ZN7android8hardware11BpHwRefBase15onLastStrongRefEPKv"
    },
    {
     "mangled_component_name":"_ZN7android8hardware11BpHwRefBase20onIncStrongAttemptedEjPKv"
    },
    {
     "kind":"offset_to_top",
     "component_value":-24
    },
    {
     "kind":"rtti",
     "mangled_component_name":"_ZTIN7android8hardware4wifi10supplicant4V1_021BpHwSupplicantNetworkE"
    },
    {
     "kind":"complete_dtor_pointer",
     "mangled_component_name":"_ZThn24_N7android8hardware4wifi10supplicant4V1_021BpHwSupplicantNetworkD1Ev"
    },
    {
     "kind":"deleting_dtor_pointer",
     "mangled_component_name":"_ZThn24_N7android8hardware4wifi10supplicant4V1_021BpHwSupplicantNetworkD0Ev"
    },
    {
     "kind":"vcall_offset"
    },
    {
     "kind":"vcall_offset",
     "component_value":-76
    },
    {
     "kind":"vcall_offset",
     "component_value":-76
    },
    {
     "kind":"vcall_offset",
     "component_value":-76
    },
    {
     "kind":"vcall_offset",
     "component_value":-84
    },
    {
     "kind":"offset_to_top",
     "component_value":-84
    },
    {
     "kind":"rtti",
     "mangled_component_name":"_ZTIN7android8hardware4wifi10supplicant4V1_021BpHwSupplicantNetworkE"
    },
    {
     "kind":"complete_dtor_pointer",
     "mangled_component_name":"_ZTv0_n12_N7android8hardware4wifi10supplicant4V1_021BpHwSupplicantNetworkD1Ev"
    },
    {
     "kind":"deleting_dtor_pointer",
     "mangled_component_name":"_ZTv0_n12_N7android8hardware4wifi10supplicant4V1_021BpHwSupplicantNetworkD0Ev"
    },
    {
     "mangled_component_name":"_ZTv0_n16_N7android8hardware11BpHwRefBase10onFirstRefEv"
    },
    {
     "mangled_component_name":"_ZTv0_n20_N7android8hardware11BpHwRefBase15onLastStrongRefEPKv"
    },
    {
     "mangled_component_name":"_ZTv0_n24_N7android8hardware11BpHwRefBase20onIncStrongAttemptedEjPKv"
    },
    {
     "mangled_component_name":"_ZN7android7RefBase13onLastWeakRefEPKv"
    }
   ],
   "unique_id":"_ZTSN7android8hardware4wifi10supplicant4V1_021BpHwSupplicantNetworkE"
  },
  {
   "vtable_components":[
    {
     "kind":"vbase_offset",
     "component_value":72
    },
    {
     "kind":"offset_to_top"
    },
    {
     "kind":"rtti",
     "mangled_component_name":"_ZTIN7android8hardware4wifi10supplicant4V1_032BnHwSupplicantP2pNetworkCallbackE"
    },
    {
     "mangled_component_name":"_ZN7android8hardware9BHwBinder8transactEjRKNS0_6ParcelEPS2_jNSt3__18functionIFvRS2_EEE"
    },
    {
     "mangled_component_name":"_ZN7android8hardware9BHwBinder11linkToDeathERKNS_2spINS0_7IBinder14DeathRecipientEEEPvj"
    },
    {
     "mangled_component_name":"_ZN7android8hardware9BHwBinder13unlinkToDeathERKNS_2wpINS0_7IBinder14DeathRecipientEEEPvjPS5_"
    },
    {
     "mangled_component_name":"_ZNK7android8hardware7IBinder13checkSubclassEPKv"
    },
    {
     "mangled_component_name":"_ZN7android8hardware9BHwBinder12attachObjectEPKvPvS4_PFvS3_S4_S4_E"
    },
    {
     "mangled_component_name":"_ZNK7android8hardware9BHwBinder10findObjectEPKv"
    },
    {
     "mangled_component_name":"_ZN7android8hardware9BHwBinder12detachObjectEPKv"
    },
    {
     "mangled_component_name":"_ZN7android8hardware9BHwBinder11localBinderEv"
    },
    {
     "mangled_component_name":"_ZN7android8hardware7IBinder12remoteBinderEv"
    },
    {
     "kind":"complete_dtor_pointer",
     "mangled_component_name":"_ZN7android8hardware4wifi10supplicant4V1_032BnHwSupplicantP2pNetworkCallbackD1Ev"
    },
    {
     "kind":"deleting_dtor_pointer",
     "mangled_component_name":"_ZN7android8hardware4wifi10supplicant4V1_032BnHwSupplicantP2pNetworkCallbackD0Ev"
    },
    {
     "mangled_component_name":"_ZN7android8hardware4wifi10supplicant4V1_032BnHwSupplicantP2pNetworkCallback10onTransactEjRKNS0_6ParcelEPS5_jNSt3__18functionIFvRS5_EEE"
    },
    {
     "kind":"offset_to_top",
     "component_value":-20
    },
    {
     "kind":"rtti",
     "mangled_component_name":"_ZTIN7android8hardware4wifi10supplicant4V1_032BnHwSupplicantP2pNetworkCallbackE"
    },
    {
     "kind":"complete_dtor_pointer",
     "mangled_component_name":"_ZThn20_N7android8hardware4wifi10supplicant4V1_032BnHwSupplicantP2pNetworkCallbackD1Ev"
    },
    {
     "kind":"deleting_dtor_pointer",
     "mangled_component_name":"_ZThn20_N7android8hardware4wifi10supplicant4V1_032BnHwSupplicantP2pNetworkCallbackD0Ev"
    },
    {
     "kind":"vcall_offset"
    },
    {
     "kind":"vcall_offset"
    },
    {
     "kind":"vcall_offset"
    },
    {
     "kind":"vcall_offset"
    },
    {
     "kind":"vcall_offset",
     "component_value":-72
    },
    {
     "kind":"offset_to_top",
     "component_value":-72
    },
    {
     "kind":"rtti",
     "mangled_component_name":"_ZTIN7android8hardware4wifi10supplicant4V1_032BnHwSupplicantP2pNetworkCallbackE"
    },
    {
     "kind":"complete_dtor_pointer",
     "mangled_component_name":"_ZTv0_n12_N7android8hardware4wifi10supplicant4V1_032BnHwSupplicantP2pNetworkCallbackD1Ev"
    },
    {
     "kind":"deleting_dtor_pointer",
     "mangled_component_name":"_ZTv0_n12_N7android8hardware4wifi10supplicant4V1_032BnHwSupplicantP2pNetworkCallbackD0Ev"
    },
    {
     "mangled_component_name":"_ZN7android7RefBase10onFirstRefEv"
    },
    {
     "mangled_component_name":"_ZN7android7RefBase15onLastStrongRefEPKv"
    },
    {
     "mangled_component_name":"_ZN7android7RefBase20onIncStrongAttemptedEjPKv"
    },
    {
     "mangled_component_name":"_ZN7android7RefBase13onLastWeakRefEPKv"
    }
   ],
   "unique_id":"_ZTSN7android8hardware4wifi10supplicant4V1_032BnHwSupplicantP2pNetworkCallbackE"
  },
  {
   "vtable_components":[
    {
     "kind":"vbase_offset",
     "component_value":60
    },
    {
     "kind":"offset_to_top"
    },
    {
     "kind":"rtti",
     "mangled_component_name":"_ZTIN7android8hardware4wifi10supplicant4V1_030BsSupplicantP2pNetworkCallbackE"
    },
    {
     "mangled_component_name":"_ZNK7android8hardware4wifi10supplicant4V1_029ISupplicantP2pNetworkCallback8isRemoteEv"
    },
    {
     "mangled_component_name":"_ZN7android8hardware4wifi10supplicant4V1_030BsSupplicantP2pNetworkCallback14interfaceChainENSt3__18functionIFvRKNS0_8hidl_vecINS0_11hidl_stringEEEEEE"
    },
    {
     "mangled_component_name":"_ZN7android8hardware4wifi10supplicant4V1_030BsSupplicantP2pNetworkCallback5debugERKNS0_11hidl_handleERKNS0_8hidl_vecINS0_11hidl_stringEEE"
    },
    {
     "mangled_component_name":"_ZN7android8hardware4wifi10supplicant4V1_030BsSupplicantP2pNetworkCallback19interfaceDescriptorENSt3__18functionIFvRKNS0_11hidl_stringEEEE"
    },
    {
     "mangled_component_name":"_ZN7android8hardware4wifi10supplicant4V1_030BsSupplicantP2pNetworkCallback12getHashChainENSt3__18functionIFvRKNS0_8hidl_vecINS0_10hidl_arrayIhLj32EJEEEEEEEE"
    },
    {
     "mangled_component_name":"_ZN7android8hardware4wifi10supplicant4V1_030BsSupplicantP2pNetworkCallback21setHALInstrumentationEv"
    },
    {
     "mangled_component_name":"_ZN7android8hardware4wifi10supplicant4V1_030BsSupplicantP2pNetworkCallback11linkToDeathERKNS_2spINS0_20hidl_death_recipientEEEy"
    },
    {
     "mangled_component_name":"_ZN7android8hardware4wifi10supplicant4V1_030BsSupplicantP2pNetworkCallback4pingEv"
    },
    {
     "mangled_component_name":"_ZN7android8hardware4wifi10supplicant4V1_030BsSupplicantP2pNetworkCallback12getDebugInfoENSt3__18functionIFvRKNS_4hidl4base4V1_09DebugInfoEEEE"
    },
    {
     "mangled_component_name":"_ZN7android8hardware4wifi10supplicant4V1_030BsSupplicantP2pNetworkCallback21notifySyspropsChangedEv"
    },
    {
     "mangled_component_name":"_ZN7android8hardware4wifi10supplicant4V1_030BsSupplicantP2pNetworkCallback13unlinkToDeathERKNS_2spINS0_20hidl_death_recipientEEE"
    },
    {
     "kind":"complete_dtor_pointer",
     "mangled_component_name":"_ZN7android8hardware4wifi10supplicant4V1_030BsSupplicantP2pNetworkCallbackD1Ev"
    },
    {
     "kind":"deleting_dtor_pointer",
     "mangled_component_name":"_ZN7android8hardware4wifi10supplicant4V1_030BsSupplicantP2pNetworkCallbackD0Ev"
    },
    {
     "kind":"offset_to_top",
     "component_value":-4
    },
    {
     "kind":"rtti",
     "mangled_component_name":"_ZTIN7android8hardware4wifi10supplicant4V1_030BsSupplicantP2pNetworkCallbackE"
    },
    {
     "kind":"complete_dtor_pointer",
     "mangled_component_name":"_ZThn4_N7android8hardware4wifi10supplicant4V1_030BsSupplicantP2pNetworkCallbackD1Ev"
    },
    {
     "kind":"deleting_dtor_pointer",
     "mangled_component_name":"_ZThn4_N7android8hardware4wifi10supplicant4V1_030BsSupplicantP2pNetworkCallbackD0Ev"
    },
    {
     "kind":"vcall_offset"
    },
    {
     "kind":"vcall_offset"
    },
    {
     "kind":"vcall_offset"
    },
    {
     "kind":"vcall_offset"
    },
    {
     "kind":"vcall_offset",
     "component_value":-60
    },
    {
     "kind":"offset_to_top",
     "component_value":-60
    },
    {
     "kind":"rtti",
     "mangled_component_name":"_ZTIN7android8hardware4wifi10supplicant4V1_030BsSupplicantP2pNetworkCallbackE"
    },
    {
     "kind":"complete_dtor_pointer",
     "mangled_component_name":"_ZTv0_n12_N7android8hardware4wifi10supplicant4V1_030BsSupplicantP2pNetworkCallbackD1Ev"
    },
    {
     "kind":"deleting_dtor_pointer",
     "mangled_component_name":"_ZTv0_n12_N7android8hardware4wifi10supplicant4V1_030BsSupplicantP2pNetworkCallbackD0Ev"
    },
    {
     "mangled_component_name":"_ZN7android7RefBase10onFirstRefEv"
    },
    {
     "mangled_component_name":"_ZN7android7RefBase15onLastStrongRefEPKv"
    },
    {
     "mangled_component_name":"_ZN7android7RefBase20onIncStrongAttemptedEjPKv"
    },
    {
     "mangled_component_name":"_ZN7android7RefBase13onLastWeakRefEPKv"
    }
   ],
   "unique_id":"_ZTSN7android8hardware4wifi10supplicant4V1_030BsSupplicantP2pNetworkCallbackE"
  },
  {
   "vtable_components":[
    {
     "kind":"vbase_offset",
     "component_value":72
    },
    {
     "kind":"offset_to_top"
    },
    {
     "kind":"rtti",
     "mangled_component_name":"_ZTIN7android8hardware4wifi10supplicant4V1_022BnHwSupplicantStaIfaceE"
    },
    {
     "mangled_component_name":"_ZN7android8hardware9BHwBinder8transactEjRKNS0_6ParcelEPS2_jNSt3__18functionIFvRS2_EEE"
    },
    {
     "mangled_component_name":"_ZN7android8hardware9BHwBinder11linkToDeathERKNS_2spINS0_7IBinder14DeathRecipientEEEPvj"
    },
    {
     "mangled_component_name":"_ZN7android8hardware9BHwBinder13unlinkToDeathERKNS_2wpINS0_7IBinder14DeathRecipientEEEPvjPS5_"
    },
    {
     "mangled_component_name":"_ZNK7android8hardware7IBinder13checkSubclassEPKv"
    },
    {
     "mangled_component_name":"_ZN7android8hardware9BHwBinder12attachObjectEPKvPvS4_PFvS3_S4_S4_E"
    },
    {
     "mangled_component_name":"_ZNK7android8hardware9BHwBinder10findObjectEPKv"
    },
    {
     "mangled_component_name":"_ZN7android8hardware9BHwBinder12detachObjectEPKv"
    },
    {
     "mangled_component_name":"_ZN7android8hardware9BHwBinder11localBinderEv"
    },
    {
     "mangled_component_name":"_ZN7android8hardware7IBinder12remoteBinderEv"
    },
    {
     "kind":"complete_dtor_pointer",
     "mangled_component_name":"_ZN7android8hardware4wifi10supplicant4V1_022BnHwSupplicantStaIfaceD1Ev"
    },
    {
     "kind":"deleting_dtor_pointer",
     "mangled_component_name":"_ZN7android8hardware4wifi10supplicant4V1_022BnHwSupplicantStaIfaceD0Ev"
    },
    {
     "mangled_component_name":"_ZN7android8hardware4wifi10supplicant4V1_022BnHwSupplicantStaIface10onTransactEjRKNS0_6ParcelEPS5_jNSt3__18functionIFvRS5_EEE"
    },
    {
     "kind":"offset_to_top",
     "component_value":-20
    },
    {
     "kind":"rtti",
     "mangled_component_name":"_ZTIN7android8hardware4wifi10supplicant4V1_022BnHwSupplicantStaIfaceE"
    },
    {
     "kind":"complete_dtor_pointer",
     "mangled_component_name":"_ZThn20_N7android8hardware4wifi10supplicant4V1_022BnHwSupplicantStaIfaceD1Ev"
    },
    {
     "kind":"deleting_dtor_pointer",
     "mangled_component_name":"_ZThn20_N7android8hardware4wifi10supplicant4V1_022BnHwSupplicantStaIfaceD0Ev"
    },
    {
     "kind":"vcall_offset"
    },
    {
     "kind":"vcall_offset"
    },
    {
     "kind":"vcall_offset"
    },
    {
     "kind":"vcall_offset"
    },
    {
     "kind":"vcall_offset",
     "component_value":-72
    },
    {
     "kind":"offset_to_top",
     "component_value":-72
    },
    {
     "kind":"rtti",
     "mangled_component_name":"_ZTIN7android8hardware4wifi10supplicant4V1_022BnHwSupplicantStaIfaceE"
    },
    {
     "kind":"complete_dtor_pointer",
     "mangled_component_name":"_ZTv0_n12_N7android8hardware4wifi10supplicant4V1_022BnHwSupplicantStaIfaceD1Ev"
    },
    {
     "kind":"deleting_dtor_pointer",
     "mangled_component_name":"_ZTv0_n12_N7android8hardware4wifi10supplicant4V1_022BnHwSupplicantStaIfaceD0Ev"
    },
    {
     "mangled_component_name":"_ZN7android7RefBase10onFirstRefEv"
    },
    {
     "mangled_component_name":"_ZN7android7RefBase15onLastStrongRefEPKv"
    },
    {
     "mangled_component_name":"_ZN7android7RefBase20onIncStrongAttemptedEjPKv"
    },
    {
     "mangled_component_name":"_ZN7android7RefBase13onLastWeakRefEPKv"
    }
   ],
   "unique_id":"_ZTSN7android8hardware4wifi10supplicant4V1_022BnHwSupplicantStaIfaceE"
  },
  {
   "vtable_components":[
    {
     "kind":"vbase_offset",
     "component_value":4
    },
    {
     "kind":"offset_to_top"
    },
    {
     "kind":"rtti",
     "mangled_component_name":"_ZTIN7android8hardware4wifi10supplicant4V1_019ISupplicantStaIfaceE"
    },
    {
     "mangled_component_name":"_ZNK7android8hardware4wifi10supplicant4V1_019ISupplicantStaIface8isRemoteEv"
    },
    {
     "mangled_component_name":"_ZN7android8hardware4wifi10supplicant4V1_019ISupplicantStaIface14interfaceChainENSt3__18functionIFvRKNS0_8hidl_vecINS0_11hidl_stringEEEEEE"
    },
    {
     "mangled_component_name":"_ZN7android8hardware4wifi10supplicant4V1_019ISupplicantStaIface5debugERKNS0_11hidl_handleERKNS0_8hidl_vecINS0_11hidl_stringEEE"
    },
    {
     "mangled_component_name":"_ZN7android8hardware4wifi10supplicant4V1_019ISupplicantStaIface19interfaceDescriptorENSt3__18functionIFvRKNS0_11hidl_stringEEEE"
    },
    {
     "mangled_component_name":"_ZN7android8hardware4wifi10supplicant4V1_019ISupplicantStaIface12getHashChainENSt3__18functionIFvRKNS0_8hidl_vecINS0_10hidl_arrayIhLj32EJEEEEEEEE"
    },
    {
     "mangled_component_name":"_ZN7android8hardware4wifi10supplicant4V1_019ISupplicantStaIface21setHALInstrumentationEv"
    },
    {
     "mangled_component_name":"_ZN7android8hardware4wifi10supplicant4V1_019ISupplicantStaIface11linkToDeathERKNS_2spINS0_20hidl_death_recipientEEEy"
    },
    {
     "mangled_component_name":"_ZN7android8hardware4wifi10supplicant4V1_019ISupplicantStaIface4pingEv"
    },
    {
     "mangled_component_name":"_ZN7android8hardware4wifi10supplicant4V1_019ISupplicantStaIface12getDebugInfoENSt3__18functionIFvRKNS_4hidl4base4V1_09DebugInfoEEEE"
    },
    {
     "mangled_component_name":"_ZN7android8hardware4wifi10supplicant4V1_019ISupplicantStaIface21notifySyspropsChangedEv"
    },
    {
     "mangled_component_name":"_ZN7android8hardware4wifi10supplicant4V1_019ISupplicantStaIface13unlinkToDeathERKNS_2spINS0_20hidl_death_recipientEEE"
    },
    {
     "kind":"complete_dtor_pointer",
     "mangled_component_name":"_ZN7android8hardware4wifi10supplicant4V1_019ISupplicantStaIfaceD1Ev"
    },
    {
     "kind":"deleting_dtor_pointer",
     "mangled_component_name":"_ZN7android8hardware4wifi10supplicant4V1_019ISupplicantStaIfaceD0Ev"
    },
    {
     "is_pure":true,
     "mangled_component_name":"_ZN7android8hardware4wifi10supplicant4V1_019ISupplicantStaIface7getNameENSt3__18functionIFvRKNS3_16SupplicantStatusERKNS0_11hidl_stringEEEE"
    },
    {
     "is_pure":true,
     "mangled_component_name":"_ZN7android8hardware4wifi10supplicant4V1_019ISupplicantStaIface7getTypeENSt3__18functionIFvRKNS3_16SupplicantStatusENS3_9IfaceTypeEEEE"
    },
    {
     "is_pure":true,
     "mangled_component_name":"_ZN7android8hardware4wifi10supplicant4V1_019ISupplicantStaIface10addNetworkENSt3__18functionIFvRKNS3_16SupplicantStatusERKNS_2spINS3_18ISupplicantNetworkEEEEEE"
    },
    {
     "is_pure":true,
     "mangled_component_name":"_ZN7android8hardware4wifi10supplicant4V1_019ISupplicantStaIface13removeNetworkEjNSt3__18functionIFvRKNS3_16SupplicantStatusEEEE"
    },
    {
     "is_pure":true,
     "mangled_component_name":"_ZN7android8hardware4wifi10supplicant4V1_019ISupplicantStaIface10getNetworkEjNSt3__18functionIFvRKNS3_16SupplicantStatusERKNS_2spINS3_18ISupplicantNetworkEEEEEE"
    },
    {
     "is_pure":true,
     "mangled_component_name":"_ZN7android8hardware4wifi10supplicant4V1_019ISupplicantStaIface12listNetworksENSt3__18functionIFvRKNS3_16SupplicantStatusERKNS0_8hidl_vecIjEEEEE"
    },
    {
     "is_pure":true,
     "mangled_component_name":"_ZN7android8hardware4wifi10supplicant4V1_019ISupplicantStaIface16setWpsDeviceNameERKNS0_11hidl_stringENSt3__18functionIFvRKNS3_16SupplicantStatusEEEE"
    },
    {
     "is_pure":true,
     "mangled_component_name":"_ZN7android8hardware4wifi10supplicant4V1_019ISupplicantStaIface16setWpsDeviceTypeERKNS0_10hidl_arrayIhLj8EJEEENSt3__18functionIFvRKNS3_16SupplicantStatusEEEE"
    },
    {
     "is_pure":true,
     "mangled_component_name":"_ZN7android8hardware4wifi10supplicant4V1_019ISupplicantStaIface18setWpsManufacturerERKNS0_11hidl_stringENSt3__18functionIFvRKNS3_16SupplicantStatusEEEE"
    },
    {
     "is_pure":true,
     "mangled_component_name":"_ZN7android8hardware4wifi10supplicant4V1_019ISupplicantStaIface15setWpsModelNameERKNS0_11hidl_stringENSt3__18functionIFvRKNS3_16SupplicantStatusEEEE"
    },
    {
     "is_pure":true,
     "mangled_component_name":"_ZN7android8hardware4wifi10supplicant4V1_019ISupplicantStaIface17setWpsModelNumberERKNS0_11hidl_stringENSt3__18functionIFvRKNS3_16SupplicantStatusEEEE"
    },
    {
     "is_pure":true,
     "mangled_component_name":"_ZN7android8hardware4wifi10supplicant4V1_019ISupplicantStaIface18setWpsSerialNumberERKNS0_11hidl_stringENSt3__18functionIFvRKNS3_16SupplicantStatusEEEE"
    },
    {
     "is_pure":true,
     "mangled_component_name":"_ZN7android8hardware4wifi10supplicant4V1_019ISupplicantStaIface19setWpsConfigMethodsEtNSt3__18functionIFvRKNS3_16SupplicantStatusEEEE"
    },
    {
     "is_pure":true,
     "mangled_component_name":"_ZN7android8hardware4wifi10supplicant4V1_019ISupplicantStaIface16registerCallbackERKNS_2spINS3_27ISupplicantStaIfaceCallbackEEENSt3__18functionIFvRKNS3_16SupplicantStatusEEEE"
    },
    {
     "is_pure":true,
     "mangled_component_name":"_ZN7android8hardware4wifi10supplicant4V1_019ISupplicantStaIface11reassociateENSt3__18functionIFvRKNS3_16SupplicantStatusEEEE"
    },
    {
     "is_pure":true,
     "mangled_component_name":"_ZN7android8hardware4wifi10supplicant4V1_019ISupplicantStaIface9reconnectENSt3__18functionIFvRKNS3_16SupplicantStatusEEEE"
    },
    {
     "is_pure":true,
     "mangled_component_name":"_ZN7android8hardware4wifi10supplicant4V1_019ISupplicantStaIface10disconnectENSt3__18functionIFvRKNS3_16SupplicantStatusEEEE"
    },
    {
     "is_pure":true,
     "mangled_component_name":"_ZN7android8hardware4wifi10supplicant4V1_019ISupplicantStaIface12setPowerSaveEbNSt3__18functionIFvRKNS3_16SupplicantStatusEEEE"
    },
    {
     "is_pure":true,
     "mangled_component_name":"_ZN7android8hardware4wifi10supplicant4V1_019ISupplicantStaIface20initiateTdlsDiscoverERKNS0_10hidl_arrayIhLj6EJEEENSt3__18functionIFvRKNS3_16SupplicantStatusEEEE"
    },
    {
     "is_pure":true,
     "mangled_component_name":"_ZN7android8hardware4wifi10supplicant4V1_019ISupplicantStaIface17initiateTdlsSetupERKNS0_10hidl_arrayIhLj6EJEEENSt3__18functionIFvRKNS3_16SupplicantStatusEEEE"
    },
    {
     "is_pure":true,
     "mangled_component_name":"_ZN7android8hardware4wifi10supplicant4V1_019ISupplicantStaIface20initiateTdlsTeardownERKNS0_10hidl_arrayIhLj6EJEEENSt3__18functionIFvRKNS3_16SupplicantStatusEEEE"
    },
    {
     "is_pure":true,
     "mangled_component_name":"_ZN7android8hardware4wifi10supplicant4V1_019ISupplicantStaIface17initiateAnqpQueryERKNS0_10hidl_arrayIhLj6EJEEERKNS0_8hidl_vecINS4_10AnqpInfoIdEEERKNS9_INS4_16Hs20AnqpSubtypesEEENSt3__18functionIFvRKNS3_16SupplicantStatusEEEE"
    },
    {
     "is_pure":true,
     "mangled_component_name":"_ZN7android8hardware4wifi10supplicant4V1_019ISupplicantStaIface21initiateHs20IconQueryERKNS0_10hidl_arrayIhLj6EJEEERKNS0_11hidl_stringENSt3__18functionIFvRKNS3_16SupplicantStatusEEEE"
    },
    {
     "is_pure":true,
     "mangled_component_name":"_ZN7android8hardware4wifi10supplicant4V1_019ISupplicantStaIface13getMacAddressENSt3__18functionIFvRKNS3_16SupplicantStatusERKNS0_10hidl_arrayIhLj6EJEEEEEE"
    },
    {
     "is_pure":true,
     "mangled_component_name":"_ZN7android8hardware4wifi10supplicant4V1_019ISupplicantStaIface13startRxFilterENSt3__18functionIFvRKNS3_16SupplicantStatusEEEE"
    },
    {
     "is_pure":true,
     "mangled_component_name":"_ZN7android8hardware4wifi10supplicant4V1_019ISupplicantStaIface12stopRxFilterENSt3__18functionIFvRKNS3_16SupplicantStatusEEEE"
    },
    {
     "is_pure":true,
     "mangled_component_name":"_ZN7android8hardware4wifi10supplicant4V1_019ISupplicantStaIface11addRxFilterENS4_12RxFilterTypeENSt3__18functionIFvRKNS3_16SupplicantStatusEEEE"
    },
    {
     "is_pure":true,
     "mangled_component_name":"_ZN7android8hardware4wifi10supplicant4V1_019ISupplicantStaIface14removeRxFilterENS4_12RxFilterTypeENSt3__18functionIFvRKNS3_16SupplicantStatusEEEE"
    },
    {
     "is_pure":true,
     "mangled_component_name":"_ZN7android8hardware4wifi10supplicant4V1_019ISupplicantStaIface20setBtCoexistenceModeENS4_17BtCoexistenceModeENSt3__18functionIFvRKNS3_16SupplicantStatusEEEE"
    },
    {
     "is_pure":true,
     "mangled_component_name":"_ZN7android8hardware4wifi10supplicant4V1_019ISupplicantStaIface31setBtCoexistenceScanModeEnabledEbNSt3__18functionIFvRKNS3_16SupplicantStatusEEEE"
    },
    {
     "is_pure":true,
     "mangled_component_name":"_ZN7android8hardware4wifi10supplicant4V1_019ISupplicantStaIface21setSuspendModeEnabledEbNSt3__18functionIFvRKNS3_16SupplicantStatusEEEE"
    },
    {
     "is_pure":true,
     "mangled_component_name":"_ZN7android8hardware4wifi10supplicant4V1_019ISupplicantStaIface14setCountryCodeERKNS0_10hidl_arrayIaLj2EJEEENSt3__18functionIFvRKNS3_16SupplicantStatusEEEE"
    },
    {
     "is_pure":true,
     "mangled_component_name":"_ZN7android8hardware4wifi10supplicant4V1_019ISupplicantStaIface17startWpsRegistrarERKNS0_10hidl_arrayIhLj6EJEEERKNS0_11hidl_stringENSt3__18functionIFvRKNS3_16SupplicantStatusEEEE"
    },
    {
     "is_pure":true,
     "mangled_component_name":"_ZN7android8hardware4wifi10supplicant4V1_019ISupplicantStaIface11startWpsPbcERKNS0_10hidl_arrayIhLj6EJEEENSt3__18functionIFvRKNS3_16SupplicantStatusEEEE"
    },
    {
     "is_pure":true,
     "mangled_component_name":"_ZN7android8hardware4wifi10supplicant4V1_019ISupplicantStaIface17startWpsPinKeypadERKNS0_11hidl_stringENSt3__18functionIFvRKNS3_16SupplicantStatusEEEE"
    },
    {
     "is_pure":true,
     "mangled_component_name":"_ZN7android8hardware4wifi10supplicant4V1_019ISupplicantStaIface18startWpsPinDisplayERKNS0_10hidl_arrayIhLj6EJEEENSt3__18functionIFvRKNS3_16SupplicantStatusERKNS0_11hidl_stringEEEE"
    },
    {
     "is_pure":true,
     "mangled_component_name":"_ZN7android8hardware4wifi10supplicant4V1_019ISupplicantStaIface9cancelWpsENSt3__18functionIFvRKNS3_16SupplicantStatusEEEE"
    },
    {
     "is_pure":true,
     "mangled_component_name":"_ZN7android8hardware4wifi10supplicant4V1_019ISupplicantStaIface14setExternalSimEbNSt3__18functionIFvRKNS3_16SupplicantStatusEEEE"
    },
    {
     "is_pure":true,
     "mangled_component_name":"_ZN7android8hardware4wifi10supplicant4V1_019ISupplicantStaIface15addExtRadioWorkERKNS0_11hidl_stringEjjNSt3__18functionIFvRKNS3_16SupplicantStatusEjEEE"
    },
    {
     "is_pure":true,
     "mangled_component_name":"_ZN7android8hardware4wifi10supplicant4V1_019ISupplicantStaIface18removeExtRadioWorkEjNSt3__18functionIFvRKNS3_16SupplicantStatusEEEE"
    },
    {
     "is_pure":true,
     "mangled_component_name":"_ZN7android8hardware4wifi10supplicant4V1_019ISupplicantStaIface19enableAutoReconnectEbNSt3__18functionIFvRKNS3_16SupplicantStatusEEEE"
    },
    {
     "kind":"vcall_offset"
    },
    {
     "kind":"vcall_offset"
    },
    {
     "kind":"vcall_offset"
    },
    {
     "kind":"vcall_offset"
    },
    {
     "kind":"vcall_offset",
     "component_value":-4
    },
    {
     "kind":"offset_to_top",
     "component_value":-4
    },
    {
     "kind":"rtti",
     "mangled_component_name":"_ZTIN7android8hardware4wifi10supplicant4V1_019ISupplicantStaIfaceE"
    },
    {
     "kind":"complete_dtor_pointer",
     "mangled_component_name":"_ZTv0_n12_N7android8hardware4wifi10supplicant4V1_019ISupplicantStaIfaceD1Ev"
    },
    {
     "kind":"deleting_dtor_pointer",
     "mangled_component_name":"_ZTv0_n12_N7android8hardware4wifi10supplicant4V1_019ISupplicantStaIfaceD0Ev"
    },
    {
     "mangled_component_name":"_ZN7android7RefBase10onFirstRefEv"
    },
    {
     "mangled_component_name":"_ZN7android7RefBase15onLastStrongRefEPKv"
    },
    {
     "mangled_component_name":"_ZN7android7RefBase20onIncStrongAttemptedEjPKv"
    },
    {
     "mangled_component_name":"_ZN7android7RefBase13onLastWeakRefEPKv"
    }
   ],
   "unique_id":"_ZTSN7android8hardware4wifi10supplicant4V1_019ISupplicantStaIfaceE"
  },
  {
   "vtable_components":[
    {
     "kind":"vbase_offset",
     "component_value":4
    },
    {
     "kind":"offset_to_top"
    },
    {
     "kind":"rtti",
     "mangled_component_name":"_ZTIN7android8hardware4wifi10supplicant4V1_027ISupplicantStaIfaceCallbackE"
    },
    {
     "mangled_component_name":"_ZNK7android8hardware4wifi10supplicant4V1_027ISupplicantStaIfaceCallback8isRemoteEv"
    },
    {
     "mangled_component_name":"_ZN7android8hardware4wifi10supplicant4V1_027ISupplicantStaIfaceCallback14interfaceChainENSt3__18functionIFvRKNS0_8hidl_vecINS0_11hidl_stringEEEEEE"
    },
    {
     "mangled_component_name":"_ZN7android8hardware4wifi10supplicant4V1_027ISupplicantStaIfaceCallback5debugERKNS0_11hidl_handleERKNS0_8hidl_vecINS0_11hidl_stringEEE"
    },
    {
     "mangled_component_name":"_ZN7android8hardware4wifi10supplicant4V1_027ISupplicantStaIfaceCallback19interfaceDescriptorENSt3__18functionIFvRKNS0_11hidl_stringEEEE"
    },
    {
     "mangled_component_name":"_ZN7android8hardware4wifi10supplicant4V1_027ISupplicantStaIfaceCallback12getHashChainENSt3__18functionIFvRKNS0_8hidl_vecINS0_10hidl_arrayIhLj32EJEEEEEEEE"
    },
    {
     "mangled_component_name":"_ZN7android8hardware4wifi10supplicant4V1_027ISupplicantStaIfaceCallback21setHALInstrumentationEv"
    },
    {
     "mangled_component_name":"_ZN7android8hardware4wifi10supplicant4V1_027ISupplicantStaIfaceCallback11linkToDeathERKNS_2spINS0_20hidl_death_recipientEEEy"
    },
    {
     "mangled_component_name":"_ZN7android8hardware4wifi10supplicant4V1_027ISupplicantStaIfaceCallback4pingEv"
    },
    {
     "mangled_component_name":"_ZN7android8hardware4wifi10supplicant4V1_027ISupplicantStaIfaceCallback12getDebugInfoENSt3__18functionIFvRKNS_4hidl4base4V1_09DebugInfoEEEE"
    },
    {
     "mangled_component_name":"_ZN7android8hardware4wifi10supplicant4V1_027ISupplicantStaIfaceCallback21notifySyspropsChangedEv"
    },
    {
     "mangled_component_name":"_ZN7android8hardware4wifi10supplicant4V1_027ISupplicantStaIfaceCallback13unlinkToDeathERKNS_2spINS0_20hidl_death_recipientEEE"
    },
    {
     "kind":"complete_dtor_pointer",
     "mangled_component_name":"_ZN7android8hardware4wifi10supplicant4V1_027ISupplicantStaIfaceCallbackD1Ev"
    },
    {
     "kind":"deleting_dtor_pointer",
     "mangled_component_name":"_ZN7android8hardware4wifi10supplicant4V1_027ISupplicantStaIfaceCallbackD0Ev"
    },
    {
     "is_pure":true,
     "mangled_component_name":"_ZN7android8hardware4wifi10supplicant4V1_027ISupplicantStaIfaceCallback14onNetworkAddedEj"
    },
    {
     "is_pure":true,
     "mangled_component_name":"_ZN7android8hardware4wifi10supplicant4V1_027ISupplicantStaIfaceCallback16onNetworkRemovedEj"
    },
    {
     "is_pure":true,
     "mangled_component_name":"_ZN7android8hardware4wifi10supplicant4V1_027ISupplicantStaIfaceCallback14onStateChangedENS4_5StateERKNS0_10hidl_arrayIhLj6EJEEEjRKNS0_8hidl_vecIhEE"
    },
    {
     "is_pure":true,
     "mangled_component_name":"_ZN7android8hardware4wifi10supplicant4V1_027ISupplicantStaIfaceCallback15onAnqpQueryDoneERKNS0_10hidl_arrayIhLj6EJEEERKNS4_8AnqpDataERKNS4_12Hs20AnqpDataE"
    },
    {
     "is_pure":true,
     "mangled_component_name":"_ZN7android8hardware4wifi10supplicant4V1_027ISupplicantStaIfaceCallback19onHs20IconQueryDoneERKNS0_10hidl_arrayIhLj6EJEEERKNS0_11hidl_stringERKNS0_8hidl_vecIhEE"
    },
    {
     "is_pure":true,
     "mangled_component_name":"_ZN7android8hardware4wifi10supplicant4V1_027ISupplicantStaIfaceCallback29onHs20SubscriptionRemediationERKNS0_10hidl_arrayIhLj6EJEEENS4_9OsuMethodERKNS0_11hidl_stringE"
    },
    {
     "is_pure":true,
     "mangled_component_name":"_ZN7android8hardware4wifi10supplicant4V1_027ISupplicantStaIfaceCallback26onHs20DeauthImminentNoticeERKNS0_10hidl_arrayIhLj6EJEEEjjRKNS0_11hidl_stringE"
    },
    {
     "is_pure":true,
     "mangled_component_name":"_ZN7android8hardware4wifi10supplicant4V1_027ISupplicantStaIfaceCallback14onDisconnectedERKNS0_10hidl_arrayIhLj6EJEEEbNS4_10ReasonCodeE"
    },
    {
     "is_pure":true,
     "mangled_component_name":"_ZN7android8hardware4wifi10supplicant4V1_027ISupplicantStaIfaceCallback21onAssociationRejectedERKNS0_10hidl_arrayIhLj6EJEEENS4_10StatusCodeEb"
    },
    {
     "is_pure":true,
     "mangled_component_name":"_ZN7android8hardware4wifi10supplicant4V1_027ISupplicantStaIfaceCallback23onAuthenticationTimeoutERKNS0_10hidl_arrayIhLj6EJEEE"
    },
    {
     "is_pure":true,
     "mangled_component_name":"_ZN7android8hardware4wifi10supplicant4V1_027ISupplicantStaIfaceCallback12onEapFailureEv"
    },
    {
     "is_pure":true,
     "mangled_component_name":"_ZN7android8hardware4wifi10supplicant4V1_027ISupplicantStaIfaceCallback14onBssidChangedENS4_17BssidChangeReasonERKNS0_10hidl_arrayIhLj6EJEEE"
    },
    {
     "is_pure":true,
     "mangled_component_name":"_ZN7android8hardware4wifi10supplicant4V1_027ISupplicantStaIfaceCallback17onWpsEventSuccessEv"
    },
    {
     "is_pure":true,
     "mangled_component_name":"_ZN7android8hardware4wifi10supplicant4V1_027ISupplicantStaIfaceCallback14onWpsEventFailERKNS0_10hidl_arrayIhLj6EJEEENS4_14WpsConfigErrorENS4_18WpsErrorIndicationE"
    },
    {
     "is_pure":true,
     "mangled_component_name":"_ZN7android8hardware4wifi10supplicant4V1_027ISupplicantStaIfaceCallback20onWpsEventPbcOverlapEv"
    },
    {
     "is_pure":true,
     "mangled_component_name":"_ZN7android8hardware4wifi10supplicant4V1_027ISupplicantStaIfaceCallback19onExtRadioWorkStartEj"
    },
    {
     "is_pure":true,
     "mangled_component_name":"_ZN7android8hardware4wifi10supplicant4V1_027ISupplicantStaIfaceCallback21onExtRadioWorkTimeoutEj"
    },
    {
     "kind":"vcall_offset"
    },
    {
     "kind":"vcall_offset"
    },
    {
     "kind":"vcall_offset"
    },
    {
     "kind":"vcall_offset"
    },
    {
     "kind":"vcall_offset",
     "component_value":-4
    },
    {
     "kind":"offset_to_top",
     "component_value":-4
    },
    {
     "kind":"rtti",
     "mangled_component_name":"_ZTIN7android8hardware4wifi10supplicant4V1_027ISupplicantStaIfaceCallbackE"
    },
    {
     "kind":"complete_dtor_pointer",
     "mangled_component_name":"_ZTv0_n12_N7android8hardware4wifi10supplicant4V1_027ISupplicantStaIfaceCallbackD1Ev"
    },
    {
     "kind":"deleting_dtor_pointer",
     "mangled_component_name":"_ZTv0_n12_N7android8hardware4wifi10supplicant4V1_027ISupplicantStaIfaceCallbackD0Ev"
    },
    {
     "mangled_component_name":"_ZN7android7RefBase10onFirstRefEv"
    },
    {
     "mangled_component_name":"_ZN7android7RefBase15onLastStrongRefEPKv"
    },
    {
     "mangled_component_name":"_ZN7android7RefBase20onIncStrongAttemptedEjPKv"
    },
    {
     "mangled_component_name":"_ZN7android7RefBase13onLastWeakRefEPKv"
    }
   ],
   "unique_id":"_ZTSN7android8hardware4wifi10supplicant4V1_027ISupplicantStaIfaceCallbackE"
  },
  {
   "vtable_components":[
    {
     "kind":"vbase_offset",
     "component_value":60
    },
    {
     "kind":"offset_to_top"
    },
    {
     "kind":"rtti",
     "mangled_component_name":"_ZTIN7android8hardware4wifi10supplicant4V1_020BsSupplicantStaIfaceE"
    },
    {
     "mangled_component_name":"_ZNK7android8hardware4wifi10supplicant4V1_019ISupplicantStaIface8isRemoteEv"
    },
    {
     "mangled_component_name":"_ZN7android8hardware4wifi10supplicant4V1_020BsSupplicantStaIface14interfaceChainENSt3__18functionIFvRKNS0_8hidl_vecINS0_11hidl_stringEEEEEE"
    },
    {
     "mangled_component_name":"_ZN7android8hardware4wifi10supplicant4V1_020BsSupplicantStaIface5debugERKNS0_11hidl_handleERKNS0_8hidl_vecINS0_11hidl_stringEEE"
    },
    {
     "mangled_component_name":"_ZN7android8hardware4wifi10supplicant4V1_020BsSupplicantStaIface19interfaceDescriptorENSt3__18functionIFvRKNS0_11hidl_stringEEEE"
    },
    {
     "mangled_component_name":"_ZN7android8hardware4wifi10supplicant4V1_020BsSupplicantStaIface12getHashChainENSt3__18functionIFvRKNS0_8hidl_vecINS0_10hidl_arrayIhLj32EJEEEEEEEE"
    },
    {
     "mangled_component_name":"_ZN7android8hardware4wifi10supplicant4V1_020BsSupplicantStaIface21setHALInstrumentationEv"
    },
    {
     "mangled_component_name":"_ZN7android8hardware4wifi10supplicant4V1_020BsSupplicantStaIface11linkToDeathERKNS_2spINS0_20hidl_death_recipientEEEy"
    },
    {
     "mangled_component_name":"_ZN7android8hardware4wifi10supplicant4V1_020BsSupplicantStaIface4pingEv"
    },
    {
     "mangled_component_name":"_ZN7android8hardware4wifi10supplicant4V1_020BsSupplicantStaIface12getDebugInfoENSt3__18functionIFvRKNS_4hidl4base4V1_09DebugInfoEEEE"
    },
    {
     "mangled_component_name":"_ZN7android8hardware4wifi10supplicant4V1_020BsSupplicantStaIface21notifySyspropsChangedEv"
    },
    {
     "mangled_component_name":"_ZN7android8hardware4wifi10supplicant4V1_020BsSupplicantStaIface13unlinkToDeathERKNS_2spINS0_20hidl_death_recipientEEE"
    },
    {
     "kind":"complete_dtor_pointer",
     "mangled_component_name":"_ZN7android8hardware4wifi10supplicant4V1_020BsSupplicantStaIfaceD1Ev"
    },
    {
     "kind":"deleting_dtor_pointer",
     "mangled_component_name":"_ZN7android8hardware4wifi10supplicant4V1_020BsSupplicantStaIfaceD0Ev"
    },
    {
     "mangled_component_name":"_ZN7android8hardware4wifi10supplicant4V1_020BsSupplicantStaIface7getNameENSt3__18functionIFvRKNS3_16SupplicantStatusERKNS0_11hidl_stringEEEE"
    },
    {
     "mangled_component_name":"_ZN7android8hardware4wifi10supplicant4V1_020BsSupplicantStaIface7getTypeENSt3__18functionIFvRKNS3_16SupplicantStatusENS3_9IfaceTypeEEEE"
    },
    {
     "mangled_component_name":"_ZN7android8hardware4wifi10supplicant4V1_020BsSupplicantStaIface10addNetworkENSt3__18functionIFvRKNS3_16SupplicantStatusERKNS_2spINS3_18ISupplicantNetworkEEEEEE"
    },
    {
     "mangled_component_name":"_ZN7android8hardware4wifi10supplicant4V1_020BsSupplicantStaIface13removeNetworkEjNSt3__18functionIFvRKNS3_16SupplicantStatusEEEE"
    },
    {
     "mangled_component_name":"_ZN7android8hardware4wifi10supplicant4V1_020BsSupplicantStaIface10getNetworkEjNSt3__18functionIFvRKNS3_16SupplicantStatusERKNS_2spINS3_18ISupplicantNetworkEEEEEE"
    },
    {
     "mangled_component_name":"_ZN7android8hardware4wifi10supplicant4V1_020BsSupplicantStaIface12listNetworksENSt3__18functionIFvRKNS3_16SupplicantStatusERKNS0_8hidl_vecIjEEEEE"
    },
    {
     "mangled_component_name":"_ZN7android8hardware4wifi10supplicant4V1_020BsSupplicantStaIface16setWpsDeviceNameERKNS0_11hidl_stringENSt3__18functionIFvRKNS3_16SupplicantStatusEEEE"
    },
    {
     "mangled_component_name":"_ZN7android8hardware4wifi10supplicant4V1_020BsSupplicantStaIface16setWpsDeviceTypeERKNS0_10hidl_arrayIhLj8EJEEENSt3__18functionIFvRKNS3_16SupplicantStatusEEEE"
    },
    {
     "mangled_component_name":"_ZN7android8hardware4wifi10supplicant4V1_020BsSupplicantStaIface18setWpsManufacturerERKNS0_11hidl_stringENSt3__18functionIFvRKNS3_16SupplicantStatusEEEE"
    },
    {
     "mangled_component_name":"_ZN7android8hardware4wifi10supplicant4V1_020BsSupplicantStaIface15setWpsModelNameERKNS0_11hidl_stringENSt3__18functionIFvRKNS3_16SupplicantStatusEEEE"
    },
    {
     "mangled_component_name":"_ZN7android8hardware4wifi10supplicant4V1_020BsSupplicantStaIface17setWpsModelNumberERKNS0_11hidl_stringENSt3__18functionIFvRKNS3_16SupplicantStatusEEEE"
    },
    {
     "mangled_component_name":"_ZN7android8hardware4wifi10supplicant4V1_020BsSupplicantStaIface18setWpsSerialNumberERKNS0_11hidl_stringENSt3__18functionIFvRKNS3_16SupplicantStatusEEEE"
    },
    {
     "mangled_component_name":"_ZN7android8hardware4wifi10supplicant4V1_020BsSupplicantStaIface19setWpsConfigMethodsEtNSt3__18functionIFvRKNS3_16SupplicantStatusEEEE"
    },
    {
     "mangled_component_name":"_ZN7android8hardware4wifi10supplicant4V1_020BsSupplicantStaIface16registerCallbackERKNS_2spINS3_27ISupplicantStaIfaceCallbackEEENSt3__18functionIFvRKNS3_16SupplicantStatusEEEE"
    },
    {
     "mangled_component_name":"_ZN7android8hardware4wifi10supplicant4V1_020BsSupplicantStaIface11reassociateENSt3__18functionIFvRKNS3_16SupplicantStatusEEEE"
    },
    {
     "mangled_component_name":"_ZN7android8hardware4wifi10supplicant4V1_020BsSupplicantStaIface9reconnectENSt3__18functionIFvRKNS3_16SupplicantStatusEEEE"
    },
    {
     "mangled_component_name":"_ZN7android8hardware4wifi10supplicant4V1_020BsSupplicantStaIface10disconnectENSt3__18functionIFvRKNS3_16SupplicantStatusEEEE"
    },
    {
     "mangled_component_name":"_ZN7android8hardware4wifi10supplicant4V1_020BsSupplicantStaIface12setPowerSaveEbNSt3__18functionIFvRKNS3_16SupplicantStatusEEEE"
    },
    {
     "mangled_component_name":"_ZN7android8hardware4wifi10supplicant4V1_020BsSupplicantStaIface20initiateTdlsDiscoverERKNS0_10hidl_arrayIhLj6EJEEENSt3__18functionIFvRKNS3_16SupplicantStatusEEEE"
    },
    {
     "mangled_component_name":"_ZN7android8hardware4wifi10supplicant4V1_020BsSupplicantStaIface17initiateTdlsSetupERKNS0_10hidl_arrayIhLj6EJEEENSt3__18functionIFvRKNS3_16SupplicantStatusEEEE"
    },
    {
     "mangled_component_name":"_ZN7android8hardware4wifi10supplicant4V1_020BsSupplicantStaIface20initiateTdlsTeardownERKNS0_10hidl_arrayIhLj6EJEEENSt3__18functionIFvRKNS3_16SupplicantStatusEEEE"
    },
    {
     "mangled_component_name":"_ZN7android8hardware4wifi10supplicant4V1_020BsSupplicantStaIface17initiateAnqpQueryERKNS0_10hidl_arrayIhLj6EJEEERKNS0_8hidl_vecINS3_19ISupplicantStaIface10AnqpInfoIdEEERKNS9_INSA_16Hs20AnqpSubtypesEEENSt3__18functionIFvRKNS3_16SupplicantStatusEEEE"
    },
    {
     "mangled_component_name":"_ZN7android8hardware4wifi10supplicant4V1_020BsSupplicantStaIface21initiateHs20IconQueryERKNS0_10hidl_arrayIhLj6EJEEERKNS0_11hidl_stringENSt3__18functionIFvRKNS3_16SupplicantStatusEEEE"
    },
    {
     "mangled_component_name":"_ZN7android8hardware4wifi10supplicant4V1_020BsSupplicantStaIface13getMacAddressENSt3__18functionIFvRKNS3_16SupplicantStatusERKNS0_10hidl_arrayIhLj6EJEEEEEE"
    },
    {
     "mangled_component_name":"_ZN7android8hardware4wifi10supplicant4V1_020BsSupplicantStaIface13startRxFilterENSt3__18functionIFvRKNS3_16SupplicantStatusEEEE"
    },
    {
     "mangled_component_name":"_ZN7android8hardware4wifi10supplicant4V1_020BsSupplicantStaIface12stopRxFilterENSt3__18functionIFvRKNS3_16SupplicantStatusEEEE"
    },
    {
     "mangled_component_name":"_ZN7android8hardware4wifi10supplicant4V1_020BsSupplicantStaIface11addRxFilterENS3_19ISupplicantStaIface12RxFilterTypeENSt3__18functionIFvRKNS3_16SupplicantStatusEEEE"
    },
    {
     "mangled_component_name":"_ZN7android8hardware4wifi10supplicant4V1_020BsSupplicantStaIface14removeRxFilterENS3_19ISupplicantStaIface12RxFilterTypeENSt3__18functionIFvRKNS3_16SupplicantStatusEEEE"
    },
    {
     "mangled_component_name":"_ZN7android8hardware4wifi10supplicant4V1_020BsSupplicantStaIface20setBtCoexistenceModeENS3_19ISupplicantStaIface17BtCoexistenceModeENSt3__18functionIFvRKNS3_16SupplicantStatusEEEE"
    },
    {
     "mangled_component_name":"_ZN7android8hardware4wifi10supplicant4V1_020BsSupplicantStaIface31setBtCoexistenceScanModeEnabledEbNSt3__18functionIFvRKNS3_16SupplicantStatusEEEE"
    },
    {
     "mangled_component_name":"_ZN7android8hardware4wifi10supplicant4V1_020BsSupplicantStaIface21setSuspendModeEnabledEbNSt3__18functionIFvRKNS3_16SupplicantStatusEEEE"
    },
    {
     "mangled_component_name":"_ZN7android8hardware4wifi10supplicant4V1_020BsSupplicantStaIface14setCountryCodeERKNS0_10hidl_arrayIaLj2EJEEENSt3__18functionIFvRKNS3_16SupplicantStatusEEEE"
    },
    {
     "mangled_component_name":"_ZN7android8hardware4wifi10supplicant4V1_020BsSupplicantStaIface17startWpsRegistrarERKNS0_10hidl_arrayIhLj6EJEEERKNS0_11hidl_stringENSt3__18functionIFvRKNS3_16SupplicantStatusEEEE"
    },
    {
     "mangled_component_name":"_ZN7android8hardware4wifi10supplicant4V1_020BsSupplicantStaIface11startWpsPbcERKNS0_10hidl_arrayIhLj6EJEEENSt3__18functionIFvRKNS3_16SupplicantStatusEEEE"
    },
    {
     "mangled_component_name":"_ZN7android8hardware4wifi10supplicant4V1_020BsSupplicantStaIface17startWpsPinKeypadERKNS0_11hidl_stringENSt3__18functionIFvRKNS3_16SupplicantStatusEEEE"
    },
    {
     "mangled_component_name":"_ZN7android8hardware4wifi10supplicant4V1_020BsSupplicantStaIface18startWpsPinDisplayERKNS0_10hidl_arrayIhLj6EJEEENSt3__18functionIFvRKNS3_16SupplicantStatusERKNS0_11hidl_stringEEEE"
    },
    {
     "mangled_component_name":"_ZN7android8hardware4wifi10supplicant4V1_020BsSupplicantStaIface9cancelWpsENSt3__18functionIFvRKNS3_16SupplicantStatusEEEE"
    },
    {
     "mangled_component_name":"_ZN7android8hardware4wifi10supplicant4V1_020BsSupplicantStaIface14setExternalSimEbNSt3__18functionIFvRKNS3_16SupplicantStatusEEEE"
    },
    {
     "mangled_component_name":"_ZN7android8hardware4wifi10supplicant4V1_020BsSupplicantStaIface15addExtRadioWorkERKNS0_11hidl_stringEjjNSt3__18functionIFvRKNS3_16SupplicantStatusEjEEE"
    },
    {
     "mangled_component_name":"_ZN7android8hardware4wifi10supplicant4V1_020BsSupplicantStaIface18removeExtRadioWorkEjNSt3__18functionIFvRKNS3_16SupplicantStatusEEEE"
    },
    {
     "mangled_component_name":"_ZN7android8hardware4wifi10supplicant4V1_020BsSupplicantStaIface19enableAutoReconnectEbNSt3__18functionIFvRKNS3_16SupplicantStatusEEEE"
    },
    {
     "kind":"offset_to_top",
     "component_value":-4
    },
    {
     "kind":"rtti",
     "mangled_component_name":"_ZTIN7android8hardware4wifi10supplicant4V1_020BsSupplicantStaIfaceE"
    },
    {
     "kind":"complete_dtor_pointer",
     "mangled_component_name":"_ZThn4_N7android8hardware4wifi10supplicant4V1_020BsSupplicantStaIfaceD1Ev"
    },
    {
     "kind":"deleting_dtor_pointer",
     "mangled_component_name":"_ZThn4_N7android8hardware4wifi10supplicant4V1_020BsSupplicantStaIfaceD0Ev"
    },
    {
     "kind":"vcall_offset"
    },
    {
     "kind":"vcall_offset"
    },
    {
     "kind":"vcall_offset"
    },
    {
     "kind":"vcall_offset"
    },
    {
     "kind":"vcall_offset",
     "component_value":-60
    },
    {
     "kind":"offset_to_top",
     "component_value":-60
    },
    {
     "kind":"rtti",
     "mangled_component_name":"_ZTIN7android8hardware4wifi10supplicant4V1_020BsSupplicantStaIfaceE"
    },
    {
     "kind":"complete_dtor_pointer",
     "mangled_component_name":"_ZTv0_n12_N7android8hardware4wifi10supplicant4V1_020BsSupplicantStaIfaceD1Ev"
    },
    {
     "kind":"deleting_dtor_pointer",
     "mangled_component_name":"_ZTv0_n12_N7android8hardware4wifi10supplicant4V1_020BsSupplicantStaIfaceD0Ev"
    },
    {
     "mangled_component_name":"_ZN7android7RefBase10onFirstRefEv"
    },
    {
     "mangled_component_name":"_ZN7android7RefBase15onLastStrongRefEPKv"
    },
    {
     "mangled_component_name":"_ZN7android7RefBase20onIncStrongAttemptedEjPKv"
    },
    {
     "mangled_component_name":"_ZN7android7RefBase13onLastWeakRefEPKv"
    }
   ],
   "unique_id":"_ZTSN7android8hardware4wifi10supplicant4V1_020BsSupplicantStaIfaceE"
  },
  {
   "vtable_components":[
    {
     "kind":"vbase_offset",
     "component_value":84
    },
    {
     "kind":"offset_to_top"
    },
    {
     "kind":"rtti",
     "mangled_component_name":"_ZTIN7android8hardware4wifi10supplicant4V1_022BpHwSupplicantStaIfaceE"
    },
    {
     "mangled_component_name":"_ZNK7android8hardware4wifi10supplicant4V1_022BpHwSupplicantStaIface8isRemoteEv"
    },
    {
     "mangled_component_name":"_ZN7android8hardware4wifi10supplicant4V1_022BpHwSupplicantStaIface14interfaceChainENSt3__18functionIFvRKNS0_8hidl_vecINS0_11hidl_stringEEEEEE"
    },
    {
     "mangled_component_name":"_ZN7android8hardware4wifi10supplicant4V1_022BpHwSupplicantStaIface5debugERKNS0_11hidl_handleERKNS0_8hidl_vecINS0_11hidl_stringEEE"
    },
    {
     "mangled_component_name":"_ZN7android8hardware4wifi10supplicant4V1_022BpHwSupplicantStaIface19interfaceDescriptorENSt3__18functionIFvRKNS0_11hidl_stringEEEE"
    },
    {
     "mangled_component_name":"_ZN7android8hardware4wifi10supplicant4V1_022BpHwSupplicantStaIface12getHashChainENSt3__18functionIFvRKNS0_8hidl_vecINS0_10hidl_arrayIhLj32EJEEEEEEEE"
    },
    {
     "mangled_component_name":"_ZN7android8hardware4wifi10supplicant4V1_022BpHwSupplicantStaIface21setHALInstrumentationEv"
    },
    {
     "mangled_component_name":"_ZN7android8hardware4wifi10supplicant4V1_022BpHwSupplicantStaIface11linkToDeathERKNS_2spINS0_20hidl_death_recipientEEEy"
    },
    {
     "mangled_component_name":"_ZN7android8hardware4wifi10supplicant4V1_022BpHwSupplicantStaIface4pingEv"
    },
    {
     "mangled_component_name":"_ZN7android8hardware4wifi10supplicant4V1_022BpHwSupplicantStaIface12getDebugInfoENSt3__18functionIFvRKNS_4hidl4base4V1_09DebugInfoEEEE"
    },
    {
     "mangled_component_name":"_ZN7android8hardware4wifi10supplicant4V1_022BpHwSupplicantStaIface21notifySyspropsChangedEv"
    },
    {
     "mangled_component_name":"_ZN7android8hardware4wifi10supplicant4V1_022BpHwSupplicantStaIface13unlinkToDeathERKNS_2spINS0_20hidl_death_recipientEEE"
    },
    {
     "kind":"complete_dtor_pointer",
     "mangled_component_name":"_ZN7android8hardware4wifi10supplicant4V1_022BpHwSupplicantStaIfaceD1Ev"
    },
    {
     "kind":"deleting_dtor_pointer",
     "mangled_component_name":"_ZN7android8hardware4wifi10supplicant4V1_022BpHwSupplicantStaIfaceD0Ev"
    },
    {
     "mangled_component_name":"_ZN7android8hardware4wifi10supplicant4V1_022BpHwSupplicantStaIface7getNameENSt3__18functionIFvRKNS3_16SupplicantStatusERKNS0_11hidl_stringEEEE"
    },
    {
     "mangled_component_name":"_ZN7android8hardware4wifi10supplicant4V1_022BpHwSupplicantStaIface7getTypeENSt3__18functionIFvRKNS3_16SupplicantStatusENS3_9IfaceTypeEEEE"
    },
    {
     "mangled_component_name":"_ZN7android8hardware4wifi10supplicant4V1_022BpHwSupplicantStaIface10addNetworkENSt3__18functionIFvRKNS3_16SupplicantStatusERKNS_2spINS3_18ISupplicantNetworkEEEEEE"
    },
    {
     "mangled_component_name":"_ZN7android8hardware4wifi10supplicant4V1_022BpHwSupplicantStaIface13removeNetworkEjNSt3__18functionIFvRKNS3_16SupplicantStatusEEEE"
    },
    {
     "mangled_component_name":"_ZN7android8hardware4wifi10supplicant4V1_022BpHwSupplicantStaIface10getNetworkEjNSt3__18functionIFvRKNS3_16SupplicantStatusERKNS_2spINS3_18ISupplicantNetworkEEEEEE"
    },
    {
     "mangled_component_name":"_ZN7android8hardware4wifi10supplicant4V1_022BpHwSupplicantStaIface12listNetworksENSt3__18functionIFvRKNS3_16SupplicantStatusERKNS0_8hidl_vecIjEEEEE"
    },
    {
     "mangled_component_name":"_ZN7android8hardware4wifi10supplicant4V1_022BpHwSupplicantStaIface16setWpsDeviceNameERKNS0_11hidl_stringENSt3__18functionIFvRKNS3_16SupplicantStatusEEEE"
    },
    {
     "mangled_component_name":"_ZN7android8hardware4wifi10supplicant4V1_022BpHwSupplicantStaIface16setWpsDeviceTypeERKNS0_10hidl_arrayIhLj8EJEEENSt3__18functionIFvRKNS3_16SupplicantStatusEEEE"
    },
    {
     "mangled_component_name":"_ZN7android8hardware4wifi10supplicant4V1_022BpHwSupplicantStaIface18setWpsManufacturerERKNS0_11hidl_stringENSt3__18functionIFvRKNS3_16SupplicantStatusEEEE"
    },
    {
     "mangled_component_name":"_ZN7android8hardware4wifi10supplicant4V1_022BpHwSupplicantStaIface15setWpsModelNameERKNS0_11hidl_stringENSt3__18functionIFvRKNS3_16SupplicantStatusEEEE"
    },
    {
     "mangled_component_name":"_ZN7android8hardware4wifi10supplicant4V1_022BpHwSupplicantStaIface17setWpsModelNumberERKNS0_11hidl_stringENSt3__18functionIFvRKNS3_16SupplicantStatusEEEE"
    },
    {
     "mangled_component_name":"_ZN7android8hardware4wifi10supplicant4V1_022BpHwSupplicantStaIface18setWpsSerialNumberERKNS0_11hidl_stringENSt3__18functionIFvRKNS3_16SupplicantStatusEEEE"
    },
    {
     "mangled_component_name":"_ZN7android8hardware4wifi10supplicant4V1_022BpHwSupplicantStaIface19setWpsConfigMethodsEtNSt3__18functionIFvRKNS3_16SupplicantStatusEEEE"
    },
    {
     "mangled_component_name":"_ZN7android8hardware4wifi10supplicant4V1_022BpHwSupplicantStaIface16registerCallbackERKNS_2spINS3_27ISupplicantStaIfaceCallbackEEENSt3__18functionIFvRKNS3_16SupplicantStatusEEEE"
    },
    {
     "mangled_component_name":"_ZN7android8hardware4wifi10supplicant4V1_022BpHwSupplicantStaIface11reassociateENSt3__18functionIFvRKNS3_16SupplicantStatusEEEE"
    },
    {
     "mangled_component_name":"_ZN7android8hardware4wifi10supplicant4V1_022BpHwSupplicantStaIface9reconnectENSt3__18functionIFvRKNS3_16SupplicantStatusEEEE"
    },
    {
     "mangled_component_name":"_ZN7android8hardware4wifi10supplicant4V1_022BpHwSupplicantStaIface10disconnectENSt3__18functionIFvRKNS3_16SupplicantStatusEEEE"
    },
    {
     "mangled_component_name":"_ZN7android8hardware4wifi10supplicant4V1_022BpHwSupplicantStaIface12setPowerSaveEbNSt3__18functionIFvRKNS3_16SupplicantStatusEEEE"
    },
    {
     "mangled_component_name":"_ZN7android8hardware4wifi10supplicant4V1_022BpHwSupplicantStaIface20initiateTdlsDiscoverERKNS0_10hidl_arrayIhLj6EJEEENSt3__18functionIFvRKNS3_16SupplicantStatusEEEE"
    },
    {
     "mangled_component_name":"_ZN7android8hardware4wifi10supplicant4V1_022BpHwSupplicantStaIface17initiateTdlsSetupERKNS0_10hidl_arrayIhLj6EJEEENSt3__18functionIFvRKNS3_16SupplicantStatusEEEE"
    },
    {
     "mangled_component_name":"_ZN7android8hardware4wifi10supplicant4V1_022BpHwSupplicantStaIface20initiateTdlsTeardownERKNS0_10hidl_arrayIhLj6EJEEENSt3__18functionIFvRKNS3_16SupplicantStatusEEEE"
    },
    {
     "mangled_component_name":"_ZN7android8hardware4wifi10supplicant4V1_022BpHwSupplicantStaIface17initiateAnqpQueryERKNS0_10hidl_arrayIhLj6EJEEERKNS0_8hidl_vecINS3_19ISupplicantStaIface10AnqpInfoIdEEERKNS9_INSA_16Hs20AnqpSubtypesEEENSt3__18functionIFvRKNS3_16SupplicantStatusEEEE"
    },
    {
     "mangled_component_name":"_ZN7android8hardware4wifi10supplicant4V1_022BpHwSupplicantStaIface21initiateHs20IconQueryERKNS0_10hidl_arrayIhLj6EJEEERKNS0_11hidl_stringENSt3__18functionIFvRKNS3_16SupplicantStatusEEEE"
    },
    {
     "mangled_component_name":"_ZN7android8hardware4wifi10supplicant4V1_022BpHwSupplicantStaIface13getMacAddressENSt3__18functionIFvRKNS3_16SupplicantStatusERKNS0_10hidl_arrayIhLj6EJEEEEEE"
    },
    {
     "mangled_component_name":"_ZN7android8hardware4wifi10supplicant4V1_022BpHwSupplicantStaIface13startRxFilterENSt3__18functionIFvRKNS3_16SupplicantStatusEEEE"
    },
    {
     "mangled_component_name":"_ZN7android8hardware4wifi10supplicant4V1_022BpHwSupplicantStaIface12stopRxFilterENSt3__18functionIFvRKNS3_16SupplicantStatusEEEE"
    },
    {
     "mangled_component_name":"_ZN7android8hardware4wifi10supplicant4V1_022BpHwSupplicantStaIface11addRxFilterENS3_19ISupplicantStaIface12RxFilterTypeENSt3__18functionIFvRKNS3_16SupplicantStatusEEEE"
    },
    {
     "mangled_component_name":"_ZN7android8hardware4wifi10supplicant4V1_022BpHwSupplicantStaIface14removeRxFilterENS3_19ISupplicantStaIface12RxFilterTypeENSt3__18functionIFvRKNS3_16SupplicantStatusEEEE"
    },
    {
     "mangled_component_name":"_ZN7android8hardware4wifi10supplicant4V1_022BpHwSupplicantStaIface20setBtCoexistenceModeENS3_19ISupplicantStaIface17BtCoexistenceModeENSt3__18functionIFvRKNS3_16SupplicantStatusEEEE"
    },
    {
     "mangled_component_name":"_ZN7android8hardware4wifi10supplicant4V1_022BpHwSupplicantStaIface31setBtCoexistenceScanModeEnabledEbNSt3__18functionIFvRKNS3_16SupplicantStatusEEEE"
    },
    {
     "mangled_component_name":"_ZN7android8hardware4wifi10supplicant4V1_022BpHwSupplicantStaIface21setSuspendModeEnabledEbNSt3__18functionIFvRKNS3_16SupplicantStatusEEEE"
    },
    {
     "mangled_component_name":"_ZN7android8hardware4wifi10supplicant4V1_022BpHwSupplicantStaIface14setCountryCodeERKNS0_10hidl_arrayIaLj2EJEEENSt3__18functionIFvRKNS3_16SupplicantStatusEEEE"
    },
    {
     "mangled_component_name":"_ZN7android8hardware4wifi10supplicant4V1_022BpHwSupplicantStaIface17startWpsRegistrarERKNS0_10hidl_arrayIhLj6EJEEERKNS0_11hidl_stringENSt3__18functionIFvRKNS3_16SupplicantStatusEEEE"
    },
    {
     "mangled_component_name":"_ZN7android8hardware4wifi10supplicant4V1_022BpHwSupplicantStaIface11startWpsPbcERKNS0_10hidl_arrayIhLj6EJEEENSt3__18functionIFvRKNS3_16SupplicantStatusEEEE"
    },
    {
     "mangled_component_name":"_ZN7android8hardware4wifi10supplicant4V1_022BpHwSupplicantStaIface17startWpsPinKeypadERKNS0_11hidl_stringENSt3__18functionIFvRKNS3_16SupplicantStatusEEEE"
    },
    {
     "mangled_component_name":"_ZN7android8hardware4wifi10supplicant4V1_022BpHwSupplicantStaIface18startWpsPinDisplayERKNS0_10hidl_arrayIhLj6EJEEENSt3__18functionIFvRKNS3_16SupplicantStatusERKNS0_11hidl_stringEEEE"
    },
    {
     "mangled_component_name":"_ZN7android8hardware4wifi10supplicant4V1_022BpHwSupplicantStaIface9cancelWpsENSt3__18functionIFvRKNS3_16SupplicantStatusEEEE"
    },
    {
     "mangled_component_name":"_ZN7android8hardware4wifi10supplicant4V1_022BpHwSupplicantStaIface14setExternalSimEbNSt3__18functionIFvRKNS3_16SupplicantStatusEEEE"
    },
    {
     "mangled_component_name":"_ZN7android8hardware4wifi10supplicant4V1_022BpHwSupplicantStaIface15addExtRadioWorkERKNS0_11hidl_stringEjjNSt3__18functionIFvRKNS3_16SupplicantStatusEjEEE"
    },
    {
     "mangled_component_name":"_ZN7android8hardware4wifi10supplicant4V1_022BpHwSupplicantStaIface18removeExtRadioWorkEjNSt3__18functionIFvRKNS3_16SupplicantStatusEEEE"
    },
    {
     "mangled_component_name":"_ZN7android8hardware4wifi10supplicant4V1_022BpHwSupplicantStaIface19enableAutoReconnectEbNSt3__18functionIFvRKNS3_16SupplicantStatusEEEE"
    },
    {
     "mangled_component_name":"_ZN7android8hardware11BpInterfaceINS0_4wifi10supplicant4V1_019ISupplicantStaIfaceEE10onAsBinderEv"
    },
    {
     "kind":"vbase_offset",
     "component_value":80
    },
    {
     "kind":"offset_to_top",
     "component_value":-4
    },
    {
     "kind":"rtti",
     "mangled_component_name":"_ZTIN7android8hardware4wifi10supplicant4V1_022BpHwSupplicantStaIfaceE"
    },
    {
     "kind":"complete_dtor_pointer",
     "mangled_component_name":"_ZThn4_N7android8hardware4wifi10supplicant4V1_022BpHwSupplicantStaIfaceD1Ev"
    },
    {
     "kind":"deleting_dtor_pointer",
     "mangled_component_name":"_ZThn4_N7android8hardware4wifi10supplicant4V1_022BpHwSupplicantStaIfaceD0Ev"
    },
    {
     "mangled_component_name":"_ZThn4_N7android8hardware11BpInterfaceINS0_4wifi10supplicant4V1_019ISupplicantStaIfaceEE10onAsBinderEv"
    },
    {
     "kind":"vbase_offset",
     "component_value":76
    },
    {
     "kind":"offset_to_top",
     "component_value":-8
    },
    {
     "kind":"rtti",
     "mangled_component_name":"_ZTIN7android8hardware4wifi10supplicant4V1_022BpHwSupplicantStaIfaceE"
    },
    {
     "kind":"complete_dtor_pointer",
     "mangled_component_name":"_ZThn8_N7android8hardware4wifi10supplicant4V1_022BpHwSupplicantStaIfaceD1Ev"
    },
    {
     "kind":"deleting_dtor_pointer",
     "mangled_component_name":"_ZThn8_N7android8hardware4wifi10supplicant4V1_022BpHwSupplicantStaIfaceD0Ev"
    },
    {
     "mangled_component_name":"_ZN7android8hardware11BpHwRefBase10onFirstRefEv"
    },
    {
     "mangled_component_name":"_ZN7android8hardware11BpHwRefBase15onLastStrongRefEPKv"
    },
    {
     "mangled_component_name":"_ZN7android8hardware11BpHwRefBase20onIncStrongAttemptedEjPKv"
    },
    {
     "kind":"offset_to_top",
     "component_value":-24
    },
    {
     "kind":"rtti",
     "mangled_component_name":"_ZTIN7android8hardware4wifi10supplicant4V1_022BpHwSupplicantStaIfaceE"
    },
    {
     "kind":"complete_dtor_pointer",
     "mangled_component_name":"_ZThn24_N7android8hardware4wifi10supplicant4V1_022BpHwSupplicantStaIfaceD1Ev"
    },
    {
     "kind":"deleting_dtor_pointer",
     "mangled_component_name":"_ZThn24_N7android8hardware4wifi10supplicant4V1_022BpHwSupplicantStaIfaceD0Ev"
    },
    {
     "kind":"vcall_offset"
    },
    {
     "kind":"vcall_offset",
     "component_value":-76
    },
    {
     "kind":"vcall_offset",
     "component_value":-76
    },
    {
     "kind":"vcall_offset",
     "component_value":-76
    },
    {
     "kind":"vcall_offset",
     "component_value":-84
    },
    {
     "kind":"offset_to_top",
     "component_value":-84
    },
    {
     "kind":"rtti",
     "mangled_component_name":"_ZTIN7android8hardware4wifi10supplicant4V1_022BpHwSupplicantStaIfaceE"
    },
    {
     "kind":"complete_dtor_pointer",
     "mangled_component_name":"_ZTv0_n12_N7android8hardware4wifi10supplicant4V1_022BpHwSupplicantStaIfaceD1Ev"
    },
    {
     "kind":"deleting_dtor_pointer",
     "mangled_component_name":"_ZTv0_n12_N7android8hardware4wifi10supplicant4V1_022BpHwSupplicantStaIfaceD0Ev"
    },
    {
     "mangled_component_name":"_ZTv0_n16_N7android8hardware11BpHwRefBase10onFirstRefEv"
    },
    {
     "mangled_component_name":"_ZTv0_n20_N7android8hardware11BpHwRefBase15onLastStrongRefEPKv"
    },
    {
     "mangled_component_name":"_ZTv0_n24_N7android8hardware11BpHwRefBase20onIncStrongAttemptedEjPKv"
    },
    {
     "mangled_component_name":"_ZN7android7RefBase13onLastWeakRefEPKv"
    }
   ],
   "unique_id":"_ZTSN7android8hardware4wifi10supplicant4V1_022BpHwSupplicantStaIfaceE"
  },
  {
   "vtable_components":[
    {
     "kind":"vbase_offset",
     "component_value":84
    },
    {
     "kind":"offset_to_top"
    },
    {
     "kind":"rtti",
     "mangled_component_name":"_ZTIN7android8hardware4wifi10supplicant4V1_030BpHwSupplicantStaIfaceCallbackE"
    },
    {
     "mangled_component_name":"_ZNK7android8hardware4wifi10supplicant4V1_030BpHwSupplicantStaIfaceCallback8isRemoteEv"
    },
    {
     "mangled_component_name":"_ZN7android8hardware4wifi10supplicant4V1_030BpHwSupplicantStaIfaceCallback14interfaceChainENSt3__18functionIFvRKNS0_8hidl_vecINS0_11hidl_stringEEEEEE"
    },
    {
     "mangled_component_name":"_ZN7android8hardware4wifi10supplicant4V1_030BpHwSupplicantStaIfaceCallback5debugERKNS0_11hidl_handleERKNS0_8hidl_vecINS0_11hidl_stringEEE"
    },
    {
     "mangled_component_name":"_ZN7android8hardware4wifi10supplicant4V1_030BpHwSupplicantStaIfaceCallback19interfaceDescriptorENSt3__18functionIFvRKNS0_11hidl_stringEEEE"
    },
    {
     "mangled_component_name":"_ZN7android8hardware4wifi10supplicant4V1_030BpHwSupplicantStaIfaceCallback12getHashChainENSt3__18functionIFvRKNS0_8hidl_vecINS0_10hidl_arrayIhLj32EJEEEEEEEE"
    },
    {
     "mangled_component_name":"_ZN7android8hardware4wifi10supplicant4V1_030BpHwSupplicantStaIfaceCallback21setHALInstrumentationEv"
    },
    {
     "mangled_component_name":"_ZN7android8hardware4wifi10supplicant4V1_030BpHwSupplicantStaIfaceCallback11linkToDeathERKNS_2spINS0_20hidl_death_recipientEEEy"
    },
    {
     "mangled_component_name":"_ZN7android8hardware4wifi10supplicant4V1_030BpHwSupplicantStaIfaceCallback4pingEv"
    },
    {
     "mangled_component_name":"_ZN7android8hardware4wifi10supplicant4V1_030BpHwSupplicantStaIfaceCallback12getDebugInfoENSt3__18functionIFvRKNS_4hidl4base4V1_09DebugInfoEEEE"
    },
    {
     "mangled_component_name":"_ZN7android8hardware4wifi10supplicant4V1_030BpHwSupplicantStaIfaceCallback21notifySyspropsChangedEv"
    },
    {
     "mangled_component_name":"_ZN7android8hardware4wifi10supplicant4V1_030BpHwSupplicantStaIfaceCallback13unlinkToDeathERKNS_2spINS0_20hidl_death_recipientEEE"
    },
    {
     "kind":"complete_dtor_pointer",
     "mangled_component_name":"_ZN7android8hardware4wifi10supplicant4V1_030BpHwSupplicantStaIfaceCallbackD1Ev"
    },
    {
     "kind":"deleting_dtor_pointer",
     "mangled_component_name":"_ZN7android8hardware4wifi10supplicant4V1_030BpHwSupplicantStaIfaceCallbackD0Ev"
    },
    {
     "mangled_component_name":"_ZN7android8hardware4wifi10supplicant4V1_030BpHwSupplicantStaIfaceCallback14onNetworkAddedEj"
    },
    {
     "mangled_component_name":"_ZN7android8hardware4wifi10supplicant4V1_030BpHwSupplicantStaIfaceCallback16onNetworkRemovedEj"
    },
    {
     "mangled_component_name":"_ZN7android8hardware4wifi10supplicant4V1_030BpHwSupplicantStaIfaceCallback14onStateChangedENS3_27ISupplicantStaIfaceCallback5StateERKNS0_10hidl_arrayIhLj6EJEEEjRKNS0_8hidl_vecIhEE"
    },
    {
     "mangled_component_name":"_ZN7android8hardware4wifi10supplicant4V1_030BpHwSupplicantStaIfaceCallback15onAnqpQueryDoneERKNS0_10hidl_arrayIhLj6EJEEERKNS3_27ISupplicantStaIfaceCallback8AnqpDataERKNS9_12Hs20AnqpDataE"
    },
    {
     "mangled_component_name":"_ZN7android8hardware4wifi10supplicant4V1_030BpHwSupplicantStaIfaceCallback19onHs20IconQueryDoneERKNS0_10hidl_arrayIhLj6EJEEERKNS0_11hidl_stringERKNS0_8hidl_vecIhEE"
    },
    {
     "mangled_component_name":"_ZN7android8hardware4wifi10supplicant4V1_030BpHwSupplicantStaIfaceCallback29onHs20SubscriptionRemediationERKNS0_10hidl_arrayIhLj6EJEEENS3_27ISupplicantStaIfaceCallback9OsuMethodERKNS0_11hidl_stringE"
    },
    {
     "mangled_component_name":"_ZN7android8hardware4wifi10supplicant4V1_030BpHwSupplicantStaIfaceCallback26onHs20DeauthImminentNoticeERKNS0_10hidl_arrayIhLj6EJEEEjjRKNS0_11hidl_stringE"
    },
    {
     "mangled_component_name":"_ZN7android8hardware4wifi10supplicant4V1_030BpHwSupplicantStaIfaceCallback14onDisconnectedERKNS0_10hidl_arrayIhLj6EJEEEbNS3_27ISupplicantStaIfaceCallback10ReasonCodeE"
    },
    {
     "mangled_component_name":"_ZN7android8hardware4wifi10supplicant4V1_030BpHwSupplicantStaIfaceCallback21onAssociationRejectedERKNS0_10hidl_arrayIhLj6EJEEENS3_27ISupplicantStaIfaceCallback10StatusCodeEb"
    },
    {
     "mangled_component_name":"_ZN7android8hardware4wifi10supplicant4V1_030BpHwSupplicantStaIfaceCallback23onAuthenticationTimeoutERKNS0_10hidl_arrayIhLj6EJEEE"
    },
    {
     "mangled_component_name":"_ZN7android8hardware4wifi10supplicant4V1_030BpHwSupplicantStaIfaceCallback12onEapFailureEv"
    },
    {
     "mangled_component_name":"_ZN7android8hardware4wifi10supplicant4V1_030BpHwSupplicantStaIfaceCallback14onBssidChangedENS3_27ISupplicantStaIfaceCallback17BssidChangeReasonERKNS0_10hidl_arrayIhLj6EJEEE"
    },
    {
     "mangled_component_name":"_ZN7android8hardware4wifi10supplicant4V1_030BpHwSupplicantStaIfaceCallback17onWpsEventSuccessEv"
    },
    {
     "mangled_component_name":"_ZN7android8hardware4wifi10supplicant4V1_030BpHwSupplicantStaIfaceCallback14onWpsEventFailERKNS0_10hidl_arrayIhLj6EJEEENS3_27ISupplicantStaIfaceCallback14WpsConfigErrorENS9_18WpsErrorIndicationE"
    },
    {
     "mangled_component_name":"_ZN7android8hardware4wifi10supplicant4V1_030BpHwSupplicantStaIfaceCallback20onWpsEventPbcOverlapEv"
    },
    {
     "mangled_component_name":"_ZN7android8hardware4wifi10supplicant4V1_030BpHwSupplicantStaIfaceCallback19onExtRadioWorkStartEj"
    },
    {
     "mangled_component_name":"_ZN7android8hardware4wifi10supplicant4V1_030BpHwSupplicantStaIfaceCallback21onExtRadioWorkTimeoutEj"
    },
    {
     "mangled_component_name":"_ZN7android8hardware11BpInterfaceINS0_4wifi10supplicant4V1_027ISupplicantStaIfaceCallbackEE10onAsBinderEv"
    },
    {
     "kind":"vbase_offset",
     "component_value":80
    },
    {
     "kind":"offset_to_top",
     "component_value":-4
    },
    {
     "kind":"rtti",
     "mangled_component_name":"_ZTIN7android8hardware4wifi10supplicant4V1_030BpHwSupplicantStaIfaceCallbackE"
    },
    {
     "kind":"complete_dtor_pointer",
     "mangled_component_name":"_ZThn4_N7android8hardware4wifi10supplicant4V1_030BpHwSupplicantStaIfaceCallbackD1Ev"
    },
    {
     "kind":"deleting_dtor_pointer",
     "mangled_component_name":"_ZThn4_N7android8hardware4wifi10supplicant4V1_030BpHwSupplicantStaIfaceCallbackD0Ev"
    },
    {
     "mangled_component_name":"_ZThn4_N7android8hardware11BpInterfaceINS0_4wifi10supplicant4V1_027ISupplicantStaIfaceCallbackEE10onAsBinderEv"
    },
    {
     "kind":"vbase_offset",
     "component_value":76
    },
    {
     "kind":"offset_to_top",
     "component_value":-8
    },
    {
     "kind":"rtti",
     "mangled_component_name":"_ZTIN7android8hardware4wifi10supplicant4V1_030BpHwSupplicantStaIfaceCallbackE"
    },
    {
     "kind":"complete_dtor_pointer",
     "mangled_component_name":"_ZThn8_N7android8hardware4wifi10supplicant4V1_030BpHwSupplicantStaIfaceCallbackD1Ev"
    },
    {
     "kind":"deleting_dtor_pointer",
     "mangled_component_name":"_ZThn8_N7android8hardware4wifi10supplicant4V1_030BpHwSupplicantStaIfaceCallbackD0Ev"
    },
    {
     "mangled_component_name":"_ZN7android8hardware11BpHwRefBase10onFirstRefEv"
    },
    {
     "mangled_component_name":"_ZN7android8hardware11BpHwRefBase15onLastStrongRefEPKv"
    },
    {
     "mangled_component_name":"_ZN7android8hardware11BpHwRefBase20onIncStrongAttemptedEjPKv"
    },
    {
     "kind":"offset_to_top",
     "component_value":-24
    },
    {
     "kind":"rtti",
     "mangled_component_name":"_ZTIN7android8hardware4wifi10supplicant4V1_030BpHwSupplicantStaIfaceCallbackE"
    },
    {
     "kind":"complete_dtor_pointer",
     "mangled_component_name":"_ZThn24_N7android8hardware4wifi10supplicant4V1_030BpHwSupplicantStaIfaceCallbackD1Ev"
    },
    {
     "kind":"deleting_dtor_pointer",
     "mangled_component_name":"_ZThn24_N7android8hardware4wifi10supplicant4V1_030BpHwSupplicantStaIfaceCallbackD0Ev"
    },
    {
     "kind":"vcall_offset"
    },
    {
     "kind":"vcall_offset",
     "component_value":-76
    },
    {
     "kind":"vcall_offset",
     "component_value":-76
    },
    {
     "kind":"vcall_offset",
     "component_value":-76
    },
    {
     "kind":"vcall_offset",
     "component_value":-84
    },
    {
     "kind":"offset_to_top",
     "component_value":-84
    },
    {
     "kind":"rtti",
     "mangled_component_name":"_ZTIN7android8hardware4wifi10supplicant4V1_030BpHwSupplicantStaIfaceCallbackE"
    },
    {
     "kind":"complete_dtor_pointer",
     "mangled_component_name":"_ZTv0_n12_N7android8hardware4wifi10supplicant4V1_030BpHwSupplicantStaIfaceCallbackD1Ev"
    },
    {
     "kind":"deleting_dtor_pointer",
     "mangled_component_name":"_ZTv0_n12_N7android8hardware4wifi10supplicant4V1_030BpHwSupplicantStaIfaceCallbackD0Ev"
    },
    {
     "mangled_component_name":"_ZTv0_n16_N7android8hardware11BpHwRefBase10onFirstRefEv"
    },
    {
     "mangled_component_name":"_ZTv0_n20_N7android8hardware11BpHwRefBase15onLastStrongRefEPKv"
    },
    {
     "mangled_component_name":"_ZTv0_n24_N7android8hardware11BpHwRefBase20onIncStrongAttemptedEjPKv"
    },
    {
     "mangled_component_name":"_ZN7android7RefBase13onLastWeakRefEPKv"
    }
   ],
   "unique_id":"_ZTSN7android8hardware4wifi10supplicant4V1_030BpHwSupplicantStaIfaceCallbackE"
  },
  {
   "vtable_components":[
    {
     "kind":"vbase_offset",
     "component_value":72
    },
    {
     "kind":"offset_to_top"
    },
    {
     "kind":"rtti",
     "mangled_component_name":"_ZTIN7android8hardware4wifi10supplicant4V1_014BnHwSupplicantE"
    },
    {
     "mangled_component_name":"_ZN7android8hardware9BHwBinder8transactEjRKNS0_6ParcelEPS2_jNSt3__18functionIFvRS2_EEE"
    },
    {
     "mangled_component_name":"_ZN7android8hardware9BHwBinder11linkToDeathERKNS_2spINS0_7IBinder14DeathRecipientEEEPvj"
    },
    {
     "mangled_component_name":"_ZN7android8hardware9BHwBinder13unlinkToDeathERKNS_2wpINS0_7IBinder14DeathRecipientEEEPvjPS5_"
    },
    {
     "mangled_component_name":"_ZNK7android8hardware7IBinder13checkSubclassEPKv"
    },
    {
     "mangled_component_name":"_ZN7android8hardware9BHwBinder12attachObjectEPKvPvS4_PFvS3_S4_S4_E"
    },
    {
     "mangled_component_name":"_ZNK7android8hardware9BHwBinder10findObjectEPKv"
    },
    {
     "mangled_component_name":"_ZN7android8hardware9BHwBinder12detachObjectEPKv"
    },
    {
     "mangled_component_name":"_ZN7android8hardware9BHwBinder11localBinderEv"
    },
    {
     "mangled_component_name":"_ZN7android8hardware7IBinder12remoteBinderEv"
    },
    {
     "kind":"complete_dtor_pointer",
     "mangled_component_name":"_ZN7android8hardware4wifi10supplicant4V1_014BnHwSupplicantD1Ev"
    },
    {
     "kind":"deleting_dtor_pointer",
     "mangled_component_name":"_ZN7android8hardware4wifi10supplicant4V1_014BnHwSupplicantD0Ev"
    },
    {
     "mangled_component_name":"_ZN7android8hardware4wifi10supplicant4V1_014BnHwSupplicant10onTransactEjRKNS0_6ParcelEPS5_jNSt3__18functionIFvRS5_EEE"
    },
    {
     "kind":"offset_to_top",
     "component_value":-20
    },
    {
     "kind":"rtti",
     "mangled_component_name":"_ZTIN7android8hardware4wifi10supplicant4V1_014BnHwSupplicantE"
    },
    {
     "kind":"complete_dtor_pointer",
     "mangled_component_name":"_ZThn20_N7android8hardware4wifi10supplicant4V1_014BnHwSupplicantD1Ev"
    },
    {
     "kind":"deleting_dtor_pointer",
     "mangled_component_name":"_ZThn20_N7android8hardware4wifi10supplicant4V1_014BnHwSupplicantD0Ev"
    },
    {
     "kind":"vcall_offset"
    },
    {
     "kind":"vcall_offset"
    },
    {
     "kind":"vcall_offset"
    },
    {
     "kind":"vcall_offset"
    },
    {
     "kind":"vcall_offset",
     "component_value":-72
    },
    {
     "kind":"offset_to_top",
     "component_value":-72
    },
    {
     "kind":"rtti",
     "mangled_component_name":"_ZTIN7android8hardware4wifi10supplicant4V1_014BnHwSupplicantE"
    },
    {
     "kind":"complete_dtor_pointer",
     "mangled_component_name":"_ZTv0_n12_N7android8hardware4wifi10supplicant4V1_014BnHwSupplicantD1Ev"
    },
    {
     "kind":"deleting_dtor_pointer",
     "mangled_component_name":"_ZTv0_n12_N7android8hardware4wifi10supplicant4V1_014BnHwSupplicantD0Ev"
    },
    {
     "mangled_component_name":"_ZN7android7RefBase10onFirstRefEv"
    },
    {
     "mangled_component_name":"_ZN7android7RefBase15onLastStrongRefEPKv"
    },
    {
     "mangled_component_name":"_ZN7android7RefBase20onIncStrongAttemptedEjPKv"
    },
    {
     "mangled_component_name":"_ZN7android7RefBase13onLastWeakRefEPKv"
    }
   ],
   "unique_id":"_ZTSN7android8hardware4wifi10supplicant4V1_014BnHwSupplicantE"
  },
  {
   "vtable_components":[
    {
     "kind":"vbase_offset",
     "component_value":72
    },
    {
     "kind":"offset_to_top"
    },
    {
     "kind":"rtti",
     "mangled_component_name":"_ZTIN7android8hardware4wifi10supplicant4V1_030BnHwSupplicantStaIfaceCallbackE"
    },
    {
     "mangled_component_name":"_ZN7android8hardware9BHwBinder8transactEjRKNS0_6ParcelEPS2_jNSt3__18functionIFvRS2_EEE"
    },
    {
     "mangled_component_name":"_ZN7android8hardware9BHwBinder11linkToDeathERKNS_2spINS0_7IBinder14DeathRecipientEEEPvj"
    },
    {
     "mangled_component_name":"_ZN7android8hardware9BHwBinder13unlinkToDeathERKNS_2wpINS0_7IBinder14DeathRecipientEEEPvjPS5_"
    },
    {
     "mangled_component_name":"_ZNK7android8hardware7IBinder13checkSubclassEPKv"
    },
    {
     "mangled_component_name":"_ZN7android8hardware9BHwBinder12attachObjectEPKvPvS4_PFvS3_S4_S4_E"
    },
    {
     "mangled_component_name":"_ZNK7android8hardware9BHwBinder10findObjectEPKv"
    },
    {
     "mangled_component_name":"_ZN7android8hardware9BHwBinder12detachObjectEPKv"
    },
    {
     "mangled_component_name":"_ZN7android8hardware9BHwBinder11localBinderEv"
    },
    {
     "mangled_component_name":"_ZN7android8hardware7IBinder12remoteBinderEv"
    },
    {
     "kind":"complete_dtor_pointer",
     "mangled_component_name":"_ZN7android8hardware4wifi10supplicant4V1_030BnHwSupplicantStaIfaceCallbackD1Ev"
    },
    {
     "kind":"deleting_dtor_pointer",
     "mangled_component_name":"_ZN7android8hardware4wifi10supplicant4V1_030BnHwSupplicantStaIfaceCallbackD0Ev"
    },
    {
     "mangled_component_name":"_ZN7android8hardware4wifi10supplicant4V1_030BnHwSupplicantStaIfaceCallback10onTransactEjRKNS0_6ParcelEPS5_jNSt3__18functionIFvRS5_EEE"
    },
    {
     "kind":"offset_to_top",
     "component_value":-20
    },
    {
     "kind":"rtti",
     "mangled_component_name":"_ZTIN7android8hardware4wifi10supplicant4V1_030BnHwSupplicantStaIfaceCallbackE"
    },
    {
     "kind":"complete_dtor_pointer",
     "mangled_component_name":"_ZThn20_N7android8hardware4wifi10supplicant4V1_030BnHwSupplicantStaIfaceCallbackD1Ev"
    },
    {
     "kind":"deleting_dtor_pointer",
     "mangled_component_name":"_ZThn20_N7android8hardware4wifi10supplicant4V1_030BnHwSupplicantStaIfaceCallbackD0Ev"
    },
    {
     "kind":"vcall_offset"
    },
    {
     "kind":"vcall_offset"
    },
    {
     "kind":"vcall_offset"
    },
    {
     "kind":"vcall_offset"
    },
    {
     "kind":"vcall_offset",
     "component_value":-72
    },
    {
     "kind":"offset_to_top",
     "component_value":-72
    },
    {
     "kind":"rtti",
     "mangled_component_name":"_ZTIN7android8hardware4wifi10supplicant4V1_030BnHwSupplicantStaIfaceCallbackE"
    },
    {
     "kind":"complete_dtor_pointer",
     "mangled_component_name":"_ZTv0_n12_N7android8hardware4wifi10supplicant4V1_030BnHwSupplicantStaIfaceCallbackD1Ev"
    },
    {
     "kind":"deleting_dtor_pointer",
     "mangled_component_name":"_ZTv0_n12_N7android8hardware4wifi10supplicant4V1_030BnHwSupplicantStaIfaceCallbackD0Ev"
    },
    {
     "mangled_component_name":"_ZN7android7RefBase10onFirstRefEv"
    },
    {
     "mangled_component_name":"_ZN7android7RefBase15onLastStrongRefEPKv"
    },
    {
     "mangled_component_name":"_ZN7android7RefBase20onIncStrongAttemptedEjPKv"
    },
    {
     "mangled_component_name":"_ZN7android7RefBase13onLastWeakRefEPKv"
    }
   ],
   "unique_id":"_ZTSN7android8hardware4wifi10supplicant4V1_030BnHwSupplicantStaIfaceCallbackE"
  }
 ],
 "elf_functions":[
  {
   "binding":"weak",
   "name":"_ZN7android8hardware10fromBinderINS0_4wifi10supplicant4V1_016ISupplicantIfaceENS4_19BpHwSupplicantIfaceENS4_19BnHwSupplicantIfaceEEENS_2spIT_EERKNS8_INS0_7IBinderEEE"
  },
  {
   "binding":"weak",
   "name":"_ZN7android8hardware10fromBinderINS0_4wifi10supplicant4V1_018ISupplicantNetworkENS4_21BpHwSupplicantNetworkENS4_21BnHwSupplicantNetworkEEENS_2spIT_EERKNS8_INS0_7IBinderEEE"
  },
  {
   "binding":"weak",
   "name":"_ZN7android8hardware10fromBinderINS0_4wifi10supplicant4V1_019ISupplicantCallbackENS4_22BpHwSupplicantCallbackENS4_22BnHwSupplicantCallbackEEENS_2spIT_EERKNS8_INS0_7IBinderEEE"
  },
  {
   "binding":"weak",
   "name":"_ZN7android8hardware10fromBinderINS0_4wifi10supplicant4V1_027ISupplicantP2pIfaceCallbackENS4_30BpHwSupplicantP2pIfaceCallbackENS4_30BnHwSupplicantP2pIfaceCallbackEEENS_2spIT_EERKNS8_INS0_7IBinderEEE"
  },
  {
   "binding":"weak",
   "name":"_ZN7android8hardware10fromBinderINS0_4wifi10supplicant4V1_027ISupplicantStaIfaceCallbackENS4_30BpHwSupplicantStaIfaceCallbackENS4_30BnHwSupplicantStaIfaceCallbackEEENS_2spIT_EERKNS8_INS0_7IBinderEEE"
  },
  {
   "binding":"weak",
   "name":"_ZN7android8hardware10fromBinderINS0_4wifi10supplicant4V1_029ISupplicantP2pNetworkCallbackENS4_32BpHwSupplicantP2pNetworkCallbackENS4_32BnHwSupplicantP2pNetworkCallbackEEENS_2spIT_EERKNS8_INS0_7IBinderEEE"
  },
  {
   "binding":"weak",
   "name":"_ZN7android8hardware10fromBinderINS0_4wifi10supplicant4V1_029ISupplicantStaNetworkCallbackENS4_32BpHwSupplicantStaNetworkCallbackENS4_32BnHwSupplicantStaNetworkCallbackEEENS_2spIT_EERKNS8_INS0_7IBinderEEE"
  },
  {
   "name":"_ZN7android8hardware4wifi10supplicant4V1_011ISupplicant10getServiceERKNSt3__112basic_stringIcNS5_11char_traitsIcEENS5_9allocatorIcEEEEb"
  },
  {
   "name":"_ZN7android8hardware4wifi10supplicant4V1_011ISupplicant11linkToDeathERKNS_2spINS0_20hidl_death_recipientEEEy"
  },
  {
   "name":"_ZN7android8hardware4wifi10supplicant4V1_011ISupplicant12getDebugInfoENSt3__18functionIFvRKNS_4hidl4base4V1_09DebugInfoEEEE"
  },
  {
   "name":"_ZN7android8hardware4wifi10supplicant4V1_011ISupplicant12getHashChainENSt3__18functionIFvRKNS0_8hidl_vecINS0_10hidl_arrayIhLj32EJEEEEEEEE"
  },
  {
   "name":"_ZN7android8hardware4wifi10supplicant4V1_011ISupplicant13tryGetServiceERKNSt3__112basic_stringIcNS5_11char_traitsIcEENS5_9allocatorIcEEEEb"
  },
  {
   "name":"_ZN7android8hardware4wifi10supplicant4V1_011ISupplicant13unlinkToDeathERKNS_2spINS0_20hidl_death_recipientEEE"
  },
  {
   "name":"_ZN7android8hardware4wifi10supplicant4V1_011ISupplicant14interfaceChainENSt3__18functionIFvRKNS0_8hidl_vecINS0_11hidl_stringEEEEEE"
  },
  {
   "name":"_ZN7android8hardware4wifi10supplicant4V1_011ISupplicant17registerAsServiceERKNSt3__112basic_stringIcNS5_11char_traitsIcEENS5_9allocatorIcEEEE"
  },
  {
   "name":"_ZN7android8hardware4wifi10supplicant4V1_011ISupplicant19interfaceDescriptorENSt3__18functionIFvRKNS0_11hidl_stringEEEE"
  },
  {
   "name":"_ZN7android8hardware4wifi10supplicant4V1_011ISupplicant21notifySyspropsChangedEv"
  },
  {
   "name":"_ZN7android8hardware4wifi10supplicant4V1_011ISupplicant21setHALInstrumentationEv"
  },
  {
   "name":"_ZN7android8hardware4wifi10supplicant4V1_011ISupplicant24registerForNotificationsERKNSt3__112basic_stringIcNS5_11char_traitsIcEENS5_9allocatorIcEEEERKNS_2spINS_4hidl7manager4V1_020IServiceNotificationEEE"
  },
  {
   "name":"_ZN7android8hardware4wifi10supplicant4V1_011ISupplicant4pingEv"
  },
  {
   "name":"_ZN7android8hardware4wifi10supplicant4V1_011ISupplicant5debugERKNS0_11hidl_handleERKNS0_8hidl_vecINS0_11hidl_stringEEE"
  },
  {
   "name":"_ZN7android8hardware4wifi10supplicant4V1_011ISupplicant8castFromERKNS_2spINS_4hidl4base4V1_05IBaseEEEb"
  },
  {
   "name":"_ZN7android8hardware4wifi10supplicant4V1_011ISupplicant8castFromERKNS_2spIS4_EEb"
  },
  {
   "name":"_ZN7android8hardware4wifi10supplicant4V1_012BsSupplicant13addOnewayTaskENSt3__18functionIFvvEEE"
  },
  {
   "name":"_ZN7android8hardware4wifi10supplicant4V1_012BsSupplicantC1ENS_2spINS3_11ISupplicantEEE"
  },
  {
   "name":"_ZN7android8hardware4wifi10supplicant4V1_012BsSupplicantC2ENS_2spINS3_11ISupplicantEEE"
  },
  {
   "name":"_ZN7android8hardware4wifi10supplicant4V1_014BnHwSupplicant10onTransactEjRKNS0_6ParcelEPS5_jNSt3__18functionIFvRS5_EEE"
  },
  {
   "name":"_ZN7android8hardware4wifi10supplicant4V1_014BnHwSupplicant12getDebugInfoENSt3__18functionIFvRKNS_4hidl4base4V1_09DebugInfoEEEE"
  },
  {
   "name":"_ZN7android8hardware4wifi10supplicant4V1_014BnHwSupplicant18_hidl_getInterfaceEPNS_4hidl4base4V1_08BnHwBaseERKNS0_6ParcelEPSA_NSt3__18functionIFvRSA_EEE"
  },
  {
   "name":"_ZN7android8hardware4wifi10supplicant4V1_014BnHwSupplicant19_hidl_getDebugLevelEPNS_4hidl4base4V1_08BnHwBaseERKNS0_6ParcelEPSA_NSt3__18functionIFvRSA_EEE"
  },
  {
   "name":"_ZN7android8hardware4wifi10supplicant4V1_014BnHwSupplicant20_hidl_listInterfacesEPNS_4hidl4base4V1_08BnHwBaseERKNS0_6ParcelEPSA_NSt3__18functionIFvRSA_EEE"
  },
  {
   "name":"_ZN7android8hardware4wifi10supplicant4V1_014BnHwSupplicant20_hidl_setDebugParamsEPNS_4hidl4base4V1_08BnHwBaseERKNS0_6ParcelEPSA_NSt3__18functionIFvRSA_EEE"
  },
  {
   "name":"_ZN7android8hardware4wifi10supplicant4V1_014BnHwSupplicant22_hidl_registerCallbackEPNS_4hidl4base4V1_08BnHwBaseERKNS0_6ParcelEPSA_NSt3__18functionIFvRSA_EEE"
  },
  {
   "name":"_ZN7android8hardware4wifi10supplicant4V1_014BnHwSupplicant28_hidl_isDebugShowKeysEnabledEPNS_4hidl4base4V1_08BnHwBaseERKNS0_6ParcelEPSA_NSt3__18functionIFvRSA_EEE"
  },
  {
   "name":"_ZN7android8hardware4wifi10supplicant4V1_014BnHwSupplicant28_hidl_setConcurrencyPriorityEPNS_4hidl4base4V1_08BnHwBaseERKNS0_6ParcelEPSA_NSt3__18functionIFvRSA_EEE"
  },
  {
   "name":"_ZN7android8hardware4wifi10supplicant4V1_014BnHwSupplicant33_hidl_isDebugShowTimestampEnabledEPNS_4hidl4base4V1_08BnHwBaseERKNS0_6ParcelEPSA_NSt3__18functionIFvRSA_EEE"
  },
  {
   "name":"_ZN7android8hardware4wifi10supplicant4V1_014BnHwSupplicant4pingEv"
  },
  {
   "name":"_ZN7android8hardware4wifi10supplicant4V1_014BnHwSupplicantC1ERKNS_2spINS3_11ISupplicantEEE"
  },
  {
   "name":"_ZN7android8hardware4wifi10supplicant4V1_014BnHwSupplicantC2ERKNS_2spINS3_11ISupplicantEEE"
  },
  {
   "name":"_ZN7android8hardware4wifi10supplicant4V1_014BnHwSupplicantD0Ev"
  },
  {
   "name":"_ZN7android8hardware4wifi10supplicant4V1_014BnHwSupplicantD1Ev"
  },
  {
   "name":"_ZN7android8hardware4wifi10supplicant4V1_014BnHwSupplicantD2Ev"
  },
  {
   "name":"_ZN7android8hardware4wifi10supplicant4V1_014BpHwSupplicant11linkToDeathERKNS_2spINS0_20hidl_death_recipientEEEy"
  },
  {
   "name":"_ZN7android8hardware4wifi10supplicant4V1_014BpHwSupplicant12getDebugInfoENSt3__18functionIFvRKNS_4hidl4base4V1_09DebugInfoEEEE"
  },
  {
   "name":"_ZN7android8hardware4wifi10supplicant4V1_014BpHwSupplicant12getHashChainENSt3__18functionIFvRKNS0_8hidl_vecINS0_10hidl_arrayIhLj32EJEEEEEEEE"
  },
  {
   "name":"_ZN7android8hardware4wifi10supplicant4V1_014BpHwSupplicant12getInterfaceERKNS3_11ISupplicant9IfaceInfoENSt3__18functionIFvRKNS3_16SupplicantStatusERKNS_2spINS3_16ISupplicantIfaceEEEEEE"
  },
  {
   "name":"_ZN7android8hardware4wifi10supplicant4V1_014BpHwSupplicant13getDebugLevelEv"
  },
  {
   "name":"_ZN7android8hardware4wifi10supplicant4V1_014BpHwSupplicant13unlinkToDeathERKNS_2spINS0_20hidl_death_recipientEEE"
  },
  {
   "name":"_ZN7android8hardware4wifi10supplicant4V1_014BpHwSupplicant14interfaceChainENSt3__18functionIFvRKNS0_8hidl_vecINS0_11hidl_stringEEEEEE"
  },
  {
   "name":"_ZN7android8hardware4wifi10supplicant4V1_014BpHwSupplicant14listInterfacesENSt3__18functionIFvRKNS3_16SupplicantStatusERKNS0_8hidl_vecINS3_11ISupplicant9IfaceInfoEEEEEE"
  },
  {
   "name":"_ZN7android8hardware4wifi10supplicant4V1_014BpHwSupplicant14setDebugParamsENS3_11ISupplicant10DebugLevelEbbNSt3__18functionIFvRKNS3_16SupplicantStatusEEEE"
  },
  {
   "name":"_ZN7android8hardware4wifi10supplicant4V1_014BpHwSupplicant16registerCallbackERKNS_2spINS3_19ISupplicantCallbackEEENSt3__18functionIFvRKNS3_16SupplicantStatusEEEE"
  },
  {
   "name":"_ZN7android8hardware4wifi10supplicant4V1_014BpHwSupplicant18_hidl_getInterfaceEPNS0_10IInterfaceEPNS0_7details16HidlInstrumentorERKNS3_11ISupplicant9IfaceInfoENSt3__18functionIFvRKNS3_16SupplicantStatusERKNS_2spINS3_16ISupplicantIfaceEEEEEE"
  },
  {
   "name":"_ZN7android8hardware4wifi10supplicant4V1_014BpHwSupplicant19_hidl_getDebugLevelEPNS0_10IInterfaceEPNS0_7details16HidlInstrumentorE"
  },
  {
   "name":"_ZN7android8hardware4wifi10supplicant4V1_014BpHwSupplicant19interfaceDescriptorENSt3__18functionIFvRKNS0_11hidl_stringEEEE"
  },
  {
   "name":"_ZN7android8hardware4wifi10supplicant4V1_014BpHwSupplicant20_hidl_listInterfacesEPNS0_10IInterfaceEPNS0_7details16HidlInstrumentorENSt3__18functionIFvRKNS3_16SupplicantStatusERKNS0_8hidl_vecINS3_11ISupplicant9IfaceInfoEEEEEE"
  },
  {
   "name":"_ZN7android8hardware4wifi10supplicant4V1_014BpHwSupplicant20_hidl_setDebugParamsEPNS0_10IInterfaceEPNS0_7details16HidlInstrumentorENS3_11ISupplicant10DebugLevelEbbNSt3__18functionIFvRKNS3_16SupplicantStatusEEEE"
  },
  {
   "name":"_ZN7android8hardware4wifi10supplicant4V1_014BpHwSupplicant21notifySyspropsChangedEv"
  },
  {
   "name":"_ZN7android8hardware4wifi10supplicant4V1_014BpHwSupplicant21setHALInstrumentationEv"
  },
  {
   "name":"_ZN7android8hardware4wifi10supplicant4V1_014BpHwSupplicant22_hidl_registerCallbackEPNS0_10IInterfaceEPNS0_7details16HidlInstrumentorERKNS_2spINS3_19ISupplicantCallbackEEENSt3__18functionIFvRKNS3_16SupplicantStatusEEEE"
  },
  {
   "name":"_ZN7android8hardware4wifi10supplicant4V1_014BpHwSupplicant22isDebugShowKeysEnabledEv"
  },
  {
   "name":"_ZN7android8hardware4wifi10supplicant4V1_014BpHwSupplicant22setConcurrencyPriorityENS3_9IfaceTypeENSt3__18functionIFvRKNS3_16SupplicantStatusEEEE"
  },
  {
   "name":"_ZN7android8hardware4wifi10supplicant4V1_014BpHwSupplicant27isDebugShowTimestampEnabledEv"
  },
  {
   "name":"_ZN7android8hardware4wifi10supplicant4V1_014BpHwSupplicant28_hidl_isDebugShowKeysEnabledEPNS0_10IInterfaceEPNS0_7details16HidlInstrumentorE"
  },
  {
   "name":"_ZN7android8hardware4wifi10supplicant4V1_014BpHwSupplicant28_hidl_setConcurrencyPriorityEPNS0_10IInterfaceEPNS0_7details16HidlInstrumentorENS3_9IfaceTypeENSt3__18functionIFvRKNS3_16SupplicantStatusEEEE"
  },
  {
   "name":"_ZN7android8hardware4wifi10supplicant4V1_014BpHwSupplicant33_hidl_isDebugShowTimestampEnabledEPNS0_10IInterfaceEPNS0_7details16HidlInstrumentorE"
  },
  {
   "name":"_ZN7android8hardware4wifi10supplicant4V1_014BpHwSupplicant4pingEv"
  },
  {
   "name":"_ZN7android8hardware4wifi10supplicant4V1_014BpHwSupplicant5debugERKNS0_11hidl_handleERKNS0_8hidl_vecINS0_11hidl_stringEEE"
  },
  {
   "name":"_ZN7android8hardware4wifi10supplicant4V1_014BpHwSupplicantC1ERKNS_2spINS0_7IBinderEEE"
  },
  {
   "name":"_ZN7android8hardware4wifi10supplicant4V1_014BpHwSupplicantC2ERKNS_2spINS0_7IBinderEEE"
  },
  {
   "name":"_ZN7android8hardware4wifi10supplicant4V1_016ISupplicantIface10getServiceERKNSt3__112basic_stringIcNS5_11char_traitsIcEENS5_9allocatorIcEEEEb"
  },
  {
   "name":"_ZN7android8hardware4wifi10supplicant4V1_016ISupplicantIface11linkToDeathERKNS_2spINS0_20hidl_death_recipientEEEy"
  },
  {
   "name":"_ZN7android8hardware4wifi10supplicant4V1_016ISupplicantIface12getDebugInfoENSt3__18functionIFvRKNS_4hidl4base4V1_09DebugInfoEEEE"
  },
  {
   "name":"_ZN7android8hardware4wifi10supplicant4V1_016ISupplicantIface12getHashChainENSt3__18functionIFvRKNS0_8hidl_vecINS0_10hidl_arrayIhLj32EJEEEEEEEE"
  },
  {
   "name":"_ZN7android8hardware4wifi10supplicant4V1_016ISupplicantIface13tryGetServiceERKNSt3__112basic_stringIcNS5_11char_traitsIcEENS5_9allocatorIcEEEEb"
  },
  {
   "name":"_ZN7android8hardware4wifi10supplicant4V1_016ISupplicantIface13unlinkToDeathERKNS_2spINS0_20hidl_death_recipientEEE"
  },
  {
   "name":"_ZN7android8hardware4wifi10supplicant4V1_016ISupplicantIface14interfaceChainENSt3__18functionIFvRKNS0_8hidl_vecINS0_11hidl_stringEEEEEE"
  },
  {
   "name":"_ZN7android8hardware4wifi10supplicant4V1_016ISupplicantIface17registerAsServiceERKNSt3__112basic_stringIcNS5_11char_traitsIcEENS5_9allocatorIcEEEE"
  },
  {
   "name":"_ZN7android8hardware4wifi10supplicant4V1_016ISupplicantIface19interfaceDescriptorENSt3__18functionIFvRKNS0_11hidl_stringEEEE"
  },
  {
   "name":"_ZN7android8hardware4wifi10supplicant4V1_016ISupplicantIface21notifySyspropsChangedEv"
  },
  {
   "name":"_ZN7android8hardware4wifi10supplicant4V1_016ISupplicantIface21setHALInstrumentationEv"
  },
  {
   "name":"_ZN7android8hardware4wifi10supplicant4V1_016ISupplicantIface24registerForNotificationsERKNSt3__112basic_stringIcNS5_11char_traitsIcEENS5_9allocatorIcEEEERKNS_2spINS_4hidl7manager4V1_020IServiceNotificationEEE"
  },
  {
   "name":"_ZN7android8hardware4wifi10supplicant4V1_016ISupplicantIface4pingEv"
  },
  {
   "name":"_ZN7android8hardware4wifi10supplicant4V1_016ISupplicantIface5debugERKNS0_11hidl_handleERKNS0_8hidl_vecINS0_11hidl_stringEEE"
  },
  {
   "name":"_ZN7android8hardware4wifi10supplicant4V1_016ISupplicantIface8castFromERKNS_2spINS_4hidl4base4V1_05IBaseEEEb"
  },
  {
   "name":"_ZN7android8hardware4wifi10supplicant4V1_016ISupplicantIface8castFromERKNS_2spIS4_EEb"
  },
  {
   "name":"_ZN7android8hardware4wifi10supplicant4V1_017BsSupplicantIface13addOnewayTaskENSt3__18functionIFvvEEE"
  },
  {
   "name":"_ZN7android8hardware4wifi10supplicant4V1_017BsSupplicantIfaceC1ENS_2spINS3_16ISupplicantIfaceEEE"
  },
  {
   "name":"_ZN7android8hardware4wifi10supplicant4V1_017BsSupplicantIfaceC2ENS_2spINS3_16ISupplicantIfaceEEE"
  },
  {
   "name":"_ZN7android8hardware4wifi10supplicant4V1_018ISupplicantNetwork10getServiceERKNSt3__112basic_stringIcNS5_11char_traitsIcEENS5_9allocatorIcEEEEb"
  },
  {
   "name":"_ZN7android8hardware4wifi10supplicant4V1_018ISupplicantNetwork11linkToDeathERKNS_2spINS0_20hidl_death_recipientEEEy"
  },
  {
   "name":"_ZN7android8hardware4wifi10supplicant4V1_018ISupplicantNetwork12getDebugInfoENSt3__18functionIFvRKNS_4hidl4base4V1_09DebugInfoEEEE"
  },
  {
   "name":"_ZN7android8hardware4wifi10supplicant4V1_018ISupplicantNetwork12getHashChainENSt3__18functionIFvRKNS0_8hidl_vecINS0_10hidl_arrayIhLj32EJEEEEEEEE"
  },
  {
   "name":"_ZN7android8hardware4wifi10supplicant4V1_018ISupplicantNetwork13tryGetServiceERKNSt3__112basic_stringIcNS5_11char_traitsIcEENS5_9allocatorIcEEEEb"
  },
  {
   "name":"_ZN7android8hardware4wifi10supplicant4V1_018ISupplicantNetwork13unlinkToDeathERKNS_2spINS0_20hidl_death_recipientEEE"
  },
  {
   "name":"_ZN7android8hardware4wifi10supplicant4V1_018ISupplicantNetwork14interfaceChainENSt3__18functionIFvRKNS0_8hidl_vecINS0_11hidl_stringEEEEEE"
  },
  {
   "name":"_ZN7android8hardware4wifi10supplicant4V1_018ISupplicantNetwork17registerAsServiceERKNSt3__112basic_stringIcNS5_11char_traitsIcEENS5_9allocatorIcEEEE"
  },
  {
   "name":"_ZN7android8hardware4wifi10supplicant4V1_018ISupplicantNetwork19interfaceDescriptorENSt3__18functionIFvRKNS0_11hidl_stringEEEE"
  },
  {
   "name":"_ZN7android8hardware4wifi10supplicant4V1_018ISupplicantNetwork21notifySyspropsChangedEv"
  },
  {
   "name":"_ZN7android8hardware4wifi10supplicant4V1_018ISupplicantNetwork21setHALInstrumentationEv"
  },
  {
   "name":"_ZN7android8hardware4wifi10supplicant4V1_018ISupplicantNetwork24registerForNotificationsERKNSt3__112basic_stringIcNS5_11char_traitsIcEENS5_9allocatorIcEEEERKNS_2spINS_4hidl7manager4V1_020IServiceNotificationEEE"
  },
  {
   "name":"_ZN7android8hardware4wifi10supplicant4V1_018ISupplicantNetwork4pingEv"
  },
  {
   "name":"_ZN7android8hardware4wifi10supplicant4V1_018ISupplicantNetwork5debugERKNS0_11hidl_handleERKNS0_8hidl_vecINS0_11hidl_stringEEE"
  },
  {
   "name":"_ZN7android8hardware4wifi10supplicant4V1_018ISupplicantNetwork8castFromERKNS_2spINS_4hidl4base4V1_05IBaseEEEb"
  },
  {
   "name":"_ZN7android8hardware4wifi10supplicant4V1_018ISupplicantNetwork8castFromERKNS_2spIS4_EEb"
  },
  {
   "name":"_ZN7android8hardware4wifi10supplicant4V1_019BnHwSupplicantIface10onTransactEjRKNS0_6ParcelEPS5_jNSt3__18functionIFvRS5_EEE"
  },
  {
   "name":"_ZN7android8hardware4wifi10supplicant4V1_019BnHwSupplicantIface12getDebugInfoENSt3__18functionIFvRKNS_4hidl4base4V1_09DebugInfoEEEE"
  },
  {
   "name":"_ZN7android8hardware4wifi10supplicant4V1_019BnHwSupplicantIface13_hidl_getNameEPNS_4hidl4base4V1_08BnHwBaseERKNS0_6ParcelEPSA_NSt3__18functionIFvRSA_EEE"
  },
  {
   "name":"_ZN7android8hardware4wifi10supplicant4V1_019BnHwSupplicantIface13_hidl_getTypeEPNS_4hidl4base4V1_08BnHwBaseERKNS0_6ParcelEPSA_NSt3__18functionIFvRSA_EEE"
  },
  {
   "name":"_ZN7android8hardware4wifi10supplicant4V1_019BnHwSupplicantIface16_hidl_addNetworkEPNS_4hidl4base4V1_08BnHwBaseERKNS0_6ParcelEPSA_NSt3__18functionIFvRSA_EEE"
  },
  {
   "name":"_ZN7android8hardware4wifi10supplicant4V1_019BnHwSupplicantIface16_hidl_getNetworkEPNS_4hidl4base4V1_08BnHwBaseERKNS0_6ParcelEPSA_NSt3__18functionIFvRSA_EEE"
  },
  {
   "name":"_ZN7android8hardware4wifi10supplicant4V1_019BnHwSupplicantIface18_hidl_listNetworksEPNS_4hidl4base4V1_08BnHwBaseERKNS0_6ParcelEPSA_NSt3__18functionIFvRSA_EEE"
  },
  {
   "name":"_ZN7android8hardware4wifi10supplicant4V1_019BnHwSupplicantIface19_hidl_removeNetworkEPNS_4hidl4base4V1_08BnHwBaseERKNS0_6ParcelEPSA_NSt3__18functionIFvRSA_EEE"
  },
  {
   "name":"_ZN7android8hardware4wifi10supplicant4V1_019BnHwSupplicantIface21_hidl_setWpsModelNameEPNS_4hidl4base4V1_08BnHwBaseERKNS0_6ParcelEPSA_NSt3__18functionIFvRSA_EEE"
  },
  {
   "name":"_ZN7android8hardware4wifi10supplicant4V1_019BnHwSupplicantIface22_hidl_setWpsDeviceNameEPNS_4hidl4base4V1_08BnHwBaseERKNS0_6ParcelEPSA_NSt3__18functionIFvRSA_EEE"
  },
  {
   "name":"_ZN7android8hardware4wifi10supplicant4V1_019BnHwSupplicantIface22_hidl_setWpsDeviceTypeEPNS_4hidl4base4V1_08BnHwBaseERKNS0_6ParcelEPSA_NSt3__18functionIFvRSA_EEE"
  },
  {
   "name":"_ZN7android8hardware4wifi10supplicant4V1_019BnHwSupplicantIface23_hidl_setWpsModelNumberEPNS_4hidl4base4V1_08BnHwBaseERKNS0_6ParcelEPSA_NSt3__18functionIFvRSA_EEE"
  },
  {
   "name":"_ZN7android8hardware4wifi10supplicant4V1_019BnHwSupplicantIface24_hidl_setWpsManufacturerEPNS_4hidl4base4V1_08BnHwBaseERKNS0_6ParcelEPSA_NSt3__18functionIFvRSA_EEE"
  },
  {
   "name":"_ZN7android8hardware4wifi10supplicant4V1_019BnHwSupplicantIface24_hidl_setWpsSerialNumberEPNS_4hidl4base4V1_08BnHwBaseERKNS0_6ParcelEPSA_NSt3__18functionIFvRSA_EEE"
  },
  {
   "name":"_ZN7android8hardware4wifi10supplicant4V1_019BnHwSupplicantIface25_hidl_setWpsConfigMethodsEPNS_4hidl4base4V1_08BnHwBaseERKNS0_6ParcelEPSA_NSt3__18functionIFvRSA_EEE"
  },
  {
   "name":"_ZN7android8hardware4wifi10supplicant4V1_019BnHwSupplicantIface4pingEv"
  },
  {
   "name":"_ZN7android8hardware4wifi10supplicant4V1_019BnHwSupplicantIfaceC1ERKNS_2spINS3_16ISupplicantIfaceEEE"
  },
  {
   "name":"_ZN7android8hardware4wifi10supplicant4V1_019BnHwSupplicantIfaceC2ERKNS_2spINS3_16ISupplicantIfaceEEE"
  },
  {
   "name":"_ZN7android8hardware4wifi10supplicant4V1_019BnHwSupplicantIfaceD0Ev"
  },
  {
   "name":"_ZN7android8hardware4wifi10supplicant4V1_019BnHwSupplicantIfaceD1Ev"
  },
  {
   "name":"_ZN7android8hardware4wifi10supplicant4V1_019BnHwSupplicantIfaceD2Ev"
  },
  {
   "name":"_ZN7android8hardware4wifi10supplicant4V1_019BpHwSupplicantIface10addNetworkENSt3__18functionIFvRKNS3_16SupplicantStatusERKNS_2spINS3_18ISupplicantNetworkEEEEEE"
  },
  {
   "name":"_ZN7android8hardware4wifi10supplicant4V1_019BpHwSupplicantIface10getNetworkEjNSt3__18functionIFvRKNS3_16SupplicantStatusERKNS_2spINS3_18ISupplicantNetworkEEEEEE"
  },
  {
   "name":"_ZN7android8hardware4wifi10supplicant4V1_019BpHwSupplicantIface11linkToDeathERKNS_2spINS0_20hidl_death_recipientEEEy"
  },
  {
   "name":"_ZN7android8hardware4wifi10supplicant4V1_019BpHwSupplicantIface12getDebugInfoENSt3__18functionIFvRKNS_4hidl4base4V1_09DebugInfoEEEE"
  },
  {
   "name":"_ZN7android8hardware4wifi10supplicant4V1_019BpHwSupplicantIface12getHashChainENSt3__18functionIFvRKNS0_8hidl_vecINS0_10hidl_arrayIhLj32EJEEEEEEEE"
  },
  {
   "name":"_ZN7android8hardware4wifi10supplicant4V1_019BpHwSupplicantIface12listNetworksENSt3__18functionIFvRKNS3_16SupplicantStatusERKNS0_8hidl_vecIjEEEEE"
  },
  {
   "name":"_ZN7android8hardware4wifi10supplicant4V1_019BpHwSupplicantIface13_hidl_getNameEPNS0_10IInterfaceEPNS0_7details16HidlInstrumentorENSt3__18functionIFvRKNS3_16SupplicantStatusERKNS0_11hidl_stringEEEE"
  },
  {
   "name":"_ZN7android8hardware4wifi10supplicant4V1_019BpHwSupplicantIface13_hidl_getTypeEPNS0_10IInterfaceEPNS0_7details16HidlInstrumentorENSt3__18functionIFvRKNS3_16SupplicantStatusENS3_9IfaceTypeEEEE"
  },
  {
   "name":"_ZN7android8hardware4wifi10supplicant4V1_019BpHwSupplicantIface13removeNetworkEjNSt3__18functionIFvRKNS3_16SupplicantStatusEEEE"
  },
  {
   "name":"_ZN7android8hardware4wifi10supplicant4V1_019BpHwSupplicantIface13unlinkToDeathERKNS_2spINS0_20hidl_death_recipientEEE"
  },
  {
   "name":"_ZN7android8hardware4wifi10supplicant4V1_019BpHwSupplicantIface14interfaceChainENSt3__18functionIFvRKNS0_8hidl_vecINS0_11hidl_stringEEEEEE"
  },
  {
   "name":"_ZN7android8hardware4wifi10supplicant4V1_019BpHwSupplicantIface15setWpsModelNameERKNS0_11hidl_stringENSt3__18functionIFvRKNS3_16SupplicantStatusEEEE"
  },
  {
   "name":"_ZN7android8hardware4wifi10supplicant4V1_019BpHwSupplicantIface16_hidl_addNetworkEPNS0_10IInterfaceEPNS0_7details16HidlInstrumentorENSt3__18functionIFvRKNS3_16SupplicantStatusERKNS_2spINS3_18ISupplicantNetworkEEEEEE"
  },
  {
   "name":"_ZN7android8hardware4wifi10supplicant4V1_019BpHwSupplicantIface16_hidl_getNetworkEPNS0_10IInterfaceEPNS0_7details16HidlInstrumentorEjNSt3__18functionIFvRKNS3_16SupplicantStatusERKNS_2spINS3_18ISupplicantNetworkEEEEEE"
  },
  {
   "name":"_ZN7android8hardware4wifi10supplicant4V1_019BpHwSupplicantIface16setWpsDeviceNameERKNS0_11hidl_stringENSt3__18functionIFvRKNS3_16SupplicantStatusEEEE"
  },
  {
   "name":"_ZN7android8hardware4wifi10supplicant4V1_019BpHwSupplicantIface16setWpsDeviceTypeERKNS0_10hidl_arrayIhLj8EJEEENSt3__18functionIFvRKNS3_16SupplicantStatusEEEE"
  },
  {
   "name":"_ZN7android8hardware4wifi10supplicant4V1_019BpHwSupplicantIface17setWpsModelNumberERKNS0_11hidl_stringENSt3__18functionIFvRKNS3_16SupplicantStatusEEEE"
  },
  {
   "name":"_ZN7android8hardware4wifi10supplicant4V1_019BpHwSupplicantIface18_hidl_listNetworksEPNS0_10IInterfaceEPNS0_7details16HidlInstrumentorENSt3__18functionIFvRKNS3_16SupplicantStatusERKNS0_8hidl_vecIjEEEEE"
  },
  {
   "name":"_ZN7android8hardware4wifi10supplicant4V1_019BpHwSupplicantIface18setWpsManufacturerERKNS0_11hidl_stringENSt3__18functionIFvRKNS3_16SupplicantStatusEEEE"
  },
  {
   "name":"_ZN7android8hardware4wifi10supplicant4V1_019BpHwSupplicantIface18setWpsSerialNumberERKNS0_11hidl_stringENSt3__18functionIFvRKNS3_16SupplicantStatusEEEE"
  },
  {
   "name":"_ZN7android8hardware4wifi10supplicant4V1_019BpHwSupplicantIface19_hidl_removeNetworkEPNS0_10IInterfaceEPNS0_7details16HidlInstrumentorEjNSt3__18functionIFvRKNS3_16SupplicantStatusEEEE"
  },
  {
   "name":"_ZN7android8hardware4wifi10supplicant4V1_019BpHwSupplicantIface19interfaceDescriptorENSt3__18functionIFvRKNS0_11hidl_stringEEEE"
  },
  {
   "name":"_ZN7android8hardware4wifi10supplicant4V1_019BpHwSupplicantIface19setWpsConfigMethodsEtNSt3__18functionIFvRKNS3_16SupplicantStatusEEEE"
  },
  {
   "name":"_ZN7android8hardware4wifi10supplicant4V1_019BpHwSupplicantIface21_hidl_setWpsModelNameEPNS0_10IInterfaceEPNS0_7details16HidlInstrumentorERKNS0_11hidl_stringENSt3__18functionIFvRKNS3_16SupplicantStatusEEEE"
  },
  {
   "name":"_ZN7android8hardware4wifi10supplicant4V1_019BpHwSupplicantIface21notifySyspropsChangedEv"
  },
  {
   "name":"_ZN7android8hardware4wifi10supplicant4V1_019BpHwSupplicantIface21setHALInstrumentationEv"
  },
  {
   "name":"_ZN7android8hardware4wifi10supplicant4V1_019BpHwSupplicantIface22_hidl_setWpsDeviceNameEPNS0_10IInterfaceEPNS0_7details16HidlInstrumentorERKNS0_11hidl_stringENSt3__18functionIFvRKNS3_16SupplicantStatusEEEE"
  },
  {
   "name":"_ZN7android8hardware4wifi10supplicant4V1_019BpHwSupplicantIface22_hidl_setWpsDeviceTypeEPNS0_10IInterfaceEPNS0_7details16HidlInstrumentorERKNS0_10hidl_arrayIhLj8EJEEENSt3__18functionIFvRKNS3_16SupplicantStatusEEEE"
  },
  {
   "name":"_ZN7android8hardware4wifi10supplicant4V1_019BpHwSupplicantIface23_hidl_setWpsModelNumberEPNS0_10IInterfaceEPNS0_7details16HidlInstrumentorERKNS0_11hidl_stringENSt3__18functionIFvRKNS3_16SupplicantStatusEEEE"
  },
  {
   "name":"_ZN7android8hardware4wifi10supplicant4V1_019BpHwSupplicantIface24_hidl_setWpsManufacturerEPNS0_10IInterfaceEPNS0_7details16HidlInstrumentorERKNS0_11hidl_stringENSt3__18functionIFvRKNS3_16SupplicantStatusEEEE"
  },
  {
   "name":"_ZN7android8hardware4wifi10supplicant4V1_019BpHwSupplicantIface24_hidl_setWpsSerialNumberEPNS0_10IInterfaceEPNS0_7details16HidlInstrumentorERKNS0_11hidl_stringENSt3__18functionIFvRKNS3_16SupplicantStatusEEEE"
  },
  {
   "name":"_ZN7android8hardware4wifi10supplicant4V1_019BpHwSupplicantIface25_hidl_setWpsConfigMethodsEPNS0_10IInterfaceEPNS0_7details16HidlInstrumentorEtNSt3__18functionIFvRKNS3_16SupplicantStatusEEEE"
  },
  {
   "name":"_ZN7android8hardware4wifi10supplicant4V1_019BpHwSupplicantIface4pingEv"
  },
  {
   "name":"_ZN7android8hardware4wifi10supplicant4V1_019BpHwSupplicantIface5debugERKNS0_11hidl_handleERKNS0_8hidl_vecINS0_11hidl_stringEEE"
  },
  {
   "name":"_ZN7android8hardware4wifi10supplicant4V1_019BpHwSupplicantIface7getNameENSt3__18functionIFvRKNS3_16SupplicantStatusERKNS0_11hidl_stringEEEE"
  },
  {
   "name":"_ZN7android8hardware4wifi10supplicant4V1_019BpHwSupplicantIface7getTypeENSt3__18functionIFvRKNS3_16SupplicantStatusENS3_9IfaceTypeEEEE"
  },
  {
   "name":"_ZN7android8hardware4wifi10supplicant4V1_019BpHwSupplicantIfaceC1ERKNS_2spINS0_7IBinderEEE"
  },
  {
   "name":"_ZN7android8hardware4wifi10supplicant4V1_019BpHwSupplicantIfaceC2ERKNS_2spINS0_7IBinderEEE"
  },
  {
   "name":"_ZN7android8hardware4wifi10supplicant4V1_019BsSupplicantNetwork13addOnewayTaskENSt3__18functionIFvvEEE"
  },
  {
   "name":"_ZN7android8hardware4wifi10supplicant4V1_019BsSupplicantNetworkC1ENS_2spINS3_18ISupplicantNetworkEEE"
  },
  {
   "name":"_ZN7android8hardware4wifi10supplicant4V1_019BsSupplicantNetworkC2ENS_2spINS3_18ISupplicantNetworkEEE"
  },
  {
   "name":"_ZN7android8hardware4wifi10supplicant4V1_019ISupplicantCallback10getServiceERKNSt3__112basic_stringIcNS5_11char_traitsIcEENS5_9allocatorIcEEEEb"
  },
  {
   "name":"_ZN7android8hardware4wifi10supplicant4V1_019ISupplicantCallback11linkToDeathERKNS_2spINS0_20hidl_death_recipientEEEy"
  },
  {
   "name":"_ZN7android8hardware4wifi10supplicant4V1_019ISupplicantCallback12getDebugInfoENSt3__18functionIFvRKNS_4hidl4base4V1_09DebugInfoEEEE"
  },
  {
   "name":"_ZN7android8hardware4wifi10supplicant4V1_019ISupplicantCallback12getHashChainENSt3__18functionIFvRKNS0_8hidl_vecINS0_10hidl_arrayIhLj32EJEEEEEEEE"
  },
  {
   "name":"_ZN7android8hardware4wifi10supplicant4V1_019ISupplicantCallback13tryGetServiceERKNSt3__112basic_stringIcNS5_11char_traitsIcEENS5_9allocatorIcEEEEb"
  },
  {
   "name":"_ZN7android8hardware4wifi10supplicant4V1_019ISupplicantCallback13unlinkToDeathERKNS_2spINS0_20hidl_death_recipientEEE"
  },
  {
   "name":"_ZN7android8hardware4wifi10supplicant4V1_019ISupplicantCallback14interfaceChainENSt3__18functionIFvRKNS0_8hidl_vecINS0_11hidl_stringEEEEEE"
  },
  {
   "name":"_ZN7android8hardware4wifi10supplicant4V1_019ISupplicantCallback17registerAsServiceERKNSt3__112basic_stringIcNS5_11char_traitsIcEENS5_9allocatorIcEEEE"
  },
  {
   "name":"_ZN7android8hardware4wifi10supplicant4V1_019ISupplicantCallback19interfaceDescriptorENSt3__18functionIFvRKNS0_11hidl_stringEEEE"
  },
  {
   "name":"_ZN7android8hardware4wifi10supplicant4V1_019ISupplicantCallback21notifySyspropsChangedEv"
  },
  {
   "name":"_ZN7android8hardware4wifi10supplicant4V1_019ISupplicantCallback21setHALInstrumentationEv"
  },
  {
   "name":"_ZN7android8hardware4wifi10supplicant4V1_019ISupplicantCallback24registerForNotificationsERKNSt3__112basic_stringIcNS5_11char_traitsIcEENS5_9allocatorIcEEEERKNS_2spINS_4hidl7manager4V1_020IServiceNotificationEEE"
  },
  {
   "name":"_ZN7android8hardware4wifi10supplicant4V1_019ISupplicantCallback4pingEv"
  },
  {
   "name":"_ZN7android8hardware4wifi10supplicant4V1_019ISupplicantCallback5debugERKNS0_11hidl_handleERKNS0_8hidl_vecINS0_11hidl_stringEEE"
  },
  {
   "name":"_ZN7android8hardware4wifi10supplicant4V1_019ISupplicantCallback8castFromERKNS_2spINS_4hidl4base4V1_05IBaseEEEb"
  },
  {
   "name":"_ZN7android8hardware4wifi10supplicant4V1_019ISupplicantCallback8castFromERKNS_2spIS4_EEb"
  },
  {
   "name":"_ZN7android8hardware4wifi10supplicant4V1_019ISupplicantP2pIface10getServiceERKNSt3__112basic_stringIcNS5_11char_traitsIcEENS5_9allocatorIcEEEEb"
  },
  {
   "name":"_ZN7android8hardware4wifi10supplicant4V1_019ISupplicantP2pIface11linkToDeathERKNS_2spINS0_20hidl_death_recipientEEEy"
  },
  {
   "name":"_ZN7android8hardware4wifi10supplicant4V1_019ISupplicantP2pIface12getDebugInfoENSt3__18functionIFvRKNS_4hidl4base4V1_09DebugInfoEEEE"
  },
  {
   "name":"_ZN7android8hardware4wifi10supplicant4V1_019ISupplicantP2pIface12getHashChainENSt3__18functionIFvRKNS0_8hidl_vecINS0_10hidl_arrayIhLj32EJEEEEEEEE"
  },
  {
   "name":"_ZN7android8hardware4wifi10supplicant4V1_019ISupplicantP2pIface13tryGetServiceERKNSt3__112basic_stringIcNS5_11char_traitsIcEENS5_9allocatorIcEEEEb"
  },
  {
   "name":"_ZN7android8hardware4wifi10supplicant4V1_019ISupplicantP2pIface13unlinkToDeathERKNS_2spINS0_20hidl_death_recipientEEE"
  },
  {
   "name":"_ZN7android8hardware4wifi10supplicant4V1_019ISupplicantP2pIface14interfaceChainENSt3__18functionIFvRKNS0_8hidl_vecINS0_11hidl_stringEEEEEE"
  },
  {
   "name":"_ZN7android8hardware4wifi10supplicant4V1_019ISupplicantP2pIface17registerAsServiceERKNSt3__112basic_stringIcNS5_11char_traitsIcEENS5_9allocatorIcEEEE"
  },
  {
   "name":"_ZN7android8hardware4wifi10supplicant4V1_019ISupplicantP2pIface19interfaceDescriptorENSt3__18functionIFvRKNS0_11hidl_stringEEEE"
  },
  {
   "name":"_ZN7android8hardware4wifi10supplicant4V1_019ISupplicantP2pIface21notifySyspropsChangedEv"
  },
  {
   "name":"_ZN7android8hardware4wifi10supplicant4V1_019ISupplicantP2pIface21setHALInstrumentationEv"
  },
  {
   "name":"_ZN7android8hardware4wifi10supplicant4V1_019ISupplicantP2pIface24registerForNotificationsERKNSt3__112basic_stringIcNS5_11char_traitsIcEENS5_9allocatorIcEEEERKNS_2spINS_4hidl7manager4V1_020IServiceNotificationEEE"
  },
  {
   "name":"_ZN7android8hardware4wifi10supplicant4V1_019ISupplicantP2pIface4pingEv"
  },
  {
   "name":"_ZN7android8hardware4wifi10supplicant4V1_019ISupplicantP2pIface5debugERKNS0_11hidl_handleERKNS0_8hidl_vecINS0_11hidl_stringEEE"
  },
  {
   "name":"_ZN7android8hardware4wifi10supplicant4V1_019ISupplicantP2pIface8castFromERKNS_2spINS3_16ISupplicantIfaceEEEb"
  },
  {
   "name":"_ZN7android8hardware4wifi10supplicant4V1_019ISupplicantP2pIface8castFromERKNS_2spINS_4hidl4base4V1_05IBaseEEEb"
  },
  {
   "name":"_ZN7android8hardware4wifi10supplicant4V1_019ISupplicantP2pIface8castFromERKNS_2spIS4_EEb"
  },
  {
   "name":"_ZN7android8hardware4wifi10supplicant4V1_019ISupplicantStaIface10getServiceERKNSt3__112basic_stringIcNS5_11char_traitsIcEENS5_9allocatorIcEEEEb"
  },
  {
   "name":"_ZN7android8hardware4wifi10supplicant4V1_019ISupplicantStaIface11linkToDeathERKNS_2spINS0_20hidl_death_recipientEEEy"
  },
  {
   "name":"_ZN7android8hardware4wifi10supplicant4V1_019ISupplicantStaIface12getDebugInfoENSt3__18functionIFvRKNS_4hidl4base4V1_09DebugInfoEEEE"
  },
  {
   "name":"_ZN7android8hardware4wifi10supplicant4V1_019ISupplicantStaIface12getHashChainENSt3__18functionIFvRKNS0_8hidl_vecINS0_10hidl_arrayIhLj32EJEEEEEEEE"
  },
  {
   "name":"_ZN7android8hardware4wifi10supplicant4V1_019ISupplicantStaIface13tryGetServiceERKNSt3__112basic_stringIcNS5_11char_traitsIcEENS5_9allocatorIcEEEEb"
  },
  {
   "name":"_ZN7android8hardware4wifi10supplicant4V1_019ISupplicantStaIface13unlinkToDeathERKNS_2spINS0_20hidl_death_recipientEEE"
  },
  {
   "name":"_ZN7android8hardware4wifi10supplicant4V1_019ISupplicantStaIface14interfaceChainENSt3__18functionIFvRKNS0_8hidl_vecINS0_11hidl_stringEEEEEE"
  },
  {
   "name":"_ZN7android8hardware4wifi10supplicant4V1_019ISupplicantStaIface17registerAsServiceERKNSt3__112basic_stringIcNS5_11char_traitsIcEENS5_9allocatorIcEEEE"
  },
  {
   "name":"_ZN7android8hardware4wifi10supplicant4V1_019ISupplicantStaIface19interfaceDescriptorENSt3__18functionIFvRKNS0_11hidl_stringEEEE"
  },
  {
   "name":"_ZN7android8hardware4wifi10supplicant4V1_019ISupplicantStaIface21notifySyspropsChangedEv"
  },
  {
   "name":"_ZN7android8hardware4wifi10supplicant4V1_019ISupplicantStaIface21setHALInstrumentationEv"
  },
  {
   "name":"_ZN7android8hardware4wifi10supplicant4V1_019ISupplicantStaIface24registerForNotificationsERKNSt3__112basic_stringIcNS5_11char_traitsIcEENS5_9allocatorIcEEEERKNS_2spINS_4hidl7manager4V1_020IServiceNotificationEEE"
  },
  {
   "name":"_ZN7android8hardware4wifi10supplicant4V1_019ISupplicantStaIface4pingEv"
  },
  {
   "name":"_ZN7android8hardware4wifi10supplicant4V1_019ISupplicantStaIface5debugERKNS0_11hidl_handleERKNS0_8hidl_vecINS0_11hidl_stringEEE"
  },
  {
   "name":"_ZN7android8hardware4wifi10supplicant4V1_019ISupplicantStaIface8castFromERKNS_2spINS3_16ISupplicantIfaceEEEb"
  },
  {
   "name":"_ZN7android8hardware4wifi10supplicant4V1_019ISupplicantStaIface8castFromERKNS_2spINS_4hidl4base4V1_05IBaseEEEb"
  },
  {
   "name":"_ZN7android8hardware4wifi10supplicant4V1_019ISupplicantStaIface8castFromERKNS_2spIS4_EEb"
  },
  {
   "name":"_ZN7android8hardware4wifi10supplicant4V1_020BsSupplicantCallback13addOnewayTaskENSt3__18functionIFvvEEE"
  },
  {
   "name":"_ZN7android8hardware4wifi10supplicant4V1_020BsSupplicantCallbackC1ENS_2spINS3_19ISupplicantCallbackEEE"
  },
  {
   "name":"_ZN7android8hardware4wifi10supplicant4V1_020BsSupplicantCallbackC2ENS_2spINS3_19ISupplicantCallbackEEE"
  },
  {
   "name":"_ZN7android8hardware4wifi10supplicant4V1_020BsSupplicantP2pIface13addOnewayTaskENSt3__18functionIFvvEEE"
  },
  {
   "name":"_ZN7android8hardware4wifi10supplicant4V1_020BsSupplicantP2pIfaceC1ENS_2spINS3_19ISupplicantP2pIfaceEEE"
  },
  {
   "name":"_ZN7android8hardware4wifi10supplicant4V1_020BsSupplicantP2pIfaceC2ENS_2spINS3_19ISupplicantP2pIfaceEEE"
  },
  {
   "name":"_ZN7android8hardware4wifi10supplicant4V1_020BsSupplicantStaIface13addOnewayTaskENSt3__18functionIFvvEEE"
  },
  {
   "name":"_ZN7android8hardware4wifi10supplicant4V1_020BsSupplicantStaIfaceC1ENS_2spINS3_19ISupplicantStaIfaceEEE"
  },
  {
   "name":"_ZN7android8hardware4wifi10supplicant4V1_020BsSupplicantStaIfaceC2ENS_2spINS3_19ISupplicantStaIfaceEEE"
  },
  {
   "name":"_ZN7android8hardware4wifi10supplicant4V1_021BnHwSupplicantNetwork10onTransactEjRKNS0_6ParcelEPS5_jNSt3__18functionIFvRS5_EEE"
  },
  {
   "name":"_ZN7android8hardware4wifi10supplicant4V1_021BnHwSupplicantNetwork11_hidl_getIdEPNS_4hidl4base4V1_08BnHwBaseERKNS0_6ParcelEPSA_NSt3__18functionIFvRSA_EEE"
  },
  {
   "name":"_ZN7android8hardware4wifi10supplicant4V1_021BnHwSupplicantNetwork12getDebugInfoENSt3__18functionIFvRKNS_4hidl4base4V1_09DebugInfoEEEE"
  },
  {
   "name":"_ZN7android8hardware4wifi10supplicant4V1_021BnHwSupplicantNetwork13_hidl_getTypeEPNS_4hidl4base4V1_08BnHwBaseERKNS0_6ParcelEPSA_NSt3__18functionIFvRSA_EEE"
  },
  {
   "name":"_ZN7android8hardware4wifi10supplicant4V1_021BnHwSupplicantNetwork22_hidl_getInterfaceNameEPNS_4hidl4base4V1_08BnHwBaseERKNS0_6ParcelEPSA_NSt3__18functionIFvRSA_EEE"
  },
  {
   "name":"_ZN7android8hardware4wifi10supplicant4V1_021BnHwSupplicantNetwork4pingEv"
  },
  {
   "name":"_ZN7android8hardware4wifi10supplicant4V1_021BnHwSupplicantNetworkC1ERKNS_2spINS3_18ISupplicantNetworkEEE"
  },
  {
   "name":"_ZN7android8hardware4wifi10supplicant4V1_021BnHwSupplicantNetworkC2ERKNS_2spINS3_18ISupplicantNetworkEEE"
  },
  {
   "name":"_ZN7android8hardware4wifi10supplicant4V1_021BnHwSupplicantNetworkD0Ev"
  },
  {
   "name":"_ZN7android8hardware4wifi10supplicant4V1_021BnHwSupplicantNetworkD1Ev"
  },
  {
   "name":"_ZN7android8hardware4wifi10supplicant4V1_021BnHwSupplicantNetworkD2Ev"
  },
  {
   "name":"_ZN7android8hardware4wifi10supplicant4V1_021BpHwSupplicantNetwork11_hidl_getIdEPNS0_10IInterfaceEPNS0_7details16HidlInstrumentorENSt3__18functionIFvRKNS3_16SupplicantStatusEjEEE"
  },
  {
   "name":"_ZN7android8hardware4wifi10supplicant4V1_021BpHwSupplicantNetwork11linkToDeathERKNS_2spINS0_20hidl_death_recipientEEEy"
  },
  {
   "name":"_ZN7android8hardware4wifi10supplicant4V1_021BpHwSupplicantNetwork12getDebugInfoENSt3__18functionIFvRKNS_4hidl4base4V1_09DebugInfoEEEE"
  },
  {
   "name":"_ZN7android8hardware4wifi10supplicant4V1_021BpHwSupplicantNetwork12getHashChainENSt3__18functionIFvRKNS0_8hidl_vecINS0_10hidl_arrayIhLj32EJEEEEEEEE"
  },
  {
   "name":"_ZN7android8hardware4wifi10supplicant4V1_021BpHwSupplicantNetwork13_hidl_getTypeEPNS0_10IInterfaceEPNS0_7details16HidlInstrumentorENSt3__18functionIFvRKNS3_16SupplicantStatusENS3_9IfaceTypeEEEE"
  },
  {
   "name":"_ZN7android8hardware4wifi10supplicant4V1_021BpHwSupplicantNetwork13unlinkToDeathERKNS_2spINS0_20hidl_death_recipientEEE"
  },
  {
   "name":"_ZN7android8hardware4wifi10supplicant4V1_021BpHwSupplicantNetwork14interfaceChainENSt3__18functionIFvRKNS0_8hidl_vecINS0_11hidl_stringEEEEEE"
  },
  {
   "name":"_ZN7android8hardware4wifi10supplicant4V1_021BpHwSupplicantNetwork16getInterfaceNameENSt3__18functionIFvRKNS3_16SupplicantStatusERKNS0_11hidl_stringEEEE"
  },
  {
   "name":"_ZN7android8hardware4wifi10supplicant4V1_021BpHwSupplicantNetwork19interfaceDescriptorENSt3__18functionIFvRKNS0_11hidl_stringEEEE"
  },
  {
   "name":"_ZN7android8hardware4wifi10supplicant4V1_021BpHwSupplicantNetwork21notifySyspropsChangedEv"
  },
  {
   "name":"_ZN7android8hardware4wifi10supplicant4V1_021BpHwSupplicantNetwork21setHALInstrumentationEv"
  },
  {
   "name":"_ZN7android8hardware4wifi10supplicant4V1_021BpHwSupplicantNetwork22_hidl_getInterfaceNameEPNS0_10IInterfaceEPNS0_7details16HidlInstrumentorENSt3__18functionIFvRKNS3_16SupplicantStatusERKNS0_11hidl_stringEEEE"
  },
  {
   "name":"_ZN7android8hardware4wifi10supplicant4V1_021BpHwSupplicantNetwork4pingEv"
  },
  {
   "name":"_ZN7android8hardware4wifi10supplicant4V1_021BpHwSupplicantNetwork5debugERKNS0_11hidl_handleERKNS0_8hidl_vecINS0_11hidl_stringEEE"
  },
  {
   "name":"_ZN7android8hardware4wifi10supplicant4V1_021BpHwSupplicantNetwork5getIdENSt3__18functionIFvRKNS3_16SupplicantStatusEjEEE"
  },
  {
   "name":"_ZN7android8hardware4wifi10supplicant4V1_021BpHwSupplicantNetwork7getTypeENSt3__18functionIFvRKNS3_16SupplicantStatusENS3_9IfaceTypeEEEE"
  },
  {
   "name":"_ZN7android8hardware4wifi10supplicant4V1_021BpHwSupplicantNetworkC1ERKNS_2spINS0_7IBinderEEE"
  },
  {
   "name":"_ZN7android8hardware4wifi10supplicant4V1_021BpHwSupplicantNetworkC2ERKNS_2spINS0_7IBinderEEE"
  },
  {
   "name":"_ZN7android8hardware4wifi10supplicant4V1_021ISupplicantP2pNetwork10getServiceERKNSt3__112basic_stringIcNS5_11char_traitsIcEENS5_9allocatorIcEEEEb"
  },
  {
   "name":"_ZN7android8hardware4wifi10supplicant4V1_021ISupplicantP2pNetwork11linkToDeathERKNS_2spINS0_20hidl_death_recipientEEEy"
  },
  {
   "name":"_ZN7android8hardware4wifi10supplicant4V1_021ISupplicantP2pNetwork12getDebugInfoENSt3__18functionIFvRKNS_4hidl4base4V1_09DebugInfoEEEE"
  },
  {
   "name":"_ZN7android8hardware4wifi10supplicant4V1_021ISupplicantP2pNetwork12getHashChainENSt3__18functionIFvRKNS0_8hidl_vecINS0_10hidl_arrayIhLj32EJEEEEEEEE"
  },
  {
   "name":"_ZN7android8hardware4wifi10supplicant4V1_021ISupplicantP2pNetwork13tryGetServiceERKNSt3__112basic_stringIcNS5_11char_traitsIcEENS5_9allocatorIcEEEEb"
  },
  {
   "name":"_ZN7android8hardware4wifi10supplicant4V1_021ISupplicantP2pNetwork13unlinkToDeathERKNS_2spINS0_20hidl_death_recipientEEE"
  },
  {
   "name":"_ZN7android8hardware4wifi10supplicant4V1_021ISupplicantP2pNetwork14interfaceChainENSt3__18functionIFvRKNS0_8hidl_vecINS0_11hidl_stringEEEEEE"
  },
  {
   "name":"_ZN7android8hardware4wifi10supplicant4V1_021ISupplicantP2pNetwork17registerAsServiceERKNSt3__112basic_stringIcNS5_11char_traitsIcEENS5_9allocatorIcEEEE"
  },
  {
   "name":"_ZN7android8hardware4wifi10supplicant4V1_021ISupplicantP2pNetwork19interfaceDescriptorENSt3__18functionIFvRKNS0_11hidl_stringEEEE"
  },
  {
   "name":"_ZN7android8hardware4wifi10supplicant4V1_021ISupplicantP2pNetwork21notifySyspropsChangedEv"
  },
  {
   "name":"_ZN7android8hardware4wifi10supplicant4V1_021ISupplicantP2pNetwork21setHALInstrumentationEv"
  },
  {
   "name":"_ZN7android8hardware4wifi10supplicant4V1_021ISupplicantP2pNetwork24registerForNotificationsERKNSt3__112basic_stringIcNS5_11char_traitsIcEENS5_9allocatorIcEEEERKNS_2spINS_4hidl7manager4V1_020IServiceNotificationEEE"
  },
  {
   "name":"_ZN7android8hardware4wifi10supplicant4V1_021ISupplicantP2pNetwork4pingEv"
  },
  {
   "name":"_ZN7android8hardware4wifi10supplicant4V1_021ISupplicantP2pNetwork5debugERKNS0_11hidl_handleERKNS0_8hidl_vecINS0_11hidl_stringEEE"
  },
  {
   "name":"_ZN7android8hardware4wifi10supplicant4V1_021ISupplicantP2pNetwork8castFromERKNS_2spINS3_18ISupplicantNetworkEEEb"
  },
  {
   "name":"_ZN7android8hardware4wifi10supplicant4V1_021ISupplicantP2pNetwork8castFromERKNS_2spINS_4hidl4base4V1_05IBaseEEEb"
  },
  {
   "name":"_ZN7android8hardware4wifi10supplicant4V1_021ISupplicantP2pNetwork8castFromERKNS_2spIS4_EEb"
  },
  {
   "name":"_ZN7android8hardware4wifi10supplicant4V1_021ISupplicantStaNetwork10getServiceERKNSt3__112basic_stringIcNS5_11char_traitsIcEENS5_9allocatorIcEEEEb"
  },
  {
   "name":"_ZN7android8hardware4wifi10supplicant4V1_021ISupplicantStaNetwork11linkToDeathERKNS_2spINS0_20hidl_death_recipientEEEy"
  },
  {
   "name":"_ZN7android8hardware4wifi10supplicant4V1_021ISupplicantStaNetwork12getDebugInfoENSt3__18functionIFvRKNS_4hidl4base4V1_09DebugInfoEEEE"
  },
  {
   "name":"_ZN7android8hardware4wifi10supplicant4V1_021ISupplicantStaNetwork12getHashChainENSt3__18functionIFvRKNS0_8hidl_vecINS0_10hidl_arrayIhLj32EJEEEEEEEE"
  },
  {
   "name":"_ZN7android8hardware4wifi10supplicant4V1_021ISupplicantStaNetwork13tryGetServiceERKNSt3__112basic_stringIcNS5_11char_traitsIcEENS5_9allocatorIcEEEEb"
  },
  {
   "name":"_ZN7android8hardware4wifi10supplicant4V1_021ISupplicantStaNetwork13unlinkToDeathERKNS_2spINS0_20hidl_death_recipientEEE"
  },
  {
   "name":"_ZN7android8hardware4wifi10supplicant4V1_021ISupplicantStaNetwork14interfaceChainENSt3__18functionIFvRKNS0_8hidl_vecINS0_11hidl_stringEEEEEE"
  },
  {
   "name":"_ZN7android8hardware4wifi10supplicant4V1_021ISupplicantStaNetwork17registerAsServiceERKNSt3__112basic_stringIcNS5_11char_traitsIcEENS5_9allocatorIcEEEE"
  },
  {
   "name":"_ZN7android8hardware4wifi10supplicant4V1_021ISupplicantStaNetwork19interfaceDescriptorENSt3__18functionIFvRKNS0_11hidl_stringEEEE"
  },
  {
   "name":"_ZN7android8hardware4wifi10supplicant4V1_021ISupplicantStaNetwork21notifySyspropsChangedEv"
  },
  {
   "name":"_ZN7android8hardware4wifi10supplicant4V1_021ISupplicantStaNetwork21setHALInstrumentationEv"
  },
  {
   "name":"_ZN7android8hardware4wifi10supplicant4V1_021ISupplicantStaNetwork24registerForNotificationsERKNSt3__112basic_stringIcNS5_11char_traitsIcEENS5_9allocatorIcEEEERKNS_2spINS_4hidl7manager4V1_020IServiceNotificationEEE"
  },
  {
   "name":"_ZN7android8hardware4wifi10supplicant4V1_021ISupplicantStaNetwork4pingEv"
  },
  {
   "name":"_ZN7android8hardware4wifi10supplicant4V1_021ISupplicantStaNetwork5debugERKNS0_11hidl_handleERKNS0_8hidl_vecINS0_11hidl_stringEEE"
  },
  {
   "name":"_ZN7android8hardware4wifi10supplicant4V1_021ISupplicantStaNetwork8castFromERKNS_2spINS3_18ISupplicantNetworkEEEb"
  },
  {
   "name":"_ZN7android8hardware4wifi10supplicant4V1_021ISupplicantStaNetwork8castFromERKNS_2spINS_4hidl4base4V1_05IBaseEEEb"
  },
  {
   "name":"_ZN7android8hardware4wifi10supplicant4V1_021ISupplicantStaNetwork8castFromERKNS_2spIS4_EEb"
  },
  {
   "name":"_ZN7android8hardware4wifi10supplicant4V1_021writeEmbeddedToParcelERKNS3_11ISupplicant9IfaceInfoEPNS0_6ParcelEjj"
  },
  {
   "name":"_ZN7android8hardware4wifi10supplicant4V1_021writeEmbeddedToParcelERKNS3_16SupplicantStatusEPNS0_6ParcelEjj"
  },
  {
   "name":"_ZN7android8hardware4wifi10supplicant4V1_021writeEmbeddedToParcelERKNS3_21ISupplicantStaNetwork35NetworkResponseEapSimUmtsAuthParamsEPNS0_6ParcelEjj"
  },
  {
   "name":"_ZN7android8hardware4wifi10supplicant4V1_021writeEmbeddedToParcelERKNS3_27ISupplicantStaIfaceCallback12Hs20AnqpDataEPNS0_6ParcelEjj"
  },
  {
   "name":"_ZN7android8hardware4wifi10supplicant4V1_021writeEmbeddedToParcelERKNS3_27ISupplicantStaIfaceCallback8AnqpDataEPNS0_6ParcelEjj"
  },
  {
   "name":"_ZN7android8hardware4wifi10supplicant4V1_021writeEmbeddedToParcelERKNS3_29ISupplicantStaNetworkCallback33NetworkRequestEapSimGsmAuthParamsEPNS0_6ParcelEjj"
  },
  {
   "name":"_ZN7android8hardware4wifi10supplicant4V1_022BnHwSupplicantCallback10onTransactEjRKNS0_6ParcelEPS5_jNSt3__18functionIFvRS5_EEE"
  },
  {
   "name":"_ZN7android8hardware4wifi10supplicant4V1_022BnHwSupplicantCallback12getDebugInfoENSt3__18functionIFvRKNS_4hidl4base4V1_09DebugInfoEEEE"
  },
  {
   "name":"_ZN7android8hardware4wifi10supplicant4V1_022BnHwSupplicantCallback19_hidl_onTerminatingEPNS_4hidl4base4V1_08BnHwBaseERKNS0_6ParcelEPSA_NSt3__18functionIFvRSA_EEE"
  },
  {
   "name":"_ZN7android8hardware4wifi10supplicant4V1_022BnHwSupplicantCallback24_hidl_onInterfaceCreatedEPNS_4hidl4base4V1_08BnHwBaseERKNS0_6ParcelEPSA_NSt3__18functionIFvRSA_EEE"
  },
  {
   "name":"_ZN7android8hardware4wifi10supplicant4V1_022BnHwSupplicantCallback24_hidl_onInterfaceRemovedEPNS_4hidl4base4V1_08BnHwBaseERKNS0_6ParcelEPSA_NSt3__18functionIFvRSA_EEE"
  },
  {
   "name":"_ZN7android8hardware4wifi10supplicant4V1_022BnHwSupplicantCallback4pingEv"
  },
  {
   "name":"_ZN7android8hardware4wifi10supplicant4V1_022BnHwSupplicantCallbackC1ERKNS_2spINS3_19ISupplicantCallbackEEE"
  },
  {
   "name":"_ZN7android8hardware4wifi10supplicant4V1_022BnHwSupplicantCallbackC2ERKNS_2spINS3_19ISupplicantCallbackEEE"
  },
  {
   "name":"_ZN7android8hardware4wifi10supplicant4V1_022BnHwSupplicantCallbackD0Ev"
  },
  {
   "name":"_ZN7android8hardware4wifi10supplicant4V1_022BnHwSupplicantCallbackD1Ev"
  },
  {
   "name":"_ZN7android8hardware4wifi10supplicant4V1_022BnHwSupplicantCallbackD2Ev"
  },
  {
   "name":"_ZN7android8hardware4wifi10supplicant4V1_022BnHwSupplicantP2pIface10_hidl_findEPNS_4hidl4base4V1_08BnHwBaseERKNS0_6ParcelEPSA_NSt3__18functionIFvRSA_EEE"
  },
  {
   "name":"_ZN7android8hardware4wifi10supplicant4V1_022BnHwSupplicantP2pIface10onTransactEjRKNS0_6ParcelEPS5_jNSt3__18functionIFvRS5_EEE"
  },
  {
   "name":"_ZN7android8hardware4wifi10supplicant4V1_022BnHwSupplicantP2pIface11_hidl_flushEPNS_4hidl4base4V1_08BnHwBaseERKNS0_6ParcelEPSA_NSt3__18functionIFvRSA_EEE"
  },
  {
   "name":"_ZN7android8hardware4wifi10supplicant4V1_022BnHwSupplicantP2pIface12_hidl_inviteEPNS_4hidl4base4V1_08BnHwBaseERKNS0_6ParcelEPSA_NSt3__18functionIFvRSA_EEE"
  },
  {
   "name":"_ZN7android8hardware4wifi10supplicant4V1_022BnHwSupplicantP2pIface12_hidl_rejectEPNS_4hidl4base4V1_08BnHwBaseERKNS0_6ParcelEPSA_NSt3__18functionIFvRSA_EEE"
  },
  {
   "name":"_ZN7android8hardware4wifi10supplicant4V1_022BnHwSupplicantP2pIface12getDebugInfoENSt3__18functionIFvRKNS_4hidl4base4V1_09DebugInfoEEEE"
  },
  {
   "name":"_ZN7android8hardware4wifi10supplicant4V1_022BnHwSupplicantP2pIface13_hidl_connectEPNS_4hidl4base4V1_08BnHwBaseERKNS0_6ParcelEPSA_NSt3__18functionIFvRSA_EEE"
  },
  {
   "name":"_ZN7android8hardware4wifi10supplicant4V1_022BnHwSupplicantP2pIface13_hidl_getSsidEPNS_4hidl4base4V1_08BnHwBaseERKNS0_6ParcelEPSA_NSt3__18functionIFvRSA_EEE"
  },
  {
   "name":"_ZN7android8hardware4wifi10supplicant4V1_022BnHwSupplicantP2pIface14_hidl_addGroupEPNS_4hidl4base4V1_08BnHwBaseERKNS0_6ParcelEPSA_NSt3__18functionIFvRSA_EEE"
  },
  {
   "name":"_ZN7android8hardware4wifi10supplicant4V1_022BnHwSupplicantP2pIface14_hidl_reinvokeEPNS_4hidl4base4V1_08BnHwBaseERKNS0_6ParcelEPSA_NSt3__18functionIFvRSA_EEE"
  },
  {
   "name":"_ZN7android8hardware4wifi10supplicant4V1_022BnHwSupplicantP2pIface14_hidl_stopFindEPNS_4hidl4base4V1_08BnHwBaseERKNS0_6ParcelEPSA_NSt3__18functionIFvRSA_EEE"
  },
  {
   "name":"_ZN7android8hardware4wifi10supplicant4V1_022BnHwSupplicantP2pIface15_hidl_cancelWpsEPNS_4hidl4base4V1_08BnHwBaseERKNS0_6ParcelEPSA_NSt3__18functionIFvRSA_EEE"
  },
  {
   "name":"_ZN7android8hardware4wifi10supplicant4V1_022BnHwSupplicantP2pIface15_hidl_enableWfdEPNS_4hidl4base4V1_08BnHwBaseERKNS0_6ParcelEPSA_NSt3__18functionIFvRSA_EEE"
  },
  {
   "name":"_ZN7android8hardware4wifi10supplicant4V1_022BnHwSupplicantP2pIface16_hidl_saveConfigEPNS_4hidl4base4V1_08BnHwBaseERKNS0_6ParcelEPSA_NSt3__18functionIFvRSA_EEE"
  },
  {
   "name":"_ZN7android8hardware4wifi10supplicant4V1_022BnHwSupplicantP2pIface17_hidl_removeGroupEPNS_4hidl4base4V1_08BnHwBaseERKNS0_6ParcelEPSA_NSt3__18functionIFvRSA_EEE"
  },
  {
   "name":"_ZN7android8hardware4wifi10supplicant4V1_022BnHwSupplicantP2pIface17_hidl_startWpsPbcEPNS_4hidl4base4V1_08BnHwBaseERKNS0_6ParcelEPSA_NSt3__18functionIFvRSA_EEE"
  },
  {
   "name":"_ZN7android8hardware4wifi10supplicant4V1_022BnHwSupplicantP2pIface18_hidl_setGroupIdleEPNS_4hidl4base4V1_08BnHwBaseERKNS0_6ParcelEPSA_NSt3__18functionIFvRSA_EEE"
  },
  {
   "name":"_ZN7android8hardware4wifi10supplicant4V1_022BnHwSupplicantP2pIface18_hidl_setPowerSaveEPNS_4hidl4base4V1_08BnHwBaseERKNS0_6ParcelEPSA_NSt3__18functionIFvRSA_EEE"
  },
  {
   "name":"_ZN7android8hardware4wifi10supplicant4V1_022BnHwSupplicantP2pIface19_hidl_cancelConnectEPNS_4hidl4base4V1_08BnHwBaseERKNS0_6ParcelEPSA_NSt3__18functionIFvRSA_EEE"
  },
  {
   "name":"_ZN7android8hardware4wifi10supplicant4V1_022BnHwSupplicantP2pIface19_hidl_flushServicesEPNS_4hidl4base4V1_08BnHwBaseERKNS0_6ParcelEPSA_NSt3__18functionIFvRSA_EEE"
  },
  {
   "name":"_ZN7android8hardware4wifi10supplicant4V1_022BnHwSupplicantP2pIface20_hidl_addUpnpServiceEPNS_4hidl4base4V1_08BnHwBaseERKNS0_6ParcelEPSA_NSt3__18functionIFvRSA_EEE"
  },
  {
   "name":"_ZN7android8hardware4wifi10supplicant4V1_022BnHwSupplicantP2pIface20_hidl_setSsidPostfixEPNS_4hidl4base4V1_08BnHwBaseERKNS0_6ParcelEPSA_NSt3__18functionIFvRSA_EEE"
  },
  {
   "name":"_ZN7android8hardware4wifi10supplicant4V1_022BnHwSupplicantP2pIface21_hidl_setMiracastModeEPNS_4hidl4base4V1_08BnHwBaseERKNS0_6ParcelEPSA_NSt3__18functionIFvRSA_EEE"
  },
  {
   "name":"_ZN7android8hardware4wifi10supplicant4V1_022BnHwSupplicantP2pIface22_hidl_getDeviceAddressEPNS_4hidl4base4V1_08BnHwBaseERKNS0_6ParcelEPSA_NSt3__18functionIFvRSA_EEE"
  },
  {
   "name":"_ZN7android8hardware4wifi10supplicant4V1_022BnHwSupplicantP2pIface22_hidl_registerCallbackEPNS_4hidl4base4V1_08BnHwBaseERKNS0_6ParcelEPSA_NSt3__18functionIFvRSA_EEE"
  },
  {
   "name":"_ZN7android8hardware4wifi10supplicant4V1_022BnHwSupplicantP2pIface22_hidl_setListenChannelEPNS_4hidl4base4V1_08BnHwBaseERKNS0_6ParcelEPSA_NSt3__18functionIFvRSA_EEE"
  },
  {
   "name":"_ZN7android8hardware4wifi10supplicant4V1_022BnHwSupplicantP2pIface22_hidl_setWfdDeviceInfoEPNS_4hidl4base4V1_08BnHwBaseERKNS0_6ParcelEPSA_NSt3__18functionIFvRSA_EEE"
  },
  {
   "name":"_ZN7android8hardware4wifi10supplicant4V1_022BnHwSupplicantP2pIface23_hidl_addBonjourServiceEPNS_4hidl4base4V1_08BnHwBaseERKNS0_6ParcelEPSA_NSt3__18functionIFvRSA_EEE"
  },
  {
   "name":"_ZN7android8hardware4wifi10supplicant4V1_022BnHwSupplicantP2pIface23_hidl_removeUpnpServiceEPNS_4hidl4base4V1_08BnHwBaseERKNS0_6ParcelEPSA_NSt3__18functionIFvRSA_EEE"
  },
  {
   "name":"_ZN7android8hardware4wifi10supplicant4V1_022BnHwSupplicantP2pIface23_hidl_startWpsPinKeypadEPNS_4hidl4base4V1_08BnHwBaseERKNS0_6ParcelEPSA_NSt3__18functionIFvRSA_EEE"
  },
  {
   "name":"_ZN7android8hardware4wifi10supplicant4V1_022BnHwSupplicantP2pIface24_hidl_configureExtListenEPNS_4hidl4base4V1_08BnHwBaseERKNS0_6ParcelEPSA_NSt3__18functionIFvRSA_EEE"
  },
  {
   "name":"_ZN7android8hardware4wifi10supplicant4V1_022BnHwSupplicantP2pIface24_hidl_getGroupCapabilityEPNS_4hidl4base4V1_08BnHwBaseERKNS0_6ParcelEPSA_NSt3__18functionIFvRSA_EEE"
  },
  {
   "name":"_ZN7android8hardware4wifi10supplicant4V1_022BnHwSupplicantP2pIface24_hidl_provisionDiscoveryEPNS_4hidl4base4V1_08BnHwBaseERKNS0_6ParcelEPSA_NSt3__18functionIFvRSA_EEE"
  },
  {
   "name":"_ZN7android8hardware4wifi10supplicant4V1_022BnHwSupplicantP2pIface24_hidl_startWpsPinDisplayEPNS_4hidl4base4V1_08BnHwBaseERKNS0_6ParcelEPSA_NSt3__18functionIFvRSA_EEE"
  },
  {
   "name":"_ZN7android8hardware4wifi10supplicant4V1_022BnHwSupplicantP2pIface26_hidl_removeBonjourServiceEPNS_4hidl4base4V1_08BnHwBaseERKNS0_6ParcelEPSA_NSt3__18functionIFvRSA_EEE"
  },
  {
   "name":"_ZN7android8hardware4wifi10supplicant4V1_022BnHwSupplicantP2pIface28_hidl_cancelServiceDiscoveryEPNS_4hidl4base4V1_08BnHwBaseERKNS0_6ParcelEPSA_NSt3__18functionIFvRSA_EEE"
  },
  {
   "name":"_ZN7android8hardware4wifi10supplicant4V1_022BnHwSupplicantP2pIface29_hidl_requestServiceDiscoveryEPNS_4hidl4base4V1_08BnHwBaseERKNS0_6ParcelEPSA_NSt3__18functionIFvRSA_EEE"
  },
  {
   "name":"_ZN7android8hardware4wifi10supplicant4V1_022BnHwSupplicantP2pIface30_hidl_setDisallowedFrequenciesEPNS_4hidl4base4V1_08BnHwBaseERKNS0_6ParcelEPSA_NSt3__18functionIFvRSA_EEE"
  },
  {
   "name":"_ZN7android8hardware4wifi10supplicant4V1_022BnHwSupplicantP2pIface31_hidl_reportNfcHandoverResponseEPNS_4hidl4base4V1_08BnHwBaseERKNS0_6ParcelEPSA_NSt3__18functionIFvRSA_EEE"
  },
  {
   "name":"_ZN7android8hardware4wifi10supplicant4V1_022BnHwSupplicantP2pIface33_hidl_reportNfcHandoverInitiationEPNS_4hidl4base4V1_08BnHwBaseERKNS0_6ParcelEPSA_NSt3__18functionIFvRSA_EEE"
  },
  {
   "name":"_ZN7android8hardware4wifi10supplicant4V1_022BnHwSupplicantP2pIface36_hidl_createNfcHandoverSelectMessageEPNS_4hidl4base4V1_08BnHwBaseERKNS0_6ParcelEPSA_NSt3__18functionIFvRSA_EEE"
  },
  {
   "name":"_ZN7android8hardware4wifi10supplicant4V1_022BnHwSupplicantP2pIface37_hidl_createNfcHandoverRequestMessageEPNS_4hidl4base4V1_08BnHwBaseERKNS0_6ParcelEPSA_NSt3__18functionIFvRSA_EEE"
  },
  {
   "name":"_ZN7android8hardware4wifi10supplicant4V1_022BnHwSupplicantP2pIface4pingEv"
  },
  {
   "name":"_ZN7android8hardware4wifi10supplicant4V1_022BnHwSupplicantP2pIfaceC1ERKNS_2spINS3_19ISupplicantP2pIfaceEEE"
  },
  {
   "name":"_ZN7android8hardware4wifi10supplicant4V1_022BnHwSupplicantP2pIfaceC2ERKNS_2spINS3_19ISupplicantP2pIfaceEEE"
  },
  {
   "name":"_ZN7android8hardware4wifi10supplicant4V1_022BnHwSupplicantP2pIfaceD0Ev"
  },
  {
   "name":"_ZN7android8hardware4wifi10supplicant4V1_022BnHwSupplicantP2pIfaceD1Ev"
  },
  {
   "name":"_ZN7android8hardware4wifi10supplicant4V1_022BnHwSupplicantP2pIfaceD2Ev"
  },
  {
   "name":"_ZN7android8hardware4wifi10supplicant4V1_022BnHwSupplicantStaIface10onTransactEjRKNS0_6ParcelEPS5_jNSt3__18functionIFvRS5_EEE"
  },
  {
   "name":"_ZN7android8hardware4wifi10supplicant4V1_022BnHwSupplicantStaIface12getDebugInfoENSt3__18functionIFvRKNS_4hidl4base4V1_09DebugInfoEEEE"
  },
  {
   "name":"_ZN7android8hardware4wifi10supplicant4V1_022BnHwSupplicantStaIface15_hidl_cancelWpsEPNS_4hidl4base4V1_08BnHwBaseERKNS0_6ParcelEPSA_NSt3__18functionIFvRSA_EEE"
  },
  {
   "name":"_ZN7android8hardware4wifi10supplicant4V1_022BnHwSupplicantStaIface15_hidl_reconnectEPNS_4hidl4base4V1_08BnHwBaseERKNS0_6ParcelEPSA_NSt3__18functionIFvRSA_EEE"
  },
  {
   "name":"_ZN7android8hardware4wifi10supplicant4V1_022BnHwSupplicantStaIface16_hidl_disconnectEPNS_4hidl4base4V1_08BnHwBaseERKNS0_6ParcelEPSA_NSt3__18functionIFvRSA_EEE"
  },
  {
   "name":"_ZN7android8hardware4wifi10supplicant4V1_022BnHwSupplicantStaIface17_hidl_addRxFilterEPNS_4hidl4base4V1_08BnHwBaseERKNS0_6ParcelEPSA_NSt3__18functionIFvRSA_EEE"
  },
  {
   "name":"_ZN7android8hardware4wifi10supplicant4V1_022BnHwSupplicantStaIface17_hidl_reassociateEPNS_4hidl4base4V1_08BnHwBaseERKNS0_6ParcelEPSA_NSt3__18functionIFvRSA_EEE"
  },
  {
   "name":"_ZN7android8hardware4wifi10supplicant4V1_022BnHwSupplicantStaIface17_hidl_startWpsPbcEPNS_4hidl4base4V1_08BnHwBaseERKNS0_6ParcelEPSA_NSt3__18functionIFvRSA_EEE"
  },
  {
   "name":"_ZN7android8hardware4wifi10supplicant4V1_022BnHwSupplicantStaIface18_hidl_setPowerSaveEPNS_4hidl4base4V1_08BnHwBaseERKNS0_6ParcelEPSA_NSt3__18functionIFvRSA_EEE"
  },
  {
   "name":"_ZN7android8hardware4wifi10supplicant4V1_022BnHwSupplicantStaIface18_hidl_stopRxFilterEPNS_4hidl4base4V1_08BnHwBaseERKNS0_6ParcelEPSA_NSt3__18functionIFvRSA_EEE"
  },
  {
   "name":"_ZN7android8hardware4wifi10supplicant4V1_022BnHwSupplicantStaIface19_hidl_getMacAddressEPNS_4hidl4base4V1_08BnHwBaseERKNS0_6ParcelEPSA_NSt3__18functionIFvRSA_EEE"
  },
  {
   "name":"_ZN7android8hardware4wifi10supplicant4V1_022BnHwSupplicantStaIface19_hidl_startRxFilterEPNS_4hidl4base4V1_08BnHwBaseERKNS0_6ParcelEPSA_NSt3__18functionIFvRSA_EEE"
  },
  {
   "name":"_ZN7android8hardware4wifi10supplicant4V1_022BnHwSupplicantStaIface20_hidl_removeRxFilterEPNS_4hidl4base4V1_08BnHwBaseERKNS0_6ParcelEPSA_NSt3__18functionIFvRSA_EEE"
  },
  {
   "name":"_ZN7android8hardware4wifi10supplicant4V1_022BnHwSupplicantStaIface20_hidl_setCountryCodeEPNS_4hidl4base4V1_08BnHwBaseERKNS0_6ParcelEPSA_NSt3__18functionIFvRSA_EEE"
  },
  {
   "name":"_ZN7android8hardware4wifi10supplicant4V1_022BnHwSupplicantStaIface20_hidl_setExternalSimEPNS_4hidl4base4V1_08BnHwBaseERKNS0_6ParcelEPSA_NSt3__18functionIFvRSA_EEE"
  },
  {
   "name":"_ZN7android8hardware4wifi10supplicant4V1_022BnHwSupplicantStaIface21_hidl_addExtRadioWorkEPNS_4hidl4base4V1_08BnHwBaseERKNS0_6ParcelEPSA_NSt3__18functionIFvRSA_EEE"
  },
  {
   "name":"_ZN7android8hardware4wifi10supplicant4V1_022BnHwSupplicantStaIface22_hidl_registerCallbackEPNS_4hidl4base4V1_08BnHwBaseERKNS0_6ParcelEPSA_NSt3__18functionIFvRSA_EEE"
  },
  {
   "name":"_ZN7android8hardware4wifi10supplicant4V1_022BnHwSupplicantStaIface23_hidl_initiateAnqpQueryEPNS_4hidl4base4V1_08BnHwBaseERKNS0_6ParcelEPSA_NSt3__18functionIFvRSA_EEE"
  },
  {
   "name":"_ZN7android8hardware4wifi10supplicant4V1_022BnHwSupplicantStaIface23_hidl_initiateTdlsSetupEPNS_4hidl4base4V1_08BnHwBaseERKNS0_6ParcelEPSA_NSt3__18functionIFvRSA_EEE"
  },
  {
   "name":"_ZN7android8hardware4wifi10supplicant4V1_022BnHwSupplicantStaIface23_hidl_startWpsPinKeypadEPNS_4hidl4base4V1_08BnHwBaseERKNS0_6ParcelEPSA_NSt3__18functionIFvRSA_EEE"
  },
  {
   "name":"_ZN7android8hardware4wifi10supplicant4V1_022BnHwSupplicantStaIface23_hidl_startWpsRegistrarEPNS_4hidl4base4V1_08BnHwBaseERKNS0_6ParcelEPSA_NSt3__18functionIFvRSA_EEE"
  },
  {
   "name":"_ZN7android8hardware4wifi10supplicant4V1_022BnHwSupplicantStaIface24_hidl_removeExtRadioWorkEPNS_4hidl4base4V1_08BnHwBaseERKNS0_6ParcelEPSA_NSt3__18functionIFvRSA_EEE"
  },
  {
   "name":"_ZN7android8hardware4wifi10supplicant4V1_022BnHwSupplicantStaIface24_hidl_startWpsPinDisplayEPNS_4hidl4base4V1_08BnHwBaseERKNS0_6ParcelEPSA_NSt3__18functionIFvRSA_EEE"
  },
  {
   "name":"_ZN7android8hardware4wifi10supplicant4V1_022BnHwSupplicantStaIface25_hidl_enableAutoReconnectEPNS_4hidl4base4V1_08BnHwBaseERKNS0_6ParcelEPSA_NSt3__18functionIFvRSA_EEE"
  },
  {
   "name":"_ZN7android8hardware4wifi10supplicant4V1_022BnHwSupplicantStaIface26_hidl_initiateTdlsDiscoverEPNS_4hidl4base4V1_08BnHwBaseERKNS0_6ParcelEPSA_NSt3__18functionIFvRSA_EEE"
  },
  {
   "name":"_ZN7android8hardware4wifi10supplicant4V1_022BnHwSupplicantStaIface26_hidl_initiateTdlsTeardownEPNS_4hidl4base4V1_08BnHwBaseERKNS0_6ParcelEPSA_NSt3__18functionIFvRSA_EEE"
  },
  {
   "name":"_ZN7android8hardware4wifi10supplicant4V1_022BnHwSupplicantStaIface26_hidl_setBtCoexistenceModeEPNS_4hidl4base4V1_08BnHwBaseERKNS0_6ParcelEPSA_NSt3__18functionIFvRSA_EEE"
  },
  {
   "name":"_ZN7android8hardware4wifi10supplicant4V1_022BnHwSupplicantStaIface27_hidl_initiateHs20IconQueryEPNS_4hidl4base4V1_08BnHwBaseERKNS0_6ParcelEPSA_NSt3__18functionIFvRSA_EEE"
  },
  {
   "name":"_ZN7android8hardware4wifi10supplicant4V1_022BnHwSupplicantStaIface27_hidl_setSuspendModeEnabledEPNS_4hidl4base4V1_08BnHwBaseERKNS0_6ParcelEPSA_NSt3__18functionIFvRSA_EEE"
  },
  {
   "name":"_ZN7android8hardware4wifi10supplicant4V1_022BnHwSupplicantStaIface37_hidl_setBtCoexistenceScanModeEnabledEPNS_4hidl4base4V1_08BnHwBaseERKNS0_6ParcelEPSA_NSt3__18functionIFvRSA_EEE"
  },
  {
   "name":"_ZN7android8hardware4wifi10supplicant4V1_022BnHwSupplicantStaIface4pingEv"
  },
  {
   "name":"_ZN7android8hardware4wifi10supplicant4V1_022BnHwSupplicantStaIfaceC1ERKNS_2spINS3_19ISupplicantStaIfaceEEE"
  },
  {
   "name":"_ZN7android8hardware4wifi10supplicant4V1_022BnHwSupplicantStaIfaceC2ERKNS_2spINS3_19ISupplicantStaIfaceEEE"
  },
  {
   "name":"_ZN7android8hardware4wifi10supplicant4V1_022BnHwSupplicantStaIfaceD0Ev"
  },
  {
   "name":"_ZN7android8hardware4wifi10supplicant4V1_022BnHwSupplicantStaIfaceD1Ev"
  },
  {
   "name":"_ZN7android8hardware4wifi10supplicant4V1_022BnHwSupplicantStaIfaceD2Ev"
  },
  {
   "name":"_ZN7android8hardware4wifi10supplicant4V1_022BpHwSupplicantCallback11linkToDeathERKNS_2spINS0_20hidl_death_recipientEEEy"
  },
  {
   "name":"_ZN7android8hardware4wifi10supplicant4V1_022BpHwSupplicantCallback12getDebugInfoENSt3__18functionIFvRKNS_4hidl4base4V1_09DebugInfoEEEE"
  },
  {
   "name":"_ZN7android8hardware4wifi10supplicant4V1_022BpHwSupplicantCallback12getHashChainENSt3__18functionIFvRKNS0_8hidl_vecINS0_10hidl_arrayIhLj32EJEEEEEEEE"
  },
  {
   "name":"_ZN7android8hardware4wifi10supplicant4V1_022BpHwSupplicantCallback13onTerminatingEv"
  },
  {
   "name":"_ZN7android8hardware4wifi10supplicant4V1_022BpHwSupplicantCallback13unlinkToDeathERKNS_2spINS0_20hidl_death_recipientEEE"
  },
  {
   "name":"_ZN7android8hardware4wifi10supplicant4V1_022BpHwSupplicantCallback14interfaceChainENSt3__18functionIFvRKNS0_8hidl_vecINS0_11hidl_stringEEEEEE"
  },
  {
   "name":"_ZN7android8hardware4wifi10supplicant4V1_022BpHwSupplicantCallback18onInterfaceCreatedERKNS0_11hidl_stringE"
  },
  {
   "name":"_ZN7android8hardware4wifi10supplicant4V1_022BpHwSupplicantCallback18onInterfaceRemovedERKNS0_11hidl_stringE"
  },
  {
   "name":"_ZN7android8hardware4wifi10supplicant4V1_022BpHwSupplicantCallback19_hidl_onTerminatingEPNS0_10IInterfaceEPNS0_7details16HidlInstrumentorE"
  },
  {
   "name":"_ZN7android8hardware4wifi10supplicant4V1_022BpHwSupplicantCallback19interfaceDescriptorENSt3__18functionIFvRKNS0_11hidl_stringEEEE"
  },
  {
   "name":"_ZN7android8hardware4wifi10supplicant4V1_022BpHwSupplicantCallback21notifySyspropsChangedEv"
  },
  {
   "name":"_ZN7android8hardware4wifi10supplicant4V1_022BpHwSupplicantCallback21setHALInstrumentationEv"
  },
  {
   "name":"_ZN7android8hardware4wifi10supplicant4V1_022BpHwSupplicantCallback24_hidl_onInterfaceCreatedEPNS0_10IInterfaceEPNS0_7details16HidlInstrumentorERKNS0_11hidl_stringE"
  },
  {
   "name":"_ZN7android8hardware4wifi10supplicant4V1_022BpHwSupplicantCallback24_hidl_onInterfaceRemovedEPNS0_10IInterfaceEPNS0_7details16HidlInstrumentorERKNS0_11hidl_stringE"
  },
  {
   "name":"_ZN7android8hardware4wifi10supplicant4V1_022BpHwSupplicantCallback4pingEv"
  },
  {
   "name":"_ZN7android8hardware4wifi10supplicant4V1_022BpHwSupplicantCallback5debugERKNS0_11hidl_handleERKNS0_8hidl_vecINS0_11hidl_stringEEE"
  },
  {
   "name":"_ZN7android8hardware4wifi10supplicant4V1_022BpHwSupplicantCallbackC1ERKNS_2spINS0_7IBinderEEE"
  },
  {
   "name":"_ZN7android8hardware4wifi10supplicant4V1_022BpHwSupplicantCallbackC2ERKNS_2spINS0_7IBinderEEE"
  },
  {
   "name":"_ZN7android8hardware4wifi10supplicant4V1_022BpHwSupplicantP2pIface10_hidl_findEPNS0_10IInterfaceEPNS0_7details16HidlInstrumentorEjNSt3__18functionIFvRKNS3_16SupplicantStatusEEEE"
  },
  {
   "name":"_ZN7android8hardware4wifi10supplicant4V1_022BpHwSupplicantP2pIface10addNetworkENSt3__18functionIFvRKNS3_16SupplicantStatusERKNS_2spINS3_18ISupplicantNetworkEEEEEE"
  },
  {
   "name":"_ZN7android8hardware4wifi10supplicant4V1_022BpHwSupplicantP2pIface10getNetworkEjNSt3__18functionIFvRKNS3_16SupplicantStatusERKNS_2spINS3_18ISupplicantNetworkEEEEEE"
  },
  {
   "name":"_ZN7android8hardware4wifi10supplicant4V1_022BpHwSupplicantP2pIface10saveConfigENSt3__18functionIFvRKNS3_16SupplicantStatusEEEE"
  },
  {
   "name":"_ZN7android8hardware4wifi10supplicant4V1_022BpHwSupplicantP2pIface11_hidl_flushEPNS0_10IInterfaceEPNS0_7details16HidlInstrumentorENSt3__18functionIFvRKNS3_16SupplicantStatusEEEE"
  },
  {
   "name":"_ZN7android8hardware4wifi10supplicant4V1_022BpHwSupplicantP2pIface11linkToDeathERKNS_2spINS0_20hidl_death_recipientEEEy"
  },
  {
   "name":"_ZN7android8hardware4wifi10supplicant4V1_022BpHwSupplicantP2pIface11removeGroupERKNS0_11hidl_stringENSt3__18functionIFvRKNS3_16SupplicantStatusEEEE"
  },
  {
   "name":"_ZN7android8hardware4wifi10supplicant4V1_022BpHwSupplicantP2pIface11startWpsPbcERKNS0_11hidl_stringERKNS0_10hidl_arrayIhLj6EJEEENSt3__18functionIFvRKNS3_16SupplicantStatusEEEE"
  },
  {
   "name":"_ZN7android8hardware4wifi10supplicant4V1_022BpHwSupplicantP2pIface12_hidl_inviteEPNS0_10IInterfaceEPNS0_7details16HidlInstrumentorERKNS0_11hidl_stringERKNS0_10hidl_arrayIhLj6EJEEESG_NSt3__18functionIFvRKNS3_16SupplicantStatusEEEE"
  },
  {
   "name":"_ZN7android8hardware4wifi10supplicant4V1_022BpHwSupplicantP2pIface12_hidl_rejectEPNS0_10IInterfaceEPNS0_7details16HidlInstrumentorERKNS0_10hidl_arrayIhLj6EJEEENSt3__18functionIFvRKNS3_16SupplicantStatusEEEE"
  },
  {
   "name":"_ZN7android8hardware4wifi10supplicant4V1_022BpHwSupplicantP2pIface12getDebugInfoENSt3__18functionIFvRKNS_4hidl4base4V1_09DebugInfoEEEE"
  },
  {
   "name":"_ZN7android8hardware4wifi10supplicant4V1_022BpHwSupplicantP2pIface12getHashChainENSt3__18functionIFvRKNS0_8hidl_vecINS0_10hidl_arrayIhLj32EJEEEEEEEE"
  },
  {
   "name":"_ZN7android8hardware4wifi10supplicant4V1_022BpHwSupplicantP2pIface12listNetworksENSt3__18functionIFvRKNS3_16SupplicantStatusERKNS0_8hidl_vecIjEEEEE"
  },
  {
   "name":"_ZN7android8hardware4wifi10supplicant4V1_022BpHwSupplicantP2pIface12setGroupIdleERKNS0_11hidl_stringEjNSt3__18functionIFvRKNS3_16SupplicantStatusEEEE"
  },
  {
   "name":"_ZN7android8hardware4wifi10supplicant4V1_022BpHwSupplicantP2pIface12setPowerSaveERKNS0_11hidl_stringEbNSt3__18functionIFvRKNS3_16SupplicantStatusEEEE"
  },
  {
   "name":"_ZN7android8hardware4wifi10supplicant4V1_022BpHwSupplicantP2pIface13_hidl_connectEPNS0_10IInterfaceEPNS0_7details16HidlInstrumentorERKNS0_10hidl_arrayIhLj6EJEEENS3_19ISupplicantP2pIface18WpsProvisionMethodERKNS0_11hidl_stringEbbjNSt3__18functionIFvRKNS3_16SupplicantStatusESI_EEE"
  },
  {
   "name":"_ZN7android8hardware4wifi10supplicant4V1_022BpHwSupplicantP2pIface13_hidl_getSsidEPNS0_10IInterfaceEPNS0_7details16HidlInstrumentorERKNS0_10hidl_arrayIhLj6EJEEENSt3__18functionIFvRKNS3_16SupplicantStatusERKNS0_8hidl_vecIhEEEEE"
  },
  {
   "name":"_ZN7android8hardware4wifi10supplicant4V1_022BpHwSupplicantP2pIface13cancelConnectENSt3__18functionIFvRKNS3_16SupplicantStatusEEEE"
  },
  {
   "name":"_ZN7android8hardware4wifi10supplicant4V1_022BpHwSupplicantP2pIface13flushServicesENSt3__18functionIFvRKNS3_16SupplicantStatusEEEE"
  },
  {
   "name":"_ZN7android8hardware4wifi10supplicant4V1_022BpHwSupplicantP2pIface13removeNetworkEjNSt3__18functionIFvRKNS3_16SupplicantStatusEEEE"
  },
  {
   "name":"_ZN7android8hardware4wifi10supplicant4V1_022BpHwSupplicantP2pIface13unlinkToDeathERKNS_2spINS0_20hidl_death_recipientEEE"
  },
  {
   "name":"_ZN7android8hardware4wifi10supplicant4V1_022BpHwSupplicantP2pIface14_hidl_addGroupEPNS0_10IInterfaceEPNS0_7details16HidlInstrumentorEbjNSt3__18functionIFvRKNS3_16SupplicantStatusEEEE"
  },
  {
   "name":"_ZN7android8hardware4wifi10supplicant4V1_022BpHwSupplicantP2pIface14_hidl_reinvokeEPNS0_10IInterfaceEPNS0_7details16HidlInstrumentorEjRKNS0_10hidl_arrayIhLj6EJEEENSt3__18functionIFvRKNS3_16SupplicantStatusEEEE"
  },
  {
   "name":"_ZN7android8hardware4wifi10supplicant4V1_022BpHwSupplicantP2pIface14_hidl_stopFindEPNS0_10IInterfaceEPNS0_7details16HidlInstrumentorENSt3__18functionIFvRKNS3_16SupplicantStatusEEEE"
  },
  {
   "name":"_ZN7android8hardware4wifi10supplicant4V1_022BpHwSupplicantP2pIface14addUpnpServiceEjRKNS0_11hidl_stringENSt3__18functionIFvRKNS3_16SupplicantStatusEEEE"
  },
  {
   "name":"_ZN7android8hardware4wifi10supplicant4V1_022BpHwSupplicantP2pIface14interfaceChainENSt3__18functionIFvRKNS0_8hidl_vecINS0_11hidl_stringEEEEEE"
  },
  {
   "name":"_ZN7android8hardware4wifi10supplicant4V1_022BpHwSupplicantP2pIface14setSsidPostfixERKNS0_8hidl_vecIhEENSt3__18functionIFvRKNS3_16SupplicantStatusEEEE"
  },
  {
   "name":"_ZN7android8hardware4wifi10supplicant4V1_022BpHwSupplicantP2pIface15_hidl_cancelWpsEPNS0_10IInterfaceEPNS0_7details16HidlInstrumentorERKNS0_11hidl_stringENSt3__18functionIFvRKNS3_16SupplicantStatusEEEE"
  },
  {
   "name":"_ZN7android8hardware4wifi10supplicant4V1_022BpHwSupplicantP2pIface15_hidl_enableWfdEPNS0_10IInterfaceEPNS0_7details16HidlInstrumentorEbNSt3__18functionIFvRKNS3_16SupplicantStatusEEEE"
  },
  {
   "name":"_ZN7android8hardware4wifi10supplicant4V1_022BpHwSupplicantP2pIface15setMiracastModeENS3_19ISupplicantP2pIface12MiracastModeENSt3__18functionIFvRKNS3_16SupplicantStatusEEEE"
  },
  {
   "name":"_ZN7android8hardware4wifi10supplicant4V1_022BpHwSupplicantP2pIface15setWpsModelNameERKNS0_11hidl_stringENSt3__18functionIFvRKNS3_16SupplicantStatusEEEE"
  },
  {
   "name":"_ZN7android8hardware4wifi10supplicant4V1_022BpHwSupplicantP2pIface16_hidl_saveConfigEPNS0_10IInterfaceEPNS0_7details16HidlInstrumentorENSt3__18functionIFvRKNS3_16SupplicantStatusEEEE"
  },
  {
   "name":"_ZN7android8hardware4wifi10supplicant4V1_022BpHwSupplicantP2pIface16getDeviceAddressENSt3__18functionIFvRKNS3_16SupplicantStatusERKNS0_10hidl_arrayIhLj6EJEEEEEE"
  },
  {
   "name":"_ZN7android8hardware4wifi10supplicant4V1_022BpHwSupplicantP2pIface16registerCallbackERKNS_2spINS3_27ISupplicantP2pIfaceCallbackEEENSt3__18functionIFvRKNS3_16SupplicantStatusEEEE"
  },
  {
   "name":"_ZN7android8hardware4wifi10supplicant4V1_022BpHwSupplicantP2pIface16setListenChannelEjjNSt3__18functionIFvRKNS3_16SupplicantStatusEEEE"
  },
  {
   "name":"_ZN7android8hardware4wifi10supplicant4V1_022BpHwSupplicantP2pIface16setWfdDeviceInfoERKNS0_10hidl_arrayIhLj6EJEEENSt3__18functionIFvRKNS3_16SupplicantStatusEEEE"
  },
  {
   "name":"_ZN7android8hardware4wifi10supplicant4V1_022BpHwSupplicantP2pIface16setWpsDeviceNameERKNS0_11hidl_stringENSt3__18functionIFvRKNS3_16SupplicantStatusEEEE"
  },
  {
   "name":"_ZN7android8hardware4wifi10supplicant4V1_022BpHwSupplicantP2pIface16setWpsDeviceTypeERKNS0_10hidl_arrayIhLj8EJEEENSt3__18functionIFvRKNS3_16SupplicantStatusEEEE"
  },
  {
   "name":"_ZN7android8hardware4wifi10supplicant4V1_022BpHwSupplicantP2pIface17_hidl_removeGroupEPNS0_10IInterfaceEPNS0_7details16HidlInstrumentorERKNS0_11hidl_stringENSt3__18functionIFvRKNS3_16SupplicantStatusEEEE"
  },
  {
   "name":"_ZN7android8hardware4wifi10supplicant4V1_022BpHwSupplicantP2pIface17_hidl_startWpsPbcEPNS0_10IInterfaceEPNS0_7details16HidlInstrumentorERKNS0_11hidl_stringERKNS0_10hidl_arrayIhLj6EJEEENSt3__18functionIFvRKNS3_16SupplicantStatusEEEE"
  },
  {
   "name":"_ZN7android8hardware4wifi10supplicant4V1_022BpHwSupplicantP2pIface17addBonjourServiceERKNS0_8hidl_vecIhEES8_NSt3__18functionIFvRKNS3_16SupplicantStatusEEEE"
  },
  {
   "name":"_ZN7android8hardware4wifi10supplicant4V1_022BpHwSupplicantP2pIface17removeUpnpServiceEjRKNS0_11hidl_stringENSt3__18functionIFvRKNS3_16SupplicantStatusEEEE"
  },
  {
   "name":"_ZN7android8hardware4wifi10supplicant4V1_022BpHwSupplicantP2pIface17setWpsModelNumberERKNS0_11hidl_stringENSt3__18functionIFvRKNS3_16SupplicantStatusEEEE"
  },
  {
   "name":"_ZN7android8hardware4wifi10supplicant4V1_022BpHwSupplicantP2pIface17startWpsPinKeypadERKNS0_11hidl_stringES7_NSt3__18functionIFvRKNS3_16SupplicantStatusEEEE"
  },
  {
   "name":"_ZN7android8hardware4wifi10supplicant4V1_022BpHwSupplicantP2pIface18_hidl_setGroupIdleEPNS0_10IInterfaceEPNS0_7details16HidlInstrumentorERKNS0_11hidl_stringEjNSt3__18functionIFvRKNS3_16SupplicantStatusEEEE"
  },
  {
   "name":"_ZN7android8hardware4wifi10supplicant4V1_022BpHwSupplicantP2pIface18_hidl_setPowerSaveEPNS0_10IInterfaceEPNS0_7details16HidlInstrumentorERKNS0_11hidl_stringEbNSt3__18functionIFvRKNS3_16SupplicantStatusEEEE"
  },
  {
   "name":"_ZN7android8hardware4wifi10supplicant4V1_022BpHwSupplicantP2pIface18configureExtListenEjjNSt3__18functionIFvRKNS3_16SupplicantStatusEEEE"
  },
  {
   "name":"_ZN7android8hardware4wifi10supplicant4V1_022BpHwSupplicantP2pIface18getGroupCapabilityERKNS0_10hidl_arrayIhLj6EJEEENSt3__18functionIFvRKNS3_16SupplicantStatusEjEEE"
  },
  {
   "name":"_ZN7android8hardware4wifi10supplicant4V1_022BpHwSupplicantP2pIface18provisionDiscoveryERKNS0_10hidl_arrayIhLj6EJEEENS3_19ISupplicantP2pIface18WpsProvisionMethodENSt3__18functionIFvRKNS3_16SupplicantStatusEEEE"
  },
  {
   "name":"_ZN7android8hardware4wifi10supplicant4V1_022BpHwSupplicantP2pIface18setWpsManufacturerERKNS0_11hidl_stringENSt3__18functionIFvRKNS3_16SupplicantStatusEEEE"
  },
  {
   "name":"_ZN7android8hardware4wifi10supplicant4V1_022BpHwSupplicantP2pIface18setWpsSerialNumberERKNS0_11hidl_stringENSt3__18functionIFvRKNS3_16SupplicantStatusEEEE"
  },
  {
   "name":"_ZN7android8hardware4wifi10supplicant4V1_022BpHwSupplicantP2pIface18startWpsPinDisplayERKNS0_11hidl_stringERKNS0_10hidl_arrayIhLj6EJEEENSt3__18functionIFvRKNS3_16SupplicantStatusES7_EEE"
  },
  {
   "name":"_ZN7android8hardware4wifi10supplicant4V1_022BpHwSupplicantP2pIface19_hidl_cancelConnectEPNS0_10IInterfaceEPNS0_7details16HidlInstrumentorENSt3__18functionIFvRKNS3_16SupplicantStatusEEEE"
  },
  {
   "name":"_ZN7android8hardware4wifi10supplicant4V1_022BpHwSupplicantP2pIface19_hidl_flushServicesEPNS0_10IInterfaceEPNS0_7details16HidlInstrumentorENSt3__18functionIFvRKNS3_16SupplicantStatusEEEE"
  },
  {
   "name":"_ZN7android8hardware4wifi10supplicant4V1_022BpHwSupplicantP2pIface19interfaceDescriptorENSt3__18functionIFvRKNS0_11hidl_stringEEEE"
  },
  {
   "name":"_ZN7android8hardware4wifi10supplicant4V1_022BpHwSupplicantP2pIface19setWpsConfigMethodsEtNSt3__18functionIFvRKNS3_16SupplicantStatusEEEE"
  },
  {
   "name":"_ZN7android8hardware4wifi10supplicant4V1_022BpHwSupplicantP2pIface20_hidl_addUpnpServiceEPNS0_10IInterfaceEPNS0_7details16HidlInstrumentorEjRKNS0_11hidl_stringENSt3__18functionIFvRKNS3_16SupplicantStatusEEEE"
  },
  {
   "name":"_ZN7android8hardware4wifi10supplicant4V1_022BpHwSupplicantP2pIface20_hidl_setSsidPostfixEPNS0_10IInterfaceEPNS0_7details16HidlInstrumentorERKNS0_8hidl_vecIhEENSt3__18functionIFvRKNS3_16SupplicantStatusEEEE"
  },
  {
   "name":"_ZN7android8hardware4wifi10supplicant4V1_022BpHwSupplicantP2pIface20removeBonjourServiceERKNS0_8hidl_vecIhEENSt3__18functionIFvRKNS3_16SupplicantStatusEEEE"
  },
  {
   "name":"_ZN7android8hardware4wifi10supplicant4V1_022BpHwSupplicantP2pIface21_hidl_setMiracastModeEPNS0_10IInterfaceEPNS0_7details16HidlInstrumentorENS3_19ISupplicantP2pIface12MiracastModeENSt3__18functionIFvRKNS3_16SupplicantStatusEEEE"
  },
  {
   "name":"_ZN7android8hardware4wifi10supplicant4V1_022BpHwSupplicantP2pIface21notifySyspropsChangedEv"
  },
  {
   "name":"_ZN7android8hardware4wifi10supplicant4V1_022BpHwSupplicantP2pIface21setHALInstrumentationEv"
  },
  {
   "name":"_ZN7android8hardware4wifi10supplicant4V1_022BpHwSupplicantP2pIface22_hidl_getDeviceAddressEPNS0_10IInterfaceEPNS0_7details16HidlInstrumentorENSt3__18functionIFvRKNS3_16SupplicantStatusERKNS0_10hidl_arrayIhLj6EJEEEEEE"
  },
  {
   "name":"_ZN7android8hardware4wifi10supplicant4V1_022BpHwSupplicantP2pIface22_hidl_registerCallbackEPNS0_10IInterfaceEPNS0_7details16HidlInstrumentorERKNS_2spINS3_27ISupplicantP2pIfaceCallbackEEENSt3__18functionIFvRKNS3_16SupplicantStatusEEEE"
  },
  {
   "name":"_ZN7android8hardware4wifi10supplicant4V1_022BpHwSupplicantP2pIface22_hidl_setListenChannelEPNS0_10IInterfaceEPNS0_7details16HidlInstrumentorEjjNSt3__18functionIFvRKNS3_16SupplicantStatusEEEE"
  },
  {
   "name":"_ZN7android8hardware4wifi10supplicant4V1_022BpHwSupplicantP2pIface22_hidl_setWfdDeviceInfoEPNS0_10IInterfaceEPNS0_7details16HidlInstrumentorERKNS0_10hidl_arrayIhLj6EJEEENSt3__18functionIFvRKNS3_16SupplicantStatusEEEE"
  },
  {
   "name":"_ZN7android8hardware4wifi10supplicant4V1_022BpHwSupplicantP2pIface22cancelServiceDiscoveryEyNSt3__18functionIFvRKNS3_16SupplicantStatusEEEE"
  },
  {
   "name":"_ZN7android8hardware4wifi10supplicant4V1_022BpHwSupplicantP2pIface23_hidl_addBonjourServiceEPNS0_10IInterfaceEPNS0_7details16HidlInstrumentorERKNS0_8hidl_vecIhEESD_NSt3__18functionIFvRKNS3_16SupplicantStatusEEEE"
  },
  {
   "name":"_ZN7android8hardware4wifi10supplicant4V1_022BpHwSupplicantP2pIface23_hidl_removeUpnpServiceEPNS0_10IInterfaceEPNS0_7details16HidlInstrumentorEjRKNS0_11hidl_stringENSt3__18functionIFvRKNS3_16SupplicantStatusEEEE"
  },
  {
   "name":"_ZN7android8hardware4wifi10supplicant4V1_022BpHwSupplicantP2pIface23_hidl_startWpsPinKeypadEPNS0_10IInterfaceEPNS0_7details16HidlInstrumentorERKNS0_11hidl_stringESC_NSt3__18functionIFvRKNS3_16SupplicantStatusEEEE"
  },
  {
   "name":"_ZN7android8hardware4wifi10supplicant4V1_022BpHwSupplicantP2pIface23requestServiceDiscoveryERKNS0_10hidl_arrayIhLj6EJEEERKNS0_8hidl_vecIhEENSt3__18functionIFvRKNS3_16SupplicantStatusEyEEE"
  },
  {
   "name":"_ZN7android8hardware4wifi10supplicant4V1_022BpHwSupplicantP2pIface24_hidl_configureExtListenEPNS0_10IInterfaceEPNS0_7details16HidlInstrumentorEjjNSt3__18functionIFvRKNS3_16SupplicantStatusEEEE"
  },
  {
   "name":"_ZN7android8hardware4wifi10supplicant4V1_022BpHwSupplicantP2pIface24_hidl_getGroupCapabilityEPNS0_10IInterfaceEPNS0_7details16HidlInstrumentorERKNS0_10hidl_arrayIhLj6EJEEENSt3__18functionIFvRKNS3_16SupplicantStatusEjEEE"
  },
  {
   "name":"_ZN7android8hardware4wifi10supplicant4V1_022BpHwSupplicantP2pIface24_hidl_provisionDiscoveryEPNS0_10IInterfaceEPNS0_7details16HidlInstrumentorERKNS0_10hidl_arrayIhLj6EJEEENS3_19ISupplicantP2pIface18WpsProvisionMethodENSt3__18functionIFvRKNS3_16SupplicantStatusEEEE"
  },
  {
   "name":"_ZN7android8hardware4wifi10supplicant4V1_022BpHwSupplicantP2pIface24_hidl_startWpsPinDisplayEPNS0_10IInterfaceEPNS0_7details16HidlInstrumentorERKNS0_11hidl_stringERKNS0_10hidl_arrayIhLj6EJEEENSt3__18functionIFvRKNS3_16SupplicantStatusESC_EEE"
  },
  {
   "name":"_ZN7android8hardware4wifi10supplicant4V1_022BpHwSupplicantP2pIface24setDisallowedFrequenciesERKNS0_8hidl_vecINS3_19ISupplicantP2pIface9FreqRangeEEENSt3__18functionIFvRKNS3_16SupplicantStatusEEEE"
  },
  {
   "name":"_ZN7android8hardware4wifi10supplicant4V1_022BpHwSupplicantP2pIface25reportNfcHandoverResponseERKNS0_8hidl_vecIhEENSt3__18functionIFvRKNS3_16SupplicantStatusEEEE"
  },
  {
   "name":"_ZN7android8hardware4wifi10supplicant4V1_022BpHwSupplicantP2pIface26_hidl_removeBonjourServiceEPNS0_10IInterfaceEPNS0_7details16HidlInstrumentorERKNS0_8hidl_vecIhEENSt3__18functionIFvRKNS3_16SupplicantStatusEEEE"
  },
  {
   "name":"_ZN7android8hardware4wifi10supplicant4V1_022BpHwSupplicantP2pIface27reportNfcHandoverInitiationERKNS0_8hidl_vecIhEENSt3__18functionIFvRKNS3_16SupplicantStatusEEEE"
  },
  {
   "name":"_ZN7android8hardware4wifi10supplicant4V1_022BpHwSupplicantP2pIface28_hidl_cancelServiceDiscoveryEPNS0_10IInterfaceEPNS0_7details16HidlInstrumentorEyNSt3__18functionIFvRKNS3_16SupplicantStatusEEEE"
  },
  {
   "name":"_ZN7android8hardware4wifi10supplicant4V1_022BpHwSupplicantP2pIface29_hidl_requestServiceDiscoveryEPNS0_10IInterfaceEPNS0_7details16HidlInstrumentorERKNS0_10hidl_arrayIhLj6EJEEERKNS0_8hidl_vecIhEENSt3__18functionIFvRKNS3_16SupplicantStatusEyEEE"
  },
  {
   "name":"_ZN7android8hardware4wifi10supplicant4V1_022BpHwSupplicantP2pIface30_hidl_setDisallowedFrequenciesEPNS0_10IInterfaceEPNS0_7details16HidlInstrumentorERKNS0_8hidl_vecINS3_19ISupplicantP2pIface9FreqRangeEEENSt3__18functionIFvRKNS3_16SupplicantStatusEEEE"
  },
  {
   "name":"_ZN7android8hardware4wifi10supplicant4V1_022BpHwSupplicantP2pIface30createNfcHandoverSelectMessageENSt3__18functionIFvRKNS3_16SupplicantStatusERKNS0_8hidl_vecIhEEEEE"
  },
  {
   "name":"_ZN7android8hardware4wifi10supplicant4V1_022BpHwSupplicantP2pIface31_hidl_reportNfcHandoverResponseEPNS0_10IInterfaceEPNS0_7details16HidlInstrumentorERKNS0_8hidl_vecIhEENSt3__18functionIFvRKNS3_16SupplicantStatusEEEE"
  },
  {
   "name":"_ZN7android8hardware4wifi10supplicant4V1_022BpHwSupplicantP2pIface31createNfcHandoverRequestMessageENSt3__18functionIFvRKNS3_16SupplicantStatusERKNS0_8hidl_vecIhEEEEE"
  },
  {
   "name":"_ZN7android8hardware4wifi10supplicant4V1_022BpHwSupplicantP2pIface33_hidl_reportNfcHandoverInitiationEPNS0_10IInterfaceEPNS0_7details16HidlInstrumentorERKNS0_8hidl_vecIhEENSt3__18functionIFvRKNS3_16SupplicantStatusEEEE"
  },
  {
   "name":"_ZN7android8hardware4wifi10supplicant4V1_022BpHwSupplicantP2pIface36_hidl_createNfcHandoverSelectMessageEPNS0_10IInterfaceEPNS0_7details16HidlInstrumentorENSt3__18functionIFvRKNS3_16SupplicantStatusERKNS0_8hidl_vecIhEEEEE"
  },
  {
   "name":"_ZN7android8hardware4wifi10supplicant4V1_022BpHwSupplicantP2pIface37_hidl_createNfcHandoverRequestMessageEPNS0_10IInterfaceEPNS0_7details16HidlInstrumentorENSt3__18functionIFvRKNS3_16SupplicantStatusERKNS0_8hidl_vecIhEEEEE"
  },
  {
   "name":"_ZN7android8hardware4wifi10supplicant4V1_022BpHwSupplicantP2pIface4findEjNSt3__18functionIFvRKNS3_16SupplicantStatusEEEE"
  },
  {
   "name":"_ZN7android8hardware4wifi10supplicant4V1_022BpHwSupplicantP2pIface4pingEv"
  },
  {
   "name":"_ZN7android8hardware4wifi10supplicant4V1_022BpHwSupplicantP2pIface5debugERKNS0_11hidl_handleERKNS0_8hidl_vecINS0_11hidl_stringEEE"
  },
  {
   "name":"_ZN7android8hardware4wifi10supplicant4V1_022BpHwSupplicantP2pIface5flushENSt3__18functionIFvRKNS3_16SupplicantStatusEEEE"
  },
  {
   "name":"_ZN7android8hardware4wifi10supplicant4V1_022BpHwSupplicantP2pIface6inviteERKNS0_11hidl_stringERKNS0_10hidl_arrayIhLj6EJEEESB_NSt3__18functionIFvRKNS3_16SupplicantStatusEEEE"
  },
  {
   "name":"_ZN7android8hardware4wifi10supplicant4V1_022BpHwSupplicantP2pIface6rejectERKNS0_10hidl_arrayIhLj6EJEEENSt3__18functionIFvRKNS3_16SupplicantStatusEEEE"
  },
  {
   "name":"_ZN7android8hardware4wifi10supplicant4V1_022BpHwSupplicantP2pIface7connectERKNS0_10hidl_arrayIhLj6EJEEENS3_19ISupplicantP2pIface18WpsProvisionMethodERKNS0_11hidl_stringEbbjNSt3__18functionIFvRKNS3_16SupplicantStatusESD_EEE"
  },
  {
   "name":"_ZN7android8hardware4wifi10supplicant4V1_022BpHwSupplicantP2pIface7getNameENSt3__18functionIFvRKNS3_16SupplicantStatusERKNS0_11hidl_stringEEEE"
  },
  {
   "name":"_ZN7android8hardware4wifi10supplicant4V1_022BpHwSupplicantP2pIface7getSsidERKNS0_10hidl_arrayIhLj6EJEEENSt3__18functionIFvRKNS3_16SupplicantStatusERKNS0_8hidl_vecIhEEEEE"
  },
  {
   "name":"_ZN7android8hardware4wifi10supplicant4V1_022BpHwSupplicantP2pIface7getTypeENSt3__18functionIFvRKNS3_16SupplicantStatusENS3_9IfaceTypeEEEE"
  },
  {
   "name":"_ZN7android8hardware4wifi10supplicant4V1_022BpHwSupplicantP2pIface8addGroupEbjNSt3__18functionIFvRKNS3_16SupplicantStatusEEEE"
  },
  {
   "name":"_ZN7android8hardware4wifi10supplicant4V1_022BpHwSupplicantP2pIface8reinvokeEjRKNS0_10hidl_arrayIhLj6EJEEENSt3__18functionIFvRKNS3_16SupplicantStatusEEEE"
  },
  {
   "name":"_ZN7android8hardware4wifi10supplicant4V1_022BpHwSupplicantP2pIface8stopFindENSt3__18functionIFvRKNS3_16SupplicantStatusEEEE"
  },
  {
   "name":"_ZN7android8hardware4wifi10supplicant4V1_022BpHwSupplicantP2pIface9cancelWpsERKNS0_11hidl_stringENSt3__18functionIFvRKNS3_16SupplicantStatusEEEE"
  },
  {
   "name":"_ZN7android8hardware4wifi10supplicant4V1_022BpHwSupplicantP2pIface9enableWfdEbNSt3__18functionIFvRKNS3_16SupplicantStatusEEEE"
  },
  {
   "name":"_ZN7android8hardware4wifi10supplicant4V1_022BpHwSupplicantP2pIfaceC1ERKNS_2spINS0_7IBinderEEE"
  },
  {
   "name":"_ZN7android8hardware4wifi10supplicant4V1_022BpHwSupplicantP2pIfaceC2ERKNS_2spINS0_7IBinderEEE"
  },
  {
   "name":"_ZN7android8hardware4wifi10supplicant4V1_022BpHwSupplicantStaIface10addNetworkENSt3__18functionIFvRKNS3_16SupplicantStatusERKNS_2spINS3_18ISupplicantNetworkEEEEEE"
  },
  {
   "name":"_ZN7android8hardware4wifi10supplicant4V1_022BpHwSupplicantStaIface10disconnectENSt3__18functionIFvRKNS3_16SupplicantStatusEEEE"
  },
  {
   "name":"_ZN7android8hardware4wifi10supplicant4V1_022BpHwSupplicantStaIface10getNetworkEjNSt3__18functionIFvRKNS3_16SupplicantStatusERKNS_2spINS3_18ISupplicantNetworkEEEEEE"
  },
  {
   "name":"_ZN7android8hardware4wifi10supplicant4V1_022BpHwSupplicantStaIface11addRxFilterENS3_19ISupplicantStaIface12RxFilterTypeENSt3__18functionIFvRKNS3_16SupplicantStatusEEEE"
  },
  {
   "name":"_ZN7android8hardware4wifi10supplicant4V1_022BpHwSupplicantStaIface11linkToDeathERKNS_2spINS0_20hidl_death_recipientEEEy"
  },
  {
   "name":"_ZN7android8hardware4wifi10supplicant4V1_022BpHwSupplicantStaIface11reassociateENSt3__18functionIFvRKNS3_16SupplicantStatusEEEE"
  },
  {
   "name":"_ZN7android8hardware4wifi10supplicant4V1_022BpHwSupplicantStaIface11startWpsPbcERKNS0_10hidl_arrayIhLj6EJEEENSt3__18functionIFvRKNS3_16SupplicantStatusEEEE"
  },
  {
   "name":"_ZN7android8hardware4wifi10supplicant4V1_022BpHwSupplicantStaIface12getDebugInfoENSt3__18functionIFvRKNS_4hidl4base4V1_09DebugInfoEEEE"
  },
  {
   "name":"_ZN7android8hardware4wifi10supplicant4V1_022BpHwSupplicantStaIface12getHashChainENSt3__18functionIFvRKNS0_8hidl_vecINS0_10hidl_arrayIhLj32EJEEEEEEEE"
  },
  {
   "name":"_ZN7android8hardware4wifi10supplicant4V1_022BpHwSupplicantStaIface12listNetworksENSt3__18functionIFvRKNS3_16SupplicantStatusERKNS0_8hidl_vecIjEEEEE"
  },
  {
   "name":"_ZN7android8hardware4wifi10supplicant4V1_022BpHwSupplicantStaIface12setPowerSaveEbNSt3__18functionIFvRKNS3_16SupplicantStatusEEEE"
  },
  {
   "name":"_ZN7android8hardware4wifi10supplicant4V1_022BpHwSupplicantStaIface12stopRxFilterENSt3__18functionIFvRKNS3_16SupplicantStatusEEEE"
  },
  {
   "name":"_ZN7android8hardware4wifi10supplicant4V1_022BpHwSupplicantStaIface13getMacAddressENSt3__18functionIFvRKNS3_16SupplicantStatusERKNS0_10hidl_arrayIhLj6EJEEEEEE"
  },
  {
   "name":"_ZN7android8hardware4wifi10supplicant4V1_022BpHwSupplicantStaIface13removeNetworkEjNSt3__18functionIFvRKNS3_16SupplicantStatusEEEE"
  },
  {
   "name":"_ZN7android8hardware4wifi10supplicant4V1_022BpHwSupplicantStaIface13startRxFilterENSt3__18functionIFvRKNS3_16SupplicantStatusEEEE"
  },
  {
   "name":"_ZN7android8hardware4wifi10supplicant4V1_022BpHwSupplicantStaIface13unlinkToDeathERKNS_2spINS0_20hidl_death_recipientEEE"
  },
  {
   "name":"_ZN7android8hardware4wifi10supplicant4V1_022BpHwSupplicantStaIface14interfaceChainENSt3__18functionIFvRKNS0_8hidl_vecINS0_11hidl_stringEEEEEE"
  },
  {
   "name":"_ZN7android8hardware4wifi10supplicant4V1_022BpHwSupplicantStaIface14removeRxFilterENS3_19ISupplicantStaIface12RxFilterTypeENSt3__18functionIFvRKNS3_16SupplicantStatusEEEE"
  },
  {
   "name":"_ZN7android8hardware4wifi10supplicant4V1_022BpHwSupplicantStaIface14setCountryCodeERKNS0_10hidl_arrayIaLj2EJEEENSt3__18functionIFvRKNS3_16SupplicantStatusEEEE"
  },
  {
   "name":"_ZN7android8hardware4wifi10supplicant4V1_022BpHwSupplicantStaIface14setExternalSimEbNSt3__18functionIFvRKNS3_16SupplicantStatusEEEE"
  },
  {
   "name":"_ZN7android8hardware4wifi10supplicant4V1_022BpHwSupplicantStaIface15_hidl_cancelWpsEPNS0_10IInterfaceEPNS0_7details16HidlInstrumentorENSt3__18functionIFvRKNS3_16SupplicantStatusEEEE"
  },
  {
   "name":"_ZN7android8hardware4wifi10supplicant4V1_022BpHwSupplicantStaIface15_hidl_reconnectEPNS0_10IInterfaceEPNS0_7details16HidlInstrumentorENSt3__18functionIFvRKNS3_16SupplicantStatusEEEE"
  },
  {
   "name":"_ZN7android8hardware4wifi10supplicant4V1_022BpHwSupplicantStaIface15addExtRadioWorkERKNS0_11hidl_stringEjjNSt3__18functionIFvRKNS3_16SupplicantStatusEjEEE"
  },
  {
   "name":"_ZN7android8hardware4wifi10supplicant4V1_022BpHwSupplicantStaIface15setWpsModelNameERKNS0_11hidl_stringENSt3__18functionIFvRKNS3_16SupplicantStatusEEEE"
  },
  {
   "name":"_ZN7android8hardware4wifi10supplicant4V1_022BpHwSupplicantStaIface16_hidl_disconnectEPNS0_10IInterfaceEPNS0_7details16HidlInstrumentorENSt3__18functionIFvRKNS3_16SupplicantStatusEEEE"
  },
  {
   "name":"_ZN7android8hardware4wifi10supplicant4V1_022BpHwSupplicantStaIface16registerCallbackERKNS_2spINS3_27ISupplicantStaIfaceCallbackEEENSt3__18functionIFvRKNS3_16SupplicantStatusEEEE"
  },
  {
   "name":"_ZN7android8hardware4wifi10supplicant4V1_022BpHwSupplicantStaIface16setWpsDeviceNameERKNS0_11hidl_stringENSt3__18functionIFvRKNS3_16SupplicantStatusEEEE"
  },
  {
   "name":"_ZN7android8hardware4wifi10supplicant4V1_022BpHwSupplicantStaIface16setWpsDeviceTypeERKNS0_10hidl_arrayIhLj8EJEEENSt3__18functionIFvRKNS3_16SupplicantStatusEEEE"
  },
  {
   "name":"_ZN7android8hardware4wifi10supplicant4V1_022BpHwSupplicantStaIface17_hidl_addRxFilterEPNS0_10IInterfaceEPNS0_7details16HidlInstrumentorENS3_19ISupplicantStaIface12RxFilterTypeENSt3__18functionIFvRKNS3_16SupplicantStatusEEEE"
  },
  {
   "name":"_ZN7android8hardware4wifi10supplicant4V1_022BpHwSupplicantStaIface17_hidl_reassociateEPNS0_10IInterfaceEPNS0_7details16HidlInstrumentorENSt3__18functionIFvRKNS3_16SupplicantStatusEEEE"
  },
  {
   "name":"_ZN7android8hardware4wifi10supplicant4V1_022BpHwSupplicantStaIface17_hidl_startWpsPbcEPNS0_10IInterfaceEPNS0_7details16HidlInstrumentorERKNS0_10hidl_arrayIhLj6EJEEENSt3__18functionIFvRKNS3_16SupplicantStatusEEEE"
  },
  {
   "name":"_ZN7android8hardware4wifi10supplicant4V1_022BpHwSupplicantStaIface17initiateAnqpQueryERKNS0_10hidl_arrayIhLj6EJEEERKNS0_8hidl_vecINS3_19ISupplicantStaIface10AnqpInfoIdEEERKNS9_INSA_16Hs20AnqpSubtypesEEENSt3__18functionIFvRKNS3_16SupplicantStatusEEEE"
  },
  {
   "name":"_ZN7android8hardware4wifi10supplicant4V1_022BpHwSupplicantStaIface17initiateTdlsSetupERKNS0_10hidl_arrayIhLj6EJEEENSt3__18functionIFvRKNS3_16SupplicantStatusEEEE"
  },
  {
   "name":"_ZN7android8hardware4wifi10supplicant4V1_022BpHwSupplicantStaIface17setWpsModelNumberERKNS0_11hidl_stringENSt3__18functionIFvRKNS3_16SupplicantStatusEEEE"
  },
  {
   "name":"_ZN7android8hardware4wifi10supplicant4V1_022BpHwSupplicantStaIface17startWpsPinKeypadERKNS0_11hidl_stringENSt3__18functionIFvRKNS3_16SupplicantStatusEEEE"
  },
  {
   "name":"_ZN7android8hardware4wifi10supplicant4V1_022BpHwSupplicantStaIface17startWpsRegistrarERKNS0_10hidl_arrayIhLj6EJEEERKNS0_11hidl_stringENSt3__18functionIFvRKNS3_16SupplicantStatusEEEE"
  },
  {
   "name":"_ZN7android8hardware4wifi10supplicant4V1_022BpHwSupplicantStaIface18_hidl_setPowerSaveEPNS0_10IInterfaceEPNS0_7details16HidlInstrumentorEbNSt3__18functionIFvRKNS3_16SupplicantStatusEEEE"
  },
  {
   "name":"_ZN7android8hardware4wifi10supplicant4V1_022BpHwSupplicantStaIface18_hidl_stopRxFilterEPNS0_10IInterfaceEPNS0_7details16HidlInstrumentorENSt3__18functionIFvRKNS3_16SupplicantStatusEEEE"
  },
  {
   "name":"_ZN7android8hardware4wifi10supplicant4V1_022BpHwSupplicantStaIface18removeExtRadioWorkEjNSt3__18functionIFvRKNS3_16SupplicantStatusEEEE"
  },
  {
   "name":"_ZN7android8hardware4wifi10supplicant4V1_022BpHwSupplicantStaIface18setWpsManufacturerERKNS0_11hidl_stringENSt3__18functionIFvRKNS3_16SupplicantStatusEEEE"
  },
  {
   "name":"_ZN7android8hardware4wifi10supplicant4V1_022BpHwSupplicantStaIface18setWpsSerialNumberERKNS0_11hidl_stringENSt3__18functionIFvRKNS3_16SupplicantStatusEEEE"
  },
  {
   "name":"_ZN7android8hardware4wifi10supplicant4V1_022BpHwSupplicantStaIface18startWpsPinDisplayERKNS0_10hidl_arrayIhLj6EJEEENSt3__18functionIFvRKNS3_16SupplicantStatusERKNS0_11hidl_stringEEEE"
  },
  {
   "name":"_ZN7android8hardware4wifi10supplicant4V1_022BpHwSupplicantStaIface19_hidl_getMacAddressEPNS0_10IInterfaceEPNS0_7details16HidlInstrumentorENSt3__18functionIFvRKNS3_16SupplicantStatusERKNS0_10hidl_arrayIhLj6EJEEEEEE"
  },
  {
   "name":"_ZN7android8hardware4wifi10supplicant4V1_022BpHwSupplicantStaIface19_hidl_startRxFilterEPNS0_10IInterfaceEPNS0_7details16HidlInstrumentorENSt3__18functionIFvRKNS3_16SupplicantStatusEEEE"
  },
  {
   "name":"_ZN7android8hardware4wifi10supplicant4V1_022BpHwSupplicantStaIface19enableAutoReconnectEbNSt3__18functionIFvRKNS3_16SupplicantStatusEEEE"
  },
  {
   "name":"_ZN7android8hardware4wifi10supplicant4V1_022BpHwSupplicantStaIface19interfaceDescriptorENSt3__18functionIFvRKNS0_11hidl_stringEEEE"
  },
  {
   "name":"_ZN7android8hardware4wifi10supplicant4V1_022BpHwSupplicantStaIface19setWpsConfigMethodsEtNSt3__18functionIFvRKNS3_16SupplicantStatusEEEE"
  },
  {
   "name":"_ZN7android8hardware4wifi10supplicant4V1_022BpHwSupplicantStaIface20_hidl_removeRxFilterEPNS0_10IInterfaceEPNS0_7details16HidlInstrumentorENS3_19ISupplicantStaIface12RxFilterTypeENSt3__18functionIFvRKNS3_16SupplicantStatusEEEE"
  },
  {
   "name":"_ZN7android8hardware4wifi10supplicant4V1_022BpHwSupplicantStaIface20_hidl_setCountryCodeEPNS0_10IInterfaceEPNS0_7details16HidlInstrumentorERKNS0_10hidl_arrayIaLj2EJEEENSt3__18functionIFvRKNS3_16SupplicantStatusEEEE"
  },
  {
   "name":"_ZN7android8hardware4wifi10supplicant4V1_022BpHwSupplicantStaIface20_hidl_setExternalSimEPNS0_10IInterfaceEPNS0_7details16HidlInstrumentorEbNSt3__18functionIFvRKNS3_16SupplicantStatusEEEE"
  },
  {
   "name":"_ZN7android8hardware4wifi10supplicant4V1_022BpHwSupplicantStaIface20initiateTdlsDiscoverERKNS0_10hidl_arrayIhLj6EJEEENSt3__18functionIFvRKNS3_16SupplicantStatusEEEE"
  },
  {
   "name":"_ZN7android8hardware4wifi10supplicant4V1_022BpHwSupplicantStaIface20initiateTdlsTeardownERKNS0_10hidl_arrayIhLj6EJEEENSt3__18functionIFvRKNS3_16SupplicantStatusEEEE"
  },
  {
   "name":"_ZN7android8hardware4wifi10supplicant4V1_022BpHwSupplicantStaIface20setBtCoexistenceModeENS3_19ISupplicantStaIface17BtCoexistenceModeENSt3__18functionIFvRKNS3_16SupplicantStatusEEEE"
  },
  {
   "name":"_ZN7android8hardware4wifi10supplicant4V1_022BpHwSupplicantStaIface21_hidl_addExtRadioWorkEPNS0_10IInterfaceEPNS0_7details16HidlInstrumentorERKNS0_11hidl_stringEjjNSt3__18functionIFvRKNS3_16SupplicantStatusEjEEE"
  },
  {
   "name":"_ZN7android8hardware4wifi10supplicant4V1_022BpHwSupplicantStaIface21initiateHs20IconQueryERKNS0_10hidl_arrayIhLj6EJEEERKNS0_11hidl_stringENSt3__18functionIFvRKNS3_16SupplicantStatusEEEE"
  },
  {
   "name":"_ZN7android8hardware4wifi10supplicant4V1_022BpHwSupplicantStaIface21notifySyspropsChangedEv"
  },
  {
   "name":"_ZN7android8hardware4wifi10supplicant4V1_022BpHwSupplicantStaIface21setHALInstrumentationEv"
  },
  {
   "name":"_ZN7android8hardware4wifi10supplicant4V1_022BpHwSupplicantStaIface21setSuspendModeEnabledEbNSt3__18functionIFvRKNS3_16SupplicantStatusEEEE"
  },
  {
   "name":"_ZN7android8hardware4wifi10supplicant4V1_022BpHwSupplicantStaIface22_hidl_registerCallbackEPNS0_10IInterfaceEPNS0_7details16HidlInstrumentorERKNS_2spINS3_27ISupplicantStaIfaceCallbackEEENSt3__18functionIFvRKNS3_16SupplicantStatusEEEE"
  },
  {
   "name":"_ZN7android8hardware4wifi10supplicant4V1_022BpHwSupplicantStaIface23_hidl_initiateAnqpQueryEPNS0_10IInterfaceEPNS0_7details16HidlInstrumentorERKNS0_10hidl_arrayIhLj6EJEEERKNS0_8hidl_vecINS3_19ISupplicantStaIface10AnqpInfoIdEEERKNSE_INSF_16Hs20AnqpSubtypesEEENSt3__18functionIFvRKNS3_16SupplicantStatusEEEE"
  },
  {
   "name":"_ZN7android8hardware4wifi10supplicant4V1_022BpHwSupplicantStaIface23_hidl_initiateTdlsSetupEPNS0_10IInterfaceEPNS0_7details16HidlInstrumentorERKNS0_10hidl_arrayIhLj6EJEEENSt3__18functionIFvRKNS3_16SupplicantStatusEEEE"
  },
  {
   "name":"_ZN7android8hardware4wifi10supplicant4V1_022BpHwSupplicantStaIface23_hidl_startWpsPinKeypadEPNS0_10IInterfaceEPNS0_7details16HidlInstrumentorERKNS0_11hidl_stringENSt3__18functionIFvRKNS3_16SupplicantStatusEEEE"
  },
  {
   "name":"_ZN7android8hardware4wifi10supplicant4V1_022BpHwSupplicantStaIface23_hidl_startWpsRegistrarEPNS0_10IInterfaceEPNS0_7details16HidlInstrumentorERKNS0_10hidl_arrayIhLj6EJEEERKNS0_11hidl_stringENSt3__18functionIFvRKNS3_16SupplicantStatusEEEE"
  },
  {
   "name":"_ZN7android8hardware4wifi10supplicant4V1_022BpHwSupplicantStaIface24_hidl_removeExtRadioWorkEPNS0_10IInterfaceEPNS0_7details16HidlInstrumentorEjNSt3__18functionIFvRKNS3_16SupplicantStatusEEEE"
  },
  {
   "name":"_ZN7android8hardware4wifi10supplicant4V1_022BpHwSupplicantStaIface24_hidl_startWpsPinDisplayEPNS0_10IInterfaceEPNS0_7details16HidlInstrumentorERKNS0_10hidl_arrayIhLj6EJEEENSt3__18functionIFvRKNS3_16SupplicantStatusERKNS0_11hidl_stringEEEE"
  },
  {
   "name":"_ZN7android8hardware4wifi10supplicant4V1_022BpHwSupplicantStaIface25_hidl_enableAutoReconnectEPNS0_10IInterfaceEPNS0_7details16HidlInstrumentorEbNSt3__18functionIFvRKNS3_16SupplicantStatusEEEE"
  },
  {
   "name":"_ZN7android8hardware4wifi10supplicant4V1_022BpHwSupplicantStaIface26_hidl_initiateTdlsDiscoverEPNS0_10IInterfaceEPNS0_7details16HidlInstrumentorERKNS0_10hidl_arrayIhLj6EJEEENSt3__18functionIFvRKNS3_16SupplicantStatusEEEE"
  },
  {
   "name":"_ZN7android8hardware4wifi10supplicant4V1_022BpHwSupplicantStaIface26_hidl_initiateTdlsTeardownEPNS0_10IInterfaceEPNS0_7details16HidlInstrumentorERKNS0_10hidl_arrayIhLj6EJEEENSt3__18functionIFvRKNS3_16SupplicantStatusEEEE"
  },
  {
   "name":"_ZN7android8hardware4wifi10supplicant4V1_022BpHwSupplicantStaIface26_hidl_setBtCoexistenceModeEPNS0_10IInterfaceEPNS0_7details16HidlInstrumentorENS3_19ISupplicantStaIface17BtCoexistenceModeENSt3__18functionIFvRKNS3_16SupplicantStatusEEEE"
  },
  {
   "name":"_ZN7android8hardware4wifi10supplicant4V1_022BpHwSupplicantStaIface27_hidl_initiateHs20IconQueryEPNS0_10IInterfaceEPNS0_7details16HidlInstrumentorERKNS0_10hidl_arrayIhLj6EJEEERKNS0_11hidl_stringENSt3__18functionIFvRKNS3_16SupplicantStatusEEEE"
  },
  {
   "name":"_ZN7android8hardware4wifi10supplicant4V1_022BpHwSupplicantStaIface27_hidl_setSuspendModeEnabledEPNS0_10IInterfaceEPNS0_7details16HidlInstrumentorEbNSt3__18functionIFvRKNS3_16SupplicantStatusEEEE"
  },
  {
   "name":"_ZN7android8hardware4wifi10supplicant4V1_022BpHwSupplicantStaIface31setBtCoexistenceScanModeEnabledEbNSt3__18functionIFvRKNS3_16SupplicantStatusEEEE"
  },
  {
   "name":"_ZN7android8hardware4wifi10supplicant4V1_022BpHwSupplicantStaIface37_hidl_setBtCoexistenceScanModeEnabledEPNS0_10IInterfaceEPNS0_7details16HidlInstrumentorEbNSt3__18functionIFvRKNS3_16SupplicantStatusEEEE"
  },
  {
   "name":"_ZN7android8hardware4wifi10supplicant4V1_022BpHwSupplicantStaIface4pingEv"
  },
  {
   "name":"_ZN7android8hardware4wifi10supplicant4V1_022BpHwSupplicantStaIface5debugERKNS0_11hidl_handleERKNS0_8hidl_vecINS0_11hidl_stringEEE"
  },
  {
   "name":"_ZN7android8hardware4wifi10supplicant4V1_022BpHwSupplicantStaIface7getNameENSt3__18functionIFvRKNS3_16SupplicantStatusERKNS0_11hidl_stringEEEE"
  },
  {
   "name":"_ZN7android8hardware4wifi10supplicant4V1_022BpHwSupplicantStaIface7getTypeENSt3__18functionIFvRKNS3_16SupplicantStatusENS3_9IfaceTypeEEEE"
  },
  {
   "name":"_ZN7android8hardware4wifi10supplicant4V1_022BpHwSupplicantStaIface9cancelWpsENSt3__18functionIFvRKNS3_16SupplicantStatusEEEE"
  },
  {
   "name":"_ZN7android8hardware4wifi10supplicant4V1_022BpHwSupplicantStaIface9reconnectENSt3__18functionIFvRKNS3_16SupplicantStatusEEEE"
  },
  {
   "name":"_ZN7android8hardware4wifi10supplicant4V1_022BpHwSupplicantStaIfaceC1ERKNS_2spINS0_7IBinderEEE"
  },
  {
   "name":"_ZN7android8hardware4wifi10supplicant4V1_022BpHwSupplicantStaIfaceC2ERKNS_2spINS0_7IBinderEEE"
  },
  {
   "name":"_ZN7android8hardware4wifi10supplicant4V1_022BsSupplicantP2pNetwork13addOnewayTaskENSt3__18functionIFvvEEE"
  },
  {
   "name":"_ZN7android8hardware4wifi10supplicant4V1_022BsSupplicantP2pNetworkC1ENS_2spINS3_21ISupplicantP2pNetworkEEE"
  },
  {
   "name":"_ZN7android8hardware4wifi10supplicant4V1_022BsSupplicantP2pNetworkC2ENS_2spINS3_21ISupplicantP2pNetworkEEE"
  },
  {
   "name":"_ZN7android8hardware4wifi10supplicant4V1_022BsSupplicantStaNetwork13addOnewayTaskENSt3__18functionIFvvEEE"
  },
  {
   "name":"_ZN7android8hardware4wifi10supplicant4V1_022BsSupplicantStaNetworkC1ENS_2spINS3_21ISupplicantStaNetworkEEE"
  },
  {
   "name":"_ZN7android8hardware4wifi10supplicant4V1_022BsSupplicantStaNetworkC2ENS_2spINS3_21ISupplicantStaNetworkEEE"
  },
  {
   "name":"_ZN7android8hardware4wifi10supplicant4V1_022readEmbeddedFromParcelERKNS3_11ISupplicant9IfaceInfoERKNS0_6ParcelEjj"
  },
  {
   "name":"_ZN7android8hardware4wifi10supplicant4V1_022readEmbeddedFromParcelERKNS3_16SupplicantStatusERKNS0_6ParcelEjj"
  },
  {
   "name":"_ZN7android8hardware4wifi10supplicant4V1_022readEmbeddedFromParcelERKNS3_21ISupplicantStaNetwork35NetworkResponseEapSimUmtsAuthParamsERKNS0_6ParcelEjj"
  },
  {
   "name":"_ZN7android8hardware4wifi10supplicant4V1_022readEmbeddedFromParcelERKNS3_27ISupplicantStaIfaceCallback12Hs20AnqpDataERKNS0_6ParcelEjj"
  },
  {
   "name":"_ZN7android8hardware4wifi10supplicant4V1_022readEmbeddedFromParcelERKNS3_27ISupplicantStaIfaceCallback8AnqpDataERKNS0_6ParcelEjj"
  },
  {
   "name":"_ZN7android8hardware4wifi10supplicant4V1_022readEmbeddedFromParcelERKNS3_29ISupplicantStaNetworkCallback33NetworkRequestEapSimGsmAuthParamsERKNS0_6ParcelEjj"
  },
  {
   "name":"_ZN7android8hardware4wifi10supplicant4V1_024BnHwSupplicantP2pNetwork10_hidl_isGoEPNS_4hidl4base4V1_08BnHwBaseERKNS0_6ParcelEPSA_NSt3__18functionIFvRSA_EEE"
  },
  {
   "name":"_ZN7android8hardware4wifi10supplicant4V1_024BnHwSupplicantP2pNetwork10onTransactEjRKNS0_6ParcelEPS5_jNSt3__18functionIFvRS5_EEE"
  },
  {
   "name":"_ZN7android8hardware4wifi10supplicant4V1_024BnHwSupplicantP2pNetwork12getDebugInfoENSt3__18functionIFvRKNS_4hidl4base4V1_09DebugInfoEEEE"
  },
  {
   "name":"_ZN7android8hardware4wifi10supplicant4V1_024BnHwSupplicantP2pNetwork13_hidl_getSsidEPNS_4hidl4base4V1_08BnHwBaseERKNS0_6ParcelEPSA_NSt3__18functionIFvRSA_EEE"
  },
  {
   "name":"_ZN7android8hardware4wifi10supplicant4V1_024BnHwSupplicantP2pNetwork14_hidl_getBssidEPNS_4hidl4base4V1_08BnHwBaseERKNS0_6ParcelEPSA_NSt3__18functionIFvRSA_EEE"
  },
  {
   "name":"_ZN7android8hardware4wifi10supplicant4V1_024BnHwSupplicantP2pNetwork15_hidl_isCurrentEPNS_4hidl4base4V1_08BnHwBaseERKNS0_6ParcelEPSA_NSt3__18functionIFvRSA_EEE"
  },
  {
   "name":"_ZN7android8hardware4wifi10supplicant4V1_024BnHwSupplicantP2pNetwork18_hidl_isPersistentEPNS_4hidl4base4V1_08BnHwBaseERKNS0_6ParcelEPSA_NSt3__18functionIFvRSA_EEE"
  },
  {
   "name":"_ZN7android8hardware4wifi10supplicant4V1_024BnHwSupplicantP2pNetwork19_hidl_getClientListEPNS_4hidl4base4V1_08BnHwBaseERKNS0_6ParcelEPSA_NSt3__18functionIFvRSA_EEE"
  },
  {
   "name":"_ZN7android8hardware4wifi10supplicant4V1_024BnHwSupplicantP2pNetwork19_hidl_setClientListEPNS_4hidl4base4V1_08BnHwBaseERKNS0_6ParcelEPSA_NSt3__18functionIFvRSA_EEE"
  },
  {
   "name":"_ZN7android8hardware4wifi10supplicant4V1_024BnHwSupplicantP2pNetwork22_hidl_registerCallbackEPNS_4hidl4base4V1_08BnHwBaseERKNS0_6ParcelEPSA_NSt3__18functionIFvRSA_EEE"
  },
  {
   "name":"_ZN7android8hardware4wifi10supplicant4V1_024BnHwSupplicantP2pNetwork4pingEv"
  },
  {
   "name":"_ZN7android8hardware4wifi10supplicant4V1_024BnHwSupplicantP2pNetworkC1ERKNS_2spINS3_21ISupplicantP2pNetworkEEE"
  },
  {
   "name":"_ZN7android8hardware4wifi10supplicant4V1_024BnHwSupplicantP2pNetworkC2ERKNS_2spINS3_21ISupplicantP2pNetworkEEE"
  },
  {
   "name":"_ZN7android8hardware4wifi10supplicant4V1_024BnHwSupplicantP2pNetworkD0Ev"
  },
  {
   "name":"_ZN7android8hardware4wifi10supplicant4V1_024BnHwSupplicantP2pNetworkD1Ev"
  },
  {
   "name":"_ZN7android8hardware4wifi10supplicant4V1_024BnHwSupplicantP2pNetworkD2Ev"
  },
  {
   "name":"_ZN7android8hardware4wifi10supplicant4V1_024BnHwSupplicantStaNetwork10onTransactEjRKNS0_6ParcelEPS5_jNSt3__18functionIFvRS5_EEE"
  },
  {
   "name":"_ZN7android8hardware4wifi10supplicant4V1_024BnHwSupplicantStaNetwork12_hidl_enableEPNS_4hidl4base4V1_08BnHwBaseERKNS0_6ParcelEPSA_NSt3__18functionIFvRSA_EEE"
  },
  {
   "name":"_ZN7android8hardware4wifi10supplicant4V1_024BnHwSupplicantStaNetwork12_hidl_getPskEPNS_4hidl4base4V1_08BnHwBaseERKNS0_6ParcelEPSA_NSt3__18functionIFvRSA_EEE"
  },
  {
   "name":"_ZN7android8hardware4wifi10supplicant4V1_024BnHwSupplicantStaNetwork12_hidl_selectEPNS_4hidl4base4V1_08BnHwBaseERKNS0_6ParcelEPSA_NSt3__18functionIFvRSA_EEE"
  },
  {
   "name":"_ZN7android8hardware4wifi10supplicant4V1_024BnHwSupplicantStaNetwork12_hidl_setPskEPNS_4hidl4base4V1_08BnHwBaseERKNS0_6ParcelEPSA_NSt3__18functionIFvRSA_EEE"
  },
  {
   "name":"_ZN7android8hardware4wifi10supplicant4V1_024BnHwSupplicantStaNetwork12getDebugInfoENSt3__18functionIFvRKNS_4hidl4base4V1_09DebugInfoEEEE"
  },
  {
   "name":"_ZN7android8hardware4wifi10supplicant4V1_024BnHwSupplicantStaNetwork13_hidl_disableEPNS_4hidl4base4V1_08BnHwBaseERKNS0_6ParcelEPSA_NSt3__18functionIFvRSA_EEE"
  },
  {
   "name":"_ZN7android8hardware4wifi10supplicant4V1_024BnHwSupplicantStaNetwork13_hidl_getSsidEPNS_4hidl4base4V1_08BnHwBaseERKNS0_6ParcelEPSA_NSt3__18functionIFvRSA_EEE"
  },
  {
   "name":"_ZN7android8hardware4wifi10supplicant4V1_024BnHwSupplicantStaNetwork13_hidl_setSsidEPNS_4hidl4base4V1_08BnHwBaseERKNS0_6ParcelEPSA_NSt3__18functionIFvRSA_EEE"
  },
  {
   "name":"_ZN7android8hardware4wifi10supplicant4V1_024BnHwSupplicantStaNetwork14_hidl_getBssidEPNS_4hidl4base4V1_08BnHwBaseERKNS0_6ParcelEPSA_NSt3__18functionIFvRSA_EEE"
  },
  {
   "name":"_ZN7android8hardware4wifi10supplicant4V1_024BnHwSupplicantStaNetwork14_hidl_getIdStrEPNS_4hidl4base4V1_08BnHwBaseERKNS0_6ParcelEPSA_NSt3__18functionIFvRSA_EEE"
  },
  {
   "name":"_ZN7android8hardware4wifi10supplicant4V1_024BnHwSupplicantStaNetwork14_hidl_getProtoEPNS_4hidl4base4V1_08BnHwBaseERKNS0_6ParcelEPSA_NSt3__18functionIFvRSA_EEE"
  },
  {
   "name":"_ZN7android8hardware4wifi10supplicant4V1_024BnHwSupplicantStaNetwork14_hidl_setBssidEPNS_4hidl4base4V1_08BnHwBaseERKNS0_6ParcelEPSA_NSt3__18functionIFvRSA_EEE"
  },
  {
   "name":"_ZN7android8hardware4wifi10supplicant4V1_024BnHwSupplicantStaNetwork14_hidl_setIdStrEPNS_4hidl4base4V1_08BnHwBaseERKNS0_6ParcelEPSA_NSt3__18functionIFvRSA_EEE"
  },
  {
   "name":"_ZN7android8hardware4wifi10supplicant4V1_024BnHwSupplicantStaNetwork14_hidl_setProtoEPNS_4hidl4base4V1_08BnHwBaseERKNS0_6ParcelEPSA_NSt3__18functionIFvRSA_EEE"
  },
  {
   "name":"_ZN7android8hardware4wifi10supplicant4V1_024BnHwSupplicantStaNetwork15_hidl_getWepKeyEPNS_4hidl4base4V1_08BnHwBaseERKNS0_6ParcelEPSA_NSt3__18functionIFvRSA_EEE"
  },
  {
   "name":"_ZN7android8hardware4wifi10supplicant4V1_024BnHwSupplicantStaNetwork15_hidl_setWepKeyEPNS_4hidl4base4V1_08BnHwBaseERKNS0_6ParcelEPSA_NSt3__18functionIFvRSA_EEE"
  },
  {
   "name":"_ZN7android8hardware4wifi10supplicant4V1_024BnHwSupplicantStaNetwork16_hidl_getAuthAlgEPNS_4hidl4base4V1_08BnHwBaseERKNS0_6ParcelEPSA_NSt3__18functionIFvRSA_EEE"
  },
  {
   "name":"_ZN7android8hardware4wifi10supplicant4V1_024BnHwSupplicantStaNetwork16_hidl_getKeyMgmtEPNS_4hidl4base4V1_08BnHwBaseERKNS0_6ParcelEPSA_NSt3__18functionIFvRSA_EEE"
  },
  {
   "name":"_ZN7android8hardware4wifi10supplicant4V1_024BnHwSupplicantStaNetwork16_hidl_setAuthAlgEPNS_4hidl4base4V1_08BnHwBaseERKNS0_6ParcelEPSA_NSt3__18functionIFvRSA_EEE"
  },
  {
   "name":"_ZN7android8hardware4wifi10supplicant4V1_024BnHwSupplicantStaNetwork16_hidl_setKeyMgmtEPNS_4hidl4base4V1_08BnHwBaseERKNS0_6ParcelEPSA_NSt3__18functionIFvRSA_EEE"
  },
  {
   "name":"_ZN7android8hardware4wifi10supplicant4V1_024BnHwSupplicantStaNetwork17_hidl_getScanSsidEPNS_4hidl4base4V1_08BnHwBaseERKNS0_6ParcelEPSA_NSt3__18functionIFvRSA_EEE"
  },
  {
   "name":"_ZN7android8hardware4wifi10supplicant4V1_024BnHwSupplicantStaNetwork17_hidl_setScanSsidEPNS_4hidl4base4V1_08BnHwBaseERKNS0_6ParcelEPSA_NSt3__18functionIFvRSA_EEE"
  },
  {
   "name":"_ZN7android8hardware4wifi10supplicant4V1_024BnHwSupplicantStaNetwork18_hidl_getEapCACertEPNS_4hidl4base4V1_08BnHwBaseERKNS0_6ParcelEPSA_NSt3__18functionIFvRSA_EEE"
  },
  {
   "name":"_ZN7android8hardware4wifi10supplicant4V1_024BnHwSupplicantStaNetwork18_hidl_getEapCAPathEPNS_4hidl4base4V1_08BnHwBaseERKNS0_6ParcelEPSA_NSt3__18functionIFvRSA_EEE"
  },
  {
   "name":"_ZN7android8hardware4wifi10supplicant4V1_024BnHwSupplicantStaNetwork18_hidl_getEapEngineEPNS_4hidl4base4V1_08BnHwBaseERKNS0_6ParcelEPSA_NSt3__18functionIFvRSA_EEE"
  },
  {
   "name":"_ZN7android8hardware4wifi10supplicant4V1_024BnHwSupplicantStaNetwork18_hidl_getEapMethodEPNS_4hidl4base4V1_08BnHwBaseERKNS0_6ParcelEPSA_NSt3__18functionIFvRSA_EEE"
  },
  {
   "name":"_ZN7android8hardware4wifi10supplicant4V1_024BnHwSupplicantStaNetwork18_hidl_setEapCACertEPNS_4hidl4base4V1_08BnHwBaseERKNS0_6ParcelEPSA_NSt3__18functionIFvRSA_EEE"
  },
  {
   "name":"_ZN7android8hardware4wifi10supplicant4V1_024BnHwSupplicantStaNetwork18_hidl_setEapCAPathEPNS_4hidl4base4V1_08BnHwBaseERKNS0_6ParcelEPSA_NSt3__18functionIFvRSA_EEE"
  },
  {
   "name":"_ZN7android8hardware4wifi10supplicant4V1_024BnHwSupplicantStaNetwork18_hidl_setEapEngineEPNS_4hidl4base4V1_08BnHwBaseERKNS0_6ParcelEPSA_NSt3__18functionIFvRSA_EEE"
  },
  {
   "name":"_ZN7android8hardware4wifi10supplicant4V1_024BnHwSupplicantStaNetwork18_hidl_setEapMethodEPNS_4hidl4base4V1_08BnHwBaseERKNS0_6ParcelEPSA_NSt3__18functionIFvRSA_EEE"
  },
  {
   "name":"_ZN7android8hardware4wifi10supplicant4V1_024BnHwSupplicantStaNetwork19_hidl_getRequirePmfEPNS_4hidl4base4V1_08BnHwBaseERKNS0_6ParcelEPSA_NSt3__18functionIFvRSA_EEE"
  },
  {
   "name":"_ZN7android8hardware4wifi10supplicant4V1_024BnHwSupplicantStaNetwork19_hidl_setRequirePmfEPNS_4hidl4base4V1_08BnHwBaseERKNS0_6ParcelEPSA_NSt3__18functionIFvRSA_EEE"
  },
  {
   "name":"_ZN7android8hardware4wifi10supplicant4V1_024BnHwSupplicantStaNetwork20_hidl_getEapEngineIDEPNS_4hidl4base4V1_08BnHwBaseERKNS0_6ParcelEPSA_NSt3__18functionIFvRSA_EEE"
  },
  {
   "name":"_ZN7android8hardware4wifi10supplicant4V1_024BnHwSupplicantStaNetwork20_hidl_getEapIdentityEPNS_4hidl4base4V1_08BnHwBaseERKNS0_6ParcelEPSA_NSt3__18functionIFvRSA_EEE"
  },
  {
   "name":"_ZN7android8hardware4wifi10supplicant4V1_024BnHwSupplicantStaNetwork20_hidl_getEapPasswordEPNS_4hidl4base4V1_08BnHwBaseERKNS0_6ParcelEPSA_NSt3__18functionIFvRSA_EEE"
  },
  {
   "name":"_ZN7android8hardware4wifi10supplicant4V1_024BnHwSupplicantStaNetwork20_hidl_getGroupCipherEPNS_4hidl4base4V1_08BnHwBaseERKNS0_6ParcelEPSA_NSt3__18functionIFvRSA_EEE"
  },
  {
   "name":"_ZN7android8hardware4wifi10supplicant4V1_024BnHwSupplicantStaNetwork20_hidl_getWepTxKeyIdxEPNS_4hidl4base4V1_08BnHwBaseERKNS0_6ParcelEPSA_NSt3__18functionIFvRSA_EEE"
  },
  {
   "name":"_ZN7android8hardware4wifi10supplicant4V1_024BnHwSupplicantStaNetwork20_hidl_setEapEngineIDEPNS_4hidl4base4V1_08BnHwBaseERKNS0_6ParcelEPSA_NSt3__18functionIFvRSA_EEE"
  },
  {
   "name":"_ZN7android8hardware4wifi10supplicant4V1_024BnHwSupplicantStaNetwork20_hidl_setEapIdentityEPNS_4hidl4base4V1_08BnHwBaseERKNS0_6ParcelEPSA_NSt3__18functionIFvRSA_EEE"
  },
  {
   "name":"_ZN7android8hardware4wifi10supplicant4V1_024BnHwSupplicantStaNetwork20_hidl_setEapPasswordEPNS_4hidl4base4V1_08BnHwBaseERKNS0_6ParcelEPSA_NSt3__18functionIFvRSA_EEE"
  },
  {
   "name":"_ZN7android8hardware4wifi10supplicant4V1_024BnHwSupplicantStaNetwork20_hidl_setGroupCipherEPNS_4hidl4base4V1_08BnHwBaseERKNS0_6ParcelEPSA_NSt3__18functionIFvRSA_EEE"
  },
  {
   "name":"_ZN7android8hardware4wifi10supplicant4V1_024BnHwSupplicantStaNetwork20_hidl_setWepTxKeyIdxEPNS_4hidl4base4V1_08BnHwBaseERKNS0_6ParcelEPSA_NSt3__18functionIFvRSA_EEE"
  },
  {
   "name":"_ZN7android8hardware4wifi10supplicant4V1_024BnHwSupplicantStaNetwork22_hidl_getEapClientCertEPNS_4hidl4base4V1_08BnHwBaseERKNS0_6ParcelEPSA_NSt3__18functionIFvRSA_EEE"
  },
  {
   "name":"_ZN7android8hardware4wifi10supplicant4V1_024BnHwSupplicantStaNetwork22_hidl_getPskPassphraseEPNS_4hidl4base4V1_08BnHwBaseERKNS0_6ParcelEPSA_NSt3__18functionIFvRSA_EEE"
  },
  {
   "name":"_ZN7android8hardware4wifi10supplicant4V1_024BnHwSupplicantStaNetwork22_hidl_registerCallbackEPNS_4hidl4base4V1_08BnHwBaseERKNS0_6ParcelEPSA_NSt3__18functionIFvRSA_EEE"
  },
  {
   "name":"_ZN7android8hardware4wifi10supplicant4V1_024BnHwSupplicantStaNetwork22_hidl_setEapClientCertEPNS_4hidl4base4V1_08BnHwBaseERKNS0_6ParcelEPSA_NSt3__18functionIFvRSA_EEE"
  },
  {
   "name":"_ZN7android8hardware4wifi10supplicant4V1_024BnHwSupplicantStaNetwork22_hidl_setPskPassphraseEPNS_4hidl4base4V1_08BnHwBaseERKNS0_6ParcelEPSA_NSt3__18functionIFvRSA_EEE"
  },
  {
   "name":"_ZN7android8hardware4wifi10supplicant4V1_024BnHwSupplicantStaNetwork23_hidl_getPairwiseCipherEPNS_4hidl4base4V1_08BnHwBaseERKNS0_6ParcelEPSA_NSt3__18functionIFvRSA_EEE"
  },
  {
   "name":"_ZN7android8hardware4wifi10supplicant4V1_024BnHwSupplicantStaNetwork23_hidl_setPairwiseCipherEPNS_4hidl4base4V1_08BnHwBaseERKNS0_6ParcelEPSA_NSt3__18functionIFvRSA_EEE"
  },
  {
   "name":"_ZN7android8hardware4wifi10supplicant4V1_024BnHwSupplicantStaNetwork24_hidl_getEapPhase2MethodEPNS_4hidl4base4V1_08BnHwBaseERKNS0_6ParcelEPSA_NSt3__18functionIFvRSA_EEE"
  },
  {
   "name":"_ZN7android8hardware4wifi10supplicant4V1_024BnHwSupplicantStaNetwork24_hidl_getEapPrivateKeyIdEPNS_4hidl4base4V1_08BnHwBaseERKNS0_6ParcelEPSA_NSt3__18functionIFvRSA_EEE"
  },
  {
   "name":"_ZN7android8hardware4wifi10supplicant4V1_024BnHwSupplicantStaNetwork24_hidl_getEapSubjectMatchEPNS_4hidl4base4V1_08BnHwBaseERKNS0_6ParcelEPSA_NSt3__18functionIFvRSA_EEE"
  },
  {
   "name":"_ZN7android8hardware4wifi10supplicant4V1_024BnHwSupplicantStaNetwork24_hidl_setEapPhase2MethodEPNS_4hidl4base4V1_08BnHwBaseERKNS0_6ParcelEPSA_NSt3__18functionIFvRSA_EEE"
  },
  {
   "name":"_ZN7android8hardware4wifi10supplicant4V1_024BnHwSupplicantStaNetwork24_hidl_setEapPrivateKeyIdEPNS_4hidl4base4V1_08BnHwBaseERKNS0_6ParcelEPSA_NSt3__18functionIFvRSA_EEE"
  },
  {
   "name":"_ZN7android8hardware4wifi10supplicant4V1_024BnHwSupplicantStaNetwork24_hidl_setEapSubjectMatchEPNS_4hidl4base4V1_08BnHwBaseERKNS0_6ParcelEPSA_NSt3__18functionIFvRSA_EEE"
  },
  {
   "name":"_ZN7android8hardware4wifi10supplicant4V1_024BnHwSupplicantStaNetwork25_hidl_setUpdateIdentifierEPNS_4hidl4base4V1_08BnHwBaseERKNS0_6ParcelEPSA_NSt3__18functionIFvRSA_EEE"
  },
  {
   "name":"_ZN7android8hardware4wifi10supplicant4V1_024BnHwSupplicantStaNetwork27_hidl_getEapAltSubjectMatchEPNS_4hidl4base4V1_08BnHwBaseERKNS0_6ParcelEPSA_NSt3__18functionIFvRSA_EEE"
  },
  {
   "name":"_ZN7android8hardware4wifi10supplicant4V1_024BnHwSupplicantStaNetwork27_hidl_setEapAltSubjectMatchEPNS_4hidl4base4V1_08BnHwBaseERKNS0_6ParcelEPSA_NSt3__18functionIFvRSA_EEE"
  },
  {
   "name":"_ZN7android8hardware4wifi10supplicant4V1_024BnHwSupplicantStaNetwork28_hidl_setProactiveKeyCachingEPNS_4hidl4base4V1_08BnHwBaseERKNS0_6ParcelEPSA_NSt3__18functionIFvRSA_EEE"
  },
  {
   "name":"_ZN7android8hardware4wifi10supplicant4V1_024BnHwSupplicantStaNetwork29_hidl_getEapAnonymousIdentityEPNS_4hidl4base4V1_08BnHwBaseERKNS0_6ParcelEPSA_NSt3__18functionIFvRSA_EEE"
  },
  {
   "name":"_ZN7android8hardware4wifi10supplicant4V1_024BnHwSupplicantStaNetwork29_hidl_getEapDomainSuffixMatchEPNS_4hidl4base4V1_08BnHwBaseERKNS0_6ParcelEPSA_NSt3__18functionIFvRSA_EEE"
  },
  {
   "name":"_ZN7android8hardware4wifi10supplicant4V1_024BnHwSupplicantStaNetwork29_hidl_setEapAnonymousIdentityEPNS_4hidl4base4V1_08BnHwBaseERKNS0_6ParcelEPSA_NSt3__18functionIFvRSA_EEE"
  },
  {
   "name":"_ZN7android8hardware4wifi10supplicant4V1_024BnHwSupplicantStaNetwork29_hidl_setEapDomainSuffixMatchEPNS_4hidl4base4V1_08BnHwBaseERKNS0_6ParcelEPSA_NSt3__18functionIFvRSA_EEE"
  },
  {
   "name":"_ZN7android8hardware4wifi10supplicant4V1_024BnHwSupplicantStaNetwork33_hidl_getWpsNfcConfigurationTokenEPNS_4hidl4base4V1_08BnHwBaseERKNS0_6ParcelEPSA_NSt3__18functionIFvRSA_EEE"
  },
  {
   "name":"_ZN7android8hardware4wifi10supplicant4V1_024BnHwSupplicantStaNetwork36_hidl_sendNetworkEapIdentityResponseEPNS_4hidl4base4V1_08BnHwBaseERKNS0_6ParcelEPSA_NSt3__18functionIFvRSA_EEE"
  },
  {
   "name":"_ZN7android8hardware4wifi10supplicant4V1_024BnHwSupplicantStaNetwork37_hidl_sendNetworkEapSimGsmAuthFailureEPNS_4hidl4base4V1_08BnHwBaseERKNS0_6ParcelEPSA_NSt3__18functionIFvRSA_EEE"
  },
  {
   "name":"_ZN7android8hardware4wifi10supplicant4V1_024BnHwSupplicantStaNetwork38_hidl_sendNetworkEapSimGsmAuthResponseEPNS_4hidl4base4V1_08BnHwBaseERKNS0_6ParcelEPSA_NSt3__18functionIFvRSA_EEE"
  },
  {
   "name":"_ZN7android8hardware4wifi10supplicant4V1_024BnHwSupplicantStaNetwork38_hidl_sendNetworkEapSimUmtsAuthFailureEPNS_4hidl4base4V1_08BnHwBaseERKNS0_6ParcelEPSA_NSt3__18functionIFvRSA_EEE"
  },
  {
   "name":"_ZN7android8hardware4wifi10supplicant4V1_024BnHwSupplicantStaNetwork39_hidl_sendNetworkEapSimUmtsAuthResponseEPNS_4hidl4base4V1_08BnHwBaseERKNS0_6ParcelEPSA_NSt3__18functionIFvRSA_EEE"
  },
  {
   "name":"_ZN7android8hardware4wifi10supplicant4V1_024BnHwSupplicantStaNetwork39_hidl_sendNetworkEapSimUmtsAutsResponseEPNS_4hidl4base4V1_08BnHwBaseERKNS0_6ParcelEPSA_NSt3__18functionIFvRSA_EEE"
  },
  {
   "name":"_ZN7android8hardware4wifi10supplicant4V1_024BnHwSupplicantStaNetwork4pingEv"
  },
  {
   "name":"_ZN7android8hardware4wifi10supplicant4V1_024BnHwSupplicantStaNetworkC1ERKNS_2spINS3_21ISupplicantStaNetworkEEE"
  },
  {
   "name":"_ZN7android8hardware4wifi10supplicant4V1_024BnHwSupplicantStaNetworkC2ERKNS_2spINS3_21ISupplicantStaNetworkEEE"
  },
  {
   "name":"_ZN7android8hardware4wifi10supplicant4V1_024BnHwSupplicantStaNetworkD0Ev"
  },
  {
   "name":"_ZN7android8hardware4wifi10supplicant4V1_024BnHwSupplicantStaNetworkD1Ev"
  },
  {
   "name":"_ZN7android8hardware4wifi10supplicant4V1_024BnHwSupplicantStaNetworkD2Ev"
  },
  {
   "name":"_ZN7android8hardware4wifi10supplicant4V1_024BpHwSupplicantP2pNetwork10_hidl_isGoEPNS0_10IInterfaceEPNS0_7details16HidlInstrumentorENSt3__18functionIFvRKNS3_16SupplicantStatusEbEEE"
  },
  {
   "name":"_ZN7android8hardware4wifi10supplicant4V1_024BpHwSupplicantP2pNetwork11linkToDeathERKNS_2spINS0_20hidl_death_recipientEEEy"
  },
  {
   "name":"_ZN7android8hardware4wifi10supplicant4V1_024BpHwSupplicantP2pNetwork12getDebugInfoENSt3__18functionIFvRKNS_4hidl4base4V1_09DebugInfoEEEE"
  },
  {
   "name":"_ZN7android8hardware4wifi10supplicant4V1_024BpHwSupplicantP2pNetwork12getHashChainENSt3__18functionIFvRKNS0_8hidl_vecINS0_10hidl_arrayIhLj32EJEEEEEEEE"
  },
  {
   "name":"_ZN7android8hardware4wifi10supplicant4V1_024BpHwSupplicantP2pNetwork12isPersistentENSt3__18functionIFvRKNS3_16SupplicantStatusEbEEE"
  },
  {
   "name":"_ZN7android8hardware4wifi10supplicant4V1_024BpHwSupplicantP2pNetwork13_hidl_getSsidEPNS0_10IInterfaceEPNS0_7details16HidlInstrumentorENSt3__18functionIFvRKNS3_16SupplicantStatusERKNS0_8hidl_vecIhEEEEE"
  },
  {
   "name":"_ZN7android8hardware4wifi10supplicant4V1_024BpHwSupplicantP2pNetwork13getClientListENSt3__18functionIFvRKNS3_16SupplicantStatusERKNS0_8hidl_vecINS0_10hidl_arrayIhLj6EJEEEEEEEE"
  },
  {
   "name":"_ZN7android8hardware4wifi10supplicant4V1_024BpHwSupplicantP2pNetwork13setClientListERKNS0_8hidl_vecINS0_10hidl_arrayIhLj6EJEEEEENSt3__18functionIFvRKNS3_16SupplicantStatusEEEE"
  },
  {
   "name":"_ZN7android8hardware4wifi10supplicant4V1_024BpHwSupplicantP2pNetwork13unlinkToDeathERKNS_2spINS0_20hidl_death_recipientEEE"
  },
  {
   "name":"_ZN7android8hardware4wifi10supplicant4V1_024BpHwSupplicantP2pNetwork14_hidl_getBssidEPNS0_10IInterfaceEPNS0_7details16HidlInstrumentorENSt3__18functionIFvRKNS3_16SupplicantStatusERKNS0_10hidl_arrayIhLj6EJEEEEEE"
  },
  {
   "name":"_ZN7android8hardware4wifi10supplicant4V1_024BpHwSupplicantP2pNetwork14interfaceChainENSt3__18functionIFvRKNS0_8hidl_vecINS0_11hidl_stringEEEEEE"
  },
  {
   "name":"_ZN7android8hardware4wifi10supplicant4V1_024BpHwSupplicantP2pNetwork15_hidl_isCurrentEPNS0_10IInterfaceEPNS0_7details16HidlInstrumentorENSt3__18functionIFvRKNS3_16SupplicantStatusEbEEE"
  },
  {
   "name":"_ZN7android8hardware4wifi10supplicant4V1_024BpHwSupplicantP2pNetwork16getInterfaceNameENSt3__18functionIFvRKNS3_16SupplicantStatusERKNS0_11hidl_stringEEEE"
  },
  {
   "name":"_ZN7android8hardware4wifi10supplicant4V1_024BpHwSupplicantP2pNetwork16registerCallbackERKNS_2spINS3_29ISupplicantP2pNetworkCallbackEEENSt3__18functionIFvRKNS3_16SupplicantStatusEEEE"
  },
  {
   "name":"_ZN7android8hardware4wifi10supplicant4V1_024BpHwSupplicantP2pNetwork18_hidl_isPersistentEPNS0_10IInterfaceEPNS0_7details16HidlInstrumentorENSt3__18functionIFvRKNS3_16SupplicantStatusEbEEE"
  },
  {
   "name":"_ZN7android8hardware4wifi10supplicant4V1_024BpHwSupplicantP2pNetwork19_hidl_getClientListEPNS0_10IInterfaceEPNS0_7details16HidlInstrumentorENSt3__18functionIFvRKNS3_16SupplicantStatusERKNS0_8hidl_vecINS0_10hidl_arrayIhLj6EJEEEEEEEE"
  },
  {
   "name":"_ZN7android8hardware4wifi10supplicant4V1_024BpHwSupplicantP2pNetwork19_hidl_setClientListEPNS0_10IInterfaceEPNS0_7details16HidlInstrumentorERKNS0_8hidl_vecINS0_10hidl_arrayIhLj6EJEEEEENSt3__18functionIFvRKNS3_16SupplicantStatusEEEE"
  },
  {
   "name":"_ZN7android8hardware4wifi10supplicant4V1_024BpHwSupplicantP2pNetwork19interfaceDescriptorENSt3__18functionIFvRKNS0_11hidl_stringEEEE"
  },
  {
   "name":"_ZN7android8hardware4wifi10supplicant4V1_024BpHwSupplicantP2pNetwork21notifySyspropsChangedEv"
  },
  {
   "name":"_ZN7android8hardware4wifi10supplicant4V1_024BpHwSupplicantP2pNetwork21setHALInstrumentationEv"
  },
  {
   "name":"_ZN7android8hardware4wifi10supplicant4V1_024BpHwSupplicantP2pNetwork22_hidl_registerCallbackEPNS0_10IInterfaceEPNS0_7details16HidlInstrumentorERKNS_2spINS3_29ISupplicantP2pNetworkCallbackEEENSt3__18functionIFvRKNS3_16SupplicantStatusEEEE"
  },
  {
   "name":"_ZN7android8hardware4wifi10supplicant4V1_024BpHwSupplicantP2pNetwork4isGoENSt3__18functionIFvRKNS3_16SupplicantStatusEbEEE"
  },
  {
   "name":"_ZN7android8hardware4wifi10supplicant4V1_024BpHwSupplicantP2pNetwork4pingEv"
  },
  {
   "name":"_ZN7android8hardware4wifi10supplicant4V1_024BpHwSupplicantP2pNetwork5debugERKNS0_11hidl_handleERKNS0_8hidl_vecINS0_11hidl_stringEEE"
  },
  {
   "name":"_ZN7android8hardware4wifi10supplicant4V1_024BpHwSupplicantP2pNetwork5getIdENSt3__18functionIFvRKNS3_16SupplicantStatusEjEEE"
  },
  {
   "name":"_ZN7android8hardware4wifi10supplicant4V1_024BpHwSupplicantP2pNetwork7getSsidENSt3__18functionIFvRKNS3_16SupplicantStatusERKNS0_8hidl_vecIhEEEEE"
  },
  {
   "name":"_ZN7android8hardware4wifi10supplicant4V1_024BpHwSupplicantP2pNetwork7getTypeENSt3__18functionIFvRKNS3_16SupplicantStatusENS3_9IfaceTypeEEEE"
  },
  {
   "name":"_ZN7android8hardware4wifi10supplicant4V1_024BpHwSupplicantP2pNetwork8getBssidENSt3__18functionIFvRKNS3_16SupplicantStatusERKNS0_10hidl_arrayIhLj6EJEEEEEE"
  },
  {
   "name":"_ZN7android8hardware4wifi10supplicant4V1_024BpHwSupplicantP2pNetwork9isCurrentENSt3__18functionIFvRKNS3_16SupplicantStatusEbEEE"
  },
  {
   "name":"_ZN7android8hardware4wifi10supplicant4V1_024BpHwSupplicantP2pNetworkC1ERKNS_2spINS0_7IBinderEEE"
  },
  {
   "name":"_ZN7android8hardware4wifi10supplicant4V1_024BpHwSupplicantP2pNetworkC2ERKNS_2spINS0_7IBinderEEE"
  },
  {
   "name":"_ZN7android8hardware4wifi10supplicant4V1_024BpHwSupplicantStaNetwork10getAuthAlgENSt3__18functionIFvRKNS3_16SupplicantStatusEjEEE"
  },
  {
   "name":"_ZN7android8hardware4wifi10supplicant4V1_024BpHwSupplicantStaNetwork10getKeyMgmtENSt3__18functionIFvRKNS3_16SupplicantStatusEjEEE"
  },
  {
   "name":"_ZN7android8hardware4wifi10supplicant4V1_024BpHwSupplicantStaNetwork10setAuthAlgEjNSt3__18functionIFvRKNS3_16SupplicantStatusEEEE"
  },
  {
   "name":"_ZN7android8hardware4wifi10supplicant4V1_024BpHwSupplicantStaNetwork10setKeyMgmtEjNSt3__18functionIFvRKNS3_16SupplicantStatusEEEE"
  },
  {
   "name":"_ZN7android8hardware4wifi10supplicant4V1_024BpHwSupplicantStaNetwork11getScanSsidENSt3__18functionIFvRKNS3_16SupplicantStatusEbEEE"
  },
  {
   "name":"_ZN7android8hardware4wifi10supplicant4V1_024BpHwSupplicantStaNetwork11linkToDeathERKNS_2spINS0_20hidl_death_recipientEEEy"
  },
  {
   "name":"_ZN7android8hardware4wifi10supplicant4V1_024BpHwSupplicantStaNetwork11setScanSsidEbNSt3__18functionIFvRKNS3_16SupplicantStatusEEEE"
  },
  {
   "name":"_ZN7android8hardware4wifi10supplicant4V1_024BpHwSupplicantStaNetwork12_hidl_enableEPNS0_10IInterfaceEPNS0_7details16HidlInstrumentorEbNSt3__18functionIFvRKNS3_16SupplicantStatusEEEE"
  },
  {
   "name":"_ZN7android8hardware4wifi10supplicant4V1_024BpHwSupplicantStaNetwork12_hidl_getPskEPNS0_10IInterfaceEPNS0_7details16HidlInstrumentorENSt3__18functionIFvRKNS3_16SupplicantStatusERKNS0_10hidl_arrayIhLj32EJEEEEEE"
  },
  {
   "name":"_ZN7android8hardware4wifi10supplicant4V1_024BpHwSupplicantStaNetwork12_hidl_selectEPNS0_10IInterfaceEPNS0_7details16HidlInstrumentorENSt3__18functionIFvRKNS3_16SupplicantStatusEEEE"
  },
  {
   "name":"_ZN7android8hardware4wifi10supplicant4V1_024BpHwSupplicantStaNetwork12_hidl_setPskEPNS0_10IInterfaceEPNS0_7details16HidlInstrumentorERKNS0_10hidl_arrayIhLj32EJEEENSt3__18functionIFvRKNS3_16SupplicantStatusEEEE"
  },
  {
   "name":"_ZN7android8hardware4wifi10supplicant4V1_024BpHwSupplicantStaNetwork12getDebugInfoENSt3__18functionIFvRKNS_4hidl4base4V1_09DebugInfoEEEE"
  },
  {
   "name":"_ZN7android8hardware4wifi10supplicant4V1_024BpHwSupplicantStaNetwork12getEapCACertENSt3__18functionIFvRKNS3_16SupplicantStatusERKNS0_11hidl_stringEEEE"
  },
  {
   "name":"_ZN7android8hardware4wifi10supplicant4V1_024BpHwSupplicantStaNetwork12getEapCAPathENSt3__18functionIFvRKNS3_16SupplicantStatusERKNS0_11hidl_stringEEEE"
  },
  {
   "name":"_ZN7android8hardware4wifi10supplicant4V1_024BpHwSupplicantStaNetwork12getEapEngineENSt3__18functionIFvRKNS3_16SupplicantStatusEbEEE"
  },
  {
   "name":"_ZN7android8hardware4wifi10supplicant4V1_024BpHwSupplicantStaNetwork12getEapMethodENSt3__18functionIFvRKNS3_16SupplicantStatusENS3_21ISupplicantStaNetwork9EapMethodEEEE"
  },
  {
   "name":"_ZN7android8hardware4wifi10supplicant4V1_024BpHwSupplicantStaNetwork12getHashChainENSt3__18functionIFvRKNS0_8hidl_vecINS0_10hidl_arrayIhLj32EJEEEEEEEE"
  },
  {
   "name":"_ZN7android8hardware4wifi10supplicant4V1_024BpHwSupplicantStaNetwork12setEapCACertERKNS0_11hidl_stringENSt3__18functionIFvRKNS3_16SupplicantStatusEEEE"
  },
  {
   "name":"_ZN7android8hardware4wifi10supplicant4V1_024BpHwSupplicantStaNetwork12setEapCAPathERKNS0_11hidl_stringENSt3__18functionIFvRKNS3_16SupplicantStatusEEEE"
  },
  {
   "name":"_ZN7android8hardware4wifi10supplicant4V1_024BpHwSupplicantStaNetwork12setEapEngineEbNSt3__18functionIFvRKNS3_16SupplicantStatusEEEE"
  },
  {
   "name":"_ZN7android8hardware4wifi10supplicant4V1_024BpHwSupplicantStaNetwork12setEapMethodENS3_21ISupplicantStaNetwork9EapMethodENSt3__18functionIFvRKNS3_16SupplicantStatusEEEE"
  },
  {
   "name":"_ZN7android8hardware4wifi10supplicant4V1_024BpHwSupplicantStaNetwork13_hidl_disableEPNS0_10IInterfaceEPNS0_7details16HidlInstrumentorENSt3__18functionIFvRKNS3_16SupplicantStatusEEEE"
  },
  {
   "name":"_ZN7android8hardware4wifi10supplicant4V1_024BpHwSupplicantStaNetwork13_hidl_getSsidEPNS0_10IInterfaceEPNS0_7details16HidlInstrumentorENSt3__18functionIFvRKNS3_16SupplicantStatusERKNS0_8hidl_vecIhEEEEE"
  },
  {
   "name":"_ZN7android8hardware4wifi10supplicant4V1_024BpHwSupplicantStaNetwork13_hidl_setSsidEPNS0_10IInterfaceEPNS0_7details16HidlInstrumentorERKNS0_8hidl_vecIhEENSt3__18functionIFvRKNS3_16SupplicantStatusEEEE"
  },
  {
   "name":"_ZN7android8hardware4wifi10supplicant4V1_024BpHwSupplicantStaNetwork13getRequirePmfENSt3__18functionIFvRKNS3_16SupplicantStatusEbEEE"
  },
  {
   "name":"_ZN7android8hardware4wifi10supplicant4V1_024BpHwSupplicantStaNetwork13setRequirePmfEbNSt3__18functionIFvRKNS3_16SupplicantStatusEEEE"
  },
  {
   "name":"_ZN7android8hardware4wifi10supplicant4V1_024BpHwSupplicantStaNetwork13unlinkToDeathERKNS_2spINS0_20hidl_death_recipientEEE"
  },
  {
   "name":"_ZN7android8hardware4wifi10supplicant4V1_024BpHwSupplicantStaNetwork14_hidl_getBssidEPNS0_10IInterfaceEPNS0_7details16HidlInstrumentorENSt3__18functionIFvRKNS3_16SupplicantStatusERKNS0_10hidl_arrayIhLj6EJEEEEEE"
  },
  {
   "name":"_ZN7android8hardware4wifi10supplicant4V1_024BpHwSupplicantStaNetwork14_hidl_getIdStrEPNS0_10IInterfaceEPNS0_7details16HidlInstrumentorENSt3__18functionIFvRKNS3_16SupplicantStatusERKNS0_11hidl_stringEEEE"
  },
  {
   "name":"_ZN7android8hardware4wifi10supplicant4V1_024BpHwSupplicantStaNetwork14_hidl_getProtoEPNS0_10IInterfaceEPNS0_7details16HidlInstrumentorENSt3__18functionIFvRKNS3_16SupplicantStatusEjEEE"
  },
  {
   "name":"_ZN7android8hardware4wifi10supplicant4V1_024BpHwSupplicantStaNetwork14_hidl_setBssidEPNS0_10IInterfaceEPNS0_7details16HidlInstrumentorERKNS0_10hidl_arrayIhLj6EJEEENSt3__18functionIFvRKNS3_16SupplicantStatusEEEE"
  },
  {
   "name":"_ZN7android8hardware4wifi10supplicant4V1_024BpHwSupplicantStaNetwork14_hidl_setIdStrEPNS0_10IInterfaceEPNS0_7details16HidlInstrumentorERKNS0_11hidl_stringENSt3__18functionIFvRKNS3_16SupplicantStatusEEEE"
  },
  {
   "name":"_ZN7android8hardware4wifi10supplicant4V1_024BpHwSupplicantStaNetwork14_hidl_setProtoEPNS0_10IInterfaceEPNS0_7details16HidlInstrumentorEjNSt3__18functionIFvRKNS3_16SupplicantStatusEEEE"
  },
  {
   "name":"_ZN7android8hardware4wifi10supplicant4V1_024BpHwSupplicantStaNetwork14getEapEngineIDENSt3__18functionIFvRKNS3_16SupplicantStatusERKNS0_11hidl_stringEEEE"
  },
  {
   "name":"_ZN7android8hardware4wifi10supplicant4V1_024BpHwSupplicantStaNetwork14getEapIdentityENSt3__18functionIFvRKNS3_16SupplicantStatusERKNS0_8hidl_vecIhEEEEE"
  },
  {
   "name":"_ZN7android8hardware4wifi10supplicant4V1_024BpHwSupplicantStaNetwork14getEapPasswordENSt3__18functionIFvRKNS3_16SupplicantStatusERKNS0_8hidl_vecIhEEEEE"
  },
  {
   "name":"_ZN7android8hardware4wifi10supplicant4V1_024BpHwSupplicantStaNetwork14getGroupCipherENSt3__18functionIFvRKNS3_16SupplicantStatusEjEEE"
  },
  {
   "name":"_ZN7android8hardware4wifi10supplicant4V1_024BpHwSupplicantStaNetwork14getWepTxKeyIdxENSt3__18functionIFvRKNS3_16SupplicantStatusEjEEE"
  },
  {
   "name":"_ZN7android8hardware4wifi10supplicant4V1_024BpHwSupplicantStaNetwork14interfaceChainENSt3__18functionIFvRKNS0_8hidl_vecINS0_11hidl_stringEEEEEE"
  },
  {
   "name":"_ZN7android8hardware4wifi10supplicant4V1_024BpHwSupplicantStaNetwork14setEapEngineIDERKNS0_11hidl_stringENSt3__18functionIFvRKNS3_16SupplicantStatusEEEE"
  },
  {
   "name":"_ZN7android8hardware4wifi10supplicant4V1_024BpHwSupplicantStaNetwork14setEapIdentityERKNS0_8hidl_vecIhEENSt3__18functionIFvRKNS3_16SupplicantStatusEEEE"
  },
  {
   "name":"_ZN7android8hardware4wifi10supplicant4V1_024BpHwSupplicantStaNetwork14setEapPasswordERKNS0_8hidl_vecIhEENSt3__18functionIFvRKNS3_16SupplicantStatusEEEE"
  },
  {
   "name":"_ZN7android8hardware4wifi10supplicant4V1_024BpHwSupplicantStaNetwork14setGroupCipherEjNSt3__18functionIFvRKNS3_16SupplicantStatusEEEE"
  },
  {
   "name":"_ZN7android8hardware4wifi10supplicant4V1_024BpHwSupplicantStaNetwork14setWepTxKeyIdxEjNSt3__18functionIFvRKNS3_16SupplicantStatusEEEE"
  },
  {
   "name":"_ZN7android8hardware4wifi10supplicant4V1_024BpHwSupplicantStaNetwork15_hidl_getWepKeyEPNS0_10IInterfaceEPNS0_7details16HidlInstrumentorEjNSt3__18functionIFvRKNS3_16SupplicantStatusERKNS0_8hidl_vecIhEEEEE"
  },
  {
   "name":"_ZN7android8hardware4wifi10supplicant4V1_024BpHwSupplicantStaNetwork15_hidl_setWepKeyEPNS0_10IInterfaceEPNS0_7details16HidlInstrumentorEjRKNS0_8hidl_vecIhEENSt3__18functionIFvRKNS3_16SupplicantStatusEEEE"
  },
  {
   "name":"_ZN7android8hardware4wifi10supplicant4V1_024BpHwSupplicantStaNetwork16_hidl_getAuthAlgEPNS0_10IInterfaceEPNS0_7details16HidlInstrumentorENSt3__18functionIFvRKNS3_16SupplicantStatusEjEEE"
  },
  {
   "name":"_ZN7android8hardware4wifi10supplicant4V1_024BpHwSupplicantStaNetwork16_hidl_getKeyMgmtEPNS0_10IInterfaceEPNS0_7details16HidlInstrumentorENSt3__18functionIFvRKNS3_16SupplicantStatusEjEEE"
  },
  {
   "name":"_ZN7android8hardware4wifi10supplicant4V1_024BpHwSupplicantStaNetwork16_hidl_setAuthAlgEPNS0_10IInterfaceEPNS0_7details16HidlInstrumentorEjNSt3__18functionIFvRKNS3_16SupplicantStatusEEEE"
  },
  {
   "name":"_ZN7android8hardware4wifi10supplicant4V1_024BpHwSupplicantStaNetwork16_hidl_setKeyMgmtEPNS0_10IInterfaceEPNS0_7details16HidlInstrumentorEjNSt3__18functionIFvRKNS3_16SupplicantStatusEEEE"
  },
  {
   "name":"_ZN7android8hardware4wifi10supplicant4V1_024BpHwSupplicantStaNetwork16getEapClientCertENSt3__18functionIFvRKNS3_16SupplicantStatusERKNS0_11hidl_stringEEEE"
  },
  {
   "name":"_ZN7android8hardware4wifi10supplicant4V1_024BpHwSupplicantStaNetwork16getInterfaceNameENSt3__18functionIFvRKNS3_16SupplicantStatusERKNS0_11hidl_stringEEEE"
  },
  {
   "name":"_ZN7android8hardware4wifi10supplicant4V1_024BpHwSupplicantStaNetwork16getPskPassphraseENSt3__18functionIFvRKNS3_16SupplicantStatusERKNS0_11hidl_stringEEEE"
  },
  {
   "name":"_ZN7android8hardware4wifi10supplicant4V1_024BpHwSupplicantStaNetwork16registerCallbackERKNS_2spINS3_29ISupplicantStaNetworkCallbackEEENSt3__18functionIFvRKNS3_16SupplicantStatusEEEE"
  },
  {
   "name":"_ZN7android8hardware4wifi10supplicant4V1_024BpHwSupplicantStaNetwork16setEapClientCertERKNS0_11hidl_stringENSt3__18functionIFvRKNS3_16SupplicantStatusEEEE"
  },
  {
   "name":"_ZN7android8hardware4wifi10supplicant4V1_024BpHwSupplicantStaNetwork16setPskPassphraseERKNS0_11hidl_stringENSt3__18functionIFvRKNS3_16SupplicantStatusEEEE"
  },
  {
   "name":"_ZN7android8hardware4wifi10supplicant4V1_024BpHwSupplicantStaNetwork17_hidl_getScanSsidEPNS0_10IInterfaceEPNS0_7details16HidlInstrumentorENSt3__18functionIFvRKNS3_16SupplicantStatusEbEEE"
  },
  {
   "name":"_ZN7android8hardware4wifi10supplicant4V1_024BpHwSupplicantStaNetwork17_hidl_setScanSsidEPNS0_10IInterfaceEPNS0_7details16HidlInstrumentorEbNSt3__18functionIFvRKNS3_16SupplicantStatusEEEE"
  },
  {
   "name":"_ZN7android8hardware4wifi10supplicant4V1_024BpHwSupplicantStaNetwork17getPairwiseCipherENSt3__18functionIFvRKNS3_16SupplicantStatusEjEEE"
  },
  {
   "name":"_ZN7android8hardware4wifi10supplicant4V1_024BpHwSupplicantStaNetwork17setPairwiseCipherEjNSt3__18functionIFvRKNS3_16SupplicantStatusEEEE"
  },
  {
   "name":"_ZN7android8hardware4wifi10supplicant4V1_024BpHwSupplicantStaNetwork18_hidl_getEapCACertEPNS0_10IInterfaceEPNS0_7details16HidlInstrumentorENSt3__18functionIFvRKNS3_16SupplicantStatusERKNS0_11hidl_stringEEEE"
  },
  {
   "name":"_ZN7android8hardware4wifi10supplicant4V1_024BpHwSupplicantStaNetwork18_hidl_getEapCAPathEPNS0_10IInterfaceEPNS0_7details16HidlInstrumentorENSt3__18functionIFvRKNS3_16SupplicantStatusERKNS0_11hidl_stringEEEE"
  },
  {
   "name":"_ZN7android8hardware4wifi10supplicant4V1_024BpHwSupplicantStaNetwork18_hidl_getEapEngineEPNS0_10IInterfaceEPNS0_7details16HidlInstrumentorENSt3__18functionIFvRKNS3_16SupplicantStatusEbEEE"
  },
  {
   "name":"_ZN7android8hardware4wifi10supplicant4V1_024BpHwSupplicantStaNetwork18_hidl_getEapMethodEPNS0_10IInterfaceEPNS0_7details16HidlInstrumentorENSt3__18functionIFvRKNS3_16SupplicantStatusENS3_21ISupplicantStaNetwork9EapMethodEEEE"
  },
  {
   "name":"_ZN7android8hardware4wifi10supplicant4V1_024BpHwSupplicantStaNetwork18_hidl_setEapCACertEPNS0_10IInterfaceEPNS0_7details16HidlInstrumentorERKNS0_11hidl_stringENSt3__18functionIFvRKNS3_16SupplicantStatusEEEE"
  },
  {
   "name":"_ZN7android8hardware4wifi10supplicant4V1_024BpHwSupplicantStaNetwork18_hidl_setEapCAPathEPNS0_10IInterfaceEPNS0_7details16HidlInstrumentorERKNS0_11hidl_stringENSt3__18functionIFvRKNS3_16SupplicantStatusEEEE"
  },
  {
   "name":"_ZN7android8hardware4wifi10supplicant4V1_024BpHwSupplicantStaNetwork18_hidl_setEapEngineEPNS0_10IInterfaceEPNS0_7details16HidlInstrumentorEbNSt3__18functionIFvRKNS3_16SupplicantStatusEEEE"
  },
  {
   "name":"_ZN7android8hardware4wifi10supplicant4V1_024BpHwSupplicantStaNetwork18_hidl_setEapMethodEPNS0_10IInterfaceEPNS0_7details16HidlInstrumentorENS3_21ISupplicantStaNetwork9EapMethodENSt3__18functionIFvRKNS3_16SupplicantStatusEEEE"
  },
  {
   "name":"_ZN7android8hardware4wifi10supplicant4V1_024BpHwSupplicantStaNetwork18getEapPhase2MethodENSt3__18functionIFvRKNS3_16SupplicantStatusENS3_21ISupplicantStaNetwork15EapPhase2MethodEEEE"
  },
  {
   "name":"_ZN7android8hardware4wifi10supplicant4V1_024BpHwSupplicantStaNetwork18getEapPrivateKeyIdENSt3__18functionIFvRKNS3_16SupplicantStatusERKNS0_11hidl_stringEEEE"
  },
  {
   "name":"_ZN7android8hardware4wifi10supplicant4V1_024BpHwSupplicantStaNetwork18getEapSubjectMatchENSt3__18functionIFvRKNS3_16SupplicantStatusERKNS0_11hidl_stringEEEE"
  },
  {
   "name":"_ZN7android8hardware4wifi10supplicant4V1_024BpHwSupplicantStaNetwork18setEapPhase2MethodENS3_21ISupplicantStaNetwork15EapPhase2MethodENSt3__18functionIFvRKNS3_16SupplicantStatusEEEE"
  },
  {
   "name":"_ZN7android8hardware4wifi10supplicant4V1_024BpHwSupplicantStaNetwork18setEapPrivateKeyIdERKNS0_11hidl_stringENSt3__18functionIFvRKNS3_16SupplicantStatusEEEE"
  },
  {
   "name":"_ZN7android8hardware4wifi10supplicant4V1_024BpHwSupplicantStaNetwork18setEapSubjectMatchERKNS0_11hidl_stringENSt3__18functionIFvRKNS3_16SupplicantStatusEEEE"
  },
  {
   "name":"_ZN7android8hardware4wifi10supplicant4V1_024BpHwSupplicantStaNetwork19_hidl_getRequirePmfEPNS0_10IInterfaceEPNS0_7details16HidlInstrumentorENSt3__18functionIFvRKNS3_16SupplicantStatusEbEEE"
  },
  {
   "name":"_ZN7android8hardware4wifi10supplicant4V1_024BpHwSupplicantStaNetwork19_hidl_setRequirePmfEPNS0_10IInterfaceEPNS0_7details16HidlInstrumentorEbNSt3__18functionIFvRKNS3_16SupplicantStatusEEEE"
  },
  {
   "name":"_ZN7android8hardware4wifi10supplicant4V1_024BpHwSupplicantStaNetwork19interfaceDescriptorENSt3__18functionIFvRKNS0_11hidl_stringEEEE"
  },
  {
   "name":"_ZN7android8hardware4wifi10supplicant4V1_024BpHwSupplicantStaNetwork19setUpdateIdentifierEjNSt3__18functionIFvRKNS3_16SupplicantStatusEEEE"
  },
  {
   "name":"_ZN7android8hardware4wifi10supplicant4V1_024BpHwSupplicantStaNetwork20_hidl_getEapEngineIDEPNS0_10IInterfaceEPNS0_7details16HidlInstrumentorENSt3__18functionIFvRKNS3_16SupplicantStatusERKNS0_11hidl_stringEEEE"
  },
  {
   "name":"_ZN7android8hardware4wifi10supplicant4V1_024BpHwSupplicantStaNetwork20_hidl_getEapIdentityEPNS0_10IInterfaceEPNS0_7details16HidlInstrumentorENSt3__18functionIFvRKNS3_16SupplicantStatusERKNS0_8hidl_vecIhEEEEE"
  },
  {
   "name":"_ZN7android8hardware4wifi10supplicant4V1_024BpHwSupplicantStaNetwork20_hidl_getEapPasswordEPNS0_10IInterfaceEPNS0_7details16HidlInstrumentorENSt3__18functionIFvRKNS3_16SupplicantStatusERKNS0_8hidl_vecIhEEEEE"
  },
  {
   "name":"_ZN7android8hardware4wifi10supplicant4V1_024BpHwSupplicantStaNetwork20_hidl_getGroupCipherEPNS0_10IInterfaceEPNS0_7details16HidlInstrumentorENSt3__18functionIFvRKNS3_16SupplicantStatusEjEEE"
  },
  {
   "name":"_ZN7android8hardware4wifi10supplicant4V1_024BpHwSupplicantStaNetwork20_hidl_getWepTxKeyIdxEPNS0_10IInterfaceEPNS0_7details16HidlInstrumentorENSt3__18functionIFvRKNS3_16SupplicantStatusEjEEE"
  },
  {
   "name":"_ZN7android8hardware4wifi10supplicant4V1_024BpHwSupplicantStaNetwork20_hidl_setEapEngineIDEPNS0_10IInterfaceEPNS0_7details16HidlInstrumentorERKNS0_11hidl_stringENSt3__18functionIFvRKNS3_16SupplicantStatusEEEE"
  },
  {
   "name":"_ZN7android8hardware4wifi10supplicant4V1_024BpHwSupplicantStaNetwork20_hidl_setEapIdentityEPNS0_10IInterfaceEPNS0_7details16HidlInstrumentorERKNS0_8hidl_vecIhEENSt3__18functionIFvRKNS3_16SupplicantStatusEEEE"
  },
  {
   "name":"_ZN7android8hardware4wifi10supplicant4V1_024BpHwSupplicantStaNetwork20_hidl_setEapPasswordEPNS0_10IInterfaceEPNS0_7details16HidlInstrumentorERKNS0_8hidl_vecIhEENSt3__18functionIFvRKNS3_16SupplicantStatusEEEE"
  },
  {
   "name":"_ZN7android8hardware4wifi10supplicant4V1_024BpHwSupplicantStaNetwork20_hidl_setGroupCipherEPNS0_10IInterfaceEPNS0_7details16HidlInstrumentorEjNSt3__18functionIFvRKNS3_16SupplicantStatusEEEE"
  },
  {
   "name":"_ZN7android8hardware4wifi10supplicant4V1_024BpHwSupplicantStaNetwork20_hidl_setWepTxKeyIdxEPNS0_10IInterfaceEPNS0_7details16HidlInstrumentorEjNSt3__18functionIFvRKNS3_16SupplicantStatusEEEE"
  },
  {
   "name":"_ZN7android8hardware4wifi10supplicant4V1_024BpHwSupplicantStaNetwork21getEapAltSubjectMatchENSt3__18functionIFvRKNS3_16SupplicantStatusERKNS0_11hidl_stringEEEE"
  },
  {
   "name":"_ZN7android8hardware4wifi10supplicant4V1_024BpHwSupplicantStaNetwork21notifySyspropsChangedEv"
  },
  {
   "name":"_ZN7android8hardware4wifi10supplicant4V1_024BpHwSupplicantStaNetwork21setEapAltSubjectMatchERKNS0_11hidl_stringENSt3__18functionIFvRKNS3_16SupplicantStatusEEEE"
  },
  {
   "name":"_ZN7android8hardware4wifi10supplicant4V1_024BpHwSupplicantStaNetwork21setHALInstrumentationEv"
  },
  {
   "name":"_ZN7android8hardware4wifi10supplicant4V1_024BpHwSupplicantStaNetwork22_hidl_getEapClientCertEPNS0_10IInterfaceEPNS0_7details16HidlInstrumentorENSt3__18functionIFvRKNS3_16SupplicantStatusERKNS0_11hidl_stringEEEE"
  },
  {
   "name":"_ZN7android8hardware4wifi10supplicant4V1_024BpHwSupplicantStaNetwork22_hidl_getPskPassphraseEPNS0_10IInterfaceEPNS0_7details16HidlInstrumentorENSt3__18functionIFvRKNS3_16SupplicantStatusERKNS0_11hidl_stringEEEE"
  },
  {
   "name":"_ZN7android8hardware4wifi10supplicant4V1_024BpHwSupplicantStaNetwork22_hidl_registerCallbackEPNS0_10IInterfaceEPNS0_7details16HidlInstrumentorERKNS_2spINS3_29ISupplicantStaNetworkCallbackEEENSt3__18functionIFvRKNS3_16SupplicantStatusEEEE"
  },
  {
   "name":"_ZN7android8hardware4wifi10supplicant4V1_024BpHwSupplicantStaNetwork22_hidl_setEapClientCertEPNS0_10IInterfaceEPNS0_7details16HidlInstrumentorERKNS0_11hidl_stringENSt3__18functionIFvRKNS3_16SupplicantStatusEEEE"
  },
  {
   "name":"_ZN7android8hardware4wifi10supplicant4V1_024BpHwSupplicantStaNetwork22_hidl_setPskPassphraseEPNS0_10IInterfaceEPNS0_7details16HidlInstrumentorERKNS0_11hidl_stringENSt3__18functionIFvRKNS3_16SupplicantStatusEEEE"
  },
  {
   "name":"_ZN7android8hardware4wifi10supplicant4V1_024BpHwSupplicantStaNetwork22setProactiveKeyCachingEbNSt3__18functionIFvRKNS3_16SupplicantStatusEEEE"
  },
  {
   "name":"_ZN7android8hardware4wifi10supplicant4V1_024BpHwSupplicantStaNetwork23_hidl_getPairwiseCipherEPNS0_10IInterfaceEPNS0_7details16HidlInstrumentorENSt3__18functionIFvRKNS3_16SupplicantStatusEjEEE"
  },
  {
   "name":"_ZN7android8hardware4wifi10supplicant4V1_024BpHwSupplicantStaNetwork23_hidl_setPairwiseCipherEPNS0_10IInterfaceEPNS0_7details16HidlInstrumentorEjNSt3__18functionIFvRKNS3_16SupplicantStatusEEEE"
  },
  {
   "name":"_ZN7android8hardware4wifi10supplicant4V1_024BpHwSupplicantStaNetwork23getEapAnonymousIdentityENSt3__18functionIFvRKNS3_16SupplicantStatusERKNS0_8hidl_vecIhEEEEE"
  },
  {
   "name":"_ZN7android8hardware4wifi10supplicant4V1_024BpHwSupplicantStaNetwork23getEapDomainSuffixMatchENSt3__18functionIFvRKNS3_16SupplicantStatusERKNS0_11hidl_stringEEEE"
  },
  {
   "name":"_ZN7android8hardware4wifi10supplicant4V1_024BpHwSupplicantStaNetwork23setEapAnonymousIdentityERKNS0_8hidl_vecIhEENSt3__18functionIFvRKNS3_16SupplicantStatusEEEE"
  },
  {
   "name":"_ZN7android8hardware4wifi10supplicant4V1_024BpHwSupplicantStaNetwork23setEapDomainSuffixMatchERKNS0_11hidl_stringENSt3__18functionIFvRKNS3_16SupplicantStatusEEEE"
  },
  {
   "name":"_ZN7android8hardware4wifi10supplicant4V1_024BpHwSupplicantStaNetwork24_hidl_getEapPhase2MethodEPNS0_10IInterfaceEPNS0_7details16HidlInstrumentorENSt3__18functionIFvRKNS3_16SupplicantStatusENS3_21ISupplicantStaNetwork15EapPhase2MethodEEEE"
  },
  {
   "name":"_ZN7android8hardware4wifi10supplicant4V1_024BpHwSupplicantStaNetwork24_hidl_getEapPrivateKeyIdEPNS0_10IInterfaceEPNS0_7details16HidlInstrumentorENSt3__18functionIFvRKNS3_16SupplicantStatusERKNS0_11hidl_stringEEEE"
  },
  {
   "name":"_ZN7android8hardware4wifi10supplicant4V1_024BpHwSupplicantStaNetwork24_hidl_getEapSubjectMatchEPNS0_10IInterfaceEPNS0_7details16HidlInstrumentorENSt3__18functionIFvRKNS3_16SupplicantStatusERKNS0_11hidl_stringEEEE"
  },
  {
   "name":"_ZN7android8hardware4wifi10supplicant4V1_024BpHwSupplicantStaNetwork24_hidl_setEapPhase2MethodEPNS0_10IInterfaceEPNS0_7details16HidlInstrumentorENS3_21ISupplicantStaNetwork15EapPhase2MethodENSt3__18functionIFvRKNS3_16SupplicantStatusEEEE"
  },
  {
   "name":"_ZN7android8hardware4wifi10supplicant4V1_024BpHwSupplicantStaNetwork24_hidl_setEapPrivateKeyIdEPNS0_10IInterfaceEPNS0_7details16HidlInstrumentorERKNS0_11hidl_stringENSt3__18functionIFvRKNS3_16SupplicantStatusEEEE"
  },
  {
   "name":"_ZN7android8hardware4wifi10supplicant4V1_024BpHwSupplicantStaNetwork24_hidl_setEapSubjectMatchEPNS0_10IInterfaceEPNS0_7details16HidlInstrumentorERKNS0_11hidl_stringENSt3__18functionIFvRKNS3_16SupplicantStatusEEEE"
  },
  {
   "name":"_ZN7android8hardware4wifi10supplicant4V1_024BpHwSupplicantStaNetwork25_hidl_setUpdateIdentifierEPNS0_10IInterfaceEPNS0_7details16HidlInstrumentorEjNSt3__18functionIFvRKNS3_16SupplicantStatusEEEE"
  },
  {
   "name":"_ZN7android8hardware4wifi10supplicant4V1_024BpHwSupplicantStaNetwork27_hidl_getEapAltSubjectMatchEPNS0_10IInterfaceEPNS0_7details16HidlInstrumentorENSt3__18functionIFvRKNS3_16SupplicantStatusERKNS0_11hidl_stringEEEE"
  },
  {
   "name":"_ZN7android8hardware4wifi10supplicant4V1_024BpHwSupplicantStaNetwork27_hidl_setEapAltSubjectMatchEPNS0_10IInterfaceEPNS0_7details16HidlInstrumentorERKNS0_11hidl_stringENSt3__18functionIFvRKNS3_16SupplicantStatusEEEE"
  },
  {
   "name":"_ZN7android8hardware4wifi10supplicant4V1_024BpHwSupplicantStaNetwork27getWpsNfcConfigurationTokenENSt3__18functionIFvRKNS3_16SupplicantStatusERKNS0_8hidl_vecIhEEEEE"
  },
  {
   "name":"_ZN7android8hardware4wifi10supplicant4V1_024BpHwSupplicantStaNetwork28_hidl_setProactiveKeyCachingEPNS0_10IInterfaceEPNS0_7details16HidlInstrumentorEbNSt3__18functionIFvRKNS3_16SupplicantStatusEEEE"
  },
  {
   "name":"_ZN7android8hardware4wifi10supplicant4V1_024BpHwSupplicantStaNetwork29_hidl_getEapAnonymousIdentityEPNS0_10IInterfaceEPNS0_7details16HidlInstrumentorENSt3__18functionIFvRKNS3_16SupplicantStatusERKNS0_8hidl_vecIhEEEEE"
  },
  {
   "name":"_ZN7android8hardware4wifi10supplicant4V1_024BpHwSupplicantStaNetwork29_hidl_getEapDomainSuffixMatchEPNS0_10IInterfaceEPNS0_7details16HidlInstrumentorENSt3__18functionIFvRKNS3_16SupplicantStatusERKNS0_11hidl_stringEEEE"
  },
  {
   "name":"_ZN7android8hardware4wifi10supplicant4V1_024BpHwSupplicantStaNetwork29_hidl_setEapAnonymousIdentityEPNS0_10IInterfaceEPNS0_7details16HidlInstrumentorERKNS0_8hidl_vecIhEENSt3__18functionIFvRKNS3_16SupplicantStatusEEEE"
  },
  {
   "name":"_ZN7android8hardware4wifi10supplicant4V1_024BpHwSupplicantStaNetwork29_hidl_setEapDomainSuffixMatchEPNS0_10IInterfaceEPNS0_7details16HidlInstrumentorERKNS0_11hidl_stringENSt3__18functionIFvRKNS3_16SupplicantStatusEEEE"
  },
  {
   "name":"_ZN7android8hardware4wifi10supplicant4V1_024BpHwSupplicantStaNetwork30sendNetworkEapIdentityResponseERKNS0_8hidl_vecIhEENSt3__18functionIFvRKNS3_16SupplicantStatusEEEE"
  },
  {
   "name":"_ZN7android8hardware4wifi10supplicant4V1_024BpHwSupplicantStaNetwork31sendNetworkEapSimGsmAuthFailureENSt3__18functionIFvRKNS3_16SupplicantStatusEEEE"
  },
  {
