{
 "record_types":[
  {
   "vtable_components":[
    {
     "kind":"vbase_offset",
     "component_value":4
    },
    {
     "kind":"offset_to_top"
    },
    {
     "kind":"rtti",
     "mangled_component_name":"_ZTIN7android8hardware10gatekeeper4V1_011IGatekeeperE"
    },
    {
     "mangled_component_name":"_ZNK7android8hardware10gatekeeper4V1_011IGatekeeper8isRemoteEv"
    },
    {
     "mangled_component_name":"_ZN7android8hardware10gatekeeper4V1_011IGatekeeper14interfaceChainENSt3__18functionIFvRKNS0_8hidl_vecINS0_11hidl_stringEEEEEE"
    },
    {
     "mangled_component_name":"_ZN7android8hardware10gatekeeper4V1_011IGatekeeper5debugERKNS0_11hidl_handleERKNS0_8hidl_vecINS0_11hidl_stringEEE"
    },
    {
     "mangled_component_name":"_ZN7android8hardware10gatekeeper4V1_011IGatekeeper19interfaceDescriptorENSt3__18functionIFvRKNS0_11hidl_stringEEEE"
    },
    {
     "mangled_component_name":"_ZN7android8hardware10gatekeeper4V1_011IGatekeeper12getHashChainENSt3__18functionIFvRKNS0_8hidl_vecINS0_10hidl_arrayIhLj32EJEEEEEEEE"
    },
    {
     "mangled_component_name":"_ZN7android8hardware10gatekeeper4V1_011IGatekeeper21setHALInstrumentationEv"
    },
    {
     "mangled_component_name":"_ZN7android8hardware10gatekeeper4V1_011IGatekeeper11linkToDeathERKNS_2spINS0_20hidl_death_recipientEEEy"
    },
    {
     "mangled_component_name":"_ZN7android8hardware10gatekeeper4V1_011IGatekeeper4pingEv"
    },
    {
     "mangled_component_name":"_ZN7android8hardware10gatekeeper4V1_011IGatekeeper12getDebugInfoENSt3__18functionIFvRKNS_4hidl4base4V1_09DebugInfoEEEE"
    },
    {
     "mangled_component_name":"_ZN7android8hardware10gatekeeper4V1_011IGatekeeper21notifySyspropsChangedEv"
    },
    {
     "mangled_component_name":"_ZN7android8hardware10gatekeeper4V1_011IGatekeeper13unlinkToDeathERKNS_2spINS0_20hidl_death_recipientEEE"
    },
    {
     "kind":"complete_dtor_pointer",
     "mangled_component_name":"_ZN7android8hardware10gatekeeper4V1_011IGatekeeperD1Ev"
    },
    {
     "kind":"deleting_dtor_pointer",
     "mangled_component_name":"_ZN7android8hardware10gatekeeper4V1_011IGatekeeperD0Ev"
    },
    {
     "is_pure":true,
     "mangled_component_name":"_ZN7android8hardware10gatekeeper4V1_011IGatekeeper6enrollEjRKNS0_8hidl_vecIhEES7_S7_NSt3__18functionIFvRKNS2_18GatekeeperResponseEEEE"
    },
    {
     "is_pure":true,
     "mangled_component_name":"_ZN7android8hardware10gatekeeper4V1_011IGatekeeper6verifyEjyRKNS0_8hidl_vecIhEES7_NSt3__18functionIFvRKNS2_18GatekeeperResponseEEEE"
    },
    {
     "is_pure":true,
     "mangled_component_name":"_ZN7android8hardware10gatekeeper4V1_011IGatekeeper10deleteUserEjNSt3__18functionIFvRKNS2_18GatekeeperResponseEEEE"
    },
    {
     "is_pure":true,
     "mangled_component_name":"_ZN7android8hardware10gatekeeper4V1_011IGatekeeper14deleteAllUsersENSt3__18functionIFvRKNS2_18GatekeeperResponseEEEE"
    },
    {
     "kind":"vcall_offset"
    },
    {
     "kind":"vcall_offset"
    },
    {
     "kind":"vcall_offset"
    },
    {
     "kind":"vcall_offset"
    },
    {
     "kind":"vcall_offset",
     "component_value":-4
    },
    {
     "kind":"offset_to_top",
     "component_value":-4
    },
    {
     "kind":"rtti",
     "mangled_component_name":"_ZTIN7android8hardware10gatekeeper4V1_011IGatekeeperE"
    },
    {
     "kind":"complete_dtor_pointer",
     "mangled_component_name":"_ZTv0_n12_N7android8hardware10gatekeeper4V1_011IGatekeeperD1Ev"
    },
    {
     "kind":"deleting_dtor_pointer",
     "mangled_component_name":"_ZTv0_n12_N7android8hardware10gatekeeper4V1_011IGatekeeperD0Ev"
    },
    {
     "mangled_component_name":"_ZN7android7RefBase10onFirstRefEv"
    },
    {
     "mangled_component_name":"_ZN7android7RefBase15onLastStrongRefEPKv"
    },
    {
     "mangled_component_name":"_ZN7android7RefBase20onIncStrongAttemptedEjPKv"
    },
    {
     "mangled_component_name":"_ZN7android7RefBase13onLastWeakRefEPKv"
    }
   ],
   "unique_id":"_ZTSN7android8hardware10gatekeeper4V1_011IGatekeeperE"
  },
  {
   "vtable_components":[
    {
     "kind":"vbase_offset",
     "component_value":72
    },
    {
     "kind":"offset_to_top"
    },
    {
     "kind":"rtti",
     "mangled_component_name":"_ZTIN7android8hardware10gatekeeper4V1_014BnHwGatekeeperE"
    },
    {
     "mangled_component_name":"_ZN7android8hardware9BHwBinder8transactEjRKNS0_6ParcelEPS2_jNSt3__18functionIFvRS2_EEE"
    },
    {
     "mangled_component_name":"_ZN7android8hardware9BHwBinder11linkToDeathERKNS_2spINS0_7IBinder14DeathRecipientEEEPvj"
    },
    {
     "mangled_component_name":"_ZN7android8hardware9BHwBinder13unlinkToDeathERKNS_2wpINS0_7IBinder14DeathRecipientEEEPvjPS5_"
    },
    {
     "mangled_component_name":"_ZNK7android8hardware7IBinder13checkSubclassEPKv"
    },
    {
     "mangled_component_name":"_ZN7android8hardware9BHwBinder12attachObjectEPKvPvS4_PFvS3_S4_S4_E"
    },
    {
     "mangled_component_name":"_ZNK7android8hardware9BHwBinder10findObjectEPKv"
    },
    {
     "mangled_component_name":"_ZN7android8hardware9BHwBinder12detachObjectEPKv"
    },
    {
     "mangled_component_name":"_ZN7android8hardware9BHwBinder11localBinderEv"
    },
    {
     "mangled_component_name":"_ZN7android8hardware7IBinder12remoteBinderEv"
    },
    {
     "kind":"complete_dtor_pointer",
     "mangled_component_name":"_ZN7android8hardware10gatekeeper4V1_014BnHwGatekeeperD1Ev"
    },
    {
     "kind":"deleting_dtor_pointer",
     "mangled_component_name":"_ZN7android8hardware10gatekeeper4V1_014BnHwGatekeeperD0Ev"
    },
    {
     "mangled_component_name":"_ZN7android8hardware10gatekeeper4V1_014BnHwGatekeeper10onTransactEjRKNS0_6ParcelEPS4_jNSt3__18functionIFvRS4_EEE"
    },
    {
     "kind":"offset_to_top",
     "component_value":-20
    },
    {
     "kind":"rtti",
     "mangled_component_name":"_ZTIN7android8hardware10gatekeeper4V1_014BnHwGatekeeperE"
    },
    {
     "kind":"complete_dtor_pointer",
     "mangled_component_name":"_ZThn20_N7android8hardware10gatekeeper4V1_014BnHwGatekeeperD1Ev"
    },
    {
     "kind":"deleting_dtor_pointer",
     "mangled_component_name":"_ZThn20_N7android8hardware10gatekeeper4V1_014BnHwGatekeeperD0Ev"
    },
    {
     "kind":"vcall_offset"
    },
    {
     "kind":"vcall_offset"
    },
    {
     "kind":"vcall_offset"
    },
    {
     "kind":"vcall_offset"
    },
    {
     "kind":"vcall_offset",
     "component_value":-72
    },
    {
     "kind":"offset_to_top",
     "component_value":-72
    },
    {
     "kind":"rtti",
     "mangled_component_name":"_ZTIN7android8hardware10gatekeeper4V1_014BnHwGatekeeperE"
    },
    {
     "kind":"complete_dtor_pointer",
     "mangled_component_name":"_ZTv0_n12_N7android8hardware10gatekeeper4V1_014BnHwGatekeeperD1Ev"
    },
    {
     "kind":"deleting_dtor_pointer",
     "mangled_component_name":"_ZTv0_n12_N7android8hardware10gatekeeper4V1_014BnHwGatekeeperD0Ev"
    },
    {
     "mangled_component_name":"_ZN7android7RefBase10onFirstRefEv"
    },
    {
     "mangled_component_name":"_ZN7android7RefBase15onLastStrongRefEPKv"
    },
    {
     "mangled_component_name":"_ZN7android7RefBase20onIncStrongAttemptedEjPKv"
    },
    {
     "mangled_component_name":"_ZN7android7RefBase13onLastWeakRefEPKv"
    }
   ],
   "unique_id":"_ZTSN7android8hardware10gatekeeper4V1_014BnHwGatekeeperE"
  },
  {
   "vtable_components":[
    {
     "kind":"vbase_offset",
     "component_value":84
    },
    {
     "kind":"offset_to_top"
    },
    {
     "kind":"rtti",
     "mangled_component_name":"_ZTIN7android8hardware10gatekeeper4V1_014BpHwGatekeeperE"
    },
    {
     "mangled_component_name":"_ZNK7android8hardware10gatekeeper4V1_014BpHwGatekeeper8isRemoteEv"
    },
    {
     "mangled_component_name":"_ZN7android8hardware10gatekeeper4V1_014BpHwGatekeeper14interfaceChainENSt3__18functionIFvRKNS0_8hidl_vecINS0_11hidl_stringEEEEEE"
    },
    {
     "mangled_component_name":"_ZN7android8hardware10gatekeeper4V1_014BpHwGatekeeper5debugERKNS0_11hidl_handleERKNS0_8hidl_vecINS0_11hidl_stringEEE"
    },
    {
     "mangled_component_name":"_ZN7android8hardware10gatekeeper4V1_014BpHwGatekeeper19interfaceDescriptorENSt3__18functionIFvRKNS0_11hidl_stringEEEE"
    },
    {
     "mangled_component_name":"_ZN7android8hardware10gatekeeper4V1_014BpHwGatekeeper12getHashChainENSt3__18functionIFvRKNS0_8hidl_vecINS0_10hidl_arrayIhLj32EJEEEEEEEE"
    },
    {
     "mangled_component_name":"_ZN7android8hardware10gatekeeper4V1_014BpHwGatekeeper21setHALInstrumentationEv"
    },
    {
     "mangled_component_name":"_ZN7android8hardware10gatekeeper4V1_014BpHwGatekeeper11linkToDeathERKNS_2spINS0_20hidl_death_recipientEEEy"
    },
    {
     "mangled_component_name":"_ZN7android8hardware10gatekeeper4V1_014BpHwGatekeeper4pingEv"
    },
    {
     "mangled_component_name":"_ZN7android8hardware10gatekeeper4V1_014BpHwGatekeeper12getDebugInfoENSt3__18functionIFvRKNS_4hidl4base4V1_09DebugInfoEEEE"
    },
    {
     "mangled_component_name":"_ZN7android8hardware10gatekeeper4V1_014BpHwGatekeeper21notifySyspropsChangedEv"
    },
    {
     "mangled_component_name":"_ZN7android8hardware10gatekeeper4V1_014BpHwGatekeeper13unlinkToDeathERKNS_2spINS0_20hidl_death_recipientEEE"
    },
    {
     "kind":"complete_dtor_pointer",
     "mangled_component_name":"_ZN7android8hardware10gatekeeper4V1_014BpHwGatekeeperD1Ev"
    },
    {
     "kind":"deleting_dtor_pointer",
     "mangled_component_name":"_ZN7android8hardware10gatekeeper4V1_014BpHwGatekeeperD0Ev"
    },
    {
     "mangled_component_name":"_ZN7android8hardware10gatekeeper4V1_014BpHwGatekeeper6enrollEjRKNS0_8hidl_vecIhEES7_S7_NSt3__18functionIFvRKNS2_18GatekeeperResponseEEEE"
    },
    {
     "mangled_component_name":"_ZN7android8hardware10gatekeeper4V1_014BpHwGatekeeper6verifyEjyRKNS0_8hidl_vecIhEES7_NSt3__18functionIFvRKNS2_18GatekeeperResponseEEEE"
    },
    {
     "mangled_component_name":"_ZN7android8hardware10gatekeeper4V1_014BpHwGatekeeper10deleteUserEjNSt3__18functionIFvRKNS2_18GatekeeperResponseEEEE"
    },
    {
     "mangled_component_name":"_ZN7android8hardware10gatekeeper4V1_014BpHwGatekeeper14deleteAllUsersENSt3__18functionIFvRKNS2_18GatekeeperResponseEEEE"
    },
    {
     "mangled_component_name":"_ZN7android8hardware11BpInterfaceINS0_10gatekeeper4V1_011IGatekeeperEE10onAsBinderEv"
    },
    {
     "kind":"vbase_offset",
     "component_value":80
    },
    {
     "kind":"offset_to_top",
     "component_value":-4
    },
    {
     "kind":"rtti",
     "mangled_component_name":"_ZTIN7android8hardware10gatekeeper4V1_014BpHwGatekeeperE"
    },
    {
     "kind":"complete_dtor_pointer",
     "mangled_component_name":"_ZThn4_N7android8hardware10gatekeeper4V1_014BpHwGatekeeperD1Ev"
    },
    {
     "kind":"deleting_dtor_pointer",
     "mangled_component_name":"_ZThn4_N7android8hardware10gatekeeper4V1_014BpHwGatekeeperD0Ev"
    },
    {
     "mangled_component_name":"_ZThn4_N7android8hardware11BpInterfaceINS0_10gatekeeper4V1_011IGatekeeperEE10onAsBinderEv"
    },
    {
     "kind":"vbase_offset",
     "component_value":76
    },
    {
     "kind":"offset_to_top",
     "component_value":-8
    },
    {
     "kind":"rtti",
     "mangled_component_name":"_ZTIN7android8hardware10gatekeeper4V1_014BpHwGatekeeperE"
    },
    {
     "kind":"complete_dtor_pointer",
     "mangled_component_name":"_ZThn8_N7android8hardware10gatekeeper4V1_014BpHwGatekeeperD1Ev"
    },
    {
     "kind":"deleting_dtor_pointer",
     "mangled_component_name":"_ZThn8_N7android8hardware10gatekeeper4V1_014BpHwGatekeeperD0Ev"
    },
    {
     "mangled_component_name":"_ZN7android8hardware11BpHwRefBase10onFirstRefEv"
    },
    {
     "mangled_component_name":"_ZN7android8hardware11BpHwRefBase15onLastStrongRefEPKv"
    },
    {
     "mangled_component_name":"_ZN7android8hardware11BpHwRefBase20onIncStrongAttemptedEjPKv"
    },
    {
     "kind":"offset_to_top",
     "component_value":-24
    },
    {
     "kind":"rtti",
     "mangled_component_name":"_ZTIN7android8hardware10gatekeeper4V1_014BpHwGatekeeperE"
    },
    {
     "kind":"complete_dtor_pointer",
     "mangled_component_name":"_ZThn24_N7android8hardware10gatekeeper4V1_014BpHwGatekeeperD1Ev"
    },
    {
     "kind":"deleting_dtor_pointer",
     "mangled_component_name":"_ZThn24_N7android8hardware10gatekeeper4V1_014BpHwGatekeeperD0Ev"
    },
    {
     "kind":"vcall_offset"
    },
    {
     "kind":"vcall_offset",
     "component_value":-76
    },
    {
     "kind":"vcall_offset",
     "component_value":-76
    },
    {
     "kind":"vcall_offset",
     "component_value":-76
    },
    {
     "kind":"vcall_offset",
     "component_value":-84
    },
    {
     "kind":"offset_to_top",
     "component_value":-84
    },
    {
     "kind":"rtti",
     "mangled_component_name":"_ZTIN7android8hardware10gatekeeper4V1_014BpHwGatekeeperE"
    },
    {
     "kind":"complete_dtor_pointer",
     "mangled_component_name":"_ZTv0_n12_N7android8hardware10gatekeeper4V1_014BpHwGatekeeperD1Ev"
    },
    {
     "kind":"deleting_dtor_pointer",
     "mangled_component_name":"_ZTv0_n12_N7android8hardware10gatekeeper4V1_014BpHwGatekeeperD0Ev"
    },
    {
     "mangled_component_name":"_ZTv0_n16_N7android8hardware11BpHwRefBase10onFirstRefEv"
    },
    {
     "mangled_component_name":"_ZTv0_n20_N7android8hardware11BpHwRefBase15onLastStrongRefEPKv"
    },
    {
     "mangled_component_name":"_ZTv0_n24_N7android8hardware11BpHwRefBase20onIncStrongAttemptedEjPKv"
    },
    {
     "mangled_component_name":"_ZN7android7RefBase13onLastWeakRefEPKv"
    }
   ],
   "unique_id":"_ZTSN7android8hardware10gatekeeper4V1_014BpHwGatekeeperE"
  },
  {
   "vtable_components":[
    {
     "kind":"vbase_offset",
     "component_value":60
    },
    {
     "kind":"offset_to_top"
    },
    {
     "kind":"rtti",
     "mangled_component_name":"_ZTIN7android8hardware10gatekeeper4V1_012BsGatekeeperE"
    },
    {
     "mangled_component_name":"_ZNK7android8hardware10gatekeeper4V1_011IGatekeeper8isRemoteEv"
    },
    {
     "mangled_component_name":"_ZN7android8hardware10gatekeeper4V1_012BsGatekeeper14interfaceChainENSt3__18functionIFvRKNS0_8hidl_vecINS0_11hidl_stringEEEEEE"
    },
    {
     "mangled_component_name":"_ZN7android8hardware10gatekeeper4V1_012BsGatekeeper5debugERKNS0_11hidl_handleERKNS0_8hidl_vecINS0_11hidl_stringEEE"
    },
    {
     "mangled_component_name":"_ZN7android8hardware10gatekeeper4V1_012BsGatekeeper19interfaceDescriptorENSt3__18functionIFvRKNS0_11hidl_stringEEEE"
    },
    {
     "mangled_component_name":"_ZN7android8hardware10gatekeeper4V1_012BsGatekeeper12getHashChainENSt3__18functionIFvRKNS0_8hidl_vecINS0_10hidl_arrayIhLj32EJEEEEEEEE"
    },
    {
     "mangled_component_name":"_ZN7android8hardware10gatekeeper4V1_012BsGatekeeper21setHALInstrumentationEv"
    },
    {
     "mangled_component_name":"_ZN7android8hardware10gatekeeper4V1_012BsGatekeeper11linkToDeathERKNS_2spINS0_20hidl_death_recipientEEEy"
    },
    {
     "mangled_component_name":"_ZN7android8hardware10gatekeeper4V1_012BsGatekeeper4pingEv"
    },
    {
     "mangled_component_name":"_ZN7android8hardware10gatekeeper4V1_012BsGatekeeper12getDebugInfoENSt3__18functionIFvRKNS_4hidl4base4V1_09DebugInfoEEEE"
    },
    {
     "mangled_component_name":"_ZN7android8hardware10gatekeeper4V1_012BsGatekeeper21notifySyspropsChangedEv"
    },
    {
     "mangled_component_name":"_ZN7android8hardware10gatekeeper4V1_012BsGatekeeper13unlinkToDeathERKNS_2spINS0_20hidl_death_recipientEEE"
    },
    {
     "kind":"complete_dtor_pointer",
     "mangled_component_name":"_ZN7android8hardware10gatekeeper4V1_012BsGatekeeperD1Ev"
    },
    {
     "kind":"deleting_dtor_pointer",
     "mangled_component_name":"_ZN7android8hardware10gatekeeper4V1_012BsGatekeeperD0Ev"
    },
    {
     "mangled_component_name":"_ZN7android8hardware10gatekeeper4V1_012BsGatekeeper6enrollEjRKNS0_8hidl_vecIhEES7_S7_NSt3__18functionIFvRKNS2_18GatekeeperResponseEEEE"
    },
    {
     "mangled_component_name":"_ZN7android8hardware10gatekeeper4V1_012BsGatekeeper6verifyEjyRKNS0_8hidl_vecIhEES7_NSt3__18functionIFvRKNS2_18GatekeeperResponseEEEE"
    },
    {
     "mangled_component_name":"_ZN7android8hardware10gatekeeper4V1_012BsGatekeeper10deleteUserEjNSt3__18functionIFvRKNS2_18GatekeeperResponseEEEE"
    },
    {
     "mangled_component_name":"_ZN7android8hardware10gatekeeper4V1_012BsGatekeeper14deleteAllUsersENSt3__18functionIFvRKNS2_18GatekeeperResponseEEEE"
    },
    {
     "kind":"offset_to_top",
     "component_value":-4
    },
    {
     "kind":"rtti",
     "mangled_component_name":"_ZTIN7android8hardware10gatekeeper4V1_012BsGatekeeperE"
    },
    {
     "kind":"complete_dtor_pointer",
     "mangled_component_name":"_ZThn4_N7android8hardware10gatekeeper4V1_012BsGatekeeperD1Ev"
    },
    {
     "kind":"deleting_dtor_pointer",
     "mangled_component_name":"_ZThn4_N7android8hardware10gatekeeper4V1_012BsGatekeeperD0Ev"
    },
    {
     "kind":"vcall_offset"
    },
    {
     "kind":"vcall_offset"
    },
    {
     "kind":"vcall_offset"
    },
    {
     "kind":"vcall_offset"
    },
    {
     "kind":"vcall_offset",
     "component_value":-60
    },
    {
     "kind":"offset_to_top",
     "component_value":-60
    },
    {
     "kind":"rtti",
     "mangled_component_name":"_ZTIN7android8hardware10gatekeeper4V1_012BsGatekeeperE"
    },
    {
     "kind":"complete_dtor_pointer",
     "mangled_component_name":"_ZTv0_n12_N7android8hardware10gatekeeper4V1_012BsGatekeeperD1Ev"
    },
    {
     "kind":"deleting_dtor_pointer",
     "mangled_component_name":"_ZTv0_n12_N7android8hardware10gatekeeper4V1_012BsGatekeeperD0Ev"
    },
    {
     "mangled_component_name":"_ZN7android7RefBase10onFirstRefEv"
    },
    {
     "mangled_component_name":"_ZN7android7RefBase15onLastStrongRefEPKv"
    },
    {
     "mangled_component_name":"_ZN7android7RefBase20onIncStrongAttemptedEjPKv"
    },
    {
     "mangled_component_name":"_ZN7android7RefBase13onLastWeakRefEPKv"
    }
   ],
   "unique_id":"_ZTSN7android8hardware10gatekeeper4V1_012BsGatekeeperE"
  }
 ],
 "elf_functions":[
  {
   "name":"_ZN7android8hardware10gatekeeper4V1_011IGatekeeper10getServiceERKNSt3__112basic_stringIcNS4_11char_traitsIcEENS4_9allocatorIcEEEEb"
  },
  {
   "name":"_ZN7android8hardware10gatekeeper4V1_011IGatekeeper11linkToDeathERKNS_2spINS0_20hidl_death_recipientEEEy"
  },
  {
   "name":"_ZN7android8hardware10gatekeeper4V1_011IGatekeeper12getDebugInfoENSt3__18functionIFvRKNS_4hidl4base4V1_09DebugInfoEEEE"
  },
  {
   "name":"_ZN7android8hardware10gatekeeper4V1_011IGatekeeper12getHashChainENSt3__18functionIFvRKNS0_8hidl_vecINS0_10hidl_arrayIhLj32EJEEEEEEEE"
  },
  {
   "name":"_ZN7android8hardware10gatekeeper4V1_011IGatekeeper13tryGetServiceERKNSt3__112basic_stringIcNS4_11char_traitsIcEENS4_9allocatorIcEEEEb"
  },
  {
   "name":"_ZN7android8hardware10gatekeeper4V1_011IGatekeeper13unlinkToDeathERKNS_2spINS0_20hidl_death_recipientEEE"
  },
  {
   "name":"_ZN7android8hardware10gatekeeper4V1_011IGatekeeper14interfaceChainENSt3__18functionIFvRKNS0_8hidl_vecINS0_11hidl_stringEEEEEE"
  },
  {
   "name":"_ZN7android8hardware10gatekeeper4V1_011IGatekeeper17registerAsServiceERKNSt3__112basic_stringIcNS4_11char_traitsIcEENS4_9allocatorIcEEEE"
  },
  {
   "name":"_ZN7android8hardware10gatekeeper4V1_011IGatekeeper19interfaceDescriptorENSt3__18functionIFvRKNS0_11hidl_stringEEEE"
  },
  {
   "name":"_ZN7android8hardware10gatekeeper4V1_011IGatekeeper21notifySyspropsChangedEv"
  },
  {
   "name":"_ZN7android8hardware10gatekeeper4V1_011IGatekeeper21setHALInstrumentationEv"
  },
  {
   "name":"_ZN7android8hardware10gatekeeper4V1_011IGatekeeper24registerForNotificationsERKNSt3__112basic_stringIcNS4_11char_traitsIcEENS4_9allocatorIcEEEERKNS_2spINS_4hidl7manager4V1_020IServiceNotificationEEE"
  },
  {
   "name":"_ZN7android8hardware10gatekeeper4V1_011IGatekeeper4pingEv"
  },
  {
   "name":"_ZN7android8hardware10gatekeeper4V1_011IGatekeeper5debugERKNS0_11hidl_handleERKNS0_8hidl_vecINS0_11hidl_stringEEE"
  },
  {
   "name":"_ZN7android8hardware10gatekeeper4V1_011IGatekeeper8castFromERKNS_2spINS_4hidl4base4V1_05IBaseEEEb"
  },
  {
   "name":"_ZN7android8hardware10gatekeeper4V1_011IGatekeeper8castFromERKNS_2spIS3_EEb"
  },
  {
   "name":"_ZN7android8hardware10gatekeeper4V1_012BsGatekeeper13addOnewayTaskENSt3__18functionIFvvEEE"
  },
  {
   "name":"_ZN7android8hardware10gatekeeper4V1_012BsGatekeeperC1ENS_2spINS2_11IGatekeeperEEE"
  },
  {
   "name":"_ZN7android8hardware10gatekeeper4V1_012BsGatekeeperC2ENS_2spINS2_11IGatekeeperEEE"
  },
  {
   "name":"_ZN7android8hardware10gatekeeper4V1_014BnHwGatekeeper10onTransactEjRKNS0_6ParcelEPS4_jNSt3__18functionIFvRS4_EEE"
  },
  {
   "name":"_ZN7android8hardware10gatekeeper4V1_014BnHwGatekeeper12_hidl_enrollEPNS_4hidl4base4V1_08BnHwBaseERKNS0_6ParcelEPS9_NSt3__18functionIFvRS9_EEE"
  },
  {
   "name":"_ZN7android8hardware10gatekeeper4V1_014BnHwGatekeeper12_hidl_verifyEPNS_4hidl4base4V1_08BnHwBaseERKNS0_6ParcelEPS9_NSt3__18functionIFvRS9_EEE"
  },
  {
   "name":"_ZN7android8hardware10gatekeeper4V1_014BnHwGatekeeper12getDebugInfoENSt3__18functionIFvRKNS_4hidl4base4V1_09DebugInfoEEEE"
  },
  {
   "name":"_ZN7android8hardware10gatekeeper4V1_014BnHwGatekeeper16_hidl_deleteUserEPNS_4hidl4base4V1_08BnHwBaseERKNS0_6ParcelEPS9_NSt3__18functionIFvRS9_EEE"
  },
  {
   "name":"_ZN7android8hardware10gatekeeper4V1_014BnHwGatekeeper20_hidl_deleteAllUsersEPNS_4hidl4base4V1_08BnHwBaseERKNS0_6ParcelEPS9_NSt3__18functionIFvRS9_EEE"
  },
  {
   "name":"_ZN7android8hardware10gatekeeper4V1_014BnHwGatekeeper4pingEv"
  },
  {
   "name":"_ZN7android8hardware10gatekeeper4V1_014BnHwGatekeeperC1ERKNS_2spINS2_11IGatekeeperEEE"
  },
  {
   "name":"_ZN7android8hardware10gatekeeper4V1_014BnHwGatekeeperC2ERKNS_2spINS2_11IGatekeeperEEE"
  },
  {
   "name":"_ZN7android8hardware10gatekeeper4V1_014BnHwGatekeeperD0Ev"
  },
  {
   "name":"_ZN7android8hardware10gatekeeper4V1_014BnHwGatekeeperD1Ev"
  },
  {
   "name":"_ZN7android8hardware10gatekeeper4V1_014BnHwGatekeeperD2Ev"
  },
  {
   "name":"_ZN7android8hardware10gatekeeper4V1_014BpHwGatekeeper10deleteUserEjNSt3__18functionIFvRKNS2_18GatekeeperResponseEEEE"
  },
  {
   "name":"_ZN7android8hardware10gatekeeper4V1_014BpHwGatekeeper11linkToDeathERKNS_2spINS0_20hidl_death_recipientEEEy"
  },
  {
   "name":"_ZN7android8hardware10gatekeeper4V1_014BpHwGatekeeper12_hidl_enrollEPNS0_10IInterfaceEPNS0_7details16HidlInstrumentorEjRKNS0_8hidl_vecIhEESC_SC_NSt3__18functionIFvRKNS2_18GatekeeperResponseEEEE"
  },
  {
   "name":"_ZN7android8hardware10gatekeeper4V1_014BpHwGatekeeper12_hidl_verifyEPNS0_10IInterfaceEPNS0_7details16HidlInstrumentorEjyRKNS0_8hidl_vecIhEESC_NSt3__18functionIFvRKNS2_18GatekeeperResponseEEEE"
  },
  {
   "name":"_ZN7android8hardware10gatekeeper4V1_014BpHwGatekeeper12getDebugInfoENSt3__18functionIFvRKNS_4hidl4base4V1_09DebugInfoEEEE"
  },
  {
   "name":"_ZN7android8hardware10gatekeeper4V1_014BpHwGatekeeper12getHashChainENSt3__18functionIFvRKNS0_8hidl_vecINS0_10hidl_arrayIhLj32EJEEEEEEEE"
  },
  {
   "name":"_ZN7android8hardware10gatekeeper4V1_014BpHwGatekeeper13unlinkToDeathERKNS_2spINS0_20hidl_death_recipientEEE"
  },
  {
   "name":"_ZN7android8hardware10gatekeeper4V1_014BpHwGatekeeper14deleteAllUsersENSt3__18functionIFvRKNS2_18GatekeeperResponseEEEE"
  },
  {
   "name":"_ZN7android8hardware10gatekeeper4V1_014BpHwGatekeeper14interfaceChainENSt3__18functionIFvRKNS0_8hidl_vecINS0_11hidl_stringEEEEEE"
  },
  {
   "name":"_ZN7android8hardware10gatekeeper4V1_014BpHwGatekeeper16_hidl_deleteUserEPNS0_10IInterfaceEPNS0_7details16HidlInstrumentorEjNSt3__18functionIFvRKNS2_18GatekeeperResponseEEEE"
  },
  {
   "name":"_ZN7android8hardware10gatekeeper4V1_014BpHwGatekeeper19interfaceDescriptorENSt3__18functionIFvRKNS0_11hidl_stringEEEE"
  },
  {
   "name":"_ZN7android8hardware10gatekeeper4V1_014BpHwGatekeeper20_hidl_deleteAllUsersEPNS0_10IInterfaceEPNS0_7details16HidlInstrumentorENSt3__18functionIFvRKNS2_18GatekeeperResponseEEEE"
  },
  {
   "name":"_ZN7android8hardware10gatekeeper4V1_014BpHwGatekeeper21notifySyspropsChangedEv"
  },
  {
   "name":"_ZN7android8hardware10gatekeeper4V1_014BpHwGatekeeper21setHALInstrumentationEv"
  },
  {
   "name":"_ZN7android8hardware10gatekeeper4V1_014BpHwGatekeeper4pingEv"
  },
  {
   "name":"_ZN7android8hardware10gatekeeper4V1_014BpHwGatekeeper5debugERKNS0_11hidl_handleERKNS0_8hidl_vecINS0_11hidl_stringEEE"
  },
  {
   "name":"_ZN7android8hardware10gatekeeper4V1_014BpHwGatekeeper6enrollEjRKNS0_8hidl_vecIhEES7_S7_NSt3__18functionIFvRKNS2_18GatekeeperResponseEEEE"
  },
  {
   "name":"_ZN7android8hardware10gatekeeper4V1_014BpHwGatekeeper6verifyEjyRKNS0_8hidl_vecIhEES7_NSt3__18functionIFvRKNS2_18GatekeeperResponseEEEE"
  },
  {
   "name":"_ZN7android8hardware10gatekeeper4V1_014BpHwGatekeeperC1ERKNS_2spINS0_7IBinderEEE"
  },
  {
   "name":"_ZN7android8hardware10gatekeeper4V1_014BpHwGatekeeperC2ERKNS_2spINS0_7IBinderEEE"
  },
  {
   "name":"_ZN7android8hardware10gatekeeper4V1_021writeEmbeddedToParcelERKNS2_18GatekeeperResponseEPNS0_6ParcelEjj"
  },
  {
   "name":"_ZN7android8hardware10gatekeeper4V1_022readEmbeddedFromParcelERKNS2_18GatekeeperResponseERKNS0_6ParcelEjj"
  },
  {
   "binding":"weak",
   "name":"_ZN7android8hardware7details13castInterfaceINS0_10gatekeeper4V1_011IGatekeeperENS_4hidl4base4V1_05IBaseENS4_14BpHwGatekeeperEEENS0_6ReturnINS_2spIT_EEEENSC_IT0_EEPKcb"
  },
  {
   "binding":"weak",
   "name":"_ZN7android8hardware7details18getServiceInternalINS0_10gatekeeper4V1_014BpHwGatekeeperENS4_11IGatekeeperEvvEENS_2spIT0_EERKNSt3__112basic_stringIcNSA_11char_traitsIcEENSA_9allocatorIcEEEEbb"
  },
  {
   "binding":"weak",
   "name":"_ZN7android8hardware8toBinderINS_4hidl4base4V1_05IBaseEvEENS_2spINS0_7IBinderEEENS6_IT_EE"
  },
  {
   "name":"_ZThn20_N7android8hardware10gatekeeper4V1_014BnHwGatekeeperD0Ev"
  },
  {
   "name":"_ZThn20_N7android8hardware10gatekeeper4V1_014BnHwGatekeeperD1Ev"
  },
  {
   "name":"_ZTv0_n12_N7android8hardware10gatekeeper4V1_014BnHwGatekeeperD0Ev"
  },
  {
   "name":"_ZTv0_n12_N7android8hardware10gatekeeper4V1_014BnHwGatekeeperD1Ev"
  }
 ],
 "elf_objects":[
  {
   "name":"_ZN7android8hardware10gatekeeper4V1_011IGatekeeper10descriptorE"
  },
  {
   "name":"_ZTTN7android8hardware10gatekeeper4V1_011IGatekeeperE"
  },
  {
   "name":"_ZTTN7android8hardware10gatekeeper4V1_014BnHwGatekeeperE"
  },
  {
   "name":"_ZTTN7android8hardware10gatekeeper4V1_014BpHwGatekeeperE"
  },
  {
   "name":"_ZTVN7android8hardware10gatekeeper4V1_011IGatekeeperE"
  },
  {
   "binding":"weak",
   "name":"_ZTVN7android8hardware10gatekeeper4V1_012BsGatekeeperE"
  },
  {
   "name":"_ZTVN7android8hardware10gatekeeper4V1_014BnHwGatekeeperE"
  },
  {
   "name":"_ZTVN7android8hardware10gatekeeper4V1_014BpHwGatekeeperE"
  }
 ]
}