{
 "record_types":[
  {
   "vtable_components":[
    {
     "kind":"vbase_offset",
     "component_value":72
    },
    {
     "kind":"offset_to_top"
    },
    {
     "kind":"rtti",
     "mangled_component_name":"_ZTIN7android8hardware12soundtrigger4V2_118BnHwSoundTriggerHwE"
    },
    {
     "mangled_component_name":"_ZN7android8hardware9BHwBinder8transactEjRKNS0_6ParcelEPS2_jNSt3__18functionIFvRS2_EEE"
    },
    {
     "mangled_component_name":"_ZN7android8hardware9BHwBinder11linkToDeathERKNS_2spINS0_7IBinder14DeathRecipientEEEPvj"
    },
    {
     "mangled_component_name":"_ZN7android8hardware9BHwBinder13unlinkToDeathERKNS_2wpINS0_7IBinder14DeathRecipientEEEPvjPS5_"
    },
    {
     "mangled_component_name":"_ZNK7android8hardware7IBinder13checkSubclassEPKv"
    },
    {
     "mangled_component_name":"_ZN7android8hardware9BHwBinder12attachObjectEPKvPvS4_PFvS3_S4_S4_E"
    },
    {
     "mangled_component_name":"_ZNK7android8hardware9BHwBinder10findObjectEPKv"
    },
    {
     "mangled_component_name":"_ZN7android8hardware9BHwBinder12detachObjectEPKv"
    },
    {
     "mangled_component_name":"_ZN7android8hardware9BHwBinder11localBinderEv"
    },
    {
     "mangled_component_name":"_ZN7android8hardware7IBinder12remoteBinderEv"
    },
    {
     "kind":"complete_dtor_pointer",
     "mangled_component_name":"_ZN7android8hardware12soundtrigger4V2_118BnHwSoundTriggerHwD1Ev"
    },
    {
     "kind":"deleting_dtor_pointer",
     "mangled_component_name":"_ZN7android8hardware12soundtrigger4V2_118BnHwSoundTriggerHwD0Ev"
    },
    {
     "mangled_component_name":"_ZN7android8hardware12soundtrigger4V2_118BnHwSoundTriggerHw10onTransactEjRKNS0_6ParcelEPS4_jNSt3__18functionIFvRS4_EEE"
    },
    {
     "kind":"offset_to_top",
     "component_value":-20
    },
    {
     "kind":"rtti",
     "mangled_component_name":"_ZTIN7android8hardware12soundtrigger4V2_118BnHwSoundTriggerHwE"
    },
    {
     "kind":"complete_dtor_pointer",
     "mangled_component_name":"_ZThn20_N7android8hardware12soundtrigger4V2_118BnHwSoundTriggerHwD1Ev"
    },
    {
     "kind":"deleting_dtor_pointer",
     "mangled_component_name":"_ZThn20_N7android8hardware12soundtrigger4V2_118BnHwSoundTriggerHwD0Ev"
    },
    {
     "kind":"vcall_offset"
    },
    {
     "kind":"vcall_offset"
    },
    {
     "kind":"vcall_offset"
    },
    {
     "kind":"vcall_offset"
    },
    {
     "kind":"vcall_offset",
     "component_value":-72
    },
    {
     "kind":"offset_to_top",
     "component_value":-72
    },
    {
     "kind":"rtti",
     "mangled_component_name":"_ZTIN7android8hardware12soundtrigger4V2_118BnHwSoundTriggerHwE"
    },
    {
     "kind":"complete_dtor_pointer",
     "mangled_component_name":"_ZTv0_n12_N7android8hardware12soundtrigger4V2_118BnHwSoundTriggerHwD1Ev"
    },
    {
     "kind":"deleting_dtor_pointer",
     "mangled_component_name":"_ZTv0_n12_N7android8hardware12soundtrigger4V2_118BnHwSoundTriggerHwD0Ev"
    },
    {
     "mangled_component_name":"_ZN7android7RefBase10onFirstRefEv"
    },
    {
     "mangled_component_name":"_ZN7android7RefBase15onLastStrongRefEPKv"
    },
    {
     "mangled_component_name":"_ZN7android7RefBase20onIncStrongAttemptedEjPKv"
    },
    {
     "mangled_component_name":"_ZN7android7RefBase13onLastWeakRefEPKv"
    }
   ],
   "unique_id":"_ZTSN7android8hardware12soundtrigger4V2_118BnHwSoundTriggerHwE"
  },
  {
   "vtable_components":[
    {
     "kind":"vbase_offset",
     "component_value":4
    },
    {
     "kind":"offset_to_top"
    },
    {
     "kind":"rtti",
     "mangled_component_name":"_ZTIN7android8hardware12soundtrigger4V2_115ISoundTriggerHwE"
    },
    {
     "mangled_component_name":"_ZNK7android8hardware12soundtrigger4V2_115ISoundTriggerHw8isRemoteEv"
    },
    {
     "mangled_component_name":"_ZN7android8hardware12soundtrigger4V2_115ISoundTriggerHw14interfaceChainENSt3__18functionIFvRKNS0_8hidl_vecINS0_11hidl_stringEEEEEE"
    },
    {
     "mangled_component_name":"_ZN7android8hardware12soundtrigger4V2_115ISoundTriggerHw5debugERKNS0_11hidl_handleERKNS0_8hidl_vecINS0_11hidl_stringEEE"
    },
    {
     "mangled_component_name":"_ZN7android8hardware12soundtrigger4V2_115ISoundTriggerHw19interfaceDescriptorENSt3__18functionIFvRKNS0_11hidl_stringEEEE"
    },
    {
     "mangled_component_name":"_ZN7android8hardware12soundtrigger4V2_115ISoundTriggerHw12getHashChainENSt3__18functionIFvRKNS0_8hidl_vecINS0_10hidl_arrayIhLj32EJEEEEEEEE"
    },
    {
     "mangled_component_name":"_ZN7android8hardware12soundtrigger4V2_115ISoundTriggerHw21setHALInstrumentationEv"
    },
    {
     "mangled_component_name":"_ZN7android8hardware12soundtrigger4V2_115ISoundTriggerHw11linkToDeathERKNS_2spINS0_20hidl_death_recipientEEEy"
    },
    {
     "mangled_component_name":"_ZN7android8hardware12soundtrigger4V2_115ISoundTriggerHw4pingEv"
    },
    {
     "mangled_component_name":"_ZN7android8hardware12soundtrigger4V2_115ISoundTriggerHw12getDebugInfoENSt3__18functionIFvRKNS_4hidl4base4V1_09DebugInfoEEEE"
    },
    {
     "mangled_component_name":"_ZN7android8hardware12soundtrigger4V2_115ISoundTriggerHw21notifySyspropsChangedEv"
    },
    {
     "mangled_component_name":"_ZN7android8hardware12soundtrigger4V2_115ISoundTriggerHw13unlinkToDeathERKNS_2spINS0_20hidl_death_recipientEEE"
    },
    {
     "kind":"complete_dtor_pointer",
     "mangled_component_name":"_ZN7android8hardware12soundtrigger4V2_115ISoundTriggerHwD1Ev"
    },
    {
     "kind":"deleting_dtor_pointer",
     "mangled_component_name":"_ZN7android8hardware12soundtrigger4V2_115ISoundTriggerHwD0Ev"
    },
    {
     "is_pure":true,
     "mangled_component_name":"_ZN7android8hardware12soundtrigger4V2_115ISoundTriggerHw13getPropertiesENSt3__18functionIFviRKNS1_4V2_015ISoundTriggerHw10PropertiesEEEE"
    },
    {
     "is_pure":true,
     "mangled_component_name":"_ZN7android8hardware12soundtrigger4V2_115ISoundTriggerHw14loadSoundModelERKNS1_4V2_015ISoundTriggerHw10SoundModelERKNS_2spINS4_23ISoundTriggerHwCallbackEEEiNSt3__18functionIFviiEEE"
    },
    {
     "is_pure":true,
     "mangled_component_name":"_ZN7android8hardware12soundtrigger4V2_115ISoundTriggerHw20loadPhraseSoundModelERKNS1_4V2_015ISoundTriggerHw16PhraseSoundModelERKNS_2spINS4_23ISoundTriggerHwCallbackEEEiNSt3__18functionIFviiEEE"
    },
    {
     "is_pure":true,
     "mangled_component_name":"_ZN7android8hardware12soundtrigger4V2_115ISoundTriggerHw16unloadSoundModelEi"
    },
    {
     "is_pure":true,
     "mangled_component_name":"_ZN7android8hardware12soundtrigger4V2_115ISoundTriggerHw16startRecognitionEiRKNS1_4V2_015ISoundTriggerHw17RecognitionConfigERKNS_2spINS4_23ISoundTriggerHwCallbackEEEi"
    },
    {
     "is_pure":true,
     "mangled_component_name":"_ZN7android8hardware12soundtrigger4V2_115ISoundTriggerHw15stopRecognitionEi"
    },
    {
     "is_pure":true,
     "mangled_component_name":"_ZN7android8hardware12soundtrigger4V2_115ISoundTriggerHw19stopAllRecognitionsEv"
    },
    {
     "is_pure":true,
     "mangled_component_name":"_ZN7android8hardware12soundtrigger4V2_115ISoundTriggerHw18loadSoundModel_2_1ERKNS3_10SoundModelERKNS_2spINS2_23ISoundTriggerHwCallbackEEEiNSt3__18functionIFviiEEE"
    },
    {
     "is_pure":true,
     "mangled_component_name":"_ZN7android8hardware12soundtrigger4V2_115ISoundTriggerHw24loadPhraseSoundModel_2_1ERKNS3_16PhraseSoundModelERKNS_2spINS2_23ISoundTriggerHwCallbackEEEiNSt3__18functionIFviiEEE"
    },
    {
     "is_pure":true,
     "mangled_component_name":"_ZN7android8hardware12soundtrigger4V2_115ISoundTriggerHw20startRecognition_2_1EiRKNS3_17RecognitionConfigERKNS_2spINS2_23ISoundTriggerHwCallbackEEEi"
    },
    {
     "kind":"vcall_offset"
    },
    {
     "kind":"vcall_offset"
    },
    {
     "kind":"vcall_offset"
    },
    {
     "kind":"vcall_offset"
    },
    {
     "kind":"vcall_offset",
     "component_value":-4
    },
    {
     "kind":"offset_to_top",
     "component_value":-4
    },
    {
     "kind":"rtti",
     "mangled_component_name":"_ZTIN7android8hardware12soundtrigger4V2_115ISoundTriggerHwE"
    },
    {
     "kind":"complete_dtor_pointer",
     "mangled_component_name":"_ZTv0_n12_N7android8hardware12soundtrigger4V2_115ISoundTriggerHwD1Ev"
    },
    {
     "kind":"deleting_dtor_pointer",
     "mangled_component_name":"_ZTv0_n12_N7android8hardware12soundtrigger4V2_115ISoundTriggerHwD0Ev"
    },
    {
     "mangled_component_name":"_ZN7android7RefBase10onFirstRefEv"
    },
    {
     "mangled_component_name":"_ZN7android7RefBase15onLastStrongRefEPKv"
    },
    {
     "mangled_component_name":"_ZN7android7RefBase20onIncStrongAttemptedEjPKv"
    },
    {
     "mangled_component_name":"_ZN7android7RefBase13onLastWeakRefEPKv"
    }
   ],
   "unique_id":"_ZTSN7android8hardware12soundtrigger4V2_115ISoundTriggerHwE"
  },
  {
   "vtable_components":[
    {
     "kind":"vbase_offset",
     "component_value":84
    },
    {
     "kind":"offset_to_top"
    },
    {
     "kind":"rtti",
     "mangled_component_name":"_ZTIN7android8hardware12soundtrigger4V2_126BpHwSoundTriggerHwCallbackE"
    },
    {
     "mangled_component_name":"_ZNK7android8hardware12soundtrigger4V2_126BpHwSoundTriggerHwCallback8isRemoteEv"
    },
    {
     "mangled_component_name":"_ZN7android8hardware12soundtrigger4V2_126BpHwSoundTriggerHwCallback14interfaceChainENSt3__18functionIFvRKNS0_8hidl_vecINS0_11hidl_stringEEEEEE"
    },
    {
     "mangled_component_name":"_ZN7android8hardware12soundtrigger4V2_126BpHwSoundTriggerHwCallback5debugERKNS0_11hidl_handleERKNS0_8hidl_vecINS0_11hidl_stringEEE"
    },
    {
     "mangled_component_name":"_ZN7android8hardware12soundtrigger4V2_126BpHwSoundTriggerHwCallback19interfaceDescriptorENSt3__18functionIFvRKNS0_11hidl_stringEEEE"
    },
    {
     "mangled_component_name":"_ZN7android8hardware12soundtrigger4V2_126BpHwSoundTriggerHwCallback12getHashChainENSt3__18functionIFvRKNS0_8hidl_vecINS0_10hidl_arrayIhLj32EJEEEEEEEE"
    },
    {
     "mangled_component_name":"_ZN7android8hardware12soundtrigger4V2_126BpHwSoundTriggerHwCallback21setHALInstrumentationEv"
    },
    {
     "mangled_component_name":"_ZN7android8hardware12soundtrigger4V2_126BpHwSoundTriggerHwCallback11linkToDeathERKNS_2spINS0_20hidl_death_recipientEEEy"
    },
    {
     "mangled_component_name":"_ZN7android8hardware12soundtrigger4V2_126BpHwSoundTriggerHwCallback4pingEv"
    },
    {
     "mangled_component_name":"_ZN7android8hardware12soundtrigger4V2_126BpHwSoundTriggerHwCallback12getDebugInfoENSt3__18functionIFvRKNS_4hidl4base4V1_09DebugInfoEEEE"
    },
    {
     "mangled_component_name":"_ZN7android8hardware12soundtrigger4V2_126BpHwSoundTriggerHwCallback21notifySyspropsChangedEv"
    },
    {
     "mangled_component_name":"_ZN7android8hardware12soundtrigger4V2_126BpHwSoundTriggerHwCallback13unlinkToDeathERKNS_2spINS0_20hidl_death_recipientEEE"
    },
    {
     "kind":"complete_dtor_pointer",
     "mangled_component_name":"_ZN7android8hardware12soundtrigger4V2_126BpHwSoundTriggerHwCallbackD1Ev"
    },
    {
     "kind":"deleting_dtor_pointer",
     "mangled_component_name":"_ZN7android8hardware12soundtrigger4V2_126BpHwSoundTriggerHwCallbackD0Ev"
    },
    {
     "mangled_component_name":"_ZN7android8hardware12soundtrigger4V2_126BpHwSoundTriggerHwCallback19recognitionCallbackERKNS1_4V2_023ISoundTriggerHwCallback16RecognitionEventEi"
    },
    {
     "mangled_component_name":"_ZN7android8hardware12soundtrigger4V2_126BpHwSoundTriggerHwCallback25phraseRecognitionCallbackERKNS1_4V2_023ISoundTriggerHwCallback22PhraseRecognitionEventEi"
    },
    {
     "mangled_component_name":"_ZN7android8hardware12soundtrigger4V2_126BpHwSoundTriggerHwCallback18soundModelCallbackERKNS1_4V2_023ISoundTriggerHwCallback10ModelEventEi"
    },
    {
     "mangled_component_name":"_ZN7android8hardware12soundtrigger4V2_126BpHwSoundTriggerHwCallback23recognitionCallback_2_1ERKNS2_23ISoundTriggerHwCallback16RecognitionEventEi"
    },
    {
     "mangled_component_name":"_ZN7android8hardware12soundtrigger4V2_126BpHwSoundTriggerHwCallback29phraseRecognitionCallback_2_1ERKNS2_23ISoundTriggerHwCallback22PhraseRecognitionEventEi"
    },
    {
     "mangled_component_name":"_ZN7android8hardware12soundtrigger4V2_126BpHwSoundTriggerHwCallback22soundModelCallback_2_1ERKNS2_23ISoundTriggerHwCallback10ModelEventEi"
    },
    {
     "mangled_component_name":"_ZN7android8hardware11BpInterfaceINS0_12soundtrigger4V2_123ISoundTriggerHwCallbackEE10onAsBinderEv"
    },
    {
     "kind":"vbase_offset",
     "component_value":80
    },
    {
     "kind":"offset_to_top",
     "component_value":-4
    },
    {
     "kind":"rtti",
     "mangled_component_name":"_ZTIN7android8hardware12soundtrigger4V2_126BpHwSoundTriggerHwCallbackE"
    },
    {
     "kind":"complete_dtor_pointer",
     "mangled_component_name":"_ZThn4_N7android8hardware12soundtrigger4V2_126BpHwSoundTriggerHwCallbackD1Ev"
    },
    {
     "kind":"deleting_dtor_pointer",
     "mangled_component_name":"_ZThn4_N7android8hardware12soundtrigger4V2_126BpHwSoundTriggerHwCallbackD0Ev"
    },
    {
     "mangled_component_name":"_ZThn4_N7android8hardware11BpInterfaceINS0_12soundtrigger4V2_123ISoundTriggerHwCallbackEE10onAsBinderEv"
    },
    {
     "kind":"vbase_offset",
     "component_value":76
    },
    {
     "kind":"offset_to_top",
     "component_value":-8
    },
    {
     "kind":"rtti",
     "mangled_component_name":"_ZTIN7android8hardware12soundtrigger4V2_126BpHwSoundTriggerHwCallbackE"
    },
    {
     "kind":"complete_dtor_pointer",
     "mangled_component_name":"_ZThn8_N7android8hardware12soundtrigger4V2_126BpHwSoundTriggerHwCallbackD1Ev"
    },
    {
     "kind":"deleting_dtor_pointer",
     "mangled_component_name":"_ZThn8_N7android8hardware12soundtrigger4V2_126BpHwSoundTriggerHwCallbackD0Ev"
    },
    {
     "mangled_component_name":"_ZN7android8hardware11BpHwRefBase10onFirstRefEv"
    },
    {
     "mangled_component_name":"_ZN7android8hardware11BpHwRefBase15onLastStrongRefEPKv"
    },
    {
     "mangled_component_name":"_ZN7android8hardware11BpHwRefBase20onIncStrongAttemptedEjPKv"
    },
    {
     "kind":"offset_to_top",
     "component_value":-24
    },
    {
     "kind":"rtti",
     "mangled_component_name":"_ZTIN7android8hardware12soundtrigger4V2_126BpHwSoundTriggerHwCallbackE"
    },
    {
     "kind":"complete_dtor_pointer",
     "mangled_component_name":"_ZThn24_N7android8hardware12soundtrigger4V2_126BpHwSoundTriggerHwCallbackD1Ev"
    },
    {
     "kind":"deleting_dtor_pointer",
     "mangled_component_name":"_ZThn24_N7android8hardware12soundtrigger4V2_126BpHwSoundTriggerHwCallbackD0Ev"
    },
    {
     "kind":"vcall_offset"
    },
    {
     "kind":"vcall_offset",
     "component_value":-76
    },
    {
     "kind":"vcall_offset",
     "component_value":-76
    },
    {
     "kind":"vcall_offset",
     "component_value":-76
    },
    {
     "kind":"vcall_offset",
     "component_value":-84
    },
    {
     "kind":"offset_to_top",
     "component_value":-84
    },
    {
     "kind":"rtti",
     "mangled_component_name":"_ZTIN7android8hardware12soundtrigger4V2_126BpHwSoundTriggerHwCallbackE"
    },
    {
     "kind":"complete_dtor_pointer",
     "mangled_component_name":"_ZTv0_n12_N7android8hardware12soundtrigger4V2_126BpHwSoundTriggerHwCallbackD1Ev"
    },
    {
     "kind":"deleting_dtor_pointer",
     "mangled_component_name":"_ZTv0_n12_N7android8hardware12soundtrigger4V2_126BpHwSoundTriggerHwCallbackD0Ev"
    },
    {
     "mangled_component_name":"_ZTv0_n16_N7android8hardware11BpHwRefBase10onFirstRefEv"
    },
    {
     "mangled_component_name":"_ZTv0_n20_N7android8hardware11BpHwRefBase15onLastStrongRefEPKv"
    },
    {
     "mangled_component_name":"_ZTv0_n24_N7android8hardware11BpHwRefBase20onIncStrongAttemptedEjPKv"
    },
    {
     "mangled_component_name":"_ZN7android7RefBase13onLastWeakRefEPKv"
    }
   ],
   "unique_id":"_ZTSN7android8hardware12soundtrigger4V2_126BpHwSoundTriggerHwCallbackE"
  },
  {
   "vtable_components":[
    {
     "kind":"vbase_offset",
     "component_value":60
    },
    {
     "kind":"offset_to_top"
    },
    {
     "kind":"rtti",
     "mangled_component_name":"_ZTIN7android8hardware12soundtrigger4V2_124BsSoundTriggerHwCallbackE"
    },
    {
     "mangled_component_name":"_ZNK7android8hardware12soundtrigger4V2_123ISoundTriggerHwCallback8isRemoteEv"
    },
    {
     "mangled_component_name":"_ZN7android8hardware12soundtrigger4V2_124BsSoundTriggerHwCallback14interfaceChainENSt3__18functionIFvRKNS0_8hidl_vecINS0_11hidl_stringEEEEEE"
    },
    {
     "mangled_component_name":"_ZN7android8hardware12soundtrigger4V2_124BsSoundTriggerHwCallback5debugERKNS0_11hidl_handleERKNS0_8hidl_vecINS0_11hidl_stringEEE"
    },
    {
     "mangled_component_name":"_ZN7android8hardware12soundtrigger4V2_124BsSoundTriggerHwCallback19interfaceDescriptorENSt3__18functionIFvRKNS0_11hidl_stringEEEE"
    },
    {
     "mangled_component_name":"_ZN7android8hardware12soundtrigger4V2_124BsSoundTriggerHwCallback12getHashChainENSt3__18functionIFvRKNS0_8hidl_vecINS0_10hidl_arrayIhLj32EJEEEEEEEE"
    },
    {
     "mangled_component_name":"_ZN7android8hardware12soundtrigger4V2_124BsSoundTriggerHwCallback21setHALInstrumentationEv"
    },
    {
     "mangled_component_name":"_ZN7android8hardware12soundtrigger4V2_124BsSoundTriggerHwCallback11linkToDeathERKNS_2spINS0_20hidl_death_recipientEEEy"
    },
    {
     "mangled_component_name":"_ZN7android8hardware12soundtrigger4V2_124BsSoundTriggerHwCallback4pingEv"
    },
    {
     "mangled_component_name":"_ZN7android8hardware12soundtrigger4V2_124BsSoundTriggerHwCallback12getDebugInfoENSt3__18functionIFvRKNS_4hidl4base4V1_09DebugInfoEEEE"
    },
    {
     "mangled_component_name":"_ZN7android8hardware12soundtrigger4V2_124BsSoundTriggerHwCallback21notifySyspropsChangedEv"
    },
    {
     "mangled_component_name":"_ZN7android8hardware12soundtrigger4V2_124BsSoundTriggerHwCallback13unlinkToDeathERKNS_2spINS0_20hidl_death_recipientEEE"
    },
    {
     "kind":"complete_dtor_pointer",
     "mangled_component_name":"_ZN7android8hardware12soundtrigger4V2_124BsSoundTriggerHwCallbackD1Ev"
    },
    {
     "kind":"deleting_dtor_pointer",
     "mangled_component_name":"_ZN7android8hardware12soundtrigger4V2_124BsSoundTriggerHwCallbackD0Ev"
    },
    {
     "mangled_component_name":"_ZN7android8hardware12soundtrigger4V2_124BsSoundTriggerHwCallback19recognitionCallbackERKNS1_4V2_023ISoundTriggerHwCallback16RecognitionEventEi"
    },
    {
     "mangled_component_name":"_ZN7android8hardware12soundtrigger4V2_124BsSoundTriggerHwCallback25phraseRecognitionCallbackERKNS1_4V2_023ISoundTriggerHwCallback22PhraseRecognitionEventEi"
    },
    {
     "mangled_component_name":"_ZN7android8hardware12soundtrigger4V2_124BsSoundTriggerHwCallback18soundModelCallbackERKNS1_4V2_023ISoundTriggerHwCallback10ModelEventEi"
    },
    {
     "mangled_component_name":"_ZN7android8hardware12soundtrigger4V2_124BsSoundTriggerHwCallback23recognitionCallback_2_1ERKNS2_23ISoundTriggerHwCallback16RecognitionEventEi"
    },
    {
     "mangled_component_name":"_ZN7android8hardware12soundtrigger4V2_124BsSoundTriggerHwCallback29phraseRecognitionCallback_2_1ERKNS2_23ISoundTriggerHwCallback22PhraseRecognitionEventEi"
    },
    {
     "mangled_component_name":"_ZN7android8hardware12soundtrigger4V2_124BsSoundTriggerHwCallback22soundModelCallback_2_1ERKNS2_23ISoundTriggerHwCallback10ModelEventEi"
    },
    {
     "kind":"offset_to_top",
     "component_value":-4
    },
    {
     "kind":"rtti",
     "mangled_component_name":"_ZTIN7android8hardware12soundtrigger4V2_124BsSoundTriggerHwCallbackE"
    },
    {
     "kind":"complete_dtor_pointer",
     "mangled_component_name":"_ZThn4_N7android8hardware12soundtrigger4V2_124BsSoundTriggerHwCallbackD1Ev"
    },
    {
     "kind":"deleting_dtor_pointer",
     "mangled_component_name":"_ZThn4_N7android8hardware12soundtrigger4V2_124BsSoundTriggerHwCallbackD0Ev"
    },
    {
     "kind":"vcall_offset"
    },
    {
     "kind":"vcall_offset"
    },
    {
     "kind":"vcall_offset"
    },
    {
     "kind":"vcall_offset"
    },
    {
     "kind":"vcall_offset",
     "component_value":-60
    },
    {
     "kind":"offset_to_top",
     "component_value":-60
    },
    {
     "kind":"rtti",
     "mangled_component_name":"_ZTIN7android8hardware12soundtrigger4V2_124BsSoundTriggerHwCallbackE"
    },
    {
     "kind":"complete_dtor_pointer",
     "mangled_component_name":"_ZTv0_n12_N7android8hardware12soundtrigger4V2_124BsSoundTriggerHwCallbackD1Ev"
    },
    {
     "kind":"deleting_dtor_pointer",
     "mangled_component_name":"_ZTv0_n12_N7android8hardware12soundtrigger4V2_124BsSoundTriggerHwCallbackD0Ev"
    },
    {
     "mangled_component_name":"_ZN7android7RefBase10onFirstRefEv"
    },
    {
     "mangled_component_name":"_ZN7android7RefBase15onLastStrongRefEPKv"
    },
    {
     "mangled_component_name":"_ZN7android7RefBase20onIncStrongAttemptedEjPKv"
    },
    {
     "mangled_component_name":"_ZN7android7RefBase13onLastWeakRefEPKv"
    }
   ],
   "unique_id":"_ZTSN7android8hardware12soundtrigger4V2_124BsSoundTriggerHwCallbackE"
  },
  {
   "vtable_components":[
    {
     "kind":"vbase_offset",
     "component_value":4
    },
    {
     "kind":"offset_to_top"
    },
    {
     "kind":"rtti",
     "mangled_component_name":"_ZTIN7android8hardware12soundtrigger4V2_123ISoundTriggerHwCallbackE"
    },
    {
     "mangled_component_name":"_ZNK7android8hardware12soundtrigger4V2_123ISoundTriggerHwCallback8isRemoteEv"
    },
    {
     "mangled_component_name":"_ZN7android8hardware12soundtrigger4V2_123ISoundTriggerHwCallback14interfaceChainENSt3__18functionIFvRKNS0_8hidl_vecINS0_11hidl_stringEEEEEE"
    },
    {
     "mangled_component_name":"_ZN7android8hardware12soundtrigger4V2_123ISoundTriggerHwCallback5debugERKNS0_11hidl_handleERKNS0_8hidl_vecINS0_11hidl_stringEEE"
    },
    {
     "mangled_component_name":"_ZN7android8hardware12soundtrigger4V2_123ISoundTriggerHwCallback19interfaceDescriptorENSt3__18functionIFvRKNS0_11hidl_stringEEEE"
    },
    {
     "mangled_component_name":"_ZN7android8hardware12soundtrigger4V2_123ISoundTriggerHwCallback12getHashChainENSt3__18functionIFvRKNS0_8hidl_vecINS0_10hidl_arrayIhLj32EJEEEEEEEE"
    },
    {
     "mangled_component_name":"_ZN7android8hardware12soundtrigger4V2_123ISoundTriggerHwCallback21setHALInstrumentationEv"
    },
    {
     "mangled_component_name":"_ZN7android8hardware12soundtrigger4V2_123ISoundTriggerHwCallback11linkToDeathERKNS_2spINS0_20hidl_death_recipientEEEy"
    },
    {
     "mangled_component_name":"_ZN7android8hardware12soundtrigger4V2_123ISoundTriggerHwCallback4pingEv"
    },
    {
     "mangled_component_name":"_ZN7android8hardware12soundtrigger4V2_123ISoundTriggerHwCallback12getDebugInfoENSt3__18functionIFvRKNS_4hidl4base4V1_09DebugInfoEEEE"
    },
    {
     "mangled_component_name":"_ZN7android8hardware12soundtrigger4V2_123ISoundTriggerHwCallback21notifySyspropsChangedEv"
    },
    {
     "mangled_component_name":"_ZN7android8hardware12soundtrigger4V2_123ISoundTriggerHwCallback13unlinkToDeathERKNS_2spINS0_20hidl_death_recipientEEE"
    },
    {
     "kind":"complete_dtor_pointer",
     "mangled_component_name":"_ZN7android8hardware12soundtrigger4V2_123ISoundTriggerHwCallbackD1Ev"
    },
    {
     "kind":"deleting_dtor_pointer",
     "mangled_component_name":"_ZN7android8hardware12soundtrigger4V2_123ISoundTriggerHwCallbackD0Ev"
    },
    {
     "is_pure":true,
     "mangled_component_name":"_ZN7android8hardware12soundtrigger4V2_123ISoundTriggerHwCallback19recognitionCallbackERKNS1_4V2_023ISoundTriggerHwCallback16RecognitionEventEi"
    },
    {
     "is_pure":true,
     "mangled_component_name":"_ZN7android8hardware12soundtrigger4V2_123ISoundTriggerHwCallback25phraseRecognitionCallbackERKNS1_4V2_023ISoundTriggerHwCallback22PhraseRecognitionEventEi"
    },
    {
     "is_pure":true,
     "mangled_component_name":"_ZN7android8hardware12soundtrigger4V2_123ISoundTriggerHwCallback18soundModelCallbackERKNS1_4V2_023ISoundTriggerHwCallback10ModelEventEi"
    },
    {
     "is_pure":true,
     "mangled_component_name":"_ZN7android8hardware12soundtrigger4V2_123ISoundTriggerHwCallback23recognitionCallback_2_1ERKNS3_16RecognitionEventEi"
    },
    {
     "is_pure":true,
     "mangled_component_name":"_ZN7android8hardware12soundtrigger4V2_123ISoundTriggerHwCallback29phraseRecognitionCallback_2_1ERKNS3_22PhraseRecognitionEventEi"
    },
    {
     "is_pure":true,
     "mangled_component_name":"_ZN7android8hardware12soundtrigger4V2_123ISoundTriggerHwCallback22soundModelCallback_2_1ERKNS3_10ModelEventEi"
    },
    {
     "kind":"vcall_offset"
    },
    {
     "kind":"vcall_offset"
    },
    {
     "kind":"vcall_offset"
    },
    {
     "kind":"vcall_offset"
    },
    {
     "kind":"vcall_offset",
     "component_value":-4
    },
    {
     "kind":"offset_to_top",
     "component_value":-4
    },
    {
     "kind":"rtti",
     "mangled_component_name":"_ZTIN7android8hardware12soundtrigger4V2_123ISoundTriggerHwCallbackE"
    },
    {
     "kind":"complete_dtor_pointer",
     "mangled_component_name":"_ZTv0_n12_N7android8hardware12soundtrigger4V2_123ISoundTriggerHwCallbackD1Ev"
    },
    {
     "kind":"deleting_dtor_pointer",
     "mangled_component_name":"_ZTv0_n12_N7android8hardware12soundtrigger4V2_123ISoundTriggerHwCallbackD0Ev"
    },
    {
     "mangled_component_name":"_ZN7android7RefBase10onFirstRefEv"
    },
    {
     "mangled_component_name":"_ZN7android7RefBase15onLastStrongRefEPKv"
    },
    {
     "mangled_component_name":"_ZN7android7RefBase20onIncStrongAttemptedEjPKv"
    },
    {
     "mangled_component_name":"_ZN7android7RefBase13onLastWeakRefEPKv"
    }
   ],
   "unique_id":"_ZTSN7android8hardware12soundtrigger4V2_123ISoundTriggerHwCallbackE"
  },
  {
   "vtable_components":[
    {
     "kind":"vbase_offset",
     "component_value":72
    },
    {
     "kind":"offset_to_top"
    },
    {
     "kind":"rtti",
     "mangled_component_name":"_ZTIN7android8hardware12soundtrigger4V2_126BnHwSoundTriggerHwCallbackE"
    },
    {
     "mangled_component_name":"_ZN7android8hardware9BHwBinder8transactEjRKNS0_6ParcelEPS2_jNSt3__18functionIFvRS2_EEE"
    },
    {
     "mangled_component_name":"_ZN7android8hardware9BHwBinder11linkToDeathERKNS_2spINS0_7IBinder14DeathRecipientEEEPvj"
    },
    {
     "mangled_component_name":"_ZN7android8hardware9BHwBinder13unlinkToDeathERKNS_2wpINS0_7IBinder14DeathRecipientEEEPvjPS5_"
    },
    {
     "mangled_component_name":"_ZNK7android8hardware7IBinder13checkSubclassEPKv"
    },
    {
     "mangled_component_name":"_ZN7android8hardware9BHwBinder12attachObjectEPKvPvS4_PFvS3_S4_S4_E"
    },
    {
     "mangled_component_name":"_ZNK7android8hardware9BHwBinder10findObjectEPKv"
    },
    {
     "mangled_component_name":"_ZN7android8hardware9BHwBinder12detachObjectEPKv"
    },
    {
     "mangled_component_name":"_ZN7android8hardware9BHwBinder11localBinderEv"
    },
    {
     "mangled_component_name":"_ZN7android8hardware7IBinder12remoteBinderEv"
    },
    {
     "kind":"complete_dtor_pointer",
     "mangled_component_name":"_ZN7android8hardware12soundtrigger4V2_126BnHwSoundTriggerHwCallbackD1Ev"
    },
    {
     "kind":"deleting_dtor_pointer",
     "mangled_component_name":"_ZN7android8hardware12soundtrigger4V2_126BnHwSoundTriggerHwCallbackD0Ev"
    },
    {
     "mangled_component_name":"_ZN7android8hardware12soundtrigger4V2_126BnHwSoundTriggerHwCallback10onTransactEjRKNS0_6ParcelEPS4_jNSt3__18functionIFvRS4_EEE"
    },
    {
     "kind":"offset_to_top",
     "component_value":-20
    },
    {
     "kind":"rtti",
     "mangled_component_name":"_ZTIN7android8hardware12soundtrigger4V2_126BnHwSoundTriggerHwCallbackE"
    },
    {
     "kind":"complete_dtor_pointer",
     "mangled_component_name":"_ZThn20_N7android8hardware12soundtrigger4V2_126BnHwSoundTriggerHwCallbackD1Ev"
    },
    {
     "kind":"deleting_dtor_pointer",
     "mangled_component_name":"_ZThn20_N7android8hardware12soundtrigger4V2_126BnHwSoundTriggerHwCallbackD0Ev"
    },
    {
     "kind":"vcall_offset"
    },
    {
     "kind":"vcall_offset"
    },
    {
     "kind":"vcall_offset"
    },
    {
     "kind":"vcall_offset"
    },
    {
     "kind":"vcall_offset",
     "component_value":-72
    },
    {
     "kind":"offset_to_top",
     "component_value":-72
    },
    {
     "kind":"rtti",
     "mangled_component_name":"_ZTIN7android8hardware12soundtrigger4V2_126BnHwSoundTriggerHwCallbackE"
    },
    {
     "kind":"complete_dtor_pointer",
     "mangled_component_name":"_ZTv0_n12_N7android8hardware12soundtrigger4V2_126BnHwSoundTriggerHwCallbackD1Ev"
    },
    {
     "kind":"deleting_dtor_pointer",
     "mangled_component_name":"_ZTv0_n12_N7android8hardware12soundtrigger4V2_126BnHwSoundTriggerHwCallbackD0Ev"
    },
    {
     "mangled_component_name":"_ZN7android7RefBase10onFirstRefEv"
    },
    {
     "mangled_component_name":"_ZN7android7RefBase15onLastStrongRefEPKv"
    },
    {
     "mangled_component_name":"_ZN7android7RefBase20onIncStrongAttemptedEjPKv"
    },
    {
     "mangled_component_name":"_ZN7android7RefBase13onLastWeakRefEPKv"
    }
   ],
   "unique_id":"_ZTSN7android8hardware12soundtrigger4V2_126BnHwSoundTriggerHwCallbackE"
  },
  {
   "vtable_components":[
    {
     "kind":"vbase_offset",
     "component_value":60
    },
    {
     "kind":"offset_to_top"
    },
    {
     "kind":"rtti",
     "mangled_component_name":"_ZTIN7android8hardware12soundtrigger4V2_116BsSoundTriggerHwE"
    },
    {
     "mangled_component_name":"_ZNK7android8hardware12soundtrigger4V2_115ISoundTriggerHw8isRemoteEv"
    },
    {
     "mangled_component_name":"_ZN7android8hardware12soundtrigger4V2_116BsSoundTriggerHw14interfaceChainENSt3__18functionIFvRKNS0_8hidl_vecINS0_11hidl_stringEEEEEE"
    },
    {
     "mangled_component_name":"_ZN7android8hardware12soundtrigger4V2_116BsSoundTriggerHw5debugERKNS0_11hidl_handleERKNS0_8hidl_vecINS0_11hidl_stringEEE"
    },
    {
     "mangled_component_name":"_ZN7android8hardware12soundtrigger4V2_116BsSoundTriggerHw19interfaceDescriptorENSt3__18functionIFvRKNS0_11hidl_stringEEEE"
    },
    {
     "mangled_component_name":"_ZN7android8hardware12soundtrigger4V2_116BsSoundTriggerHw12getHashChainENSt3__18functionIFvRKNS0_8hidl_vecINS0_10hidl_arrayIhLj32EJEEEEEEEE"
    },
    {
     "mangled_component_name":"_ZN7android8hardware12soundtrigger4V2_116BsSoundTriggerHw21setHALInstrumentationEv"
    },
    {
     "mangled_component_name":"_ZN7android8hardware12soundtrigger4V2_116BsSoundTriggerHw11linkToDeathERKNS_2spINS0_20hidl_death_recipientEEEy"
    },
    {
     "mangled_component_name":"_ZN7android8hardware12soundtrigger4V2_116BsSoundTriggerHw4pingEv"
    },
    {
     "mangled_component_name":"_ZN7android8hardware12soundtrigger4V2_116BsSoundTriggerHw12getDebugInfoENSt3__18functionIFvRKNS_4hidl4base4V1_09DebugInfoEEEE"
    },
    {
     "mangled_component_name":"_ZN7android8hardware12soundtrigger4V2_116BsSoundTriggerHw21notifySyspropsChangedEv"
    },
    {
     "mangled_component_name":"_ZN7android8hardware12soundtrigger4V2_116BsSoundTriggerHw13unlinkToDeathERKNS_2spINS0_20hidl_death_recipientEEE"
    },
    {
     "kind":"complete_dtor_pointer",
     "mangled_component_name":"_ZN7android8hardware12soundtrigger4V2_116BsSoundTriggerHwD1Ev"
    },
    {
     "kind":"deleting_dtor_pointer",
     "mangled_component_name":"_ZN7android8hardware12soundtrigger4V2_116BsSoundTriggerHwD0Ev"
    },
    {
     "mangled_component_name":"_ZN7android8hardware12soundtrigger4V2_116BsSoundTriggerHw13getPropertiesENSt3__18functionIFviRKNS1_4V2_015ISoundTriggerHw10PropertiesEEEE"
    },
    {
     "mangled_component_name":"_ZN7android8hardware12soundtrigger4V2_116BsSoundTriggerHw14loadSoundModelERKNS1_4V2_015ISoundTriggerHw10SoundModelERKNS_2spINS4_23ISoundTriggerHwCallbackEEEiNSt3__18functionIFviiEEE"
    },
    {
     "mangled_component_name":"_ZN7android8hardware12soundtrigger4V2_116BsSoundTriggerHw20loadPhraseSoundModelERKNS1_4V2_015ISoundTriggerHw16PhraseSoundModelERKNS_2spINS4_23ISoundTriggerHwCallbackEEEiNSt3__18functionIFviiEEE"
    },
    {
     "mangled_component_name":"_ZN7android8hardware12soundtrigger4V2_116BsSoundTriggerHw16unloadSoundModelEi"
    },
    {
     "mangled_component_name":"_ZN7android8hardware12soundtrigger4V2_116BsSoundTriggerHw16startRecognitionEiRKNS1_4V2_015ISoundTriggerHw17RecognitionConfigERKNS_2spINS4_23ISoundTriggerHwCallbackEEEi"
    },
    {
     "mangled_component_name":"_ZN7android8hardware12soundtrigger4V2_116BsSoundTriggerHw15stopRecognitionEi"
    },
    {
     "mangled_component_name":"_ZN7android8hardware12soundtrigger4V2_116BsSoundTriggerHw19stopAllRecognitionsEv"
    },
    {
     "mangled_component_name":"_ZN7android8hardware12soundtrigger4V2_116BsSoundTriggerHw18loadSoundModel_2_1ERKNS2_15ISoundTriggerHw10SoundModelERKNS_2spINS2_23ISoundTriggerHwCallbackEEEiNSt3__18functionIFviiEEE"
    },
    {
     "mangled_component_name":"_ZN7android8hardware12soundtrigger4V2_116BsSoundTriggerHw24loadPhraseSoundModel_2_1ERKNS2_15ISoundTriggerHw16PhraseSoundModelERKNS_2spINS2_23ISoundTriggerHwCallbackEEEiNSt3__18functionIFviiEEE"
    },
    {
     "mangled_component_name":"_ZN7android8hardware12soundtrigger4V2_116BsSoundTriggerHw20startRecognition_2_1EiRKNS2_15ISoundTriggerHw17RecognitionConfigERKNS_2spINS2_23ISoundTriggerHwCallbackEEEi"
    },
    {
     "kind":"offset_to_top",
     "component_value":-4
    },
    {
     "kind":"rtti",
     "mangled_component_name":"_ZTIN7android8hardware12soundtrigger4V2_116BsSoundTriggerHwE"
    },
    {
     "kind":"complete_dtor_pointer",
     "mangled_component_name":"_ZThn4_N7android8hardware12soundtrigger4V2_116BsSoundTriggerHwD1Ev"
    },
    {
     "kind":"deleting_dtor_pointer",
     "mangled_component_name":"_ZThn4_N7android8hardware12soundtrigger4V2_116BsSoundTriggerHwD0Ev"
    },
    {
     "kind":"vcall_offset"
    },
    {
     "kind":"vcall_offset"
    },
    {
     "kind":"vcall_offset"
    },
    {
     "kind":"vcall_offset"
    },
    {
     "kind":"vcall_offset",
     "component_value":-60
    },
    {
     "kind":"offset_to_top",
     "component_value":-60
    },
    {
     "kind":"rtti",
     "mangled_component_name":"_ZTIN7android8hardware12soundtrigger4V2_116BsSoundTriggerHwE"
    },
    {
     "kind":"complete_dtor_pointer",
     "mangled_component_name":"_ZTv0_n12_N7android8hardware12soundtrigger4V2_116BsSoundTriggerHwD1Ev"
    },
    {
     "kind":"deleting_dtor_pointer",
     "mangled_component_name":"_ZTv0_n12_N7android8hardware12soundtrigger4V2_116BsSoundTriggerHwD0Ev"
    },
    {
     "mangled_component_name":"_ZN7android7RefBase10onFirstRefEv"
    },
    {
     "mangled_component_name":"_ZN7android7RefBase15onLastStrongRefEPKv"
    },
    {
     "mangled_component_name":"_ZN7android7RefBase20onIncStrongAttemptedEjPKv"
    },
    {
     "mangled_component_name":"_ZN7android7RefBase13onLastWeakRefEPKv"
    }
   ],
   "unique_id":"_ZTSN7android8hardware12soundtrigger4V2_116BsSoundTriggerHwE"
  },
  {
   "vtable_components":[
    {
     "kind":"vbase_offset",
     "component_value":84
    },
    {
     "kind":"offset_to_top"
    },
    {
     "kind":"rtti",
     "mangled_component_name":"_ZTIN7android8hardware12soundtrigger4V2_118BpHwSoundTriggerHwE"
    },
    {
     "mangled_component_name":"_ZNK7android8hardware12soundtrigger4V2_118BpHwSoundTriggerHw8isRemoteEv"
    },
    {
     "mangled_component_name":"_ZN7android8hardware12soundtrigger4V2_118BpHwSoundTriggerHw14interfaceChainENSt3__18functionIFvRKNS0_8hidl_vecINS0_11hidl_stringEEEEEE"
    },
    {
     "mangled_component_name":"_ZN7android8hardware12soundtrigger4V2_118BpHwSoundTriggerHw5debugERKNS0_11hidl_handleERKNS0_8hidl_vecINS0_11hidl_stringEEE"
    },
    {
     "mangled_component_name":"_ZN7android8hardware12soundtrigger4V2_118BpHwSoundTriggerHw19interfaceDescriptorENSt3__18functionIFvRKNS0_11hidl_stringEEEE"
    },
    {
     "mangled_component_name":"_ZN7android8hardware12soundtrigger4V2_118BpHwSoundTriggerHw12getHashChainENSt3__18functionIFvRKNS0_8hidl_vecINS0_10hidl_arrayIhLj32EJEEEEEEEE"
    },
    {
     "mangled_component_name":"_ZN7android8hardware12soundtrigger4V2_118BpHwSoundTriggerHw21setHALInstrumentationEv"
    },
    {
     "mangled_component_name":"_ZN7android8hardware12soundtrigger4V2_118BpHwSoundTriggerHw11linkToDeathERKNS_2spINS0_20hidl_death_recipientEEEy"
    },
    {
     "mangled_component_name":"_ZN7android8hardware12soundtrigger4V2_118BpHwSoundTriggerHw4pingEv"
    },
    {
     "mangled_component_name":"_ZN7android8hardware12soundtrigger4V2_118BpHwSoundTriggerHw12getDebugInfoENSt3__18functionIFvRKNS_4hidl4base4V1_09DebugInfoEEEE"
    },
    {
     "mangled_component_name":"_ZN7android8hardware12soundtrigger4V2_118BpHwSoundTriggerHw21notifySyspropsChangedEv"
    },
    {
     "mangled_component_name":"_ZN7android8hardware12soundtrigger4V2_118BpHwSoundTriggerHw13unlinkToDeathERKNS_2spINS0_20hidl_death_recipientEEE"
    },
    {
     "kind":"complete_dtor_pointer",
     "mangled_component_name":"_ZN7android8hardware12soundtrigger4V2_118BpHwSoundTriggerHwD1Ev"
    },
    {
     "kind":"deleting_dtor_pointer",
     "mangled_component_name":"_ZN7android8hardware12soundtrigger4V2_118BpHwSoundTriggerHwD0Ev"
    },
    {
     "mangled_component_name":"_ZN7android8hardware12soundtrigger4V2_118BpHwSoundTriggerHw13getPropertiesENSt3__18functionIFviRKNS1_4V2_015ISoundTriggerHw10PropertiesEEEE"
    },
    {
     "mangled_component_name":"_ZN7android8hardware12soundtrigger4V2_118BpHwSoundTriggerHw14loadSoundModelERKNS1_4V2_015ISoundTriggerHw10SoundModelERKNS_2spINS4_23ISoundTriggerHwCallbackEEEiNSt3__18functionIFviiEEE"
    },
    {
     "mangled_component_name":"_ZN7android8hardware12soundtrigger4V2_118BpHwSoundTriggerHw20loadPhraseSoundModelERKNS1_4V2_015ISoundTriggerHw16PhraseSoundModelERKNS_2spINS4_23ISoundTriggerHwCallbackEEEiNSt3__18functionIFviiEEE"
    },
    {
     "mangled_component_name":"_ZN7android8hardware12soundtrigger4V2_118BpHwSoundTriggerHw16unloadSoundModelEi"
    },
    {
     "mangled_component_name":"_ZN7android8hardware12soundtrigger4V2_118BpHwSoundTriggerHw16startRecognitionEiRKNS1_4V2_015ISoundTriggerHw17RecognitionConfigERKNS_2spINS4_23ISoundTriggerHwCallbackEEEi"
    },
    {
     "mangled_component_name":"_ZN7android8hardware12soundtrigger4V2_118BpHwSoundTriggerHw15stopRecognitionEi"
    },
    {
     "mangled_component_name":"_ZN7android8hardware12soundtrigger4V2_118BpHwSoundTriggerHw19stopAllRecognitionsEv"
    },
    {
     "mangled_component_name":"_ZN7android8hardware12soundtrigger4V2_118BpHwSoundTriggerHw18loadSoundModel_2_1ERKNS2_15ISoundTriggerHw10SoundModelERKNS_2spINS2_23ISoundTriggerHwCallbackEEEiNSt3__18functionIFviiEEE"
    },
    {
     "mangled_component_name":"_ZN7android8hardware12soundtrigger4V2_118BpHwSoundTriggerHw24loadPhraseSoundModel_2_1ERKNS2_15ISoundTriggerHw16PhraseSoundModelERKNS_2spINS2_23ISoundTriggerHwCallbackEEEiNSt3__18functionIFviiEEE"
    },
    {
     "mangled_component_name":"_ZN7android8hardware12soundtrigger4V2_118BpHwSoundTriggerHw20startRecognition_2_1EiRKNS2_15ISoundTriggerHw17RecognitionConfigERKNS_2spINS2_23ISoundTriggerHwCallbackEEEi"
    },
    {
     "mangled_component_name":"_ZN7android8hardware11BpInterfaceINS0_12soundtrigger4V2_115ISoundTriggerHwEE10onAsBinderEv"
    },
    {
     "kind":"vbase_offset",
     "component_value":80
    },
    {
     "kind":"offset_to_top",
     "component_value":-4
    },
    {
     "kind":"rtti",
     "mangled_component_name":"_ZTIN7android8hardware12soundtrigger4V2_118BpHwSoundTriggerHwE"
    },
    {
     "kind":"complete_dtor_pointer",
     "mangled_component_name":"_ZThn4_N7android8hardware12soundtrigger4V2_118BpHwSoundTriggerHwD1Ev"
    },
    {
     "kind":"deleting_dtor_pointer",
     "mangled_component_name":"_ZThn4_N7android8hardware12soundtrigger4V2_118BpHwSoundTriggerHwD0Ev"
    },
    {
     "mangled_component_name":"_ZThn4_N7android8hardware11BpInterfaceINS0_12soundtrigger4V2_115ISoundTriggerHwEE10onAsBinderEv"
    },
    {
     "kind":"vbase_offset",
     "component_value":76
    },
    {
     "kind":"offset_to_top",
     "component_value":-8
    },
    {
     "kind":"rtti",
     "mangled_component_name":"_ZTIN7android8hardware12soundtrigger4V2_118BpHwSoundTriggerHwE"
    },
    {
     "kind":"complete_dtor_pointer",
     "mangled_component_name":"_ZThn8_N7android8hardware12soundtrigger4V2_118BpHwSoundTriggerHwD1Ev"
    },
    {
     "kind":"deleting_dtor_pointer",
     "mangled_component_name":"_ZThn8_N7android8hardware12soundtrigger4V2_118BpHwSoundTriggerHwD0Ev"
    },
    {
     "mangled_component_name":"_ZN7android8hardware11BpHwRefBase10onFirstRefEv"
    },
    {
     "mangled_component_name":"_ZN7android8hardware11BpHwRefBase15onLastStrongRefEPKv"
    },
    {
     "mangled_component_name":"_ZN7android8hardware11BpHwRefBase20onIncStrongAttemptedEjPKv"
    },
    {
     "kind":"offset_to_top",
     "component_value":-24
    },
    {
     "kind":"rtti",
     "mangled_component_name":"_ZTIN7android8hardware12soundtrigger4V2_118BpHwSoundTriggerHwE"
    },
    {
     "kind":"complete_dtor_pointer",
     "mangled_component_name":"_ZThn24_N7android8hardware12soundtrigger4V2_118BpHwSoundTriggerHwD1Ev"
    },
    {
     "kind":"deleting_dtor_pointer",
     "mangled_component_name":"_ZThn24_N7android8hardware12soundtrigger4V2_118BpHwSoundTriggerHwD0Ev"
    },
    {
     "kind":"vcall_offset"
    },
    {
     "kind":"vcall_offset",
     "component_value":-76
    },
    {
     "kind":"vcall_offset",
     "component_value":-76
    },
    {
     "kind":"vcall_offset",
     "component_value":-76
    },
    {
     "kind":"vcall_offset",
     "component_value":-84
    },
    {
     "kind":"offset_to_top",
     "component_value":-84
    },
    {
     "kind":"rtti",
     "mangled_component_name":"_ZTIN7android8hardware12soundtrigger4V2_118BpHwSoundTriggerHwE"
    },
    {
     "kind":"complete_dtor_pointer",
     "mangled_component_name":"_ZTv0_n12_N7android8hardware12soundtrigger4V2_118BpHwSoundTriggerHwD1Ev"
    },
    {
     "kind":"deleting_dtor_pointer",
     "mangled_component_name":"_ZTv0_n12_N7android8hardware12soundtrigger4V2_118BpHwSoundTriggerHwD0Ev"
    },
    {
     "mangled_component_name":"_ZTv0_n16_N7android8hardware11BpHwRefBase10onFirstRefEv"
    },
    {
     "mangled_component_name":"_ZTv0_n20_N7android8hardware11BpHwRefBase15onLastStrongRefEPKv"
    },
    {
     "mangled_component_name":"_ZTv0_n24_N7android8hardware11BpHwRefBase20onIncStrongAttemptedEjPKv"
    },
    {
     "mangled_component_name":"_ZN7android7RefBase13onLastWeakRefEPKv"
    }
   ],
   "unique_id":"_ZTSN7android8hardware12soundtrigger4V2_118BpHwSoundTriggerHwE"
  }
 ],
 "elf_functions":[
  {
   "binding":"weak",
   "name":"_ZN7android8hardware10fromBinderINS0_12soundtrigger4V2_123ISoundTriggerHwCallbackENS3_26BpHwSoundTriggerHwCallbackENS3_26BnHwSoundTriggerHwCallbackEEENS_2spIT_EERKNS7_INS0_7IBinderEEE"
  },
  {
   "name":"_ZN7android8hardware12soundtrigger4V2_115ISoundTriggerHw10getServiceERKNSt3__112basic_stringIcNS4_11char_traitsIcEENS4_9allocatorIcEEEEb"
  },
  {
   "name":"_ZN7android8hardware12soundtrigger4V2_115ISoundTriggerHw11linkToDeathERKNS_2spINS0_20hidl_death_recipientEEEy"
  },
  {
   "name":"_ZN7android8hardware12soundtrigger4V2_115ISoundTriggerHw12getDebugInfoENSt3__18functionIFvRKNS_4hidl4base4V1_09DebugInfoEEEE"
  },
  {
   "name":"_ZN7android8hardware12soundtrigger4V2_115ISoundTriggerHw12getHashChainENSt3__18functionIFvRKNS0_8hidl_vecINS0_10hidl_arrayIhLj32EJEEEEEEEE"
  },
  {
   "name":"_ZN7android8hardware12soundtrigger4V2_115ISoundTriggerHw13tryGetServiceERKNSt3__112basic_stringIcNS4_11char_traitsIcEENS4_9allocatorIcEEEEb"
  },
  {
   "name":"_ZN7android8hardware12soundtrigger4V2_115ISoundTriggerHw13unlinkToDeathERKNS_2spINS0_20hidl_death_recipientEEE"
  },
  {
   "name":"_ZN7android8hardware12soundtrigger4V2_115ISoundTriggerHw14interfaceChainENSt3__18functionIFvRKNS0_8hidl_vecINS0_11hidl_stringEEEEEE"
  },
  {
   "name":"_ZN7android8hardware12soundtrigger4V2_115ISoundTriggerHw17registerAsServiceERKNSt3__112basic_stringIcNS4_11char_traitsIcEENS4_9allocatorIcEEEE"
  },
  {
   "name":"_ZN7android8hardware12soundtrigger4V2_115ISoundTriggerHw19interfaceDescriptorENSt3__18functionIFvRKNS0_11hidl_stringEEEE"
  },
  {
   "name":"_ZN7android8hardware12soundtrigger4V2_115ISoundTriggerHw21notifySyspropsChangedEv"
  },
  {
   "name":"_ZN7android8hardware12soundtrigger4V2_115ISoundTriggerHw21setHALInstrumentationEv"
  },
  {
   "name":"_ZN7android8hardware12soundtrigger4V2_115ISoundTriggerHw24registerForNotificationsERKNSt3__112basic_stringIcNS4_11char_traitsIcEENS4_9allocatorIcEEEERKNS_2spINS_4hidl7manager4V1_020IServiceNotificationEEE"
  },
  {
   "name":"_ZN7android8hardware12soundtrigger4V2_115ISoundTriggerHw4pingEv"
  },
  {
   "name":"_ZN7android8hardware12soundtrigger4V2_115ISoundTriggerHw5debugERKNS0_11hidl_handleERKNS0_8hidl_vecINS0_11hidl_stringEEE"
  },
  {
   "name":"_ZN7android8hardware12soundtrigger4V2_115ISoundTriggerHw8castFromERKNS_2spINS1_4V2_015ISoundTriggerHwEEEb"
  },
  {
   "name":"_ZN7android8hardware12soundtrigger4V2_115ISoundTriggerHw8castFromERKNS_2spINS_4hidl4base4V1_05IBaseEEEb"
  },
  {
   "name":"_ZN7android8hardware12soundtrigger4V2_115ISoundTriggerHw8castFromERKNS_2spIS3_EEb"
  },
  {
   "name":"_ZN7android8hardware12soundtrigger4V2_116BsSoundTriggerHw13addOnewayTaskENSt3__18functionIFvvEEE"
  },
  {
   "name":"_ZN7android8hardware12soundtrigger4V2_116BsSoundTriggerHwC1ENS_2spINS2_15ISoundTriggerHwEEE"
  },
  {
   "name":"_ZN7android8hardware12soundtrigger4V2_116BsSoundTriggerHwC2ENS_2spINS2_15ISoundTriggerHwEEE"
  },
  {
   "name":"_ZN7android8hardware12soundtrigger4V2_118BnHwSoundTriggerHw10onTransactEjRKNS0_6ParcelEPS4_jNSt3__18functionIFvRS4_EEE"
  },
  {
   "name":"_ZN7android8hardware12soundtrigger4V2_118BnHwSoundTriggerHw12getDebugInfoENSt3__18functionIFvRKNS_4hidl4base4V1_09DebugInfoEEEE"
  },
  {
   "name":"_ZN7android8hardware12soundtrigger4V2_118BnHwSoundTriggerHw24_hidl_loadSoundModel_2_1EPNS_4hidl4base4V1_08BnHwBaseERKNS0_6ParcelEPS9_NSt3__18functionIFvRS9_EEE"
  },
  {
   "name":"_ZN7android8hardware12soundtrigger4V2_118BnHwSoundTriggerHw26_hidl_startRecognition_2_1EPNS_4hidl4base4V1_08BnHwBaseERKNS0_6ParcelEPS9_NSt3__18functionIFvRS9_EEE"
  },
  {
   "name":"_ZN7android8hardware12soundtrigger4V2_118BnHwSoundTriggerHw30_hidl_loadPhraseSoundModel_2_1EPNS_4hidl4base4V1_08BnHwBaseERKNS0_6ParcelEPS9_NSt3__18functionIFvRS9_EEE"
  },
  {
   "name":"_ZN7android8hardware12soundtrigger4V2_118BnHwSoundTriggerHw4pingEv"
  },
  {
   "name":"_ZN7android8hardware12soundtrigger4V2_118BnHwSoundTriggerHwC1ERKNS_2spINS2_15ISoundTriggerHwEEE"
  },
  {
   "name":"_ZN7android8hardware12soundtrigger4V2_118BnHwSoundTriggerHwC2ERKNS_2spINS2_15ISoundTriggerHwEEE"
  },
  {
   "name":"_ZN7android8hardware12soundtrigger4V2_118BnHwSoundTriggerHwD0Ev"
  },
  {
   "name":"_ZN7android8hardware12soundtrigger4V2_118BnHwSoundTriggerHwD1Ev"
  },
  {
   "name":"_ZN7android8hardware12soundtrigger4V2_118BnHwSoundTriggerHwD2Ev"
  },
  {
   "name":"_ZN7android8hardware12soundtrigger4V2_118BpHwSoundTriggerHw11linkToDeathERKNS_2spINS0_20hidl_death_recipientEEEy"
  },
  {
   "name":"_ZN7android8hardware12soundtrigger4V2_118BpHwSoundTriggerHw12getDebugInfoENSt3__18functionIFvRKNS_4hidl4base4V1_09DebugInfoEEEE"
  },
  {
   "name":"_ZN7android8hardware12soundtrigger4V2_118BpHwSoundTriggerHw12getHashChainENSt3__18functionIFvRKNS0_8hidl_vecINS0_10hidl_arrayIhLj32EJEEEEEEEE"
  },
  {
   "name":"_ZN7android8hardware12soundtrigger4V2_118BpHwSoundTriggerHw13getPropertiesENSt3__18functionIFviRKNS1_4V2_015ISoundTriggerHw10PropertiesEEEE"
  },
  {
   "name":"_ZN7android8hardware12soundtrigger4V2_118BpHwSoundTriggerHw13unlinkToDeathERKNS_2spINS0_20hidl_death_recipientEEE"
  },
  {
   "name":"_ZN7android8hardware12soundtrigger4V2_118BpHwSoundTriggerHw14interfaceChainENSt3__18functionIFvRKNS0_8hidl_vecINS0_11hidl_stringEEEEEE"
  },
  {
   "name":"_ZN7android8hardware12soundtrigger4V2_118BpHwSoundTriggerHw14loadSoundModelERKNS1_4V2_015ISoundTriggerHw10SoundModelERKNS_2spINS4_23ISoundTriggerHwCallbackEEEiNSt3__18functionIFviiEEE"
  },
  {
   "name":"_ZN7android8hardware12soundtrigger4V2_118BpHwSoundTriggerHw15stopRecognitionEi"
  },
  {
   "name":"_ZN7android8hardware12soundtrigger4V2_118BpHwSoundTriggerHw16startRecognitionEiRKNS1_4V2_015ISoundTriggerHw17RecognitionConfigERKNS_2spINS4_23ISoundTriggerHwCallbackEEEi"
  },
  {
   "name":"_ZN7android8hardware12soundtrigger4V2_118BpHwSoundTriggerHw16unloadSoundModelEi"
  },
  {
   "name":"_ZN7android8hardware12soundtrigger4V2_118BpHwSoundTriggerHw18loadSoundModel_2_1ERKNS2_15ISoundTriggerHw10SoundModelERKNS_2spINS2_23ISoundTriggerHwCallbackEEEiNSt3__18functionIFviiEEE"
  },
  {
   "name":"_ZN7android8hardware12soundtrigger4V2_118BpHwSoundTriggerHw19interfaceDescriptorENSt3__18functionIFvRKNS0_11hidl_stringEEEE"
  },
  {
   "name":"_ZN7android8hardware12soundtrigger4V2_118BpHwSoundTriggerHw19stopAllRecognitionsEv"
  },
  {
   "name":"_ZN7android8hardware12soundtrigger4V2_118BpHwSoundTriggerHw20loadPhraseSoundModelERKNS1_4V2_015ISoundTriggerHw16PhraseSoundModelERKNS_2spINS4_23ISoundTriggerHwCallbackEEEiNSt3__18functionIFviiEEE"
  },
  {
   "name":"_ZN7android8hardware12soundtrigger4V2_118BpHwSoundTriggerHw20startRecognition_2_1EiRKNS2_15ISoundTriggerHw17RecognitionConfigERKNS_2spINS2_23ISoundTriggerHwCallbackEEEi"
  },
  {
   "name":"_ZN7android8hardware12soundtrigger4V2_118BpHwSoundTriggerHw21notifySyspropsChangedEv"
  },
  {
   "name":"_ZN7android8hardware12soundtrigger4V2_118BpHwSoundTriggerHw21setHALInstrumentationEv"
  },
  {
   "name":"_ZN7android8hardware12soundtrigger4V2_118BpHwSoundTriggerHw24_hidl_loadSoundModel_2_1EPNS0_10IInterfaceEPNS0_7details16HidlInstrumentorERKNS2_15ISoundTriggerHw10SoundModelERKNS_2spINS2_23ISoundTriggerHwCallbackEEEiNSt3__18functionIFviiEEE"
  },
  {
   "name":"_ZN7android8hardware12soundtrigger4V2_118BpHwSoundTriggerHw24loadPhraseSoundModel_2_1ERKNS2_15ISoundTriggerHw16PhraseSoundModelERKNS_2spINS2_23ISoundTriggerHwCallbackEEEiNSt3__18functionIFviiEEE"
  },
  {
   "name":"_ZN7android8hardware12soundtrigger4V2_118BpHwSoundTriggerHw26_hidl_startRecognition_2_1EPNS0_10IInterfaceEPNS0_7details16HidlInstrumentorEiRKNS2_15ISoundTriggerHw17RecognitionConfigERKNS_2spINS2_23ISoundTriggerHwCallbackEEEi"
  },
  {
   "name":"_ZN7android8hardware12soundtrigger4V2_118BpHwSoundTriggerHw30_hidl_loadPhraseSoundModel_2_1EPNS0_10IInterfaceEPNS0_7details16HidlInstrumentorERKNS2_15ISoundTriggerHw16PhraseSoundModelERKNS_2spINS2_23ISoundTriggerHwCallbackEEEiNSt3__18functionIFviiEEE"
  },
  {
   "name":"_ZN7android8hardware12soundtrigger4V2_118BpHwSoundTriggerHw4pingEv"
  },
  {
   "name":"_ZN7android8hardware12soundtrigger4V2_118BpHwSoundTriggerHw5debugERKNS0_11hidl_handleERKNS0_8hidl_vecINS0_11hidl_stringEEE"
  },
  {
   "name":"_ZN7android8hardware12soundtrigger4V2_118BpHwSoundTriggerHwC1ERKNS_2spINS0_7IBinderEEE"
  },
  {
   "name":"_ZN7android8hardware12soundtrigger4V2_118BpHwSoundTriggerHwC2ERKNS_2spINS0_7IBinderEEE"
  },
  {
   "name":"_ZN7android8hardware12soundtrigger4V2_121writeEmbeddedToParcelERKNS2_15ISoundTriggerHw10SoundModelEPNS0_6ParcelEjj"
  },
  {
   "name":"_ZN7android8hardware12soundtrigger4V2_121writeEmbeddedToParcelERKNS2_15ISoundTriggerHw16PhraseSoundModelEPNS0_6ParcelEjj"
  },
  {
   "name":"_ZN7android8hardware12soundtrigger4V2_121writeEmbeddedToParcelERKNS2_15ISoundTriggerHw17RecognitionConfigEPNS0_6ParcelEjj"
  },
  {
   "name":"_ZN7android8hardware12soundtrigger4V2_121writeEmbeddedToParcelERKNS2_23ISoundTriggerHwCallback10ModelEventEPNS0_6ParcelEjj"
  },
  {
   "name":"_ZN7android8hardware12soundtrigger4V2_121writeEmbeddedToParcelERKNS2_23ISoundTriggerHwCallback16RecognitionEventEPNS0_6ParcelEjj"
  },
  {
   "name":"_ZN7android8hardware12soundtrigger4V2_121writeEmbeddedToParcelERKNS2_23ISoundTriggerHwCallback22PhraseRecognitionEventEPNS0_6ParcelEjj"
  },
  {
   "name":"_ZN7android8hardware12soundtrigger4V2_122readEmbeddedFromParcelERKNS2_15ISoundTriggerHw10SoundModelERKNS0_6ParcelEjj"
  },
  {
   "name":"_ZN7android8hardware12soundtrigger4V2_122readEmbeddedFromParcelERKNS2_15ISoundTriggerHw16PhraseSoundModelERKNS0_6ParcelEjj"
  },
  {
   "name":"_ZN7android8hardware12soundtrigger4V2_122readEmbeddedFromParcelERKNS2_15ISoundTriggerHw17RecognitionConfigERKNS0_6ParcelEjj"
  },
  {
   "name":"_ZN7android8hardware12soundtrigger4V2_122readEmbeddedFromParcelERKNS2_23ISoundTriggerHwCallback10ModelEventERKNS0_6ParcelEjj"
  },
  {
   "name":"_ZN7android8hardware12soundtrigger4V2_122readEmbeddedFromParcelERKNS2_23ISoundTriggerHwCallback16RecognitionEventERKNS0_6ParcelEjj"
  },
  {
   "name":"_ZN7android8hardware12soundtrigger4V2_122readEmbeddedFromParcelERKNS2_23ISoundTriggerHwCallback22PhraseRecognitionEventERKNS0_6ParcelEjj"
  },
  {
   "name":"_ZN7android8hardware12soundtrigger4V2_123ISoundTriggerHwCallback10getServiceERKNSt3__112basic_stringIcNS4_11char_traitsIcEENS4_9allocatorIcEEEEb"
  },
  {
   "name":"_ZN7android8hardware12soundtrigger4V2_123ISoundTriggerHwCallback11linkToDeathERKNS_2spINS0_20hidl_death_recipientEEEy"
  },
  {
   "name":"_ZN7android8hardware12soundtrigger4V2_123ISoundTriggerHwCallback12getDebugInfoENSt3__18functionIFvRKNS_4hidl4base4V1_09DebugInfoEEEE"
  },
  {
   "name":"_ZN7android8hardware12soundtrigger4V2_123ISoundTriggerHwCallback12getHashChainENSt3__18functionIFvRKNS0_8hidl_vecINS0_10hidl_arrayIhLj32EJEEEEEEEE"
  },
  {
   "name":"_ZN7android8hardware12soundtrigger4V2_123ISoundTriggerHwCallback13tryGetServiceERKNSt3__112basic_stringIcNS4_11char_traitsIcEENS4_9allocatorIcEEEEb"
  },
  {
   "name":"_ZN7android8hardware12soundtrigger4V2_123ISoundTriggerHwCallback13unlinkToDeathERKNS_2spINS0_20hidl_death_recipientEEE"
  },
  {
   "name":"_ZN7android8hardware12soundtrigger4V2_123ISoundTriggerHwCallback14interfaceChainENSt3__18functionIFvRKNS0_8hidl_vecINS0_11hidl_stringEEEEEE"
  },
  {
   "name":"_ZN7android8hardware12soundtrigger4V2_123ISoundTriggerHwCallback17registerAsServiceERKNSt3__112basic_stringIcNS4_11char_traitsIcEENS4_9allocatorIcEEEE"
  },
  {
   "name":"_ZN7android8hardware12soundtrigger4V2_123ISoundTriggerHwCallback19interfaceDescriptorENSt3__18functionIFvRKNS0_11hidl_stringEEEE"
  },
  {
   "name":"_ZN7android8hardware12soundtrigger4V2_123ISoundTriggerHwCallback21notifySyspropsChangedEv"
  },
  {
   "name":"_ZN7android8hardware12soundtrigger4V2_123ISoundTriggerHwCallback21setHALInstrumentationEv"
  },
  {
   "name":"_ZN7android8hardware12soundtrigger4V2_123ISoundTriggerHwCallback24registerForNotificationsERKNSt3__112basic_stringIcNS4_11char_traitsIcEENS4_9allocatorIcEEEERKNS_2spINS_4hidl7manager4V1_020IServiceNotificationEEE"
  },
  {
   "name":"_ZN7android8hardware12soundtrigger4V2_123ISoundTriggerHwCallback4pingEv"
  },
  {
   "name":"_ZN7android8hardware12soundtrigger4V2_123ISoundTriggerHwCallback5debugERKNS0_11hidl_handleERKNS0_8hidl_vecINS0_11hidl_stringEEE"
  },
  {
   "name":"_ZN7android8hardware12soundtrigger4V2_123ISoundTriggerHwCallback8castFromERKNS_2spINS1_4V2_023ISoundTriggerHwCallbackEEEb"
  },
  {
   "name":"_ZN7android8hardware12soundtrigger4V2_123ISoundTriggerHwCallback8castFromERKNS_2spINS_4hidl4base4V1_05IBaseEEEb"
  },
  {
   "name":"_ZN7android8hardware12soundtrigger4V2_123ISoundTriggerHwCallback8castFromERKNS_2spIS3_EEb"
  },
  {
   "name":"_ZN7android8hardware12soundtrigger4V2_124BsSoundTriggerHwCallback13addOnewayTaskENSt3__18functionIFvvEEE"
  },
  {
   "name":"_ZN7android8hardware12soundtrigger4V2_124BsSoundTriggerHwCallbackC1ENS_2spINS2_23ISoundTriggerHwCallbackEEE"
  },
  {
   "name":"_ZN7android8hardware12soundtrigger4V2_124BsSoundTriggerHwCallbackC2ENS_2spINS2_23ISoundTriggerHwCallbackEEE"
  },
  {
   "name":"_ZN7android8hardware12soundtrigger4V2_126BnHwSoundTriggerHwCallback10onTransactEjRKNS0_6ParcelEPS4_jNSt3__18functionIFvRS4_EEE"
  },
  {
   "name":"_ZN7android8hardware12soundtrigger4V2_126BnHwSoundTriggerHwCallback12getDebugInfoENSt3__18functionIFvRKNS_4hidl4base4V1_09DebugInfoEEEE"
  },
  {
   "name":"_ZN7android8hardware12soundtrigger4V2_126BnHwSoundTriggerHwCallback28_hidl_soundModelCallback_2_1EPNS_4hidl4base4V1_08BnHwBaseERKNS0_6ParcelEPS9_NSt3__18functionIFvRS9_EEE"
  },
  {
   "name":"_ZN7android8hardware12soundtrigger4V2_126BnHwSoundTriggerHwCallback29_hidl_recognitionCallback_2_1EPNS_4hidl4base4V1_08BnHwBaseERKNS0_6ParcelEPS9_NSt3__18functionIFvRS9_EEE"
  },
  {
   "name":"_ZN7android8hardware12soundtrigger4V2_126BnHwSoundTriggerHwCallback35_hidl_phraseRecognitionCallback_2_1EPNS_4hidl4base4V1_08BnHwBaseERKNS0_6ParcelEPS9_NSt3__18functionIFvRS9_EEE"
  },
  {
   "name":"_ZN7android8hardware12soundtrigger4V2_126BnHwSoundTriggerHwCallback4pingEv"
  },
  {
   "name":"_ZN7android8hardware12soundtrigger4V2_126BnHwSoundTriggerHwCallbackC1ERKNS_2spINS2_23ISoundTriggerHwCallbackEEE"
  },
  {
   "name":"_ZN7android8hardware12soundtrigger4V2_126BnHwSoundTriggerHwCallbackC2ERKNS_2spINS2_23ISoundTriggerHwCallbackEEE"
  },
  {
   "name":"_ZN7android8hardware12soundtrigger4V2_126BnHwSoundTriggerHwCallbackD0Ev"
  },
  {
   "name":"_ZN7android8hardware12soundtrigger4V2_126BnHwSoundTriggerHwCallbackD1Ev"
  },
  {
   "name":"_ZN7android8hardware12soundtrigger4V2_126BnHwSoundTriggerHwCallbackD2Ev"
  },
  {
   "name":"_ZN7android8hardware12soundtrigger4V2_126BpHwSoundTriggerHwCallback11linkToDeathERKNS_2spINS0_20hidl_death_recipientEEEy"
  },
  {
   "name":"_ZN7android8hardware12soundtrigger4V2_126BpHwSoundTriggerHwCallback12getDebugInfoENSt3__18functionIFvRKNS_4hidl4base4V1_09DebugInfoEEEE"
  },
  {
   "name":"_ZN7android8hardware12soundtrigger4V2_126BpHwSoundTriggerHwCallback12getHashChainENSt3__18functionIFvRKNS0_8hidl_vecINS0_10hidl_arrayIhLj32EJEEEEEEEE"
  },
  {
   "name":"_ZN7android8hardware12soundtrigger4V2_126BpHwSoundTriggerHwCallback13unlinkToDeathERKNS_2spINS0_20hidl_death_recipientEEE"
  },
  {
   "name":"_ZN7android8hardware12soundtrigger4V2_126BpHwSoundTriggerHwCallback14interfaceChainENSt3__18functionIFvRKNS0_8hidl_vecINS0_11hidl_stringEEEEEE"
  },
  {
   "name":"_ZN7android8hardware12soundtrigger4V2_126BpHwSoundTriggerHwCallback18soundModelCallbackERKNS1_4V2_023ISoundTriggerHwCallback10ModelEventEi"
  },
  {
   "name":"_ZN7android8hardware12soundtrigger4V2_126BpHwSoundTriggerHwCallback19interfaceDescriptorENSt3__18functionIFvRKNS0_11hidl_stringEEEE"
  },
  {
   "name":"_ZN7android8hardware12soundtrigger4V2_126BpHwSoundTriggerHwCallback19recognitionCallbackERKNS1_4V2_023ISoundTriggerHwCallback16RecognitionEventEi"
  },
  {
   "name":"_ZN7android8hardware12soundtrigger4V2_126BpHwSoundTriggerHwCallback21notifySyspropsChangedEv"
  },
  {
   "name":"_ZN7android8hardware12soundtrigger4V2_126BpHwSoundTriggerHwCallback21setHALInstrumentationEv"
  },
  {
   "name":"_ZN7android8hardware12soundtrigger4V2_126BpHwSoundTriggerHwCallback22soundModelCallback_2_1ERKNS2_23ISoundTriggerHwCallback10ModelEventEi"
  },
  {
   "name":"_ZN7android8hardware12soundtrigger4V2_126BpHwSoundTriggerHwCallback23recognitionCallback_2_1ERKNS2_23ISoundTriggerHwCallback16RecognitionEventEi"
  },
  {
   "name":"_ZN7android8hardware12soundtrigger4V2_126BpHwSoundTriggerHwCallback25phraseRecognitionCallbackERKNS1_4V2_023ISoundTriggerHwCallback22PhraseRecognitionEventEi"
  },
  {
   "name":"_ZN7android8hardware12soundtrigger4V2_126BpHwSoundTriggerHwCallback28_hidl_soundModelCallback_2_1EPNS0_10IInterfaceEPNS0_7details16HidlInstrumentorERKNS2_23ISoundTriggerHwCallback10ModelEventEi"
  },
  {
   "name":"_ZN7android8hardware12soundtrigger4V2_126BpHwSoundTriggerHwCallback29_hidl_recognitionCallback_2_1EPNS0_10IInterfaceEPNS0_7details16HidlInstrumentorERKNS2_23ISoundTriggerHwCallback16RecognitionEventEi"
  },
  {
   "name":"_ZN7android8hardware12soundtrigger4V2_126BpHwSoundTriggerHwCallback29phraseRecognitionCallback_2_1ERKNS2_23ISoundTriggerHwCallback22PhraseRecognitionEventEi"
  },
  {
   "name":"_ZN7android8hardware12soundtrigger4V2_126BpHwSoundTriggerHwCallback35_hidl_phraseRecognitionCallback_2_1EPNS0_10IInterfaceEPNS0_7details16HidlInstrumentorERKNS2_23ISoundTriggerHwCallback22PhraseRecognitionEventEi"
  },
  {
   "name":"_ZN7android8hardware12soundtrigger4V2_126BpHwSoundTriggerHwCallback4pingEv"
  },
  {
   "name":"_ZN7android8hardware12soundtrigger4V2_126BpHwSoundTriggerHwCallback5debugERKNS0_11hidl_handleERKNS0_8hidl_vecINS0_11hidl_stringEEE"
  },
  {
   "name":"_ZN7android8hardware12soundtrigger4V2_126BpHwSoundTriggerHwCallbackC1ERKNS_2spINS0_7IBinderEEE"
  },
  {
   "name":"_ZN7android8hardware12soundtrigger4V2_126BpHwSoundTriggerHwCallbackC2ERKNS_2spINS0_7IBinderEEE"
  },
  {
   "binding":"weak",
   "name":"_ZN7android8hardware7details13castInterfaceINS0_12soundtrigger4V2_115ISoundTriggerHwENS3_4V2_015ISoundTriggerHwENS4_18BpHwSoundTriggerHwEEENS0_6ReturnINS_2spIT_EEEENSA_IT0_EEPKcb"
  },
  {
   "binding":"weak",
   "name":"_ZN7android8hardware7details13castInterfaceINS0_12soundtrigger4V2_115ISoundTriggerHwENS_4hidl4base4V1_05IBaseENS4_18BpHwSoundTriggerHwEEENS0_6ReturnINS_2spIT_EEEENSC_IT0_EEPKcb"
  },
  {
   "binding":"weak",
   "name":"_ZN7android8hardware7details13castInterfaceINS0_12soundtrigger4V2_123ISoundTriggerHwCallbackENS3_4V2_023ISoundTriggerHwCallbackENS4_26BpHwSoundTriggerHwCallbackEEENS0_6ReturnINS_2spIT_EEEENSA_IT0_EEPKcb"
  },
  {
   "binding":"weak",
   "name":"_ZN7android8hardware7details13castInterfaceINS0_12soundtrigger4V2_123ISoundTriggerHwCallbackENS_4hidl4base4V1_05IBaseENS4_26BpHwSoundTriggerHwCallbackEEENS0_6ReturnINS_2spIT_EEEENSC_IT0_EEPKcb"
  },
  {
   "binding":"weak",
   "name":"_ZN7android8hardware7details15wrapPassthroughINS0_12soundtrigger4V2_023ISoundTriggerHwCallbackEvEENS_2spIT_EES8_"
  },
  {
   "binding":"weak",
   "name":"_ZN7android8hardware7details15wrapPassthroughINS0_12soundtrigger4V2_123ISoundTriggerHwCallbackEvEENS_2spIT_EES8_"
  },
  {
   "binding":"weak",
   "name":"_ZN7android8hardware7details18getServiceInternalINS0_12soundtrigger4V2_118BpHwSoundTriggerHwENS4_15ISoundTriggerHwEvvEENS_2spIT0_EERKNSt3__112basic_stringIcNSA_11char_traitsIcEENSA_9allocatorIcEEEEbb"
  },
  {
   "binding":"weak",
   "name":"_ZN7android8hardware7details18getServiceInternalINS0_12soundtrigger4V2_126BpHwSoundTriggerHwCallbackENS4_23ISoundTriggerHwCallbackEvvEENS_2spIT0_EERKNSt3__112basic_stringIcNSA_11char_traitsIcEENSA_9allocatorIcEEEEbb"
  },
  {
   "binding":"weak",
   "name":"_ZN7android8hardware8toBinderINS0_12soundtrigger4V2_015ISoundTriggerHwEvEENS_2spINS0_7IBinderEEENS5_IT_EE"
  },
  {
   "binding":"weak",
   "name":"_ZN7android8hardware8toBinderINS0_12soundtrigger4V2_023ISoundTriggerHwCallbackEvEENS_2spINS0_7IBinderEEENS5_IT_EE"
  },
  {
   "binding":"weak",
   "name":"_ZN7android8hardware8toBinderINS0_12soundtrigger4V2_123ISoundTriggerHwCallbackEvEENS_2spINS0_7IBinderEEENS5_IT_EE"
  },
  {
   "binding":"weak",
   "name":"_ZN7android8hardware8toBinderINS_4hidl4base4V1_05IBaseEvEENS_2spINS0_7IBinderEEENS6_IT_EE"
  },
  {
   "name":"_ZThn20_N7android8hardware12soundtrigger4V2_118BnHwSoundTriggerHwD0Ev"
  },
  {
   "name":"_ZThn20_N7android8hardware12soundtrigger4V2_118BnHwSoundTriggerHwD1Ev"
  },
  {
   "name":"_ZThn20_N7android8hardware12soundtrigger4V2_126BnHwSoundTriggerHwCallbackD0Ev"
  },
  {
   "name":"_ZThn20_N7android8hardware12soundtrigger4V2_126BnHwSoundTriggerHwCallbackD1Ev"
  },
  {
   "name":"_ZTv0_n12_N7android8hardware12soundtrigger4V2_118BnHwSoundTriggerHwD0Ev"
  },
  {
   "name":"_ZTv0_n12_N7android8hardware12soundtrigger4V2_118BnHwSoundTriggerHwD1Ev"
  },
  {
   "name":"_ZTv0_n12_N7android8hardware12soundtrigger4V2_126BnHwSoundTriggerHwCallbackD0Ev"
  },
  {
   "name":"_ZTv0_n12_N7android8hardware12soundtrigger4V2_126BnHwSoundTriggerHwCallbackD1Ev"
  }
 ],
 "elf_objects":[
  {
   "name":"_ZN7android8hardware12soundtrigger4V2_115ISoundTriggerHw10descriptorE"
  },
  {
   "name":"_ZN7android8hardware12soundtrigger4V2_123ISoundTriggerHwCallback10descriptorE"
  },
  {
   "name":"_ZTTN7android8hardware12soundtrigger4V2_115ISoundTriggerHwE"
  },
  {
   "name":"_ZTTN7android8hardware12soundtrigger4V2_118BnHwSoundTriggerHwE"
  },
  {
   "name":"_ZTTN7android8hardware12soundtrigger4V2_118BpHwSoundTriggerHwE"
  },
  {
   "name":"_ZTTN7android8hardware12soundtrigger4V2_123ISoundTriggerHwCallbackE"
  },
  {
   "name":"_ZTTN7android8hardware12soundtrigger4V2_126BnHwSoundTriggerHwCallbackE"
  },
  {
   "name":"_ZTTN7android8hardware12soundtrigger4V2_126BpHwSoundTriggerHwCallbackE"
  },
  {
   "name":"_ZTVN7android8hardware12soundtrigger4V2_115ISoundTriggerHwE"
  },
  {
   "binding":"weak",
   "name":"_ZTVN7android8hardware12soundtrigger4V2_116BsSoundTriggerHwE"
  },
  {
   "name":"_ZTVN7android8hardware12soundtrigger4V2_118BnHwSoundTriggerHwE"
  },
  {
   "name":"_ZTVN7android8hardware12soundtrigger4V2_118BpHwSoundTriggerHwE"
  },
  {
   "name":"_ZTVN7android8hardware12soundtrigger4V2_123ISoundTriggerHwCallbackE"
  },
  {
   "binding":"weak",
   "name":"_ZTVN7android8hardware12soundtrigger4V2_124BsSoundTriggerHwCallbackE"
  },
  {
   "name":"_ZTVN7android8hardware12soundtrigger4V2_126BnHwSoundTriggerHwCallbackE"
  },
  {
   "name":"_ZTVN7android8hardware12soundtrigger4V2_126BpHwSoundTriggerHwCallbackE"
  }
 ]
}