{
 "record_types":[
  {
   "vtable_components":[
    {
     "kind":"vbase_offset",
     "component_value":4
    },
    {
     "kind":"offset_to_top"
    },
    {
     "kind":"rtti",
     "mangled_component_name":"_ZTIN7android8hardware5power4V1_06IPowerE"
    },
    {
     "mangled_component_name":"_ZNK7android8hardware5power4V1_06IPower8isRemoteEv"
    },
    {
     "mangled_component_name":"_ZN7android8hardware5power4V1_06IPower14interfaceChainENSt3__18functionIFvRKNS0_8hidl_vecINS0_11hidl_stringEEEEEE"
    },
    {
     "mangled_component_name":"_ZN7android8hardware5power4V1_06IPower5debugERKNS0_11hidl_handleERKNS0_8hidl_vecINS0_11hidl_stringEEE"
    },
    {
     "mangled_component_name":"_ZN7android8hardware5power4V1_06IPower19interfaceDescriptorENSt3__18functionIFvRKNS0_11hidl_stringEEEE"
    },
    {
     "mangled_component_name":"_ZN7android8hardware5power4V1_06IPower12getHashChainENSt3__18functionIFvRKNS0_8hidl_vecINS0_10hidl_arrayIhLj32EJEEEEEEEE"
    },
    {
     "mangled_component_name":"_ZN7android8hardware5power4V1_06IPower21setHALInstrumentationEv"
    },
    {
     "mangled_component_name":"_ZN7android8hardware5power4V1_06IPower11linkToDeathERKNS_2spINS0_20hidl_death_recipientEEEy"
    },
    {
     "mangled_component_name":"_ZN7android8hardware5power4V1_06IPower4pingEv"
    },
    {
     "mangled_component_name":"_ZN7android8hardware5power4V1_06IPower12getDebugInfoENSt3__18functionIFvRKNS_4hidl4base4V1_09DebugInfoEEEE"
    },
    {
     "mangled_component_name":"_ZN7android8hardware5power4V1_06IPower21notifySyspropsChangedEv"
    },
    {
     "mangled_component_name":"_ZN7android8hardware5power4V1_06IPower13unlinkToDeathERKNS_2spINS0_20hidl_death_recipientEEE"
    },
    {
     "kind":"complete_dtor_pointer",
     "mangled_component_name":"_ZN7android8hardware5power4V1_06IPowerD1Ev"
    },
    {
     "kind":"deleting_dtor_pointer",
     "mangled_component_name":"_ZN7android8hardware5power4V1_06IPowerD0Ev"
    },
    {
     "is_pure":true,
     "mangled_component_name":"_ZN7android8hardware5power4V1_06IPower14setInteractiveEb"
    },
    {
     "is_pure":true,
     "mangled_component_name":"_ZN7android8hardware5power4V1_06IPower9powerHintENS2_9PowerHintEi"
    },
    {
     "is_pure":true,
     "mangled_component_name":"_ZN7android8hardware5power4V1_06IPower10setFeatureENS2_7FeatureEb"
    },
    {
     "is_pure":true,
     "mangled_component_name":"_ZN7android8hardware5power4V1_06IPower24getPlatformLowPowerStatsENSt3__18functionIFvRKNS0_8hidl_vecINS2_28PowerStatePlatformSleepStateEEENS2_6StatusEEEE"
    },
    {
     "kind":"vcall_offset"
    },
    {
     "kind":"vcall_offset"
    },
    {
     "kind":"vcall_offset"
    },
    {
     "kind":"vcall_offset"
    },
    {
     "kind":"vcall_offset",
     "component_value":-4
    },
    {
     "kind":"offset_to_top",
     "component_value":-4
    },
    {
     "kind":"rtti",
     "mangled_component_name":"_ZTIN7android8hardware5power4V1_06IPowerE"
    },
    {
     "kind":"complete_dtor_pointer",
     "mangled_component_name":"_ZTv0_n12_N7android8hardware5power4V1_06IPowerD1Ev"
    },
    {
     "kind":"deleting_dtor_pointer",
     "mangled_component_name":"_ZTv0_n12_N7android8hardware5power4V1_06IPowerD0Ev"
    },
    {
     "mangled_component_name":"_ZN7android7RefBase10onFirstRefEv"
    },
    {
     "mangled_component_name":"_ZN7android7RefBase15onLastStrongRefEPKv"
    },
    {
     "mangled_component_name":"_ZN7android7RefBase20onIncStrongAttemptedEjPKv"
    },
    {
     "mangled_component_name":"_ZN7android7RefBase13onLastWeakRefEPKv"
    }
   ],
   "unique_id":"_ZTSN7android8hardware5power4V1_06IPowerE"
  },
  {
   "vtable_components":[
    {
     "kind":"vbase_offset",
     "component_value":72
    },
    {
     "kind":"offset_to_top"
    },
    {
     "kind":"rtti",
     "mangled_component_name":"_ZTIN7android8hardware5power4V1_09BnHwPowerE"
    },
    {
     "mangled_component_name":"_ZN7android8hardware9BHwBinder8transactEjRKNS0_6ParcelEPS2_jNSt3__18functionIFvRS2_EEE"
    },
    {
     "mangled_component_name":"_ZN7android8hardware9BHwBinder11linkToDeathERKNS_2spINS0_7IBinder14DeathRecipientEEEPvj"
    },
    {
     "mangled_component_name":"_ZN7android8hardware9BHwBinder13unlinkToDeathERKNS_2wpINS0_7IBinder14DeathRecipientEEEPvjPS5_"
    },
    {
     "mangled_component_name":"_ZNK7android8hardware7IBinder13checkSubclassEPKv"
    },
    {
     "mangled_component_name":"_ZN7android8hardware9BHwBinder12attachObjectEPKvPvS4_PFvS3_S4_S4_E"
    },
    {
     "mangled_component_name":"_ZNK7android8hardware9BHwBinder10findObjectEPKv"
    },
    {
     "mangled_component_name":"_ZN7android8hardware9BHwBinder12detachObjectEPKv"
    },
    {
     "mangled_component_name":"_ZN7android8hardware9BHwBinder11localBinderEv"
    },
    {
     "mangled_component_name":"_ZN7android8hardware7IBinder12remoteBinderEv"
    },
    {
     "kind":"complete_dtor_pointer",
     "mangled_component_name":"_ZN7android8hardware5power4V1_09BnHwPowerD1Ev"
    },
    {
     "kind":"deleting_dtor_pointer",
     "mangled_component_name":"_ZN7android8hardware5power4V1_09BnHwPowerD0Ev"
    },
    {
     "mangled_component_name":"_ZN7android8hardware5power4V1_09BnHwPower10onTransactEjRKNS0_6ParcelEPS4_jNSt3__18functionIFvRS4_EEE"
    },
    {
     "kind":"offset_to_top",
     "component_value":-20
    },
    {
     "kind":"rtti",
     "mangled_component_name":"_ZTIN7android8hardware5power4V1_09BnHwPowerE"
    },
    {
     "kind":"complete_dtor_pointer",
     "mangled_component_name":"_ZThn20_N7android8hardware5power4V1_09BnHwPowerD1Ev"
    },
    {
     "kind":"deleting_dtor_pointer",
     "mangled_component_name":"_ZThn20_N7android8hardware5power4V1_09BnHwPowerD0Ev"
    },
    {
     "kind":"vcall_offset"
    },
    {
     "kind":"vcall_offset"
    },
    {
     "kind":"vcall_offset"
    },
    {
     "kind":"vcall_offset"
    },
    {
     "kind":"vcall_offset",
     "component_value":-72
    },
    {
     "kind":"offset_to_top",
     "component_value":-72
    },
    {
     "kind":"rtti",
     "mangled_component_name":"_ZTIN7android8hardware5power4V1_09BnHwPowerE"
    },
    {
     "kind":"complete_dtor_pointer",
     "mangled_component_name":"_ZTv0_n12_N7android8hardware5power4V1_09BnHwPowerD1Ev"
    },
    {
     "kind":"deleting_dtor_pointer",
     "mangled_component_name":"_ZTv0_n12_N7android8hardware5power4V1_09BnHwPowerD0Ev"
    },
    {
     "mangled_component_name":"_ZN7android7RefBase10onFirstRefEv"
    },
    {
     "mangled_component_name":"_ZN7android7RefBase15onLastStrongRefEPKv"
    },
    {
     "mangled_component_name":"_ZN7android7RefBase20onIncStrongAttemptedEjPKv"
    },
    {
     "mangled_component_name":"_ZN7android7RefBase13onLastWeakRefEPKv"
    }
   ],
   "unique_id":"_ZTSN7android8hardware5power4V1_09BnHwPowerE"
  },
  {
   "vtable_components":[
    {
     "kind":"vbase_offset",
     "component_value":84
    },
    {
     "kind":"offset_to_top"
    },
    {
     "kind":"rtti",
     "mangled_component_name":"_ZTIN7android8hardware5power4V1_09BpHwPowerE"
    },
    {
     "mangled_component_name":"_ZNK7android8hardware5power4V1_09BpHwPower8isRemoteEv"
    },
    {
     "mangled_component_name":"_ZN7android8hardware5power4V1_09BpHwPower14interfaceChainENSt3__18functionIFvRKNS0_8hidl_vecINS0_11hidl_stringEEEEEE"
    },
    {
     "mangled_component_name":"_ZN7android8hardware5power4V1_09BpHwPower5debugERKNS0_11hidl_handleERKNS0_8hidl_vecINS0_11hidl_stringEEE"
    },
    {
     "mangled_component_name":"_ZN7android8hardware5power4V1_09BpHwPower19interfaceDescriptorENSt3__18functionIFvRKNS0_11hidl_stringEEEE"
    },
    {
     "mangled_component_name":"_ZN7android8hardware5power4V1_09BpHwPower12getHashChainENSt3__18functionIFvRKNS0_8hidl_vecINS0_10hidl_arrayIhLj32EJEEEEEEEE"
    },
    {
     "mangled_component_name":"_ZN7android8hardware5power4V1_09BpHwPower21setHALInstrumentationEv"
    },
    {
     "mangled_component_name":"_ZN7android8hardware5power4V1_09BpHwPower11linkToDeathERKNS_2spINS0_20hidl_death_recipientEEEy"
    },
    {
     "mangled_component_name":"_ZN7android8hardware5power4V1_09BpHwPower4pingEv"
    },
    {
     "mangled_component_name":"_ZN7android8hardware5power4V1_09BpHwPower12getDebugInfoENSt3__18functionIFvRKNS_4hidl4base4V1_09DebugInfoEEEE"
    },
    {
     "mangled_component_name":"_ZN7android8hardware5power4V1_09BpHwPower21notifySyspropsChangedEv"
    },
    {
     "mangled_component_name":"_ZN7android8hardware5power4V1_09BpHwPower13unlinkToDeathERKNS_2spINS0_20hidl_death_recipientEEE"
    },
    {
     "kind":"complete_dtor_pointer",
     "mangled_component_name":"_ZN7android8hardware5power4V1_09BpHwPowerD1Ev"
    },
    {
     "kind":"deleting_dtor_pointer",
     "mangled_component_name":"_ZN7android8hardware5power4V1_09BpHwPowerD0Ev"
    },
    {
     "mangled_component_name":"_ZN7android8hardware5power4V1_09BpHwPower14setInteractiveEb"
    },
    {
     "mangled_component_name":"_ZN7android8hardware5power4V1_09BpHwPower9powerHintENS2_9PowerHintEi"
    },
    {
     "mangled_component_name":"_ZN7android8hardware5power4V1_09BpHwPower10setFeatureENS2_7FeatureEb"
    },
    {
     "mangled_component_name":"_ZN7android8hardware5power4V1_09BpHwPower24getPlatformLowPowerStatsENSt3__18functionIFvRKNS0_8hidl_vecINS2_28PowerStatePlatformSleepStateEEENS2_6StatusEEEE"
    },
    {
     "mangled_component_name":"_ZN7android8hardware11BpInterfaceINS0_5power4V1_06IPowerEE10onAsBinderEv"
    },
    {
     "kind":"vbase_offset",
     "component_value":80
    },
    {
     "kind":"offset_to_top",
     "component_value":-4
    },
    {
     "kind":"rtti",
     "mangled_component_name":"_ZTIN7android8hardware5power4V1_09BpHwPowerE"
    },
    {
     "kind":"complete_dtor_pointer",
     "mangled_component_name":"_ZThn4_N7android8hardware5power4V1_09BpHwPowerD1Ev"
    },
    {
     "kind":"deleting_dtor_pointer",
     "mangled_component_name":"_ZThn4_N7android8hardware5power4V1_09BpHwPowerD0Ev"
    },
    {
     "mangled_component_name":"_ZThn4_N7android8hardware11BpInterfaceINS0_5power4V1_06IPowerEE10onAsBinderEv"
    },
    {
     "kind":"vbase_offset",
     "component_value":76
    },
    {
     "kind":"offset_to_top",
     "component_value":-8
    },
    {
     "kind":"rtti",
     "mangled_component_name":"_ZTIN7android8hardware5power4V1_09BpHwPowerE"
    },
    {
     "kind":"complete_dtor_pointer",
     "mangled_component_name":"_ZThn8_N7android8hardware5power4V1_09BpHwPowerD1Ev"
    },
    {
     "kind":"deleting_dtor_pointer",
     "mangled_component_name":"_ZThn8_N7android8hardware5power4V1_09BpHwPowerD0Ev"
    },
    {
     "mangled_component_name":"_ZN7android8hardware11BpHwRefBase10onFirstRefEv"
    },
    {
     "mangled_component_name":"_ZN7android8hardware11BpHwRefBase15onLastStrongRefEPKv"
    },
    {
     "mangled_component_name":"_ZN7android8hardware11BpHwRefBase20onIncStrongAttemptedEjPKv"
    },
    {
     "kind":"offset_to_top",
     "component_value":-24
    },
    {
     "kind":"rtti",
     "mangled_component_name":"_ZTIN7android8hardware5power4V1_09BpHwPowerE"
    },
    {
     "kind":"complete_dtor_pointer",
     "mangled_component_name":"_ZThn24_N7android8hardware5power4V1_09BpHwPowerD1Ev"
    },
    {
     "kind":"deleting_dtor_pointer",
     "mangled_component_name":"_ZThn24_N7android8hardware5power4V1_09BpHwPowerD0Ev"
    },
    {
     "kind":"vcall_offset"
    },
    {
     "kind":"vcall_offset",
     "component_value":-76
    },
    {
     "kind":"vcall_offset",
     "component_value":-76
    },
    {
     "kind":"vcall_offset",
     "component_value":-76
    },
    {
     "kind":"vcall_offset",
     "component_value":-84
    },
    {
     "kind":"offset_to_top",
     "component_value":-84
    },
    {
     "kind":"rtti",
     "mangled_component_name":"_ZTIN7android8hardware5power4V1_09BpHwPowerE"
    },
    {
     "kind":"complete_dtor_pointer",
     "mangled_component_name":"_ZTv0_n12_N7android8hardware5power4V1_09BpHwPowerD1Ev"
    },
    {
     "kind":"deleting_dtor_pointer",
     "mangled_component_name":"_ZTv0_n12_N7android8hardware5power4V1_09BpHwPowerD0Ev"
    },
    {
     "mangled_component_name":"_ZTv0_n16_N7android8hardware11BpHwRefBase10onFirstRefEv"
    },
    {
     "mangled_component_name":"_ZTv0_n20_N7android8hardware11BpHwRefBase15onLastStrongRefEPKv"
    },
    {
     "mangled_component_name":"_ZTv0_n24_N7android8hardware11BpHwRefBase20onIncStrongAttemptedEjPKv"
    },
    {
     "mangled_component_name":"_ZN7android7RefBase13onLastWeakRefEPKv"
    }
   ],
   "unique_id":"_ZTSN7android8hardware5power4V1_09BpHwPowerE"
  },
  {
   "vtable_components":[
    {
     "kind":"vbase_offset",
     "component_value":60
    },
    {
     "kind":"offset_to_top"
    },
    {
     "kind":"rtti",
     "mangled_component_name":"_ZTIN7android8hardware5power4V1_07BsPowerE"
    },
    {
     "mangled_component_name":"_ZNK7android8hardware5power4V1_06IPower8isRemoteEv"
    },
    {
     "mangled_component_name":"_ZN7android8hardware5power4V1_07BsPower14interfaceChainENSt3__18functionIFvRKNS0_8hidl_vecINS0_11hidl_stringEEEEEE"
    },
    {
     "mangled_component_name":"_ZN7android8hardware5power4V1_07BsPower5debugERKNS0_11hidl_handleERKNS0_8hidl_vecINS0_11hidl_stringEEE"
    },
    {
     "mangled_component_name":"_ZN7android8hardware5power4V1_07BsPower19interfaceDescriptorENSt3__18functionIFvRKNS0_11hidl_stringEEEE"
    },
    {
     "mangled_component_name":"_ZN7android8hardware5power4V1_07BsPower12getHashChainENSt3__18functionIFvRKNS0_8hidl_vecINS0_10hidl_arrayIhLj32EJEEEEEEEE"
    },
    {
     "mangled_component_name":"_ZN7android8hardware5power4V1_07BsPower21setHALInstrumentationEv"
    },
    {
     "mangled_component_name":"_ZN7android8hardware5power4V1_07BsPower11linkToDeathERKNS_2spINS0_20hidl_death_recipientEEEy"
    },
    {
     "mangled_component_name":"_ZN7android8hardware5power4V1_07BsPower4pingEv"
    },
    {
     "mangled_component_name":"_ZN7android8hardware5power4V1_07BsPower12getDebugInfoENSt3__18functionIFvRKNS_4hidl4base4V1_09DebugInfoEEEE"
    },
    {
     "mangled_component_name":"_ZN7android8hardware5power4V1_07BsPower21notifySyspropsChangedEv"
    },
    {
     "mangled_component_name":"_ZN7android8hardware5power4V1_07BsPower13unlinkToDeathERKNS_2spINS0_20hidl_death_recipientEEE"
    },
    {
     "kind":"complete_dtor_pointer",
     "mangled_component_name":"_ZN7android8hardware5power4V1_07BsPowerD1Ev"
    },
    {
     "kind":"deleting_dtor_pointer",
     "mangled_component_name":"_ZN7android8hardware5power4V1_07BsPowerD0Ev"
    },
    {
     "mangled_component_name":"_ZN7android8hardware5power4V1_07BsPower14setInteractiveEb"
    },
    {
     "mangled_component_name":"_ZN7android8hardware5power4V1_07BsPower9powerHintENS2_9PowerHintEi"
    },
    {
     "mangled_component_name":"_ZN7android8hardware5power4V1_07BsPower10setFeatureENS2_7FeatureEb"
    },
    {
     "mangled_component_name":"_ZN7android8hardware5power4V1_07BsPower24getPlatformLowPowerStatsENSt3__18functionIFvRKNS0_8hidl_vecINS2_28PowerStatePlatformSleepStateEEENS2_6StatusEEEE"
    },
    {
     "kind":"offset_to_top",
     "component_value":-4
    },
    {
     "kind":"rtti",
     "mangled_component_name":"_ZTIN7android8hardware5power4V1_07BsPowerE"
    },
    {
     "kind":"complete_dtor_pointer",
     "mangled_component_name":"_ZThn4_N7android8hardware5power4V1_07BsPowerD1Ev"
    },
    {
     "kind":"deleting_dtor_pointer",
     "mangled_component_name":"_ZThn4_N7android8hardware5power4V1_07BsPowerD0Ev"
    },
    {
     "kind":"vcall_offset"
    },
    {
     "kind":"vcall_offset"
    },
    {
     "kind":"vcall_offset"
    },
    {
     "kind":"vcall_offset"
    },
    {
     "kind":"vcall_offset",
     "component_value":-60
    },
    {
     "kind":"offset_to_top",
     "component_value":-60
    },
    {
     "kind":"rtti",
     "mangled_component_name":"_ZTIN7android8hardware5power4V1_07BsPowerE"
    },
    {
     "kind":"complete_dtor_pointer",
     "mangled_component_name":"_ZTv0_n12_N7android8hardware5power4V1_07BsPowerD1Ev"
    },
    {
     "kind":"deleting_dtor_pointer",
     "mangled_component_name":"_ZTv0_n12_N7android8hardware5power4V1_07BsPowerD0Ev"
    },
    {
     "mangled_component_name":"_ZN7android7RefBase10onFirstRefEv"
    },
    {
     "mangled_component_name":"_ZN7android7RefBase15onLastStrongRefEPKv"
    },
    {
     "mangled_component_name":"_ZN7android7RefBase20onIncStrongAttemptedEjPKv"
    },
    {
     "mangled_component_name":"_ZN7android7RefBase13onLastWeakRefEPKv"
    }
   ],
   "unique_id":"_ZTSN7android8hardware5power4V1_07BsPowerE"
  }
 ],
 "elf_functions":[
  {
   "name":"_ZN7android8hardware5power4V1_021writeEmbeddedToParcelERKNS2_15PowerStateVoterEPNS0_6ParcelEjj"
  },
  {
   "name":"_ZN7android8hardware5power4V1_021writeEmbeddedToParcelERKNS2_28PowerStatePlatformSleepStateEPNS0_6ParcelEjj"
  },
  {
   "name":"_ZN7android8hardware5power4V1_022readEmbeddedFromParcelERKNS2_15PowerStateVoterERKNS0_6ParcelEjj"
  },
  {
   "name":"_ZN7android8hardware5power4V1_022readEmbeddedFromParcelERKNS2_28PowerStatePlatformSleepStateERKNS0_6ParcelEjj"
  },
  {
   "name":"_ZN7android8hardware5power4V1_06IPower10getServiceERKNSt3__112basic_stringIcNS4_11char_traitsIcEENS4_9allocatorIcEEEEb"
  },
  {
   "name":"_ZN7android8hardware5power4V1_06IPower11linkToDeathERKNS_2spINS0_20hidl_death_recipientEEEy"
  },
  {
   "name":"_ZN7android8hardware5power4V1_06IPower12getDebugInfoENSt3__18functionIFvRKNS_4hidl4base4V1_09DebugInfoEEEE"
  },
  {
   "name":"_ZN7android8hardware5power4V1_06IPower12getHashChainENSt3__18functionIFvRKNS0_8hidl_vecINS0_10hidl_arrayIhLj32EJEEEEEEEE"
  },
  {
   "name":"_ZN7android8hardware5power4V1_06IPower13tryGetServiceERKNSt3__112basic_stringIcNS4_11char_traitsIcEENS4_9allocatorIcEEEEb"
  },
  {
   "name":"_ZN7android8hardware5power4V1_06IPower13unlinkToDeathERKNS_2spINS0_20hidl_death_recipientEEE"
  },
  {
   "name":"_ZN7android8hardware5power4V1_06IPower14interfaceChainENSt3__18functionIFvRKNS0_8hidl_vecINS0_11hidl_stringEEEEEE"
  },
  {
   "name":"_ZN7android8hardware5power4V1_06IPower17registerAsServiceERKNSt3__112basic_stringIcNS4_11char_traitsIcEENS4_9allocatorIcEEEE"
  },
  {
   "name":"_ZN7android8hardware5power4V1_06IPower19interfaceDescriptorENSt3__18functionIFvRKNS0_11hidl_stringEEEE"
  },
  {
   "name":"_ZN7android8hardware5power4V1_06IPower21notifySyspropsChangedEv"
  },
  {
   "name":"_ZN7android8hardware5power4V1_06IPower21setHALInstrumentationEv"
  },
  {
   "name":"_ZN7android8hardware5power4V1_06IPower24registerForNotificationsERKNSt3__112basic_stringIcNS4_11char_traitsIcEENS4_9allocatorIcEEEERKNS_2spINS_4hidl7manager4V1_020IServiceNotificationEEE"
  },
  {
   "name":"_ZN7android8hardware5power4V1_06IPower4pingEv"
  },
  {
   "name":"_ZN7android8hardware5power4V1_06IPower5debugERKNS0_11hidl_handleERKNS0_8hidl_vecINS0_11hidl_stringEEE"
  },
  {
   "name":"_ZN7android8hardware5power4V1_06IPower8castFromERKNS_2spINS_4hidl4base4V1_05IBaseEEEb"
  },
  {
   "name":"_ZN7android8hardware5power4V1_06IPower8castFromERKNS_2spIS3_EEb"
  },
  {
   "name":"_ZN7android8hardware5power4V1_07BsPower13addOnewayTaskENSt3__18functionIFvvEEE"
  },
  {
   "name":"_ZN7android8hardware5power4V1_07BsPowerC1ENS_2spINS2_6IPowerEEE"
  },
  {
   "name":"_ZN7android8hardware5power4V1_07BsPowerC2ENS_2spINS2_6IPowerEEE"
  },
  {
   "name":"_ZN7android8hardware5power4V1_09BnHwPower10onTransactEjRKNS0_6ParcelEPS4_jNSt3__18functionIFvRS4_EEE"
  },
  {
   "name":"_ZN7android8hardware5power4V1_09BnHwPower12getDebugInfoENSt3__18functionIFvRKNS_4hidl4base4V1_09DebugInfoEEEE"
  },
  {
   "name":"_ZN7android8hardware5power4V1_09BnHwPower15_hidl_powerHintEPNS_4hidl4base4V1_08BnHwBaseERKNS0_6ParcelEPS9_NSt3__18functionIFvRS9_EEE"
  },
  {
   "name":"_ZN7android8hardware5power4V1_09BnHwPower16_hidl_setFeatureEPNS_4hidl4base4V1_08BnHwBaseERKNS0_6ParcelEPS9_NSt3__18functionIFvRS9_EEE"
  },
  {
   "name":"_ZN7android8hardware5power4V1_09BnHwPower20_hidl_setInteractiveEPNS_4hidl4base4V1_08BnHwBaseERKNS0_6ParcelEPS9_NSt3__18functionIFvRS9_EEE"
  },
  {
   "name":"_ZN7android8hardware5power4V1_09BnHwPower30_hidl_getPlatformLowPowerStatsEPNS_4hidl4base4V1_08BnHwBaseERKNS0_6ParcelEPS9_NSt3__18functionIFvRS9_EEE"
  },
  {
   "name":"_ZN7android8hardware5power4V1_09BnHwPower4pingEv"
  },
  {
   "name":"_ZN7android8hardware5power4V1_09BnHwPowerC1ERKNS_2spINS2_6IPowerEEE"
  },
  {
   "name":"_ZN7android8hardware5power4V1_09BnHwPowerC2ERKNS_2spINS2_6IPowerEEE"
  },
  {
   "name":"_ZN7android8hardware5power4V1_09BnHwPowerD0Ev"
  },
  {
   "name":"_ZN7android8hardware5power4V1_09BnHwPowerD1Ev"
  },
  {
   "name":"_ZN7android8hardware5power4V1_09BnHwPowerD2Ev"
  },
  {
   "name":"_ZN7android8hardware5power4V1_09BpHwPower10setFeatureENS2_7FeatureEb"
  },
  {
   "name":"_ZN7android8hardware5power4V1_09BpHwPower11linkToDeathERKNS_2spINS0_20hidl_death_recipientEEEy"
  },
  {
   "name":"_ZN7android8hardware5power4V1_09BpHwPower12getDebugInfoENSt3__18functionIFvRKNS_4hidl4base4V1_09DebugInfoEEEE"
  },
  {
   "name":"_ZN7android8hardware5power4V1_09BpHwPower12getHashChainENSt3__18functionIFvRKNS0_8hidl_vecINS0_10hidl_arrayIhLj32EJEEEEEEEE"
  },
  {
   "name":"_ZN7android8hardware5power4V1_09BpHwPower13unlinkToDeathERKNS_2spINS0_20hidl_death_recipientEEE"
  },
  {
   "name":"_ZN7android8hardware5power4V1_09BpHwPower14interfaceChainENSt3__18functionIFvRKNS0_8hidl_vecINS0_11hidl_stringEEEEEE"
  },
  {
   "name":"_ZN7android8hardware5power4V1_09BpHwPower14setInteractiveEb"
  },
  {
   "name":"_ZN7android8hardware5power4V1_09BpHwPower15_hidl_powerHintEPNS0_10IInterfaceEPNS0_7details16HidlInstrumentorENS2_9PowerHintEi"
  },
  {
   "name":"_ZN7android8hardware5power4V1_09BpHwPower16_hidl_setFeatureEPNS0_10IInterfaceEPNS0_7details16HidlInstrumentorENS2_7FeatureEb"
  },
  {
   "name":"_ZN7android8hardware5power4V1_09BpHwPower19interfaceDescriptorENSt3__18functionIFvRKNS0_11hidl_stringEEEE"
  },
  {
   "name":"_ZN7android8hardware5power4V1_09BpHwPower20_hidl_setInteractiveEPNS0_10IInterfaceEPNS0_7details16HidlInstrumentorEb"
  },
  {
   "name":"_ZN7android8hardware5power4V1_09BpHwPower21notifySyspropsChangedEv"
  },
  {
   "name":"_ZN7android8hardware5power4V1_09BpHwPower21setHALInstrumentationEv"
  },
  {
   "name":"_ZN7android8hardware5power4V1_09BpHwPower24getPlatformLowPowerStatsENSt3__18functionIFvRKNS0_8hidl_vecINS2_28PowerStatePlatformSleepStateEEENS2_6StatusEEEE"
  },
  {
   "name":"_ZN7android8hardware5power4V1_09BpHwPower30_hidl_getPlatformLowPowerStatsEPNS0_10IInterfaceEPNS0_7details16HidlInstrumentorENSt3__18functionIFvRKNS0_8hidl_vecINS2_28PowerStatePlatformSleepStateEEENS2_6StatusEEEE"
  },
  {
   "name":"_ZN7android8hardware5power4V1_09BpHwPower4pingEv"
  },
  {
   "name":"_ZN7android8hardware5power4V1_09BpHwPower5debugERKNS0_11hidl_handleERKNS0_8hidl_vecINS0_11hidl_stringEEE"
  },
  {
   "name":"_ZN7android8hardware5power4V1_09BpHwPower9powerHintENS2_9PowerHintEi"
  },
  {
   "name":"_ZN7android8hardware5power4V1_09BpHwPowerC1ERKNS_2spINS0_7IBinderEEE"
  },
  {
   "name":"_ZN7android8hardware5power4V1_09BpHwPowerC2ERKNS_2spINS0_7IBinderEEE"
  },
  {
   "binding":"weak",
   "name":"_ZN7android8hardware7details13castInterfaceINS0_5power4V1_06IPowerENS_4hidl4base4V1_05IBaseENS4_9BpHwPowerEEENS0_6ReturnINS_2spIT_EEEENSC_IT0_EEPKcb"
  },
  {
   "binding":"weak",
   "name":"_ZN7android8hardware7details18getServiceInternalINS0_5power4V1_09BpHwPowerENS4_6IPowerEvvEENS_2spIT0_EERKNSt3__112basic_stringIcNSA_11char_traitsIcEENSA_9allocatorIcEEEEbb"
  },
  {
   "binding":"weak",
   "name":"_ZN7android8hardware8toBinderINS_4hidl4base4V1_05IBaseEvEENS_2spINS0_7IBinderEEENS6_IT_EE"
  },
  {
   "name":"_ZThn20_N7android8hardware5power4V1_09BnHwPowerD0Ev"
  },
  {
   "name":"_ZThn20_N7android8hardware5power4V1_09BnHwPowerD1Ev"
  },
  {
   "name":"_ZTv0_n12_N7android8hardware5power4V1_09BnHwPowerD0Ev"
  },
  {
   "name":"_ZTv0_n12_N7android8hardware5power4V1_09BnHwPowerD1Ev"
  }
 ],
 "elf_objects":[
  {
   "name":"_ZN7android8hardware5power4V1_06IPower10descriptorE"
  },
  {
   "name":"_ZTTN7android8hardware5power4V1_06IPowerE"
  },
  {
   "name":"_ZTTN7android8hardware5power4V1_09BnHwPowerE"
  },
  {
   "name":"_ZTTN7android8hardware5power4V1_09BpHwPowerE"
  },
  {
   "name":"_ZTVN7android8hardware5power4V1_06IPowerE"
  },
  {
   "binding":"weak",
   "name":"_ZTVN7android8hardware5power4V1_07BsPowerE"
  },
  {
   "name":"_ZTVN7android8hardware5power4V1_09BnHwPowerE"
  },
  {
   "name":"_ZTVN7android8hardware5power4V1_09BpHwPowerE"
  }
 ]
}