{
 "record_types":[
  {
   "vtable_components":[
    {
     "kind":"vbase_offset",
     "component_value":72
    },
    {
     "kind":"offset_to_top"
    },
    {
     "kind":"rtti",
     "mangled_component_name":"_ZTIN7android4hidl6memory5token4V1_015BnHwMemoryTokenE"
    },
    {
     "mangled_component_name":"_ZN7android8hardware9BHwBinder8transactEjRKNS0_6ParcelEPS2_jNSt3__18functionIFvRS2_EEE"
    },
    {
     "mangled_component_name":"_ZN7android8hardware9BHwBinder11linkToDeathERKNS_2spINS0_7IBinder14DeathRecipientEEEPvj"
    },
    {
     "mangled_component_name":"_ZN7android8hardware9BHwBinder13unlinkToDeathERKNS_2wpINS0_7IBinder14DeathRecipientEEEPvjPS5_"
    },
    {
     "mangled_component_name":"_ZNK7android8hardware7IBinder13checkSubclassEPKv"
    },
    {
     "mangled_component_name":"_ZN7android8hardware9BHwBinder12attachObjectEPKvPvS4_PFvS3_S4_S4_E"
    },
    {
     "mangled_component_name":"_ZNK7android8hardware9BHwBinder10findObjectEPKv"
    },
    {
     "mangled_component_name":"_ZN7android8hardware9BHwBinder12detachObjectEPKv"
    },
    {
     "mangled_component_name":"_ZN7android8hardware9BHwBinder11localBinderEv"
    },
    {
     "mangled_component_name":"_ZN7android8hardware7IBinder12remoteBinderEv"
    },
    {
     "kind":"complete_dtor_pointer",
     "mangled_component_name":"_ZN7android4hidl6memory5token4V1_015BnHwMemoryTokenD1Ev"
    },
    {
     "kind":"deleting_dtor_pointer",
     "mangled_component_name":"_ZN7android4hidl6memory5token4V1_015BnHwMemoryTokenD0Ev"
    },
    {
     "mangled_component_name":"_ZN7android4hidl6memory5token4V1_015BnHwMemoryToken10onTransactEjRKNS_8hardware6ParcelEPS6_jNSt3__18functionIFvRS6_EEE"
    },
    {
     "kind":"offset_to_top",
     "component_value":-20
    },
    {
     "kind":"rtti",
     "mangled_component_name":"_ZTIN7android4hidl6memory5token4V1_015BnHwMemoryTokenE"
    },
    {
     "kind":"complete_dtor_pointer",
     "mangled_component_name":"_ZThn20_N7android4hidl6memory5token4V1_015BnHwMemoryTokenD1Ev"
    },
    {
     "kind":"deleting_dtor_pointer",
     "mangled_component_name":"_ZThn20_N7android4hidl6memory5token4V1_015BnHwMemoryTokenD0Ev"
    },
    {
     "kind":"vcall_offset"
    },
    {
     "kind":"vcall_offset"
    },
    {
     "kind":"vcall_offset"
    },
    {
     "kind":"vcall_offset"
    },
    {
     "kind":"vcall_offset",
     "component_value":-72
    },
    {
     "kind":"offset_to_top",
     "component_value":-72
    },
    {
     "kind":"rtti",
     "mangled_component_name":"_ZTIN7android4hidl6memory5token4V1_015BnHwMemoryTokenE"
    },
    {
     "kind":"complete_dtor_pointer",
     "mangled_component_name":"_ZTv0_n12_N7android4hidl6memory5token4V1_015BnHwMemoryTokenD1Ev"
    },
    {
     "kind":"deleting_dtor_pointer",
     "mangled_component_name":"_ZTv0_n12_N7android4hidl6memory5token4V1_015BnHwMemoryTokenD0Ev"
    },
    {
     "mangled_component_name":"_ZN7android7RefBase10onFirstRefEv"
    },
    {
     "mangled_component_name":"_ZN7android7RefBase15onLastStrongRefEPKv"
    },
    {
     "mangled_component_name":"_ZN7android7RefBase20onIncStrongAttemptedEjPKv"
    },
    {
     "mangled_component_name":"_ZN7android7RefBase13onLastWeakRefEPKv"
    }
   ],
   "unique_id":"_ZTSN7android4hidl6memory5token4V1_015BnHwMemoryTokenE"
  },
  {
   "vtable_components":[
    {
     "kind":"vbase_offset",
     "component_value":60
    },
    {
     "kind":"offset_to_top"
    },
    {
     "kind":"rtti",
     "mangled_component_name":"_ZTIN7android4hidl6memory5token4V1_013BsMemoryTokenE"
    },
    {
     "mangled_component_name":"_ZNK7android4hidl6memory5token4V1_012IMemoryToken8isRemoteEv"
    },
    {
     "mangled_component_name":"_ZN7android4hidl6memory5token4V1_013BsMemoryToken14interfaceChainENSt3__18functionIFvRKNS_8hardware8hidl_vecINS7_11hidl_stringEEEEEE"
    },
    {
     "mangled_component_name":"_ZN7android4hidl6memory5token4V1_013BsMemoryToken5debugERKNS_8hardware11hidl_handleERKNS5_8hidl_vecINS5_11hidl_stringEEE"
    },
    {
     "mangled_component_name":"_ZN7android4hidl6memory5token4V1_013BsMemoryToken19interfaceDescriptorENSt3__18functionIFvRKNS_8hardware11hidl_stringEEEE"
    },
    {
     "mangled_component_name":"_ZN7android4hidl6memory5token4V1_013BsMemoryToken12getHashChainENSt3__18functionIFvRKNS_8hardware8hidl_vecINS7_10hidl_arrayIhLj32EJEEEEEEEE"
    },
    {
     "mangled_component_name":"_ZN7android4hidl6memory5token4V1_013BsMemoryToken21setHALInstrumentationEv"
    },
    {
     "mangled_component_name":"_ZN7android4hidl6memory5token4V1_013BsMemoryToken11linkToDeathERKNS_2spINS_8hardware20hidl_death_recipientEEEy"
    },
    {
     "mangled_component_name":"_ZN7android4hidl6memory5token4V1_013BsMemoryToken4pingEv"
    },
    {
     "mangled_component_name":"_ZN7android4hidl6memory5token4V1_013BsMemoryToken12getDebugInfoENSt3__18functionIFvRKNS0_4base4V1_09DebugInfoEEEE"
    },
    {
     "mangled_component_name":"_ZN7android4hidl6memory5token4V1_013BsMemoryToken21notifySyspropsChangedEv"
    },
    {
     "mangled_component_name":"_ZN7android4hidl6memory5token4V1_013BsMemoryToken13unlinkToDeathERKNS_2spINS_8hardware20hidl_death_recipientEEE"
    },
    {
     "kind":"complete_dtor_pointer",
     "mangled_component_name":"_ZN7android4hidl6memory5token4V1_013BsMemoryTokenD1Ev"
    },
    {
     "kind":"deleting_dtor_pointer",
     "mangled_component_name":"_ZN7android4hidl6memory5token4V1_013BsMemoryTokenD0Ev"
    },
    {
     "mangled_component_name":"_ZN7android4hidl6memory5token4V1_013BsMemoryToken3getENSt3__18functionIFvRKNS_8hardware11hidl_memoryEEEE"
    },
    {
     "kind":"offset_to_top",
     "component_value":-4
    },
    {
     "kind":"rtti",
     "mangled_component_name":"_ZTIN7android4hidl6memory5token4V1_013BsMemoryTokenE"
    },
    {
     "kind":"complete_dtor_pointer",
     "mangled_component_name":"_ZThn4_N7android4hidl6memory5token4V1_013BsMemoryTokenD1Ev"
    },
    {
     "kind":"deleting_dtor_pointer",
     "mangled_component_name":"_ZThn4_N7android4hidl6memory5token4V1_013BsMemoryTokenD0Ev"
    },
    {
     "kind":"vcall_offset"
    },
    {
     "kind":"vcall_offset"
    },
    {
     "kind":"vcall_offset"
    },
    {
     "kind":"vcall_offset"
    },
    {
     "kind":"vcall_offset",
     "component_value":-60
    },
    {
     "kind":"offset_to_top",
     "component_value":-60
    },
    {
     "kind":"rtti",
     "mangled_component_name":"_ZTIN7android4hidl6memory5token4V1_013BsMemoryTokenE"
    },
    {
     "kind":"complete_dtor_pointer",
     "mangled_component_name":"_ZTv0_n12_N7android4hidl6memory5token4V1_013BsMemoryTokenD1Ev"
    },
    {
     "kind":"deleting_dtor_pointer",
     "mangled_component_name":"_ZTv0_n12_N7android4hidl6memory5token4V1_013BsMemoryTokenD0Ev"
    },
    {
     "mangled_component_name":"_ZN7android7RefBase10onFirstRefEv"
    },
    {
     "mangled_component_name":"_ZN7android7RefBase15onLastStrongRefEPKv"
    },
    {
     "mangled_component_name":"_ZN7android7RefBase20onIncStrongAttemptedEjPKv"
    },
    {
     "mangled_component_name":"_ZN7android7RefBase13onLastWeakRefEPKv"
    }
   ],
   "unique_id":"_ZTSN7android4hidl6memory5token4V1_013BsMemoryTokenE"
  },
  {
   "vtable_components":[
    {
     "kind":"vbase_offset",
     "component_value":84
    },
    {
     "kind":"offset_to_top"
    },
    {
     "kind":"rtti",
     "mangled_component_name":"_ZTIN7android4hidl6memory5token4V1_015BpHwMemoryTokenE"
    },
    {
     "mangled_component_name":"_ZNK7android4hidl6memory5token4V1_015BpHwMemoryToken8isRemoteEv"
    },
    {
     "mangled_component_name":"_ZN7android4hidl6memory5token4V1_015BpHwMemoryToken14interfaceChainENSt3__18functionIFvRKNS_8hardware8hidl_vecINS7_11hidl_stringEEEEEE"
    },
    {
     "mangled_component_name":"_ZN7android4hidl6memory5token4V1_015BpHwMemoryToken5debugERKNS_8hardware11hidl_handleERKNS5_8hidl_vecINS5_11hidl_stringEEE"
    },
    {
     "mangled_component_name":"_ZN7android4hidl6memory5token4V1_015BpHwMemoryToken19interfaceDescriptorENSt3__18functionIFvRKNS_8hardware11hidl_stringEEEE"
    },
    {
     "mangled_component_name":"_ZN7android4hidl6memory5token4V1_015BpHwMemoryToken12getHashChainENSt3__18functionIFvRKNS_8hardware8hidl_vecINS7_10hidl_arrayIhLj32EJEEEEEEEE"
    },
    {
     "mangled_component_name":"_ZN7android4hidl6memory5token4V1_015BpHwMemoryToken21setHALInstrumentationEv"
    },
    {
     "mangled_component_name":"_ZN7android4hidl6memory5token4V1_015BpHwMemoryToken11linkToDeathERKNS_2spINS_8hardware20hidl_death_recipientEEEy"
    },
    {
     "mangled_component_name":"_ZN7android4hidl6memory5token4V1_015BpHwMemoryToken4pingEv"
    },
    {
     "mangled_component_name":"_ZN7android4hidl6memory5token4V1_015BpHwMemoryToken12getDebugInfoENSt3__18functionIFvRKNS0_4base4V1_09DebugInfoEEEE"
    },
    {
     "mangled_component_name":"_ZN7android4hidl6memory5token4V1_015BpHwMemoryToken21notifySyspropsChangedEv"
    },
    {
     "mangled_component_name":"_ZN7android4hidl6memory5token4V1_015BpHwMemoryToken13unlinkToDeathERKNS_2spINS_8hardware20hidl_death_recipientEEE"
    },
    {
     "kind":"complete_dtor_pointer",
     "mangled_component_name":"_ZN7android4hidl6memory5token4V1_015BpHwMemoryTokenD1Ev"
    },
    {
     "kind":"deleting_dtor_pointer",
     "mangled_component_name":"_ZN7android4hidl6memory5token4V1_015BpHwMemoryTokenD0Ev"
    },
    {
     "mangled_component_name":"_ZN7android4hidl6memory5token4V1_015BpHwMemoryToken3getENSt3__18functionIFvRKNS_8hardware11hidl_memoryEEEE"
    },
    {
     "mangled_component_name":"_ZN7android8hardware11BpInterfaceINS_4hidl6memory5token4V1_012IMemoryTokenEE10onAsBinderEv"
    },
    {
     "kind":"vbase_offset",
     "component_value":80
    },
    {
     "kind":"offset_to_top",
     "component_value":-4
    },
    {
     "kind":"rtti",
     "mangled_component_name":"_ZTIN7android4hidl6memory5token4V1_015BpHwMemoryTokenE"
    },
    {
     "kind":"complete_dtor_pointer",
     "mangled_component_name":"_ZThn4_N7android4hidl6memory5token4V1_015BpHwMemoryTokenD1Ev"
    },
    {
     "kind":"deleting_dtor_pointer",
     "mangled_component_name":"_ZThn4_N7android4hidl6memory5token4V1_015BpHwMemoryTokenD0Ev"
    },
    {
     "mangled_component_name":"_ZThn4_N7android8hardware11BpInterfaceINS_4hidl6memory5token4V1_012IMemoryTokenEE10onAsBinderEv"
    },
    {
     "kind":"vbase_offset",
     "component_value":76
    },
    {
     "kind":"offset_to_top",
     "component_value":-8
    },
    {
     "kind":"rtti",
     "mangled_component_name":"_ZTIN7android4hidl6memory5token4V1_015BpHwMemoryTokenE"
    },
    {
     "kind":"complete_dtor_pointer",
     "mangled_component_name":"_ZThn8_N7android4hidl6memory5token4V1_015BpHwMemoryTokenD1Ev"
    },
    {
     "kind":"deleting_dtor_pointer",
     "mangled_component_name":"_ZThn8_N7android4hidl6memory5token4V1_015BpHwMemoryTokenD0Ev"
    },
    {
     "mangled_component_name":"_ZN7android8hardware11BpHwRefBase10onFirstRefEv"
    },
    {
     "mangled_component_name":"_ZN7android8hardware11BpHwRefBase15onLastStrongRefEPKv"
    },
    {
     "mangled_component_name":"_ZN7android8hardware11BpHwRefBase20onIncStrongAttemptedEjPKv"
    },
    {
     "kind":"offset_to_top",
     "component_value":-24
    },
    {
     "kind":"rtti",
     "mangled_component_name":"_ZTIN7android4hidl6memory5token4V1_015BpHwMemoryTokenE"
    },
    {
     "kind":"complete_dtor_pointer",
     "mangled_component_name":"_ZThn24_N7android4hidl6memory5token4V1_015BpHwMemoryTokenD1Ev"
    },
    {
     "kind":"deleting_dtor_pointer",
     "mangled_component_name":"_ZThn24_N7android4hidl6memory5token4V1_015BpHwMemoryTokenD0Ev"
    },
    {
     "kind":"vcall_offset"
    },
    {
     "kind":"vcall_offset",
     "component_value":-76
    },
    {
     "kind":"vcall_offset",
     "component_value":-76
    },
    {
     "kind":"vcall_offset",
     "component_value":-76
    },
    {
     "kind":"vcall_offset",
     "component_value":-84
    },
    {
     "kind":"offset_to_top",
     "component_value":-84
    },
    {
     "kind":"rtti",
     "mangled_component_name":"_ZTIN7android4hidl6memory5token4V1_015BpHwMemoryTokenE"
    },
    {
     "kind":"complete_dtor_pointer",
     "mangled_component_name":"_ZTv0_n12_N7android4hidl6memory5token4V1_015BpHwMemoryTokenD1Ev"
    },
    {
     "kind":"deleting_dtor_pointer",
     "mangled_component_name":"_ZTv0_n12_N7android4hidl6memory5token4V1_015BpHwMemoryTokenD0Ev"
    },
    {
     "mangled_component_name":"_ZTv0_n16_N7android8hardware11BpHwRefBase10onFirstRefEv"
    },
    {
     "mangled_component_name":"_ZTv0_n20_N7android8hardware11BpHwRefBase15onLastStrongRefEPKv"
    },
    {
     "mangled_component_name":"_ZTv0_n24_N7android8hardware11BpHwRefBase20onIncStrongAttemptedEjPKv"
    },
    {
     "mangled_component_name":"_ZN7android7RefBase13onLastWeakRefEPKv"
    }
   ],
   "unique_id":"_ZTSN7android4hidl6memory5token4V1_015BpHwMemoryTokenE"
  },
  {
   "vtable_components":[
    {
     "kind":"vbase_offset",
     "component_value":4
    },
    {
     "kind":"offset_to_top"
    },
    {
     "kind":"rtti",
     "mangled_component_name":"_ZTIN7android4hidl6memory5token4V1_012IMemoryTokenE"
    },
    {
     "mangled_component_name":"_ZNK7android4hidl6memory5token4V1_012IMemoryToken8isRemoteEv"
    },
    {
     "mangled_component_name":"_ZN7android4hidl6memory5token4V1_012IMemoryToken14interfaceChainENSt3__18functionIFvRKNS_8hardware8hidl_vecINS7_11hidl_stringEEEEEE"
    },
    {
     "mangled_component_name":"_ZN7android4hidl6memory5token4V1_012IMemoryToken5debugERKNS_8hardware11hidl_handleERKNS5_8hidl_vecINS5_11hidl_stringEEE"
    },
    {
     "mangled_component_name":"_ZN7android4hidl6memory5token4V1_012IMemoryToken19interfaceDescriptorENSt3__18functionIFvRKNS_8hardware11hidl_stringEEEE"
    },
    {
     "mangled_component_name":"_ZN7android4hidl6memory5token4V1_012IMemoryToken12getHashChainENSt3__18functionIFvRKNS_8hardware8hidl_vecINS7_10hidl_arrayIhLj32EJEEEEEEEE"
    },
    {
     "mangled_component_name":"_ZN7android4hidl6memory5token4V1_012IMemoryToken21setHALInstrumentationEv"
    },
    {
     "mangled_component_name":"_ZN7android4hidl6memory5token4V1_012IMemoryToken11linkToDeathERKNS_2spINS_8hardware20hidl_death_recipientEEEy"
    },
    {
     "mangled_component_name":"_ZN7android4hidl6memory5token4V1_012IMemoryToken4pingEv"
    },
    {
     "mangled_component_name":"_ZN7android4hidl6memory5token4V1_012IMemoryToken12getDebugInfoENSt3__18functionIFvRKNS0_4base4V1_09DebugInfoEEEE"
    },
    {
     "mangled_component_name":"_ZN7android4hidl6memory5token4V1_012IMemoryToken21notifySyspropsChangedEv"
    },
    {
     "mangled_component_name":"_ZN7android4hidl6memory5token4V1_012IMemoryToken13unlinkToDeathERKNS_2spINS_8hardware20hidl_death_recipientEEE"
    },
    {
     "kind":"complete_dtor_pointer",
     "mangled_component_name":"_ZN7android4hidl6memory5token4V1_012IMemoryTokenD1Ev"
    },
    {
     "kind":"deleting_dtor_pointer",
     "mangled_component_name":"_ZN7android4hidl6memory5token4V1_012IMemoryTokenD0Ev"
    },
    {
     "is_pure":true,
     "mangled_component_name":"_ZN7android4hidl6memory5token4V1_012IMemoryToken3getENSt3__18functionIFvRKNS_8hardware11hidl_memoryEEEE"
    },
    {
     "kind":"vcall_offset"
    },
    {
     "kind":"vcall_offset"
    },
    {
     "kind":"vcall_offset"
    },
    {
     "kind":"vcall_offset"
    },
    {
     "kind":"vcall_offset",
     "component_value":-4
    },
    {
     "kind":"offset_to_top",
     "component_value":-4
    },
    {
     "kind":"rtti",
     "mangled_component_name":"_ZTIN7android4hidl6memory5token4V1_012IMemoryTokenE"
    },
    {
     "kind":"complete_dtor_pointer",
     "mangled_component_name":"_ZTv0_n12_N7android4hidl6memory5token4V1_012IMemoryTokenD1Ev"
    },
    {
     "kind":"deleting_dtor_pointer",
     "mangled_component_name":"_ZTv0_n12_N7android4hidl6memory5token4V1_012IMemoryTokenD0Ev"
    },
    {
     "mangled_component_name":"_ZN7android7RefBase10onFirstRefEv"
    },
    {
     "mangled_component_name":"_ZN7android7RefBase15onLastStrongRefEPKv"
    },
    {
     "mangled_component_name":"_ZN7android7RefBase20onIncStrongAttemptedEjPKv"
    },
    {
     "mangled_component_name":"_ZN7android7RefBase13onLastWeakRefEPKv"
    }
   ],
   "unique_id":"_ZTSN7android4hidl6memory5token4V1_012IMemoryTokenE"
  }
 ],
 "elf_functions":[
  {
   "name":"_ZN7android4hidl6memory5token4V1_012IMemoryToken10getServiceERKNSt3__112basic_stringIcNS5_11char_traitsIcEENS5_9allocatorIcEEEEb"
  },
  {
   "name":"_ZN7android4hidl6memory5token4V1_012IMemoryToken11linkToDeathERKNS_2spINS_8hardware20hidl_death_recipientEEEy"
  },
  {
   "name":"_ZN7android4hidl6memory5token4V1_012IMemoryToken12getDebugInfoENSt3__18functionIFvRKNS0_4base4V1_09DebugInfoEEEE"
  },
  {
   "name":"_ZN7android4hidl6memory5token4V1_012IMemoryToken12getHashChainENSt3__18functionIFvRKNS_8hardware8hidl_vecINS7_10hidl_arrayIhLj32EJEEEEEEEE"
  },
  {
   "name":"_ZN7android4hidl6memory5token4V1_012IMemoryToken13tryGetServiceERKNSt3__112basic_stringIcNS5_11char_traitsIcEENS5_9allocatorIcEEEEb"
  },
  {
   "name":"_ZN7android4hidl6memory5token4V1_012IMemoryToken13unlinkToDeathERKNS_2spINS_8hardware20hidl_death_recipientEEE"
  },
  {
   "name":"_ZN7android4hidl6memory5token4V1_012IMemoryToken14interfaceChainENSt3__18functionIFvRKNS_8hardware8hidl_vecINS7_11hidl_stringEEEEEE"
  },
  {
   "name":"_ZN7android4hidl6memory5token4V1_012IMemoryToken17registerAsServiceERKNSt3__112basic_stringIcNS5_11char_traitsIcEENS5_9allocatorIcEEEE"
  },
  {
   "name":"_ZN7android4hidl6memory5token4V1_012IMemoryToken19interfaceDescriptorENSt3__18functionIFvRKNS_8hardware11hidl_stringEEEE"
  },
  {
   "name":"_ZN7android4hidl6memory5token4V1_012IMemoryToken21notifySyspropsChangedEv"
  },
  {
   "name":"_ZN7android4hidl6memory5token4V1_012IMemoryToken21setHALInstrumentationEv"
  },
  {
   "name":"_ZN7android4hidl6memory5token4V1_012IMemoryToken24registerForNotificationsERKNSt3__112basic_stringIcNS5_11char_traitsIcEENS5_9allocatorIcEEEERKNS_2spINS0_7manager4V1_020IServiceNotificationEEE"
  },
  {
   "name":"_ZN7android4hidl6memory5token4V1_012IMemoryToken4pingEv"
  },
  {
   "name":"_ZN7android4hidl6memory5token4V1_012IMemoryToken5debugERKNS_8hardware11hidl_handleERKNS5_8hidl_vecINS5_11hidl_stringEEE"
  },
  {
   "name":"_ZN7android4hidl6memory5token4V1_012IMemoryToken8castFromERKNS_2spINS0_4base4V1_05IBaseEEEb"
  },
  {
   "name":"_ZN7android4hidl6memory5token4V1_012IMemoryToken8castFromERKNS_2spIS4_EEb"
  },
  {
   "name":"_ZN7android4hidl6memory5token4V1_013BsMemoryToken13addOnewayTaskENSt3__18functionIFvvEEE"
  },
  {
   "name":"_ZN7android4hidl6memory5token4V1_013BsMemoryTokenC1ENS_2spINS3_12IMemoryTokenEEE"
  },
  {
   "name":"_ZN7android4hidl6memory5token4V1_013BsMemoryTokenC2ENS_2spINS3_12IMemoryTokenEEE"
  },
  {
   "name":"_ZN7android4hidl6memory5token4V1_015BnHwMemoryToken10onTransactEjRKNS_8hardware6ParcelEPS6_jNSt3__18functionIFvRS6_EEE"
  },
  {
   "name":"_ZN7android4hidl6memory5token4V1_015BnHwMemoryToken12getDebugInfoENSt3__18functionIFvRKNS0_4base4V1_09DebugInfoEEEE"
  },
  {
   "name":"_ZN7android4hidl6memory5token4V1_015BnHwMemoryToken4pingEv"
  },
  {
   "name":"_ZN7android4hidl6memory5token4V1_015BnHwMemoryToken9_hidl_getEPNS0_4base4V1_08BnHwBaseERKNS_8hardware6ParcelEPSA_NSt3__18functionIFvRSA_EEE"
  },
  {
   "name":"_ZN7android4hidl6memory5token4V1_015BnHwMemoryTokenC1ERKNS_2spINS3_12IMemoryTokenEEE"
  },
  {
   "name":"_ZN7android4hidl6memory5token4V1_015BnHwMemoryTokenC2ERKNS_2spINS3_12IMemoryTokenEEE"
  },
  {
   "name":"_ZN7android4hidl6memory5token4V1_015BnHwMemoryTokenD0Ev"
  },
  {
   "name":"_ZN7android4hidl6memory5token4V1_015BnHwMemoryTokenD1Ev"
  },
  {
   "name":"_ZN7android4hidl6memory5token4V1_015BnHwMemoryTokenD2Ev"
  },
  {
   "name":"_ZN7android4hidl6memory5token4V1_015BpHwMemoryToken11linkToDeathERKNS_2spINS_8hardware20hidl_death_recipientEEEy"
  },
  {
   "name":"_ZN7android4hidl6memory5token4V1_015BpHwMemoryToken12getDebugInfoENSt3__18functionIFvRKNS0_4base4V1_09DebugInfoEEEE"
  },
  {
   "name":"_ZN7android4hidl6memory5token4V1_015BpHwMemoryToken12getHashChainENSt3__18functionIFvRKNS_8hardware8hidl_vecINS7_10hidl_arrayIhLj32EJEEEEEEEE"
  },
  {
   "name":"_ZN7android4hidl6memory5token4V1_015BpHwMemoryToken13unlinkToDeathERKNS_2spINS_8hardware20hidl_death_recipientEEE"
  },
  {
   "name":"_ZN7android4hidl6memory5token4V1_015BpHwMemoryToken14interfaceChainENSt3__18functionIFvRKNS_8hardware8hidl_vecINS7_11hidl_stringEEEEEE"
  },
  {
   "name":"_ZN7android4hidl6memory5token4V1_015BpHwMemoryToken19interfaceDescriptorENSt3__18functionIFvRKNS_8hardware11hidl_stringEEEE"
  },
  {
   "name":"_ZN7android4hidl6memory5token4V1_015BpHwMemoryToken21notifySyspropsChangedEv"
  },
  {
   "name":"_ZN7android4hidl6memory5token4V1_015BpHwMemoryToken21setHALInstrumentationEv"
  },
  {
   "name":"_ZN7android4hidl6memory5token4V1_015BpHwMemoryToken3getENSt3__18functionIFvRKNS_8hardware11hidl_memoryEEEE"
  },
  {
   "name":"_ZN7android4hidl6memory5token4V1_015BpHwMemoryToken4pingEv"
  },
  {
   "name":"_ZN7android4hidl6memory5token4V1_015BpHwMemoryToken5debugERKNS_8hardware11hidl_handleERKNS5_8hidl_vecINS5_11hidl_stringEEE"
  },
  {
   "name":"_ZN7android4hidl6memory5token4V1_015BpHwMemoryToken9_hidl_getEPNS_8hardware10IInterfaceEPNS5_7details16HidlInstrumentorENSt3__18functionIFvRKNS5_11hidl_memoryEEEE"
  },
  {
   "name":"_ZN7android4hidl6memory5token4V1_015BpHwMemoryTokenC1ERKNS_2spINS_8hardware7IBinderEEE"
  },
  {
   "name":"_ZN7android4hidl6memory5token4V1_015BpHwMemoryTokenC2ERKNS_2spINS_8hardware7IBinderEEE"
  },
  {
   "binding":"weak",
   "name":"_ZN7android8hardware7details13castInterfaceINS_4hidl6memory5token4V1_012IMemoryTokenENS3_4base4V1_05IBaseENS6_15BpHwMemoryTokenEEENS0_6ReturnINS_2spIT_EEEENSD_IT0_EEPKcb"
  },
  {
   "binding":"weak",
   "name":"_ZN7android8hardware7details18getServiceInternalINS_4hidl6memory5token4V1_015BpHwMemoryTokenENS6_12IMemoryTokenEvvEENS_2spIT0_EERKNSt3__112basic_stringIcNSC_11char_traitsIcEENSC_9allocatorIcEEEEbb"
  },
  {
   "binding":"weak",
   "name":"_ZN7android8hardware8toBinderINS_4hidl4base4V1_05IBaseEvEENS_2spINS0_7IBinderEEENS6_IT_EE"
  },
  {
   "name":"_ZThn20_N7android4hidl6memory5token4V1_015BnHwMemoryTokenD0Ev"
  },
  {
   "name":"_ZThn20_N7android4hidl6memory5token4V1_015BnHwMemoryTokenD1Ev"
  },
  {
   "name":"_ZTv0_n12_N7android4hidl6memory5token4V1_015BnHwMemoryTokenD0Ev"
  },
  {
   "name":"_ZTv0_n12_N7android4hidl6memory5token4V1_015BnHwMemoryTokenD1Ev"
  }
 ],
 "elf_objects":[
  {
   "name":"_ZN7android4hidl6memory5token4V1_012IMemoryToken10descriptorE"
  },
  {
   "name":"_ZTTN7android4hidl6memory5token4V1_012IMemoryTokenE"
  },
  {
   "name":"_ZTTN7android4hidl6memory5token4V1_015BnHwMemoryTokenE"
  },
  {
   "name":"_ZTTN7android4hidl6memory5token4V1_015BpHwMemoryTokenE"
  },
  {
   "name":"_ZTVN7android4hidl6memory5token4V1_012IMemoryTokenE"
  },
  {
   "binding":"weak",
   "name":"_ZTVN7android4hidl6memory5token4V1_013BsMemoryTokenE"
  },
  {
   "name":"_ZTVN7android4hidl6memory5token4V1_015BnHwMemoryTokenE"
  },
  {
   "name":"_ZTVN7android4hidl6memory5token4V1_015BpHwMemoryTokenE"
  }
 ]
}