{
 "record_types":[
  {
   "vtable_components":[
    {
     "kind":"vbase_offset",
     "component_value":84
    },
    {
     "kind":"offset_to_top"
    },
    {
     "kind":"rtti",
     "mangled_component_name":"_ZTIN7android8hardware4wifi7offload4V1_019BpHwOffloadCallbackE"
    },
    {
     "mangled_component_name":"_ZNK7android8hardware4wifi7offload4V1_019BpHwOffloadCallback8isRemoteEv"
    },
    {
     "mangled_component_name":"_ZN7android8hardware4wifi7offload4V1_019BpHwOffloadCallback14interfaceChainENSt3__18functionIFvRKNS0_8hidl_vecINS0_11hidl_stringEEEEEE"
    },
    {
     "mangled_component_name":"_ZN7android8hardware4wifi7offload4V1_019BpHwOffloadCallback5debugERKNS0_11hidl_handleERKNS0_8hidl_vecINS0_11hidl_stringEEE"
    },
    {
     "mangled_component_name":"_ZN7android8hardware4wifi7offload4V1_019BpHwOffloadCallback19interfaceDescriptorENSt3__18functionIFvRKNS0_11hidl_stringEEEE"
    },
    {
     "mangled_component_name":"_ZN7android8hardware4wifi7offload4V1_019BpHwOffloadCallback12getHashChainENSt3__18functionIFvRKNS0_8hidl_vecINS0_10hidl_arrayIhLj32EJEEEEEEEE"
    },
    {
     "mangled_component_name":"_ZN7android8hardware4wifi7offload4V1_019BpHwOffloadCallback21setHALInstrumentationEv"
    },
    {
     "mangled_component_name":"_ZN7android8hardware4wifi7offload4V1_019BpHwOffloadCallback11linkToDeathERKNS_2spINS0_20hidl_death_recipientEEEy"
    },
    {
     "mangled_component_name":"_ZN7android8hardware4wifi7offload4V1_019BpHwOffloadCallback4pingEv"
    },
    {
     "mangled_component_name":"_ZN7android8hardware4wifi7offload4V1_019BpHwOffloadCallback12getDebugInfoENSt3__18functionIFvRKNS_4hidl4base4V1_09DebugInfoEEEE"
    },
    {
     "mangled_component_name":"_ZN7android8hardware4wifi7offload4V1_019BpHwOffloadCallback21notifySyspropsChangedEv"
    },
    {
     "mangled_component_name":"_ZN7android8hardware4wifi7offload4V1_019BpHwOffloadCallback13unlinkToDeathERKNS_2spINS0_20hidl_death_recipientEEE"
    },
    {
     "kind":"complete_dtor_pointer",
     "mangled_component_name":"_ZN7android8hardware4wifi7offload4V1_019BpHwOffloadCallbackD1Ev"
    },
    {
     "kind":"deleting_dtor_pointer",
     "mangled_component_name":"_ZN7android8hardware4wifi7offload4V1_019BpHwOffloadCallbackD0Ev"
    },
    {
     "mangled_component_name":"_ZN7android8hardware4wifi7offload4V1_019BpHwOffloadCallback12onScanResultERKNS0_8hidl_vecINS3_10ScanResultEEE"
    },
    {
     "mangled_component_name":"_ZN7android8hardware4wifi7offload4V1_019BpHwOffloadCallback7onErrorERKNS3_13OffloadStatusE"
    },
    {
     "mangled_component_name":"_ZN7android8hardware11BpInterfaceINS0_4wifi7offload4V1_016IOffloadCallbackEE10onAsBinderEv"
    },
    {
     "kind":"vbase_offset",
     "component_value":80
    },
    {
     "kind":"offset_to_top",
     "component_value":-4
    },
    {
     "kind":"rtti",
     "mangled_component_name":"_ZTIN7android8hardware4wifi7offload4V1_019BpHwOffloadCallbackE"
    },
    {
     "kind":"complete_dtor_pointer",
     "mangled_component_name":"_ZThn4_N7android8hardware4wifi7offload4V1_019BpHwOffloadCallbackD1Ev"
    },
    {
     "kind":"deleting_dtor_pointer",
     "mangled_component_name":"_ZThn4_N7android8hardware4wifi7offload4V1_019BpHwOffloadCallbackD0Ev"
    },
    {
     "mangled_component_name":"_ZThn4_N7android8hardware11BpInterfaceINS0_4wifi7offload4V1_016IOffloadCallbackEE10onAsBinderEv"
    },
    {
     "kind":"vbase_offset",
     "component_value":76
    },
    {
     "kind":"offset_to_top",
     "component_value":-8
    },
    {
     "kind":"rtti",
     "mangled_component_name":"_ZTIN7android8hardware4wifi7offload4V1_019BpHwOffloadCallbackE"
    },
    {
     "kind":"complete_dtor_pointer",
     "mangled_component_name":"_ZThn8_N7android8hardware4wifi7offload4V1_019BpHwOffloadCallbackD1Ev"
    },
    {
     "kind":"deleting_dtor_pointer",
     "mangled_component_name":"_ZThn8_N7android8hardware4wifi7offload4V1_019BpHwOffloadCallbackD0Ev"
    },
    {
     "mangled_component_name":"_ZN7android8hardware11BpHwRefBase10onFirstRefEv"
    },
    {
     "mangled_component_name":"_ZN7android8hardware11BpHwRefBase15onLastStrongRefEPKv"
    },
    {
     "mangled_component_name":"_ZN7android8hardware11BpHwRefBase20onIncStrongAttemptedEjPKv"
    },
    {
     "kind":"offset_to_top",
     "component_value":-24
    },
    {
     "kind":"rtti",
     "mangled_component_name":"_ZTIN7android8hardware4wifi7offload4V1_019BpHwOffloadCallbackE"
    },
    {
     "kind":"complete_dtor_pointer",
     "mangled_component_name":"_ZThn24_N7android8hardware4wifi7offload4V1_019BpHwOffloadCallbackD1Ev"
    },
    {
     "kind":"deleting_dtor_pointer",
     "mangled_component_name":"_ZThn24_N7android8hardware4wifi7offload4V1_019BpHwOffloadCallbackD0Ev"
    },
    {
     "kind":"vcall_offset"
    },
    {
     "kind":"vcall_offset",
     "component_value":-76
    },
    {
     "kind":"vcall_offset",
     "component_value":-76
    },
    {
     "kind":"vcall_offset",
     "component_value":-76
    },
    {
     "kind":"vcall_offset",
     "component_value":-84
    },
    {
     "kind":"offset_to_top",
     "component_value":-84
    },
    {
     "kind":"rtti",
     "mangled_component_name":"_ZTIN7android8hardware4wifi7offload4V1_019BpHwOffloadCallbackE"
    },
    {
     "kind":"complete_dtor_pointer",
     "mangled_component_name":"_ZTv0_n12_N7android8hardware4wifi7offload4V1_019BpHwOffloadCallbackD1Ev"
    },
    {
     "kind":"deleting_dtor_pointer",
     "mangled_component_name":"_ZTv0_n12_N7android8hardware4wifi7offload4V1_019BpHwOffloadCallbackD0Ev"
    },
    {
     "mangled_component_name":"_ZTv0_n16_N7android8hardware11BpHwRefBase10onFirstRefEv"
    },
    {
     "mangled_component_name":"_ZTv0_n20_N7android8hardware11BpHwRefBase15onLastStrongRefEPKv"
    },
    {
     "mangled_component_name":"_ZTv0_n24_N7android8hardware11BpHwRefBase20onIncStrongAttemptedEjPKv"
    },
    {
     "mangled_component_name":"_ZN7android7RefBase13onLastWeakRefEPKv"
    }
   ],
   "unique_id":"_ZTSN7android8hardware4wifi7offload4V1_019BpHwOffloadCallbackE"
  },
  {
   "vtable_components":[
    {
     "kind":"vbase_offset",
     "component_value":4
    },
    {
     "kind":"offset_to_top"
    },
    {
     "kind":"rtti",
     "mangled_component_name":"_ZTIN7android8hardware4wifi7offload4V1_016IOffloadCallbackE"
    },
    {
     "mangled_component_name":"_ZNK7android8hardware4wifi7offload4V1_016IOffloadCallback8isRemoteEv"
    },
    {
     "mangled_component_name":"_ZN7android8hardware4wifi7offload4V1_016IOffloadCallback14interfaceChainENSt3__18functionIFvRKNS0_8hidl_vecINS0_11hidl_stringEEEEEE"
    },
    {
     "mangled_component_name":"_ZN7android8hardware4wifi7offload4V1_016IOffloadCallback5debugERKNS0_11hidl_handleERKNS0_8hidl_vecINS0_11hidl_stringEEE"
    },
    {
     "mangled_component_name":"_ZN7android8hardware4wifi7offload4V1_016IOffloadCallback19interfaceDescriptorENSt3__18functionIFvRKNS0_11hidl_stringEEEE"
    },
    {
     "mangled_component_name":"_ZN7android8hardware4wifi7offload4V1_016IOffloadCallback12getHashChainENSt3__18functionIFvRKNS0_8hidl_vecINS0_10hidl_arrayIhLj32EJEEEEEEEE"
    },
    {
     "mangled_component_name":"_ZN7android8hardware4wifi7offload4V1_016IOffloadCallback21setHALInstrumentationEv"
    },
    {
     "mangled_component_name":"_ZN7android8hardware4wifi7offload4V1_016IOffloadCallback11linkToDeathERKNS_2spINS0_20hidl_death_recipientEEEy"
    },
    {
     "mangled_component_name":"_ZN7android8hardware4wifi7offload4V1_016IOffloadCallback4pingEv"
    },
    {
     "mangled_component_name":"_ZN7android8hardware4wifi7offload4V1_016IOffloadCallback12getDebugInfoENSt3__18functionIFvRKNS_4hidl4base4V1_09DebugInfoEEEE"
    },
    {
     "mangled_component_name":"_ZN7android8hardware4wifi7offload4V1_016IOffloadCallback21notifySyspropsChangedEv"
    },
    {
     "mangled_component_name":"_ZN7android8hardware4wifi7offload4V1_016IOffloadCallback13unlinkToDeathERKNS_2spINS0_20hidl_death_recipientEEE"
    },
    {
     "kind":"complete_dtor_pointer",
     "mangled_component_name":"_ZN7android8hardware4wifi7offload4V1_016IOffloadCallbackD1Ev"
    },
    {
     "kind":"deleting_dtor_pointer",
     "mangled_component_name":"_ZN7android8hardware4wifi7offload4V1_016IOffloadCallbackD0Ev"
    },
    {
     "is_pure":true,
     "mangled_component_name":"_ZN7android8hardware4wifi7offload4V1_016IOffloadCallback12onScanResultERKNS0_8hidl_vecINS3_10ScanResultEEE"
    },
    {
     "is_pure":true,
     "mangled_component_name":"_ZN7android8hardware4wifi7offload4V1_016IOffloadCallback7onErrorERKNS3_13OffloadStatusE"
    },
    {
     "kind":"vcall_offset"
    },
    {
     "kind":"vcall_offset"
    },
    {
     "kind":"vcall_offset"
    },
    {
     "kind":"vcall_offset"
    },
    {
     "kind":"vcall_offset",
     "component_value":-4
    },
    {
     "kind":"offset_to_top",
     "component_value":-4
    },
    {
     "kind":"rtti",
     "mangled_component_name":"_ZTIN7android8hardware4wifi7offload4V1_016IOffloadCallbackE"
    },
    {
     "kind":"complete_dtor_pointer",
     "mangled_component_name":"_ZTv0_n12_N7android8hardware4wifi7offload4V1_016IOffloadCallbackD1Ev"
    },
    {
     "kind":"deleting_dtor_pointer",
     "mangled_component_name":"_ZTv0_n12_N7android8hardware4wifi7offload4V1_016IOffloadCallbackD0Ev"
    },
    {
     "mangled_component_name":"_ZN7android7RefBase10onFirstRefEv"
    },
    {
     "mangled_component_name":"_ZN7android7RefBase15onLastStrongRefEPKv"
    },
    {
     "mangled_component_name":"_ZN7android7RefBase20onIncStrongAttemptedEjPKv"
    },
    {
     "mangled_component_name":"_ZN7android7RefBase13onLastWeakRefEPKv"
    }
   ],
   "unique_id":"_ZTSN7android8hardware4wifi7offload4V1_016IOffloadCallbackE"
  },
  {
   "vtable_components":[
    {
     "kind":"vbase_offset",
     "component_value":60
    },
    {
     "kind":"offset_to_top"
    },
    {
     "kind":"rtti",
     "mangled_component_name":"_ZTIN7android8hardware4wifi7offload4V1_09BsOffloadE"
    },
    {
     "mangled_component_name":"_ZNK7android8hardware4wifi7offload4V1_08IOffload8isRemoteEv"
    },
    {
     "mangled_component_name":"_ZN7android8hardware4wifi7offload4V1_09BsOffload14interfaceChainENSt3__18functionIFvRKNS0_8hidl_vecINS0_11hidl_stringEEEEEE"
    },
    {
     "mangled_component_name":"_ZN7android8hardware4wifi7offload4V1_09BsOffload5debugERKNS0_11hidl_handleERKNS0_8hidl_vecINS0_11hidl_stringEEE"
    },
    {
     "mangled_component_name":"_ZN7android8hardware4wifi7offload4V1_09BsOffload19interfaceDescriptorENSt3__18functionIFvRKNS0_11hidl_stringEEEE"
    },
    {
     "mangled_component_name":"_ZN7android8hardware4wifi7offload4V1_09BsOffload12getHashChainENSt3__18functionIFvRKNS0_8hidl_vecINS0_10hidl_arrayIhLj32EJEEEEEEEE"
    },
    {
     "mangled_component_name":"_ZN7android8hardware4wifi7offload4V1_09BsOffload21setHALInstrumentationEv"
    },
    {
     "mangled_component_name":"_ZN7android8hardware4wifi7offload4V1_09BsOffload11linkToDeathERKNS_2spINS0_20hidl_death_recipientEEEy"
    },
    {
     "mangled_component_name":"_ZN7android8hardware4wifi7offload4V1_09BsOffload4pingEv"
    },
    {
     "mangled_component_name":"_ZN7android8hardware4wifi7offload4V1_09BsOffload12getDebugInfoENSt3__18functionIFvRKNS_4hidl4base4V1_09DebugInfoEEEE"
    },
    {
     "mangled_component_name":"_ZN7android8hardware4wifi7offload4V1_09BsOffload21notifySyspropsChangedEv"
    },
    {
     "mangled_component_name":"_ZN7android8hardware4wifi7offload4V1_09BsOffload13unlinkToDeathERKNS_2spINS0_20hidl_death_recipientEEE"
    },
    {
     "kind":"complete_dtor_pointer",
     "mangled_component_name":"_ZN7android8hardware4wifi7offload4V1_09BsOffloadD1Ev"
    },
    {
     "kind":"deleting_dtor_pointer",
     "mangled_component_name":"_ZN7android8hardware4wifi7offload4V1_09BsOffloadD0Ev"
    },
    {
     "mangled_component_name":"_ZN7android8hardware4wifi7offload4V1_09BsOffload14configureScansERKNS3_9ScanParamERKNS3_10ScanFilterENSt3__18functionIFvRKNS3_13OffloadStatusEEEE"
    },
    {
     "mangled_component_name":"_ZN7android8hardware4wifi7offload4V1_09BsOffload12getScanStatsENSt3__18functionIFvRKNS3_13OffloadStatusERKNS3_9ScanStatsEEEE"
    },
    {
     "mangled_component_name":"_ZN7android8hardware4wifi7offload4V1_09BsOffload20subscribeScanResultsEjNSt3__18functionIFvRKNS3_13OffloadStatusEEEE"
    },
    {
     "mangled_component_name":"_ZN7android8hardware4wifi7offload4V1_09BsOffload22unsubscribeScanResultsEv"
    },
    {
     "mangled_component_name":"_ZN7android8hardware4wifi7offload4V1_09BsOffload16setEventCallbackERKNS_2spINS3_16IOffloadCallbackEEE"
    },
    {
     "kind":"offset_to_top",
     "component_value":-4
    },
    {
     "kind":"rtti",
     "mangled_component_name":"_ZTIN7android8hardware4wifi7offload4V1_09BsOffloadE"
    },
    {
     "kind":"complete_dtor_pointer",
     "mangled_component_name":"_ZThn4_N7android8hardware4wifi7offload4V1_09BsOffloadD1Ev"
    },
    {
     "kind":"deleting_dtor_pointer",
     "mangled_component_name":"_ZThn4_N7android8hardware4wifi7offload4V1_09BsOffloadD0Ev"
    },
    {
     "kind":"vcall_offset"
    },
    {
     "kind":"vcall_offset"
    },
    {
     "kind":"vcall_offset"
    },
    {
     "kind":"vcall_offset"
    },
    {
     "kind":"vcall_offset",
     "component_value":-60
    },
    {
     "kind":"offset_to_top",
     "component_value":-60
    },
    {
     "kind":"rtti",
     "mangled_component_name":"_ZTIN7android8hardware4wifi7offload4V1_09BsOffloadE"
    },
    {
     "kind":"complete_dtor_pointer",
     "mangled_component_name":"_ZTv0_n12_N7android8hardware4wifi7offload4V1_09BsOffloadD1Ev"
    },
    {
     "kind":"deleting_dtor_pointer",
     "mangled_component_name":"_ZTv0_n12_N7android8hardware4wifi7offload4V1_09BsOffloadD0Ev"
    },
    {
     "mangled_component_name":"_ZN7android7RefBase10onFirstRefEv"
    },
    {
     "mangled_component_name":"_ZN7android7RefBase15onLastStrongRefEPKv"
    },
    {
     "mangled_component_name":"_ZN7android7RefBase20onIncStrongAttemptedEjPKv"
    },
    {
     "mangled_component_name":"_ZN7android7RefBase13onLastWeakRefEPKv"
    }
   ],
   "unique_id":"_ZTSN7android8hardware4wifi7offload4V1_09BsOffloadE"
  },
  {
   "vtable_components":[
    {
     "kind":"vbase_offset",
     "component_value":4
    },
    {
     "kind":"offset_to_top"
    },
    {
     "kind":"rtti",
     "mangled_component_name":"_ZTIN7android8hardware4wifi7offload4V1_08IOffloadE"
    },
    {
     "mangled_component_name":"_ZNK7android8hardware4wifi7offload4V1_08IOffload8isRemoteEv"
    },
    {
     "mangled_component_name":"_ZN7android8hardware4wifi7offload4V1_08IOffload14interfaceChainENSt3__18functionIFvRKNS0_8hidl_vecINS0_11hidl_stringEEEEEE"
    },
    {
     "mangled_component_name":"_ZN7android8hardware4wifi7offload4V1_08IOffload5debugERKNS0_11hidl_handleERKNS0_8hidl_vecINS0_11hidl_stringEEE"
    },
    {
     "mangled_component_name":"_ZN7android8hardware4wifi7offload4V1_08IOffload19interfaceDescriptorENSt3__18functionIFvRKNS0_11hidl_stringEEEE"
    },
    {
     "mangled_component_name":"_ZN7android8hardware4wifi7offload4V1_08IOffload12getHashChainENSt3__18functionIFvRKNS0_8hidl_vecINS0_10hidl_arrayIhLj32EJEEEEEEEE"
    },
    {
     "mangled_component_name":"_ZN7android8hardware4wifi7offload4V1_08IOffload21setHALInstrumentationEv"
    },
    {
     "mangled_component_name":"_ZN7android8hardware4wifi7offload4V1_08IOffload11linkToDeathERKNS_2spINS0_20hidl_death_recipientEEEy"
    },
    {
     "mangled_component_name":"_ZN7android8hardware4wifi7offload4V1_08IOffload4pingEv"
    },
    {
     "mangled_component_name":"_ZN7android8hardware4wifi7offload4V1_08IOffload12getDebugInfoENSt3__18functionIFvRKNS_4hidl4base4V1_09DebugInfoEEEE"
    },
    {
     "mangled_component_name":"_ZN7android8hardware4wifi7offload4V1_08IOffload21notifySyspropsChangedEv"
    },
    {
     "mangled_component_name":"_ZN7android8hardware4wifi7offload4V1_08IOffload13unlinkToDeathERKNS_2spINS0_20hidl_death_recipientEEE"
    },
    {
     "kind":"complete_dtor_pointer",
     "mangled_component_name":"_ZN7android8hardware4wifi7offload4V1_08IOffloadD1Ev"
    },
    {
     "kind":"deleting_dtor_pointer",
     "mangled_component_name":"_ZN7android8hardware4wifi7offload4V1_08IOffloadD0Ev"
    },
    {
     "is_pure":true,
     "mangled_component_name":"_ZN7android8hardware4wifi7offload4V1_08IOffload14configureScansERKNS3_9ScanParamERKNS3_10ScanFilterENSt3__18functionIFvRKNS3_13OffloadStatusEEEE"
    },
    {
     "is_pure":true,
     "mangled_component_name":"_ZN7android8hardware4wifi7offload4V1_08IOffload12getScanStatsENSt3__18functionIFvRKNS3_13OffloadStatusERKNS3_9ScanStatsEEEE"
    },
    {
     "is_pure":true,
     "mangled_component_name":"_ZN7android8hardware4wifi7offload4V1_08IOffload20subscribeScanResultsEjNSt3__18functionIFvRKNS3_13OffloadStatusEEEE"
    },
    {
     "is_pure":true,
     "mangled_component_name":"_ZN7android8hardware4wifi7offload4V1_08IOffload22unsubscribeScanResultsEv"
    },
    {
     "is_pure":true,
     "mangled_component_name":"_ZN7android8hardware4wifi7offload4V1_08IOffload16setEventCallbackERKNS_2spINS3_16IOffloadCallbackEEE"
    },
    {
     "kind":"vcall_offset"
    },
    {
     "kind":"vcall_offset"
    },
    {
     "kind":"vcall_offset"
    },
    {
     "kind":"vcall_offset"
    },
    {
     "kind":"vcall_offset",
     "component_value":-4
    },
    {
     "kind":"offset_to_top",
     "component_value":-4
    },
    {
     "kind":"rtti",
     "mangled_component_name":"_ZTIN7android8hardware4wifi7offload4V1_08IOffloadE"
    },
    {
     "kind":"complete_dtor_pointer",
     "mangled_component_name":"_ZTv0_n12_N7android8hardware4wifi7offload4V1_08IOffloadD1Ev"
    },
    {
     "kind":"deleting_dtor_pointer",
     "mangled_component_name":"_ZTv0_n12_N7android8hardware4wifi7offload4V1_08IOffloadD0Ev"
    },
    {
     "mangled_component_name":"_ZN7android7RefBase10onFirstRefEv"
    },
    {
     "mangled_component_name":"_ZN7android7RefBase15onLastStrongRefEPKv"
    },
    {
     "mangled_component_name":"_ZN7android7RefBase20onIncStrongAttemptedEjPKv"
    },
    {
     "mangled_component_name":"_ZN7android7RefBase13onLastWeakRefEPKv"
    }
   ],
   "unique_id":"_ZTSN7android8hardware4wifi7offload4V1_08IOffloadE"
  },
  {
   "vtable_components":[
    {
     "kind":"vbase_offset",
     "component_value":84
    },
    {
     "kind":"offset_to_top"
    },
    {
     "kind":"rtti",
     "mangled_component_name":"_ZTIN7android8hardware4wifi7offload4V1_011BpHwOffloadE"
    },
    {
     "mangled_component_name":"_ZNK7android8hardware4wifi7offload4V1_011BpHwOffload8isRemoteEv"
    },
    {
     "mangled_component_name":"_ZN7android8hardware4wifi7offload4V1_011BpHwOffload14interfaceChainENSt3__18functionIFvRKNS0_8hidl_vecINS0_11hidl_stringEEEEEE"
    },
    {
     "mangled_component_name":"_ZN7android8hardware4wifi7offload4V1_011BpHwOffload5debugERKNS0_11hidl_handleERKNS0_8hidl_vecINS0_11hidl_stringEEE"
    },
    {
     "mangled_component_name":"_ZN7android8hardware4wifi7offload4V1_011BpHwOffload19interfaceDescriptorENSt3__18functionIFvRKNS0_11hidl_stringEEEE"
    },
    {
     "mangled_component_name":"_ZN7android8hardware4wifi7offload4V1_011BpHwOffload12getHashChainENSt3__18functionIFvRKNS0_8hidl_vecINS0_10hidl_arrayIhLj32EJEEEEEEEE"
    },
    {
     "mangled_component_name":"_ZN7android8hardware4wifi7offload4V1_011BpHwOffload21setHALInstrumentationEv"
    },
    {
     "mangled_component_name":"_ZN7android8hardware4wifi7offload4V1_011BpHwOffload11linkToDeathERKNS_2spINS0_20hidl_death_recipientEEEy"
    },
    {
     "mangled_component_name":"_ZN7android8hardware4wifi7offload4V1_011BpHwOffload4pingEv"
    },
    {
     "mangled_component_name":"_ZN7android8hardware4wifi7offload4V1_011BpHwOffload12getDebugInfoENSt3__18functionIFvRKNS_4hidl4base4V1_09DebugInfoEEEE"
    },
    {
     "mangled_component_name":"_ZN7android8hardware4wifi7offload4V1_011BpHwOffload21notifySyspropsChangedEv"
    },
    {
     "mangled_component_name":"_ZN7android8hardware4wifi7offload4V1_011BpHwOffload13unlinkToDeathERKNS_2spINS0_20hidl_death_recipientEEE"
    },
    {
     "kind":"complete_dtor_pointer",
     "mangled_component_name":"_ZN7android8hardware4wifi7offload4V1_011BpHwOffloadD1Ev"
    },
    {
     "kind":"deleting_dtor_pointer",
     "mangled_component_name":"_ZN7android8hardware4wifi7offload4V1_011BpHwOffloadD0Ev"
    },
    {
     "mangled_component_name":"_ZN7android8hardware4wifi7offload4V1_011BpHwOffload14configureScansERKNS3_9ScanParamERKNS3_10ScanFilterENSt3__18functionIFvRKNS3_13OffloadStatusEEEE"
    },
    {
     "mangled_component_name":"_ZN7android8hardware4wifi7offload4V1_011BpHwOffload12getScanStatsENSt3__18functionIFvRKNS3_13OffloadStatusERKNS3_9ScanStatsEEEE"
    },
    {
     "mangled_component_name":"_ZN7android8hardware4wifi7offload4V1_011BpHwOffload20subscribeScanResultsEjNSt3__18functionIFvRKNS3_13OffloadStatusEEEE"
    },
    {
     "mangled_component_name":"_ZN7android8hardware4wifi7offload4V1_011BpHwOffload22unsubscribeScanResultsEv"
    },
    {
     "mangled_component_name":"_ZN7android8hardware4wifi7offload4V1_011BpHwOffload16setEventCallbackERKNS_2spINS3_16IOffloadCallbackEEE"
    },
    {
     "mangled_component_name":"_ZN7android8hardware11BpInterfaceINS0_4wifi7offload4V1_08IOffloadEE10onAsBinderEv"
    },
    {
     "kind":"vbase_offset",
     "component_value":80
    },
    {
     "kind":"offset_to_top",
     "component_value":-4
    },
    {
     "kind":"rtti",
     "mangled_component_name":"_ZTIN7android8hardware4wifi7offload4V1_011BpHwOffloadE"
    },
    {
     "kind":"complete_dtor_pointer",
     "mangled_component_name":"_ZThn4_N7android8hardware4wifi7offload4V1_011BpHwOffloadD1Ev"
    },
    {
     "kind":"deleting_dtor_pointer",
     "mangled_component_name":"_ZThn4_N7android8hardware4wifi7offload4V1_011BpHwOffloadD0Ev"
    },
    {
     "mangled_component_name":"_ZThn4_N7android8hardware11BpInterfaceINS0_4wifi7offload4V1_08IOffloadEE10onAsBinderEv"
    },
    {
     "kind":"vbase_offset",
     "component_value":76
    },
    {
     "kind":"offset_to_top",
     "component_value":-8
    },
    {
     "kind":"rtti",
     "mangled_component_name":"_ZTIN7android8hardware4wifi7offload4V1_011BpHwOffloadE"
    },
    {
     "kind":"complete_dtor_pointer",
     "mangled_component_name":"_ZThn8_N7android8hardware4wifi7offload4V1_011BpHwOffloadD1Ev"
    },
    {
     "kind":"deleting_dtor_pointer",
     "mangled_component_name":"_ZThn8_N7android8hardware4wifi7offload4V1_011BpHwOffloadD0Ev"
    },
    {
     "mangled_component_name":"_ZN7android8hardware11BpHwRefBase10onFirstRefEv"
    },
    {
     "mangled_component_name":"_ZN7android8hardware11BpHwRefBase15onLastStrongRefEPKv"
    },
    {
     "mangled_component_name":"_ZN7android8hardware11BpHwRefBase20onIncStrongAttemptedEjPKv"
    },
    {
     "kind":"offset_to_top",
     "component_value":-24
    },
    {
     "kind":"rtti",
     "mangled_component_name":"_ZTIN7android8hardware4wifi7offload4V1_011BpHwOffloadE"
    },
    {
     "kind":"complete_dtor_pointer",
     "mangled_component_name":"_ZThn24_N7android8hardware4wifi7offload4V1_011BpHwOffloadD1Ev"
    },
    {
     "kind":"deleting_dtor_pointer",
     "mangled_component_name":"_ZThn24_N7android8hardware4wifi7offload4V1_011BpHwOffloadD0Ev"
    },
    {
     "kind":"vcall_offset"
    },
    {
     "kind":"vcall_offset",
     "component_value":-76
    },
    {
     "kind":"vcall_offset",
     "component_value":-76
    },
    {
     "kind":"vcall_offset",
     "component_value":-76
    },
    {
     "kind":"vcall_offset",
     "component_value":-84
    },
    {
     "kind":"offset_to_top",
     "component_value":-84
    },
    {
     "kind":"rtti",
     "mangled_component_name":"_ZTIN7android8hardware4wifi7offload4V1_011BpHwOffloadE"
    },
    {
     "kind":"complete_dtor_pointer",
     "mangled_component_name":"_ZTv0_n12_N7android8hardware4wifi7offload4V1_011BpHwOffloadD1Ev"
    },
    {
     "kind":"deleting_dtor_pointer",
     "mangled_component_name":"_ZTv0_n12_N7android8hardware4wifi7offload4V1_011BpHwOffloadD0Ev"
    },
    {
     "mangled_component_name":"_ZTv0_n16_N7android8hardware11BpHwRefBase10onFirstRefEv"
    },
    {
     "mangled_component_name":"_ZTv0_n20_N7android8hardware11BpHwRefBase15onLastStrongRefEPKv"
    },
    {
     "mangled_component_name":"_ZTv0_n24_N7android8hardware11BpHwRefBase20onIncStrongAttemptedEjPKv"
    },
    {
     "mangled_component_name":"_ZN7android7RefBase13onLastWeakRefEPKv"
    }
   ],
   "unique_id":"_ZTSN7android8hardware4wifi7offload4V1_011BpHwOffloadE"
  },
  {
   "vtable_components":[
    {
     "kind":"vbase_offset",
     "component_value":72
    },
    {
     "kind":"offset_to_top"
    },
    {
     "kind":"rtti",
     "mangled_component_name":"_ZTIN7android8hardware4wifi7offload4V1_019BnHwOffloadCallbackE"
    },
    {
     "mangled_component_name":"_ZN7android8hardware9BHwBinder8transactEjRKNS0_6ParcelEPS2_jNSt3__18functionIFvRS2_EEE"
    },
    {
     "mangled_component_name":"_ZN7android8hardware9BHwBinder11linkToDeathERKNS_2spINS0_7IBinder14DeathRecipientEEEPvj"
    },
    {
     "mangled_component_name":"_ZN7android8hardware9BHwBinder13unlinkToDeathERKNS_2wpINS0_7IBinder14DeathRecipientEEEPvjPS5_"
    },
    {
     "mangled_component_name":"_ZNK7android8hardware7IBinder13checkSubclassEPKv"
    },
    {
     "mangled_component_name":"_ZN7android8hardware9BHwBinder12attachObjectEPKvPvS4_PFvS3_S4_S4_E"
    },
    {
     "mangled_component_name":"_ZNK7android8hardware9BHwBinder10findObjectEPKv"
    },
    {
     "mangled_component_name":"_ZN7android8hardware9BHwBinder12detachObjectEPKv"
    },
    {
     "mangled_component_name":"_ZN7android8hardware9BHwBinder11localBinderEv"
    },
    {
     "mangled_component_name":"_ZN7android8hardware7IBinder12remoteBinderEv"
    },
    {
     "kind":"complete_dtor_pointer",
     "mangled_component_name":"_ZN7android8hardware4wifi7offload4V1_019BnHwOffloadCallbackD1Ev"
    },
    {
     "kind":"deleting_dtor_pointer",
     "mangled_component_name":"_ZN7android8hardware4wifi7offload4V1_019BnHwOffloadCallbackD0Ev"
    },
    {
     "mangled_component_name":"_ZN7android8hardware4wifi7offload4V1_019BnHwOffloadCallback10onTransactEjRKNS0_6ParcelEPS5_jNSt3__18functionIFvRS5_EEE"
    },
    {
     "kind":"offset_to_top",
     "component_value":-20
    },
    {
     "kind":"rtti",
     "mangled_component_name":"_ZTIN7android8hardware4wifi7offload4V1_019BnHwOffloadCallbackE"
    },
    {
     "kind":"complete_dtor_pointer",
     "mangled_component_name":"_ZThn20_N7android8hardware4wifi7offload4V1_019BnHwOffloadCallbackD1Ev"
    },
    {
     "kind":"deleting_dtor_pointer",
     "mangled_component_name":"_ZThn20_N7android8hardware4wifi7offload4V1_019BnHwOffloadCallbackD0Ev"
    },
    {
     "kind":"vcall_offset"
    },
    {
     "kind":"vcall_offset"
    },
    {
     "kind":"vcall_offset"
    },
    {
     "kind":"vcall_offset"
    },
    {
     "kind":"vcall_offset",
     "component_value":-72
    },
    {
     "kind":"offset_to_top",
     "component_value":-72
    },
    {
     "kind":"rtti",
     "mangled_component_name":"_ZTIN7android8hardware4wifi7offload4V1_019BnHwOffloadCallbackE"
    },
    {
     "kind":"complete_dtor_pointer",
     "mangled_component_name":"_ZTv0_n12_N7android8hardware4wifi7offload4V1_019BnHwOffloadCallbackD1Ev"
    },
    {
     "kind":"deleting_dtor_pointer",
     "mangled_component_name":"_ZTv0_n12_N7android8hardware4wifi7offload4V1_019BnHwOffloadCallbackD0Ev"
    },
    {
     "mangled_component_name":"_ZN7android7RefBase10onFirstRefEv"
    },
    {
     "mangled_component_name":"_ZN7android7RefBase15onLastStrongRefEPKv"
    },
    {
     "mangled_component_name":"_ZN7android7RefBase20onIncStrongAttemptedEjPKv"
    },
    {
     "mangled_component_name":"_ZN7android7RefBase13onLastWeakRefEPKv"
    }
   ],
   "unique_id":"_ZTSN7android8hardware4wifi7offload4V1_019BnHwOffloadCallbackE"
  },
  {
   "vtable_components":[
    {
     "kind":"vbase_offset",
     "component_value":60
    },
    {
     "kind":"offset_to_top"
    },
    {
     "kind":"rtti",
     "mangled_component_name":"_ZTIN7android8hardware4wifi7offload4V1_017BsOffloadCallbackE"
    },
    {
     "mangled_component_name":"_ZNK7android8hardware4wifi7offload4V1_016IOffloadCallback8isRemoteEv"
    },
    {
     "mangled_component_name":"_ZN7android8hardware4wifi7offload4V1_017BsOffloadCallback14interfaceChainENSt3__18functionIFvRKNS0_8hidl_vecINS0_11hidl_stringEEEEEE"
    },
    {
     "mangled_component_name":"_ZN7android8hardware4wifi7offload4V1_017BsOffloadCallback5debugERKNS0_11hidl_handleERKNS0_8hidl_vecINS0_11hidl_stringEEE"
    },
    {
     "mangled_component_name":"_ZN7android8hardware4wifi7offload4V1_017BsOffloadCallback19interfaceDescriptorENSt3__18functionIFvRKNS0_11hidl_stringEEEE"
    },
    {
     "mangled_component_name":"_ZN7android8hardware4wifi7offload4V1_017BsOffloadCallback12getHashChainENSt3__18functionIFvRKNS0_8hidl_vecINS0_10hidl_arrayIhLj32EJEEEEEEEE"
    },
    {
     "mangled_component_name":"_ZN7android8hardware4wifi7offload4V1_017BsOffloadCallback21setHALInstrumentationEv"
    },
    {
     "mangled_component_name":"_ZN7android8hardware4wifi7offload4V1_017BsOffloadCallback11linkToDeathERKNS_2spINS0_20hidl_death_recipientEEEy"
    },
    {
     "mangled_component_name":"_ZN7android8hardware4wifi7offload4V1_017BsOffloadCallback4pingEv"
    },
    {
     "mangled_component_name":"_ZN7android8hardware4wifi7offload4V1_017BsOffloadCallback12getDebugInfoENSt3__18functionIFvRKNS_4hidl4base4V1_09DebugInfoEEEE"
    },
    {
     "mangled_component_name":"_ZN7android8hardware4wifi7offload4V1_017BsOffloadCallback21notifySyspropsChangedEv"
    },
    {
     "mangled_component_name":"_ZN7android8hardware4wifi7offload4V1_017BsOffloadCallback13unlinkToDeathERKNS_2spINS0_20hidl_death_recipientEEE"
    },
    {
     "kind":"complete_dtor_pointer",
     "mangled_component_name":"_ZN7android8hardware4wifi7offload4V1_017BsOffloadCallbackD1Ev"
    },
    {
     "kind":"deleting_dtor_pointer",
     "mangled_component_name":"_ZN7android8hardware4wifi7offload4V1_017BsOffloadCallbackD0Ev"
    },
    {
     "mangled_component_name":"_ZN7android8hardware4wifi7offload4V1_017BsOffloadCallback12onScanResultERKNS0_8hidl_vecINS3_10ScanResultEEE"
    },
    {
     "mangled_component_name":"_ZN7android8hardware4wifi7offload4V1_017BsOffloadCallback7onErrorERKNS3_13OffloadStatusE"
    },
    {
     "kind":"offset_to_top",
     "component_value":-4
    },
    {
     "kind":"rtti",
     "mangled_component_name":"_ZTIN7android8hardware4wifi7offload4V1_017BsOffloadCallbackE"
    },
    {
     "kind":"complete_dtor_pointer",
     "mangled_component_name":"_ZThn4_N7android8hardware4wifi7offload4V1_017BsOffloadCallbackD1Ev"
    },
    {
     "kind":"deleting_dtor_pointer",
     "mangled_component_name":"_ZThn4_N7android8hardware4wifi7offload4V1_017BsOffloadCallbackD0Ev"
    },
    {
     "kind":"vcall_offset"
    },
    {
     "kind":"vcall_offset"
    },
    {
     "kind":"vcall_offset"
    },
    {
     "kind":"vcall_offset"
    },
    {
     "kind":"vcall_offset",
     "component_value":-60
    },
    {
     "kind":"offset_to_top",
     "component_value":-60
    },
    {
     "kind":"rtti",
     "mangled_component_name":"_ZTIN7android8hardware4wifi7offload4V1_017BsOffloadCallbackE"
    },
    {
     "kind":"complete_dtor_pointer",
     "mangled_component_name":"_ZTv0_n12_N7android8hardware4wifi7offload4V1_017BsOffloadCallbackD1Ev"
    },
    {
     "kind":"deleting_dtor_pointer",
     "mangled_component_name":"_ZTv0_n12_N7android8hardware4wifi7offload4V1_017BsOffloadCallbackD0Ev"
    },
    {
     "mangled_component_name":"_ZN7android7RefBase10onFirstRefEv"
    },
    {
     "mangled_component_name":"_ZN7android7RefBase15onLastStrongRefEPKv"
    },
    {
     "mangled_component_name":"_ZN7android7RefBase20onIncStrongAttemptedEjPKv"
    },
    {
     "mangled_component_name":"_ZN7android7RefBase13onLastWeakRefEPKv"
    }
   ],
   "unique_id":"_ZTSN7android8hardware4wifi7offload4V1_017BsOffloadCallbackE"
  },
  {
   "vtable_components":[
    {
     "kind":"vbase_offset",
     "component_value":72
    },
    {
     "kind":"offset_to_top"
    },
    {
     "kind":"rtti",
     "mangled_component_name":"_ZTIN7android8hardware4wifi7offload4V1_011BnHwOffloadE"
    },
    {
     "mangled_component_name":"_ZN7android8hardware9BHwBinder8transactEjRKNS0_6ParcelEPS2_jNSt3__18functionIFvRS2_EEE"
    },
    {
     "mangled_component_name":"_ZN7android8hardware9BHwBinder11linkToDeathERKNS_2spINS0_7IBinder14DeathRecipientEEEPvj"
    },
    {
     "mangled_component_name":"_ZN7android8hardware9BHwBinder13unlinkToDeathERKNS_2wpINS0_7IBinder14DeathRecipientEEEPvjPS5_"
    },
    {
     "mangled_component_name":"_ZNK7android8hardware7IBinder13checkSubclassEPKv"
    },
    {
     "mangled_component_name":"_ZN7android8hardware9BHwBinder12attachObjectEPKvPvS4_PFvS3_S4_S4_E"
    },
    {
     "mangled_component_name":"_ZNK7android8hardware9BHwBinder10findObjectEPKv"
    },
    {
     "mangled_component_name":"_ZN7android8hardware9BHwBinder12detachObjectEPKv"
    },
    {
     "mangled_component_name":"_ZN7android8hardware9BHwBinder11localBinderEv"
    },
    {
     "mangled_component_name":"_ZN7android8hardware7IBinder12remoteBinderEv"
    },
    {
     "kind":"complete_dtor_pointer",
     "mangled_component_name":"_ZN7android8hardware4wifi7offload4V1_011BnHwOffloadD1Ev"
    },
    {
     "kind":"deleting_dtor_pointer",
     "mangled_component_name":"_ZN7android8hardware4wifi7offload4V1_011BnHwOffloadD0Ev"
    },
    {
     "mangled_component_name":"_ZN7android8hardware4wifi7offload4V1_011BnHwOffload10onTransactEjRKNS0_6ParcelEPS5_jNSt3__18functionIFvRS5_EEE"
    },
    {
     "kind":"offset_to_top",
     "component_value":-20
    },
    {
     "kind":"rtti",
     "mangled_component_name":"_ZTIN7android8hardware4wifi7offload4V1_011BnHwOffloadE"
    },
    {
     "kind":"complete_dtor_pointer",
     "mangled_component_name":"_ZThn20_N7android8hardware4wifi7offload4V1_011BnHwOffloadD1Ev"
    },
    {
     "kind":"deleting_dtor_pointer",
     "mangled_component_name":"_ZThn20_N7android8hardware4wifi7offload4V1_011BnHwOffloadD0Ev"
    },
    {
     "kind":"vcall_offset"
    },
    {
     "kind":"vcall_offset"
    },
    {
     "kind":"vcall_offset"
    },
    {
     "kind":"vcall_offset"
    },
    {
     "kind":"vcall_offset",
     "component_value":-72
    },
    {
     "kind":"offset_to_top",
     "component_value":-72
    },
    {
     "kind":"rtti",
     "mangled_component_name":"_ZTIN7android8hardware4wifi7offload4V1_011BnHwOffloadE"
    },
    {
     "kind":"complete_dtor_pointer",
     "mangled_component_name":"_ZTv0_n12_N7android8hardware4wifi7offload4V1_011BnHwOffloadD1Ev"
    },
    {
     "kind":"deleting_dtor_pointer",
     "mangled_component_name":"_ZTv0_n12_N7android8hardware4wifi7offload4V1_011BnHwOffloadD0Ev"
    },
    {
     "mangled_component_name":"_ZN7android7RefBase10onFirstRefEv"
    },
    {
     "mangled_component_name":"_ZN7android7RefBase15onLastStrongRefEPKv"
    },
    {
     "mangled_component_name":"_ZN7android7RefBase20onIncStrongAttemptedEjPKv"
    },
    {
     "mangled_component_name":"_ZN7android7RefBase13onLastWeakRefEPKv"
    }
   ],
   "unique_id":"_ZTSN7android8hardware4wifi7offload4V1_011BnHwOffloadE"
  }
 ],
 "elf_functions":[
  {
   "binding":"weak",
   "name":"_ZN7android8hardware10fromBinderINS0_4wifi7offload4V1_016IOffloadCallbackENS4_19BpHwOffloadCallbackENS4_19BnHwOffloadCallbackEEENS_2spIT_EERKNS8_INS0_7IBinderEEE"
  },
  {
   "name":"_ZN7android8hardware4wifi7offload4V1_011BnHwOffload10onTransactEjRKNS0_6ParcelEPS5_jNSt3__18functionIFvRS5_EEE"
  },
  {
   "name":"_ZN7android8hardware4wifi7offload4V1_011BnHwOffload12getDebugInfoENSt3__18functionIFvRKNS_4hidl4base4V1_09DebugInfoEEEE"
  },
  {
   "name":"_ZN7android8hardware4wifi7offload4V1_011BnHwOffload18_hidl_getScanStatsEPNS_4hidl4base4V1_08BnHwBaseERKNS0_6ParcelEPSA_NSt3__18functionIFvRSA_EEE"
  },
  {
   "name":"_ZN7android8hardware4wifi7offload4V1_011BnHwOffload20_hidl_configureScansEPNS_4hidl4base4V1_08BnHwBaseERKNS0_6ParcelEPSA_NSt3__18functionIFvRSA_EEE"
  },
  {
   "name":"_ZN7android8hardware4wifi7offload4V1_011BnHwOffload22_hidl_setEventCallbackEPNS_4hidl4base4V1_08BnHwBaseERKNS0_6ParcelEPSA_NSt3__18functionIFvRSA_EEE"
  },
  {
   "name":"_ZN7android8hardware4wifi7offload4V1_011BnHwOffload26_hidl_subscribeScanResultsEPNS_4hidl4base4V1_08BnHwBaseERKNS0_6ParcelEPSA_NSt3__18functionIFvRSA_EEE"
  },
  {
   "name":"_ZN7android8hardware4wifi7offload4V1_011BnHwOffload28_hidl_unsubscribeScanResultsEPNS_4hidl4base4V1_08BnHwBaseERKNS0_6ParcelEPSA_NSt3__18functionIFvRSA_EEE"
  },
  {
   "name":"_ZN7android8hardware4wifi7offload4V1_011BnHwOffload4pingEv"
  },
  {
   "name":"_ZN7android8hardware4wifi7offload4V1_011BnHwOffloadC1ERKNS_2spINS3_8IOffloadEEE"
  },
  {
   "name":"_ZN7android8hardware4wifi7offload4V1_011BnHwOffloadC2ERKNS_2spINS3_8IOffloadEEE"
  },
  {
   "name":"_ZN7android8hardware4wifi7offload4V1_011BnHwOffloadD0Ev"
  },
  {
   "name":"_ZN7android8hardware4wifi7offload4V1_011BnHwOffloadD1Ev"
  },
  {
   "name":"_ZN7android8hardware4wifi7offload4V1_011BnHwOffloadD2Ev"
  },
  {
   "name":"_ZN7android8hardware4wifi7offload4V1_011BpHwOffload11linkToDeathERKNS_2spINS0_20hidl_death_recipientEEEy"
  },
  {
   "name":"_ZN7android8hardware4wifi7offload4V1_011BpHwOffload12getDebugInfoENSt3__18functionIFvRKNS_4hidl4base4V1_09DebugInfoEEEE"
  },
  {
   "name":"_ZN7android8hardware4wifi7offload4V1_011BpHwOffload12getHashChainENSt3__18functionIFvRKNS0_8hidl_vecINS0_10hidl_arrayIhLj32EJEEEEEEEE"
  },
  {
   "name":"_ZN7android8hardware4wifi7offload4V1_011BpHwOffload12getScanStatsENSt3__18functionIFvRKNS3_13OffloadStatusERKNS3_9ScanStatsEEEE"
  },
  {
   "name":"_ZN7android8hardware4wifi7offload4V1_011BpHwOffload13unlinkToDeathERKNS_2spINS0_20hidl_death_recipientEEE"
  },
  {
   "name":"_ZN7android8hardware4wifi7offload4V1_011BpHwOffload14configureScansERKNS3_9ScanParamERKNS3_10ScanFilterENSt3__18functionIFvRKNS3_13OffloadStatusEEEE"
  },
  {
   "name":"_ZN7android8hardware4wifi7offload4V1_011BpHwOffload14interfaceChainENSt3__18functionIFvRKNS0_8hidl_vecINS0_11hidl_stringEEEEEE"
  },
  {
   "name":"_ZN7android8hardware4wifi7offload4V1_011BpHwOffload16setEventCallbackERKNS_2spINS3_16IOffloadCallbackEEE"
  },
  {
   "name":"_ZN7android8hardware4wifi7offload4V1_011BpHwOffload18_hidl_getScanStatsEPNS0_10IInterfaceEPNS0_7details16HidlInstrumentorENSt3__18functionIFvRKNS3_13OffloadStatusERKNS3_9ScanStatsEEEE"
  },
  {
   "name":"_ZN7android8hardware4wifi7offload4V1_011BpHwOffload19interfaceDescriptorENSt3__18functionIFvRKNS0_11hidl_stringEEEE"
  },
  {
   "name":"_ZN7android8hardware4wifi7offload4V1_011BpHwOffload20_hidl_configureScansEPNS0_10IInterfaceEPNS0_7details16HidlInstrumentorERKNS3_9ScanParamERKNS3_10ScanFilterENSt3__18functionIFvRKNS3_13OffloadStatusEEEE"
  },
  {
   "name":"_ZN7android8hardware4wifi7offload4V1_011BpHwOffload20subscribeScanResultsEjNSt3__18functionIFvRKNS3_13OffloadStatusEEEE"
  },
  {
   "name":"_ZN7android8hardware4wifi7offload4V1_011BpHwOffload21notifySyspropsChangedEv"
  },
  {
   "name":"_ZN7android8hardware4wifi7offload4V1_011BpHwOffload21setHALInstrumentationEv"
  },
  {
   "name":"_ZN7android8hardware4wifi7offload4V1_011BpHwOffload22_hidl_setEventCallbackEPNS0_10IInterfaceEPNS0_7details16HidlInstrumentorERKNS_2spINS3_16IOffloadCallbackEEE"
  },
  {
   "name":"_ZN7android8hardware4wifi7offload4V1_011BpHwOffload22unsubscribeScanResultsEv"
  },
  {
   "name":"_ZN7android8hardware4wifi7offload4V1_011BpHwOffload26_hidl_subscribeScanResultsEPNS0_10IInterfaceEPNS0_7details16HidlInstrumentorEjNSt3__18functionIFvRKNS3_13OffloadStatusEEEE"
  },
  {
   "name":"_ZN7android8hardware4wifi7offload4V1_011BpHwOffload28_hidl_unsubscribeScanResultsEPNS0_10IInterfaceEPNS0_7details16HidlInstrumentorE"
  },
  {
   "name":"_ZN7android8hardware4wifi7offload4V1_011BpHwOffload4pingEv"
  },
  {
   "name":"_ZN7android8hardware4wifi7offload4V1_011BpHwOffload5debugERKNS0_11hidl_handleERKNS0_8hidl_vecINS0_11hidl_stringEEE"
  },
  {
   "name":"_ZN7android8hardware4wifi7offload4V1_011BpHwOffloadC1ERKNS_2spINS0_7IBinderEEE"
  },
  {
   "name":"_ZN7android8hardware4wifi7offload4V1_011BpHwOffloadC2ERKNS_2spINS0_7IBinderEEE"
  },
  {
   "name":"_ZN7android8hardware4wifi7offload4V1_016IOffloadCallback10getServiceERKNSt3__112basic_stringIcNS5_11char_traitsIcEENS5_9allocatorIcEEEEb"
  },
  {
   "name":"_ZN7android8hardware4wifi7offload4V1_016IOffloadCallback11linkToDeathERKNS_2spINS0_20hidl_death_recipientEEEy"
  },
  {
   "name":"_ZN7android8hardware4wifi7offload4V1_016IOffloadCallback12getDebugInfoENSt3__18functionIFvRKNS_4hidl4base4V1_09DebugInfoEEEE"
  },
  {
   "name":"_ZN7android8hardware4wifi7offload4V1_016IOffloadCallback12getHashChainENSt3__18functionIFvRKNS0_8hidl_vecINS0_10hidl_arrayIhLj32EJEEEEEEEE"
  },
  {
   "name":"_ZN7android8hardware4wifi7offload4V1_016IOffloadCallback13tryGetServiceERKNSt3__112basic_stringIcNS5_11char_traitsIcEENS5_9allocatorIcEEEEb"
  },
  {
   "name":"_ZN7android8hardware4wifi7offload4V1_016IOffloadCallback13unlinkToDeathERKNS_2spINS0_20hidl_death_recipientEEE"
  },
  {
   "name":"_ZN7android8hardware4wifi7offload4V1_016IOffloadCallback14interfaceChainENSt3__18functionIFvRKNS0_8hidl_vecINS0_11hidl_stringEEEEEE"
  },
  {
   "name":"_ZN7android8hardware4wifi7offload4V1_016IOffloadCallback17registerAsServiceERKNSt3__112basic_stringIcNS5_11char_traitsIcEENS5_9allocatorIcEEEE"
  },
  {
   "name":"_ZN7android8hardware4wifi7offload4V1_016IOffloadCallback19interfaceDescriptorENSt3__18functionIFvRKNS0_11hidl_stringEEEE"
  },
  {
   "name":"_ZN7android8hardware4wifi7offload4V1_016IOffloadCallback21notifySyspropsChangedEv"
  },
  {
   "name":"_ZN7android8hardware4wifi7offload4V1_016IOffloadCallback21setHALInstrumentationEv"
  },
  {
   "name":"_ZN7android8hardware4wifi7offload4V1_016IOffloadCallback24registerForNotificationsERKNSt3__112basic_stringIcNS5_11char_traitsIcEENS5_9allocatorIcEEEERKNS_2spINS_4hidl7manager4V1_020IServiceNotificationEEE"
  },
  {
   "name":"_ZN7android8hardware4wifi7offload4V1_016IOffloadCallback4pingEv"
  },
  {
   "name":"_ZN7android8hardware4wifi7offload4V1_016IOffloadCallback5debugERKNS0_11hidl_handleERKNS0_8hidl_vecINS0_11hidl_stringEEE"
  },
  {
   "name":"_ZN7android8hardware4wifi7offload4V1_016IOffloadCallback8castFromERKNS_2spINS_4hidl4base4V1_05IBaseEEEb"
  },
  {
   "name":"_ZN7android8hardware4wifi7offload4V1_016IOffloadCallback8castFromERKNS_2spIS4_EEb"
  },
  {
   "name":"_ZN7android8hardware4wifi7offload4V1_017BsOffloadCallback13addOnewayTaskENSt3__18functionIFvvEEE"
  },
  {
   "name":"_ZN7android8hardware4wifi7offload4V1_017BsOffloadCallbackC1ENS_2spINS3_16IOffloadCallbackEEE"
  },
  {
   "name":"_ZN7android8hardware4wifi7offload4V1_017BsOffloadCallbackC2ENS_2spINS3_16IOffloadCallbackEEE"
  },
  {
   "name":"_ZN7android8hardware4wifi7offload4V1_019BnHwOffloadCallback10onTransactEjRKNS0_6ParcelEPS5_jNSt3__18functionIFvRS5_EEE"
  },
  {
   "name":"_ZN7android8hardware4wifi7offload4V1_019BnHwOffloadCallback12getDebugInfoENSt3__18functionIFvRKNS_4hidl4base4V1_09DebugInfoEEEE"
  },
  {
   "name":"_ZN7android8hardware4wifi7offload4V1_019BnHwOffloadCallback13_hidl_onErrorEPNS_4hidl4base4V1_08BnHwBaseERKNS0_6ParcelEPSA_NSt3__18functionIFvRSA_EEE"
  },
  {
   "name":"_ZN7android8hardware4wifi7offload4V1_019BnHwOffloadCallback18_hidl_onScanResultEPNS_4hidl4base4V1_08BnHwBaseERKNS0_6ParcelEPSA_NSt3__18functionIFvRSA_EEE"
  },
  {
   "name":"_ZN7android8hardware4wifi7offload4V1_019BnHwOffloadCallback4pingEv"
  },
  {
   "name":"_ZN7android8hardware4wifi7offload4V1_019BnHwOffloadCallbackC1ERKNS_2spINS3_16IOffloadCallbackEEE"
  },
  {
   "name":"_ZN7android8hardware4wifi7offload4V1_019BnHwOffloadCallbackC2ERKNS_2spINS3_16IOffloadCallbackEEE"
  },
  {
   "name":"_ZN7android8hardware4wifi7offload4V1_019BnHwOffloadCallbackD0Ev"
  },
  {
   "name":"_ZN7android8hardware4wifi7offload4V1_019BnHwOffloadCallbackD1Ev"
  },
  {
   "name":"_ZN7android8hardware4wifi7offload4V1_019BnHwOffloadCallbackD2Ev"
  },
  {
   "name":"_ZN7android8hardware4wifi7offload4V1_019BpHwOffloadCallback11linkToDeathERKNS_2spINS0_20hidl_death_recipientEEEy"
  },
  {
   "name":"_ZN7android8hardware4wifi7offload4V1_019BpHwOffloadCallback12getDebugInfoENSt3__18functionIFvRKNS_4hidl4base4V1_09DebugInfoEEEE"
  },
  {
   "name":"_ZN7android8hardware4wifi7offload4V1_019BpHwOffloadCallback12getHashChainENSt3__18functionIFvRKNS0_8hidl_vecINS0_10hidl_arrayIhLj32EJEEEEEEEE"
  },
  {
   "name":"_ZN7android8hardware4wifi7offload4V1_019BpHwOffloadCallback12onScanResultERKNS0_8hidl_vecINS3_10ScanResultEEE"
  },
  {
   "name":"_ZN7android8hardware4wifi7offload4V1_019BpHwOffloadCallback13_hidl_onErrorEPNS0_10IInterfaceEPNS0_7details16HidlInstrumentorERKNS3_13OffloadStatusE"
  },
  {
   "name":"_ZN7android8hardware4wifi7offload4V1_019BpHwOffloadCallback13unlinkToDeathERKNS_2spINS0_20hidl_death_recipientEEE"
  },
  {
   "name":"_ZN7android8hardware4wifi7offload4V1_019BpHwOffloadCallback14interfaceChainENSt3__18functionIFvRKNS0_8hidl_vecINS0_11hidl_stringEEEEEE"
  },
  {
   "name":"_ZN7android8hardware4wifi7offload4V1_019BpHwOffloadCallback18_hidl_onScanResultEPNS0_10IInterfaceEPNS0_7details16HidlInstrumentorERKNS0_8hidl_vecINS3_10ScanResultEEE"
  },
  {
   "name":"_ZN7android8hardware4wifi7offload4V1_019BpHwOffloadCallback19interfaceDescriptorENSt3__18functionIFvRKNS0_11hidl_stringEEEE"
  },
  {
   "name":"_ZN7android8hardware4wifi7offload4V1_019BpHwOffloadCallback21notifySyspropsChangedEv"
  },
  {
   "name":"_ZN7android8hardware4wifi7offload4V1_019BpHwOffloadCallback21setHALInstrumentationEv"
  },
  {
   "name":"_ZN7android8hardware4wifi7offload4V1_019BpHwOffloadCallback4pingEv"
  },
  {
   "name":"_ZN7android8hardware4wifi7offload4V1_019BpHwOffloadCallback5debugERKNS0_11hidl_handleERKNS0_8hidl_vecINS0_11hidl_stringEEE"
  },
  {
   "name":"_ZN7android8hardware4wifi7offload4V1_019BpHwOffloadCallback7onErrorERKNS3_13OffloadStatusE"
  },
  {
   "name":"_ZN7android8hardware4wifi7offload4V1_019BpHwOffloadCallbackC1ERKNS_2spINS0_7IBinderEEE"
  },
  {
   "name":"_ZN7android8hardware4wifi7offload4V1_019BpHwOffloadCallbackC2ERKNS_2spINS0_7IBinderEEE"
  },
  {
   "name":"_ZN7android8hardware4wifi7offload4V1_021writeEmbeddedToParcelERKNS3_10ScanFilterEPNS0_6ParcelEjj"
  },
  {
   "name":"_ZN7android8hardware4wifi7offload4V1_021writeEmbeddedToParcelERKNS3_10ScanResultEPNS0_6ParcelEjj"
  },
  {
   "name":"_ZN7android8hardware4wifi7offload4V1_021writeEmbeddedToParcelERKNS3_11NetworkInfoEPNS0_6ParcelEjj"
  },
  {
   "name":"_ZN7android8hardware4wifi7offload4V1_021writeEmbeddedToParcelERKNS3_13OffloadStatusEPNS0_6ParcelEjj"
  },
  {
   "name":"_ZN7android8hardware4wifi7offload4V1_021writeEmbeddedToParcelERKNS3_9ScanParamEPNS0_6ParcelEjj"
  },
  {
   "name":"_ZN7android8hardware4wifi7offload4V1_021writeEmbeddedToParcelERKNS3_9ScanStatsEPNS0_6ParcelEjj"
  },
  {
   "name":"_ZN7android8hardware4wifi7offload4V1_022readEmbeddedFromParcelERKNS3_10ScanFilterERKNS0_6ParcelEjj"
  },
  {
   "name":"_ZN7android8hardware4wifi7offload4V1_022readEmbeddedFromParcelERKNS3_10ScanResultERKNS0_6ParcelEjj"
  },
  {
   "name":"_ZN7android8hardware4wifi7offload4V1_022readEmbeddedFromParcelERKNS3_11NetworkInfoERKNS0_6ParcelEjj"
  },
  {
   "name":"_ZN7android8hardware4wifi7offload4V1_022readEmbeddedFromParcelERKNS3_13OffloadStatusERKNS0_6ParcelEjj"
  },
  {
   "name":"_ZN7android8hardware4wifi7offload4V1_022readEmbeddedFromParcelERKNS3_9ScanParamERKNS0_6ParcelEjj"
  },
  {
   "name":"_ZN7android8hardware4wifi7offload4V1_022readEmbeddedFromParcelERKNS3_9ScanStatsERKNS0_6ParcelEjj"
  },
  {
   "name":"_ZN7android8hardware4wifi7offload4V1_08IOffload10getServiceERKNSt3__112basic_stringIcNS5_11char_traitsIcEENS5_9allocatorIcEEEEb"
  },
  {
   "name":"_ZN7android8hardware4wifi7offload4V1_08IOffload11linkToDeathERKNS_2spINS0_20hidl_death_recipientEEEy"
  },
  {
   "name":"_ZN7android8hardware4wifi7offload4V1_08IOffload12getDebugInfoENSt3__18functionIFvRKNS_4hidl4base4V1_09DebugInfoEEEE"
  },
  {
   "name":"_ZN7android8hardware4wifi7offload4V1_08IOffload12getHashChainENSt3__18functionIFvRKNS0_8hidl_vecINS0_10hidl_arrayIhLj32EJEEEEEEEE"
  },
  {
   "name":"_ZN7android8hardware4wifi7offload4V1_08IOffload13tryGetServiceERKNSt3__112basic_stringIcNS5_11char_traitsIcEENS5_9allocatorIcEEEEb"
  },
  {
   "name":"_ZN7android8hardware4wifi7offload4V1_08IOffload13unlinkToDeathERKNS_2spINS0_20hidl_death_recipientEEE"
  },
  {
   "name":"_ZN7android8hardware4wifi7offload4V1_08IOffload14interfaceChainENSt3__18functionIFvRKNS0_8hidl_vecINS0_11hidl_stringEEEEEE"
  },
  {
   "name":"_ZN7android8hardware4wifi7offload4V1_08IOffload17registerAsServiceERKNSt3__112basic_stringIcNS5_11char_traitsIcEENS5_9allocatorIcEEEE"
  },
  {
   "name":"_ZN7android8hardware4wifi7offload4V1_08IOffload19interfaceDescriptorENSt3__18functionIFvRKNS0_11hidl_stringEEEE"
  },
  {
   "name":"_ZN7android8hardware4wifi7offload4V1_08IOffload21notifySyspropsChangedEv"
  },
  {
   "name":"_ZN7android8hardware4wifi7offload4V1_08IOffload21setHALInstrumentationEv"
  },
  {
   "name":"_ZN7android8hardware4wifi7offload4V1_08IOffload24registerForNotificationsERKNSt3__112basic_stringIcNS5_11char_traitsIcEENS5_9allocatorIcEEEERKNS_2spINS_4hidl7manager4V1_020IServiceNotificationEEE"
  },
  {
   "name":"_ZN7android8hardware4wifi7offload4V1_08IOffload4pingEv"
  },
  {
   "name":"_ZN7android8hardware4wifi7offload4V1_08IOffload5debugERKNS0_11hidl_handleERKNS0_8hidl_vecINS0_11hidl_stringEEE"
  },
  {
   "name":"_ZN7android8hardware4wifi7offload4V1_08IOffload8castFromERKNS_2spINS_4hidl4base4V1_05IBaseEEEb"
  },
  {
   "name":"_ZN7android8hardware4wifi7offload4V1_08IOffload8castFromERKNS_2spIS4_EEb"
  },
  {
   "name":"_ZN7android8hardware4wifi7offload4V1_09BsOffload13addOnewayTaskENSt3__18functionIFvvEEE"
  },
  {
   "name":"_ZN7android8hardware4wifi7offload4V1_09BsOffloadC1ENS_2spINS3_8IOffloadEEE"
  },
  {
   "name":"_ZN7android8hardware4wifi7offload4V1_09BsOffloadC2ENS_2spINS3_8IOffloadEEE"
  },
  {
   "binding":"weak",
   "name":"_ZN7android8hardware7details13castInterfaceINS0_4wifi7offload4V1_016IOffloadCallbackENS_4hidl4base4V1_05IBaseENS5_19BpHwOffloadCallbackEEENS0_6ReturnINS_2spIT_EEEENSD_IT0_EEPKcb"
  },
  {
   "binding":"weak",
   "name":"_ZN7android8hardware7details13castInterfaceINS0_4wifi7offload4V1_08IOffloadENS_4hidl4base4V1_05IBaseENS5_11BpHwOffloadEEENS0_6ReturnINS_2spIT_EEEENSD_IT0_EEPKcb"
  },
  {
   "binding":"weak",
   "name":"_ZN7android8hardware7details15wrapPassthroughINS0_4wifi7offload4V1_016IOffloadCallbackEvEENS_2spIT_EES9_"
  },
  {
   "binding":"weak",
   "name":"_ZN7android8hardware7details18getServiceInternalINS0_4wifi7offload4V1_011BpHwOffloadENS5_8IOffloadEvvEENS_2spIT0_EERKNSt3__112basic_stringIcNSB_11char_traitsIcEENSB_9allocatorIcEEEEbb"
  },
  {
   "binding":"weak",
   "name":"_ZN7android8hardware7details18getServiceInternalINS0_4wifi7offload4V1_019BpHwOffloadCallbackENS5_16IOffloadCallbackEvvEENS_2spIT0_EERKNSt3__112basic_stringIcNSB_11char_traitsIcEENSB_9allocatorIcEEEEbb"
  },
  {
   "binding":"weak",
   "name":"_ZN7android8hardware8toBinderINS0_4wifi7offload4V1_016IOffloadCallbackEvEENS_2spINS0_7IBinderEEENS6_IT_EE"
  },
  {
   "binding":"weak",
   "name":"_ZN7android8hardware8toBinderINS_4hidl4base4V1_05IBaseEvEENS_2spINS0_7IBinderEEENS6_IT_EE"
  },
  {
   "name":"_ZThn20_N7android8hardware4wifi7offload4V1_011BnHwOffloadD0Ev"
  },
  {
   "name":"_ZThn20_N7android8hardware4wifi7offload4V1_011BnHwOffloadD1Ev"
  },
  {
   "name":"_ZThn20_N7android8hardware4wifi7offload4V1_019BnHwOffloadCallbackD0Ev"
  },
  {
   "name":"_ZThn20_N7android8hardware4wifi7offload4V1_019BnHwOffloadCallbackD1Ev"
  },
  {
   "name":"_ZTv0_n12_N7android8hardware4wifi7offload4V1_011BnHwOffloadD0Ev"
  },
  {
   "name":"_ZTv0_n12_N7android8hardware4wifi7offload4V1_011BnHwOffloadD1Ev"
  },
  {
   "name":"_ZTv0_n12_N7android8hardware4wifi7offload4V1_019BnHwOffloadCallbackD0Ev"
  },
  {
   "name":"_ZTv0_n12_N7android8hardware4wifi7offload4V1_019BnHwOffloadCallbackD1Ev"
  }
 ],
 "elf_objects":[
  {
   "name":"_ZN7android8hardware4wifi7offload4V1_016IOffloadCallback10descriptorE"
  },
  {
   "name":"_ZN7android8hardware4wifi7offload4V1_08IOffload10descriptorE"
  },
  {
   "name":"_ZTTN7android8hardware4wifi7offload4V1_011BnHwOffloadE"
  },
  {
   "name":"_ZTTN7android8hardware4wifi7offload4V1_011BpHwOffloadE"
  },
  {
   "name":"_ZTTN7android8hardware4wifi7offload4V1_016IOffloadCallbackE"
  },
  {
   "name":"_ZTTN7android8hardware4wifi7offload4V1_019BnHwOffloadCallbackE"
  },
  {
   "name":"_ZTTN7android8hardware4wifi7offload4V1_019BpHwOffloadCallbackE"
  },
  {
   "name":"_ZTTN7android8hardware4wifi7offload4V1_08IOffloadE"
  },
  {
   "name":"_ZTVN7android8hardware4wifi7offload4V1_011BnHwOffloadE"
  },
  {
   "name":"_ZTVN7android8hardware4wifi7offload4V1_011BpHwOffloadE"
  },
  {
   "name":"_ZTVN7android8hardware4wifi7offload4V1_016IOffloadCallbackE"
  },
  {
   "binding":"weak",
   "name":"_ZTVN7android8hardware4wifi7offload4V1_017BsOffloadCallbackE"
  },
  {
   "name":"_ZTVN7android8hardware4wifi7offload4V1_019BnHwOffloadCallbackE"
  },
  {
   "name":"_ZTVN7android8hardware4wifi7offload4V1_019BpHwOffloadCallbackE"
  },
  {
   "name":"_ZTVN7android8hardware4wifi7offload4V1_08IOffloadE"
  },
  {
   "binding":"weak",
   "name":"_ZTVN7android8hardware4wifi7offload4V1_09BsOffloadE"
  }
 ]
}