{
 "record_types":[
  {
   "vtable_components":[
    {
     "kind":"vbase_offset",
     "component_value":60
    },
    {
     "kind":"offset_to_top"
    },
    {
     "kind":"rtti",
     "mangled_component_name":"_ZTIN7android8hardware5radio10deprecated4V1_017BsOemHookResponseE"
    },
    {
     "mangled_component_name":"_ZNK7android8hardware5radio10deprecated4V1_016IOemHookResponse8isRemoteEv"
    },
    {
     "mangled_component_name":"_ZN7android8hardware5radio10deprecated4V1_017BsOemHookResponse14interfaceChainENSt3__18functionIFvRKNS0_8hidl_vecINS0_11hidl_stringEEEEEE"
    },
    {
     "mangled_component_name":"_ZN7android8hardware5radio10deprecated4V1_017BsOemHookResponse5debugERKNS0_11hidl_handleERKNS0_8hidl_vecINS0_11hidl_stringEEE"
    },
    {
     "mangled_component_name":"_ZN7android8hardware5radio10deprecated4V1_017BsOemHookResponse19interfaceDescriptorENSt3__18functionIFvRKNS0_11hidl_stringEEEE"
    },
    {
     "mangled_component_name":"_ZN7android8hardware5radio10deprecated4V1_017BsOemHookResponse12getHashChainENSt3__18functionIFvRKNS0_8hidl_vecINS0_10hidl_arrayIhLj32EJEEEEEEEE"
    },
    {
     "mangled_component_name":"_ZN7android8hardware5radio10deprecated4V1_017BsOemHookResponse21setHALInstrumentationEv"
    },
    {
     "mangled_component_name":"_ZN7android8hardware5radio10deprecated4V1_017BsOemHookResponse11linkToDeathERKNS_2spINS0_20hidl_death_recipientEEEy"
    },
    {
     "mangled_component_name":"_ZN7android8hardware5radio10deprecated4V1_017BsOemHookResponse4pingEv"
    },
    {
     "mangled_component_name":"_ZN7android8hardware5radio10deprecated4V1_017BsOemHookResponse12getDebugInfoENSt3__18functionIFvRKNS_4hidl4base4V1_09DebugInfoEEEE"
    },
    {
     "mangled_component_name":"_ZN7android8hardware5radio10deprecated4V1_017BsOemHookResponse21notifySyspropsChangedEv"
    },
    {
     "mangled_component_name":"_ZN7android8hardware5radio10deprecated4V1_017BsOemHookResponse13unlinkToDeathERKNS_2spINS0_20hidl_death_recipientEEE"
    },
    {
     "kind":"complete_dtor_pointer",
     "mangled_component_name":"_ZN7android8hardware5radio10deprecated4V1_017BsOemHookResponseD1Ev"
    },
    {
     "kind":"deleting_dtor_pointer",
     "mangled_component_name":"_ZN7android8hardware5radio10deprecated4V1_017BsOemHookResponseD0Ev"
    },
    {
     "mangled_component_name":"_ZN7android8hardware5radio10deprecated4V1_017BsOemHookResponse22sendRequestRawResponseERKNS1_4V1_017RadioResponseInfoERKNS0_8hidl_vecIhEE"
    },
    {
     "mangled_component_name":"_ZN7android8hardware5radio10deprecated4V1_017BsOemHookResponse26sendRequestStringsResponseERKNS1_4V1_017RadioResponseInfoERKNS0_8hidl_vecINS0_11hidl_stringEEE"
    },
    {
     "kind":"offset_to_top",
     "component_value":-4
    },
    {
     "kind":"rtti",
     "mangled_component_name":"_ZTIN7android8hardware5radio10deprecated4V1_017BsOemHookResponseE"
    },
    {
     "kind":"complete_dtor_pointer",
     "mangled_component_name":"_ZThn4_N7android8hardware5radio10deprecated4V1_017BsOemHookResponseD1Ev"
    },
    {
     "kind":"deleting_dtor_pointer",
     "mangled_component_name":"_ZThn4_N7android8hardware5radio10deprecated4V1_017BsOemHookResponseD0Ev"
    },
    {
     "kind":"vcall_offset"
    },
    {
     "kind":"vcall_offset"
    },
    {
     "kind":"vcall_offset"
    },
    {
     "kind":"vcall_offset"
    },
    {
     "kind":"vcall_offset",
     "component_value":-60
    },
    {
     "kind":"offset_to_top",
     "component_value":-60
    },
    {
     "kind":"rtti",
     "mangled_component_name":"_ZTIN7android8hardware5radio10deprecated4V1_017BsOemHookResponseE"
    },
    {
     "kind":"complete_dtor_pointer",
     "mangled_component_name":"_ZTv0_n12_N7android8hardware5radio10deprecated4V1_017BsOemHookResponseD1Ev"
    },
    {
     "kind":"deleting_dtor_pointer",
     "mangled_component_name":"_ZTv0_n12_N7android8hardware5radio10deprecated4V1_017BsOemHookResponseD0Ev"
    },
    {
     "mangled_component_name":"_ZN7android7RefBase10onFirstRefEv"
    },
    {
     "mangled_component_name":"_ZN7android7RefBase15onLastStrongRefEPKv"
    },
    {
     "mangled_component_name":"_ZN7android7RefBase20onIncStrongAttemptedEjPKv"
    },
    {
     "mangled_component_name":"_ZN7android7RefBase13onLastWeakRefEPKv"
    }
   ],
   "unique_id":"_ZTSN7android8hardware5radio10deprecated4V1_017BsOemHookResponseE"
  },
  {
   "vtable_components":[
    {
     "kind":"vbase_offset",
     "component_value":72
    },
    {
     "kind":"offset_to_top"
    },
    {
     "kind":"rtti",
     "mangled_component_name":"_ZTIN7android8hardware5radio10deprecated4V1_021BnHwOemHookIndicationE"
    },
    {
     "mangled_component_name":"_ZN7android8hardware9BHwBinder8transactEjRKNS0_6ParcelEPS2_jNSt3__18functionIFvRS2_EEE"
    },
    {
     "mangled_component_name":"_ZN7android8hardware9BHwBinder11linkToDeathERKNS_2spINS0_7IBinder14DeathRecipientEEEPvj"
    },
    {
     "mangled_component_name":"_ZN7android8hardware9BHwBinder13unlinkToDeathERKNS_2wpINS0_7IBinder14DeathRecipientEEEPvjPS5_"
    },
    {
     "mangled_component_name":"_ZNK7android8hardware7IBinder13checkSubclassEPKv"
    },
    {
     "mangled_component_name":"_ZN7android8hardware9BHwBinder12attachObjectEPKvPvS4_PFvS3_S4_S4_E"
    },
    {
     "mangled_component_name":"_ZNK7android8hardware9BHwBinder10findObjectEPKv"
    },
    {
     "mangled_component_name":"_ZN7android8hardware9BHwBinder12detachObjectEPKv"
    },
    {
     "mangled_component_name":"_ZN7android8hardware9BHwBinder11localBinderEv"
    },
    {
     "mangled_component_name":"_ZN7android8hardware7IBinder12remoteBinderEv"
    },
    {
     "kind":"complete_dtor_pointer",
     "mangled_component_name":"_ZN7android8hardware5radio10deprecated4V1_021BnHwOemHookIndicationD1Ev"
    },
    {
     "kind":"deleting_dtor_pointer",
     "mangled_component_name":"_ZN7android8hardware5radio10deprecated4V1_021BnHwOemHookIndicationD0Ev"
    },
    {
     "mangled_component_name":"_ZN7android8hardware5radio10deprecated4V1_021BnHwOemHookIndication10onTransactEjRKNS0_6ParcelEPS5_jNSt3__18functionIFvRS5_EEE"
    },
    {
     "kind":"offset_to_top",
     "component_value":-20
    },
    {
     "kind":"rtti",
     "mangled_component_name":"_ZTIN7android8hardware5radio10deprecated4V1_021BnHwOemHookIndicationE"
    },
    {
     "kind":"complete_dtor_pointer",
     "mangled_component_name":"_ZThn20_N7android8hardware5radio10deprecated4V1_021BnHwOemHookIndicationD1Ev"
    },
    {
     "kind":"deleting_dtor_pointer",
     "mangled_component_name":"_ZThn20_N7android8hardware5radio10deprecated4V1_021BnHwOemHookIndicationD0Ev"
    },
    {
     "kind":"vcall_offset"
    },
    {
     "kind":"vcall_offset"
    },
    {
     "kind":"vcall_offset"
    },
    {
     "kind":"vcall_offset"
    },
    {
     "kind":"vcall_offset",
     "component_value":-72
    },
    {
     "kind":"offset_to_top",
     "component_value":-72
    },
    {
     "kind":"rtti",
     "mangled_component_name":"_ZTIN7android8hardware5radio10deprecated4V1_021BnHwOemHookIndicationE"
    },
    {
     "kind":"complete_dtor_pointer",
     "mangled_component_name":"_ZTv0_n12_N7android8hardware5radio10deprecated4V1_021BnHwOemHookIndicationD1Ev"
    },
    {
     "kind":"deleting_dtor_pointer",
     "mangled_component_name":"_ZTv0_n12_N7android8hardware5radio10deprecated4V1_021BnHwOemHookIndicationD0Ev"
    },
    {
     "mangled_component_name":"_ZN7android7RefBase10onFirstRefEv"
    },
    {
     "mangled_component_name":"_ZN7android7RefBase15onLastStrongRefEPKv"
    },
    {
     "mangled_component_name":"_ZN7android7RefBase20onIncStrongAttemptedEjPKv"
    },
    {
     "mangled_component_name":"_ZN7android7RefBase13onLastWeakRefEPKv"
    }
   ],
   "unique_id":"_ZTSN7android8hardware5radio10deprecated4V1_021BnHwOemHookIndicationE"
  },
  {
   "vtable_components":[
    {
     "kind":"vbase_offset",
     "component_value":72
    },
    {
     "kind":"offset_to_top"
    },
    {
     "kind":"rtti",
     "mangled_component_name":"_ZTIN7android8hardware5radio10deprecated4V1_019BnHwOemHookResponseE"
    },
    {
     "mangled_component_name":"_ZN7android8hardware9BHwBinder8transactEjRKNS0_6ParcelEPS2_jNSt3__18functionIFvRS2_EEE"
    },
    {
     "mangled_component_name":"_ZN7android8hardware9BHwBinder11linkToDeathERKNS_2spINS0_7IBinder14DeathRecipientEEEPvj"
    },
    {
     "mangled_component_name":"_ZN7android8hardware9BHwBinder13unlinkToDeathERKNS_2wpINS0_7IBinder14DeathRecipientEEEPvjPS5_"
    },
    {
     "mangled_component_name":"_ZNK7android8hardware7IBinder13checkSubclassEPKv"
    },
    {
     "mangled_component_name":"_ZN7android8hardware9BHwBinder12attachObjectEPKvPvS4_PFvS3_S4_S4_E"
    },
    {
     "mangled_component_name":"_ZNK7android8hardware9BHwBinder10findObjectEPKv"
    },
    {
     "mangled_component_name":"_ZN7android8hardware9BHwBinder12detachObjectEPKv"
    },
    {
     "mangled_component_name":"_ZN7android8hardware9BHwBinder11localBinderEv"
    },
    {
     "mangled_component_name":"_ZN7android8hardware7IBinder12remoteBinderEv"
    },
    {
     "kind":"complete_dtor_pointer",
     "mangled_component_name":"_ZN7android8hardware5radio10deprecated4V1_019BnHwOemHookResponseD1Ev"
    },
    {
     "kind":"deleting_dtor_pointer",
     "mangled_component_name":"_ZN7android8hardware5radio10deprecated4V1_019BnHwOemHookResponseD0Ev"
    },
    {
     "mangled_component_name":"_ZN7android8hardware5radio10deprecated4V1_019BnHwOemHookResponse10onTransactEjRKNS0_6ParcelEPS5_jNSt3__18functionIFvRS5_EEE"
    },
    {
     "kind":"offset_to_top",
     "component_value":-20
    },
    {
     "kind":"rtti",
     "mangled_component_name":"_ZTIN7android8hardware5radio10deprecated4V1_019BnHwOemHookResponseE"
    },
    {
     "kind":"complete_dtor_pointer",
     "mangled_component_name":"_ZThn20_N7android8hardware5radio10deprecated4V1_019BnHwOemHookResponseD1Ev"
    },
    {
     "kind":"deleting_dtor_pointer",
     "mangled_component_name":"_ZThn20_N7android8hardware5radio10deprecated4V1_019BnHwOemHookResponseD0Ev"
    },
    {
     "kind":"vcall_offset"
    },
    {
     "kind":"vcall_offset"
    },
    {
     "kind":"vcall_offset"
    },
    {
     "kind":"vcall_offset"
    },
    {
     "kind":"vcall_offset",
     "component_value":-72
    },
    {
     "kind":"offset_to_top",
     "component_value":-72
    },
    {
     "kind":"rtti",
     "mangled_component_name":"_ZTIN7android8hardware5radio10deprecated4V1_019BnHwOemHookResponseE"
    },
    {
     "kind":"complete_dtor_pointer",
     "mangled_component_name":"_ZTv0_n12_N7android8hardware5radio10deprecated4V1_019BnHwOemHookResponseD1Ev"
    },
    {
     "kind":"deleting_dtor_pointer",
     "mangled_component_name":"_ZTv0_n12_N7android8hardware5radio10deprecated4V1_019BnHwOemHookResponseD0Ev"
    },
    {
     "mangled_component_name":"_ZN7android7RefBase10onFirstRefEv"
    },
    {
     "mangled_component_name":"_ZN7android7RefBase15onLastStrongRefEPKv"
    },
    {
     "mangled_component_name":"_ZN7android7RefBase20onIncStrongAttemptedEjPKv"
    },
    {
     "mangled_component_name":"_ZN7android7RefBase13onLastWeakRefEPKv"
    }
   ],
   "unique_id":"_ZTSN7android8hardware5radio10deprecated4V1_019BnHwOemHookResponseE"
  },
  {
   "vtable_components":[
    {
     "kind":"vbase_offset",
     "component_value":84
    },
    {
     "kind":"offset_to_top"
    },
    {
     "kind":"rtti",
     "mangled_component_name":"_ZTIN7android8hardware5radio10deprecated4V1_021BpHwOemHookIndicationE"
    },
    {
     "mangled_component_name":"_ZNK7android8hardware5radio10deprecated4V1_021BpHwOemHookIndication8isRemoteEv"
    },
    {
     "mangled_component_name":"_ZN7android8hardware5radio10deprecated4V1_021BpHwOemHookIndication14interfaceChainENSt3__18functionIFvRKNS0_8hidl_vecINS0_11hidl_stringEEEEEE"
    },
    {
     "mangled_component_name":"_ZN7android8hardware5radio10deprecated4V1_021BpHwOemHookIndication5debugERKNS0_11hidl_handleERKNS0_8hidl_vecINS0_11hidl_stringEEE"
    },
    {
     "mangled_component_name":"_ZN7android8hardware5radio10deprecated4V1_021BpHwOemHookIndication19interfaceDescriptorENSt3__18functionIFvRKNS0_11hidl_stringEEEE"
    },
    {
     "mangled_component_name":"_ZN7android8hardware5radio10deprecated4V1_021BpHwOemHookIndication12getHashChainENSt3__18functionIFvRKNS0_8hidl_vecINS0_10hidl_arrayIhLj32EJEEEEEEEE"
    },
    {
     "mangled_component_name":"_ZN7android8hardware5radio10deprecated4V1_021BpHwOemHookIndication21setHALInstrumentationEv"
    },
    {
     "mangled_component_name":"_ZN7android8hardware5radio10deprecated4V1_021BpHwOemHookIndication11linkToDeathERKNS_2spINS0_20hidl_death_recipientEEEy"
    },
    {
     "mangled_component_name":"_ZN7android8hardware5radio10deprecated4V1_021BpHwOemHookIndication4pingEv"
    },
    {
     "mangled_component_name":"_ZN7android8hardware5radio10deprecated4V1_021BpHwOemHookIndication12getDebugInfoENSt3__18functionIFvRKNS_4hidl4base4V1_09DebugInfoEEEE"
    },
    {
     "mangled_component_name":"_ZN7android8hardware5radio10deprecated4V1_021BpHwOemHookIndication21notifySyspropsChangedEv"
    },
    {
     "mangled_component_name":"_ZN7android8hardware5radio10deprecated4V1_021BpHwOemHookIndication13unlinkToDeathERKNS_2spINS0_20hidl_death_recipientEEE"
    },
    {
     "kind":"complete_dtor_pointer",
     "mangled_component_name":"_ZN7android8hardware5radio10deprecated4V1_021BpHwOemHookIndicationD1Ev"
    },
    {
     "kind":"deleting_dtor_pointer",
     "mangled_component_name":"_ZN7android8hardware5radio10deprecated4V1_021BpHwOemHookIndicationD0Ev"
    },
    {
     "mangled_component_name":"_ZN7android8hardware5radio10deprecated4V1_021BpHwOemHookIndication10oemHookRawENS1_4V1_019RadioIndicationTypeERKNS0_8hidl_vecIhEE"
    },
    {
     "mangled_component_name":"_ZN7android8hardware11BpInterfaceINS0_5radio10deprecated4V1_018IOemHookIndicationEE10onAsBinderEv"
    },
    {
     "kind":"vbase_offset",
     "component_value":80
    },
    {
     "kind":"offset_to_top",
     "component_value":-4
    },
    {
     "kind":"rtti",
     "mangled_component_name":"_ZTIN7android8hardware5radio10deprecated4V1_021BpHwOemHookIndicationE"
    },
    {
     "kind":"complete_dtor_pointer",
     "mangled_component_name":"_ZThn4_N7android8hardware5radio10deprecated4V1_021BpHwOemHookIndicationD1Ev"
    },
    {
     "kind":"deleting_dtor_pointer",
     "mangled_component_name":"_ZThn4_N7android8hardware5radio10deprecated4V1_021BpHwOemHookIndicationD0Ev"
    },
    {
     "mangled_component_name":"_ZThn4_N7android8hardware11BpInterfaceINS0_5radio10deprecated4V1_018IOemHookIndicationEE10onAsBinderEv"
    },
    {
     "kind":"vbase_offset",
     "component_value":76
    },
    {
     "kind":"offset_to_top",
     "component_value":-8
    },
    {
     "kind":"rtti",
     "mangled_component_name":"_ZTIN7android8hardware5radio10deprecated4V1_021BpHwOemHookIndicationE"
    },
    {
     "kind":"complete_dtor_pointer",
     "mangled_component_name":"_ZThn8_N7android8hardware5radio10deprecated4V1_021BpHwOemHookIndicationD1Ev"
    },
    {
     "kind":"deleting_dtor_pointer",
     "mangled_component_name":"_ZThn8_N7android8hardware5radio10deprecated4V1_021BpHwOemHookIndicationD0Ev"
    },
    {
     "mangled_component_name":"_ZN7android8hardware11BpHwRefBase10onFirstRefEv"
    },
    {
     "mangled_component_name":"_ZN7android8hardware11BpHwRefBase15onLastStrongRefEPKv"
    },
    {
     "mangled_component_name":"_ZN7android8hardware11BpHwRefBase20onIncStrongAttemptedEjPKv"
    },
    {
     "kind":"offset_to_top",
     "component_value":-24
    },
    {
     "kind":"rtti",
     "mangled_component_name":"_ZTIN7android8hardware5radio10deprecated4V1_021BpHwOemHookIndicationE"
    },
    {
     "kind":"complete_dtor_pointer",
     "mangled_component_name":"_ZThn24_N7android8hardware5radio10deprecated4V1_021BpHwOemHookIndicationD1Ev"
    },
    {
     "kind":"deleting_dtor_pointer",
     "mangled_component_name":"_ZThn24_N7android8hardware5radio10deprecated4V1_021BpHwOemHookIndicationD0Ev"
    },
    {
     "kind":"vcall_offset"
    },
    {
     "kind":"vcall_offset",
     "component_value":-76
    },
    {
     "kind":"vcall_offset",
     "component_value":-76
    },
    {
     "kind":"vcall_offset",
     "component_value":-76
    },
    {
     "kind":"vcall_offset",
     "component_value":-84
    },
    {
     "kind":"offset_to_top",
     "component_value":-84
    },
    {
     "kind":"rtti",
     "mangled_component_name":"_ZTIN7android8hardware5radio10deprecated4V1_021BpHwOemHookIndicationE"
    },
    {
     "kind":"complete_dtor_pointer",
     "mangled_component_name":"_ZTv0_n12_N7android8hardware5radio10deprecated4V1_021BpHwOemHookIndicationD1Ev"
    },
    {
     "kind":"deleting_dtor_pointer",
     "mangled_component_name":"_ZTv0_n12_N7android8hardware5radio10deprecated4V1_021BpHwOemHookIndicationD0Ev"
    },
    {
     "mangled_component_name":"_ZTv0_n16_N7android8hardware11BpHwRefBase10onFirstRefEv"
    },
    {
     "mangled_component_name":"_ZTv0_n20_N7android8hardware11BpHwRefBase15onLastStrongRefEPKv"
    },
    {
     "mangled_component_name":"_ZTv0_n24_N7android8hardware11BpHwRefBase20onIncStrongAttemptedEjPKv"
    },
    {
     "mangled_component_name":"_ZN7android7RefBase13onLastWeakRefEPKv"
    }
   ],
   "unique_id":"_ZTSN7android8hardware5radio10deprecated4V1_021BpHwOemHookIndicationE"
  },
  {
   "vtable_components":[
    {
     "kind":"vbase_offset",
     "component_value":84
    },
    {
     "kind":"offset_to_top"
    },
    {
     "kind":"rtti",
     "mangled_component_name":"_ZTIN7android8hardware5radio10deprecated4V1_019BpHwOemHookResponseE"
    },
    {
     "mangled_component_name":"_ZNK7android8hardware5radio10deprecated4V1_019BpHwOemHookResponse8isRemoteEv"
    },
    {
     "mangled_component_name":"_ZN7android8hardware5radio10deprecated4V1_019BpHwOemHookResponse14interfaceChainENSt3__18functionIFvRKNS0_8hidl_vecINS0_11hidl_stringEEEEEE"
    },
    {
     "mangled_component_name":"_ZN7android8hardware5radio10deprecated4V1_019BpHwOemHookResponse5debugERKNS0_11hidl_handleERKNS0_8hidl_vecINS0_11hidl_stringEEE"
    },
    {
     "mangled_component_name":"_ZN7android8hardware5radio10deprecated4V1_019BpHwOemHookResponse19interfaceDescriptorENSt3__18functionIFvRKNS0_11hidl_stringEEEE"
    },
    {
     "mangled_component_name":"_ZN7android8hardware5radio10deprecated4V1_019BpHwOemHookResponse12getHashChainENSt3__18functionIFvRKNS0_8hidl_vecINS0_10hidl_arrayIhLj32EJEEEEEEEE"
    },
    {
     "mangled_component_name":"_ZN7android8hardware5radio10deprecated4V1_019BpHwOemHookResponse21setHALInstrumentationEv"
    },
    {
     "mangled_component_name":"_ZN7android8hardware5radio10deprecated4V1_019BpHwOemHookResponse11linkToDeathERKNS_2spINS0_20hidl_death_recipientEEEy"
    },
    {
     "mangled_component_name":"_ZN7android8hardware5radio10deprecated4V1_019BpHwOemHookResponse4pingEv"
    },
    {
     "mangled_component_name":"_ZN7android8hardware5radio10deprecated4V1_019BpHwOemHookResponse12getDebugInfoENSt3__18functionIFvRKNS_4hidl4base4V1_09DebugInfoEEEE"
    },
    {
     "mangled_component_name":"_ZN7android8hardware5radio10deprecated4V1_019BpHwOemHookResponse21notifySyspropsChangedEv"
    },
    {
     "mangled_component_name":"_ZN7android8hardware5radio10deprecated4V1_019BpHwOemHookResponse13unlinkToDeathERKNS_2spINS0_20hidl_death_recipientEEE"
    },
    {
     "kind":"complete_dtor_pointer",
     "mangled_component_name":"_ZN7android8hardware5radio10deprecated4V1_019BpHwOemHookResponseD1Ev"
    },
    {
     "kind":"deleting_dtor_pointer",
     "mangled_component_name":"_ZN7android8hardware5radio10deprecated4V1_019BpHwOemHookResponseD0Ev"
    },
    {
     "mangled_component_name":"_ZN7android8hardware5radio10deprecated4V1_019BpHwOemHookResponse22sendRequestRawResponseERKNS1_4V1_017RadioResponseInfoERKNS0_8hidl_vecIhEE"
    },
    {
     "mangled_component_name":"_ZN7android8hardware5radio10deprecated4V1_019BpHwOemHookResponse26sendRequestStringsResponseERKNS1_4V1_017RadioResponseInfoERKNS0_8hidl_vecINS0_11hidl_stringEEE"
    },
    {
     "mangled_component_name":"_ZN7android8hardware11BpInterfaceINS0_5radio10deprecated4V1_016IOemHookResponseEE10onAsBinderEv"
    },
    {
     "kind":"vbase_offset",
     "component_value":80
    },
    {
     "kind":"offset_to_top",
     "component_value":-4
    },
    {
     "kind":"rtti",
     "mangled_component_name":"_ZTIN7android8hardware5radio10deprecated4V1_019BpHwOemHookResponseE"
    },
    {
     "kind":"complete_dtor_pointer",
     "mangled_component_name":"_ZThn4_N7android8hardware5radio10deprecated4V1_019BpHwOemHookResponseD1Ev"
    },
    {
     "kind":"deleting_dtor_pointer",
     "mangled_component_name":"_ZThn4_N7android8hardware5radio10deprecated4V1_019BpHwOemHookResponseD0Ev"
    },
    {
     "mangled_component_name":"_ZThn4_N7android8hardware11BpInterfaceINS0_5radio10deprecated4V1_016IOemHookResponseEE10onAsBinderEv"
    },
    {
     "kind":"vbase_offset",
     "component_value":76
    },
    {
     "kind":"offset_to_top",
     "component_value":-8
    },
    {
     "kind":"rtti",
     "mangled_component_name":"_ZTIN7android8hardware5radio10deprecated4V1_019BpHwOemHookResponseE"
    },
    {
     "kind":"complete_dtor_pointer",
     "mangled_component_name":"_ZThn8_N7android8hardware5radio10deprecated4V1_019BpHwOemHookResponseD1Ev"
    },
    {
     "kind":"deleting_dtor_pointer",
     "mangled_component_name":"_ZThn8_N7android8hardware5radio10deprecated4V1_019BpHwOemHookResponseD0Ev"
    },
    {
     "mangled_component_name":"_ZN7android8hardware11BpHwRefBase10onFirstRefEv"
    },
    {
     "mangled_component_name":"_ZN7android8hardware11BpHwRefBase15onLastStrongRefEPKv"
    },
    {
     "mangled_component_name":"_ZN7android8hardware11BpHwRefBase20onIncStrongAttemptedEjPKv"
    },
    {
     "kind":"offset_to_top",
     "component_value":-24
    },
    {
     "kind":"rtti",
     "mangled_component_name":"_ZTIN7android8hardware5radio10deprecated4V1_019BpHwOemHookResponseE"
    },
    {
     "kind":"complete_dtor_pointer",
     "mangled_component_name":"_ZThn24_N7android8hardware5radio10deprecated4V1_019BpHwOemHookResponseD1Ev"
    },
    {
     "kind":"deleting_dtor_pointer",
     "mangled_component_name":"_ZThn24_N7android8hardware5radio10deprecated4V1_019BpHwOemHookResponseD0Ev"
    },
    {
     "kind":"vcall_offset"
    },
    {
     "kind":"vcall_offset",
     "component_value":-76
    },
    {
     "kind":"vcall_offset",
     "component_value":-76
    },
    {
     "kind":"vcall_offset",
     "component_value":-76
    },
    {
     "kind":"vcall_offset",
     "component_value":-84
    },
    {
     "kind":"offset_to_top",
     "component_value":-84
    },
    {
     "kind":"rtti",
     "mangled_component_name":"_ZTIN7android8hardware5radio10deprecated4V1_019BpHwOemHookResponseE"
    },
    {
     "kind":"complete_dtor_pointer",
     "mangled_component_name":"_ZTv0_n12_N7android8hardware5radio10deprecated4V1_019BpHwOemHookResponseD1Ev"
    },
    {
     "kind":"deleting_dtor_pointer",
     "mangled_component_name":"_ZTv0_n12_N7android8hardware5radio10deprecated4V1_019BpHwOemHookResponseD0Ev"
    },
    {
     "mangled_component_name":"_ZTv0_n16_N7android8hardware11BpHwRefBase10onFirstRefEv"
    },
    {
     "mangled_component_name":"_ZTv0_n20_N7android8hardware11BpHwRefBase15onLastStrongRefEPKv"
    },
    {
     "mangled_component_name":"_ZTv0_n24_N7android8hardware11BpHwRefBase20onIncStrongAttemptedEjPKv"
    },
    {
     "mangled_component_name":"_ZN7android7RefBase13onLastWeakRefEPKv"
    }
   ],
   "unique_id":"_ZTSN7android8hardware5radio10deprecated4V1_019BpHwOemHookResponseE"
  },
  {
   "vtable_components":[
    {
     "kind":"vbase_offset",
     "component_value":72
    },
    {
     "kind":"offset_to_top"
    },
    {
     "kind":"rtti",
     "mangled_component_name":"_ZTIN7android8hardware5radio10deprecated4V1_011BnHwOemHookE"
    },
    {
     "mangled_component_name":"_ZN7android8hardware9BHwBinder8transactEjRKNS0_6ParcelEPS2_jNSt3__18functionIFvRS2_EEE"
    },
    {
     "mangled_component_name":"_ZN7android8hardware9BHwBinder11linkToDeathERKNS_2spINS0_7IBinder14DeathRecipientEEEPvj"
    },
    {
     "mangled_component_name":"_ZN7android8hardware9BHwBinder13unlinkToDeathERKNS_2wpINS0_7IBinder14DeathRecipientEEEPvjPS5_"
    },
    {
     "mangled_component_name":"_ZNK7android8hardware7IBinder13checkSubclassEPKv"
    },
    {
     "mangled_component_name":"_ZN7android8hardware9BHwBinder12attachObjectEPKvPvS4_PFvS3_S4_S4_E"
    },
    {
     "mangled_component_name":"_ZNK7android8hardware9BHwBinder10findObjectEPKv"
    },
    {
     "mangled_component_name":"_ZN7android8hardware9BHwBinder12detachObjectEPKv"
    },
    {
     "mangled_component_name":"_ZN7android8hardware9BHwBinder11localBinderEv"
    },
    {
     "mangled_component_name":"_ZN7android8hardware7IBinder12remoteBinderEv"
    },
    {
     "kind":"complete_dtor_pointer",
     "mangled_component_name":"_ZN7android8hardware5radio10deprecated4V1_011BnHwOemHookD1Ev"
    },
    {
     "kind":"deleting_dtor_pointer",
     "mangled_component_name":"_ZN7android8hardware5radio10deprecated4V1_011BnHwOemHookD0Ev"
    },
    {
     "mangled_component_name":"_ZN7android8hardware5radio10deprecated4V1_011BnHwOemHook10onTransactEjRKNS0_6ParcelEPS5_jNSt3__18functionIFvRS5_EEE"
    },
    {
     "kind":"offset_to_top",
     "component_value":-20
    },
    {
     "kind":"rtti",
     "mangled_component_name":"_ZTIN7android8hardware5radio10deprecated4V1_011BnHwOemHookE"
    },
    {
     "kind":"complete_dtor_pointer",
     "mangled_component_name":"_ZThn20_N7android8hardware5radio10deprecated4V1_011BnHwOemHookD1Ev"
    },
    {
     "kind":"deleting_dtor_pointer",
     "mangled_component_name":"_ZThn20_N7android8hardware5radio10deprecated4V1_011BnHwOemHookD0Ev"
    },
    {
     "kind":"vcall_offset"
    },
    {
     "kind":"vcall_offset"
    },
    {
     "kind":"vcall_offset"
    },
    {
     "kind":"vcall_offset"
    },
    {
     "kind":"vcall_offset",
     "component_value":-72
    },
    {
     "kind":"offset_to_top",
     "component_value":-72
    },
    {
     "kind":"rtti",
     "mangled_component_name":"_ZTIN7android8hardware5radio10deprecated4V1_011BnHwOemHookE"
    },
    {
     "kind":"complete_dtor_pointer",
     "mangled_component_name":"_ZTv0_n12_N7android8hardware5radio10deprecated4V1_011BnHwOemHookD1Ev"
    },
    {
     "kind":"deleting_dtor_pointer",
     "mangled_component_name":"_ZTv0_n12_N7android8hardware5radio10deprecated4V1_011BnHwOemHookD0Ev"
    },
    {
     "mangled_component_name":"_ZN7android7RefBase10onFirstRefEv"
    },
    {
     "mangled_component_name":"_ZN7android7RefBase15onLastStrongRefEPKv"
    },
    {
     "mangled_component_name":"_ZN7android7RefBase20onIncStrongAttemptedEjPKv"
    },
    {
     "mangled_component_name":"_ZN7android7RefBase13onLastWeakRefEPKv"
    }
   ],
   "unique_id":"_ZTSN7android8hardware5radio10deprecated4V1_011BnHwOemHookE"
  },
  {
   "vtable_components":[
    {
     "kind":"vbase_offset",
     "component_value":4
    },
    {
     "kind":"offset_to_top"
    },
    {
     "kind":"rtti",
     "mangled_component_name":"_ZTIN7android8hardware5radio10deprecated4V1_08IOemHookE"
    },
    {
     "mangled_component_name":"_ZNK7android8hardware5radio10deprecated4V1_08IOemHook8isRemoteEv"
    },
    {
     "mangled_component_name":"_ZN7android8hardware5radio10deprecated4V1_08IOemHook14interfaceChainENSt3__18functionIFvRKNS0_8hidl_vecINS0_11hidl_stringEEEEEE"
    },
    {
     "mangled_component_name":"_ZN7android8hardware5radio10deprecated4V1_08IOemHook5debugERKNS0_11hidl_handleERKNS0_8hidl_vecINS0_11hidl_stringEEE"
    },
    {
     "mangled_component_name":"_ZN7android8hardware5radio10deprecated4V1_08IOemHook19interfaceDescriptorENSt3__18functionIFvRKNS0_11hidl_stringEEEE"
    },
    {
     "mangled_component_name":"_ZN7android8hardware5radio10deprecated4V1_08IOemHook12getHashChainENSt3__18functionIFvRKNS0_8hidl_vecINS0_10hidl_arrayIhLj32EJEEEEEEEE"
    },
    {
     "mangled_component_name":"_ZN7android8hardware5radio10deprecated4V1_08IOemHook21setHALInstrumentationEv"
    },
    {
     "mangled_component_name":"_ZN7android8hardware5radio10deprecated4V1_08IOemHook11linkToDeathERKNS_2spINS0_20hidl_death_recipientEEEy"
    },
    {
     "mangled_component_name":"_ZN7android8hardware5radio10deprecated4V1_08IOemHook4pingEv"
    },
    {
     "mangled_component_name":"_ZN7android8hardware5radio10deprecated4V1_08IOemHook12getDebugInfoENSt3__18functionIFvRKNS_4hidl4base4V1_09DebugInfoEEEE"
    },
    {
     "mangled_component_name":"_ZN7android8hardware5radio10deprecated4V1_08IOemHook21notifySyspropsChangedEv"
    },
    {
     "mangled_component_name":"_ZN7android8hardware5radio10deprecated4V1_08IOemHook13unlinkToDeathERKNS_2spINS0_20hidl_death_recipientEEE"
    },
    {
     "kind":"complete_dtor_pointer",
     "mangled_component_name":"_ZN7android8hardware5radio10deprecated4V1_08IOemHookD1Ev"
    },
    {
     "kind":"deleting_dtor_pointer",
     "mangled_component_name":"_ZN7android8hardware5radio10deprecated4V1_08IOemHookD0Ev"
    },
    {
     "is_pure":true,
     "mangled_component_name":"_ZN7android8hardware5radio10deprecated4V1_08IOemHook20setResponseFunctionsERKNS_2spINS3_16IOemHookResponseEEERKNS5_INS3_18IOemHookIndicationEEE"
    },
    {
     "is_pure":true,
     "mangled_component_name":"_ZN7android8hardware5radio10deprecated4V1_08IOemHook14sendRequestRawEiRKNS0_8hidl_vecIhEE"
    },
    {
     "is_pure":true,
     "mangled_component_name":"_ZN7android8hardware5radio10deprecated4V1_08IOemHook18sendRequestStringsEiRKNS0_8hidl_vecINS0_11hidl_stringEEE"
    },
    {
     "kind":"vcall_offset"
    },
    {
     "kind":"vcall_offset"
    },
    {
     "kind":"vcall_offset"
    },
    {
     "kind":"vcall_offset"
    },
    {
     "kind":"vcall_offset",
     "component_value":-4
    },
    {
     "kind":"offset_to_top",
     "component_value":-4
    },
    {
     "kind":"rtti",
     "mangled_component_name":"_ZTIN7android8hardware5radio10deprecated4V1_08IOemHookE"
    },
    {
     "kind":"complete_dtor_pointer",
     "mangled_component_name":"_ZTv0_n12_N7android8hardware5radio10deprecated4V1_08IOemHookD1Ev"
    },
    {
     "kind":"deleting_dtor_pointer",
     "mangled_component_name":"_ZTv0_n12_N7android8hardware5radio10deprecated4V1_08IOemHookD0Ev"
    },
    {
     "mangled_component_name":"_ZN7android7RefBase10onFirstRefEv"
    },
    {
     "mangled_component_name":"_ZN7android7RefBase15onLastStrongRefEPKv"
    },
    {
     "mangled_component_name":"_ZN7android7RefBase20onIncStrongAttemptedEjPKv"
    },
    {
     "mangled_component_name":"_ZN7android7RefBase13onLastWeakRefEPKv"
    }
   ],
   "unique_id":"_ZTSN7android8hardware5radio10deprecated4V1_08IOemHookE"
  },
  {
   "vtable_components":[
    {
     "kind":"vbase_offset",
     "component_value":4
    },
    {
     "kind":"offset_to_top"
    },
    {
     "kind":"rtti",
     "mangled_component_name":"_ZTIN7android8hardware5radio10deprecated4V1_018IOemHookIndicationE"
    },
    {
     "mangled_component_name":"_ZNK7android8hardware5radio10deprecated4V1_018IOemHookIndication8isRemoteEv"
    },
    {
     "mangled_component_name":"_ZN7android8hardware5radio10deprecated4V1_018IOemHookIndication14interfaceChainENSt3__18functionIFvRKNS0_8hidl_vecINS0_11hidl_stringEEEEEE"
    },
    {
     "mangled_component_name":"_ZN7android8hardware5radio10deprecated4V1_018IOemHookIndication5debugERKNS0_11hidl_handleERKNS0_8hidl_vecINS0_11hidl_stringEEE"
    },
    {
     "mangled_component_name":"_ZN7android8hardware5radio10deprecated4V1_018IOemHookIndication19interfaceDescriptorENSt3__18functionIFvRKNS0_11hidl_stringEEEE"
    },
    {
     "mangled_component_name":"_ZN7android8hardware5radio10deprecated4V1_018IOemHookIndication12getHashChainENSt3__18functionIFvRKNS0_8hidl_vecINS0_10hidl_arrayIhLj32EJEEEEEEEE"
    },
    {
     "mangled_component_name":"_ZN7android8hardware5radio10deprecated4V1_018IOemHookIndication21setHALInstrumentationEv"
    },
    {
     "mangled_component_name":"_ZN7android8hardware5radio10deprecated4V1_018IOemHookIndication11linkToDeathERKNS_2spINS0_20hidl_death_recipientEEEy"
    },
    {
     "mangled_component_name":"_ZN7android8hardware5radio10deprecated4V1_018IOemHookIndication4pingEv"
    },
    {
     "mangled_component_name":"_ZN7android8hardware5radio10deprecated4V1_018IOemHookIndication12getDebugInfoENSt3__18functionIFvRKNS_4hidl4base4V1_09DebugInfoEEEE"
    },
    {
     "mangled_component_name":"_ZN7android8hardware5radio10deprecated4V1_018IOemHookIndication21notifySyspropsChangedEv"
    },
    {
     "mangled_component_name":"_ZN7android8hardware5radio10deprecated4V1_018IOemHookIndication13unlinkToDeathERKNS_2spINS0_20hidl_death_recipientEEE"
    },
    {
     "kind":"complete_dtor_pointer",
     "mangled_component_name":"_ZN7android8hardware5radio10deprecated4V1_018IOemHookIndicationD1Ev"
    },
    {
     "kind":"deleting_dtor_pointer",
     "mangled_component_name":"_ZN7android8hardware5radio10deprecated4V1_018IOemHookIndicationD0Ev"
    },
    {
     "is_pure":true,
     "mangled_component_name":"_ZN7android8hardware5radio10deprecated4V1_018IOemHookIndication10oemHookRawENS1_4V1_019RadioIndicationTypeERKNS0_8hidl_vecIhEE"
    },
    {
     "kind":"vcall_offset"
    },
    {
     "kind":"vcall_offset"
    },
    {
     "kind":"vcall_offset"
    },
    {
     "kind":"vcall_offset"
    },
    {
     "kind":"vcall_offset",
     "component_value":-4
    },
    {
     "kind":"offset_to_top",
     "component_value":-4
    },
    {
     "kind":"rtti",
     "mangled_component_name":"_ZTIN7android8hardware5radio10deprecated4V1_018IOemHookIndicationE"
    },
    {
     "kind":"complete_dtor_pointer",
     "mangled_component_name":"_ZTv0_n12_N7android8hardware5radio10deprecated4V1_018IOemHookIndicationD1Ev"
    },
    {
     "kind":"deleting_dtor_pointer",
     "mangled_component_name":"_ZTv0_n12_N7android8hardware5radio10deprecated4V1_018IOemHookIndicationD0Ev"
    },
    {
     "mangled_component_name":"_ZN7android7RefBase10onFirstRefEv"
    },
    {
     "mangled_component_name":"_ZN7android7RefBase15onLastStrongRefEPKv"
    },
    {
     "mangled_component_name":"_ZN7android7RefBase20onIncStrongAttemptedEjPKv"
    },
    {
     "mangled_component_name":"_ZN7android7RefBase13onLastWeakRefEPKv"
    }
   ],
   "unique_id":"_ZTSN7android8hardware5radio10deprecated4V1_018IOemHookIndicationE"
  },
  {
   "vtable_components":[
    {
     "kind":"vbase_offset",
     "component_value":4
    },
    {
     "kind":"offset_to_top"
    },
    {
     "kind":"rtti",
     "mangled_component_name":"_ZTIN7android8hardware5radio10deprecated4V1_016IOemHookResponseE"
    },
    {
     "mangled_component_name":"_ZNK7android8hardware5radio10deprecated4V1_016IOemHookResponse8isRemoteEv"
    },
    {
     "mangled_component_name":"_ZN7android8hardware5radio10deprecated4V1_016IOemHookResponse14interfaceChainENSt3__18functionIFvRKNS0_8hidl_vecINS0_11hidl_stringEEEEEE"
    },
    {
     "mangled_component_name":"_ZN7android8hardware5radio10deprecated4V1_016IOemHookResponse5debugERKNS0_11hidl_handleERKNS0_8hidl_vecINS0_11hidl_stringEEE"
    },
    {
     "mangled_component_name":"_ZN7android8hardware5radio10deprecated4V1_016IOemHookResponse19interfaceDescriptorENSt3__18functionIFvRKNS0_11hidl_stringEEEE"
    },
    {
     "mangled_component_name":"_ZN7android8hardware5radio10deprecated4V1_016IOemHookResponse12getHashChainENSt3__18functionIFvRKNS0_8hidl_vecINS0_10hidl_arrayIhLj32EJEEEEEEEE"
    },
    {
     "mangled_component_name":"_ZN7android8hardware5radio10deprecated4V1_016IOemHookResponse21setHALInstrumentationEv"
    },
    {
     "mangled_component_name":"_ZN7android8hardware5radio10deprecated4V1_016IOemHookResponse11linkToDeathERKNS_2spINS0_20hidl_death_recipientEEEy"
    },
    {
     "mangled_component_name":"_ZN7android8hardware5radio10deprecated4V1_016IOemHookResponse4pingEv"
    },
    {
     "mangled_component_name":"_ZN7android8hardware5radio10deprecated4V1_016IOemHookResponse12getDebugInfoENSt3__18functionIFvRKNS_4hidl4base4V1_09DebugInfoEEEE"
    },
    {
     "mangled_component_name":"_ZN7android8hardware5radio10deprecated4V1_016IOemHookResponse21notifySyspropsChangedEv"
    },
    {
     "mangled_component_name":"_ZN7android8hardware5radio10deprecated4V1_016IOemHookResponse13unlinkToDeathERKNS_2spINS0_20hidl_death_recipientEEE"
    },
    {
     "kind":"complete_dtor_pointer",
     "mangled_component_name":"_ZN7android8hardware5radio10deprecated4V1_016IOemHookResponseD1Ev"
    },
    {
     "kind":"deleting_dtor_pointer",
     "mangled_component_name":"_ZN7android8hardware5radio10deprecated4V1_016IOemHookResponseD0Ev"
    },
    {
     "is_pure":true,
     "mangled_component_name":"_ZN7android8hardware5radio10deprecated4V1_016IOemHookResponse22sendRequestRawResponseERKNS1_4V1_017RadioResponseInfoERKNS0_8hidl_vecIhEE"
    },
    {
     "is_pure":true,
     "mangled_component_name":"_ZN7android8hardware5radio10deprecated4V1_016IOemHookResponse26sendRequestStringsResponseERKNS1_4V1_017RadioResponseInfoERKNS0_8hidl_vecINS0_11hidl_stringEEE"
    },
    {
     "kind":"vcall_offset"
    },
    {
     "kind":"vcall_offset"
    },
    {
     "kind":"vcall_offset"
    },
    {
     "kind":"vcall_offset"
    },
    {
     "kind":"vcall_offset",
     "component_value":-4
    },
    {
     "kind":"offset_to_top",
     "component_value":-4
    },
    {
     "kind":"rtti",
     "mangled_component_name":"_ZTIN7android8hardware5radio10deprecated4V1_016IOemHookResponseE"
    },
    {
     "kind":"complete_dtor_pointer",
     "mangled_component_name":"_ZTv0_n12_N7android8hardware5radio10deprecated4V1_016IOemHookResponseD1Ev"
    },
    {
     "kind":"deleting_dtor_pointer",
     "mangled_component_name":"_ZTv0_n12_N7android8hardware5radio10deprecated4V1_016IOemHookResponseD0Ev"
    },
    {
     "mangled_component_name":"_ZN7android7RefBase10onFirstRefEv"
    },
    {
     "mangled_component_name":"_ZN7android7RefBase15onLastStrongRefEPKv"
    },
    {
     "mangled_component_name":"_ZN7android7RefBase20onIncStrongAttemptedEjPKv"
    },
    {
     "mangled_component_name":"_ZN7android7RefBase13onLastWeakRefEPKv"
    }
   ],
   "unique_id":"_ZTSN7android8hardware5radio10deprecated4V1_016IOemHookResponseE"
  },
  {
   "vtable_components":[
    {
     "kind":"vbase_offset",
     "component_value":60
    },
    {
     "kind":"offset_to_top"
    },
    {
     "kind":"rtti",
     "mangled_component_name":"_ZTIN7android8hardware5radio10deprecated4V1_09BsOemHookE"
    },
    {
     "mangled_component_name":"_ZNK7android8hardware5radio10deprecated4V1_08IOemHook8isRemoteEv"
    },
    {
     "mangled_component_name":"_ZN7android8hardware5radio10deprecated4V1_09BsOemHook14interfaceChainENSt3__18functionIFvRKNS0_8hidl_vecINS0_11hidl_stringEEEEEE"
    },
    {
     "mangled_component_name":"_ZN7android8hardware5radio10deprecated4V1_09BsOemHook5debugERKNS0_11hidl_handleERKNS0_8hidl_vecINS0_11hidl_stringEEE"
    },
    {
     "mangled_component_name":"_ZN7android8hardware5radio10deprecated4V1_09BsOemHook19interfaceDescriptorENSt3__18functionIFvRKNS0_11hidl_stringEEEE"
    },
    {
     "mangled_component_name":"_ZN7android8hardware5radio10deprecated4V1_09BsOemHook12getHashChainENSt3__18functionIFvRKNS0_8hidl_vecINS0_10hidl_arrayIhLj32EJEEEEEEEE"
    },
    {
     "mangled_component_name":"_ZN7android8hardware5radio10deprecated4V1_09BsOemHook21setHALInstrumentationEv"
    },
    {
     "mangled_component_name":"_ZN7android8hardware5radio10deprecated4V1_09BsOemHook11linkToDeathERKNS_2spINS0_20hidl_death_recipientEEEy"
    },
    {
     "mangled_component_name":"_ZN7android8hardware5radio10deprecated4V1_09BsOemHook4pingEv"
    },
    {
     "mangled_component_name":"_ZN7android8hardware5radio10deprecated4V1_09BsOemHook12getDebugInfoENSt3__18functionIFvRKNS_4hidl4base4V1_09DebugInfoEEEE"
    },
    {
     "mangled_component_name":"_ZN7android8hardware5radio10deprecated4V1_09BsOemHook21notifySyspropsChangedEv"
    },
    {
     "mangled_component_name":"_ZN7android8hardware5radio10deprecated4V1_09BsOemHook13unlinkToDeathERKNS_2spINS0_20hidl_death_recipientEEE"
    },
    {
     "kind":"complete_dtor_pointer",
     "mangled_component_name":"_ZN7android8hardware5radio10deprecated4V1_09BsOemHookD1Ev"
    },
    {
     "kind":"deleting_dtor_pointer",
     "mangled_component_name":"_ZN7android8hardware5radio10deprecated4V1_09BsOemHookD0Ev"
    },
    {
     "mangled_component_name":"_ZN7android8hardware5radio10deprecated4V1_09BsOemHook20setResponseFunctionsERKNS_2spINS3_16IOemHookResponseEEERKNS5_INS3_18IOemHookIndicationEEE"
    },
    {
     "mangled_component_name":"_ZN7android8hardware5radio10deprecated4V1_09BsOemHook14sendRequestRawEiRKNS0_8hidl_vecIhEE"
    },
    {
     "mangled_component_name":"_ZN7android8hardware5radio10deprecated4V1_09BsOemHook18sendRequestStringsEiRKNS0_8hidl_vecINS0_11hidl_stringEEE"
    },
    {
     "kind":"offset_to_top",
     "component_value":-4
    },
    {
     "kind":"rtti",
     "mangled_component_name":"_ZTIN7android8hardware5radio10deprecated4V1_09BsOemHookE"
    },
    {
     "kind":"complete_dtor_pointer",
     "mangled_component_name":"_ZThn4_N7android8hardware5radio10deprecated4V1_09BsOemHookD1Ev"
    },
    {
     "kind":"deleting_dtor_pointer",
     "mangled_component_name":"_ZThn4_N7android8hardware5radio10deprecated4V1_09BsOemHookD0Ev"
    },
    {
     "kind":"vcall_offset"
    },
    {
     "kind":"vcall_offset"
    },
    {
     "kind":"vcall_offset"
    },
    {
     "kind":"vcall_offset"
    },
    {
     "kind":"vcall_offset",
     "component_value":-60
    },
    {
     "kind":"offset_to_top",
     "component_value":-60
    },
    {
     "kind":"rtti",
     "mangled_component_name":"_ZTIN7android8hardware5radio10deprecated4V1_09BsOemHookE"
    },
    {
     "kind":"complete_dtor_pointer",
     "mangled_component_name":"_ZTv0_n12_N7android8hardware5radio10deprecated4V1_09BsOemHookD1Ev"
    },
    {
     "kind":"deleting_dtor_pointer",
     "mangled_component_name":"_ZTv0_n12_N7android8hardware5radio10deprecated4V1_09BsOemHookD0Ev"
    },
    {
     "mangled_component_name":"_ZN7android7RefBase10onFirstRefEv"
    },
    {
     "mangled_component_name":"_ZN7android7RefBase15onLastStrongRefEPKv"
    },
    {
     "mangled_component_name":"_ZN7android7RefBase20onIncStrongAttemptedEjPKv"
    },
    {
     "mangled_component_name":"_ZN7android7RefBase13onLastWeakRefEPKv"
    }
   ],
   "unique_id":"_ZTSN7android8hardware5radio10deprecated4V1_09BsOemHookE"
  },
  {
   "vtable_components":[
    {
     "kind":"vbase_offset",
     "component_value":84
    },
    {
     "kind":"offset_to_top"
    },
    {
     "kind":"rtti",
     "mangled_component_name":"_ZTIN7android8hardware5radio10deprecated4V1_011BpHwOemHookE"
    },
    {
     "mangled_component_name":"_ZNK7android8hardware5radio10deprecated4V1_011BpHwOemHook8isRemoteEv"
    },
    {
     "mangled_component_name":"_ZN7android8hardware5radio10deprecated4V1_011BpHwOemHook14interfaceChainENSt3__18functionIFvRKNS0_8hidl_vecINS0_11hidl_stringEEEEEE"
    },
    {
     "mangled_component_name":"_ZN7android8hardware5radio10deprecated4V1_011BpHwOemHook5debugERKNS0_11hidl_handleERKNS0_8hidl_vecINS0_11hidl_stringEEE"
    },
    {
     "mangled_component_name":"_ZN7android8hardware5radio10deprecated4V1_011BpHwOemHook19interfaceDescriptorENSt3__18functionIFvRKNS0_11hidl_stringEEEE"
    },
    {
     "mangled_component_name":"_ZN7android8hardware5radio10deprecated4V1_011BpHwOemHook12getHashChainENSt3__18functionIFvRKNS0_8hidl_vecINS0_10hidl_arrayIhLj32EJEEEEEEEE"
    },
    {
     "mangled_component_name":"_ZN7android8hardware5radio10deprecated4V1_011BpHwOemHook21setHALInstrumentationEv"
    },
    {
     "mangled_component_name":"_ZN7android8hardware5radio10deprecated4V1_011BpHwOemHook11linkToDeathERKNS_2spINS0_20hidl_death_recipientEEEy"
    },
    {
     "mangled_component_name":"_ZN7android8hardware5radio10deprecated4V1_011BpHwOemHook4pingEv"
    },
    {
     "mangled_component_name":"_ZN7android8hardware5radio10deprecated4V1_011BpHwOemHook12getDebugInfoENSt3__18functionIFvRKNS_4hidl4base4V1_09DebugInfoEEEE"
    },
    {
     "mangled_component_name":"_ZN7android8hardware5radio10deprecated4V1_011BpHwOemHook21notifySyspropsChangedEv"
    },
    {
     "mangled_component_name":"_ZN7android8hardware5radio10deprecated4V1_011BpHwOemHook13unlinkToDeathERKNS_2spINS0_20hidl_death_recipientEEE"
    },
    {
     "kind":"complete_dtor_pointer",
     "mangled_component_name":"_ZN7android8hardware5radio10deprecated4V1_011BpHwOemHookD1Ev"
    },
    {
     "kind":"deleting_dtor_pointer",
     "mangled_component_name":"_ZN7android8hardware5radio10deprecated4V1_011BpHwOemHookD0Ev"
    },
    {
     "mangled_component_name":"_ZN7android8hardware5radio10deprecated4V1_011BpHwOemHook20setResponseFunctionsERKNS_2spINS3_16IOemHookResponseEEERKNS5_INS3_18IOemHookIndicationEEE"
    },
    {
     "mangled_component_name":"_ZN7android8hardware5radio10deprecated4V1_011BpHwOemHook14sendRequestRawEiRKNS0_8hidl_vecIhEE"
    },
    {
     "mangled_component_name":"_ZN7android8hardware5radio10deprecated4V1_011BpHwOemHook18sendRequestStringsEiRKNS0_8hidl_vecINS0_11hidl_stringEEE"
    },
    {
     "mangled_component_name":"_ZN7android8hardware11BpInterfaceINS0_5radio10deprecated4V1_08IOemHookEE10onAsBinderEv"
    },
    {
     "kind":"vbase_offset",
     "component_value":80
    },
    {
     "kind":"offset_to_top",
     "component_value":-4
    },
    {
     "kind":"rtti",
     "mangled_component_name":"_ZTIN7android8hardware5radio10deprecated4V1_011BpHwOemHookE"
    },
    {
     "kind":"complete_dtor_pointer",
     "mangled_component_name":"_ZThn4_N7android8hardware5radio10deprecated4V1_011BpHwOemHookD1Ev"
    },
    {
     "kind":"deleting_dtor_pointer",
     "mangled_component_name":"_ZThn4_N7android8hardware5radio10deprecated4V1_011BpHwOemHookD0Ev"
    },
    {
     "mangled_component_name":"_ZThn4_N7android8hardware11BpInterfaceINS0_5radio10deprecated4V1_08IOemHookEE10onAsBinderEv"
    },
    {
     "kind":"vbase_offset",
     "component_value":76
    },
    {
     "kind":"offset_to_top",
     "component_value":-8
    },
    {
     "kind":"rtti",
     "mangled_component_name":"_ZTIN7android8hardware5radio10deprecated4V1_011BpHwOemHookE"
    },
    {
     "kind":"complete_dtor_pointer",
     "mangled_component_name":"_ZThn8_N7android8hardware5radio10deprecated4V1_011BpHwOemHookD1Ev"
    },
    {
     "kind":"deleting_dtor_pointer",
     "mangled_component_name":"_ZThn8_N7android8hardware5radio10deprecated4V1_011BpHwOemHookD0Ev"
    },
    {
     "mangled_component_name":"_ZN7android8hardware11BpHwRefBase10onFirstRefEv"
    },
    {
     "mangled_component_name":"_ZN7android8hardware11BpHwRefBase15onLastStrongRefEPKv"
    },
    {
     "mangled_component_name":"_ZN7android8hardware11BpHwRefBase20onIncStrongAttemptedEjPKv"
    },
    {
     "kind":"offset_to_top",
     "component_value":-24
    },
    {
     "kind":"rtti",
     "mangled_component_name":"_ZTIN7android8hardware5radio10deprecated4V1_011BpHwOemHookE"
    },
    {
     "kind":"complete_dtor_pointer",
     "mangled_component_name":"_ZThn24_N7android8hardware5radio10deprecated4V1_011BpHwOemHookD1Ev"
    },
    {
     "kind":"deleting_dtor_pointer",
     "mangled_component_name":"_ZThn24_N7android8hardware5radio10deprecated4V1_011BpHwOemHookD0Ev"
    },
    {
     "kind":"vcall_offset"
    },
    {
     "kind":"vcall_offset",
     "component_value":-76
    },
    {
     "kind":"vcall_offset",
     "component_value":-76
    },
    {
     "kind":"vcall_offset",
     "component_value":-76
    },
    {
     "kind":"vcall_offset",
     "component_value":-84
    },
    {
     "kind":"offset_to_top",
     "component_value":-84
    },
    {
     "kind":"rtti",
     "mangled_component_name":"_ZTIN7android8hardware5radio10deprecated4V1_011BpHwOemHookE"
    },
    {
     "kind":"complete_dtor_pointer",
     "mangled_component_name":"_ZTv0_n12_N7android8hardware5radio10deprecated4V1_011BpHwOemHookD1Ev"
    },
    {
     "kind":"deleting_dtor_pointer",
     "mangled_component_name":"_ZTv0_n12_N7android8hardware5radio10deprecated4V1_011BpHwOemHookD0Ev"
    },
    {
     "mangled_component_name":"_ZTv0_n16_N7android8hardware11BpHwRefBase10onFirstRefEv"
    },
    {
     "mangled_component_name":"_ZTv0_n20_N7android8hardware11BpHwRefBase15onLastStrongRefEPKv"
    },
    {
     "mangled_component_name":"_ZTv0_n24_N7android8hardware11BpHwRefBase20onIncStrongAttemptedEjPKv"
    },
    {
     "mangled_component_name":"_ZN7android7RefBase13onLastWeakRefEPKv"
    }
   ],
   "unique_id":"_ZTSN7android8hardware5radio10deprecated4V1_011BpHwOemHookE"
  },
  {
   "vtable_components":[
    {
     "kind":"vbase_offset",
     "component_value":60
    },
    {
     "kind":"offset_to_top"
    },
    {
     "kind":"rtti",
     "mangled_component_name":"_ZTIN7android8hardware5radio10deprecated4V1_019BsOemHookIndicationE"
    },
    {
     "mangled_component_name":"_ZNK7android8hardware5radio10deprecated4V1_018IOemHookIndication8isRemoteEv"
    },
    {
     "mangled_component_name":"_ZN7android8hardware5radio10deprecated4V1_019BsOemHookIndication14interfaceChainENSt3__18functionIFvRKNS0_8hidl_vecINS0_11hidl_stringEEEEEE"
    },
    {
     "mangled_component_name":"_ZN7android8hardware5radio10deprecated4V1_019BsOemHookIndication5debugERKNS0_11hidl_handleERKNS0_8hidl_vecINS0_11hidl_stringEEE"
    },
    {
     "mangled_component_name":"_ZN7android8hardware5radio10deprecated4V1_019BsOemHookIndication19interfaceDescriptorENSt3__18functionIFvRKNS0_11hidl_stringEEEE"
    },
    {
     "mangled_component_name":"_ZN7android8hardware5radio10deprecated4V1_019BsOemHookIndication12getHashChainENSt3__18functionIFvRKNS0_8hidl_vecINS0_10hidl_arrayIhLj32EJEEEEEEEE"
    },
    {
     "mangled_component_name":"_ZN7android8hardware5radio10deprecated4V1_019BsOemHookIndication21setHALInstrumentationEv"
    },
    {
     "mangled_component_name":"_ZN7android8hardware5radio10deprecated4V1_019BsOemHookIndication11linkToDeathERKNS_2spINS0_20hidl_death_recipientEEEy"
    },
    {
     "mangled_component_name":"_ZN7android8hardware5radio10deprecated4V1_019BsOemHookIndication4pingEv"
    },
    {
     "mangled_component_name":"_ZN7android8hardware5radio10deprecated4V1_019BsOemHookIndication12getDebugInfoENSt3__18functionIFvRKNS_4hidl4base4V1_09DebugInfoEEEE"
    },
    {
     "mangled_component_name":"_ZN7android8hardware5radio10deprecated4V1_019BsOemHookIndication21notifySyspropsChangedEv"
    },
    {
     "mangled_component_name":"_ZN7android8hardware5radio10deprecated4V1_019BsOemHookIndication13unlinkToDeathERKNS_2spINS0_20hidl_death_recipientEEE"
    },
    {
     "kind":"complete_dtor_pointer",
     "mangled_component_name":"_ZN7android8hardware5radio10deprecated4V1_019BsOemHookIndicationD1Ev"
    },
    {
     "kind":"deleting_dtor_pointer",
     "mangled_component_name":"_ZN7android8hardware5radio10deprecated4V1_019BsOemHookIndicationD0Ev"
    },
    {
     "mangled_component_name":"_ZN7android8hardware5radio10deprecated4V1_019BsOemHookIndication10oemHookRawENS1_4V1_019RadioIndicationTypeERKNS0_8hidl_vecIhEE"
    },
    {
     "kind":"offset_to_top",
     "component_value":-4
    },
    {
     "kind":"rtti",
     "mangled_component_name":"_ZTIN7android8hardware5radio10deprecated4V1_019BsOemHookIndicationE"
    },
    {
     "kind":"complete_dtor_pointer",
     "mangled_component_name":"_ZThn4_N7android8hardware5radio10deprecated4V1_019BsOemHookIndicationD1Ev"
    },
    {
     "kind":"deleting_dtor_pointer",
     "mangled_component_name":"_ZThn4_N7android8hardware5radio10deprecated4V1_019BsOemHookIndicationD0Ev"
    },
    {
     "kind":"vcall_offset"
    },
    {
     "kind":"vcall_offset"
    },
    {
     "kind":"vcall_offset"
    },
    {
     "kind":"vcall_offset"
    },
    {
     "kind":"vcall_offset",
     "component_value":-60
    },
    {
     "kind":"offset_to_top",
     "component_value":-60
    },
    {
     "kind":"rtti",
     "mangled_component_name":"_ZTIN7android8hardware5radio10deprecated4V1_019BsOemHookIndicationE"
    },
    {
     "kind":"complete_dtor_pointer",
     "mangled_component_name":"_ZTv0_n12_N7android8hardware5radio10deprecated4V1_019BsOemHookIndicationD1Ev"
    },
    {
     "kind":"deleting_dtor_pointer",
     "mangled_component_name":"_ZTv0_n12_N7android8hardware5radio10deprecated4V1_019BsOemHookIndicationD0Ev"
    },
    {
     "mangled_component_name":"_ZN7android7RefBase10onFirstRefEv"
    },
    {
     "mangled_component_name":"_ZN7android7RefBase15onLastStrongRefEPKv"
    },
    {
     "mangled_component_name":"_ZN7android7RefBase20onIncStrongAttemptedEjPKv"
    },
    {
     "mangled_component_name":"_ZN7android7RefBase13onLastWeakRefEPKv"
    }
   ],
   "unique_id":"_ZTSN7android8hardware5radio10deprecated4V1_019BsOemHookIndicationE"
  }
 ],
 "elf_functions":[
  {
   "binding":"weak",
   "name":"_ZN7android8hardware10fromBinderINS0_5radio10deprecated4V1_016IOemHookResponseENS4_19BpHwOemHookResponseENS4_19BnHwOemHookResponseEEENS_2spIT_EERKNS8_INS0_7IBinderEEE"
  },
  {
   "binding":"weak",
   "name":"_ZN7android8hardware10fromBinderINS0_5radio10deprecated4V1_018IOemHookIndicationENS4_21BpHwOemHookIndicationENS4_21BnHwOemHookIndicationEEENS_2spIT_EERKNS8_INS0_7IBinderEEE"
  },
  {
   "name":"_ZN7android8hardware5radio10deprecated4V1_011BnHwOemHook10onTransactEjRKNS0_6ParcelEPS5_jNSt3__18functionIFvRS5_EEE"
  },
  {
   "name":"_ZN7android8hardware5radio10deprecated4V1_011BnHwOemHook12getDebugInfoENSt3__18functionIFvRKNS_4hidl4base4V1_09DebugInfoEEEE"
  },
  {
   "name":"_ZN7android8hardware5radio10deprecated4V1_011BnHwOemHook20_hidl_sendRequestRawEPNS_4hidl4base4V1_08BnHwBaseERKNS0_6ParcelEPSA_NSt3__18functionIFvRSA_EEE"
  },
  {
   "name":"_ZN7android8hardware5radio10deprecated4V1_011BnHwOemHook24_hidl_sendRequestStringsEPNS_4hidl4base4V1_08BnHwBaseERKNS0_6ParcelEPSA_NSt3__18functionIFvRSA_EEE"
  },
  {
   "name":"_ZN7android8hardware5radio10deprecated4V1_011BnHwOemHook26_hidl_setResponseFunctionsEPNS_4hidl4base4V1_08BnHwBaseERKNS0_6ParcelEPSA_NSt3__18functionIFvRSA_EEE"
  },
  {
   "name":"_ZN7android8hardware5radio10deprecated4V1_011BnHwOemHook4pingEv"
  },
  {
   "name":"_ZN7android8hardware5radio10deprecated4V1_011BnHwOemHookC1ERKNS_2spINS3_8IOemHookEEE"
  },
  {
   "name":"_ZN7android8hardware5radio10deprecated4V1_011BnHwOemHookC2ERKNS_2spINS3_8IOemHookEEE"
  },
  {
   "name":"_ZN7android8hardware5radio10deprecated4V1_011BnHwOemHookD0Ev"
  },
  {
   "name":"_ZN7android8hardware5radio10deprecated4V1_011BnHwOemHookD1Ev"
  },
  {
   "name":"_ZN7android8hardware5radio10deprecated4V1_011BnHwOemHookD2Ev"
  },
  {
   "name":"_ZN7android8hardware5radio10deprecated4V1_011BpHwOemHook11linkToDeathERKNS_2spINS0_20hidl_death_recipientEEEy"
  },
  {
   "name":"_ZN7android8hardware5radio10deprecated4V1_011BpHwOemHook12getDebugInfoENSt3__18functionIFvRKNS_4hidl4base4V1_09DebugInfoEEEE"
  },
  {
   "name":"_ZN7android8hardware5radio10deprecated4V1_011BpHwOemHook12getHashChainENSt3__18functionIFvRKNS0_8hidl_vecINS0_10hidl_arrayIhLj32EJEEEEEEEE"
  },
  {
   "name":"_ZN7android8hardware5radio10deprecated4V1_011BpHwOemHook13unlinkToDeathERKNS_2spINS0_20hidl_death_recipientEEE"
  },
  {
   "name":"_ZN7android8hardware5radio10deprecated4V1_011BpHwOemHook14interfaceChainENSt3__18functionIFvRKNS0_8hidl_vecINS0_11hidl_stringEEEEEE"
  },
  {
   "name":"_ZN7android8hardware5radio10deprecated4V1_011BpHwOemHook14sendRequestRawEiRKNS0_8hidl_vecIhEE"
  },
  {
   "name":"_ZN7android8hardware5radio10deprecated4V1_011BpHwOemHook18sendRequestStringsEiRKNS0_8hidl_vecINS0_11hidl_stringEEE"
  },
  {
   "name":"_ZN7android8hardware5radio10deprecated4V1_011BpHwOemHook19interfaceDescriptorENSt3__18functionIFvRKNS0_11hidl_stringEEEE"
  },
  {
   "name":"_ZN7android8hardware5radio10deprecated4V1_011BpHwOemHook20_hidl_sendRequestRawEPNS0_10IInterfaceEPNS0_7details16HidlInstrumentorEiRKNS0_8hidl_vecIhEE"
  },
  {
   "name":"_ZN7android8hardware5radio10deprecated4V1_011BpHwOemHook20setResponseFunctionsERKNS_2spINS3_16IOemHookResponseEEERKNS5_INS3_18IOemHookIndicationEEE"
  },
  {
   "name":"_ZN7android8hardware5radio10deprecated4V1_011BpHwOemHook21notifySyspropsChangedEv"
  },
  {
   "name":"_ZN7android8hardware5radio10deprecated4V1_011BpHwOemHook21setHALInstrumentationEv"
  },
  {
   "name":"_ZN7android8hardware5radio10deprecated4V1_011BpHwOemHook24_hidl_sendRequestStringsEPNS0_10IInterfaceEPNS0_7details16HidlInstrumentorEiRKNS0_8hidl_vecINS0_11hidl_stringEEE"
  },
  {
   "name":"_ZN7android8hardware5radio10deprecated4V1_011BpHwOemHook26_hidl_setResponseFunctionsEPNS0_10IInterfaceEPNS0_7details16HidlInstrumentorERKNS_2spINS3_16IOemHookResponseEEERKNSA_INS3_18IOemHookIndicationEEE"
  },
  {
   "name":"_ZN7android8hardware5radio10deprecated4V1_011BpHwOemHook4pingEv"
  },
  {
   "name":"_ZN7android8hardware5radio10deprecated4V1_011BpHwOemHook5debugERKNS0_11hidl_handleERKNS0_8hidl_vecINS0_11hidl_stringEEE"
  },
  {
   "name":"_ZN7android8hardware5radio10deprecated4V1_011BpHwOemHookC1ERKNS_2spINS0_7IBinderEEE"
  },
  {
   "name":"_ZN7android8hardware5radio10deprecated4V1_011BpHwOemHookC2ERKNS_2spINS0_7IBinderEEE"
  },
  {
   "name":"_ZN7android8hardware5radio10deprecated4V1_016IOemHookResponse10getServiceERKNSt3__112basic_stringIcNS5_11char_traitsIcEENS5_9allocatorIcEEEEb"
  },
  {
   "name":"_ZN7android8hardware5radio10deprecated4V1_016IOemHookResponse11linkToDeathERKNS_2spINS0_20hidl_death_recipientEEEy"
  },
  {
   "name":"_ZN7android8hardware5radio10deprecated4V1_016IOemHookResponse12getDebugInfoENSt3__18functionIFvRKNS_4hidl4base4V1_09DebugInfoEEEE"
  },
  {
   "name":"_ZN7android8hardware5radio10deprecated4V1_016IOemHookResponse12getHashChainENSt3__18functionIFvRKNS0_8hidl_vecINS0_10hidl_arrayIhLj32EJEEEEEEEE"
  },
  {
   "name":"_ZN7android8hardware5radio10deprecated4V1_016IOemHookResponse13tryGetServiceERKNSt3__112basic_stringIcNS5_11char_traitsIcEENS5_9allocatorIcEEEEb"
  },
  {
   "name":"_ZN7android8hardware5radio10deprecated4V1_016IOemHookResponse13unlinkToDeathERKNS_2spINS0_20hidl_death_recipientEEE"
  },
  {
   "name":"_ZN7android8hardware5radio10deprecated4V1_016IOemHookResponse14interfaceChainENSt3__18functionIFvRKNS0_8hidl_vecINS0_11hidl_stringEEEEEE"
  },
  {
   "name":"_ZN7android8hardware5radio10deprecated4V1_016IOemHookResponse17registerAsServiceERKNSt3__112basic_stringIcNS5_11char_traitsIcEENS5_9allocatorIcEEEE"
  },
  {
   "name":"_ZN7android8hardware5radio10deprecated4V1_016IOemHookResponse19interfaceDescriptorENSt3__18functionIFvRKNS0_11hidl_stringEEEE"
  },
  {
   "name":"_ZN7android8hardware5radio10deprecated4V1_016IOemHookResponse21notifySyspropsChangedEv"
  },
  {
   "name":"_ZN7android8hardware5radio10deprecated4V1_016IOemHookResponse21setHALInstrumentationEv"
  },
  {
   "name":"_ZN7android8hardware5radio10deprecated4V1_016IOemHookResponse24registerForNotificationsERKNSt3__112basic_stringIcNS5_11char_traitsIcEENS5_9allocatorIcEEEERKNS_2spINS_4hidl7manager4V1_020IServiceNotificationEEE"
  },
  {
   "name":"_ZN7android8hardware5radio10deprecated4V1_016IOemHookResponse4pingEv"
  },
  {
   "name":"_ZN7android8hardware5radio10deprecated4V1_016IOemHookResponse5debugERKNS0_11hidl_handleERKNS0_8hidl_vecINS0_11hidl_stringEEE"
  },
  {
   "name":"_ZN7android8hardware5radio10deprecated4V1_016IOemHookResponse8castFromERKNS_2spINS_4hidl4base4V1_05IBaseEEEb"
  },
  {
   "name":"_ZN7android8hardware5radio10deprecated4V1_016IOemHookResponse8castFromERKNS_2spIS4_EEb"
  },
  {
   "name":"_ZN7android8hardware5radio10deprecated4V1_017BsOemHookResponse13addOnewayTaskENSt3__18functionIFvvEEE"
  },
  {
   "name":"_ZN7android8hardware5radio10deprecated4V1_017BsOemHookResponseC1ENS_2spINS3_16IOemHookResponseEEE"
  },
  {
   "name":"_ZN7android8hardware5radio10deprecated4V1_017BsOemHookResponseC2ENS_2spINS3_16IOemHookResponseEEE"
  },
  {
   "name":"_ZN7android8hardware5radio10deprecated4V1_018IOemHookIndication10getServiceERKNSt3__112basic_stringIcNS5_11char_traitsIcEENS5_9allocatorIcEEEEb"
  },
  {
   "name":"_ZN7android8hardware5radio10deprecated4V1_018IOemHookIndication11linkToDeathERKNS_2spINS0_20hidl_death_recipientEEEy"
  },
  {
   "name":"_ZN7android8hardware5radio10deprecated4V1_018IOemHookIndication12getDebugInfoENSt3__18functionIFvRKNS_4hidl4base4V1_09DebugInfoEEEE"
  },
  {
   "name":"_ZN7android8hardware5radio10deprecated4V1_018IOemHookIndication12getHashChainENSt3__18functionIFvRKNS0_8hidl_vecINS0_10hidl_arrayIhLj32EJEEEEEEEE"
  },
  {
   "name":"_ZN7android8hardware5radio10deprecated4V1_018IOemHookIndication13tryGetServiceERKNSt3__112basic_stringIcNS5_11char_traitsIcEENS5_9allocatorIcEEEEb"
  },
  {
   "name":"_ZN7android8hardware5radio10deprecated4V1_018IOemHookIndication13unlinkToDeathERKNS_2spINS0_20hidl_death_recipientEEE"
  },
  {
   "name":"_ZN7android8hardware5radio10deprecated4V1_018IOemHookIndication14interfaceChainENSt3__18functionIFvRKNS0_8hidl_vecINS0_11hidl_stringEEEEEE"
  },
  {
   "name":"_ZN7android8hardware5radio10deprecated4V1_018IOemHookIndication17registerAsServiceERKNSt3__112basic_stringIcNS5_11char_traitsIcEENS5_9allocatorIcEEEE"
  },
  {
   "name":"_ZN7android8hardware5radio10deprecated4V1_018IOemHookIndication19interfaceDescriptorENSt3__18functionIFvRKNS0_11hidl_stringEEEE"
  },
  {
   "name":"_ZN7android8hardware5radio10deprecated4V1_018IOemHookIndication21notifySyspropsChangedEv"
  },
  {
   "name":"_ZN7android8hardware5radio10deprecated4V1_018IOemHookIndication21setHALInstrumentationEv"
  },
  {
   "name":"_ZN7android8hardware5radio10deprecated4V1_018IOemHookIndication24registerForNotificationsERKNSt3__112basic_stringIcNS5_11char_traitsIcEENS5_9allocatorIcEEEERKNS_2spINS_4hidl7manager4V1_020IServiceNotificationEEE"
  },
  {
   "name":"_ZN7android8hardware5radio10deprecated4V1_018IOemHookIndication4pingEv"
  },
  {
   "name":"_ZN7android8hardware5radio10deprecated4V1_018IOemHookIndication5debugERKNS0_11hidl_handleERKNS0_8hidl_vecINS0_11hidl_stringEEE"
  },
  {
   "name":"_ZN7android8hardware5radio10deprecated4V1_018IOemHookIndication8castFromERKNS_2spINS_4hidl4base4V1_05IBaseEEEb"
  },
  {
   "name":"_ZN7android8hardware5radio10deprecated4V1_018IOemHookIndication8castFromERKNS_2spIS4_EEb"
  },
  {
   "name":"_ZN7android8hardware5radio10deprecated4V1_019BnHwOemHookResponse10onTransactEjRKNS0_6ParcelEPS5_jNSt3__18functionIFvRS5_EEE"
  },
  {
   "name":"_ZN7android8hardware5radio10deprecated4V1_019BnHwOemHookResponse12getDebugInfoENSt3__18functionIFvRKNS_4hidl4base4V1_09DebugInfoEEEE"
  },
  {
   "name":"_ZN7android8hardware5radio10deprecated4V1_019BnHwOemHookResponse28_hidl_sendRequestRawResponseEPNS_4hidl4base4V1_08BnHwBaseERKNS0_6ParcelEPSA_NSt3__18functionIFvRSA_EEE"
  },
  {
   "name":"_ZN7android8hardware5radio10deprecated4V1_019BnHwOemHookResponse32_hidl_sendRequestStringsResponseEPNS_4hidl4base4V1_08BnHwBaseERKNS0_6ParcelEPSA_NSt3__18functionIFvRSA_EEE"
  },
  {
   "name":"_ZN7android8hardware5radio10deprecated4V1_019BnHwOemHookResponse4pingEv"
  },
  {
   "name":"_ZN7android8hardware5radio10deprecated4V1_019BnHwOemHookResponseC1ERKNS_2spINS3_16IOemHookResponseEEE"
  },
  {
   "name":"_ZN7android8hardware5radio10deprecated4V1_019BnHwOemHookResponseC2ERKNS_2spINS3_16IOemHookResponseEEE"
  },
  {
   "name":"_ZN7android8hardware5radio10deprecated4V1_019BnHwOemHookResponseD0Ev"
  },
  {
   "name":"_ZN7android8hardware5radio10deprecated4V1_019BnHwOemHookResponseD1Ev"
  },
  {
   "name":"_ZN7android8hardware5radio10deprecated4V1_019BnHwOemHookResponseD2Ev"
  },
  {
   "name":"_ZN7android8hardware5radio10deprecated4V1_019BpHwOemHookResponse11linkToDeathERKNS_2spINS0_20hidl_death_recipientEEEy"
  },
  {
   "name":"_ZN7android8hardware5radio10deprecated4V1_019BpHwOemHookResponse12getDebugInfoENSt3__18functionIFvRKNS_4hidl4base4V1_09DebugInfoEEEE"
  },
  {
   "name":"_ZN7android8hardware5radio10deprecated4V1_019BpHwOemHookResponse12getHashChainENSt3__18functionIFvRKNS0_8hidl_vecINS0_10hidl_arrayIhLj32EJEEEEEEEE"
  },
  {
   "name":"_ZN7android8hardware5radio10deprecated4V1_019BpHwOemHookResponse13unlinkToDeathERKNS_2spINS0_20hidl_death_recipientEEE"
  },
  {
   "name":"_ZN7android8hardware5radio10deprecated4V1_019BpHwOemHookResponse14interfaceChainENSt3__18functionIFvRKNS0_8hidl_vecINS0_11hidl_stringEEEEEE"
  },
  {
   "name":"_ZN7android8hardware5radio10deprecated4V1_019BpHwOemHookResponse19interfaceDescriptorENSt3__18functionIFvRKNS0_11hidl_stringEEEE"
  },
  {
   "name":"_ZN7android8hardware5radio10deprecated4V1_019BpHwOemHookResponse21notifySyspropsChangedEv"
  },
  {
   "name":"_ZN7android8hardware5radio10deprecated4V1_019BpHwOemHookResponse21setHALInstrumentationEv"
  },
  {
   "name":"_ZN7android8hardware5radio10deprecated4V1_019BpHwOemHookResponse22sendRequestRawResponseERKNS1_4V1_017RadioResponseInfoERKNS0_8hidl_vecIhEE"
  },
  {
   "name":"_ZN7android8hardware5radio10deprecated4V1_019BpHwOemHookResponse26sendRequestStringsResponseERKNS1_4V1_017RadioResponseInfoERKNS0_8hidl_vecINS0_11hidl_stringEEE"
  },
  {
   "name":"_ZN7android8hardware5radio10deprecated4V1_019BpHwOemHookResponse28_hidl_sendRequestRawResponseEPNS0_10IInterfaceEPNS0_7details16HidlInstrumentorERKNS1_4V1_017RadioResponseInfoERKNS0_8hidl_vecIhEE"
  },
  {
   "name":"_ZN7android8hardware5radio10deprecated4V1_019BpHwOemHookResponse32_hidl_sendRequestStringsResponseEPNS0_10IInterfaceEPNS0_7details16HidlInstrumentorERKNS1_4V1_017RadioResponseInfoERKNS0_8hidl_vecINS0_11hidl_stringEEE"
  },
  {
   "name":"_ZN7android8hardware5radio10deprecated4V1_019BpHwOemHookResponse4pingEv"
  },
  {
   "name":"_ZN7android8hardware5radio10deprecated4V1_019BpHwOemHookResponse5debugERKNS0_11hidl_handleERKNS0_8hidl_vecINS0_11hidl_stringEEE"
  },
  {
   "name":"_ZN7android8hardware5radio10deprecated4V1_019BpHwOemHookResponseC1ERKNS_2spINS0_7IBinderEEE"
  },
  {
   "name":"_ZN7android8hardware5radio10deprecated4V1_019BpHwOemHookResponseC2ERKNS_2spINS0_7IBinderEEE"
  },
  {
   "name":"_ZN7android8hardware5radio10deprecated4V1_019BsOemHookIndication13addOnewayTaskENSt3__18functionIFvvEEE"
  },
  {
   "name":"_ZN7android8hardware5radio10deprecated4V1_019BsOemHookIndicationC1ENS_2spINS3_18IOemHookIndicationEEE"
  },
  {
   "name":"_ZN7android8hardware5radio10deprecated4V1_019BsOemHookIndicationC2ENS_2spINS3_18IOemHookIndicationEEE"
  },
  {
   "name":"_ZN7android8hardware5radio10deprecated4V1_021BnHwOemHookIndication10onTransactEjRKNS0_6ParcelEPS5_jNSt3__18functionIFvRS5_EEE"
  },
  {
   "name":"_ZN7android8hardware5radio10deprecated4V1_021BnHwOemHookIndication12getDebugInfoENSt3__18functionIFvRKNS_4hidl4base4V1_09DebugInfoEEEE"
  },
  {
   "name":"_ZN7android8hardware5radio10deprecated4V1_021BnHwOemHookIndication16_hidl_oemHookRawEPNS_4hidl4base4V1_08BnHwBaseERKNS0_6ParcelEPSA_NSt3__18functionIFvRSA_EEE"
  },
  {
   "name":"_ZN7android8hardware5radio10deprecated4V1_021BnHwOemHookIndication4pingEv"
  },
  {
   "name":"_ZN7android8hardware5radio10deprecated4V1_021BnHwOemHookIndicationC1ERKNS_2spINS3_18IOemHookIndicationEEE"
  },
  {
   "name":"_ZN7android8hardware5radio10deprecated4V1_021BnHwOemHookIndicationC2ERKNS_2spINS3_18IOemHookIndicationEEE"
  },
  {
   "name":"_ZN7android8hardware5radio10deprecated4V1_021BnHwOemHookIndicationD0Ev"
  },
  {
   "name":"_ZN7android8hardware5radio10deprecated4V1_021BnHwOemHookIndicationD1Ev"
  },
  {
   "name":"_ZN7android8hardware5radio10deprecated4V1_021BnHwOemHookIndicationD2Ev"
  },
  {
   "name":"_ZN7android8hardware5radio10deprecated4V1_021BpHwOemHookIndication10oemHookRawENS1_4V1_019RadioIndicationTypeERKNS0_8hidl_vecIhEE"
  },
  {
   "name":"_ZN7android8hardware5radio10deprecated4V1_021BpHwOemHookIndication11linkToDeathERKNS_2spINS0_20hidl_death_recipientEEEy"
  },
  {
   "name":"_ZN7android8hardware5radio10deprecated4V1_021BpHwOemHookIndication12getDebugInfoENSt3__18functionIFvRKNS_4hidl4base4V1_09DebugInfoEEEE"
  },
  {
   "name":"_ZN7android8hardware5radio10deprecated4V1_021BpHwOemHookIndication12getHashChainENSt3__18functionIFvRKNS0_8hidl_vecINS0_10hidl_arrayIhLj32EJEEEEEEEE"
  },
  {
   "name":"_ZN7android8hardware5radio10deprecated4V1_021BpHwOemHookIndication13unlinkToDeathERKNS_2spINS0_20hidl_death_recipientEEE"
  },
  {
   "name":"_ZN7android8hardware5radio10deprecated4V1_021BpHwOemHookIndication14interfaceChainENSt3__18functionIFvRKNS0_8hidl_vecINS0_11hidl_stringEEEEEE"
  },
  {
   "name":"_ZN7android8hardware5radio10deprecated4V1_021BpHwOemHookIndication16_hidl_oemHookRawEPNS0_10IInterfaceEPNS0_7details16HidlInstrumentorENS1_4V1_019RadioIndicationTypeERKNS0_8hidl_vecIhEE"
  },
  {
   "name":"_ZN7android8hardware5radio10deprecated4V1_021BpHwOemHookIndication19interfaceDescriptorENSt3__18functionIFvRKNS0_11hidl_stringEEEE"
  },
  {
   "name":"_ZN7android8hardware5radio10deprecated4V1_021BpHwOemHookIndication21notifySyspropsChangedEv"
  },
  {
   "name":"_ZN7android8hardware5radio10deprecated4V1_021BpHwOemHookIndication21setHALInstrumentationEv"
  },
  {
   "name":"_ZN7android8hardware5radio10deprecated4V1_021BpHwOemHookIndication4pingEv"
  },
  {
   "name":"_ZN7android8hardware5radio10deprecated4V1_021BpHwOemHookIndication5debugERKNS0_11hidl_handleERKNS0_8hidl_vecINS0_11hidl_stringEEE"
  },
  {
   "name":"_ZN7android8hardware5radio10deprecated4V1_021BpHwOemHookIndicationC1ERKNS_2spINS0_7IBinderEEE"
  },
  {
   "name":"_ZN7android8hardware5radio10deprecated4V1_021BpHwOemHookIndicationC2ERKNS_2spINS0_7IBinderEEE"
  },
  {
   "name":"_ZN7android8hardware5radio10deprecated4V1_08IOemHook10getServiceERKNSt3__112basic_stringIcNS5_11char_traitsIcEENS5_9allocatorIcEEEEb"
  },
  {
   "name":"_ZN7android8hardware5radio10deprecated4V1_08IOemHook11linkToDeathERKNS_2spINS0_20hidl_death_recipientEEEy"
  },
  {
   "name":"_ZN7android8hardware5radio10deprecated4V1_08IOemHook12getDebugInfoENSt3__18functionIFvRKNS_4hidl4base4V1_09DebugInfoEEEE"
  },
  {
   "name":"_ZN7android8hardware5radio10deprecated4V1_08IOemHook12getHashChainENSt3__18functionIFvRKNS0_8hidl_vecINS0_10hidl_arrayIhLj32EJEEEEEEEE"
  },
  {
   "name":"_ZN7android8hardware5radio10deprecated4V1_08IOemHook13tryGetServiceERKNSt3__112basic_stringIcNS5_11char_traitsIcEENS5_9allocatorIcEEEEb"
  },
  {
   "name":"_ZN7android8hardware5radio10deprecated4V1_08IOemHook13unlinkToDeathERKNS_2spINS0_20hidl_death_recipientEEE"
  },
  {
   "name":"_ZN7android8hardware5radio10deprecated4V1_08IOemHook14interfaceChainENSt3__18functionIFvRKNS0_8hidl_vecINS0_11hidl_stringEEEEEE"
  },
  {
   "name":"_ZN7android8hardware5radio10deprecated4V1_08IOemHook17registerAsServiceERKNSt3__112basic_stringIcNS5_11char_traitsIcEENS5_9allocatorIcEEEE"
  },
  {
   "name":"_ZN7android8hardware5radio10deprecated4V1_08IOemHook19interfaceDescriptorENSt3__18functionIFvRKNS0_11hidl_stringEEEE"
  },
  {
   "name":"_ZN7android8hardware5radio10deprecated4V1_08IOemHook21notifySyspropsChangedEv"
  },
  {
   "name":"_ZN7android8hardware5radio10deprecated4V1_08IOemHook21setHALInstrumentationEv"
  },
  {
   "name":"_ZN7android8hardware5radio10deprecated4V1_08IOemHook24registerForNotificationsERKNSt3__112basic_stringIcNS5_11char_traitsIcEENS5_9allocatorIcEEEERKNS_2spINS_4hidl7manager4V1_020IServiceNotificationEEE"
  },
  {
   "name":"_ZN7android8hardware5radio10deprecated4V1_08IOemHook4pingEv"
  },
  {
   "name":"_ZN7android8hardware5radio10deprecated4V1_08IOemHook5debugERKNS0_11hidl_handleERKNS0_8hidl_vecINS0_11hidl_stringEEE"
  },
  {
   "name":"_ZN7android8hardware5radio10deprecated4V1_08IOemHook8castFromERKNS_2spINS_4hidl4base4V1_05IBaseEEEb"
  },
  {
   "name":"_ZN7android8hardware5radio10deprecated4V1_08IOemHook8castFromERKNS_2spIS4_EEb"
  },
  {
   "name":"_ZN7android8hardware5radio10deprecated4V1_09BsOemHook13addOnewayTaskENSt3__18functionIFvvEEE"
  },
  {
   "name":"_ZN7android8hardware5radio10deprecated4V1_09BsOemHookC1ENS_2spINS3_8IOemHookEEE"
  },
  {
   "name":"_ZN7android8hardware5radio10deprecated4V1_09BsOemHookC2ENS_2spINS3_8IOemHookEEE"
  },
  {
   "binding":"weak",
   "name":"_ZN7android8hardware7details13castInterfaceINS0_5radio10deprecated4V1_016IOemHookResponseENS_4hidl4base4V1_05IBaseENS5_19BpHwOemHookResponseEEENS0_6ReturnINS_2spIT_EEEENSD_IT0_EEPKcb"
  },
  {
   "binding":"weak",
   "name":"_ZN7android8hardware7details13castInterfaceINS0_5radio10deprecated4V1_018IOemHookIndicationENS_4hidl4base4V1_05IBaseENS5_21BpHwOemHookIndicationEEENS0_6ReturnINS_2spIT_EEEENSD_IT0_EEPKcb"
  },
  {
   "binding":"weak",
   "name":"_ZN7android8hardware7details13castInterfaceINS0_5radio10deprecated4V1_08IOemHookENS_4hidl4base4V1_05IBaseENS5_11BpHwOemHookEEENS0_6ReturnINS_2spIT_EEEENSD_IT0_EEPKcb"
  },
  {
   "binding":"weak",
   "name":"_ZN7android8hardware7details15wrapPassthroughINS0_5radio10deprecated4V1_016IOemHookResponseEvEENS_2spIT_EES9_"
  },
  {
   "binding":"weak",
   "name":"_ZN7android8hardware7details15wrapPassthroughINS0_5radio10deprecated4V1_018IOemHookIndicationEvEENS_2spIT_EES9_"
  },
  {
   "binding":"weak",
   "name":"_ZN7android8hardware7details18getServiceInternalINS0_5radio10deprecated4V1_011BpHwOemHookENS5_8IOemHookEvvEENS_2spIT0_EERKNSt3__112basic_stringIcNSB_11char_traitsIcEENSB_9allocatorIcEEEEbb"
  },
  {
   "binding":"weak",
   "name":"_ZN7android8hardware7details18getServiceInternalINS0_5radio10deprecated4V1_019BpHwOemHookResponseENS5_16IOemHookResponseEvvEENS_2spIT0_EERKNSt3__112basic_stringIcNSB_11char_traitsIcEENSB_9allocatorIcEEEEbb"
  },
  {
   "binding":"weak",
   "name":"_ZN7android8hardware7details18getServiceInternalINS0_5radio10deprecated4V1_021BpHwOemHookIndicationENS5_18IOemHookIndicationEvvEENS_2spIT0_EERKNSt3__112basic_stringIcNSB_11char_traitsIcEENSB_9allocatorIcEEEEbb"
  },
  {
   "binding":"weak",
   "name":"_ZN7android8hardware8toBinderINS0_5radio10deprecated4V1_016IOemHookResponseEvEENS_2spINS0_7IBinderEEENS6_IT_EE"
  },
  {
   "binding":"weak",
   "name":"_ZN7android8hardware8toBinderINS0_5radio10deprecated4V1_018IOemHookIndicationEvEENS_2spINS0_7IBinderEEENS6_IT_EE"
  },
  {
   "binding":"weak",
   "name":"_ZN7android8hardware8toBinderINS_4hidl4base4V1_05IBaseEvEENS_2spINS0_7IBinderEEENS6_IT_EE"
  },
  {
   "name":"_ZThn20_N7android8hardware5radio10deprecated4V1_011BnHwOemHookD0Ev"
  },
  {
   "name":"_ZThn20_N7android8hardware5radio10deprecated4V1_011BnHwOemHookD1Ev"
  },
  {
   "name":"_ZThn20_N7android8hardware5radio10deprecated4V1_019BnHwOemHookResponseD0Ev"
  },
  {
   "name":"_ZThn20_N7android8hardware5radio10deprecated4V1_019BnHwOemHookResponseD1Ev"
  },
  {
   "name":"_ZThn20_N7android8hardware5radio10deprecated4V1_021BnHwOemHookIndicationD0Ev"
  },
  {
   "name":"_ZThn20_N7android8hardware5radio10deprecated4V1_021BnHwOemHookIndicationD1Ev"
  },
  {
   "name":"_ZTv0_n12_N7android8hardware5radio10deprecated4V1_011BnHwOemHookD0Ev"
  },
  {
   "name":"_ZTv0_n12_N7android8hardware5radio10deprecated4V1_011BnHwOemHookD1Ev"
  },
  {
   "name":"_ZTv0_n12_N7android8hardware5radio10deprecated4V1_019BnHwOemHookResponseD0Ev"
  },
  {
   "name":"_ZTv0_n12_N7android8hardware5radio10deprecated4V1_019BnHwOemHookResponseD1Ev"
  },
  {
   "name":"_ZTv0_n12_N7android8hardware5radio10deprecated4V1_021BnHwOemHookIndicationD0Ev"
  },
  {
   "name":"_ZTv0_n12_N7android8hardware5radio10deprecated4V1_021BnHwOemHookIndicationD1Ev"
  }
 ],
 "elf_objects":[
  {
   "name":"_ZN7android8hardware5radio10deprecated4V1_016IOemHookResponse10descriptorE"
  },
  {
   "name":"_ZN7android8hardware5radio10deprecated4V1_018IOemHookIndication10descriptorE"
  },
  {
   "name":"_ZN7android8hardware5radio10deprecated4V1_08IOemHook10descriptorE"
  },
  {
   "name":"_ZTTN7android8hardware5radio10deprecated4V1_011BnHwOemHookE"
  },
  {
   "name":"_ZTTN7android8hardware5radio10deprecated4V1_011BpHwOemHookE"
  },
  {
   "name":"_ZTTN7android8hardware5radio10deprecated4V1_016IOemHookResponseE"
  },
  {
   "name":"_ZTTN7android8hardware5radio10deprecated4V1_018IOemHookIndicationE"
  },
  {
   "name":"_ZTTN7android8hardware5radio10deprecated4V1_019BnHwOemHookResponseE"
  },
  {
   "name":"_ZTTN7android8hardware5radio10deprecated4V1_019BpHwOemHookResponseE"
  },
  {
   "name":"_ZTTN7android8hardware5radio10deprecated4V1_021BnHwOemHookIndicationE"
  },
  {
   "name":"_ZTTN7android8hardware5radio10deprecated4V1_021BpHwOemHookIndicationE"
  },
  {
   "name":"_ZTTN7android8hardware5radio10deprecated4V1_08IOemHookE"
  },
  {
   "name":"_ZTVN7android8hardware5radio10deprecated4V1_011BnHwOemHookE"
  },
  {
   "name":"_ZTVN7android8hardware5radio10deprecated4V1_011BpHwOemHookE"
  },
  {
   "name":"_ZTVN7android8hardware5radio10deprecated4V1_016IOemHookResponseE"
  },
  {
   "binding":"weak",
   "name":"_ZTVN7android8hardware5radio10deprecated4V1_017BsOemHookResponseE"
  },
  {
   "name":"_ZTVN7android8hardware5radio10deprecated4V1_018IOemHookIndicationE"
  },
  {
   "name":"_ZTVN7android8hardware5radio10deprecated4V1_019BnHwOemHookResponseE"
  },
  {
   "name":"_ZTVN7android8hardware5radio10deprecated4V1_019BpHwOemHookResponseE"
  },
  {
   "binding":"weak",
   "name":"_ZTVN7android8hardware5radio10deprecated4V1_019BsOemHookIndicationE"
  },
  {
   "name":"_ZTVN7android8hardware5radio10deprecated4V1_021BnHwOemHookIndicationE"
  },
  {
   "name":"_ZTVN7android8hardware5radio10deprecated4V1_021BpHwOemHookIndicationE"
  },
  {
   "name":"_ZTVN7android8hardware5radio10deprecated4V1_08IOemHookE"
  },
  {
   "binding":"weak",
   "name":"_ZTVN7android8hardware5radio10deprecated4V1_09BsOemHookE"
  }
 ]
}