{
 "record_types":[
  {
   "vtable_components":[
    {
     "kind":"vbase_offset",
     "component_value":4
    },
    {
     "kind":"offset_to_top"
    },
    {
     "kind":"rtti",
     "mangled_component_name":"_ZTIN7android8hardware2tv5input4V1_016ITvInputCallbackE"
    },
    {
     "mangled_component_name":"_ZNK7android8hardware2tv5input4V1_016ITvInputCallback8isRemoteEv"
    },
    {
     "mangled_component_name":"_ZN7android8hardware2tv5input4V1_016ITvInputCallback14interfaceChainENSt3__18functionIFvRKNS0_8hidl_vecINS0_11hidl_stringEEEEEE"
    },
    {
     "mangled_component_name":"_ZN7android8hardware2tv5input4V1_016ITvInputCallback5debugERKNS0_11hidl_handleERKNS0_8hidl_vecINS0_11hidl_stringEEE"
    },
    {
     "mangled_component_name":"_ZN7android8hardware2tv5input4V1_016ITvInputCallback19interfaceDescriptorENSt3__18functionIFvRKNS0_11hidl_stringEEEE"
    },
    {
     "mangled_component_name":"_ZN7android8hardware2tv5input4V1_016ITvInputCallback12getHashChainENSt3__18functionIFvRKNS0_8hidl_vecINS0_10hidl_arrayIhLj32EJEEEEEEEE"
    },
    {
     "mangled_component_name":"_ZN7android8hardware2tv5input4V1_016ITvInputCallback21setHALInstrumentationEv"
    },
    {
     "mangled_component_name":"_ZN7android8hardware2tv5input4V1_016ITvInputCallback11linkToDeathERKNS_2spINS0_20hidl_death_recipientEEEy"
    },
    {
     "mangled_component_name":"_ZN7android8hardware2tv5input4V1_016ITvInputCallback4pingEv"
    },
    {
     "mangled_component_name":"_ZN7android8hardware2tv5input4V1_016ITvInputCallback12getDebugInfoENSt3__18functionIFvRKNS_4hidl4base4V1_09DebugInfoEEEE"
    },
    {
     "mangled_component_name":"_ZN7android8hardware2tv5input4V1_016ITvInputCallback21notifySyspropsChangedEv"
    },
    {
     "mangled_component_name":"_ZN7android8hardware2tv5input4V1_016ITvInputCallback13unlinkToDeathERKNS_2spINS0_20hidl_death_recipientEEE"
    },
    {
     "kind":"complete_dtor_pointer",
     "mangled_component_name":"_ZN7android8hardware2tv5input4V1_016ITvInputCallbackD1Ev"
    },
    {
     "kind":"deleting_dtor_pointer",
     "mangled_component_name":"_ZN7android8hardware2tv5input4V1_016ITvInputCallbackD0Ev"
    },
    {
     "is_pure":true,
     "mangled_component_name":"_ZN7android8hardware2tv5input4V1_016ITvInputCallback6notifyERKNS3_12TvInputEventE"
    },
    {
     "kind":"vcall_offset"
    },
    {
     "kind":"vcall_offset"
    },
    {
     "kind":"vcall_offset"
    },
    {
     "kind":"vcall_offset"
    },
    {
     "kind":"vcall_offset",
     "component_value":-4
    },
    {
     "kind":"offset_to_top",
     "component_value":-4
    },
    {
     "kind":"rtti",
     "mangled_component_name":"_ZTIN7android8hardware2tv5input4V1_016ITvInputCallbackE"
    },
    {
     "kind":"complete_dtor_pointer",
     "mangled_component_name":"_ZTv0_n12_N7android8hardware2tv5input4V1_016ITvInputCallbackD1Ev"
    },
    {
     "kind":"deleting_dtor_pointer",
     "mangled_component_name":"_ZTv0_n12_N7android8hardware2tv5input4V1_016ITvInputCallbackD0Ev"
    },
    {
     "mangled_component_name":"_ZN7android7RefBase10onFirstRefEv"
    },
    {
     "mangled_component_name":"_ZN7android7RefBase15onLastStrongRefEPKv"
    },
    {
     "mangled_component_name":"_ZN7android7RefBase20onIncStrongAttemptedEjPKv"
    },
    {
     "mangled_component_name":"_ZN7android7RefBase13onLastWeakRefEPKv"
    }
   ],
   "unique_id":"_ZTSN7android8hardware2tv5input4V1_016ITvInputCallbackE"
  },
  {
   "vtable_components":[
    {
     "kind":"vbase_offset",
     "component_value":84
    },
    {
     "kind":"offset_to_top"
    },
    {
     "kind":"rtti",
     "mangled_component_name":"_ZTIN7android8hardware2tv5input4V1_019BpHwTvInputCallbackE"
    },
    {
     "mangled_component_name":"_ZNK7android8hardware2tv5input4V1_019BpHwTvInputCallback8isRemoteEv"
    },
    {
     "mangled_component_name":"_ZN7android8hardware2tv5input4V1_019BpHwTvInputCallback14interfaceChainENSt3__18functionIFvRKNS0_8hidl_vecINS0_11hidl_stringEEEEEE"
    },
    {
     "mangled_component_name":"_ZN7android8hardware2tv5input4V1_019BpHwTvInputCallback5debugERKNS0_11hidl_handleERKNS0_8hidl_vecINS0_11hidl_stringEEE"
    },
    {
     "mangled_component_name":"_ZN7android8hardware2tv5input4V1_019BpHwTvInputCallback19interfaceDescriptorENSt3__18functionIFvRKNS0_11hidl_stringEEEE"
    },
    {
     "mangled_component_name":"_ZN7android8hardware2tv5input4V1_019BpHwTvInputCallback12getHashChainENSt3__18functionIFvRKNS0_8hidl_vecINS0_10hidl_arrayIhLj32EJEEEEEEEE"
    },
    {
     "mangled_component_name":"_ZN7android8hardware2tv5input4V1_019BpHwTvInputCallback21setHALInstrumentationEv"
    },
    {
     "mangled_component_name":"_ZN7android8hardware2tv5input4V1_019BpHwTvInputCallback11linkToDeathERKNS_2spINS0_20hidl_death_recipientEEEy"
    },
    {
     "mangled_component_name":"_ZN7android8hardware2tv5input4V1_019BpHwTvInputCallback4pingEv"
    },
    {
     "mangled_component_name":"_ZN7android8hardware2tv5input4V1_019BpHwTvInputCallback12getDebugInfoENSt3__18functionIFvRKNS_4hidl4base4V1_09DebugInfoEEEE"
    },
    {
     "mangled_component_name":"_ZN7android8hardware2tv5input4V1_019BpHwTvInputCallback21notifySyspropsChangedEv"
    },
    {
     "mangled_component_name":"_ZN7android8hardware2tv5input4V1_019BpHwTvInputCallback13unlinkToDeathERKNS_2spINS0_20hidl_death_recipientEEE"
    },
    {
     "kind":"complete_dtor_pointer",
     "mangled_component_name":"_ZN7android8hardware2tv5input4V1_019BpHwTvInputCallbackD1Ev"
    },
    {
     "kind":"deleting_dtor_pointer",
     "mangled_component_name":"_ZN7android8hardware2tv5input4V1_019BpHwTvInputCallbackD0Ev"
    },
    {
     "mangled_component_name":"_ZN7android8hardware2tv5input4V1_019BpHwTvInputCallback6notifyERKNS3_12TvInputEventE"
    },
    {
     "mangled_component_name":"_ZN7android8hardware11BpInterfaceINS0_2tv5input4V1_016ITvInputCallbackEE10onAsBinderEv"
    },
    {
     "kind":"vbase_offset",
     "component_value":80
    },
    {
     "kind":"offset_to_top",
     "component_value":-4
    },
    {
     "kind":"rtti",
     "mangled_component_name":"_ZTIN7android8hardware2tv5input4V1_019BpHwTvInputCallbackE"
    },
    {
     "kind":"complete_dtor_pointer",
     "mangled_component_name":"_ZThn4_N7android8hardware2tv5input4V1_019BpHwTvInputCallbackD1Ev"
    },
    {
     "kind":"deleting_dtor_pointer",
     "mangled_component_name":"_ZThn4_N7android8hardware2tv5input4V1_019BpHwTvInputCallbackD0Ev"
    },
    {
     "mangled_component_name":"_ZThn4_N7android8hardware11BpInterfaceINS0_2tv5input4V1_016ITvInputCallbackEE10onAsBinderEv"
    },
    {
     "kind":"vbase_offset",
     "component_value":76
    },
    {
     "kind":"offset_to_top",
     "component_value":-8
    },
    {
     "kind":"rtti",
     "mangled_component_name":"_ZTIN7android8hardware2tv5input4V1_019BpHwTvInputCallbackE"
    },
    {
     "kind":"complete_dtor_pointer",
     "mangled_component_name":"_ZThn8_N7android8hardware2tv5input4V1_019BpHwTvInputCallbackD1Ev"
    },
    {
     "kind":"deleting_dtor_pointer",
     "mangled_component_name":"_ZThn8_N7android8hardware2tv5input4V1_019BpHwTvInputCallbackD0Ev"
    },
    {
     "mangled_component_name":"_ZN7android8hardware11BpHwRefBase10onFirstRefEv"
    },
    {
     "mangled_component_name":"_ZN7android8hardware11BpHwRefBase15onLastStrongRefEPKv"
    },
    {
     "mangled_component_name":"_ZN7android8hardware11BpHwRefBase20onIncStrongAttemptedEjPKv"
    },
    {
     "kind":"offset_to_top",
     "component_value":-24
    },
    {
     "kind":"rtti",
     "mangled_component_name":"_ZTIN7android8hardware2tv5input4V1_019BpHwTvInputCallbackE"
    },
    {
     "kind":"complete_dtor_pointer",
     "mangled_component_name":"_ZThn24_N7android8hardware2tv5input4V1_019BpHwTvInputCallbackD1Ev"
    },
    {
     "kind":"deleting_dtor_pointer",
     "mangled_component_name":"_ZThn24_N7android8hardware2tv5input4V1_019BpHwTvInputCallbackD0Ev"
    },
    {
     "kind":"vcall_offset"
    },
    {
     "kind":"vcall_offset",
     "component_value":-76
    },
    {
     "kind":"vcall_offset",
     "component_value":-76
    },
    {
     "kind":"vcall_offset",
     "component_value":-76
    },
    {
     "kind":"vcall_offset",
     "component_value":-84
    },
    {
     "kind":"offset_to_top",
     "component_value":-84
    },
    {
     "kind":"rtti",
     "mangled_component_name":"_ZTIN7android8hardware2tv5input4V1_019BpHwTvInputCallbackE"
    },
    {
     "kind":"complete_dtor_pointer",
     "mangled_component_name":"_ZTv0_n12_N7android8hardware2tv5input4V1_019BpHwTvInputCallbackD1Ev"
    },
    {
     "kind":"deleting_dtor_pointer",
     "mangled_component_name":"_ZTv0_n12_N7android8hardware2tv5input4V1_019BpHwTvInputCallbackD0Ev"
    },
    {
     "mangled_component_name":"_ZTv0_n16_N7android8hardware11BpHwRefBase10onFirstRefEv"
    },
    {
     "mangled_component_name":"_ZTv0_n20_N7android8hardware11BpHwRefBase15onLastStrongRefEPKv"
    },
    {
     "mangled_component_name":"_ZTv0_n24_N7android8hardware11BpHwRefBase20onIncStrongAttemptedEjPKv"
    },
    {
     "mangled_component_name":"_ZN7android7RefBase13onLastWeakRefEPKv"
    }
   ],
   "unique_id":"_ZTSN7android8hardware2tv5input4V1_019BpHwTvInputCallbackE"
  },
  {
   "vtable_components":[
    {
     "kind":"vbase_offset",
     "component_value":84
    },
    {
     "kind":"offset_to_top"
    },
    {
     "kind":"rtti",
     "mangled_component_name":"_ZTIN7android8hardware2tv5input4V1_011BpHwTvInputE"
    },
    {
     "mangled_component_name":"_ZNK7android8hardware2tv5input4V1_011BpHwTvInput8isRemoteEv"
    },
    {
     "mangled_component_name":"_ZN7android8hardware2tv5input4V1_011BpHwTvInput14interfaceChainENSt3__18functionIFvRKNS0_8hidl_vecINS0_11hidl_stringEEEEEE"
    },
    {
     "mangled_component_name":"_ZN7android8hardware2tv5input4V1_011BpHwTvInput5debugERKNS0_11hidl_handleERKNS0_8hidl_vecINS0_11hidl_stringEEE"
    },
    {
     "mangled_component_name":"_ZN7android8hardware2tv5input4V1_011BpHwTvInput19interfaceDescriptorENSt3__18functionIFvRKNS0_11hidl_stringEEEE"
    },
    {
     "mangled_component_name":"_ZN7android8hardware2tv5input4V1_011BpHwTvInput12getHashChainENSt3__18functionIFvRKNS0_8hidl_vecINS0_10hidl_arrayIhLj32EJEEEEEEEE"
    },
    {
     "mangled_component_name":"_ZN7android8hardware2tv5input4V1_011BpHwTvInput21setHALInstrumentationEv"
    },
    {
     "mangled_component_name":"_ZN7android8hardware2tv5input4V1_011BpHwTvInput11linkToDeathERKNS_2spINS0_20hidl_death_recipientEEEy"
    },
    {
     "mangled_component_name":"_ZN7android8hardware2tv5input4V1_011BpHwTvInput4pingEv"
    },
    {
     "mangled_component_name":"_ZN7android8hardware2tv5input4V1_011BpHwTvInput12getDebugInfoENSt3__18functionIFvRKNS_4hidl4base4V1_09DebugInfoEEEE"
    },
    {
     "mangled_component_name":"_ZN7android8hardware2tv5input4V1_011BpHwTvInput21notifySyspropsChangedEv"
    },
    {
     "mangled_component_name":"_ZN7android8hardware2tv5input4V1_011BpHwTvInput13unlinkToDeathERKNS_2spINS0_20hidl_death_recipientEEE"
    },
    {
     "kind":"complete_dtor_pointer",
     "mangled_component_name":"_ZN7android8hardware2tv5input4V1_011BpHwTvInputD1Ev"
    },
    {
     "kind":"deleting_dtor_pointer",
     "mangled_component_name":"_ZN7android8hardware2tv5input4V1_011BpHwTvInputD0Ev"
    },
    {
     "mangled_component_name":"_ZN7android8hardware2tv5input4V1_011BpHwTvInput11setCallbackERKNS_2spINS3_16ITvInputCallbackEEE"
    },
    {
     "mangled_component_name":"_ZN7android8hardware2tv5input4V1_011BpHwTvInput23getStreamConfigurationsEiNSt3__18functionIFvNS3_6ResultERKNS0_8hidl_vecINS3_14TvStreamConfigEEEEEE"
    },
    {
     "mangled_component_name":"_ZN7android8hardware2tv5input4V1_011BpHwTvInput10openStreamEiiNSt3__18functionIFvNS3_6ResultERKNS0_11hidl_handleEEEE"
    },
    {
     "mangled_component_name":"_ZN7android8hardware2tv5input4V1_011BpHwTvInput11closeStreamEii"
    },
    {
     "mangled_component_name":"_ZN7android8hardware11BpInterfaceINS0_2tv5input4V1_08ITvInputEE10onAsBinderEv"
    },
    {
     "kind":"vbase_offset",
     "component_value":80
    },
    {
     "kind":"offset_to_top",
     "component_value":-4
    },
    {
     "kind":"rtti",
     "mangled_component_name":"_ZTIN7android8hardware2tv5input4V1_011BpHwTvInputE"
    },
    {
     "kind":"complete_dtor_pointer",
     "mangled_component_name":"_ZThn4_N7android8hardware2tv5input4V1_011BpHwTvInputD1Ev"
    },
    {
     "kind":"deleting_dtor_pointer",
     "mangled_component_name":"_ZThn4_N7android8hardware2tv5input4V1_011BpHwTvInputD0Ev"
    },
    {
     "mangled_component_name":"_ZThn4_N7android8hardware11BpInterfaceINS0_2tv5input4V1_08ITvInputEE10onAsBinderEv"
    },
    {
     "kind":"vbase_offset",
     "component_value":76
    },
    {
     "kind":"offset_to_top",
     "component_value":-8
    },
    {
     "kind":"rtti",
     "mangled_component_name":"_ZTIN7android8hardware2tv5input4V1_011BpHwTvInputE"
    },
    {
     "kind":"complete_dtor_pointer",
     "mangled_component_name":"_ZThn8_N7android8hardware2tv5input4V1_011BpHwTvInputD1Ev"
    },
    {
     "kind":"deleting_dtor_pointer",
     "mangled_component_name":"_ZThn8_N7android8hardware2tv5input4V1_011BpHwTvInputD0Ev"
    },
    {
     "mangled_component_name":"_ZN7android8hardware11BpHwRefBase10onFirstRefEv"
    },
    {
     "mangled_component_name":"_ZN7android8hardware11BpHwRefBase15onLastStrongRefEPKv"
    },
    {
     "mangled_component_name":"_ZN7android8hardware11BpHwRefBase20onIncStrongAttemptedEjPKv"
    },
    {
     "kind":"offset_to_top",
     "component_value":-24
    },
    {
     "kind":"rtti",
     "mangled_component_name":"_ZTIN7android8hardware2tv5input4V1_011BpHwTvInputE"
    },
    {
     "kind":"complete_dtor_pointer",
     "mangled_component_name":"_ZThn24_N7android8hardware2tv5input4V1_011BpHwTvInputD1Ev"
    },
    {
     "kind":"deleting_dtor_pointer",
     "mangled_component_name":"_ZThn24_N7android8hardware2tv5input4V1_011BpHwTvInputD0Ev"
    },
    {
     "kind":"vcall_offset"
    },
    {
     "kind":"vcall_offset",
     "component_value":-76
    },
    {
     "kind":"vcall_offset",
     "component_value":-76
    },
    {
     "kind":"vcall_offset",
     "component_value":-76
    },
    {
     "kind":"vcall_offset",
     "component_value":-84
    },
    {
     "kind":"offset_to_top",
     "component_value":-84
    },
    {
     "kind":"rtti",
     "mangled_component_name":"_ZTIN7android8hardware2tv5input4V1_011BpHwTvInputE"
    },
    {
     "kind":"complete_dtor_pointer",
     "mangled_component_name":"_ZTv0_n12_N7android8hardware2tv5input4V1_011BpHwTvInputD1Ev"
    },
    {
     "kind":"deleting_dtor_pointer",
     "mangled_component_name":"_ZTv0_n12_N7android8hardware2tv5input4V1_011BpHwTvInputD0Ev"
    },
    {
     "mangled_component_name":"_ZTv0_n16_N7android8hardware11BpHwRefBase10onFirstRefEv"
    },
    {
     "mangled_component_name":"_ZTv0_n20_N7android8hardware11BpHwRefBase15onLastStrongRefEPKv"
    },
    {
     "mangled_component_name":"_ZTv0_n24_N7android8hardware11BpHwRefBase20onIncStrongAttemptedEjPKv"
    },
    {
     "mangled_component_name":"_ZN7android7RefBase13onLastWeakRefEPKv"
    }
   ],
   "unique_id":"_ZTSN7android8hardware2tv5input4V1_011BpHwTvInputE"
  },
  {
   "vtable_components":[
    {
     "kind":"vbase_offset",
     "component_value":4
    },
    {
     "kind":"offset_to_top"
    },
    {
     "kind":"rtti",
     "mangled_component_name":"_ZTIN7android8hardware2tv5input4V1_08ITvInputE"
    },
    {
     "mangled_component_name":"_ZNK7android8hardware2tv5input4V1_08ITvInput8isRemoteEv"
    },
    {
     "mangled_component_name":"_ZN7android8hardware2tv5input4V1_08ITvInput14interfaceChainENSt3__18functionIFvRKNS0_8hidl_vecINS0_11hidl_stringEEEEEE"
    },
    {
     "mangled_component_name":"_ZN7android8hardware2tv5input4V1_08ITvInput5debugERKNS0_11hidl_handleERKNS0_8hidl_vecINS0_11hidl_stringEEE"
    },
    {
     "mangled_component_name":"_ZN7android8hardware2tv5input4V1_08ITvInput19interfaceDescriptorENSt3__18functionIFvRKNS0_11hidl_stringEEEE"
    },
    {
     "mangled_component_name":"_ZN7android8hardware2tv5input4V1_08ITvInput12getHashChainENSt3__18functionIFvRKNS0_8hidl_vecINS0_10hidl_arrayIhLj32EJEEEEEEEE"
    },
    {
     "mangled_component_name":"_ZN7android8hardware2tv5input4V1_08ITvInput21setHALInstrumentationEv"
    },
    {
     "mangled_component_name":"_ZN7android8hardware2tv5input4V1_08ITvInput11linkToDeathERKNS_2spINS0_20hidl_death_recipientEEEy"
    },
    {
     "mangled_component_name":"_ZN7android8hardware2tv5input4V1_08ITvInput4pingEv"
    },
    {
     "mangled_component_name":"_ZN7android8hardware2tv5input4V1_08ITvInput12getDebugInfoENSt3__18functionIFvRKNS_4hidl4base4V1_09DebugInfoEEEE"
    },
    {
     "mangled_component_name":"_ZN7android8hardware2tv5input4V1_08ITvInput21notifySyspropsChangedEv"
    },
    {
     "mangled_component_name":"_ZN7android8hardware2tv5input4V1_08ITvInput13unlinkToDeathERKNS_2spINS0_20hidl_death_recipientEEE"
    },
    {
     "kind":"complete_dtor_pointer",
     "mangled_component_name":"_ZN7android8hardware2tv5input4V1_08ITvInputD1Ev"
    },
    {
     "kind":"deleting_dtor_pointer",
     "mangled_component_name":"_ZN7android8hardware2tv5input4V1_08ITvInputD0Ev"
    },
    {
     "is_pure":true,
     "mangled_component_name":"_ZN7android8hardware2tv5input4V1_08ITvInput11setCallbackERKNS_2spINS3_16ITvInputCallbackEEE"
    },
    {
     "is_pure":true,
     "mangled_component_name":"_ZN7android8hardware2tv5input4V1_08ITvInput23getStreamConfigurationsEiNSt3__18functionIFvNS3_6ResultERKNS0_8hidl_vecINS3_14TvStreamConfigEEEEEE"
    },
    {
     "is_pure":true,
     "mangled_component_name":"_ZN7android8hardware2tv5input4V1_08ITvInput10openStreamEiiNSt3__18functionIFvNS3_6ResultERKNS0_11hidl_handleEEEE"
    },
    {
     "is_pure":true,
     "mangled_component_name":"_ZN7android8hardware2tv5input4V1_08ITvInput11closeStreamEii"
    },
    {
     "kind":"vcall_offset"
    },
    {
     "kind":"vcall_offset"
    },
    {
     "kind":"vcall_offset"
    },
    {
     "kind":"vcall_offset"
    },
    {
     "kind":"vcall_offset",
     "component_value":-4
    },
    {
     "kind":"offset_to_top",
     "component_value":-4
    },
    {
     "kind":"rtti",
     "mangled_component_name":"_ZTIN7android8hardware2tv5input4V1_08ITvInputE"
    },
    {
     "kind":"complete_dtor_pointer",
     "mangled_component_name":"_ZTv0_n12_N7android8hardware2tv5input4V1_08ITvInputD1Ev"
    },
    {
     "kind":"deleting_dtor_pointer",
     "mangled_component_name":"_ZTv0_n12_N7android8hardware2tv5input4V1_08ITvInputD0Ev"
    },
    {
     "mangled_component_name":"_ZN7android7RefBase10onFirstRefEv"
    },
    {
     "mangled_component_name":"_ZN7android7RefBase15onLastStrongRefEPKv"
    },
    {
     "mangled_component_name":"_ZN7android7RefBase20onIncStrongAttemptedEjPKv"
    },
    {
     "mangled_component_name":"_ZN7android7RefBase13onLastWeakRefEPKv"
    }
   ],
   "unique_id":"_ZTSN7android8hardware2tv5input4V1_08ITvInputE"
  },
  {
   "vtable_components":[
    {
     "kind":"vbase_offset",
     "component_value":72
    },
    {
     "kind":"offset_to_top"
    },
    {
     "kind":"rtti",
     "mangled_component_name":"_ZTIN7android8hardware2tv5input4V1_019BnHwTvInputCallbackE"
    },
    {
     "mangled_component_name":"_ZN7android8hardware9BHwBinder8transactEjRKNS0_6ParcelEPS2_jNSt3__18functionIFvRS2_EEE"
    },
    {
     "mangled_component_name":"_ZN7android8hardware9BHwBinder11linkToDeathERKNS_2spINS0_7IBinder14DeathRecipientEEEPvj"
    },
    {
     "mangled_component_name":"_ZN7android8hardware9BHwBinder13unlinkToDeathERKNS_2wpINS0_7IBinder14DeathRecipientEEEPvjPS5_"
    },
    {
     "mangled_component_name":"_ZNK7android8hardware7IBinder13checkSubclassEPKv"
    },
    {
     "mangled_component_name":"_ZN7android8hardware9BHwBinder12attachObjectEPKvPvS4_PFvS3_S4_S4_E"
    },
    {
     "mangled_component_name":"_ZNK7android8hardware9BHwBinder10findObjectEPKv"
    },
    {
     "mangled_component_name":"_ZN7android8hardware9BHwBinder12detachObjectEPKv"
    },
    {
     "mangled_component_name":"_ZN7android8hardware9BHwBinder11localBinderEv"
    },
    {
     "mangled_component_name":"_ZN7android8hardware7IBinder12remoteBinderEv"
    },
    {
     "kind":"complete_dtor_pointer",
     "mangled_component_name":"_ZN7android8hardware2tv5input4V1_019BnHwTvInputCallbackD1Ev"
    },
    {
     "kind":"deleting_dtor_pointer",
     "mangled_component_name":"_ZN7android8hardware2tv5input4V1_019BnHwTvInputCallbackD0Ev"
    },
    {
     "mangled_component_name":"_ZN7android8hardware2tv5input4V1_019BnHwTvInputCallback10onTransactEjRKNS0_6ParcelEPS5_jNSt3__18functionIFvRS5_EEE"
    },
    {
     "kind":"offset_to_top",
     "component_value":-20
    },
    {
     "kind":"rtti",
     "mangled_component_name":"_ZTIN7android8hardware2tv5input4V1_019BnHwTvInputCallbackE"
    },
    {
     "kind":"complete_dtor_pointer",
     "mangled_component_name":"_ZThn20_N7android8hardware2tv5input4V1_019BnHwTvInputCallbackD1Ev"
    },
    {
     "kind":"deleting_dtor_pointer",
     "mangled_component_name":"_ZThn20_N7android8hardware2tv5input4V1_019BnHwTvInputCallbackD0Ev"
    },
    {
     "kind":"vcall_offset"
    },
    {
     "kind":"vcall_offset"
    },
    {
     "kind":"vcall_offset"
    },
    {
     "kind":"vcall_offset"
    },
    {
     "kind":"vcall_offset",
     "component_value":-72
    },
    {
     "kind":"offset_to_top",
     "component_value":-72
    },
    {
     "kind":"rtti",
     "mangled_component_name":"_ZTIN7android8hardware2tv5input4V1_019BnHwTvInputCallbackE"
    },
    {
     "kind":"complete_dtor_pointer",
     "mangled_component_name":"_ZTv0_n12_N7android8hardware2tv5input4V1_019BnHwTvInputCallbackD1Ev"
    },
    {
     "kind":"deleting_dtor_pointer",
     "mangled_component_name":"_ZTv0_n12_N7android8hardware2tv5input4V1_019BnHwTvInputCallbackD0Ev"
    },
    {
     "mangled_component_name":"_ZN7android7RefBase10onFirstRefEv"
    },
    {
     "mangled_component_name":"_ZN7android7RefBase15onLastStrongRefEPKv"
    },
    {
     "mangled_component_name":"_ZN7android7RefBase20onIncStrongAttemptedEjPKv"
    },
    {
     "mangled_component_name":"_ZN7android7RefBase13onLastWeakRefEPKv"
    }
   ],
   "unique_id":"_ZTSN7android8hardware2tv5input4V1_019BnHwTvInputCallbackE"
  },
  {
   "vtable_components":[
    {
     "kind":"vbase_offset",
     "component_value":72
    },
    {
     "kind":"offset_to_top"
    },
    {
     "kind":"rtti",
     "mangled_component_name":"_ZTIN7android8hardware2tv5input4V1_011BnHwTvInputE"
    },
    {
     "mangled_component_name":"_ZN7android8hardware9BHwBinder8transactEjRKNS0_6ParcelEPS2_jNSt3__18functionIFvRS2_EEE"
    },
    {
     "mangled_component_name":"_ZN7android8hardware9BHwBinder11linkToDeathERKNS_2spINS0_7IBinder14DeathRecipientEEEPvj"
    },
    {
     "mangled_component_name":"_ZN7android8hardware9BHwBinder13unlinkToDeathERKNS_2wpINS0_7IBinder14DeathRecipientEEEPvjPS5_"
    },
    {
     "mangled_component_name":"_ZNK7android8hardware7IBinder13checkSubclassEPKv"
    },
    {
     "mangled_component_name":"_ZN7android8hardware9BHwBinder12attachObjectEPKvPvS4_PFvS3_S4_S4_E"
    },
    {
     "mangled_component_name":"_ZNK7android8hardware9BHwBinder10findObjectEPKv"
    },
    {
     "mangled_component_name":"_ZN7android8hardware9BHwBinder12detachObjectEPKv"
    },
    {
     "mangled_component_name":"_ZN7android8hardware9BHwBinder11localBinderEv"
    },
    {
     "mangled_component_name":"_ZN7android8hardware7IBinder12remoteBinderEv"
    },
    {
     "kind":"complete_dtor_pointer",
     "mangled_component_name":"_ZN7android8hardware2tv5input4V1_011BnHwTvInputD1Ev"
    },
    {
     "kind":"deleting_dtor_pointer",
     "mangled_component_name":"_ZN7android8hardware2tv5input4V1_011BnHwTvInputD0Ev"
    },
    {
     "mangled_component_name":"_ZN7android8hardware2tv5input4V1_011BnHwTvInput10onTransactEjRKNS0_6ParcelEPS5_jNSt3__18functionIFvRS5_EEE"
    },
    {
     "kind":"offset_to_top",
     "component_value":-20
    },
    {
     "kind":"rtti",
     "mangled_component_name":"_ZTIN7android8hardware2tv5input4V1_011BnHwTvInputE"
    },
    {
     "kind":"complete_dtor_pointer",
     "mangled_component_name":"_ZThn20_N7android8hardware2tv5input4V1_011BnHwTvInputD1Ev"
    },
    {
     "kind":"deleting_dtor_pointer",
     "mangled_component_name":"_ZThn20_N7android8hardware2tv5input4V1_011BnHwTvInputD0Ev"
    },
    {
     "kind":"vcall_offset"
    },
    {
     "kind":"vcall_offset"
    },
    {
     "kind":"vcall_offset"
    },
    {
     "kind":"vcall_offset"
    },
    {
     "kind":"vcall_offset",
     "component_value":-72
    },
    {
     "kind":"offset_to_top",
     "component_value":-72
    },
    {
     "kind":"rtti",
     "mangled_component_name":"_ZTIN7android8hardware2tv5input4V1_011BnHwTvInputE"
    },
    {
     "kind":"complete_dtor_pointer",
     "mangled_component_name":"_ZTv0_n12_N7android8hardware2tv5input4V1_011BnHwTvInputD1Ev"
    },
    {
     "kind":"deleting_dtor_pointer",
     "mangled_component_name":"_ZTv0_n12_N7android8hardware2tv5input4V1_011BnHwTvInputD0Ev"
    },
    {
     "mangled_component_name":"_ZN7android7RefBase10onFirstRefEv"
    },
    {
     "mangled_component_name":"_ZN7android7RefBase15onLastStrongRefEPKv"
    },
    {
     "mangled_component_name":"_ZN7android7RefBase20onIncStrongAttemptedEjPKv"
    },
    {
     "mangled_component_name":"_ZN7android7RefBase13onLastWeakRefEPKv"
    }
   ],
   "unique_id":"_ZTSN7android8hardware2tv5input4V1_011BnHwTvInputE"
  },
  {
   "vtable_components":[
    {
     "kind":"vbase_offset",
     "component_value":60
    },
    {
     "kind":"offset_to_top"
    },
    {
     "kind":"rtti",
     "mangled_component_name":"_ZTIN7android8hardware2tv5input4V1_09BsTvInputE"
    },
    {
     "mangled_component_name":"_ZNK7android8hardware2tv5input4V1_08ITvInput8isRemoteEv"
    },
    {
     "mangled_component_name":"_ZN7android8hardware2tv5input4V1_09BsTvInput14interfaceChainENSt3__18functionIFvRKNS0_8hidl_vecINS0_11hidl_stringEEEEEE"
    },
    {
     "mangled_component_name":"_ZN7android8hardware2tv5input4V1_09BsTvInput5debugERKNS0_11hidl_handleERKNS0_8hidl_vecINS0_11hidl_stringEEE"
    },
    {
     "mangled_component_name":"_ZN7android8hardware2tv5input4V1_09BsTvInput19interfaceDescriptorENSt3__18functionIFvRKNS0_11hidl_stringEEEE"
    },
    {
     "mangled_component_name":"_ZN7android8hardware2tv5input4V1_09BsTvInput12getHashChainENSt3__18functionIFvRKNS0_8hidl_vecINS0_10hidl_arrayIhLj32EJEEEEEEEE"
    },
    {
     "mangled_component_name":"_ZN7android8hardware2tv5input4V1_09BsTvInput21setHALInstrumentationEv"
    },
    {
     "mangled_component_name":"_ZN7android8hardware2tv5input4V1_09BsTvInput11linkToDeathERKNS_2spINS0_20hidl_death_recipientEEEy"
    },
    {
     "mangled_component_name":"_ZN7android8hardware2tv5input4V1_09BsTvInput4pingEv"
    },
    {
     "mangled_component_name":"_ZN7android8hardware2tv5input4V1_09BsTvInput12getDebugInfoENSt3__18functionIFvRKNS_4hidl4base4V1_09DebugInfoEEEE"
    },
    {
     "mangled_component_name":"_ZN7android8hardware2tv5input4V1_09BsTvInput21notifySyspropsChangedEv"
    },
    {
     "mangled_component_name":"_ZN7android8hardware2tv5input4V1_09BsTvInput13unlinkToDeathERKNS_2spINS0_20hidl_death_recipientEEE"
    },
    {
     "kind":"complete_dtor_pointer",
     "mangled_component_name":"_ZN7android8hardware2tv5input4V1_09BsTvInputD1Ev"
    },
    {
     "kind":"deleting_dtor_pointer",
     "mangled_component_name":"_ZN7android8hardware2tv5input4V1_09BsTvInputD0Ev"
    },
    {
     "mangled_component_name":"_ZN7android8hardware2tv5input4V1_09BsTvInput11setCallbackERKNS_2spINS3_16ITvInputCallbackEEE"
    },
    {
     "mangled_component_name":"_ZN7android8hardware2tv5input4V1_09BsTvInput23getStreamConfigurationsEiNSt3__18functionIFvNS3_6ResultERKNS0_8hidl_vecINS3_14TvStreamConfigEEEEEE"
    },
    {
     "mangled_component_name":"_ZN7android8hardware2tv5input4V1_09BsTvInput10openStreamEiiNSt3__18functionIFvNS3_6ResultERKNS0_11hidl_handleEEEE"
    },
    {
     "mangled_component_name":"_ZN7android8hardware2tv5input4V1_09BsTvInput11closeStreamEii"
    },
    {
     "kind":"offset_to_top",
     "component_value":-4
    },
    {
     "kind":"rtti",
     "mangled_component_name":"_ZTIN7android8hardware2tv5input4V1_09BsTvInputE"
    },
    {
     "kind":"complete_dtor_pointer",
     "mangled_component_name":"_ZThn4_N7android8hardware2tv5input4V1_09BsTvInputD1Ev"
    },
    {
     "kind":"deleting_dtor_pointer",
     "mangled_component_name":"_ZThn4_N7android8hardware2tv5input4V1_09BsTvInputD0Ev"
    },
    {
     "kind":"vcall_offset"
    },
    {
     "kind":"vcall_offset"
    },
    {
     "kind":"vcall_offset"
    },
    {
     "kind":"vcall_offset"
    },
    {
     "kind":"vcall_offset",
     "component_value":-60
    },
    {
     "kind":"offset_to_top",
     "component_value":-60
    },
    {
     "kind":"rtti",
     "mangled_component_name":"_ZTIN7android8hardware2tv5input4V1_09BsTvInputE"
    },
    {
     "kind":"complete_dtor_pointer",
     "mangled_component_name":"_ZTv0_n12_N7android8hardware2tv5input4V1_09BsTvInputD1Ev"
    },
    {
     "kind":"deleting_dtor_pointer",
     "mangled_component_name":"_ZTv0_n12_N7android8hardware2tv5input4V1_09BsTvInputD0Ev"
    },
    {
     "mangled_component_name":"_ZN7android7RefBase10onFirstRefEv"
    },
    {
     "mangled_component_name":"_ZN7android7RefBase15onLastStrongRefEPKv"
    },
    {
     "mangled_component_name":"_ZN7android7RefBase20onIncStrongAttemptedEjPKv"
    },
    {
     "mangled_component_name":"_ZN7android7RefBase13onLastWeakRefEPKv"
    }
   ],
   "unique_id":"_ZTSN7android8hardware2tv5input4V1_09BsTvInputE"
  },
  {
   "vtable_components":[
    {
     "kind":"vbase_offset",
     "component_value":60
    },
    {
     "kind":"offset_to_top"
    },
    {
     "kind":"rtti",
     "mangled_component_name":"_ZTIN7android8hardware2tv5input4V1_017BsTvInputCallbackE"
    },
    {
     "mangled_component_name":"_ZNK7android8hardware2tv5input4V1_016ITvInputCallback8isRemoteEv"
    },
    {
     "mangled_component_name":"_ZN7android8hardware2tv5input4V1_017BsTvInputCallback14interfaceChainENSt3__18functionIFvRKNS0_8hidl_vecINS0_11hidl_stringEEEEEE"
    },
    {
     "mangled_component_name":"_ZN7android8hardware2tv5input4V1_017BsTvInputCallback5debugERKNS0_11hidl_handleERKNS0_8hidl_vecINS0_11hidl_stringEEE"
    },
    {
     "mangled_component_name":"_ZN7android8hardware2tv5input4V1_017BsTvInputCallback19interfaceDescriptorENSt3__18functionIFvRKNS0_11hidl_stringEEEE"
    },
    {
     "mangled_component_name":"_ZN7android8hardware2tv5input4V1_017BsTvInputCallback12getHashChainENSt3__18functionIFvRKNS0_8hidl_vecINS0_10hidl_arrayIhLj32EJEEEEEEEE"
    },
    {
     "mangled_component_name":"_ZN7android8hardware2tv5input4V1_017BsTvInputCallback21setHALInstrumentationEv"
    },
    {
     "mangled_component_name":"_ZN7android8hardware2tv5input4V1_017BsTvInputCallback11linkToDeathERKNS_2spINS0_20hidl_death_recipientEEEy"
    },
    {
     "mangled_component_name":"_ZN7android8hardware2tv5input4V1_017BsTvInputCallback4pingEv"
    },
    {
     "mangled_component_name":"_ZN7android8hardware2tv5input4V1_017BsTvInputCallback12getDebugInfoENSt3__18functionIFvRKNS_4hidl4base4V1_09DebugInfoEEEE"
    },
    {
     "mangled_component_name":"_ZN7android8hardware2tv5input4V1_017BsTvInputCallback21notifySyspropsChangedEv"
    },
    {
     "mangled_component_name":"_ZN7android8hardware2tv5input4V1_017BsTvInputCallback13unlinkToDeathERKNS_2spINS0_20hidl_death_recipientEEE"
    },
    {
     "kind":"complete_dtor_pointer",
     "mangled_component_name":"_ZN7android8hardware2tv5input4V1_017BsTvInputCallbackD1Ev"
    },
    {
     "kind":"deleting_dtor_pointer",
     "mangled_component_name":"_ZN7android8hardware2tv5input4V1_017BsTvInputCallbackD0Ev"
    },
    {
     "mangled_component_name":"_ZN7android8hardware2tv5input4V1_017BsTvInputCallback6notifyERKNS3_12TvInputEventE"
    },
    {
     "kind":"offset_to_top",
     "component_value":-4
    },
    {
     "kind":"rtti",
     "mangled_component_name":"_ZTIN7android8hardware2tv5input4V1_017BsTvInputCallbackE"
    },
    {
     "kind":"complete_dtor_pointer",
     "mangled_component_name":"_ZThn4_N7android8hardware2tv5input4V1_017BsTvInputCallbackD1Ev"
    },
    {
     "kind":"deleting_dtor_pointer",
     "mangled_component_name":"_ZThn4_N7android8hardware2tv5input4V1_017BsTvInputCallbackD0Ev"
    },
    {
     "kind":"vcall_offset"
    },
    {
     "kind":"vcall_offset"
    },
    {
     "kind":"vcall_offset"
    },
    {
     "kind":"vcall_offset"
    },
    {
     "kind":"vcall_offset",
     "component_value":-60
    },
    {
     "kind":"offset_to_top",
     "component_value":-60
    },
    {
     "kind":"rtti",
     "mangled_component_name":"_ZTIN7android8hardware2tv5input4V1_017BsTvInputCallbackE"
    },
    {
     "kind":"complete_dtor_pointer",
     "mangled_component_name":"_ZTv0_n12_N7android8hardware2tv5input4V1_017BsTvInputCallbackD1Ev"
    },
    {
     "kind":"deleting_dtor_pointer",
     "mangled_component_name":"_ZTv0_n12_N7android8hardware2tv5input4V1_017BsTvInputCallbackD0Ev"
    },
    {
     "mangled_component_name":"_ZN7android7RefBase10onFirstRefEv"
    },
    {
     "mangled_component_name":"_ZN7android7RefBase15onLastStrongRefEPKv"
    },
    {
     "mangled_component_name":"_ZN7android7RefBase20onIncStrongAttemptedEjPKv"
    },
    {
     "mangled_component_name":"_ZN7android7RefBase13onLastWeakRefEPKv"
    }
   ],
   "unique_id":"_ZTSN7android8hardware2tv5input4V1_017BsTvInputCallbackE"
  }
 ],
 "elf_functions":[
  {
   "binding":"weak",
   "name":"_ZN7android8hardware10fromBinderINS0_2tv5input4V1_016ITvInputCallbackENS4_19BpHwTvInputCallbackENS4_19BnHwTvInputCallbackEEENS_2spIT_EERKNS8_INS0_7IBinderEEE"
  },
  {
   "name":"_ZN7android8hardware2tv5input4V1_011BnHwTvInput10onTransactEjRKNS0_6ParcelEPS5_jNSt3__18functionIFvRS5_EEE"
  },
  {
   "name":"_ZN7android8hardware2tv5input4V1_011BnHwTvInput12getDebugInfoENSt3__18functionIFvRKNS_4hidl4base4V1_09DebugInfoEEEE"
  },
  {
   "name":"_ZN7android8hardware2tv5input4V1_011BnHwTvInput16_hidl_openStreamEPNS_4hidl4base4V1_08BnHwBaseERKNS0_6ParcelEPSA_NSt3__18functionIFvRSA_EEE"
  },
  {
   "name":"_ZN7android8hardware2tv5input4V1_011BnHwTvInput17_hidl_closeStreamEPNS_4hidl4base4V1_08BnHwBaseERKNS0_6ParcelEPSA_NSt3__18functionIFvRSA_EEE"
  },
  {
   "name":"_ZN7android8hardware2tv5input4V1_011BnHwTvInput17_hidl_setCallbackEPNS_4hidl4base4V1_08BnHwBaseERKNS0_6ParcelEPSA_NSt3__18functionIFvRSA_EEE"
  },
  {
   "name":"_ZN7android8hardware2tv5input4V1_011BnHwTvInput29_hidl_getStreamConfigurationsEPNS_4hidl4base4V1_08BnHwBaseERKNS0_6ParcelEPSA_NSt3__18functionIFvRSA_EEE"
  },
  {
   "name":"_ZN7android8hardware2tv5input4V1_011BnHwTvInput4pingEv"
  },
  {
   "name":"_ZN7android8hardware2tv5input4V1_011BnHwTvInputC1ERKNS_2spINS3_8ITvInputEEE"
  },
  {
   "name":"_ZN7android8hardware2tv5input4V1_011BnHwTvInputC2ERKNS_2spINS3_8ITvInputEEE"
  },
  {
   "name":"_ZN7android8hardware2tv5input4V1_011BnHwTvInputD0Ev"
  },
  {
   "name":"_ZN7android8hardware2tv5input4V1_011BnHwTvInputD1Ev"
  },
  {
   "name":"_ZN7android8hardware2tv5input4V1_011BnHwTvInputD2Ev"
  },
  {
   "name":"_ZN7android8hardware2tv5input4V1_011BpHwTvInput10openStreamEiiNSt3__18functionIFvNS3_6ResultERKNS0_11hidl_handleEEEE"
  },
  {
   "name":"_ZN7android8hardware2tv5input4V1_011BpHwTvInput11closeStreamEii"
  },
  {
   "name":"_ZN7android8hardware2tv5input4V1_011BpHwTvInput11linkToDeathERKNS_2spINS0_20hidl_death_recipientEEEy"
  },
  {
   "name":"_ZN7android8hardware2tv5input4V1_011BpHwTvInput11setCallbackERKNS_2spINS3_16ITvInputCallbackEEE"
  },
  {
   "name":"_ZN7android8hardware2tv5input4V1_011BpHwTvInput12getDebugInfoENSt3__18functionIFvRKNS_4hidl4base4V1_09DebugInfoEEEE"
  },
  {
   "name":"_ZN7android8hardware2tv5input4V1_011BpHwTvInput12getHashChainENSt3__18functionIFvRKNS0_8hidl_vecINS0_10hidl_arrayIhLj32EJEEEEEEEE"
  },
  {
   "name":"_ZN7android8hardware2tv5input4V1_011BpHwTvInput13unlinkToDeathERKNS_2spINS0_20hidl_death_recipientEEE"
  },
  {
   "name":"_ZN7android8hardware2tv5input4V1_011BpHwTvInput14interfaceChainENSt3__18functionIFvRKNS0_8hidl_vecINS0_11hidl_stringEEEEEE"
  },
  {
   "name":"_ZN7android8hardware2tv5input4V1_011BpHwTvInput16_hidl_openStreamEPNS0_10IInterfaceEPNS0_7details16HidlInstrumentorEiiNSt3__18functionIFvNS3_6ResultERKNS0_11hidl_handleEEEE"
  },
  {
   "name":"_ZN7android8hardware2tv5input4V1_011BpHwTvInput17_hidl_closeStreamEPNS0_10IInterfaceEPNS0_7details16HidlInstrumentorEii"
  },
  {
   "name":"_ZN7android8hardware2tv5input4V1_011BpHwTvInput17_hidl_setCallbackEPNS0_10IInterfaceEPNS0_7details16HidlInstrumentorERKNS_2spINS3_16ITvInputCallbackEEE"
  },
  {
   "name":"_ZN7android8hardware2tv5input4V1_011BpHwTvInput19interfaceDescriptorENSt3__18functionIFvRKNS0_11hidl_stringEEEE"
  },
  {
   "name":"_ZN7android8hardware2tv5input4V1_011BpHwTvInput21notifySyspropsChangedEv"
  },
  {
   "name":"_ZN7android8hardware2tv5input4V1_011BpHwTvInput21setHALInstrumentationEv"
  },
  {
   "name":"_ZN7android8hardware2tv5input4V1_011BpHwTvInput23getStreamConfigurationsEiNSt3__18functionIFvNS3_6ResultERKNS0_8hidl_vecINS3_14TvStreamConfigEEEEEE"
  },
  {
   "name":"_ZN7android8hardware2tv5input4V1_011BpHwTvInput29_hidl_getStreamConfigurationsEPNS0_10IInterfaceEPNS0_7details16HidlInstrumentorEiNSt3__18functionIFvNS3_6ResultERKNS0_8hidl_vecINS3_14TvStreamConfigEEEEEE"
  },
  {
   "name":"_ZN7android8hardware2tv5input4V1_011BpHwTvInput4pingEv"
  },
  {
   "name":"_ZN7android8hardware2tv5input4V1_011BpHwTvInput5debugERKNS0_11hidl_handleERKNS0_8hidl_vecINS0_11hidl_stringEEE"
  },
  {
   "name":"_ZN7android8hardware2tv5input4V1_011BpHwTvInputC1ERKNS_2spINS0_7IBinderEEE"
  },
  {
   "name":"_ZN7android8hardware2tv5input4V1_011BpHwTvInputC2ERKNS_2spINS0_7IBinderEEE"
  },
  {
   "name":"_ZN7android8hardware2tv5input4V1_016ITvInputCallback10getServiceERKNSt3__112basic_stringIcNS5_11char_traitsIcEENS5_9allocatorIcEEEEb"
  },
  {
   "name":"_ZN7android8hardware2tv5input4V1_016ITvInputCallback11linkToDeathERKNS_2spINS0_20hidl_death_recipientEEEy"
  },
  {
   "name":"_ZN7android8hardware2tv5input4V1_016ITvInputCallback12getDebugInfoENSt3__18functionIFvRKNS_4hidl4base4V1_09DebugInfoEEEE"
  },
  {
   "name":"_ZN7android8hardware2tv5input4V1_016ITvInputCallback12getHashChainENSt3__18functionIFvRKNS0_8hidl_vecINS0_10hidl_arrayIhLj32EJEEEEEEEE"
  },
  {
   "name":"_ZN7android8hardware2tv5input4V1_016ITvInputCallback13tryGetServiceERKNSt3__112basic_stringIcNS5_11char_traitsIcEENS5_9allocatorIcEEEEb"
  },
  {
   "name":"_ZN7android8hardware2tv5input4V1_016ITvInputCallback13unlinkToDeathERKNS_2spINS0_20hidl_death_recipientEEE"
  },
  {
   "name":"_ZN7android8hardware2tv5input4V1_016ITvInputCallback14interfaceChainENSt3__18functionIFvRKNS0_8hidl_vecINS0_11hidl_stringEEEEEE"
  },
  {
   "name":"_ZN7android8hardware2tv5input4V1_016ITvInputCallback17registerAsServiceERKNSt3__112basic_stringIcNS5_11char_traitsIcEENS5_9allocatorIcEEEE"
  },
  {
   "name":"_ZN7android8hardware2tv5input4V1_016ITvInputCallback19interfaceDescriptorENSt3__18functionIFvRKNS0_11hidl_stringEEEE"
  },
  {
   "name":"_ZN7android8hardware2tv5input4V1_016ITvInputCallback21notifySyspropsChangedEv"
  },
  {
   "name":"_ZN7android8hardware2tv5input4V1_016ITvInputCallback21setHALInstrumentationEv"
  },
  {
   "name":"_ZN7android8hardware2tv5input4V1_016ITvInputCallback24registerForNotificationsERKNSt3__112basic_stringIcNS5_11char_traitsIcEENS5_9allocatorIcEEEERKNS_2spINS_4hidl7manager4V1_020IServiceNotificationEEE"
  },
  {
   "name":"_ZN7android8hardware2tv5input4V1_016ITvInputCallback4pingEv"
  },
  {
   "name":"_ZN7android8hardware2tv5input4V1_016ITvInputCallback5debugERKNS0_11hidl_handleERKNS0_8hidl_vecINS0_11hidl_stringEEE"
  },
  {
   "name":"_ZN7android8hardware2tv5input4V1_016ITvInputCallback8castFromERKNS_2spINS_4hidl4base4V1_05IBaseEEEb"
  },
  {
   "name":"_ZN7android8hardware2tv5input4V1_016ITvInputCallback8castFromERKNS_2spIS4_EEb"
  },
  {
   "name":"_ZN7android8hardware2tv5input4V1_017BsTvInputCallback13addOnewayTaskENSt3__18functionIFvvEEE"
  },
  {
   "name":"_ZN7android8hardware2tv5input4V1_017BsTvInputCallbackC1ENS_2spINS3_16ITvInputCallbackEEE"
  },
  {
   "name":"_ZN7android8hardware2tv5input4V1_017BsTvInputCallbackC2ENS_2spINS3_16ITvInputCallbackEEE"
  },
  {
   "name":"_ZN7android8hardware2tv5input4V1_019BnHwTvInputCallback10onTransactEjRKNS0_6ParcelEPS5_jNSt3__18functionIFvRS5_EEE"
  },
  {
   "name":"_ZN7android8hardware2tv5input4V1_019BnHwTvInputCallback12_hidl_notifyEPNS_4hidl4base4V1_08BnHwBaseERKNS0_6ParcelEPSA_NSt3__18functionIFvRSA_EEE"
  },
  {
   "name":"_ZN7android8hardware2tv5input4V1_019BnHwTvInputCallback12getDebugInfoENSt3__18functionIFvRKNS_4hidl4base4V1_09DebugInfoEEEE"
  },
  {
   "name":"_ZN7android8hardware2tv5input4V1_019BnHwTvInputCallback4pingEv"
  },
  {
   "name":"_ZN7android8hardware2tv5input4V1_019BnHwTvInputCallbackC1ERKNS_2spINS3_16ITvInputCallbackEEE"
  },
  {
   "name":"_ZN7android8hardware2tv5input4V1_019BnHwTvInputCallbackC2ERKNS_2spINS3_16ITvInputCallbackEEE"
  },
  {
   "name":"_ZN7android8hardware2tv5input4V1_019BnHwTvInputCallbackD0Ev"
  },
  {
   "name":"_ZN7android8hardware2tv5input4V1_019BnHwTvInputCallbackD1Ev"
  },
  {
   "name":"_ZN7android8hardware2tv5input4V1_019BnHwTvInputCallbackD2Ev"
  },
  {
   "name":"_ZN7android8hardware2tv5input4V1_019BpHwTvInputCallback11linkToDeathERKNS_2spINS0_20hidl_death_recipientEEEy"
  },
  {
   "name":"_ZN7android8hardware2tv5input4V1_019BpHwTvInputCallback12_hidl_notifyEPNS0_10IInterfaceEPNS0_7details16HidlInstrumentorERKNS3_12TvInputEventE"
  },
  {
   "name":"_ZN7android8hardware2tv5input4V1_019BpHwTvInputCallback12getDebugInfoENSt3__18functionIFvRKNS_4hidl4base4V1_09DebugInfoEEEE"
  },
  {
   "name":"_ZN7android8hardware2tv5input4V1_019BpHwTvInputCallback12getHashChainENSt3__18functionIFvRKNS0_8hidl_vecINS0_10hidl_arrayIhLj32EJEEEEEEEE"
  },
  {
   "name":"_ZN7android8hardware2tv5input4V1_019BpHwTvInputCallback13unlinkToDeathERKNS_2spINS0_20hidl_death_recipientEEE"
  },
  {
   "name":"_ZN7android8hardware2tv5input4V1_019BpHwTvInputCallback14interfaceChainENSt3__18functionIFvRKNS0_8hidl_vecINS0_11hidl_stringEEEEEE"
  },
  {
   "name":"_ZN7android8hardware2tv5input4V1_019BpHwTvInputCallback19interfaceDescriptorENSt3__18functionIFvRKNS0_11hidl_stringEEEE"
  },
  {
   "name":"_ZN7android8hardware2tv5input4V1_019BpHwTvInputCallback21notifySyspropsChangedEv"
  },
  {
   "name":"_ZN7android8hardware2tv5input4V1_019BpHwTvInputCallback21setHALInstrumentationEv"
  },
  {
   "name":"_ZN7android8hardware2tv5input4V1_019BpHwTvInputCallback4pingEv"
  },
  {
   "name":"_ZN7android8hardware2tv5input4V1_019BpHwTvInputCallback5debugERKNS0_11hidl_handleERKNS0_8hidl_vecINS0_11hidl_stringEEE"
  },
  {
   "name":"_ZN7android8hardware2tv5input4V1_019BpHwTvInputCallback6notifyERKNS3_12TvInputEventE"
  },
  {
   "name":"_ZN7android8hardware2tv5input4V1_019BpHwTvInputCallbackC1ERKNS_2spINS0_7IBinderEEE"
  },
  {
   "name":"_ZN7android8hardware2tv5input4V1_019BpHwTvInputCallbackC2ERKNS_2spINS0_7IBinderEEE"
  },
  {
   "name":"_ZN7android8hardware2tv5input4V1_08ITvInput10getServiceERKNSt3__112basic_stringIcNS5_11char_traitsIcEENS5_9allocatorIcEEEEb"
  },
  {
   "name":"_ZN7android8hardware2tv5input4V1_08ITvInput11linkToDeathERKNS_2spINS0_20hidl_death_recipientEEEy"
  },
  {
   "name":"_ZN7android8hardware2tv5input4V1_08ITvInput12getDebugInfoENSt3__18functionIFvRKNS_4hidl4base4V1_09DebugInfoEEEE"
  },
  {
   "name":"_ZN7android8hardware2tv5input4V1_08ITvInput12getHashChainENSt3__18functionIFvRKNS0_8hidl_vecINS0_10hidl_arrayIhLj32EJEEEEEEEE"
  },
  {
   "name":"_ZN7android8hardware2tv5input4V1_08ITvInput13tryGetServiceERKNSt3__112basic_stringIcNS5_11char_traitsIcEENS5_9allocatorIcEEEEb"
  },
  {
   "name":"_ZN7android8hardware2tv5input4V1_08ITvInput13unlinkToDeathERKNS_2spINS0_20hidl_death_recipientEEE"
  },
  {
   "name":"_ZN7android8hardware2tv5input4V1_08ITvInput14interfaceChainENSt3__18functionIFvRKNS0_8hidl_vecINS0_11hidl_stringEEEEEE"
  },
  {
   "name":"_ZN7android8hardware2tv5input4V1_08ITvInput17registerAsServiceERKNSt3__112basic_stringIcNS5_11char_traitsIcEENS5_9allocatorIcEEEE"
  },
  {
   "name":"_ZN7android8hardware2tv5input4V1_08ITvInput19interfaceDescriptorENSt3__18functionIFvRKNS0_11hidl_stringEEEE"
  },
  {
   "name":"_ZN7android8hardware2tv5input4V1_08ITvInput21notifySyspropsChangedEv"
  },
  {
   "name":"_ZN7android8hardware2tv5input4V1_08ITvInput21setHALInstrumentationEv"
  },
  {
   "name":"_ZN7android8hardware2tv5input4V1_08ITvInput24registerForNotificationsERKNSt3__112basic_stringIcNS5_11char_traitsIcEENS5_9allocatorIcEEEERKNS_2spINS_4hidl7manager4V1_020IServiceNotificationEEE"
  },
  {
   "name":"_ZN7android8hardware2tv5input4V1_08ITvInput4pingEv"
  },
  {
   "name":"_ZN7android8hardware2tv5input4V1_08ITvInput5debugERKNS0_11hidl_handleERKNS0_8hidl_vecINS0_11hidl_stringEEE"
  },
  {
   "name":"_ZN7android8hardware2tv5input4V1_08ITvInput8castFromERKNS_2spINS_4hidl4base4V1_05IBaseEEEb"
  },
  {
   "name":"_ZN7android8hardware2tv5input4V1_08ITvInput8castFromERKNS_2spIS4_EEb"
  },
  {
   "name":"_ZN7android8hardware2tv5input4V1_09BsTvInput13addOnewayTaskENSt3__18functionIFvvEEE"
  },
  {
   "name":"_ZN7android8hardware2tv5input4V1_09BsTvInputC1ENS_2spINS3_8ITvInputEEE"
  },
  {
   "name":"_ZN7android8hardware2tv5input4V1_09BsTvInputC2ENS_2spINS3_8ITvInputEEE"
  },
  {
   "binding":"weak",
   "name":"_ZN7android8hardware7details13castInterfaceINS0_2tv5input4V1_016ITvInputCallbackENS_4hidl4base4V1_05IBaseENS5_19BpHwTvInputCallbackEEENS0_6ReturnINS_2spIT_EEEENSD_IT0_EEPKcb"
  },
  {
   "binding":"weak",
   "name":"_ZN7android8hardware7details13castInterfaceINS0_2tv5input4V1_08ITvInputENS_4hidl4base4V1_05IBaseENS5_11BpHwTvInputEEENS0_6ReturnINS_2spIT_EEEENSD_IT0_EEPKcb"
  },
  {
   "binding":"weak",
   "name":"_ZN7android8hardware7details15wrapPassthroughINS0_2tv5input4V1_016ITvInputCallbackEvEENS_2spIT_EES9_"
  },
  {
   "binding":"weak",
   "name":"_ZN7android8hardware7details18getServiceInternalINS0_2tv5input4V1_011BpHwTvInputENS5_8ITvInputEvvEENS_2spIT0_EERKNSt3__112basic_stringIcNSB_11char_traitsIcEENSB_9allocatorIcEEEEbb"
  },
  {
   "binding":"weak",
   "name":"_ZN7android8hardware7details18getServiceInternalINS0_2tv5input4V1_019BpHwTvInputCallbackENS5_16ITvInputCallbackEvvEENS_2spIT0_EERKNSt3__112basic_stringIcNSB_11char_traitsIcEENSB_9allocatorIcEEEEbb"
  },
  {
   "binding":"weak",
   "name":"_ZN7android8hardware8toBinderINS0_2tv5input4V1_016ITvInputCallbackEvEENS_2spINS0_7IBinderEEENS6_IT_EE"
  },
  {
   "binding":"weak",
   "name":"_ZN7android8hardware8toBinderINS_4hidl4base4V1_05IBaseEvEENS_2spINS0_7IBinderEEENS6_IT_EE"
  },
  {
   "name":"_ZThn20_N7android8hardware2tv5input4V1_011BnHwTvInputD0Ev"
  },
  {
   "name":"_ZThn20_N7android8hardware2tv5input4V1_011BnHwTvInputD1Ev"
  },
  {
   "name":"_ZThn20_N7android8hardware2tv5input4V1_019BnHwTvInputCallbackD0Ev"
  },
  {
   "name":"_ZThn20_N7android8hardware2tv5input4V1_019BnHwTvInputCallbackD1Ev"
  },
  {
   "name":"_ZTv0_n12_N7android8hardware2tv5input4V1_011BnHwTvInputD0Ev"
  },
  {
   "name":"_ZTv0_n12_N7android8hardware2tv5input4V1_011BnHwTvInputD1Ev"
  },
  {
   "name":"_ZTv0_n12_N7android8hardware2tv5input4V1_019BnHwTvInputCallbackD0Ev"
  },
  {
   "name":"_ZTv0_n12_N7android8hardware2tv5input4V1_019BnHwTvInputCallbackD1Ev"
  }
 ],
 "elf_objects":[
  {
   "name":"_ZN7android8hardware2tv5input4V1_016ITvInputCallback10descriptorE"
  },
  {
   "name":"_ZN7android8hardware2tv5input4V1_08ITvInput10descriptorE"
  },
  {
   "name":"_ZTTN7android8hardware2tv5input4V1_011BnHwTvInputE"
  },
  {
   "name":"_ZTTN7android8hardware2tv5input4V1_011BpHwTvInputE"
  },
  {
   "name":"_ZTTN7android8hardware2tv5input4V1_016ITvInputCallbackE"
  },
  {
   "name":"_ZTTN7android8hardware2tv5input4V1_019BnHwTvInputCallbackE"
  },
  {
   "name":"_ZTTN7android8hardware2tv5input4V1_019BpHwTvInputCallbackE"
  },
  {
   "name":"_ZTTN7android8hardware2tv5input4V1_08ITvInputE"
  },
  {
   "name":"_ZTVN7android8hardware2tv5input4V1_011BnHwTvInputE"
  },
  {
   "name":"_ZTVN7android8hardware2tv5input4V1_011BpHwTvInputE"
  },
  {
   "name":"_ZTVN7android8hardware2tv5input4V1_016ITvInputCallbackE"
  },
  {
   "binding":"weak",
   "name":"_ZTVN7android8hardware2tv5input4V1_017BsTvInputCallbackE"
  },
  {
   "name":"_ZTVN7android8hardware2tv5input4V1_019BnHwTvInputCallbackE"
  },
  {
   "name":"_ZTVN7android8hardware2tv5input4V1_019BpHwTvInputCallbackE"
  },
  {
   "name":"_ZTVN7android8hardware2tv5input4V1_08ITvInputE"
  },
  {
   "binding":"weak",
   "name":"_ZTVN7android8hardware2tv5input4V1_09BsTvInputE"
  }
 ]
}