{
 "record_types":[],
 "elf_functions":[
  {
   "name":"_Z12DropRootUserv"
  },
  {
   "name":"_Z18DumpFileFromFdToFdRKNSt3__112basic_stringIcNS_11char_traitsIcEENS_9allocatorIcEEEES7_iib"
  },
  {
   "name":"_Z8Nanotimev"
  },
  {
   "name":"_ZN7android2os9dumpstate12DumpFileToFdEiRKNSt3__112basic_stringIcNS2_11char_traitsIcEENS2_9allocatorIcEEEESA_"
  },
  {
   "name":"_ZN7android2os9dumpstate12GetPidByNameERKNSt3__112basic_stringIcNS2_11char_traitsIcEENS2_9allocatorIcEEEE"
  },
  {
   "name":"_ZN7android2os9dumpstate14CommandOptions11WithTimeoutEx"
  },
  {
   "name":"_ZN7android2os9dumpstate14CommandOptions15WithTimeoutInMsEx"
  },
  {
   "name":"_ZN7android2os9dumpstate14CommandOptions20CommandOptionsValuesC1Ex"
  },
  {
   "name":"_ZN7android2os9dumpstate14CommandOptions20CommandOptionsValuesC2Ex"
  },
  {
   "name":"_ZN7android2os9dumpstate14CommandOptions21CommandOptionsBuilder14RedirectStderrEv"
  },
  {
   "name":"_ZN7android2os9dumpstate14CommandOptions21CommandOptionsBuilder17AsRootIfAvailableEv"
  },
  {
   "name":"_ZN7android2os9dumpstate14CommandOptions21CommandOptionsBuilder3LogERKNSt3__112basic_stringIcNS4_11char_traitsIcEENS4_9allocatorIcEEEE"
  },
  {
   "name":"_ZN7android2os9dumpstate14CommandOptions21CommandOptionsBuilder5BuildEv"
  },
  {
   "name":"_ZN7android2os9dumpstate14CommandOptions21CommandOptionsBuilder6AlwaysEv"
  },
  {
   "name":"_ZN7android2os9dumpstate14CommandOptions21CommandOptionsBuilder6AsRootEv"
  },
  {
   "name":"_ZN7android2os9dumpstate14CommandOptions21CommandOptionsBuilder8DropRootEv"
  },
  {
   "name":"_ZN7android2os9dumpstate14CommandOptions21CommandOptionsBuilderC1Ex"
  },
  {
   "name":"_ZN7android2os9dumpstate14CommandOptions21CommandOptionsBuilderC2Ex"
  },
  {
   "name":"_ZN7android2os9dumpstate14CommandOptionsC1ERKNS2_20CommandOptionsValuesE"
  },
  {
   "name":"_ZN7android2os9dumpstate14CommandOptionsC2ERKNS2_20CommandOptionsValuesE"
  },
  {
   "name":"_ZN7android2os9dumpstate14RunCommandToFdEiRKNSt3__112basic_stringIcNS2_11char_traitsIcEENS2_9allocatorIcEEEERKNS2_6vectorIS8_NS6_IS8_EEEERKNS1_14CommandOptionsE"
  },
  {
   "name":"_ZN7android2os9dumpstate16PropertiesHelper11IsUserBuildEv"
  },
  {
   "name":"_ZN7android2os9dumpstate16PropertiesHelper8IsDryRunEv"
  },
  {
   "name":"_ZNK7android2os9dumpstate14CommandOptions10OutputModeEv"
  },
  {
   "name":"_ZNK7android2os9dumpstate14CommandOptions11TimeoutInMsEv"
  },
  {
   "name":"_ZNK7android2os9dumpstate14CommandOptions13PrivilegeModeEv"
  },
  {
   "name":"_ZNK7android2os9dumpstate14CommandOptions14LoggingMessageEv"
  },
  {
   "name":"_ZNK7android2os9dumpstate14CommandOptions6AlwaysEv"
  },
  {
   "name":"_ZNK7android2os9dumpstate14CommandOptions7TimeoutEv"
  }
 ],
 "elf_objects":[
  {
   "name":"_ZN7android2os9dumpstate14CommandOptions7AS_ROOTE"
  },
  {
   "name":"_ZN7android2os9dumpstate14CommandOptions7DEFAULTE"
  },
  {
   "name":"_ZN7android2os9dumpstate16PropertiesHelper11build_type_E"
  },
  {
   "name":"_ZN7android2os9dumpstate16PropertiesHelper8dry_run_E"
  }
 ]
}