{
 "array_types" :
 [
  {
   "alignment" : 4,
   "linker_set_key" : "android::hardware::gnss::V1_0::IGnssCallback::GnssSvInfo [64]",
   "name" : "android::hardware::gnss::V1_0::IGnssCallback::GnssSvInfo [64]",
   "referenced_type" : "type-425",
   "self_type" : "type-424",
   "size" : 1536,
   "source_file" : "/system/libhidl/base/include/hidl/HidlSupport.h"
  },
  {
   "alignment" : 8,
   "linker_set_key" : "android::hardware::gnss::V1_0::IGnssMeasurementCallback::GnssMeasurement [64]",
   "name" : "android::hardware::gnss::V1_0::IGnssMeasurementCallback::GnssMeasurement [64]",
   "referenced_type" : "type-516",
   "self_type" : "type-515",
   "size" : 9216,
   "source_file" : "/system/libhidl/base/include/hidl/HidlSupport.h"
  },
  {
   "alignment" : 1,
   "linker_set_key" : "char [0]",
   "name" : "char [0]",
   "referenced_type" : "type-53",
   "self_type" : "type-463",
   "source_file" : "/system/core/liblog/include/log/log_read.h"
  },
  {
   "linker_set_key" : "float []",
   "name" : "float []",
   "referenced_type" : "type-354",
   "self_type" : "type-2057",
   "source_file" : "/system/core/libsystem/include/system/graphics.h"
  },
  {
   "alignment" : 4,
   "linker_set_key" : "int [0]",
   "name" : "int [0]",
   "referenced_type" : "type-20",
   "self_type" : "type-1004",
   "source_file" : "/system/core/libcutils/include/cutils/native_handle.h"
  },
  {
   "alignment" : 1,
   "linker_set_key" : "unsigned char [16]",
   "name" : "unsigned char [16]",
   "referenced_type" : "type-130",
   "self_type" : "type-384",
   "size" : 16,
   "source_file" : "/system/libhidl/base/include/hidl/HidlSupport.h"
  },
  {
   "alignment" : 1,
   "linker_set_key" : "unsigned char [32]",
   "name" : "unsigned char [32]",
   "referenced_type" : "type-130",
   "self_type" : "type-1694",
   "size" : 32,
   "source_file" : "/system/libhidl/base/include/hidl/HidlSupport.h"
  },
  {
   "alignment" : 1,
   "linker_set_key" : "unsigned char [5121]",
   "name" : "unsigned char [5121]",
   "referenced_type" : "type-130",
   "self_type" : "type-461",
   "size" : 5121,
   "source_file" : "/system/core/liblog/include/log/log_read.h"
  },
  {
   "alignment" : 4,
   "linker_set_key" : "unsigned int [8]",
   "name" : "unsigned int [8]",
   "referenced_type" : "type-2",
   "self_type" : "type-2031",
   "size" : 32,
   "source_file" : "/system/core/libsystem/include/system/graphics.h"
  }
 ],
 "builtin_types" :
 [
  {
   "alignment" : 1,
   "is_integral" : true,
   "is_unsigned" : true,
   "linker_set_key" : "bool",
   "name" : "bool",
   "referenced_type" : "type-34",
   "self_type" : "type-34",
   "size" : 1
  },
  {
   "alignment" : 1,
   "is_integral" : true,
   "linker_set_key" : "char",
   "name" : "char",
   "referenced_type" : "type-53",
   "self_type" : "type-53",
   "size" : 1
  },
  {
   "alignment" : 2,
   "is_integral" : true,
   "is_unsigned" : true,
   "linker_set_key" : "char16_t",
   "name" : "char16_t",
   "referenced_type" : "type-42",
   "self_type" : "type-42",
   "size" : 2
  },
  {
   "alignment" : 4,
   "linker_set_key" : "double",
   "name" : "double",
   "referenced_type" : "type-346",
   "self_type" : "type-346",
   "size" : 8
  },
  {
   "alignment" : 4,
   "linker_set_key" : "float",
   "name" : "float",
   "referenced_type" : "type-354",
   "self_type" : "type-354",
   "size" : 4
  },
  {
   "alignment" : 4,
   "is_integral" : true,
   "linker_set_key" : "int",
   "name" : "int",
   "referenced_type" : "type-20",
   "self_type" : "type-20",
   "size" : 4
  },
  {
   "alignment" : 4,
   "is_integral" : true,
   "linker_set_key" : "long",
   "name" : "long",
   "referenced_type" : "type-1357",
   "self_type" : "type-1357",
   "size" : 4
  },
  {
   "alignment" : 4,
   "is_integral" : true,
   "linker_set_key" : "long long",
   "name" : "long long",
   "referenced_type" : "type-25",
   "self_type" : "type-25",
   "size" : 8
  },
  {
   "alignment" : 2,
   "is_integral" : true,
   "linker_set_key" : "short",
   "name" : "short",
   "referenced_type" : "type-426",
   "self_type" : "type-426",
   "size" : 2
  },
  {
   "alignment" : 1,
   "is_integral" : true,
   "linker_set_key" : "signed char",
   "name" : "signed char",
   "referenced_type" : "type-1517",
   "self_type" : "type-1517",
   "size" : 1
  },
  {
   "alignment" : 1,
   "is_integral" : true,
   "is_unsigned" : true,
   "linker_set_key" : "unsigned char",
   "name" : "unsigned char",
   "referenced_type" : "type-130",
   "self_type" : "type-130",
   "size" : 1
  },
  {
   "alignment" : 4,
   "is_integral" : true,
   "is_unsigned" : true,
   "linker_set_key" : "unsigned int",
   "name" : "unsigned int",
   "referenced_type" : "type-2",
   "self_type" : "type-2",
   "size" : 4
  },
  {
   "alignment" : 4,
   "is_integral" : true,
   "is_unsigned" : true,
   "linker_set_key" : "unsigned long",
   "name" : "unsigned long",
   "referenced_type" : "type-1401",
   "self_type" : "type-1401",
   "size" : 4
  },
  {
   "alignment" : 4,
   "is_integral" : true,
   "is_unsigned" : true,
   "linker_set_key" : "unsigned long long",
   "name" : "unsigned long long",
   "referenced_type" : "type-13",
   "self_type" : "type-13",
   "size" : 8
  },
  {
   "alignment" : 2,
   "is_integral" : true,
   "is_unsigned" : true,
   "linker_set_key" : "unsigned short",
   "name" : "unsigned short",
   "referenced_type" : "type-134",
   "self_type" : "type-134",
   "size" : 2
  },
  {
   "linker_set_key" : "void",
   "name" : "void",
   "referenced_type" : "type-22",
   "self_type" : "type-22"
  }
 ],
 "elf_functions" :
 [
  {
   "binding" : "weak",
   "name" : "_ZN7android8hardware10fromBinderINS0_4gnss18visibility_control4V1_022IGnssVisibilityControlENS4_25BpHwGnssVisibilityControlENS4_25BnHwGnssVisibilityControlEEENS_2spIT_EERKNS8_INS0_7IBinderEEE"
  },
  {
   "binding" : "weak",
   "name" : "_ZN7android8hardware10fromBinderINS0_4gnss23measurement_corrections4V1_023IMeasurementCorrectionsENS4_26BpHwMeasurementCorrectionsENS4_26BnHwMeasurementCorrectionsEEENS_2spIT_EERKNS8_INS0_7IBinderEEE"
  },
  {
   "binding" : "weak",
   "name" : "_ZN7android8hardware10fromBinderINS0_4gnss4V2_010IGnssDebugENS3_13BpHwGnssDebugENS3_13BnHwGnssDebugEEENS_2spIT_EERKNS7_INS0_7IBinderEEE"
  },
  {
   "binding" : "weak",
   "name" : "_ZN7android8hardware10fromBinderINS0_4gnss4V2_013IGnssBatchingENS3_16BpHwGnssBatchingENS3_16BnHwGnssBatchingEEENS_2spIT_EERKNS7_INS0_7IBinderEEE"
  },
  {
   "binding" : "weak",
   "name" : "_ZN7android8hardware10fromBinderINS0_4gnss4V2_013IGnssCallbackENS3_16BpHwGnssCallbackENS3_16BnHwGnssCallbackEEENS_2spIT_EERKNS7_INS0_7IBinderEEE"
  },
  {
   "binding" : "weak",
   "name" : "_ZN7android8hardware10fromBinderINS0_4gnss4V2_014IAGnssCallbackENS3_17BpHwAGnssCallbackENS3_17BnHwAGnssCallbackEEENS_2spIT_EERKNS7_INS0_7IBinderEEE"
  },
  {
   "binding" : "weak",
   "name" : "_ZN7android8hardware10fromBinderINS0_4gnss4V2_016IGnssMeasurementENS3_19BpHwGnssMeasurementENS3_19BnHwGnssMeasurementEEENS_2spIT_EERKNS7_INS0_7IBinderEEE"
  },
  {
   "binding" : "weak",
   "name" : "_ZN7android8hardware10fromBinderINS0_4gnss4V2_018IGnssConfigurationENS3_21BpHwGnssConfigurationENS3_21BnHwGnssConfigurationEEENS_2spIT_EERKNS7_INS0_7IBinderEEE"
  },
  {
   "binding" : "weak",
   "name" : "_ZN7android8hardware10fromBinderINS0_4gnss4V2_021IGnssBatchingCallbackENS3_24BpHwGnssBatchingCallbackENS3_24BnHwGnssBatchingCallbackEEENS_2spIT_EERKNS7_INS0_7IBinderEEE"
  },
  {
   "binding" : "weak",
   "name" : "_ZN7android8hardware10fromBinderINS0_4gnss4V2_024IGnssMeasurementCallbackENS3_27BpHwGnssMeasurementCallbackENS3_27BnHwGnssMeasurementCallbackEEENS_2spIT_EERKNS7_INS0_7IBinderEEE"
  },
  {
   "binding" : "weak",
   "name" : "_ZN7android8hardware10fromBinderINS0_4gnss4V2_06IAGnssENS3_9BpHwAGnssENS3_9BnHwAGnssEEENS_2spIT_EERKNS7_INS0_7IBinderEEE"
  },
  {
   "binding" : "weak",
   "name" : "_ZN7android8hardware10fromBinderINS0_4gnss4V2_09IAGnssRilENS3_12BpHwAGnssRilENS3_12BnHwAGnssRilEEENS_2spIT_EERKNS7_INS0_7IBinderEEE"
  },
  {
   "name" : "_ZN7android8hardware4gnss4V2_010BsAGnssRil13addOnewayTaskENSt3__18functionIFvvEEE"
  },
  {
   "name" : "_ZN7android8hardware4gnss4V2_010BsAGnssRilC1ENS_2spINS2_9IAGnssRilEEE"
  },
  {
   "name" : "_ZN7android8hardware4gnss4V2_010BsAGnssRilC2ENS_2spINS2_9IAGnssRilEEE"
  },
  {
   "name" : "_ZN7android8hardware4gnss4V2_010IGnssDebug10getServiceERKNSt3__112basic_stringIcNS4_11char_traitsIcEENS4_9allocatorIcEEEEb"
  },
  {
   "name" : "_ZN7android8hardware4gnss4V2_010IGnssDebug11linkToDeathERKNS_2spINS0_20hidl_death_recipientEEEy"
  },
  {
   "name" : "_ZN7android8hardware4gnss4V2_010IGnssDebug12getDebugInfoENSt3__18functionIFvRKNS_4hidl4base4V1_09DebugInfoEEEE"
  },
  {
   "name" : "_ZN7android8hardware4gnss4V2_010IGnssDebug12getHashChainENSt3__18functionIFvRKNS0_8hidl_vecINS0_10hidl_arrayIhLj32EJEEEEEEEE"
  },
  {
   "name" : "_ZN7android8hardware4gnss4V2_010IGnssDebug13tryGetServiceERKNSt3__112basic_stringIcNS4_11char_traitsIcEENS4_9allocatorIcEEEEb"
  },
  {
   "name" : "_ZN7android8hardware4gnss4V2_010IGnssDebug13unlinkToDeathERKNS_2spINS0_20hidl_death_recipientEEE"
  },
  {
   "name" : "_ZN7android8hardware4gnss4V2_010IGnssDebug14interfaceChainENSt3__18functionIFvRKNS0_8hidl_vecINS0_11hidl_stringEEEEEE"
  },
  {
   "name" : "_ZN7android8hardware4gnss4V2_010IGnssDebug17registerAsServiceERKNSt3__112basic_stringIcNS4_11char_traitsIcEENS4_9allocatorIcEEEE"
  },
  {
   "name" : "_ZN7android8hardware4gnss4V2_010IGnssDebug19interfaceDescriptorENSt3__18functionIFvRKNS0_11hidl_stringEEEE"
  },
  {
   "name" : "_ZN7android8hardware4gnss4V2_010IGnssDebug21notifySyspropsChangedEv"
  },
  {
   "name" : "_ZN7android8hardware4gnss4V2_010IGnssDebug21setHALInstrumentationEv"
  },
  {
   "name" : "_ZN7android8hardware4gnss4V2_010IGnssDebug24registerForNotificationsERKNSt3__112basic_stringIcNS4_11char_traitsIcEENS4_9allocatorIcEEEERKNS_2spINS_4hidl7manager4V1_020IServiceNotificationEEE"
  },
  {
   "name" : "_ZN7android8hardware4gnss4V2_010IGnssDebug4pingEv"
  },
  {
   "name" : "_ZN7android8hardware4gnss4V2_010IGnssDebug5debugERKNS0_11hidl_handleERKNS0_8hidl_vecINS0_11hidl_stringEEE"
  },
  {
   "name" : "_ZN7android8hardware4gnss4V2_010IGnssDebug8castFromERKNS_2spINS1_4V1_010IGnssDebugEEEb"
  },
  {
   "name" : "_ZN7android8hardware4gnss4V2_010IGnssDebug8castFromERKNS_2spINS_4hidl4base4V1_05IBaseEEEb"
  },
  {
   "name" : "_ZN7android8hardware4gnss4V2_010IGnssDebug8castFromERKNS_2spIS3_EEb"
  },
  {
   "name" : "_ZN7android8hardware4gnss4V2_011BsGnssDebug13addOnewayTaskENSt3__18functionIFvvEEE"
  },
  {
   "name" : "_ZN7android8hardware4gnss4V2_011BsGnssDebugC1ENS_2spINS2_10IGnssDebugEEE"
  },
  {
   "name" : "_ZN7android8hardware4gnss4V2_011BsGnssDebugC2ENS_2spINS2_10IGnssDebugEEE"
  },
  {
   "name" : "_ZN7android8hardware4gnss4V2_012BnHwAGnssRil10onTransactEjRKNS0_6ParcelEPS4_jNSt3__18functionIFvRS4_EEE"
  },
  {
   "name" : "_ZN7android8hardware4gnss4V2_012BnHwAGnssRil12getDebugInfoENSt3__18functionIFvRKNS_4hidl4base4V1_09DebugInfoEEEE"
  },
  {
   "name" : "_ZN7android8hardware4gnss4V2_012BnHwAGnssRil28_hidl_updateNetworkState_2_0EPNS_4hidl4base4V1_08BnHwBaseERKNS0_6ParcelEPS9_NSt3__18functionIFvRS9_EEE"
  },
  {
   "name" : "_ZN7android8hardware4gnss4V2_012BnHwAGnssRil4pingEv"
  },
  {
   "name" : "_ZN7android8hardware4gnss4V2_012BnHwAGnssRilC1ERKNS_2spINS2_9IAGnssRilEEE"
  },
  {
   "name" : "_ZN7android8hardware4gnss4V2_012BnHwAGnssRilC2ERKNS_2spINS2_9IAGnssRilEEE"
  },
  {
   "name" : "_ZN7android8hardware4gnss4V2_012BnHwAGnssRilD0Ev"
  },
  {
   "name" : "_ZN7android8hardware4gnss4V2_012BnHwAGnssRilD1Ev"
  },
  {
   "name" : "_ZN7android8hardware4gnss4V2_012BnHwAGnssRilD2Ev"
  },
  {
   "name" : "_ZN7android8hardware4gnss4V2_012BpHwAGnssRil11linkToDeathERKNS_2spINS0_20hidl_death_recipientEEEy"
  },
  {
   "name" : "_ZN7android8hardware4gnss4V2_012BpHwAGnssRil11setCallbackERKNS_2spINS1_4V1_017IAGnssRilCallbackEEE"
  },
  {
   "name" : "_ZN7android8hardware4gnss4V2_012BpHwAGnssRil12getDebugInfoENSt3__18functionIFvRKNS_4hidl4base4V1_09DebugInfoEEEE"
  },
  {
   "name" : "_ZN7android8hardware4gnss4V2_012BpHwAGnssRil12getHashChainENSt3__18functionIFvRKNS0_8hidl_vecINS0_10hidl_arrayIhLj32EJEEEEEEEE"
  },
  {
   "name" : "_ZN7android8hardware4gnss4V2_012BpHwAGnssRil13unlinkToDeathERKNS_2spINS0_20hidl_death_recipientEEE"
  },
  {
   "name" : "_ZN7android8hardware4gnss4V2_012BpHwAGnssRil14interfaceChainENSt3__18functionIFvRKNS0_8hidl_vecINS0_11hidl_stringEEEEEE"
  },
  {
   "name" : "_ZN7android8hardware4gnss4V2_012BpHwAGnssRil14setRefLocationERKNS1_4V1_09IAGnssRil16AGnssRefLocationE"
  },
  {
   "name" : "_ZN7android8hardware4gnss4V2_012BpHwAGnssRil18updateNetworkStateEbNS1_4V1_09IAGnssRil11NetworkTypeEb"
  },
  {
   "name" : "_ZN7android8hardware4gnss4V2_012BpHwAGnssRil19interfaceDescriptorENSt3__18functionIFvRKNS0_11hidl_stringEEEE"
  },
  {
   "name" : "_ZN7android8hardware4gnss4V2_012BpHwAGnssRil21notifySyspropsChangedEv"
  },
  {
   "name" : "_ZN7android8hardware4gnss4V2_012BpHwAGnssRil21setHALInstrumentationEv"
  },
  {
   "name" : "_ZN7android8hardware4gnss4V2_012BpHwAGnssRil22updateNetworkState_2_0ERKNS2_9IAGnssRil17NetworkAttributesE"
  },
  {
   "name" : "_ZN7android8hardware4gnss4V2_012BpHwAGnssRil25updateNetworkAvailabilityEbRKNS0_11hidl_stringE"
  },
  {
   "name" : "_ZN7android8hardware4gnss4V2_012BpHwAGnssRil28_hidl_updateNetworkState_2_0EPNS0_10IInterfaceEPNS0_7details16HidlInstrumentorERKNS2_9IAGnssRil17NetworkAttributesE"
  },
  {
   "name" : "_ZN7android8hardware4gnss4V2_012BpHwAGnssRil4pingEv"
  },
  {
   "name" : "_ZN7android8hardware4gnss4V2_012BpHwAGnssRil5debugERKNS0_11hidl_handleERKNS0_8hidl_vecINS0_11hidl_stringEEE"
  },
  {
   "name" : "_ZN7android8hardware4gnss4V2_012BpHwAGnssRil8setSetIdENS1_4V1_09IAGnssRil9SetIDTypeERKNS0_11hidl_stringE"
  },
  {
   "name" : "_ZN7android8hardware4gnss4V2_012BpHwAGnssRilC1ERKNS_2spINS0_7IBinderEEE"
  },
  {
   "name" : "_ZN7android8hardware4gnss4V2_012BpHwAGnssRilC2ERKNS_2spINS0_7IBinderEEE"
  },
  {
   "name" : "_ZN7android8hardware4gnss4V2_013BnHwGnssDebug10onTransactEjRKNS0_6ParcelEPS4_jNSt3__18functionIFvRS4_EEE"
  },
  {
   "name" : "_ZN7android8hardware4gnss4V2_013BnHwGnssDebug12getDebugInfoENSt3__18functionIFvRKNS_4hidl4base4V1_09DebugInfoEEEE"
  },
  {
   "name" : "_ZN7android8hardware4gnss4V2_013BnHwGnssDebug22_hidl_getDebugData_2_0EPNS_4hidl4base4V1_08BnHwBaseERKNS0_6ParcelEPS9_NSt3__18functionIFvRS9_EEE"
  },
  {
   "name" : "_ZN7android8hardware4gnss4V2_013BnHwGnssDebug4pingEv"
  },
  {
   "name" : "_ZN7android8hardware4gnss4V2_013BnHwGnssDebugC1ERKNS_2spINS2_10IGnssDebugEEE"
  },
  {
   "name" : "_ZN7android8hardware4gnss4V2_013BnHwGnssDebugC2ERKNS_2spINS2_10IGnssDebugEEE"
  },
  {
   "name" : "_ZN7android8hardware4gnss4V2_013BnHwGnssDebugD0Ev"
  },
  {
   "name" : "_ZN7android8hardware4gnss4V2_013BnHwGnssDebugD1Ev"
  },
  {
   "name" : "_ZN7android8hardware4gnss4V2_013BnHwGnssDebugD2Ev"
  },
  {
   "name" : "_ZN7android8hardware4gnss4V2_013BpHwGnssDebug11linkToDeathERKNS_2spINS0_20hidl_death_recipientEEEy"
  },
  {
   "name" : "_ZN7android8hardware4gnss4V2_013BpHwGnssDebug12getDebugDataENSt3__18functionIFvRKNS1_4V1_010IGnssDebug9DebugDataEEEE"
  },
  {
   "name" : "_ZN7android8hardware4gnss4V2_013BpHwGnssDebug12getDebugInfoENSt3__18functionIFvRKNS_4hidl4base4V1_09DebugInfoEEEE"
  },
  {
   "name" : "_ZN7android8hardware4gnss4V2_013BpHwGnssDebug12getHashChainENSt3__18functionIFvRKNS0_8hidl_vecINS0_10hidl_arrayIhLj32EJEEEEEEEE"
  },
  {
   "name" : "_ZN7android8hardware4gnss4V2_013BpHwGnssDebug13unlinkToDeathERKNS_2spINS0_20hidl_death_recipientEEE"
  },
  {
   "name" : "_ZN7android8hardware4gnss4V2_013BpHwGnssDebug14interfaceChainENSt3__18functionIFvRKNS0_8hidl_vecINS0_11hidl_stringEEEEEE"
  },
  {
   "name" : "_ZN7android8hardware4gnss4V2_013BpHwGnssDebug16getDebugData_2_0ENSt3__18functionIFvRKNS2_10IGnssDebug9DebugDataEEEE"
  },
  {
   "name" : "_ZN7android8hardware4gnss4V2_013BpHwGnssDebug19interfaceDescriptorENSt3__18functionIFvRKNS0_11hidl_stringEEEE"
  },
  {
   "name" : "_ZN7android8hardware4gnss4V2_013BpHwGnssDebug21notifySyspropsChangedEv"
  },
  {
   "name" : "_ZN7android8hardware4gnss4V2_013BpHwGnssDebug21setHALInstrumentationEv"
  },
  {
   "name" : "_ZN7android8hardware4gnss4V2_013BpHwGnssDebug22_hidl_getDebugData_2_0EPNS0_10IInterfaceEPNS0_7details16HidlInstrumentorENSt3__18functionIFvRKNS2_10IGnssDebug9DebugDataEEEE"
  },
  {
   "name" : "_ZN7android8hardware4gnss4V2_013BpHwGnssDebug4pingEv"
  },
  {
   "name" : "_ZN7android8hardware4gnss4V2_013BpHwGnssDebug5debugERKNS0_11hidl_handleERKNS0_8hidl_vecINS0_11hidl_stringEEE"
  },
  {
   "name" : "_ZN7android8hardware4gnss4V2_013BpHwGnssDebugC1ERKNS_2spINS0_7IBinderEEE"
  },
  {
   "name" : "_ZN7android8hardware4gnss4V2_013BpHwGnssDebugC2ERKNS_2spINS0_7IBinderEEE"
  },
  {
   "name" : "_ZN7android8hardware4gnss4V2_013IGnssBatching10getServiceERKNSt3__112basic_stringIcNS4_11char_traitsIcEENS4_9allocatorIcEEEEb"
  },
  {
   "name" : "_ZN7android8hardware4gnss4V2_013IGnssBatching11linkToDeathERKNS_2spINS0_20hidl_death_recipientEEEy"
  },
  {
   "name" : "_ZN7android8hardware4gnss4V2_013IGnssBatching12getDebugInfoENSt3__18functionIFvRKNS_4hidl4base4V1_09DebugInfoEEEE"
  },
  {
   "name" : "_ZN7android8hardware4gnss4V2_013IGnssBatching12getHashChainENSt3__18functionIFvRKNS0_8hidl_vecINS0_10hidl_arrayIhLj32EJEEEEEEEE"
  },
  {
   "name" : "_ZN7android8hardware4gnss4V2_013IGnssBatching13tryGetServiceERKNSt3__112basic_stringIcNS4_11char_traitsIcEENS4_9allocatorIcEEEEb"
  },
  {
   "name" : "_ZN7android8hardware4gnss4V2_013IGnssBatching13unlinkToDeathERKNS_2spINS0_20hidl_death_recipientEEE"
  },
  {
   "name" : "_ZN7android8hardware4gnss4V2_013IGnssBatching14interfaceChainENSt3__18functionIFvRKNS0_8hidl_vecINS0_11hidl_stringEEEEEE"
  },
  {
   "name" : "_ZN7android8hardware4gnss4V2_013IGnssBatching17registerAsServiceERKNSt3__112basic_stringIcNS4_11char_traitsIcEENS4_9allocatorIcEEEE"
  },
  {
   "name" : "_ZN7android8hardware4gnss4V2_013IGnssBatching19interfaceDescriptorENSt3__18functionIFvRKNS0_11hidl_stringEEEE"
  },
  {
   "name" : "_ZN7android8hardware4gnss4V2_013IGnssBatching21notifySyspropsChangedEv"
  },
  {
   "name" : "_ZN7android8hardware4gnss4V2_013IGnssBatching21setHALInstrumentationEv"
  },
  {
   "name" : "_ZN7android8hardware4gnss4V2_013IGnssBatching24registerForNotificationsERKNSt3__112basic_stringIcNS4_11char_traitsIcEENS4_9allocatorIcEEEERKNS_2spINS_4hidl7manager4V1_020IServiceNotificationEEE"
  },
  {
   "name" : "_ZN7android8hardware4gnss4V2_013IGnssBatching4pingEv"
  },
  {
   "name" : "_ZN7android8hardware4gnss4V2_013IGnssBatching5debugERKNS0_11hidl_handleERKNS0_8hidl_vecINS0_11hidl_stringEEE"
  },
  {
   "name" : "_ZN7android8hardware4gnss4V2_013IGnssBatching8castFromERKNS_2spINS1_4V1_013IGnssBatchingEEEb"
  },
  {
   "name" : "_ZN7android8hardware4gnss4V2_013IGnssBatching8castFromERKNS_2spINS_4hidl4base4V1_05IBaseEEEb"
  },
  {
   "name" : "_ZN7android8hardware4gnss4V2_013IGnssBatching8castFromERKNS_2spIS3_EEb"
  },
  {
   "name" : "_ZN7android8hardware4gnss4V2_013IGnssCallback10getServiceERKNSt3__112basic_stringIcNS4_11char_traitsIcEENS4_9allocatorIcEEEEb"
  },
  {
   "name" : "_ZN7android8hardware4gnss4V2_013IGnssCallback11linkToDeathERKNS_2spINS0_20hidl_death_recipientEEEy"
  },
  {
   "name" : "_ZN7android8hardware4gnss4V2_013IGnssCallback12getDebugInfoENSt3__18functionIFvRKNS_4hidl4base4V1_09DebugInfoEEEE"
  },
  {
   "name" : "_ZN7android8hardware4gnss4V2_013IGnssCallback12getHashChainENSt3__18functionIFvRKNS0_8hidl_vecINS0_10hidl_arrayIhLj32EJEEEEEEEE"
  },
  {
   "name" : "_ZN7android8hardware4gnss4V2_013IGnssCallback13tryGetServiceERKNSt3__112basic_stringIcNS4_11char_traitsIcEENS4_9allocatorIcEEEEb"
  },
  {
   "name" : "_ZN7android8hardware4gnss4V2_013IGnssCallback13unlinkToDeathERKNS_2spINS0_20hidl_death_recipientEEE"
  },
  {
   "name" : "_ZN7android8hardware4gnss4V2_013IGnssCallback14interfaceChainENSt3__18functionIFvRKNS0_8hidl_vecINS0_11hidl_stringEEEEEE"
  },
  {
   "name" : "_ZN7android8hardware4gnss4V2_013IGnssCallback17registerAsServiceERKNSt3__112basic_stringIcNS4_11char_traitsIcEENS4_9allocatorIcEEEE"
  },
  {
   "name" : "_ZN7android8hardware4gnss4V2_013IGnssCallback19interfaceDescriptorENSt3__18functionIFvRKNS0_11hidl_stringEEEE"
  },
  {
   "name" : "_ZN7android8hardware4gnss4V2_013IGnssCallback21notifySyspropsChangedEv"
  },
  {
   "name" : "_ZN7android8hardware4gnss4V2_013IGnssCallback21setHALInstrumentationEv"
  },
  {
   "name" : "_ZN7android8hardware4gnss4V2_013IGnssCallback24registerForNotificationsERKNSt3__112basic_stringIcNS4_11char_traitsIcEENS4_9allocatorIcEEEERKNS_2spINS_4hidl7manager4V1_020IServiceNotificationEEE"
  },
  {
   "name" : "_ZN7android8hardware4gnss4V2_013IGnssCallback4pingEv"
  },
  {
   "name" : "_ZN7android8hardware4gnss4V2_013IGnssCallback5debugERKNS0_11hidl_handleERKNS0_8hidl_vecINS0_11hidl_stringEEE"
  },
  {
   "name" : "_ZN7android8hardware4gnss4V2_013IGnssCallback8castFromERKNS_2spINS1_4V1_013IGnssCallbackEEEb"
  },
  {
   "name" : "_ZN7android8hardware4gnss4V2_013IGnssCallback8castFromERKNS_2spINS1_4V1_113IGnssCallbackEEEb"
  },
  {
   "name" : "_ZN7android8hardware4gnss4V2_013IGnssCallback8castFromERKNS_2spINS_4hidl4base4V1_05IBaseEEEb"
  },
  {
   "name" : "_ZN7android8hardware4gnss4V2_013IGnssCallback8castFromERKNS_2spIS3_EEb"
  },
  {
   "name" : "_ZN7android8hardware4gnss4V2_014BsGnssBatching13addOnewayTaskENSt3__18functionIFvvEEE"
  },
  {
   "name" : "_ZN7android8hardware4gnss4V2_014BsGnssBatchingC1ENS_2spINS2_13IGnssBatchingEEE"
  },
  {
   "name" : "_ZN7android8hardware4gnss4V2_014BsGnssBatchingC2ENS_2spINS2_13IGnssBatchingEEE"
  },
  {
   "name" : "_ZN7android8hardware4gnss4V2_014BsGnssCallback13addOnewayTaskENSt3__18functionIFvvEEE"
  },
  {
   "name" : "_ZN7android8hardware4gnss4V2_014BsGnssCallbackC1ENS_2spINS2_13IGnssCallbackEEE"
  },
  {
   "name" : "_ZN7android8hardware4gnss4V2_014BsGnssCallbackC2ENS_2spINS2_13IGnssCallbackEEE"
  },
  {
   "name" : "_ZN7android8hardware4gnss4V2_014IAGnssCallback10getServiceERKNSt3__112basic_stringIcNS4_11char_traitsIcEENS4_9allocatorIcEEEEb"
  },
  {
   "name" : "_ZN7android8hardware4gnss4V2_014IAGnssCallback11linkToDeathERKNS_2spINS0_20hidl_death_recipientEEEy"
  },
  {
   "name" : "_ZN7android8hardware4gnss4V2_014IAGnssCallback12getDebugInfoENSt3__18functionIFvRKNS_4hidl4base4V1_09DebugInfoEEEE"
  },
  {
   "name" : "_ZN7android8hardware4gnss4V2_014IAGnssCallback12getHashChainENSt3__18functionIFvRKNS0_8hidl_vecINS0_10hidl_arrayIhLj32EJEEEEEEEE"
  },
  {
   "name" : "_ZN7android8hardware4gnss4V2_014IAGnssCallback13tryGetServiceERKNSt3__112basic_stringIcNS4_11char_traitsIcEENS4_9allocatorIcEEEEb"
  },
  {
   "name" : "_ZN7android8hardware4gnss4V2_014IAGnssCallback13unlinkToDeathERKNS_2spINS0_20hidl_death_recipientEEE"
  },
  {
   "name" : "_ZN7android8hardware4gnss4V2_014IAGnssCallback14interfaceChainENSt3__18functionIFvRKNS0_8hidl_vecINS0_11hidl_stringEEEEEE"
  },
  {
   "name" : "_ZN7android8hardware4gnss4V2_014IAGnssCallback17registerAsServiceERKNSt3__112basic_stringIcNS4_11char_traitsIcEENS4_9allocatorIcEEEE"
  },
  {
   "name" : "_ZN7android8hardware4gnss4V2_014IAGnssCallback19interfaceDescriptorENSt3__18functionIFvRKNS0_11hidl_stringEEEE"
  },
  {
   "name" : "_ZN7android8hardware4gnss4V2_014IAGnssCallback21notifySyspropsChangedEv"
  },
  {
   "name" : "_ZN7android8hardware4gnss4V2_014IAGnssCallback21setHALInstrumentationEv"
  },
  {
   "name" : "_ZN7android8hardware4gnss4V2_014IAGnssCallback24registerForNotificationsERKNSt3__112basic_stringIcNS4_11char_traitsIcEENS4_9allocatorIcEEEERKNS_2spINS_4hidl7manager4V1_020IServiceNotificationEEE"
  },
  {
   "name" : "_ZN7android8hardware4gnss4V2_014IAGnssCallback4pingEv"
  },
  {
   "name" : "_ZN7android8hardware4gnss4V2_014IAGnssCallback5debugERKNS0_11hidl_handleERKNS0_8hidl_vecINS0_11hidl_stringEEE"
  },
  {
   "name" : "_ZN7android8hardware4gnss4V2_014IAGnssCallback8castFromERKNS_2spINS_4hidl4base4V1_05IBaseEEEb"
  },
  {
   "name" : "_ZN7android8hardware4gnss4V2_014IAGnssCallback8castFromERKNS_2spIS3_EEb"
  },
  {
   "name" : "_ZN7android8hardware4gnss4V2_015BsAGnssCallback13addOnewayTaskENSt3__18functionIFvvEEE"
  },
  {
   "name" : "_ZN7android8hardware4gnss4V2_015BsAGnssCallbackC1ENS_2spINS2_14IAGnssCallbackEEE"
  },
  {
   "name" : "_ZN7android8hardware4gnss4V2_015BsAGnssCallbackC2ENS_2spINS2_14IAGnssCallbackEEE"
  },
  {
   "name" : "_ZN7android8hardware4gnss4V2_016BnHwGnssBatching10onTransactEjRKNS0_6ParcelEPS4_jNSt3__18functionIFvRS4_EEE"
  },
  {
   "name" : "_ZN7android8hardware4gnss4V2_016BnHwGnssBatching12getDebugInfoENSt3__18functionIFvRKNS_4hidl4base4V1_09DebugInfoEEEE"
  },
  {
   "name" : "_ZN7android8hardware4gnss4V2_016BnHwGnssBatching14_hidl_init_2_0EPNS_4hidl4base4V1_08BnHwBaseERKNS0_6ParcelEPS9_NSt3__18functionIFvRS9_EEE"
  },
  {
   "name" : "_ZN7android8hardware4gnss4V2_016BnHwGnssBatching4pingEv"
  },
  {
   "name" : "_ZN7android8hardware4gnss4V2_016BnHwGnssBatchingC1ERKNS_2spINS2_13IGnssBatchingEEE"
  },
  {
   "name" : "_ZN7android8hardware4gnss4V2_016BnHwGnssBatchingC2ERKNS_2spINS2_13IGnssBatchingEEE"
  },
  {
   "name" : "_ZN7android8hardware4gnss4V2_016BnHwGnssBatchingD0Ev"
  },
  {
   "name" : "_ZN7android8hardware4gnss4V2_016BnHwGnssBatchingD1Ev"
  },
  {
   "name" : "_ZN7android8hardware4gnss4V2_016BnHwGnssBatchingD2Ev"
  },
  {
   "name" : "_ZN7android8hardware4gnss4V2_016BnHwGnssCallback10onTransactEjRKNS0_6ParcelEPS4_jNSt3__18functionIFvRS4_EEE"
  },
  {
   "name" : "_ZN7android8hardware4gnss4V2_016BnHwGnssCallback12getDebugInfoENSt3__18functionIFvRKNS_4hidl4base4V1_09DebugInfoEEEE"
  },
  {
   "name" : "_ZN7android8hardware4gnss4V2_016BnHwGnssCallback24_hidl_gnssLocationCb_2_0EPNS_4hidl4base4V1_08BnHwBaseERKNS0_6ParcelEPS9_NSt3__18functionIFvRS9_EEE"
  },
  {
   "name" : "_ZN7android8hardware4gnss4V2_016BnHwGnssCallback24_hidl_gnssSvStatusCb_2_0EPNS_4hidl4base4V1_08BnHwBaseERKNS0_6ParcelEPS9_NSt3__18functionIFvRS9_EEE"
  },
  {
   "name" : "_ZN7android8hardware4gnss4V2_016BnHwGnssCallback31_hidl_gnssRequestLocationCb_2_0EPNS_4hidl4base4V1_08BnHwBaseERKNS0_6ParcelEPS9_NSt3__18functionIFvRS9_EEE"
  },
  {
   "name" : "_ZN7android8hardware4gnss4V2_016BnHwGnssCallback31_hidl_gnssSetCapabilitiesCb_2_0EPNS_4hidl4base4V1_08BnHwBaseERKNS0_6ParcelEPS9_NSt3__18functionIFvRS9_EEE"
  },
  {
   "name" : "_ZN7android8hardware4gnss4V2_016BnHwGnssCallback4pingEv"
  },
  {
   "name" : "_ZN7android8hardware4gnss4V2_016BnHwGnssCallbackC1ERKNS_2spINS2_13IGnssCallbackEEE"
  },
  {
   "name" : "_ZN7android8hardware4gnss4V2_016BnHwGnssCallbackC2ERKNS_2spINS2_13IGnssCallbackEEE"
  },
  {
   "name" : "_ZN7android8hardware4gnss4V2_016BnHwGnssCallbackD0Ev"
  },
  {
   "name" : "_ZN7android8hardware4gnss4V2_016BnHwGnssCallbackD1Ev"
  },
  {
   "name" : "_ZN7android8hardware4gnss4V2_016BnHwGnssCallbackD2Ev"
  },
  {
   "name" : "_ZN7android8hardware4gnss4V2_016BpHwGnssBatching11linkToDeathERKNS_2spINS0_20hidl_death_recipientEEEy"
  },
  {
   "name" : "_ZN7android8hardware4gnss4V2_016BpHwGnssBatching12getBatchSizeEv"
  },
  {
   "name" : "_ZN7android8hardware4gnss4V2_016BpHwGnssBatching12getDebugInfoENSt3__18functionIFvRKNS_4hidl4base4V1_09DebugInfoEEEE"
  },
  {
   "name" : "_ZN7android8hardware4gnss4V2_016BpHwGnssBatching12getHashChainENSt3__18functionIFvRKNS0_8hidl_vecINS0_10hidl_arrayIhLj32EJEEEEEEEE"
  },
  {
   "name" : "_ZN7android8hardware4gnss4V2_016BpHwGnssBatching13unlinkToDeathERKNS_2spINS0_20hidl_death_recipientEEE"
  },
  {
   "name" : "_ZN7android8hardware4gnss4V2_016BpHwGnssBatching14_hidl_init_2_0EPNS0_10IInterfaceEPNS0_7details16HidlInstrumentorERKNS_2spINS2_21IGnssBatchingCallbackEEE"
  },
  {
   "name" : "_ZN7android8hardware4gnss4V2_016BpHwGnssBatching14interfaceChainENSt3__18functionIFvRKNS0_8hidl_vecINS0_11hidl_stringEEEEEE"
  },
  {
   "name" : "_ZN7android8hardware4gnss4V2_016BpHwGnssBatching19interfaceDescriptorENSt3__18functionIFvRKNS0_11hidl_stringEEEE"
  },
  {
   "name" : "_ZN7android8hardware4gnss4V2_016BpHwGnssBatching21notifySyspropsChangedEv"
  },
  {
   "name" : "_ZN7android8hardware4gnss4V2_016BpHwGnssBatching21setHALInstrumentationEv"
  },
  {
   "name" : "_ZN7android8hardware4gnss4V2_016BpHwGnssBatching4initERKNS_2spINS1_4V1_021IGnssBatchingCallbackEEE"
  },
  {
   "name" : "_ZN7android8hardware4gnss4V2_016BpHwGnssBatching4pingEv"
  },
  {
   "name" : "_ZN7android8hardware4gnss4V2_016BpHwGnssBatching4stopEv"
  },
  {
   "name" : "_ZN7android8hardware4gnss4V2_016BpHwGnssBatching5debugERKNS0_11hidl_handleERKNS0_8hidl_vecINS0_11hidl_stringEEE"
  },
  {
   "name" : "_ZN7android8hardware4gnss4V2_016BpHwGnssBatching5flushEv"
  },
  {
   "name" : "_ZN7android8hardware4gnss4V2_016BpHwGnssBatching5startERKNS1_4V1_013IGnssBatching7OptionsE"
  },
  {
   "name" : "_ZN7android8hardware4gnss4V2_016BpHwGnssBatching7cleanupEv"
  },
  {
   "name" : "_ZN7android8hardware4gnss4V2_016BpHwGnssBatching8init_2_0ERKNS_2spINS2_21IGnssBatchingCallbackEEE"
  },
  {
   "name" : "_ZN7android8hardware4gnss4V2_016BpHwGnssBatchingC1ERKNS_2spINS0_7IBinderEEE"
  },
  {
   "name" : "_ZN7android8hardware4gnss4V2_016BpHwGnssBatchingC2ERKNS_2spINS0_7IBinderEEE"
  },
  {
   "name" : "_ZN7android8hardware4gnss4V2_016BpHwGnssCallback10gnssNameCbERKNS0_11hidl_stringE"
  },
  {
   "name" : "_ZN7android8hardware4gnss4V2_016BpHwGnssCallback10gnssNmeaCbExRKNS0_11hidl_stringE"
  },
  {
   "name" : "_ZN7android8hardware4gnss4V2_016BpHwGnssCallback11linkToDeathERKNS_2spINS0_20hidl_death_recipientEEEy"
  },
  {
   "name" : "_ZN7android8hardware4gnss4V2_016BpHwGnssCallback12getDebugInfoENSt3__18functionIFvRKNS_4hidl4base4V1_09DebugInfoEEEE"
  },
  {
   "name" : "_ZN7android8hardware4gnss4V2_016BpHwGnssCallback12getHashChainENSt3__18functionIFvRKNS0_8hidl_vecINS0_10hidl_arrayIhLj32EJEEEEEEEE"
  },
  {
   "name" : "_ZN7android8hardware4gnss4V2_016BpHwGnssCallback12gnssStatusCbENS1_4V1_013IGnssCallback15GnssStatusValueE"
  },
  {
   "name" : "_ZN7android8hardware4gnss4V2_016BpHwGnssCallback13unlinkToDeathERKNS_2spINS0_20hidl_death_recipientEEE"
  },
  {
   "name" : "_ZN7android8hardware4gnss4V2_016BpHwGnssCallback14gnssLocationCbERKNS1_4V1_012GnssLocationE"
  },
  {
   "name" : "_ZN7android8hardware4gnss4V2_016BpHwGnssCallback14gnssSvStatusCbERKNS1_4V1_013IGnssCallback12GnssSvStatusE"
  },
  {
   "name" : "_ZN7android8hardware4gnss4V2_016BpHwGnssCallback14interfaceChainENSt3__18functionIFvRKNS0_8hidl_vecINS0_11hidl_stringEEEEEE"
  },
  {
   "name" : "_ZN7android8hardware4gnss4V2_016BpHwGnssCallback17gnssRequestTimeCbEv"
  },
  {
   "name" : "_ZN7android8hardware4gnss4V2_016BpHwGnssCallback18gnssLocationCb_2_0ERKNS2_12GnssLocationE"
  },
  {
   "name" : "_ZN7android8hardware4gnss4V2_016BpHwGnssCallback18gnssSvStatusCb_2_0ERKNS0_8hidl_vecINS2_13IGnssCallback10GnssSvInfoEEE"
  },
  {
   "name" : "_ZN7android8hardware4gnss4V2_016BpHwGnssCallback19gnssSetSystemInfoCbERKNS1_4V1_013IGnssCallback14GnssSystemInfoE"
  },
  {
   "name" : "_ZN7android8hardware4gnss4V2_016BpHwGnssCallback19interfaceDescriptorENSt3__18functionIFvRKNS0_11hidl_stringEEEE"
  },
  {
   "name" : "_ZN7android8hardware4gnss4V2_016BpHwGnssCallback20gnssSetCapabilitesCbEj"
  },
  {
   "name" : "_ZN7android8hardware4gnss4V2_016BpHwGnssCallback21gnssAcquireWakelockCbEv"
  },
  {
   "name" : "_ZN7android8hardware4gnss4V2_016BpHwGnssCallback21gnssReleaseWakelockCbEv"
  },
  {
   "name" : "_ZN7android8hardware4gnss4V2_016BpHwGnssCallback21gnssRequestLocationCbEb"
  },
  {
   "name" : "_ZN7android8hardware4gnss4V2_016BpHwGnssCallback21notifySyspropsChangedEv"
  },
  {
   "name" : "_ZN7android8hardware4gnss4V2_016BpHwGnssCallback21setHALInstrumentationEv"
  },
  {
   "name" : "_ZN7android8hardware4gnss4V2_016BpHwGnssCallback24_hidl_gnssLocationCb_2_0EPNS0_10IInterfaceEPNS0_7details16HidlInstrumentorERKNS2_12GnssLocationE"
  },
  {
   "name" : "_ZN7android8hardware4gnss4V2_016BpHwGnssCallback24_hidl_gnssSvStatusCb_2_0EPNS0_10IInterfaceEPNS0_7details16HidlInstrumentorERKNS0_8hidl_vecINS2_13IGnssCallback10GnssSvInfoEEE"
  },
  {
   "name" : "_ZN7android8hardware4gnss4V2_016BpHwGnssCallback25gnssRequestLocationCb_2_0Ebb"
  },
  {
   "name" : "_ZN7android8hardware4gnss4V2_016BpHwGnssCallback25gnssSetCapabilitiesCb_2_0Ej"
  },
  {
   "name" : "_ZN7android8hardware4gnss4V2_016BpHwGnssCallback31_hidl_gnssRequestLocationCb_2_0EPNS0_10IInterfaceEPNS0_7details16HidlInstrumentorEbb"
  },
  {
   "name" : "_ZN7android8hardware4gnss4V2_016BpHwGnssCallback31_hidl_gnssSetCapabilitiesCb_2_0EPNS0_10IInterfaceEPNS0_7details16HidlInstrumentorEj"
  },
  {
   "name" : "_ZN7android8hardware4gnss4V2_016BpHwGnssCallback4pingEv"
  },
  {
   "name" : "_ZN7android8hardware4gnss4V2_016BpHwGnssCallback5debugERKNS0_11hidl_handleERKNS0_8hidl_vecINS0_11hidl_stringEEE"
  },
  {
   "name" : "_ZN7android8hardware4gnss4V2_016BpHwGnssCallbackC1ERKNS_2spINS0_7IBinderEEE"
  },
  {
   "name" : "_ZN7android8hardware4gnss4V2_016BpHwGnssCallbackC2ERKNS_2spINS0_7IBinderEEE"
  },
  {
   "name" : "_ZN7android8hardware4gnss4V2_016IGnssMeasurement10getServiceERKNSt3__112basic_stringIcNS4_11char_traitsIcEENS4_9allocatorIcEEEEb"
  },
  {
   "name" : "_ZN7android8hardware4gnss4V2_016IGnssMeasurement11linkToDeathERKNS_2spINS0_20hidl_death_recipientEEEy"
  },
  {
   "name" : "_ZN7android8hardware4gnss4V2_016IGnssMeasurement12getDebugInfoENSt3__18functionIFvRKNS_4hidl4base4V1_09DebugInfoEEEE"
  },
  {
   "name" : "_ZN7android8hardware4gnss4V2_016IGnssMeasurement12getHashChainENSt3__18functionIFvRKNS0_8hidl_vecINS0_10hidl_arrayIhLj32EJEEEEEEEE"
  },
  {
   "name" : "_ZN7android8hardware4gnss4V2_016IGnssMeasurement13tryGetServiceERKNSt3__112basic_stringIcNS4_11char_traitsIcEENS4_9allocatorIcEEEEb"
  },
  {
   "name" : "_ZN7android8hardware4gnss4V2_016IGnssMeasurement13unlinkToDeathERKNS_2spINS0_20hidl_death_recipientEEE"
  },
  {
   "name" : "_ZN7android8hardware4gnss4V2_016IGnssMeasurement14interfaceChainENSt3__18functionIFvRKNS0_8hidl_vecINS0_11hidl_stringEEEEEE"
  },
  {
   "name" : "_ZN7android8hardware4gnss4V2_016IGnssMeasurement17registerAsServiceERKNSt3__112basic_stringIcNS4_11char_traitsIcEENS4_9allocatorIcEEEE"
  },
  {
   "name" : "_ZN7android8hardware4gnss4V2_016IGnssMeasurement19interfaceDescriptorENSt3__18functionIFvRKNS0_11hidl_stringEEEE"
  },
  {
   "name" : "_ZN7android8hardware4gnss4V2_016IGnssMeasurement21notifySyspropsChangedEv"
  },
  {
   "name" : "_ZN7android8hardware4gnss4V2_016IGnssMeasurement21setHALInstrumentationEv"
  },
  {
   "name" : "_ZN7android8hardware4gnss4V2_016IGnssMeasurement24registerForNotificationsERKNSt3__112basic_stringIcNS4_11char_traitsIcEENS4_9allocatorIcEEEERKNS_2spINS_4hidl7manager4V1_020IServiceNotificationEEE"
  },
  {
   "name" : "_ZN7android8hardware4gnss4V2_016IGnssMeasurement4pingEv"
  },
  {
   "name" : "_ZN7android8hardware4gnss4V2_016IGnssMeasurement5debugERKNS0_11hidl_handleERKNS0_8hidl_vecINS0_11hidl_stringEEE"
  },
  {
   "name" : "_ZN7android8hardware4gnss4V2_016IGnssMeasurement8castFromERKNS_2spINS1_4V1_016IGnssMeasurementEEEb"
  },
  {
   "name" : "_ZN7android8hardware4gnss4V2_016IGnssMeasurement8castFromERKNS_2spINS1_4V1_116IGnssMeasurementEEEb"
  },
  {
   "name" : "_ZN7android8hardware4gnss4V2_016IGnssMeasurement8castFromERKNS_2spINS_4hidl4base4V1_05IBaseEEEb"
  },
  {
   "name" : "_ZN7android8hardware4gnss4V2_016IGnssMeasurement8castFromERKNS_2spIS3_EEb"
  },
  {
   "name" : "_ZN7android8hardware4gnss4V2_017BnHwAGnssCallback10onTransactEjRKNS0_6ParcelEPS4_jNSt3__18functionIFvRS4_EEE"
  },
  {
   "name" : "_ZN7android8hardware4gnss4V2_017BnHwAGnssCallback12getDebugInfoENSt3__18functionIFvRKNS_4hidl4base4V1_09DebugInfoEEEE"
  },
  {
   "name" : "_ZN7android8hardware4gnss4V2_017BnHwAGnssCallback19_hidl_agnssStatusCbEPNS_4hidl4base4V1_08BnHwBaseERKNS0_6ParcelEPS9_NSt3__18functionIFvRS9_EEE"
  },
  {
   "name" : "_ZN7android8hardware4gnss4V2_017BnHwAGnssCallback4pingEv"
  },
  {
   "name" : "_ZN7android8hardware4gnss4V2_017BnHwAGnssCallbackC1ERKNS_2spINS2_14IAGnssCallbackEEE"
  },
  {
   "name" : "_ZN7android8hardware4gnss4V2_017BnHwAGnssCallbackC2ERKNS_2spINS2_14IAGnssCallbackEEE"
  },
  {
   "name" : "_ZN7android8hardware4gnss4V2_017BnHwAGnssCallbackD0Ev"
  },
  {
   "name" : "_ZN7android8hardware4gnss4V2_017BnHwAGnssCallbackD1Ev"
  },
  {
   "name" : "_ZN7android8hardware4gnss4V2_017BnHwAGnssCallbackD2Ev"
  },
  {
   "name" : "_ZN7android8hardware4gnss4V2_017BpHwAGnssCallback11linkToDeathERKNS_2spINS0_20hidl_death_recipientEEEy"
  },
  {
   "name" : "_ZN7android8hardware4gnss4V2_017BpHwAGnssCallback12getDebugInfoENSt3__18functionIFvRKNS_4hidl4base4V1_09DebugInfoEEEE"
  },
  {
   "name" : "_ZN7android8hardware4gnss4V2_017BpHwAGnssCallback12getHashChainENSt3__18functionIFvRKNS0_8hidl_vecINS0_10hidl_arrayIhLj32EJEEEEEEEE"
  },
  {
   "name" : "_ZN7android8hardware4gnss4V2_017BpHwAGnssCallback13agnssStatusCbENS2_14IAGnssCallback9AGnssTypeENS4_16AGnssStatusValueE"
  },
  {
   "name" : "_ZN7android8hardware4gnss4V2_017BpHwAGnssCallback13unlinkToDeathERKNS_2spINS0_20hidl_death_recipientEEE"
  },
  {
   "name" : "_ZN7android8hardware4gnss4V2_017BpHwAGnssCallback14interfaceChainENSt3__18functionIFvRKNS0_8hidl_vecINS0_11hidl_stringEEEEEE"
  },
  {
   "name" : "_ZN7android8hardware4gnss4V2_017BpHwAGnssCallback19_hidl_agnssStatusCbEPNS0_10IInterfaceEPNS0_7details16HidlInstrumentorENS2_14IAGnssCallback9AGnssTypeENS9_16AGnssStatusValueE"
  },
  {
   "name" : "_ZN7android8hardware4gnss4V2_017BpHwAGnssCallback19interfaceDescriptorENSt3__18functionIFvRKNS0_11hidl_stringEEEE"
  },
  {
   "name" : "_ZN7android8hardware4gnss4V2_017BpHwAGnssCallback21notifySyspropsChangedEv"
  },
  {
   "name" : "_ZN7android8hardware4gnss4V2_017BpHwAGnssCallback21setHALInstrumentationEv"
  },
  {
   "name" : "_ZN7android8hardware4gnss4V2_017BpHwAGnssCallback4pingEv"
  },
  {
   "name" : "_ZN7android8hardware4gnss4V2_017BpHwAGnssCallback5debugERKNS0_11hidl_handleERKNS0_8hidl_vecINS0_11hidl_stringEEE"
  },
  {
   "name" : "_ZN7android8hardware4gnss4V2_017BpHwAGnssCallbackC1ERKNS_2spINS0_7IBinderEEE"
  },
  {
   "name" : "_ZN7android8hardware4gnss4V2_017BpHwAGnssCallbackC2ERKNS_2spINS0_7IBinderEEE"
  },
  {
   "name" : "_ZN7android8hardware4gnss4V2_017BsGnssMeasurement13addOnewayTaskENSt3__18functionIFvvEEE"
  },
  {
   "name" : "_ZN7android8hardware4gnss4V2_017BsGnssMeasurementC1ENS_2spINS2_16IGnssMeasurementEEE"
  },
  {
   "name" : "_ZN7android8hardware4gnss4V2_017BsGnssMeasurementC2ENS_2spINS2_16IGnssMeasurementEEE"
  },
  {
   "name" : "_ZN7android8hardware4gnss4V2_018IGnssConfiguration10getServiceERKNSt3__112basic_stringIcNS4_11char_traitsIcEENS4_9allocatorIcEEEEb"
  },
  {
   "name" : "_ZN7android8hardware4gnss4V2_018IGnssConfiguration11linkToDeathERKNS_2spINS0_20hidl_death_recipientEEEy"
  },
  {
   "name" : "_ZN7android8hardware4gnss4V2_018IGnssConfiguration12getDebugInfoENSt3__18functionIFvRKNS_4hidl4base4V1_09DebugInfoEEEE"
  },
  {
   "name" : "_ZN7android8hardware4gnss4V2_018IGnssConfiguration12getHashChainENSt3__18functionIFvRKNS0_8hidl_vecINS0_10hidl_arrayIhLj32EJEEEEEEEE"
  },
  {
   "name" : "_ZN7android8hardware4gnss4V2_018IGnssConfiguration13tryGetServiceERKNSt3__112basic_stringIcNS4_11char_traitsIcEENS4_9allocatorIcEEEEb"
  },
  {
   "name" : "_ZN7android8hardware4gnss4V2_018IGnssConfiguration13unlinkToDeathERKNS_2spINS0_20hidl_death_recipientEEE"
  },
  {
   "name" : "_ZN7android8hardware4gnss4V2_018IGnssConfiguration14interfaceChainENSt3__18functionIFvRKNS0_8hidl_vecINS0_11hidl_stringEEEEEE"
  },
  {
   "name" : "_ZN7android8hardware4gnss4V2_018IGnssConfiguration17registerAsServiceERKNSt3__112basic_stringIcNS4_11char_traitsIcEENS4_9allocatorIcEEEE"
  },
  {
   "name" : "_ZN7android8hardware4gnss4V2_018IGnssConfiguration19interfaceDescriptorENSt3__18functionIFvRKNS0_11hidl_stringEEEE"
  },
  {
   "name" : "_ZN7android8hardware4gnss4V2_018IGnssConfiguration21notifySyspropsChangedEv"
  },
  {
   "name" : "_ZN7android8hardware4gnss4V2_018IGnssConfiguration21setHALInstrumentationEv"
  },
  {
   "name" : "_ZN7android8hardware4gnss4V2_018IGnssConfiguration24registerForNotificationsERKNSt3__112basic_stringIcNS4_11char_traitsIcEENS4_9allocatorIcEEEERKNS_2spINS_4hidl7manager4V1_020IServiceNotificationEEE"
  },
  {
   "name" : "_ZN7android8hardware4gnss4V2_018IGnssConfiguration4pingEv"
  },
  {
   "name" : "_ZN7android8hardware4gnss4V2_018IGnssConfiguration5debugERKNS0_11hidl_handleERKNS0_8hidl_vecINS0_11hidl_stringEEE"
  },
  {
   "name" : "_ZN7android8hardware4gnss4V2_018IGnssConfiguration8castFromERKNS_2spINS1_4V1_018IGnssConfigurationEEEb"
  },
  {
   "name" : "_ZN7android8hardware4gnss4V2_018IGnssConfiguration8castFromERKNS_2spINS1_4V1_118IGnssConfigurationEEEb"
  },
  {
   "name" : "_ZN7android8hardware4gnss4V2_018IGnssConfiguration8castFromERKNS_2spINS_4hidl4base4V1_05IBaseEEEb"
  },
  {
   "name" : "_ZN7android8hardware4gnss4V2_018IGnssConfiguration8castFromERKNS_2spIS3_EEb"
  },
  {
   "name" : "_ZN7android8hardware4gnss4V2_019BnHwGnssMeasurement10onTransactEjRKNS0_6ParcelEPS4_jNSt3__18functionIFvRS4_EEE"
  },
  {
   "name" : "_ZN7android8hardware4gnss4V2_019BnHwGnssMeasurement12getDebugInfoENSt3__18functionIFvRKNS_4hidl4base4V1_09DebugInfoEEEE"
  },
  {
   "name" : "_ZN7android8hardware4gnss4V2_019BnHwGnssMeasurement21_hidl_setCallback_2_0EPNS_4hidl4base4V1_08BnHwBaseERKNS0_6ParcelEPS9_NSt3__18functionIFvRS9_EEE"
  },
  {
   "name" : "_ZN7android8hardware4gnss4V2_019BnHwGnssMeasurement4pingEv"
  },
  {
   "name" : "_ZN7android8hardware4gnss4V2_019BnHwGnssMeasurementC1ERKNS_2spINS2_16IGnssMeasurementEEE"
  },
  {
   "name" : "_ZN7android8hardware4gnss4V2_019BnHwGnssMeasurementC2ERKNS_2spINS2_16IGnssMeasurementEEE"
  },
  {
   "name" : "_ZN7android8hardware4gnss4V2_019BnHwGnssMeasurementD0Ev"
  },
  {
   "name" : "_ZN7android8hardware4gnss4V2_019BnHwGnssMeasurementD1Ev"
  },
  {
   "name" : "_ZN7android8hardware4gnss4V2_019BnHwGnssMeasurementD2Ev"
  },
  {
   "name" : "_ZN7android8hardware4gnss4V2_019BpHwGnssMeasurement11linkToDeathERKNS_2spINS0_20hidl_death_recipientEEEy"
  },
  {
   "name" : "_ZN7android8hardware4gnss4V2_019BpHwGnssMeasurement11setCallbackERKNS_2spINS1_4V1_024IGnssMeasurementCallbackEEE"
  },
  {
   "name" : "_ZN7android8hardware4gnss4V2_019BpHwGnssMeasurement12getDebugInfoENSt3__18functionIFvRKNS_4hidl4base4V1_09DebugInfoEEEE"
  },
  {
   "name" : "_ZN7android8hardware4gnss4V2_019BpHwGnssMeasurement12getHashChainENSt3__18functionIFvRKNS0_8hidl_vecINS0_10hidl_arrayIhLj32EJEEEEEEEE"
  },
  {
   "name" : "_ZN7android8hardware4gnss4V2_019BpHwGnssMeasurement13unlinkToDeathERKNS_2spINS0_20hidl_death_recipientEEE"
  },
  {
   "name" : "_ZN7android8hardware4gnss4V2_019BpHwGnssMeasurement14interfaceChainENSt3__18functionIFvRKNS0_8hidl_vecINS0_11hidl_stringEEEEEE"
  },
  {
   "name" : "_ZN7android8hardware4gnss4V2_019BpHwGnssMeasurement15setCallback_1_1ERKNS_2spINS1_4V1_124IGnssMeasurementCallbackEEEb"
  },
  {
   "name" : "_ZN7android8hardware4gnss4V2_019BpHwGnssMeasurement15setCallback_2_0ERKNS_2spINS2_24IGnssMeasurementCallbackEEEb"
  },
  {
   "name" : "_ZN7android8hardware4gnss4V2_019BpHwGnssMeasurement19interfaceDescriptorENSt3__18functionIFvRKNS0_11hidl_stringEEEE"
  },
  {
   "name" : "_ZN7android8hardware4gnss4V2_019BpHwGnssMeasurement21_hidl_setCallback_2_0EPNS0_10IInterfaceEPNS0_7details16HidlInstrumentorERKNS_2spINS2_24IGnssMeasurementCallbackEEEb"
  },
  {
   "name" : "_ZN7android8hardware4gnss4V2_019BpHwGnssMeasurement21notifySyspropsChangedEv"
  },
  {
   "name" : "_ZN7android8hardware4gnss4V2_019BpHwGnssMeasurement21setHALInstrumentationEv"
  },
  {
   "name" : "_ZN7android8hardware4gnss4V2_019BpHwGnssMeasurement4pingEv"
  },
  {
   "name" : "_ZN7android8hardware4gnss4V2_019BpHwGnssMeasurement5closeEv"
  },
  {
   "name" : "_ZN7android8hardware4gnss4V2_019BpHwGnssMeasurement5debugERKNS0_11hidl_handleERKNS0_8hidl_vecINS0_11hidl_stringEEE"
  },
  {
   "name" : "_ZN7android8hardware4gnss4V2_019BpHwGnssMeasurementC1ERKNS_2spINS0_7IBinderEEE"
  },
  {
   "name" : "_ZN7android8hardware4gnss4V2_019BpHwGnssMeasurementC2ERKNS_2spINS0_7IBinderEEE"
  },
  {
   "name" : "_ZN7android8hardware4gnss4V2_019BsGnssConfiguration13addOnewayTaskENSt3__18functionIFvvEEE"
  },
  {
   "name" : "_ZN7android8hardware4gnss4V2_019BsGnssConfigurationC1ENS_2spINS2_18IGnssConfigurationEEE"
  },
  {
   "name" : "_ZN7android8hardware4gnss4V2_019BsGnssConfigurationC2ENS_2spINS2_18IGnssConfigurationEEE"
  },
  {
   "name" : "_ZN7android8hardware4gnss4V2_021BnHwGnssConfiguration10onTransactEjRKNS0_6ParcelEPS4_jNSt3__18functionIFvRS4_EEE"
  },
  {
   "name" : "_ZN7android8hardware4gnss4V2_021BnHwGnssConfiguration12getDebugInfoENSt3__18functionIFvRKNS_4hidl4base4V1_09DebugInfoEEEE"
  },
  {
   "name" : "_ZN7android8hardware4gnss4V2_021BnHwGnssConfiguration23_hidl_setEsExtensionSecEPNS_4hidl4base4V1_08BnHwBaseERKNS0_6ParcelEPS9_NSt3__18functionIFvRS9_EEE"
  },
  {
   "name" : "_ZN7android8hardware4gnss4V2_021BnHwGnssConfiguration4pingEv"
  },
  {
   "name" : "_ZN7android8hardware4gnss4V2_021BnHwGnssConfigurationC1ERKNS_2spINS2_18IGnssConfigurationEEE"
  },
  {
   "name" : "_ZN7android8hardware4gnss4V2_021BnHwGnssConfigurationC2ERKNS_2spINS2_18IGnssConfigurationEEE"
  },
  {
   "name" : "_ZN7android8hardware4gnss4V2_021BnHwGnssConfigurationD0Ev"
  },
  {
   "name" : "_ZN7android8hardware4gnss4V2_021BnHwGnssConfigurationD1Ev"
  },
  {
   "name" : "_ZN7android8hardware4gnss4V2_021BnHwGnssConfigurationD2Ev"
  },
  {
   "name" : "_ZN7android8hardware4gnss4V2_021BpHwGnssConfiguration10setGpsLockEh"
  },
  {
   "name" : "_ZN7android8hardware4gnss4V2_021BpHwGnssConfiguration11linkToDeathERKNS_2spINS0_20hidl_death_recipientEEEy"
  },
  {
   "name" : "_ZN7android8hardware4gnss4V2_021BpHwGnssConfiguration11setSuplModeEh"
  },
  {
   "name" : "_ZN7android8hardware4gnss4V2_021BpHwGnssConfiguration12getDebugInfoENSt3__18functionIFvRKNS_4hidl4base4V1_09DebugInfoEEEE"
  },
  {
   "name" : "_ZN7android8hardware4gnss4V2_021BpHwGnssConfiguration12getHashChainENSt3__18functionIFvRKNS0_8hidl_vecINS0_10hidl_arrayIhLj32EJEEEEEEEE"
  },
  {
   "name" : "_ZN7android8hardware4gnss4V2_021BpHwGnssConfiguration12setBlacklistERKNS0_8hidl_vecINS1_4V1_118IGnssConfiguration17BlacklistedSourceEEE"
  },
  {
   "name" : "_ZN7android8hardware4gnss4V2_021BpHwGnssConfiguration13setLppProfileEh"
  },
  {
   "name" : "_ZN7android8hardware4gnss4V2_021BpHwGnssConfiguration13unlinkToDeathERKNS_2spINS0_20hidl_death_recipientEEE"
  },
  {
   "name" : "_ZN7android8hardware4gnss4V2_021BpHwGnssConfiguration14interfaceChainENSt3__18functionIFvRKNS0_8hidl_vecINS0_11hidl_stringEEEEEE"
  },
  {
   "name" : "_ZN7android8hardware4gnss4V2_021BpHwGnssConfiguration14setSuplVersionEj"
  },
  {
   "name" : "_ZN7android8hardware4gnss4V2_021BpHwGnssConfiguration17setEsExtensionSecEj"
  },
  {
   "name" : "_ZN7android8hardware4gnss4V2_021BpHwGnssConfiguration19interfaceDescriptorENSt3__18functionIFvRKNS0_11hidl_stringEEEE"
  },
  {
   "name" : "_ZN7android8hardware4gnss4V2_021BpHwGnssConfiguration19setEmergencySuplPdnEb"
  },
  {
   "name" : "_ZN7android8hardware4gnss4V2_021BpHwGnssConfiguration21notifySyspropsChangedEv"
  },
  {
   "name" : "_ZN7android8hardware4gnss4V2_021BpHwGnssConfiguration21setHALInstrumentationEv"
  },
  {
   "name" : "_ZN7android8hardware4gnss4V2_021BpHwGnssConfiguration23_hidl_setEsExtensionSecEPNS0_10IInterfaceEPNS0_7details16HidlInstrumentorEj"
  },
  {
   "name" : "_ZN7android8hardware4gnss4V2_021BpHwGnssConfiguration29setGlonassPositioningProtocolEh"
  },
  {
   "name" : "_ZN7android8hardware4gnss4V2_021BpHwGnssConfiguration4pingEv"
  },
  {
   "name" : "_ZN7android8hardware4gnss4V2_021BpHwGnssConfiguration5debugERKNS0_11hidl_handleERKNS0_8hidl_vecINS0_11hidl_stringEEE"
  },
  {
   "name" : "_ZN7android8hardware4gnss4V2_021BpHwGnssConfiguration9setSuplEsEb"
  },
  {
   "name" : "_ZN7android8hardware4gnss4V2_021BpHwGnssConfigurationC1ERKNS_2spINS0_7IBinderEEE"
  },
  {
   "name" : "_ZN7android8hardware4gnss4V2_021BpHwGnssConfigurationC2ERKNS_2spINS0_7IBinderEEE"
  },
  {
   "name" : "_ZN7android8hardware4gnss4V2_021IGnssBatchingCallback10getServiceERKNSt3__112basic_stringIcNS4_11char_traitsIcEENS4_9allocatorIcEEEEb"
  },
  {
   "name" : "_ZN7android8hardware4gnss4V2_021IGnssBatchingCallback11linkToDeathERKNS_2spINS0_20hidl_death_recipientEEEy"
  },
  {
   "name" : "_ZN7android8hardware4gnss4V2_021IGnssBatchingCallback12getDebugInfoENSt3__18functionIFvRKNS_4hidl4base4V1_09DebugInfoEEEE"
  },
  {
   "name" : "_ZN7android8hardware4gnss4V2_021IGnssBatchingCallback12getHashChainENSt3__18functionIFvRKNS0_8hidl_vecINS0_10hidl_arrayIhLj32EJEEEEEEEE"
  },
  {
   "name" : "_ZN7android8hardware4gnss4V2_021IGnssBatchingCallback13tryGetServiceERKNSt3__112basic_stringIcNS4_11char_traitsIcEENS4_9allocatorIcEEEEb"
  },
  {
   "name" : "_ZN7android8hardware4gnss4V2_021IGnssBatchingCallback13unlinkToDeathERKNS_2spINS0_20hidl_death_recipientEEE"
  },
  {
   "name" : "_ZN7android8hardware4gnss4V2_021IGnssBatchingCallback14interfaceChainENSt3__18functionIFvRKNS0_8hidl_vecINS0_11hidl_stringEEEEEE"
  },
  {
   "name" : "_ZN7android8hardware4gnss4V2_021IGnssBatchingCallback17registerAsServiceERKNSt3__112basic_stringIcNS4_11char_traitsIcEENS4_9allocatorIcEEEE"
  },
  {
   "name" : "_ZN7android8hardware4gnss4V2_021IGnssBatchingCallback19interfaceDescriptorENSt3__18functionIFvRKNS0_11hidl_stringEEEE"
  },
  {
   "name" : "_ZN7android8hardware4gnss4V2_021IGnssBatchingCallback21notifySyspropsChangedEv"
  },
  {
   "name" : "_ZN7android8hardware4gnss4V2_021IGnssBatchingCallback21setHALInstrumentationEv"
  },
  {
   "name" : "_ZN7android8hardware4gnss4V2_021IGnssBatchingCallback24registerForNotificationsERKNSt3__112basic_stringIcNS4_11char_traitsIcEENS4_9allocatorIcEEEERKNS_2spINS_4hidl7manager4V1_020IServiceNotificationEEE"
  },
  {
   "name" : "_ZN7android8hardware4gnss4V2_021IGnssBatchingCallback4pingEv"
  },
  {
   "name" : "_ZN7android8hardware4gnss4V2_021IGnssBatchingCallback5debugERKNS0_11hidl_handleERKNS0_8hidl_vecINS0_11hidl_stringEEE"
  },
  {
   "name" : "_ZN7android8hardware4gnss4V2_021IGnssBatchingCallback8castFromERKNS_2spINS_4hidl4base4V1_05IBaseEEEb"
  },
  {
   "name" : "_ZN7android8hardware4gnss4V2_021IGnssBatchingCallback8castFromERKNS_2spIS3_EEb"
  },
  {
   "name" : "_ZN7android8hardware4gnss4V2_021writeEmbeddedToParcelERKNS2_10IGnssDebug9DebugDataEPNS0_6ParcelEjj"
  },
  {
   "name" : "_ZN7android8hardware4gnss4V2_021writeEmbeddedToParcelERKNS2_24IGnssMeasurementCallback15GnssMeasurementEPNS0_6ParcelEjj"
  },
  {
   "name" : "_ZN7android8hardware4gnss4V2_021writeEmbeddedToParcelERKNS2_24IGnssMeasurementCallback8GnssDataEPNS0_6ParcelEjj"
  },
  {
   "name" : "_ZN7android8hardware4gnss4V2_021writeEmbeddedToParcelERKNS2_9IAGnssRil17NetworkAttributesEPNS0_6ParcelEjj"
  },
  {
   "name" : "_ZN7android8hardware4gnss4V2_022BsGnssBatchingCallback13addOnewayTaskENSt3__18functionIFvvEEE"
  },
  {
   "name" : "_ZN7android8hardware4gnss4V2_022BsGnssBatchingCallbackC1ENS_2spINS2_21IGnssBatchingCallbackEEE"
  },
  {
   "name" : "_ZN7android8hardware4gnss4V2_022BsGnssBatchingCallbackC2ENS_2spINS2_21IGnssBatchingCallbackEEE"
  },
  {
   "name" : "_ZN7android8hardware4gnss4V2_022readEmbeddedFromParcelERKNS2_10IGnssDebug9DebugDataERKNS0_6ParcelEjj"
  },
  {
   "name" : "_ZN7android8hardware4gnss4V2_022readEmbeddedFromParcelERKNS2_24IGnssMeasurementCallback15GnssMeasurementERKNS0_6ParcelEjj"
  },
  {
   "name" : "_ZN7android8hardware4gnss4V2_022readEmbeddedFromParcelERKNS2_24IGnssMeasurementCallback8GnssDataERKNS0_6ParcelEjj"
  },
  {
   "name" : "_ZN7android8hardware4gnss4V2_022readEmbeddedFromParcelERKNS2_9IAGnssRil17NetworkAttributesERKNS0_6ParcelEjj"
  },
  {
   "name" : "_ZN7android8hardware4gnss4V2_024BnHwGnssBatchingCallback10onTransactEjRKNS0_6ParcelEPS4_jNSt3__18functionIFvRS4_EEE"
  },
  {
   "name" : "_ZN7android8hardware4gnss4V2_024BnHwGnssBatchingCallback12getDebugInfoENSt3__18functionIFvRKNS_4hidl4base4V1_09DebugInfoEEEE"
  },
  {
   "name" : "_ZN7android8hardware4gnss4V2_024BnHwGnssBatchingCallback25_hidl_gnssLocationBatchCbEPNS_4hidl4base4V1_08BnHwBaseERKNS0_6ParcelEPS9_NSt3__18functionIFvRS9_EEE"
  },
  {
   "name" : "_ZN7android8hardware4gnss4V2_024BnHwGnssBatchingCallback4pingEv"
  },
  {
   "name" : "_ZN7android8hardware4gnss4V2_024BnHwGnssBatchingCallbackC1ERKNS_2spINS2_21IGnssBatchingCallbackEEE"
  },
  {
   "name" : "_ZN7android8hardware4gnss4V2_024BnHwGnssBatchingCallbackC2ERKNS_2spINS2_21IGnssBatchingCallbackEEE"
  },
  {
   "name" : "_ZN7android8hardware4gnss4V2_024BnHwGnssBatchingCallbackD0Ev"
  },
  {
   "name" : "_ZN7android8hardware4gnss4V2_024BnHwGnssBatchingCallbackD1Ev"
  },
  {
   "name" : "_ZN7android8hardware4gnss4V2_024BnHwGnssBatchingCallbackD2Ev"
  },
  {
   "name" : "_ZN7android8hardware4gnss4V2_024BpHwGnssBatchingCallback11linkToDeathERKNS_2spINS0_20hidl_death_recipientEEEy"
  },
  {
   "name" : "_ZN7android8hardware4gnss4V2_024BpHwGnssBatchingCallback12getDebugInfoENSt3__18functionIFvRKNS_4hidl4base4V1_09DebugInfoEEEE"
  },
  {
   "name" : "_ZN7android8hardware4gnss4V2_024BpHwGnssBatchingCallback12getHashChainENSt3__18functionIFvRKNS0_8hidl_vecINS0_10hidl_arrayIhLj32EJEEEEEEEE"
  },
  {
   "name" : "_ZN7android8hardware4gnss4V2_024BpHwGnssBatchingCallback13unlinkToDeathERKNS_2spINS0_20hidl_death_recipientEEE"
  },
  {
   "name" : "_ZN7android8hardware4gnss4V2_024BpHwGnssBatchingCallback14interfaceChainENSt3__18functionIFvRKNS0_8hidl_vecINS0_11hidl_stringEEEEEE"
  },
  {
   "name" : "_ZN7android8hardware4gnss4V2_024BpHwGnssBatchingCallback19gnssLocationBatchCbERKNS0_8hidl_vecINS2_12GnssLocationEEE"
  },
  {
   "name" : "_ZN7android8hardware4gnss4V2_024BpHwGnssBatchingCallback19interfaceDescriptorENSt3__18functionIFvRKNS0_11hidl_stringEEEE"
  },
  {
   "name" : "_ZN7android8hardware4gnss4V2_024BpHwGnssBatchingCallback21notifySyspropsChangedEv"
  },
  {
   "name" : "_ZN7android8hardware4gnss4V2_024BpHwGnssBatchingCallback21setHALInstrumentationEv"
  },
  {
   "name" : "_ZN7android8hardware4gnss4V2_024BpHwGnssBatchingCallback25_hidl_gnssLocationBatchCbEPNS0_10IInterfaceEPNS0_7details16HidlInstrumentorERKNS0_8hidl_vecINS2_12GnssLocationEEE"
  },
  {
   "name" : "_ZN7android8hardware4gnss4V2_024BpHwGnssBatchingCallback4pingEv"
  },
  {
   "name" : "_ZN7android8hardware4gnss4V2_024BpHwGnssBatchingCallback5debugERKNS0_11hidl_handleERKNS0_8hidl_vecINS0_11hidl_stringEEE"
  },
  {
   "name" : "_ZN7android8hardware4gnss4V2_024BpHwGnssBatchingCallbackC1ERKNS_2spINS0_7IBinderEEE"
  },
  {
   "name" : "_ZN7android8hardware4gnss4V2_024BpHwGnssBatchingCallbackC2ERKNS_2spINS0_7IBinderEEE"
  },
  {
   "name" : "_ZN7android8hardware4gnss4V2_024IGnssMeasurementCallback10getServiceERKNSt3__112basic_stringIcNS4_11char_traitsIcEENS4_9allocatorIcEEEEb"
  },
  {
   "name" : "_ZN7android8hardware4gnss4V2_024IGnssMeasurementCallback11linkToDeathERKNS_2spINS0_20hidl_death_recipientEEEy"
  },
  {
   "name" : "_ZN7android8hardware4gnss4V2_024IGnssMeasurementCallback12getDebugInfoENSt3__18functionIFvRKNS_4hidl4base4V1_09DebugInfoEEEE"
  },
  {
   "name" : "_ZN7android8hardware4gnss4V2_024IGnssMeasurementCallback12getHashChainENSt3__18functionIFvRKNS0_8hidl_vecINS0_10hidl_arrayIhLj32EJEEEEEEEE"
  },
  {
   "name" : "_ZN7android8hardware4gnss4V2_024IGnssMeasurementCallback13tryGetServiceERKNSt3__112basic_stringIcNS4_11char_traitsIcEENS4_9allocatorIcEEEEb"
  },
  {
   "name" : "_ZN7android8hardware4gnss4V2_024IGnssMeasurementCallback13unlinkToDeathERKNS_2spINS0_20hidl_death_recipientEEE"
  },
  {
   "name" : "_ZN7android8hardware4gnss4V2_024IGnssMeasurementCallback14interfaceChainENSt3__18functionIFvRKNS0_8hidl_vecINS0_11hidl_stringEEEEEE"
  },
  {
   "name" : "_ZN7android8hardware4gnss4V2_024IGnssMeasurementCallback17registerAsServiceERKNSt3__112basic_stringIcNS4_11char_traitsIcEENS4_9allocatorIcEEEE"
  },
  {
   "name" : "_ZN7android8hardware4gnss4V2_024IGnssMeasurementCallback19interfaceDescriptorENSt3__18functionIFvRKNS0_11hidl_stringEEEE"
  },
  {
   "name" : "_ZN7android8hardware4gnss4V2_024IGnssMeasurementCallback21notifySyspropsChangedEv"
  },
  {
   "name" : "_ZN7android8hardware4gnss4V2_024IGnssMeasurementCallback21setHALInstrumentationEv"
  },
  {
   "name" : "_ZN7android8hardware4gnss4V2_024IGnssMeasurementCallback24registerForNotificationsERKNSt3__112basic_stringIcNS4_11char_traitsIcEENS4_9allocatorIcEEEERKNS_2spINS_4hidl7manager4V1_020IServiceNotificationEEE"
  },
  {
   "name" : "_ZN7android8hardware4gnss4V2_024IGnssMeasurementCallback4pingEv"
  },
  {
   "name" : "_ZN7android8hardware4gnss4V2_024IGnssMeasurementCallback5debugERKNS0_11hidl_handleERKNS0_8hidl_vecINS0_11hidl_stringEEE"
  },
  {
   "name" : "_ZN7android8hardware4gnss4V2_024IGnssMeasurementCallback8castFromERKNS_2spINS1_4V1_024IGnssMeasurementCallbackEEEb"
  },
  {
   "name" : "_ZN7android8hardware4gnss4V2_024IGnssMeasurementCallback8castFromERKNS_2spINS1_4V1_124IGnssMeasurementCallbackEEEb"
  },
  {
   "name" : "_ZN7android8hardware4gnss4V2_024IGnssMeasurementCallback8castFromERKNS_2spINS_4hidl4base4V1_05IBaseEEEb"
  },
  {
   "name" : "_ZN7android8hardware4gnss4V2_024IGnssMeasurementCallback8castFromERKNS_2spIS3_EEb"
  },
  {
   "name" : "_ZN7android8hardware4gnss4V2_025BsGnssMeasurementCallback13addOnewayTaskENSt3__18functionIFvvEEE"
  },
  {
   "name" : "_ZN7android8hardware4gnss4V2_025BsGnssMeasurementCallbackC1ENS_2spINS2_24IGnssMeasurementCallbackEEE"
  },
  {
   "name" : "_ZN7android8hardware4gnss4V2_025BsGnssMeasurementCallbackC2ENS_2spINS2_24IGnssMeasurementCallbackEEE"
  },
  {
   "name" : "_ZN7android8hardware4gnss4V2_027BnHwGnssMeasurementCallback10onTransactEjRKNS0_6ParcelEPS4_jNSt3__18functionIFvRS4_EEE"
  },
  {
   "name" : "_ZN7android8hardware4gnss4V2_027BnHwGnssMeasurementCallback12getDebugInfoENSt3__18functionIFvRKNS_4hidl4base4V1_09DebugInfoEEEE"
  },
  {
   "name" : "_ZN7android8hardware4gnss4V2_027BnHwGnssMeasurementCallback27_hidl_gnssMeasurementCb_2_0EPNS_4hidl4base4V1_08BnHwBaseERKNS0_6ParcelEPS9_NSt3__18functionIFvRS9_EEE"
  },
  {
   "name" : "_ZN7android8hardware4gnss4V2_027BnHwGnssMeasurementCallback4pingEv"
  },
  {
   "name" : "_ZN7android8hardware4gnss4V2_027BnHwGnssMeasurementCallbackC1ERKNS_2spINS2_24IGnssMeasurementCallbackEEE"
  },
  {
   "name" : "_ZN7android8hardware4gnss4V2_027BnHwGnssMeasurementCallbackC2ERKNS_2spINS2_24IGnssMeasurementCallbackEEE"
  },
  {
   "name" : "_ZN7android8hardware4gnss4V2_027BnHwGnssMeasurementCallbackD0Ev"
  },
  {
   "name" : "_ZN7android8hardware4gnss4V2_027BnHwGnssMeasurementCallbackD1Ev"
  },
  {
   "name" : "_ZN7android8hardware4gnss4V2_027BnHwGnssMeasurementCallbackD2Ev"
  },
  {
   "name" : "_ZN7android8hardware4gnss4V2_027BpHwGnssMeasurementCallback11linkToDeathERKNS_2spINS0_20hidl_death_recipientEEEy"
  },
  {
   "name" : "_ZN7android8hardware4gnss4V2_027BpHwGnssMeasurementCallback12getDebugInfoENSt3__18functionIFvRKNS_4hidl4base4V1_09DebugInfoEEEE"
  },
  {
   "name" : "_ZN7android8hardware4gnss4V2_027BpHwGnssMeasurementCallback12getHashChainENSt3__18functionIFvRKNS0_8hidl_vecINS0_10hidl_arrayIhLj32EJEEEEEEEE"
  },
  {
   "name" : "_ZN7android8hardware4gnss4V2_027BpHwGnssMeasurementCallback13unlinkToDeathERKNS_2spINS0_20hidl_death_recipientEEE"
  },
  {
   "name" : "_ZN7android8hardware4gnss4V2_027BpHwGnssMeasurementCallback14interfaceChainENSt3__18functionIFvRKNS0_8hidl_vecINS0_11hidl_stringEEEEEE"
  },
  {
   "name" : "_ZN7android8hardware4gnss4V2_027BpHwGnssMeasurementCallback17GnssMeasurementCbERKNS1_4V1_024IGnssMeasurementCallback8GnssDataE"
  },
  {
   "name" : "_ZN7android8hardware4gnss4V2_027BpHwGnssMeasurementCallback17gnssMeasurementCbERKNS1_4V1_124IGnssMeasurementCallback8GnssDataE"
  },
  {
   "name" : "_ZN7android8hardware4gnss4V2_027BpHwGnssMeasurementCallback19interfaceDescriptorENSt3__18functionIFvRKNS0_11hidl_stringEEEE"
  },
  {
   "name" : "_ZN7android8hardware4gnss4V2_027BpHwGnssMeasurementCallback21gnssMeasurementCb_2_0ERKNS2_24IGnssMeasurementCallback8GnssDataE"
  },
  {
   "name" : "_ZN7android8hardware4gnss4V2_027BpHwGnssMeasurementCallback21notifySyspropsChangedEv"
  },
  {
   "name" : "_ZN7android8hardware4gnss4V2_027BpHwGnssMeasurementCallback21setHALInstrumentationEv"
  },
  {
   "name" : "_ZN7android8hardware4gnss4V2_027BpHwGnssMeasurementCallback27_hidl_gnssMeasurementCb_2_0EPNS0_10IInterfaceEPNS0_7details16HidlInstrumentorERKNS2_24IGnssMeasurementCallback8GnssDataE"
  },
  {
   "name" : "_ZN7android8hardware4gnss4V2_027BpHwGnssMeasurementCallback4pingEv"
  },
  {
   "name" : "_ZN7android8hardware4gnss4V2_027BpHwGnssMeasurementCallback5debugERKNS0_11hidl_handleERKNS0_8hidl_vecINS0_11hidl_stringEEE"
  },
  {
   "name" : "_ZN7android8hardware4gnss4V2_027BpHwGnssMeasurementCallbackC1ERKNS_2spINS0_7IBinderEEE"
  },
  {
   "name" : "_ZN7android8hardware4gnss4V2_027BpHwGnssMeasurementCallbackC2ERKNS_2spINS0_7IBinderEEE"
  },
  {
   "name" : "_ZN7android8hardware4gnss4V2_05IGnss10getServiceERKNSt3__112basic_stringIcNS4_11char_traitsIcEENS4_9allocatorIcEEEEb"
  },
  {
   "name" : "_ZN7android8hardware4gnss4V2_05IGnss11linkToDeathERKNS_2spINS0_20hidl_death_recipientEEEy"
  },
  {
   "name" : "_ZN7android8hardware4gnss4V2_05IGnss12getDebugInfoENSt3__18functionIFvRKNS_4hidl4base4V1_09DebugInfoEEEE"
  },
  {
   "name" : "_ZN7android8hardware4gnss4V2_05IGnss12getHashChainENSt3__18functionIFvRKNS0_8hidl_vecINS0_10hidl_arrayIhLj32EJEEEEEEEE"
  },
  {
   "name" : "_ZN7android8hardware4gnss4V2_05IGnss13tryGetServiceERKNSt3__112basic_stringIcNS4_11char_traitsIcEENS4_9allocatorIcEEEEb"
  },
  {
   "name" : "_ZN7android8hardware4gnss4V2_05IGnss13unlinkToDeathERKNS_2spINS0_20hidl_death_recipientEEE"
  },
  {
   "name" : "_ZN7android8hardware4gnss4V2_05IGnss14interfaceChainENSt3__18functionIFvRKNS0_8hidl_vecINS0_11hidl_stringEEEEEE"
  },
  {
   "name" : "_ZN7android8hardware4gnss4V2_05IGnss17registerAsServiceERKNSt3__112basic_stringIcNS4_11char_traitsIcEENS4_9allocatorIcEEEE"
  },
  {
   "name" : "_ZN7android8hardware4gnss4V2_05IGnss19interfaceDescriptorENSt3__18functionIFvRKNS0_11hidl_stringEEEE"
  },
  {
   "name" : "_ZN7android8hardware4gnss4V2_05IGnss21notifySyspropsChangedEv"
  },
  {
   "name" : "_ZN7android8hardware4gnss4V2_05IGnss21setHALInstrumentationEv"
  },
  {
   "name" : "_ZN7android8hardware4gnss4V2_05IGnss24registerForNotificationsERKNSt3__112basic_stringIcNS4_11char_traitsIcEENS4_9allocatorIcEEEERKNS_2spINS_4hidl7manager4V1_020IServiceNotificationEEE"
  },
  {
   "name" : "_ZN7android8hardware4gnss4V2_05IGnss4pingEv"
  },
  {
   "name" : "_ZN7android8hardware4gnss4V2_05IGnss5debugERKNS0_11hidl_handleERKNS0_8hidl_vecINS0_11hidl_stringEEE"
  },
  {
   "name" : "_ZN7android8hardware4gnss4V2_05IGnss8castFromERKNS_2spINS1_4V1_05IGnssEEEb"
  },
  {
   "name" : "_ZN7android8hardware4gnss4V2_05IGnss8castFromERKNS_2spINS1_4V1_15IGnssEEEb"
  },
  {
   "name" : "_ZN7android8hardware4gnss4V2_05IGnss8castFromERKNS_2spINS_4hidl4base4V1_05IBaseEEEb"
  },
  {
   "name" : "_ZN7android8hardware4gnss4V2_05IGnss8castFromERKNS_2spIS3_EEb"
  },
  {
   "name" : "_ZN7android8hardware4gnss4V2_06BsGnss13addOnewayTaskENSt3__18functionIFvvEEE"
  },
  {
   "name" : "_ZN7android8hardware4gnss4V2_06BsGnssC1ENS_2spINS2_5IGnssEEE"
  },
  {
   "name" : "_ZN7android8hardware4gnss4V2_06BsGnssC2ENS_2spINS2_5IGnssEEE"
  },
  {
   "name" : "_ZN7android8hardware4gnss4V2_06IAGnss10getServiceERKNSt3__112basic_stringIcNS4_11char_traitsIcEENS4_9allocatorIcEEEEb"
  },
  {
   "name" : "_ZN7android8hardware4gnss4V2_06IAGnss11linkToDeathERKNS_2spINS0_20hidl_death_recipientEEEy"
  },
  {
   "name" : "_ZN7android8hardware4gnss4V2_06IAGnss12getDebugInfoENSt3__18functionIFvRKNS_4hidl4base4V1_09DebugInfoEEEE"
  },
  {
   "name" : "_ZN7android8hardware4gnss4V2_06IAGnss12getHashChainENSt3__18functionIFvRKNS0_8hidl_vecINS0_10hidl_arrayIhLj32EJEEEEEEEE"
  },
  {
   "name" : "_ZN7android8hardware4gnss4V2_06IAGnss13tryGetServiceERKNSt3__112basic_stringIcNS4_11char_traitsIcEENS4_9allocatorIcEEEEb"
  },
  {
   "name" : "_ZN7android8hardware4gnss4V2_06IAGnss13unlinkToDeathERKNS_2spINS0_20hidl_death_recipientEEE"
  },
  {
   "name" : "_ZN7android8hardware4gnss4V2_06IAGnss14interfaceChainENSt3__18functionIFvRKNS0_8hidl_vecINS0_11hidl_stringEEEEEE"
  },
  {
   "name" : "_ZN7android8hardware4gnss4V2_06IAGnss17registerAsServiceERKNSt3__112basic_stringIcNS4_11char_traitsIcEENS4_9allocatorIcEEEE"
  },
  {
   "name" : "_ZN7android8hardware4gnss4V2_06IAGnss19interfaceDescriptorENSt3__18functionIFvRKNS0_11hidl_stringEEEE"
  },
  {
   "name" : "_ZN7android8hardware4gnss4V2_06IAGnss21notifySyspropsChangedEv"
  },
  {
   "name" : "_ZN7android8hardware4gnss4V2_06IAGnss21setHALInstrumentationEv"
  },
  {
   "name" : "_ZN7android8hardware4gnss4V2_06IAGnss24registerForNotificationsERKNSt3__112basic_stringIcNS4_11char_traitsIcEENS4_9allocatorIcEEEERKNS_2spINS_4hidl7manager4V1_020IServiceNotificationEEE"
  },
  {
   "name" : "_ZN7android8hardware4gnss4V2_06IAGnss4pingEv"
  },
  {
   "name" : "_ZN7android8hardware4gnss4V2_06IAGnss5debugERKNS0_11hidl_handleERKNS0_8hidl_vecINS0_11hidl_stringEEE"
  },
  {
   "name" : "_ZN7android8hardware4gnss4V2_06IAGnss8castFromERKNS_2spINS_4hidl4base4V1_05IBaseEEEb"
  },
  {
   "name" : "_ZN7android8hardware4gnss4V2_06IAGnss8castFromERKNS_2spIS3_EEb"
  },
  {
   "name" : "_ZN7android8hardware4gnss4V2_07BsAGnss13addOnewayTaskENSt3__18functionIFvvEEE"
  },
  {
   "name" : "_ZN7android8hardware4gnss4V2_07BsAGnssC1ENS_2spINS2_6IAGnssEEE"
  },
  {
   "name" : "_ZN7android8hardware4gnss4V2_07BsAGnssC2ENS_2spINS2_6IAGnssEEE"
  },
  {
   "name" : "_ZN7android8hardware4gnss4V2_08BnHwGnss10onTransactEjRKNS0_6ParcelEPS4_jNSt3__18functionIFvRS4_EEE"
  },
  {
   "name" : "_ZN7android8hardware4gnss4V2_08BnHwGnss12getDebugInfoENSt3__18functionIFvRKNS_4hidl4base4V1_09DebugInfoEEEE"
  },
  {
   "name" : "_ZN7android8hardware4gnss4V2_08BnHwGnss21_hidl_setCallback_2_0EPNS_4hidl4base4V1_08BnHwBaseERKNS0_6ParcelEPS9_NSt3__18functionIFvRS9_EEE"
  },
  {
   "name" : "_ZN7android8hardware4gnss4V2_08BnHwGnss27_hidl_getExtensionAGnss_2_0EPNS_4hidl4base4V1_08BnHwBaseERKNS0_6ParcelEPS9_NSt3__18functionIFvRS9_EEE"
  },
  {
   "name" : "_ZN7android8hardware4gnss4V2_08BnHwGnss28_hidl_injectBestLocation_2_0EPNS_4hidl4base4V1_08BnHwBaseERKNS0_6ParcelEPS9_NSt3__18functionIFvRS9_EEE"
  },
  {
   "name" : "_ZN7android8hardware4gnss4V2_08BnHwGnss30_hidl_getExtensionAGnssRil_2_0EPNS_4hidl4base4V1_08BnHwBaseERKNS0_6ParcelEPS9_NSt3__18functionIFvRS9_EEE"
  },
  {
   "name" : "_ZN7android8hardware4gnss4V2_08BnHwGnss31_hidl_getExtensionGnssDebug_2_0EPNS_4hidl4base4V1_08BnHwBaseERKNS0_6ParcelEPS9_NSt3__18functionIFvRS9_EEE"
  },
  {
   "name" : "_ZN7android8hardware4gnss4V2_08BnHwGnss34_hidl_getExtensionGnssBatching_2_0EPNS_4hidl4base4V1_08BnHwBaseERKNS0_6ParcelEPS9_NSt3__18functionIFvRS9_EEE"
  },
  {
   "name" : "_ZN7android8hardware4gnss4V2_08BnHwGnss35_hidl_getExtensionVisibilityControlEPNS_4hidl4base4V1_08BnHwBaseERKNS0_6ParcelEPS9_NSt3__18functionIFvRS9_EEE"
  },
  {
   "name" : "_ZN7android8hardware4gnss4V2_08BnHwGnss37_hidl_getExtensionGnssMeasurement_2_0EPNS_4hidl4base4V1_08BnHwBaseERKNS0_6ParcelEPS9_NSt3__18functionIFvRS9_EEE"
  },
  {
   "name" : "_ZN7android8hardware4gnss4V2_08BnHwGnss39_hidl_getExtensionGnssConfiguration_2_0EPNS_4hidl4base4V1_08BnHwBaseERKNS0_6ParcelEPS9_NSt3__18functionIFvRS9_EEE"
  },
  {
   "name" : "_ZN7android8hardware4gnss4V2_08BnHwGnss40_hidl_getExtensionMeasurementCorrectionsEPNS_4hidl4base4V1_08BnHwBaseERKNS0_6ParcelEPS9_NSt3__18functionIFvRS9_EEE"
  },
  {
   "name" : "_ZN7android8hardware4gnss4V2_08BnHwGnss4pingEv"
  },
  {
   "name" : "_ZN7android8hardware4gnss4V2_08BnHwGnssC1ERKNS_2spINS2_5IGnssEEE"
  },
  {
   "name" : "_ZN7android8hardware4gnss4V2_08BnHwGnssC2ERKNS_2spINS2_5IGnssEEE"
  },
  {
   "name" : "_ZN7android8hardware4gnss4V2_08BnHwGnssD0Ev"
  },
  {
   "name" : "_ZN7android8hardware4gnss4V2_08BnHwGnssD1Ev"
  },
  {
   "name" : "_ZN7android8hardware4gnss4V2_08BnHwGnssD2Ev"
  },
  {
   "name" : "_ZN7android8hardware4gnss4V2_08BpHwGnss10injectTimeExxi"
  },
  {
   "name" : "_ZN7android8hardware4gnss4V2_08BpHwGnss11linkToDeathERKNS_2spINS0_20hidl_death_recipientEEEy"
  },
  {
   "name" : "_ZN7android8hardware4gnss4V2_08BpHwGnss11setCallbackERKNS_2spINS1_4V1_013IGnssCallbackEEE"
  },
  {
   "name" : "_ZN7android8hardware4gnss4V2_08BpHwGnss12getDebugInfoENSt3__18functionIFvRKNS_4hidl4base4V1_09DebugInfoEEEE"
  },
  {
   "name" : "_ZN7android8hardware4gnss4V2_08BpHwGnss12getHashChainENSt3__18functionIFvRKNS0_8hidl_vecINS0_10hidl_arrayIhLj32EJEEEEEEEE"
  },
  {
   "name" : "_ZN7android8hardware4gnss4V2_08BpHwGnss13unlinkToDeathERKNS_2spINS0_20hidl_death_recipientEEE"
  },
  {
   "name" : "_ZN7android8hardware4gnss4V2_08BpHwGnss14injectLocationEddf"
  },
  {
   "name" : "_ZN7android8hardware4gnss4V2_08BpHwGnss14interfaceChainENSt3__18functionIFvRKNS0_8hidl_vecINS0_11hidl_stringEEEEEE"
  },
  {
   "name" : "_ZN7android8hardware4gnss4V2_08BpHwGnss15setCallback_1_1ERKNS_2spINS1_4V1_113IGnssCallbackEEE"
  },
  {
   "name" : "_ZN7android8hardware4gnss4V2_08BpHwGnss15setCallback_2_0ERKNS_2spINS2_13IGnssCallbackEEE"
  },
  {
   "name" : "_ZN7android8hardware4gnss4V2_08BpHwGnss15setPositionModeENS1_4V1_05IGnss16GnssPositionModeENS5_22GnssPositionRecurrenceEjjj"
  },
  {
   "name" : "_ZN7android8hardware4gnss4V2_08BpHwGnss16deleteAidingDataENS1_4V1_05IGnss14GnssAidingDataE"
  },
  {
   "name" : "_ZN7android8hardware4gnss4V2_08BpHwGnss16getExtensionXtraEv"
  },
  {
   "name" : "_ZN7android8hardware4gnss4V2_08BpHwGnss17getExtensionAGnssEv"
  },
  {
   "name" : "_ZN7android8hardware4gnss4V2_08BpHwGnss18getExtensionGnssNiEv"
  },
  {
   "name" : "_ZN7android8hardware4gnss4V2_08BpHwGnss18injectBestLocationERKNS1_4V1_012GnssLocationE"
  },
  {
   "name" : "_ZN7android8hardware4gnss4V2_08BpHwGnss19interfaceDescriptorENSt3__18functionIFvRKNS0_11hidl_stringEEEE"
  },
  {
   "name" : "_ZN7android8hardware4gnss4V2_08BpHwGnss19setPositionMode_1_1ENS1_4V1_05IGnss16GnssPositionModeENS5_22GnssPositionRecurrenceEjjjb"
  },
  {
   "name" : "_ZN7android8hardware4gnss4V2_08BpHwGnss20getExtensionAGnssRilEv"
  },
  {
   "name" : "_ZN7android8hardware4gnss4V2_08BpHwGnss21_hidl_setCallback_2_0EPNS0_10IInterfaceEPNS0_7details16HidlInstrumentorERKNS_2spINS2_13IGnssCallbackEEE"
  },
  {
   "name" : "_ZN7android8hardware4gnss4V2_08BpHwGnss21getExtensionAGnss_2_0Ev"
  },
  {
   "name" : "_ZN7android8hardware4gnss4V2_08BpHwGnss21getExtensionGnssDebugEv"
  },
  {
   "name" : "_ZN7android8hardware4gnss4V2_08BpHwGnss21notifySyspropsChangedEv"
  },
  {
   "name" : "_ZN7android8hardware4gnss4V2_08BpHwGnss21setHALInstrumentationEv"
  },
  {
   "name" : "_ZN7android8hardware4gnss4V2_08BpHwGnss22injectBestLocation_2_0ERKNS2_12GnssLocationE"
  },
  {
   "name" : "_ZN7android8hardware4gnss4V2_08BpHwGnss24getExtensionAGnssRil_2_0Ev"
  },
  {
   "name" : "_ZN7android8hardware4gnss4V2_08BpHwGnss24getExtensionGnssBatchingEv"
  },
  {
   "name" : "_ZN7android8hardware4gnss4V2_08BpHwGnss25getExtensionGnssDebug_2_0Ev"
  },
  {
   "name" : "_ZN7android8hardware4gnss4V2_08BpHwGnss26getExtensionGnssGeofencingEv"
  },
  {
   "name" : "_ZN7android8hardware4gnss4V2_08BpHwGnss27_hidl_getExtensionAGnss_2_0EPNS0_10IInterfaceEPNS0_7details16HidlInstrumentorE"
  },
  {
   "name" : "_ZN7android8hardware4gnss4V2_08BpHwGnss27getExtensionGnssMeasurementEv"
  },
  {
   "name" : "_ZN7android8hardware4gnss4V2_08BpHwGnss28_hidl_injectBestLocation_2_0EPNS0_10IInterfaceEPNS0_7details16HidlInstrumentorERKNS2_12GnssLocationE"
  },
  {
   "name" : "_ZN7android8hardware4gnss4V2_08BpHwGnss28getExtensionGnssBatching_2_0Ev"
  },
  {
   "name" : "_ZN7android8hardware4gnss4V2_08BpHwGnss29getExtensionGnssConfigurationEv"
  },
  {
   "name" : "_ZN7android8hardware4gnss4V2_08BpHwGnss29getExtensionVisibilityControlEv"
  },
  {
   "name" : "_ZN7android8hardware4gnss4V2_08BpHwGnss30_hidl_getExtensionAGnssRil_2_0EPNS0_10IInterfaceEPNS0_7details16HidlInstrumentorE"
  },
  {
   "name" : "_ZN7android8hardware4gnss4V2_08BpHwGnss31_hidl_getExtensionGnssDebug_2_0EPNS0_10IInterfaceEPNS0_7details16HidlInstrumentorE"
  },
  {
   "name" : "_ZN7android8hardware4gnss4V2_08BpHwGnss31getExtensionGnssMeasurement_1_1Ev"
  },
  {
   "name" : "_ZN7android8hardware4gnss4V2_08BpHwGnss31getExtensionGnssMeasurement_2_0Ev"
  },
  {
   "name" : "_ZN7android8hardware4gnss4V2_08BpHwGnss33getExtensionGnssConfiguration_1_1Ev"
  },
  {
   "name" : "_ZN7android8hardware4gnss4V2_08BpHwGnss33getExtensionGnssConfiguration_2_0Ev"
  },
  {
   "name" : "_ZN7android8hardware4gnss4V2_08BpHwGnss33getExtensionGnssNavigationMessageEv"
  },
  {
   "name" : "_ZN7android8hardware4gnss4V2_08BpHwGnss34_hidl_getExtensionGnssBatching_2_0EPNS0_10IInterfaceEPNS0_7details16HidlInstrumentorE"
  },
  {
   "name" : "_ZN7android8hardware4gnss4V2_08BpHwGnss34getExtensionMeasurementCorrectionsEv"
  },
  {
   "name" : "_ZN7android8hardware4gnss4V2_08BpHwGnss35_hidl_getExtensionVisibilityControlEPNS0_10IInterfaceEPNS0_7details16HidlInstrumentorE"
  },
  {
   "name" : "_ZN7android8hardware4gnss4V2_08BpHwGnss37_hidl_getExtensionGnssMeasurement_2_0EPNS0_10IInterfaceEPNS0_7details16HidlInstrumentorE"
  },
  {
   "name" : "_ZN7android8hardware4gnss4V2_08BpHwGnss39_hidl_getExtensionGnssConfiguration_2_0EPNS0_10IInterfaceEPNS0_7details16HidlInstrumentorE"
  },
  {
   "name" : "_ZN7android8hardware4gnss4V2_08BpHwGnss40_hidl_getExtensionMeasurementCorrectionsEPNS0_10IInterfaceEPNS0_7details16HidlInstrumentorE"
  },
  {
   "name" : "_ZN7android8hardware4gnss4V2_08BpHwGnss4pingEv"
  },
  {
   "name" : "_ZN7android8hardware4gnss4V2_08BpHwGnss4stopEv"
  },
  {
   "name" : "_ZN7android8hardware4gnss4V2_08BpHwGnss5debugERKNS0_11hidl_handleERKNS0_8hidl_vecINS0_11hidl_stringEEE"
  },
  {
   "name" : "_ZN7android8hardware4gnss4V2_08BpHwGnss5startEv"
  },
  {
   "name" : "_ZN7android8hardware4gnss4V2_08BpHwGnss7cleanupEv"
  },
  {
   "name" : "_ZN7android8hardware4gnss4V2_08BpHwGnssC1ERKNS_2spINS0_7IBinderEEE"
  },
  {
   "name" : "_ZN7android8hardware4gnss4V2_08BpHwGnssC2ERKNS_2spINS0_7IBinderEEE"
  },
  {
   "name" : "_ZN7android8hardware4gnss4V2_09BnHwAGnss10onTransactEjRKNS0_6ParcelEPS4_jNSt3__18functionIFvRS4_EEE"
  },
  {
   "name" : "_ZN7android8hardware4gnss4V2_09BnHwAGnss12getDebugInfoENSt3__18functionIFvRKNS_4hidl4base4V1_09DebugInfoEEEE"
  },
  {
   "name" : "_ZN7android8hardware4gnss4V2_09BnHwAGnss15_hidl_setServerEPNS_4hidl4base4V1_08BnHwBaseERKNS0_6ParcelEPS9_NSt3__18functionIFvRS9_EEE"
  },
  {
   "name" : "_ZN7android8hardware4gnss4V2_09BnHwAGnss17_hidl_setCallbackEPNS_4hidl4base4V1_08BnHwBaseERKNS0_6ParcelEPS9_NSt3__18functionIFvRS9_EEE"
  },
  {
   "name" : "_ZN7android8hardware4gnss4V2_09BnHwAGnss18_hidl_dataConnOpenEPNS_4hidl4base4V1_08BnHwBaseERKNS0_6ParcelEPS9_NSt3__18functionIFvRS9_EEE"
  },
  {
   "name" : "_ZN7android8hardware4gnss4V2_09BnHwAGnss20_hidl_dataConnClosedEPNS_4hidl4base4V1_08BnHwBaseERKNS0_6ParcelEPS9_NSt3__18functionIFvRS9_EEE"
  },
  {
   "name" : "_ZN7android8hardware4gnss4V2_09BnHwAGnss20_hidl_dataConnFailedEPNS_4hidl4base4V1_08BnHwBaseERKNS0_6ParcelEPS9_NSt3__18functionIFvRS9_EEE"
  },
  {
   "name" : "_ZN7android8hardware4gnss4V2_09BnHwAGnss4pingEv"
  },
  {
   "name" : "_ZN7android8hardware4gnss4V2_09BnHwAGnssC1ERKNS_2spINS2_6IAGnssEEE"
  },
  {
   "name" : "_ZN7android8hardware4gnss4V2_09BnHwAGnssC2ERKNS_2spINS2_6IAGnssEEE"
  },
  {
   "name" : "_ZN7android8hardware4gnss4V2_09BnHwAGnssD0Ev"
  },
  {
   "name" : "_ZN7android8hardware4gnss4V2_09BnHwAGnssD1Ev"
  },
  {
   "name" : "_ZN7android8hardware4gnss4V2_09BnHwAGnssD2Ev"
  },
  {
   "name" : "_ZN7android8hardware4gnss4V2_09BpHwAGnss11linkToDeathERKNS_2spINS0_20hidl_death_recipientEEEy"
  },
  {
   "name" : "_ZN7android8hardware4gnss4V2_09BpHwAGnss11setCallbackERKNS_2spINS2_14IAGnssCallbackEEE"
  },
  {
   "name" : "_ZN7android8hardware4gnss4V2_09BpHwAGnss12dataConnOpenEyRKNS0_11hidl_stringENS2_6IAGnss9ApnIpTypeE"
  },
  {
   "name" : "_ZN7android8hardware4gnss4V2_09BpHwAGnss12getDebugInfoENSt3__18functionIFvRKNS_4hidl4base4V1_09DebugInfoEEEE"
  },
  {
   "name" : "_ZN7android8hardware4gnss4V2_09BpHwAGnss12getHashChainENSt3__18functionIFvRKNS0_8hidl_vecINS0_10hidl_arrayIhLj32EJEEEEEEEE"
  },
  {
   "name" : "_ZN7android8hardware4gnss4V2_09BpHwAGnss13unlinkToDeathERKNS_2spINS0_20hidl_death_recipientEEE"
  },
  {
   "name" : "_ZN7android8hardware4gnss4V2_09BpHwAGnss14dataConnClosedEv"
  },
  {
   "name" : "_ZN7android8hardware4gnss4V2_09BpHwAGnss14dataConnFailedEv"
  },
  {
   "name" : "_ZN7android8hardware4gnss4V2_09BpHwAGnss14interfaceChainENSt3__18functionIFvRKNS0_8hidl_vecINS0_11hidl_stringEEEEEE"
  },
  {
   "name" : "_ZN7android8hardware4gnss4V2_09BpHwAGnss15_hidl_setServerEPNS0_10IInterfaceEPNS0_7details16HidlInstrumentorENS2_14IAGnssCallback9AGnssTypeERKNS0_11hidl_stringEi"
  },
  {
   "name" : "_ZN7android8hardware4gnss4V2_09BpHwAGnss17_hidl_setCallbackEPNS0_10IInterfaceEPNS0_7details16HidlInstrumentorERKNS_2spINS2_14IAGnssCallbackEEE"
  },
  {
   "name" : "_ZN7android8hardware4gnss4V2_09BpHwAGnss18_hidl_dataConnOpenEPNS0_10IInterfaceEPNS0_7details16HidlInstrumentorEyRKNS0_11hidl_stringENS2_6IAGnss9ApnIpTypeE"
  },
  {
   "name" : "_ZN7android8hardware4gnss4V2_09BpHwAGnss19interfaceDescriptorENSt3__18functionIFvRKNS0_11hidl_stringEEEE"
  },
  {
   "name" : "_ZN7android8hardware4gnss4V2_09BpHwAGnss20_hidl_dataConnClosedEPNS0_10IInterfaceEPNS0_7details16HidlInstrumentorE"
  },
  {
   "name" : "_ZN7android8hardware4gnss4V2_09BpHwAGnss20_hidl_dataConnFailedEPNS0_10IInterfaceEPNS0_7details16HidlInstrumentorE"
  },
  {
   "name" : "_ZN7android8hardware4gnss4V2_09BpHwAGnss21notifySyspropsChangedEv"
  },
  {
   "name" : "_ZN7android8hardware4gnss4V2_09BpHwAGnss21setHALInstrumentationEv"
  },
  {
   "name" : "_ZN7android8hardware4gnss4V2_09BpHwAGnss4pingEv"
  },
  {
   "name" : "_ZN7android8hardware4gnss4V2_09BpHwAGnss5debugERKNS0_11hidl_handleERKNS0_8hidl_vecINS0_11hidl_stringEEE"
  },
  {
   "name" : "_ZN7android8hardware4gnss4V2_09BpHwAGnss9setServerENS2_14IAGnssCallback9AGnssTypeERKNS0_11hidl_stringEi"
  },
  {
   "name" : "_ZN7android8hardware4gnss4V2_09BpHwAGnssC1ERKNS_2spINS0_7IBinderEEE"
  },
  {
   "name" : "_ZN7android8hardware4gnss4V2_09BpHwAGnssC2ERKNS_2spINS0_7IBinderEEE"
  },
  {
   "name" : "_ZN7android8hardware4gnss4V2_09IAGnssRil10getServiceERKNSt3__112basic_stringIcNS4_11char_traitsIcEENS4_9allocatorIcEEEEb"
  },
  {
   "name" : "_ZN7android8hardware4gnss4V2_09IAGnssRil11linkToDeathERKNS_2spINS0_20hidl_death_recipientEEEy"
  },
  {
   "name" : "_ZN7android8hardware4gnss4V2_09IAGnssRil12getDebugInfoENSt3__18functionIFvRKNS_4hidl4base4V1_09DebugInfoEEEE"
  },
  {
   "name" : "_ZN7android8hardware4gnss4V2_09IAGnssRil12getHashChainENSt3__18functionIFvRKNS0_8hidl_vecINS0_10hidl_arrayIhLj32EJEEEEEEEE"
  },
  {
   "name" : "_ZN7android8hardware4gnss4V2_09IAGnssRil13tryGetServiceERKNSt3__112basic_stringIcNS4_11char_traitsIcEENS4_9allocatorIcEEEEb"
  },
  {
   "name" : "_ZN7android8hardware4gnss4V2_09IAGnssRil13unlinkToDeathERKNS_2spINS0_20hidl_death_recipientEEE"
  },
  {
   "name" : "_ZN7android8hardware4gnss4V2_09IAGnssRil14interfaceChainENSt3__18functionIFvRKNS0_8hidl_vecINS0_11hidl_stringEEEEEE"
  },
  {
   "name" : "_ZN7android8hardware4gnss4V2_09IAGnssRil17registerAsServiceERKNSt3__112basic_stringIcNS4_11char_traitsIcEENS4_9allocatorIcEEEE"
  },
  {
   "name" : "_ZN7android8hardware4gnss4V2_09IAGnssRil19interfaceDescriptorENSt3__18functionIFvRKNS0_11hidl_stringEEEE"
  },
  {
   "name" : "_ZN7android8hardware4gnss4V2_09IAGnssRil21notifySyspropsChangedEv"
  },
  {
   "name" : "_ZN7android8hardware4gnss4V2_09IAGnssRil21setHALInstrumentationEv"
  },
  {
   "name" : "_ZN7android8hardware4gnss4V2_09IAGnssRil24registerForNotificationsERKNSt3__112basic_stringIcNS4_11char_traitsIcEENS4_9allocatorIcEEEERKNS_2spINS_4hidl7manager4V1_020IServiceNotificationEEE"
  },
  {
   "name" : "_ZN7android8hardware4gnss4V2_09IAGnssRil4pingEv"
  },
  {
   "name" : "_ZN7android8hardware4gnss4V2_09IAGnssRil5debugERKNS0_11hidl_handleERKNS0_8hidl_vecINS0_11hidl_stringEEE"
  },
  {
   "name" : "_ZN7android8hardware4gnss4V2_09IAGnssRil8castFromERKNS_2spINS1_4V1_09IAGnssRilEEEb"
  },
  {
   "name" : "_ZN7android8hardware4gnss4V2_09IAGnssRil8castFromERKNS_2spINS_4hidl4base4V1_05IBaseEEEb"
  },
  {
   "name" : "_ZN7android8hardware4gnss4V2_09IAGnssRil8castFromERKNS_2spIS3_EEb"
  },
  {
   "binding" : "weak",
   "name" : "_ZN7android8hardware7details13castInterfaceINS0_4gnss4V2_010IGnssDebugENS3_4V1_010IGnssDebugENS4_13BpHwGnssDebugEEENS0_6ReturnINS_2spIT_EEEENSA_IT0_EEPKcb"
  },
  {
   "binding" : "weak",
   "name" : "_ZN7android8hardware7details13castInterfaceINS0_4gnss4V2_010IGnssDebugENS_4hidl4base4V1_05IBaseENS4_13BpHwGnssDebugEEENS0_6ReturnINS_2spIT_EEEENSC_IT0_EEPKcb"
  },
  {
   "binding" : "weak",
   "name" : "_ZN7android8hardware7details13castInterfaceINS0_4gnss4V2_013IGnssBatchingENS3_4V1_013IGnssBatchingENS4_16BpHwGnssBatchingEEENS0_6ReturnINS_2spIT_EEEENSA_IT0_EEPKcb"
  },
  {
   "binding" : "weak",
   "name" : "_ZN7android8hardware7details13castInterfaceINS0_4gnss4V2_013IGnssBatchingENS_4hidl4base4V1_05IBaseENS4_16BpHwGnssBatchingEEENS0_6ReturnINS_2spIT_EEEENSC_IT0_EEPKcb"
  },
  {
   "binding" : "weak",
   "name" : "_ZN7android8hardware7details13castInterfaceINS0_4gnss4V2_013IGnssCallbackENS3_4V1_013IGnssCallbackENS4_16BpHwGnssCallbackEEENS0_6ReturnINS_2spIT_EEEENSA_IT0_EEPKcb"
  },
  {
   "binding" : "weak",
   "name" : "_ZN7android8hardware7details13castInterfaceINS0_4gnss4V2_013IGnssCallbackENS3_4V1_113IGnssCallbackENS4_16BpHwGnssCallbackEEENS0_6ReturnINS_2spIT_EEEENSA_IT0_EEPKcb"
  },
  {
   "binding" : "weak",
   "name" : "_ZN7android8hardware7details13castInterfaceINS0_4gnss4V2_013IGnssCallbackENS_4hidl4base4V1_05IBaseENS4_16BpHwGnssCallbackEEENS0_6ReturnINS_2spIT_EEEENSC_IT0_EEPKcb"
  },
  {
   "binding" : "weak",
   "name" : "_ZN7android8hardware7details13castInterfaceINS0_4gnss4V2_014IAGnssCallbackENS_4hidl4base4V1_05IBaseENS4_17BpHwAGnssCallbackEEENS0_6ReturnINS_2spIT_EEEENSC_IT0_EEPKcb"
  },
  {
   "binding" : "weak",
   "name" : "_ZN7android8hardware7details13castInterfaceINS0_4gnss4V2_016IGnssMeasurementENS3_4V1_016IGnssMeasurementENS4_19BpHwGnssMeasurementEEENS0_6ReturnINS_2spIT_EEEENSA_IT0_EEPKcb"
  },
  {
   "binding" : "weak",
   "name" : "_ZN7android8hardware7details13castInterfaceINS0_4gnss4V2_016IGnssMeasurementENS3_4V1_116IGnssMeasurementENS4_19BpHwGnssMeasurementEEENS0_6ReturnINS_2spIT_EEEENSA_IT0_EEPKcb"
  },
  {
   "binding" : "weak",
   "name" : "_ZN7android8hardware7details13castInterfaceINS0_4gnss4V2_016IGnssMeasurementENS_4hidl4base4V1_05IBaseENS4_19BpHwGnssMeasurementEEENS0_6ReturnINS_2spIT_EEEENSC_IT0_EEPKcb"
  },
  {
   "binding" : "weak",
   "name" : "_ZN7android8hardware7details13castInterfaceINS0_4gnss4V2_018IGnssConfigurationENS3_4V1_018IGnssConfigurationENS4_21BpHwGnssConfigurationEEENS0_6ReturnINS_2spIT_EEEENSA_IT0_EEPKcb"
  },
  {
   "binding" : "weak",
   "name" : "_ZN7android8hardware7details13castInterfaceINS0_4gnss4V2_018IGnssConfigurationENS3_4V1_118IGnssConfigurationENS4_21BpHwGnssConfigurationEEENS0_6ReturnINS_2spIT_EEEENSA_IT0_EEPKcb"
  },
  {
   "binding" : "weak",
   "name" : "_ZN7android8hardware7details13castInterfaceINS0_4gnss4V2_018IGnssConfigurationENS_4hidl4base4V1_05IBaseENS4_21BpHwGnssConfigurationEEENS0_6ReturnINS_2spIT_EEEENSC_IT0_EEPKcb"
  },
  {
   "binding" : "weak",
   "name" : "_ZN7android8hardware7details13castInterfaceINS0_4gnss4V2_021IGnssBatchingCallbackENS_4hidl4base4V1_05IBaseENS4_24BpHwGnssBatchingCallbackEEENS0_6ReturnINS_2spIT_EEEENSC_IT0_EEPKcb"
  },
  {
   "binding" : "weak",
   "name" : "_ZN7android8hardware7details13castInterfaceINS0_4gnss4V2_024IGnssMeasurementCallbackENS3_4V1_024IGnssMeasurementCallbackENS4_27BpHwGnssMeasurementCallbackEEENS0_6ReturnINS_2spIT_EEEENSA_IT0_EEPKcb"
  },
  {
   "binding" : "weak",
   "name" : "_ZN7android8hardware7details13castInterfaceINS0_4gnss4V2_024IGnssMeasurementCallbackENS3_4V1_124IGnssMeasurementCallbackENS4_27BpHwGnssMeasurementCallbackEEENS0_6ReturnINS_2spIT_EEEENSA_IT0_EEPKcb"
  },
  {
   "binding" : "weak",
   "name" : "_ZN7android8hardware7details13castInterfaceINS0_4gnss4V2_024IGnssMeasurementCallbackENS_4hidl4base4V1_05IBaseENS4_27BpHwGnssMeasurementCallbackEEENS0_6ReturnINS_2spIT_EEEENSC_IT0_EEPKcb"
  },
  {
   "binding" : "weak",
   "name" : "_ZN7android8hardware7details13castInterfaceINS0_4gnss4V2_05IGnssENS3_4V1_05IGnssENS4_8BpHwGnssEEENS0_6ReturnINS_2spIT_EEEENSA_IT0_EEPKcb"
  },
  {
   "binding" : "weak",
   "name" : "_ZN7android8hardware7details13castInterfaceINS0_4gnss4V2_05IGnssENS3_4V1_15IGnssENS4_8BpHwGnssEEENS0_6ReturnINS_2spIT_EEEENSA_IT0_EEPKcb"
  },
  {
   "binding" : "weak",
   "name" : "_ZN7android8hardware7details13castInterfaceINS0_4gnss4V2_05IGnssENS_4hidl4base4V1_05IBaseENS4_8BpHwGnssEEENS0_6ReturnINS_2spIT_EEEENSC_IT0_EEPKcb"
  },
  {
   "binding" : "weak",
   "name" : "_ZN7android8hardware7details13castInterfaceINS0_4gnss4V2_06IAGnssENS_4hidl4base4V1_05IBaseENS4_9BpHwAGnssEEENS0_6ReturnINS_2spIT_EEEENSC_IT0_EEPKcb"
  },
  {
   "binding" : "weak",
   "name" : "_ZN7android8hardware7details13castInterfaceINS0_4gnss4V2_09IAGnssRilENS3_4V1_09IAGnssRilENS4_12BpHwAGnssRilEEENS0_6ReturnINS_2spIT_EEEENSA_IT0_EEPKcb"
  },
  {
   "binding" : "weak",
   "name" : "_ZN7android8hardware7details13castInterfaceINS0_4gnss4V2_09IAGnssRilENS_4hidl4base4V1_05IBaseENS4_12BpHwAGnssRilEEENS0_6ReturnINS_2spIT_EEEENSC_IT0_EEPKcb"
  },
  {
   "binding" : "weak",
   "name" : "_ZN7android8hardware7details15wrapPassthroughINS0_4gnss18visibility_control4V1_022IGnssVisibilityControlEvEENS_2spIT_EES9_"
  },
  {
   "binding" : "weak",
   "name" : "_ZN7android8hardware7details15wrapPassthroughINS0_4gnss23measurement_corrections4V1_023IMeasurementCorrectionsEvEENS_2spIT_EES9_"
  },
  {
   "binding" : "weak",
   "name" : "_ZN7android8hardware7details15wrapPassthroughINS0_4gnss4V1_010IGnssDebugEvEENS_2spIT_EES8_"
  },
  {
   "binding" : "weak",
   "name" : "_ZN7android8hardware7details15wrapPassthroughINS0_4gnss4V1_013IGnssBatchingEvEENS_2spIT_EES8_"
  },
  {
   "binding" : "weak",
   "name" : "_ZN7android8hardware7details15wrapPassthroughINS0_4gnss4V1_013IGnssCallbackEvEENS_2spIT_EES8_"
  },
  {
   "binding" : "weak",
   "name" : "_ZN7android8hardware7details15wrapPassthroughINS0_4gnss4V1_015IGnssGeofencingEvEENS_2spIT_EES8_"
  },
  {
   "binding" : "weak",
   "name" : "_ZN7android8hardware7details15wrapPassthroughINS0_4gnss4V1_016IGnssMeasurementEvEENS_2spIT_EES8_"
  },
  {
   "binding" : "weak",
   "name" : "_ZN7android8hardware7details15wrapPassthroughINS0_4gnss4V1_017IAGnssRilCallbackEvEENS_2spIT_EES8_"
  },
  {
   "binding" : "weak",
   "name" : "_ZN7android8hardware7details15wrapPassthroughINS0_4gnss4V1_018IGnssConfigurationEvEENS_2spIT_EES8_"
  },
  {
   "binding" : "weak",
   "name" : "_ZN7android8hardware7details15wrapPassthroughINS0_4gnss4V1_021IGnssBatchingCallbackEvEENS_2spIT_EES8_"
  },
  {
   "binding" : "weak",
   "name" : "_ZN7android8hardware7details15wrapPassthroughINS0_4gnss4V1_022IGnssNavigationMessageEvEENS_2spIT_EES8_"
  },
  {
   "binding" : "weak",
   "name" : "_ZN7android8hardware7details15wrapPassthroughINS0_4gnss4V1_024IGnssMeasurementCallbackEvEENS_2spIT_EES8_"
  },
  {
   "binding" : "weak",
   "name" : "_ZN7android8hardware7details15wrapPassthroughINS0_4gnss4V1_06IAGnssEvEENS_2spIT_EES8_"
  },
  {
   "binding" : "weak",
   "name" : "_ZN7android8hardware7details15wrapPassthroughINS0_4gnss4V1_07IGnssNiEvEENS_2spIT_EES8_"
  },
  {
   "binding" : "weak",
   "name" : "_ZN7android8hardware7details15wrapPassthroughINS0_4gnss4V1_09IAGnssRilEvEENS_2spIT_EES8_"
  },
  {
   "binding" : "weak",
   "name" : "_ZN7android8hardware7details15wrapPassthroughINS0_4gnss4V1_09IGnssXtraEvEENS_2spIT_EES8_"
  },
  {
   "binding" : "weak",
   "name" : "_ZN7android8hardware7details15wrapPassthroughINS0_4gnss4V1_113IGnssCallbackEvEENS_2spIT_EES8_"
  },
  {
   "binding" : "weak",
   "name" : "_ZN7android8hardware7details15wrapPassthroughINS0_4gnss4V1_116IGnssMeasurementEvEENS_2spIT_EES8_"
  },
  {
   "binding" : "weak",
   "name" : "_ZN7android8hardware7details15wrapPassthroughINS0_4gnss4V1_118IGnssConfigurationEvEENS_2spIT_EES8_"
  },
  {
   "binding" : "weak",
   "name" : "_ZN7android8hardware7details15wrapPassthroughINS0_4gnss4V1_124IGnssMeasurementCallbackEvEENS_2spIT_EES8_"
  },
  {
   "binding" : "weak",
   "name" : "_ZN7android8hardware7details15wrapPassthroughINS0_4gnss4V2_010IGnssDebugEvEENS_2spIT_EES8_"
  },
  {
   "binding" : "weak",
   "name" : "_ZN7android8hardware7details15wrapPassthroughINS0_4gnss4V2_013IGnssBatchingEvEENS_2spIT_EES8_"
  },
  {
   "binding" : "weak",
   "name" : "_ZN7android8hardware7details15wrapPassthroughINS0_4gnss4V2_013IGnssCallbackEvEENS_2spIT_EES8_"
  },
  {
   "binding" : "weak",
   "name" : "_ZN7android8hardware7details15wrapPassthroughINS0_4gnss4V2_014IAGnssCallbackEvEENS_2spIT_EES8_"
  },
  {
   "binding" : "weak",
   "name" : "_ZN7android8hardware7details15wrapPassthroughINS0_4gnss4V2_016IGnssMeasurementEvEENS_2spIT_EES8_"
  },
  {
   "binding" : "weak",
   "name" : "_ZN7android8hardware7details15wrapPassthroughINS0_4gnss4V2_018IGnssConfigurationEvEENS_2spIT_EES8_"
  },
  {
   "binding" : "weak",
   "name" : "_ZN7android8hardware7details15wrapPassthroughINS0_4gnss4V2_021IGnssBatchingCallbackEvEENS_2spIT_EES8_"
  },
  {
   "binding" : "weak",
   "name" : "_ZN7android8hardware7details15wrapPassthroughINS0_4gnss4V2_024IGnssMeasurementCallbackEvEENS_2spIT_EES8_"
  },
  {
   "binding" : "weak",
   "name" : "_ZN7android8hardware7details15wrapPassthroughINS0_4gnss4V2_06IAGnssEvEENS_2spIT_EES8_"
  },
  {
   "binding" : "weak",
   "name" : "_ZN7android8hardware7details15wrapPassthroughINS0_4gnss4V2_09IAGnssRilEvEENS_2spIT_EES8_"
  },
  {
   "binding" : "weak",
   "name" : "_ZN7android8hardware7details18getServiceInternalINS0_4gnss4V2_012BpHwAGnssRilENS4_9IAGnssRilEvvEENS_2spIT0_EERKNSt3__112basic_stringIcNSA_11char_traitsIcEENSA_9allocatorIcEEEEbb"
  },
  {
   "binding" : "weak",
   "name" : "_ZN7android8hardware7details18getServiceInternalINS0_4gnss4V2_013BpHwGnssDebugENS4_10IGnssDebugEvvEENS_2spIT0_EERKNSt3__112basic_stringIcNSA_11char_traitsIcEENSA_9allocatorIcEEEEbb"
  },
  {
   "binding" : "weak",
   "name" : "_ZN7android8hardware7details18getServiceInternalINS0_4gnss4V2_016BpHwGnssBatchingENS4_13IGnssBatchingEvvEENS_2spIT0_EERKNSt3__112basic_stringIcNSA_11char_traitsIcEENSA_9allocatorIcEEEEbb"
  },
  {
   "binding" : "weak",
   "name" : "_ZN7android8hardware7details18getServiceInternalINS0_4gnss4V2_016BpHwGnssCallbackENS4_13IGnssCallbackEvvEENS_2spIT0_EERKNSt3__112basic_stringIcNSA_11char_traitsIcEENSA_9allocatorIcEEEEbb"
  },
  {
   "binding" : "weak",
   "name" : "_ZN7android8hardware7details18getServiceInternalINS0_4gnss4V2_017BpHwAGnssCallbackENS4_14IAGnssCallbackEvvEENS_2spIT0_EERKNSt3__112basic_stringIcNSA_11char_traitsIcEENSA_9allocatorIcEEEEbb"
  },
  {
   "binding" : "weak",
   "name" : "_ZN7android8hardware7details18getServiceInternalINS0_4gnss4V2_019BpHwGnssMeasurementENS4_16IGnssMeasurementEvvEENS_2spIT0_EERKNSt3__112basic_stringIcNSA_11char_traitsIcEENSA_9allocatorIcEEEEbb"
  },
  {
   "binding" : "weak",
   "name" : "_ZN7android8hardware7details18getServiceInternalINS0_4gnss4V2_021BpHwGnssConfigurationENS4_18IGnssConfigurationEvvEENS_2spIT0_EERKNSt3__112basic_stringIcNSA_11char_traitsIcEENSA_9allocatorIcEEEEbb"
  },
  {
   "binding" : "weak",
   "name" : "_ZN7android8hardware7details18getServiceInternalINS0_4gnss4V2_024BpHwGnssBatchingCallbackENS4_21IGnssBatchingCallbackEvvEENS_2spIT0_EERKNSt3__112basic_stringIcNSA_11char_traitsIcEENSA_9allocatorIcEEEEbb"
  },
  {
   "binding" : "weak",
   "name" : "_ZN7android8hardware7details18getServiceInternalINS0_4gnss4V2_027BpHwGnssMeasurementCallbackENS4_24IGnssMeasurementCallbackEvvEENS_2spIT0_EERKNSt3__112basic_stringIcNSA_11char_traitsIcEENSA_9allocatorIcEEEEbb"
  },
  {
   "binding" : "weak",
   "name" : "_ZN7android8hardware7details18getServiceInternalINS0_4gnss4V2_08BpHwGnssENS4_5IGnssEvvEENS_2spIT0_EERKNSt3__112basic_stringIcNSA_11char_traitsIcEENSA_9allocatorIcEEEEbb"
  },
  {
   "binding" : "weak",
   "name" : "_ZN7android8hardware7details18getServiceInternalINS0_4gnss4V2_09BpHwAGnssENS4_6IAGnssEvvEENS_2spIT0_EERKNSt3__112basic_stringIcNSA_11char_traitsIcEENSA_9allocatorIcEEEEbb"
  },
  {
   "binding" : "weak",
   "name" : "_ZNSt3__113__tree_removeIPNS_16__tree_node_baseIPvEEEEvT_S5_"
  },
  {
   "binding" : "weak",
   "name" : "_ZNSt3__127__tree_balance_after_insertIPNS_16__tree_node_baseIPvEEEEvT_S5_"
  },
  {
   "binding" : "weak",
   "name" : "_ZNSt3__16__treeINS_12__value_typeINS_12basic_stringIcNS_11char_traitsIcEENS_9allocatorIcEEEENS_8functionIFN7android2spINS9_4hidl4base4V1_05IBaseEEEPvEEEEENS_19__map_value_compareIS7_SJ_NS_4lessIS7_EELb1EEENS5_ISJ_EEE12__find_equalIS7_EERPNS_16__tree_node_baseISG_EERPNS_15__tree_end_nodeIST_EERKT_"
  },
  {
   "binding" : "weak",
   "name" : "_ZNSt3__16__treeINS_12__value_typeINS_12basic_stringIcNS_11char_traitsIcEENS_9allocatorIcEEEENS_8functionIFN7android2spINS9_4hidl4base4V1_05IBaseEEEPvEEEEENS_19__map_value_compareIS7_SJ_NS_4lessIS7_EELb1EEENS5_ISJ_EEE4findIS7_EENS_15__tree_iteratorISJ_PNS_11__tree_nodeISJ_SG_EEiEERKT_"
  },
  {
   "binding" : "weak",
   "name" : "_ZNSt3__16__treeINS_12__value_typeINS_12basic_stringIcNS_11char_traitsIcEENS_9allocatorIcEEEENS_8functionIFN7android2spINS9_4hidl4base4V1_05IBaseEEEPvEEEEENS_19__map_value_compareIS7_SJ_NS_4lessIS7_EELb1EEENS5_ISJ_EEE5eraseENS_21__tree_const_iteratorISJ_PNS_11__tree_nodeISJ_SG_EEiEE"
  },
  {
   "binding" : "weak",
   "name" : "_ZNSt3__16__treeINS_12__value_typeINS_12basic_stringIcNS_11char_traitsIcEENS_9allocatorIcEEEENS_8functionIFN7android2spINS9_8hardware7IBinderEEEPvEEEEENS_19__map_value_compareIS7_SH_NS_4lessIS7_EELb1EEENS5_ISH_EEE12__find_equalIS7_EERPNS_16__tree_node_baseISE_EERPNS_15__tree_end_nodeISR_EERKT_"
  },
  {
   "binding" : "weak",
   "name" : "_ZNSt3__16__treeINS_12__value_typeINS_12basic_stringIcNS_11char_traitsIcEENS_9allocatorIcEEEENS_8functionIFN7android2spINS9_8hardware7IBinderEEEPvEEEEENS_19__map_value_compareIS7_SH_NS_4lessIS7_EELb1EEENS5_ISH_EEE4findIS7_EENS_15__tree_iteratorISH_PNS_11__tree_nodeISH_SE_EEiEERKT_"
  },
  {
   "binding" : "weak",
   "name" : "_ZNSt3__16__treeINS_12__value_typeINS_12basic_stringIcNS_11char_traitsIcEENS_9allocatorIcEEEENS_8functionIFN7android2spINS9_8hardware7IBinderEEEPvEEEEENS_19__map_value_compareIS7_SH_NS_4lessIS7_EELb1EEENS5_ISH_EEE5eraseENS_21__tree_const_iteratorISH_PNS_11__tree_nodeISH_SE_EEiEE"
  },
  {
   "binding" : "weak",
   "name" : "_ZNSt3__16vectorIN7android2spINS1_8hardware27hidl_binder_death_recipientEEENS_9allocatorIS5_EEE21__push_back_slow_pathIS5_EEvOT_"
  },
  {
   "binding" : "weak",
   "name" : "_ZNSt3__16vectorINS_8functionIFvN7android8hardware7details16HidlInstrumentor20InstrumentationEventEPKcS8_S8_S8_PNS0_IPvNS_9allocatorIS9_EEEEEEENSA_ISF_EEEC2ERKSH_"
  },
  {
   "binding" : "weak",
   "name" : "_ZNSt3__16vectorIPvNS_9allocatorIS1_EEE21__push_back_slow_pathIS1_EEvOT_"
  },
  {
   "name" : "_ZThn20_N7android8hardware4gnss4V2_012BnHwAGnssRilD0Ev"
  },
  {
   "name" : "_ZThn20_N7android8hardware4gnss4V2_012BnHwAGnssRilD1Ev"
  },
  {
   "name" : "_ZThn20_N7android8hardware4gnss4V2_013BnHwGnssDebugD0Ev"
  },
  {
   "name" : "_ZThn20_N7android8hardware4gnss4V2_013BnHwGnssDebugD1Ev"
  },
  {
   "name" : "_ZThn20_N7android8hardware4gnss4V2_016BnHwGnssBatchingD0Ev"
  },
  {
   "name" : "_ZThn20_N7android8hardware4gnss4V2_016BnHwGnssBatchingD1Ev"
  },
  {
   "name" : "_ZThn20_N7android8hardware4gnss4V2_016BnHwGnssCallbackD0Ev"
  },
  {
   "name" : "_ZThn20_N7android8hardware4gnss4V2_016BnHwGnssCallbackD1Ev"
  },
  {
   "name" : "_ZThn20_N7android8hardware4gnss4V2_017BnHwAGnssCallbackD0Ev"
  },
  {
   "name" : "_ZThn20_N7android8hardware4gnss4V2_017BnHwAGnssCallbackD1Ev"
  },
  {
   "name" : "_ZThn20_N7android8hardware4gnss4V2_019BnHwGnssMeasurementD0Ev"
  },
  {
   "name" : "_ZThn20_N7android8hardware4gnss4V2_019BnHwGnssMeasurementD1Ev"
  },
  {
   "name" : "_ZThn20_N7android8hardware4gnss4V2_021BnHwGnssConfigurationD0Ev"
  },
  {
   "name" : "_ZThn20_N7android8hardware4gnss4V2_021BnHwGnssConfigurationD1Ev"
  },
  {
   "name" : "_ZThn20_N7android8hardware4gnss4V2_024BnHwGnssBatchingCallbackD0Ev"
  },
  {
   "name" : "_ZThn20_N7android8hardware4gnss4V2_024BnHwGnssBatchingCallbackD1Ev"
  },
  {
   "name" : "_ZThn20_N7android8hardware4gnss4V2_027BnHwGnssMeasurementCallbackD0Ev"
  },
  {
   "name" : "_ZThn20_N7android8hardware4gnss4V2_027BnHwGnssMeasurementCallbackD1Ev"
  },
  {
   "name" : "_ZThn20_N7android8hardware4gnss4V2_08BnHwGnssD0Ev"
  },
  {
   "name" : "_ZThn20_N7android8hardware4gnss4V2_08BnHwGnssD1Ev"
  },
  {
   "name" : "_ZThn20_N7android8hardware4gnss4V2_09BnHwAGnssD0Ev"
  },
  {
   "name" : "_ZThn20_N7android8hardware4gnss4V2_09BnHwAGnssD1Ev"
  },
  {
   "name" : "_ZTv0_n12_N7android8hardware4gnss4V2_012BnHwAGnssRilD0Ev"
  },
  {
   "name" : "_ZTv0_n12_N7android8hardware4gnss4V2_012BnHwAGnssRilD1Ev"
  },
  {
   "name" : "_ZTv0_n12_N7android8hardware4gnss4V2_013BnHwGnssDebugD0Ev"
  },
  {
   "name" : "_ZTv0_n12_N7android8hardware4gnss4V2_013BnHwGnssDebugD1Ev"
  },
  {
   "name" : "_ZTv0_n12_N7android8hardware4gnss4V2_016BnHwGnssBatchingD0Ev"
  },
  {
   "name" : "_ZTv0_n12_N7android8hardware4gnss4V2_016BnHwGnssBatchingD1Ev"
  },
  {
   "name" : "_ZTv0_n12_N7android8hardware4gnss4V2_016BnHwGnssCallbackD0Ev"
  },
  {
   "name" : "_ZTv0_n12_N7android8hardware4gnss4V2_016BnHwGnssCallbackD1Ev"
  },
  {
   "name" : "_ZTv0_n12_N7android8hardware4gnss4V2_017BnHwAGnssCallbackD0Ev"
  },
  {
   "name" : "_ZTv0_n12_N7android8hardware4gnss4V2_017BnHwAGnssCallbackD1Ev"
  },
  {
   "name" : "_ZTv0_n12_N7android8hardware4gnss4V2_019BnHwGnssMeasurementD0Ev"
  },
  {
   "name" : "_ZTv0_n12_N7android8hardware4gnss4V2_019BnHwGnssMeasurementD1Ev"
  },
  {
   "name" : "_ZTv0_n12_N7android8hardware4gnss4V2_021BnHwGnssConfigurationD0Ev"
  },
  {
   "name" : "_ZTv0_n12_N7android8hardware4gnss4V2_021BnHwGnssConfigurationD1Ev"
  },
  {
   "name" : "_ZTv0_n12_N7android8hardware4gnss4V2_024BnHwGnssBatchingCallbackD0Ev"
  },
  {
   "name" : "_ZTv0_n12_N7android8hardware4gnss4V2_024BnHwGnssBatchingCallbackD1Ev"
  },
  {
   "name" : "_ZTv0_n12_N7android8hardware4gnss4V2_027BnHwGnssMeasurementCallbackD0Ev"
  },
  {
   "name" : "_ZTv0_n12_N7android8hardware4gnss4V2_027BnHwGnssMeasurementCallbackD1Ev"
  },
  {
   "name" : "_ZTv0_n12_N7android8hardware4gnss4V2_08BnHwGnssD0Ev"
  },
  {
   "name" : "_ZTv0_n12_N7android8hardware4gnss4V2_08BnHwGnssD1Ev"
  },
  {
   "name" : "_ZTv0_n12_N7android8hardware4gnss4V2_09BnHwAGnssD0Ev"
  },
  {
   "name" : "_ZTv0_n12_N7android8hardware4gnss4V2_09BnHwAGnssD1Ev"
  }
 ],
 "elf_objects" :
 [
  {
   "name" : "_ZN7android8hardware4gnss4V2_010IGnssDebug10descriptorE"
  },
  {
   "name" : "_ZN7android8hardware4gnss4V2_013IGnssBatching10descriptorE"
  },
  {
   "name" : "_ZN7android8hardware4gnss4V2_013IGnssCallback10descriptorE"
  },
  {
   "name" : "_ZN7android8hardware4gnss4V2_014IAGnssCallback10descriptorE"
  },
  {
   "name" : "_ZN7android8hardware4gnss4V2_016IGnssMeasurement10descriptorE"
  },
  {
   "name" : "_ZN7android8hardware4gnss4V2_018IGnssConfiguration10descriptorE"
  },
  {
   "name" : "_ZN7android8hardware4gnss4V2_021IGnssBatchingCallback10descriptorE"
  },
  {
   "name" : "_ZN7android8hardware4gnss4V2_024IGnssMeasurementCallback10descriptorE"
  },
  {
   "name" : "_ZN7android8hardware4gnss4V2_05IGnss10descriptorE"
  },
  {
   "name" : "_ZN7android8hardware4gnss4V2_06IAGnss10descriptorE"
  },
  {
   "name" : "_ZN7android8hardware4gnss4V2_09IAGnssRil10descriptorE"
  },
  {
   "binding" : "weak",
   "name" : "_ZTCN7android8hardware4gnss4V2_010BsAGnssRilE0_NS2_9IAGnssRilE"
  },
  {
   "name" : "_ZTCN7android8hardware4gnss4V2_010IGnssDebugE0_NS1_4V1_010IGnssDebugE"
  },
  {
   "name" : "_ZTCN7android8hardware4gnss4V2_010IGnssDebugE0_NS_4hidl4base4V1_05IBaseE"
  },
  {
   "binding" : "weak",
   "name" : "_ZTCN7android8hardware4gnss4V2_011BsGnssDebugE0_NS2_10IGnssDebugE"
  },
  {
   "name" : "_ZTCN7android8hardware4gnss4V2_012BnHwAGnssRilE0_NS0_7IBinderE"
  },
  {
   "name" : "_ZTCN7android8hardware4gnss4V2_012BnHwAGnssRilE0_NS0_9BHwBinderE"
  },
  {
   "name" : "_ZTCN7android8hardware4gnss4V2_012BnHwAGnssRilE0_NS_4hidl4base4V1_08BnHwBaseE"
  },
  {
   "name" : "_ZTCN7android8hardware4gnss4V2_012BpHwAGnssRilE0_NS0_11BpInterfaceINS2_9IAGnssRilEEE"
  },
  {
   "name" : "_ZTCN7android8hardware4gnss4V2_012BpHwAGnssRilE0_NS1_4V1_09IAGnssRilE"
  },
  {
   "name" : "_ZTCN7android8hardware4gnss4V2_012BpHwAGnssRilE0_NS2_9IAGnssRilE"
  },
  {
   "name" : "_ZTCN7android8hardware4gnss4V2_012BpHwAGnssRilE0_NS_4hidl4base4V1_05IBaseE"
  },
  {
   "name" : "_ZTCN7android8hardware4gnss4V2_012BpHwAGnssRilE4_NS0_10IInterfaceE"
  },
  {
   "name" : "_ZTCN7android8hardware4gnss4V2_012BpHwAGnssRilE8_NS0_11BpHwRefBaseE"
  },
  {
   "name" : "_ZTCN7android8hardware4gnss4V2_013BnHwGnssDebugE0_NS0_7IBinderE"
  },
  {
   "name" : "_ZTCN7android8hardware4gnss4V2_013BnHwGnssDebugE0_NS0_9BHwBinderE"
  },
  {
   "name" : "_ZTCN7android8hardware4gnss4V2_013BnHwGnssDebugE0_NS_4hidl4base4V1_08BnHwBaseE"
  },
  {
   "name" : "_ZTCN7android8hardware4gnss4V2_013BpHwGnssDebugE0_NS0_11BpInterfaceINS2_10IGnssDebugEEE"
  },
  {
   "name" : "_ZTCN7android8hardware4gnss4V2_013BpHwGnssDebugE0_NS1_4V1_010IGnssDebugE"
  },
  {
   "name" : "_ZTCN7android8hardware4gnss4V2_013BpHwGnssDebugE0_NS2_10IGnssDebugE"
  },
  {
   "name" : "_ZTCN7android8hardware4gnss4V2_013BpHwGnssDebugE0_NS_4hidl4base4V1_05IBaseE"
  },
  {
   "name" : "_ZTCN7android8hardware4gnss4V2_013BpHwGnssDebugE4_NS0_10IInterfaceE"
  },
  {
   "name" : "_ZTCN7android8hardware4gnss4V2_013BpHwGnssDebugE8_NS0_11BpHwRefBaseE"
  },
  {
   "name" : "_ZTCN7android8hardware4gnss4V2_013IGnssBatchingE0_NS1_4V1_013IGnssBatchingE"
  },
  {
   "name" : "_ZTCN7android8hardware4gnss4V2_013IGnssBatchingE0_NS_4hidl4base4V1_05IBaseE"
  },
  {
   "name" : "_ZTCN7android8hardware4gnss4V2_013IGnssCallbackE0_NS1_4V1_013IGnssCallbackE"
  },
  {
   "name" : "_ZTCN7android8hardware4gnss4V2_013IGnssCallbackE0_NS1_4V1_113IGnssCallbackE"
  },
  {
   "name" : "_ZTCN7android8hardware4gnss4V2_013IGnssCallbackE0_NS_4hidl4base4V1_05IBaseE"
  },
  {
   "binding" : "weak",
   "name" : "_ZTCN7android8hardware4gnss4V2_014BsGnssBatchingE0_NS2_13IGnssBatchingE"
  },
  {
   "binding" : "weak",
   "name" : "_ZTCN7android8hardware4gnss4V2_014BsGnssCallbackE0_NS2_13IGnssCallbackE"
  },
  {
   "name" : "_ZTCN7android8hardware4gnss4V2_014IAGnssCallbackE0_NS_4hidl4base4V1_05IBaseE"
  },
  {
   "binding" : "weak",
   "name" : "_ZTCN7android8hardware4gnss4V2_015BsAGnssCallbackE0_NS2_14IAGnssCallbackE"
  },
  {
   "name" : "_ZTCN7android8hardware4gnss4V2_016BnHwGnssBatchingE0_NS0_7IBinderE"
  },
  {
   "name" : "_ZTCN7android8hardware4gnss4V2_016BnHwGnssBatchingE0_NS0_9BHwBinderE"
  },
  {
   "name" : "_ZTCN7android8hardware4gnss4V2_016BnHwGnssBatchingE0_NS_4hidl4base4V1_08BnHwBaseE"
  },
  {
   "name" : "_ZTCN7android8hardware4gnss4V2_016BnHwGnssCallbackE0_NS0_7IBinderE"
  },
  {
   "name" : "_ZTCN7android8hardware4gnss4V2_016BnHwGnssCallbackE0_NS0_9BHwBinderE"
  },
  {
   "name" : "_ZTCN7android8hardware4gnss4V2_016BnHwGnssCallbackE0_NS_4hidl4base4V1_08BnHwBaseE"
  },
  {
   "name" : "_ZTCN7android8hardware4gnss4V2_016BpHwGnssBatchingE0_NS0_11BpInterfaceINS2_13IGnssBatchingEEE"
  },
  {
   "name" : "_ZTCN7android8hardware4gnss4V2_016BpHwGnssBatchingE0_NS1_4V1_013IGnssBatchingE"
  },
  {
   "name" : "_ZTCN7android8hardware4gnss4V2_016BpHwGnssBatchingE0_NS2_13IGnssBatchingE"
  },
  {
   "name" : "_ZTCN7android8hardware4gnss4V2_016BpHwGnssBatchingE0_NS_4hidl4base4V1_05IBaseE"
  },
  {
   "name" : "_ZTCN7android8hardware4gnss4V2_016BpHwGnssBatchingE4_NS0_10IInterfaceE"
  },
  {
   "name" : "_ZTCN7android8hardware4gnss4V2_016BpHwGnssBatchingE8_NS0_11BpHwRefBaseE"
  },
  {
   "name" : "_ZTCN7android8hardware4gnss4V2_016BpHwGnssCallbackE0_NS0_11BpInterfaceINS2_13IGnssCallbackEEE"
  },
  {
   "name" : "_ZTCN7android8hardware4gnss4V2_016BpHwGnssCallbackE0_NS1_4V1_013IGnssCallbackE"
  },
  {
   "name" : "_ZTCN7android8hardware4gnss4V2_016BpHwGnssCallbackE0_NS1_4V1_113IGnssCallbackE"
  },
  {
   "name" : "_ZTCN7android8hardware4gnss4V2_016BpHwGnssCallbackE0_NS2_13IGnssCallbackE"
  },
  {
   "name" : "_ZTCN7android8hardware4gnss4V2_016BpHwGnssCallbackE0_NS_4hidl4base4V1_05IBaseE"
  },
  {
   "name" : "_ZTCN7android8hardware4gnss4V2_016BpHwGnssCallbackE4_NS0_10IInterfaceE"
  },
  {
   "name" : "_ZTCN7android8hardware4gnss4V2_016BpHwGnssCallbackE8_NS0_11BpHwRefBaseE"
  },
  {
   "name" : "_ZTCN7android8hardware4gnss4V2_016IGnssMeasurementE0_NS1_4V1_016IGnssMeasurementE"
  },
  {
   "name" : "_ZTCN7android8hardware4gnss4V2_016IGnssMeasurementE0_NS1_4V1_116IGnssMeasurementE"
  },
  {
   "name" : "_ZTCN7android8hardware4gnss4V2_016IGnssMeasurementE0_NS_4hidl4base4V1_05IBaseE"
  },
  {
   "name" : "_ZTCN7android8hardware4gnss4V2_017BnHwAGnssCallbackE0_NS0_7IBinderE"
  },
  {
   "name" : "_ZTCN7android8hardware4gnss4V2_017BnHwAGnssCallbackE0_NS0_9BHwBinderE"
  },
  {
   "name" : "_ZTCN7android8hardware4gnss4V2_017BnHwAGnssCallbackE0_NS_4hidl4base4V1_08BnHwBaseE"
  },
  {
   "name" : "_ZTCN7android8hardware4gnss4V2_017BpHwAGnssCallbackE0_NS0_11BpInterfaceINS2_14IAGnssCallbackEEE"
  },
  {
   "name" : "_ZTCN7android8hardware4gnss4V2_017BpHwAGnssCallbackE0_NS2_14IAGnssCallbackE"
  },
  {
   "name" : "_ZTCN7android8hardware4gnss4V2_017BpHwAGnssCallbackE0_NS_4hidl4base4V1_05IBaseE"
  },
  {
   "name" : "_ZTCN7android8hardware4gnss4V2_017BpHwAGnssCallbackE4_NS0_10IInterfaceE"
  },
  {
   "name" : "_ZTCN7android8hardware4gnss4V2_017BpHwAGnssCallbackE8_NS0_11BpHwRefBaseE"
  },
  {
   "binding" : "weak",
   "name" : "_ZTCN7android8hardware4gnss4V2_017BsGnssMeasurementE0_NS2_16IGnssMeasurementE"
  },
  {
   "name" : "_ZTCN7android8hardware4gnss4V2_018IGnssConfigurationE0_NS1_4V1_018IGnssConfigurationE"
  },
  {
   "name" : "_ZTCN7android8hardware4gnss4V2_018IGnssConfigurationE0_NS1_4V1_118IGnssConfigurationE"
  },
  {
   "name" : "_ZTCN7android8hardware4gnss4V2_018IGnssConfigurationE0_NS_4hidl4base4V1_05IBaseE"
  },
  {
   "name" : "_ZTCN7android8hardware4gnss4V2_019BnHwGnssMeasurementE0_NS0_7IBinderE"
  },
  {
   "name" : "_ZTCN7android8hardware4gnss4V2_019BnHwGnssMeasurementE0_NS0_9BHwBinderE"
  },
  {
   "name" : "_ZTCN7android8hardware4gnss4V2_019BnHwGnssMeasurementE0_NS_4hidl4base4V1_08BnHwBaseE"
  },
  {
   "name" : "_ZTCN7android8hardware4gnss4V2_019BpHwGnssMeasurementE0_NS0_11BpInterfaceINS2_16IGnssMeasurementEEE"
  },
  {
   "name" : "_ZTCN7android8hardware4gnss4V2_019BpHwGnssMeasurementE0_NS1_4V1_016IGnssMeasurementE"
  },
  {
   "name" : "_ZTCN7android8hardware4gnss4V2_019BpHwGnssMeasurementE0_NS1_4V1_116IGnssMeasurementE"
  },
  {
   "name" : "_ZTCN7android8hardware4gnss4V2_019BpHwGnssMeasurementE0_NS2_16IGnssMeasurementE"
  },
  {
   "name" : "_ZTCN7android8hardware4gnss4V2_019BpHwGnssMeasurementE0_NS_4hidl4base4V1_05IBaseE"
  },
  {
   "name" : "_ZTCN7android8hardware4gnss4V2_019BpHwGnssMeasurementE4_NS0_10IInterfaceE"
  },
  {
   "name" : "_ZTCN7android8hardware4gnss4V2_019BpHwGnssMeasurementE8_NS0_11BpHwRefBaseE"
  },
  {
   "binding" : "weak",
   "name" : "_ZTCN7android8hardware4gnss4V2_019BsGnssConfigurationE0_NS2_18IGnssConfigurationE"
  },
  {
   "name" : "_ZTCN7android8hardware4gnss4V2_021BnHwGnssConfigurationE0_NS0_7IBinderE"
  },
  {
   "name" : "_ZTCN7android8hardware4gnss4V2_021BnHwGnssConfigurationE0_NS0_9BHwBinderE"
  },
  {
   "name" : "_ZTCN7android8hardware4gnss4V2_021BnHwGnssConfigurationE0_NS_4hidl4base4V1_08BnHwBaseE"
  },
  {
   "name" : "_ZTCN7android8hardware4gnss4V2_021BpHwGnssConfigurationE0_NS0_11BpInterfaceINS2_18IGnssConfigurationEEE"
  },
  {
   "name" : "_ZTCN7android8hardware4gnss4V2_021BpHwGnssConfigurationE0_NS1_4V1_018IGnssConfigurationE"
  },
  {
   "name" : "_ZTCN7android8hardware4gnss4V2_021BpHwGnssConfigurationE0_NS1_4V1_118IGnssConfigurationE"
  },
  {
   "name" : "_ZTCN7android8hardware4gnss4V2_021BpHwGnssConfigurationE0_NS2_18IGnssConfigurationE"
  },
  {
   "name" : "_ZTCN7android8hardware4gnss4V2_021BpHwGnssConfigurationE0_NS_4hidl4base4V1_05IBaseE"
  },
  {
   "name" : "_ZTCN7android8hardware4gnss4V2_021BpHwGnssConfigurationE4_NS0_10IInterfaceE"
  },
  {
   "name" : "_ZTCN7android8hardware4gnss4V2_021BpHwGnssConfigurationE8_NS0_11BpHwRefBaseE"
  },
  {
   "name" : "_ZTCN7android8hardware4gnss4V2_021IGnssBatchingCallbackE0_NS_4hidl4base4V1_05IBaseE"
  },
  {
   "binding" : "weak",
   "name" : "_ZTCN7android8hardware4gnss4V2_022BsGnssBatchingCallbackE0_NS2_21IGnssBatchingCallbackE"
  },
  {
   "name" : "_ZTCN7android8hardware4gnss4V2_024BnHwGnssBatchingCallbackE0_NS0_7IBinderE"
  },
  {
   "name" : "_ZTCN7android8hardware4gnss4V2_024BnHwGnssBatchingCallbackE0_NS0_9BHwBinderE"
  },
  {
   "name" : "_ZTCN7android8hardware4gnss4V2_024BnHwGnssBatchingCallbackE0_NS_4hidl4base4V1_08BnHwBaseE"
  },
  {
   "name" : "_ZTCN7android8hardware4gnss4V2_024BpHwGnssBatchingCallbackE0_NS0_11BpInterfaceINS2_21IGnssBatchingCallbackEEE"
  },
  {
   "name" : "_ZTCN7android8hardware4gnss4V2_024BpHwGnssBatchingCallbackE0_NS2_21IGnssBatchingCallbackE"
  },
  {
   "name" : "_ZTCN7android8hardware4gnss4V2_024BpHwGnssBatchingCallbackE0_NS_4hidl4base4V1_05IBaseE"
  },
  {
   "name" : "_ZTCN7android8hardware4gnss4V2_024BpHwGnssBatchingCallbackE4_NS0_10IInterfaceE"
  },
  {
   "name" : "_ZTCN7android8hardware4gnss4V2_024BpHwGnssBatchingCallbackE8_NS0_11BpHwRefBaseE"
  },
  {
   "name" : "_ZTCN7android8hardware4gnss4V2_024IGnssMeasurementCallbackE0_NS1_4V1_024IGnssMeasurementCallbackE"
  },
  {
   "name" : "_ZTCN7android8hardware4gnss4V2_024IGnssMeasurementCallbackE0_NS1_4V1_124IGnssMeasurementCallbackE"
  },
  {
   "name" : "_ZTCN7android8hardware4gnss4V2_024IGnssMeasurementCallbackE0_NS_4hidl4base4V1_05IBaseE"
  },
  {
   "binding" : "weak",
   "name" : "_ZTCN7android8hardware4gnss4V2_025BsGnssMeasurementCallbackE0_NS2_24IGnssMeasurementCallbackE"
  },
  {
   "name" : "_ZTCN7android8hardware4gnss4V2_027BnHwGnssMeasurementCallbackE0_NS0_7IBinderE"
  },
  {
   "name" : "_ZTCN7android8hardware4gnss4V2_027BnHwGnssMeasurementCallbackE0_NS0_9BHwBinderE"
  },
  {
   "name" : "_ZTCN7android8hardware4gnss4V2_027BnHwGnssMeasurementCallbackE0_NS_4hidl4base4V1_08BnHwBaseE"
  },
  {
   "name" : "_ZTCN7android8hardware4gnss4V2_027BpHwGnssMeasurementCallbackE0_NS0_11BpInterfaceINS2_24IGnssMeasurementCallbackEEE"
  },
  {
   "name" : "_ZTCN7android8hardware4gnss4V2_027BpHwGnssMeasurementCallbackE0_NS1_4V1_024IGnssMeasurementCallbackE"
  },
  {
   "name" : "_ZTCN7android8hardware4gnss4V2_027BpHwGnssMeasurementCallbackE0_NS1_4V1_124IGnssMeasurementCallbackE"
  },
  {
   "name" : "_ZTCN7android8hardware4gnss4V2_027BpHwGnssMeasurementCallbackE0_NS2_24IGnssMeasurementCallbackE"
  },
  {
   "name" : "_ZTCN7android8hardware4gnss4V2_027BpHwGnssMeasurementCallbackE0_NS_4hidl4base4V1_05IBaseE"
  },
  {
   "name" : "_ZTCN7android8hardware4gnss4V2_027BpHwGnssMeasurementCallbackE4_NS0_10IInterfaceE"
  },
  {
   "name" : "_ZTCN7android8hardware4gnss4V2_027BpHwGnssMeasurementCallbackE8_NS0_11BpHwRefBaseE"
  },
  {
   "name" : "_ZTCN7android8hardware4gnss4V2_05IGnssE0_NS1_4V1_05IGnssE"
  },
  {
   "name" : "_ZTCN7android8hardware4gnss4V2_05IGnssE0_NS1_4V1_15IGnssE"
  },
  {
   "name" : "_ZTCN7android8hardware4gnss4V2_05IGnssE0_NS_4hidl4base4V1_05IBaseE"
  },
  {
   "binding" : "weak",
   "name" : "_ZTCN7android8hardware4gnss4V2_06BsGnssE0_NS2_5IGnssE"
  },
  {
   "name" : "_ZTCN7android8hardware4gnss4V2_06IAGnssE0_NS_4hidl4base4V1_05IBaseE"
  },
  {
   "binding" : "weak",
   "name" : "_ZTCN7android8hardware4gnss4V2_07BsAGnssE0_NS2_6IAGnssE"
  },
  {
   "name" : "_ZTCN7android8hardware4gnss4V2_08BnHwGnssE0_NS0_7IBinderE"
  },
  {
   "name" : "_ZTCN7android8hardware4gnss4V2_08BnHwGnssE0_NS0_9BHwBinderE"
  },
  {
   "name" : "_ZTCN7android8hardware4gnss4V2_08BnHwGnssE0_NS_4hidl4base4V1_08BnHwBaseE"
  },
  {
   "name" : "_ZTCN7android8hardware4gnss4V2_08BpHwGnssE0_NS0_11BpInterfaceINS2_5IGnssEEE"
  },
  {
   "name" : "_ZTCN7android8hardware4gnss4V2_08BpHwGnssE0_NS1_4V1_05IGnssE"
  },
  {
   "name" : "_ZTCN7android8hardware4gnss4V2_08BpHwGnssE0_NS1_4V1_15IGnssE"
  },
  {
   "name" : "_ZTCN7android8hardware4gnss4V2_08BpHwGnssE0_NS2_5IGnssE"
  },
  {
   "name" : "_ZTCN7android8hardware4gnss4V2_08BpHwGnssE0_NS_4hidl4base4V1_05IBaseE"
  },
  {
   "name" : "_ZTCN7android8hardware4gnss4V2_08BpHwGnssE4_NS0_10IInterfaceE"
  },
  {
   "name" : "_ZTCN7android8hardware4gnss4V2_08BpHwGnssE8_NS0_11BpHwRefBaseE"
  },
  {
   "name" : "_ZTCN7android8hardware4gnss4V2_09BnHwAGnssE0_NS0_7IBinderE"
  },
  {
   "name" : "_ZTCN7android8hardware4gnss4V2_09BnHwAGnssE0_NS0_9BHwBinderE"
  },
  {
   "name" : "_ZTCN7android8hardware4gnss4V2_09BnHwAGnssE0_NS_4hidl4base4V1_08BnHwBaseE"
  },
  {
   "name" : "_ZTCN7android8hardware4gnss4V2_09BpHwAGnssE0_NS0_11BpInterfaceINS2_6IAGnssEEE"
  },
  {
   "name" : "_ZTCN7android8hardware4gnss4V2_09BpHwAGnssE0_NS2_6IAGnssE"
  },
  {
   "name" : "_ZTCN7android8hardware4gnss4V2_09BpHwAGnssE0_NS_4hidl4base4V1_05IBaseE"
  },
  {
   "name" : "_ZTCN7android8hardware4gnss4V2_09BpHwAGnssE4_NS0_10IInterfaceE"
  },
  {
   "name" : "_ZTCN7android8hardware4gnss4V2_09BpHwAGnssE8_NS0_11BpHwRefBaseE"
  },
  {
   "name" : "_ZTCN7android8hardware4gnss4V2_09IAGnssRilE0_NS1_4V1_09IAGnssRilE"
  },
  {
   "name" : "_ZTCN7android8hardware4gnss4V2_09IAGnssRilE0_NS_4hidl4base4V1_05IBaseE"
  },
  {
   "name" : "_ZTTN7android8hardware4gnss4V2_010IGnssDebugE"
  },
  {
   "name" : "_ZTTN7android8hardware4gnss4V2_012BnHwAGnssRilE"
  },
  {
   "name" : "_ZTTN7android8hardware4gnss4V2_012BpHwAGnssRilE"
  },
  {
   "name" : "_ZTTN7android8hardware4gnss4V2_013BnHwGnssDebugE"
  },
  {
   "name" : "_ZTTN7android8hardware4gnss4V2_013BpHwGnssDebugE"
  },
  {
   "name" : "_ZTTN7android8hardware4gnss4V2_013IGnssBatchingE"
  },
  {
   "name" : "_ZTTN7android8hardware4gnss4V2_013IGnssCallbackE"
  },
  {
   "name" : "_ZTTN7android8hardware4gnss4V2_014IAGnssCallbackE"
  },
  {
   "name" : "_ZTTN7android8hardware4gnss4V2_016BnHwGnssBatchingE"
  },
  {
   "name" : "_ZTTN7android8hardware4gnss4V2_016BnHwGnssCallbackE"
  },
  {
   "name" : "_ZTTN7android8hardware4gnss4V2_016BpHwGnssBatchingE"
  },
  {
   "name" : "_ZTTN7android8hardware4gnss4V2_016BpHwGnssCallbackE"
  },
  {
   "name" : "_ZTTN7android8hardware4gnss4V2_016IGnssMeasurementE"
  },
  {
   "name" : "_ZTTN7android8hardware4gnss4V2_017BnHwAGnssCallbackE"
  },
  {
   "name" : "_ZTTN7android8hardware4gnss4V2_017BpHwAGnssCallbackE"
  },
  {
   "name" : "_ZTTN7android8hardware4gnss4V2_018IGnssConfigurationE"
  },
  {
   "name" : "_ZTTN7android8hardware4gnss4V2_019BnHwGnssMeasurementE"
  },
  {
   "name" : "_ZTTN7android8hardware4gnss4V2_019BpHwGnssMeasurementE"
  },
  {
   "name" : "_ZTTN7android8hardware4gnss4V2_021BnHwGnssConfigurationE"
  },
  {
   "name" : "_ZTTN7android8hardware4gnss4V2_021BpHwGnssConfigurationE"
  },
  {
   "name" : "_ZTTN7android8hardware4gnss4V2_021IGnssBatchingCallbackE"
  },
  {
   "name" : "_ZTTN7android8hardware4gnss4V2_024BnHwGnssBatchingCallbackE"
  },
  {
   "name" : "_ZTTN7android8hardware4gnss4V2_024BpHwGnssBatchingCallbackE"
  },
  {
   "name" : "_ZTTN7android8hardware4gnss4V2_024IGnssMeasurementCallbackE"
  },
  {
   "name" : "_ZTTN7android8hardware4gnss4V2_027BnHwGnssMeasurementCallbackE"
  },
  {
   "name" : "_ZTTN7android8hardware4gnss4V2_027BpHwGnssMeasurementCallbackE"
  },
  {
   "name" : "_ZTTN7android8hardware4gnss4V2_05IGnssE"
  },
  {
   "name" : "_ZTTN7android8hardware4gnss4V2_06IAGnssE"
  },
  {
   "name" : "_ZTTN7android8hardware4gnss4V2_08BnHwGnssE"
  },
  {
   "name" : "_ZTTN7android8hardware4gnss4V2_08BpHwGnssE"
  },
  {
   "name" : "_ZTTN7android8hardware4gnss4V2_09BnHwAGnssE"
  },
  {
   "name" : "_ZTTN7android8hardware4gnss4V2_09BpHwAGnssE"
  },
  {
   "name" : "_ZTTN7android8hardware4gnss4V2_09IAGnssRilE"
  },
  {
   "binding" : "weak",
   "name" : "_ZTVN7android8hardware4gnss4V2_010BsAGnssRilE"
  },
  {
   "name" : "_ZTVN7android8hardware4gnss4V2_010IGnssDebugE"
  },
  {
   "binding" : "weak",
   "name" : "_ZTVN7android8hardware4gnss4V2_011BsGnssDebugE"
  },
  {
   "name" : "_ZTVN7android8hardware4gnss4V2_012BnHwAGnssRilE"
  },
  {
   "name" : "_ZTVN7android8hardware4gnss4V2_012BpHwAGnssRilE"
  },
  {
   "name" : "_ZTVN7android8hardware4gnss4V2_013BnHwGnssDebugE"
  },
  {
   "name" : "_ZTVN7android8hardware4gnss4V2_013BpHwGnssDebugE"
  },
  {
   "name" : "_ZTVN7android8hardware4gnss4V2_013IGnssBatchingE"
  },
  {
   "name" : "_ZTVN7android8hardware4gnss4V2_013IGnssCallbackE"
  },
  {
   "binding" : "weak",
   "name" : "_ZTVN7android8hardware4gnss4V2_014BsGnssBatchingE"
  },
  {
   "binding" : "weak",
   "name" : "_ZTVN7android8hardware4gnss4V2_014BsGnssCallbackE"
  },
  {
   "name" : "_ZTVN7android8hardware4gnss4V2_014IAGnssCallbackE"
  },
  {
   "binding" : "weak",
   "name" : "_ZTVN7android8hardware4gnss4V2_015BsAGnssCallbackE"
  },
  {
   "name" : "_ZTVN7android8hardware4gnss4V2_016BnHwGnssBatchingE"
  },
  {
   "name" : "_ZTVN7android8hardware4gnss4V2_016BnHwGnssCallbackE"
  },
  {
   "name" : "_ZTVN7android8hardware4gnss4V2_016BpHwGnssBatchingE"
  },
  {
   "name" : "_ZTVN7android8hardware4gnss4V2_016BpHwGnssCallbackE"
  },
  {
   "name" : "_ZTVN7android8hardware4gnss4V2_016IGnssMeasurementE"
  },
  {
   "name" : "_ZTVN7android8hardware4gnss4V2_017BnHwAGnssCallbackE"
  },
  {
   "name" : "_ZTVN7android8hardware4gnss4V2_017BpHwAGnssCallbackE"
  },
  {
   "binding" : "weak",
   "name" : "_ZTVN7android8hardware4gnss4V2_017BsGnssMeasurementE"
  },
  {
   "name" : "_ZTVN7android8hardware4gnss4V2_018IGnssConfigurationE"
  },
  {
   "name" : "_ZTVN7android8hardware4gnss4V2_019BnHwGnssMeasurementE"
  },
  {
   "name" : "_ZTVN7android8hardware4gnss4V2_019BpHwGnssMeasurementE"
  },
  {
   "binding" : "weak",
   "name" : "_ZTVN7android8hardware4gnss4V2_019BsGnssConfigurationE"
  },
  {
   "name" : "_ZTVN7android8hardware4gnss4V2_021BnHwGnssConfigurationE"
  },
  {
   "name" : "_ZTVN7android8hardware4gnss4V2_021BpHwGnssConfigurationE"
  },
  {
   "name" : "_ZTVN7android8hardware4gnss4V2_021IGnssBatchingCallbackE"
  },
  {
   "binding" : "weak",
   "name" : "_ZTVN7android8hardware4gnss4V2_022BsGnssBatchingCallbackE"
  },
  {
   "name" : "_ZTVN7android8hardware4gnss4V2_024BnHwGnssBatchingCallbackE"
  },
  {
   "name" : "_ZTVN7android8hardware4gnss4V2_024BpHwGnssBatchingCallbackE"
  },
  {
   "name" : "_ZTVN7android8hardware4gnss4V2_024IGnssMeasurementCallbackE"
  },
  {
   "binding" : "weak",
   "name" : "_ZTVN7android8hardware4gnss4V2_025BsGnssMeasurementCallbackE"
  },
  {
   "name" : "_ZTVN7android8hardware4gnss4V2_027BnHwGnssMeasurementCallbackE"
  },
  {
   "name" : "_ZTVN7android8hardware4gnss4V2_027BpHwGnssMeasurementCallbackE"
  },
  {
   "name" : "_ZTVN7android8hardware4gnss4V2_05IGnssE"
  },
  {
   "binding" : "weak",
   "name" : "_ZTVN7android8hardware4gnss4V2_06BsGnssE"
  },
  {
   "name" : "_ZTVN7android8hardware4gnss4V2_06IAGnssE"
  },
  {
   "binding" : "weak",
   "name" : "_ZTVN7android8hardware4gnss4V2_07BsAGnssE"
  },
  {
   "name" : "_ZTVN7android8hardware4gnss4V2_08BnHwGnssE"
  },
  {
   "name" : "_ZTVN7android8hardware4gnss4V2_08BpHwGnssE"
  },
  {
   "name" : "_ZTVN7android8hardware4gnss4V2_09BnHwAGnssE"
  },
  {
   "name" : "_ZTVN7android8hardware4gnss4V2_09BpHwAGnssE"
  },
  {
   "name" : "_ZTVN7android8hardware4gnss4V2_09IAGnssRilE"
  }
 ],
 "enum_types" :
 [
  {
   "alignment" : 4,
   "enum_fields" :
   [
    {
     "enum_field_value" : 0,
     "name" : "android::Condition::WAKE_UP_ONE"
    },
    {
     "enum_field_value" : 1,
     "name" : "android::Condition::WAKE_UP_ALL"
    }
   ],
   "linker_set_key" : "android::Condition::WakeUpType",
   "name" : "android::Condition::WakeUpType",
   "referenced_type" : "type-2149",
   "self_type" : "type-2149",
   "size" : 4,
   "source_file" : "/system/core/libutils/include/utils/Condition.h",
   "underlying_type" : "type-2",
   "unique_id" : "_ZTSN7android9Condition10WakeUpTypeE"
  },
  {
   "alignment" : 4,
   "enum_fields" :
   [
    {
     "enum_field_value" : 0,
     "name" : "android::String16::kEmptyString"
    }
   ],
   "linker_set_key" : "android::String16::StaticLinkage",
   "name" : "android::String16::StaticLinkage",
   "referenced_type" : "type-1815",
   "self_type" : "type-1815",
   "size" : 4,
   "source_file" : "/system/core/libutils/include/utils/String16.h",
   "underlying_type" : "type-2",
   "unique_id" : "_ZTSN7android8String1613StaticLinkageE"
  },
  {
   "alignment" : 4,
   "enum_fields" :
   [
    {
     "enum_field_value" : 0,
     "name" : "android::String8::kEmptyString"
    }
   ],
   "linker_set_key" : "android::String8::StaticLinkage",
   "name" : "android::String8::StaticLinkage",
   "referenced_type" : "type-1805",
   "self_type" : "type-1805",
   "size" : 4,
   "source_file" : "/system/core/libutils/include/utils/String8.h",
   "underlying_type" : "type-2",
   "unique_id" : "_ZTSN7android7String813StaticLinkageE"
  },
  {
   "alignment" : 4,
   "enum_fields" :
   [
    {
     "enum_field_value" : 0,
     "name" : "android::hardware::HidlReturnRestriction::NONE"
    },
    {
     "enum_field_value" : 1,
     "name" : "android::hardware::HidlReturnRestriction::ERROR_IF_UNCHECKED"
    },
    {
     "enum_field_value" : 2,
     "name" : "android::hardware::HidlReturnRestriction::FATAL_IF_UNCHECKED"
    }
   ],
   "linker_set_key" : "android::hardware::HidlReturnRestriction",
   "name" : "android::hardware::HidlReturnRestriction",
   "referenced_type" : "type-911",
   "self_type" : "type-911",
   "size" : 4,
   "source_file" : "/system/libhidl/base/include/hidl/Status.h",
   "underlying_type" : "type-20",
   "unique_id" : "_ZTSN7android8hardware21HidlReturnRestrictionE"
  },
  {
   "alignment" : 4,
   "enum_fields" :
   [
    {
     "enum_field_value" : 0,
     "name" : "android::hardware::MQDescriptor<char, android::hardware::kSynchronizedReadWrite>::READPTRPOS"
    },
    {
     "enum_field_value" : 1,
     "name" : "android::hardware::MQDescriptor<char, android::hardware::kSynchronizedReadWrite>::WRITEPTRPOS"
    },
    {
     "enum_field_value" : 2,
     "name" : "android::hardware::MQDescriptor<char, android::hardware::kSynchronizedReadWrite>::DATAPTRPOS"
    },
    {
     "enum_field_value" : 3,
     "name" : "android::hardware::MQDescriptor<char, android::hardware::kSynchronizedReadWrite>::EVFLAGWORDPOS"
    }
   ],
   "linker_set_key" : "android::hardware::MQDescriptor<char, android::hardware::kSynchronizedReadWrite>::GrantorType",
   "name" : "android::hardware::MQDescriptor<char, android::hardware::kSynchronizedReadWrite>::GrantorType",
   "referenced_type" : "type-1795",
   "self_type" : "type-1795",
   "size" : 4,
   "source_file" : "/system/libhidl/base/include/hidl/MQDescriptor.h",
   "underlying_type" : "type-20",
   "unique_id" : "_ZTSN7android8hardware12MQDescriptorIcLNS0_8MQFlavorE1EE11GrantorTypeE"
  },
  {
   "alignment" : 4,
   "enum_fields" :
   [
    {
     "enum_field_value" : 1,
     "name" : "android::hardware::kSynchronizedReadWrite"
    },
    {
     "enum_field_value" : 2,
     "name" : "android::hardware::kUnsynchronizedWrite"
    }
   ],
   "linker_set_key" : "android::hardware::MQFlavor",
   "name" : "android::hardware::MQFlavor",
   "referenced_type" : "type-1782",
   "self_type" : "type-1782",
   "size" : 4,
   "source_file" : "/system/libhidl/base/include/hidl/MQDescriptor.h",
   "underlying_type" : "type-2",
   "unique_id" : "_ZTSN7android8hardware8MQFlavorE"
  },
  {
   "alignment" : 4,
   "enum_fields" :
   [
    {
     "enum_field_value" : 0,
     "name" : "android::hardware::ProcessState::CallRestriction::NONE"
    },
    {
     "enum_field_value" : 1,
     "name" : "android::hardware::ProcessState::CallRestriction::ERROR_IF_NOT_ONEWAY"
    },
    {
     "enum_field_value" : 2,
     "name" : "android::hardware::ProcessState::CallRestriction::FATAL_IF_NOT_ONEWAY"
    }
   ],
   "linker_set_key" : "android::hardware::ProcessState::CallRestriction",
   "name" : "android::hardware::ProcessState::CallRestriction",
   "referenced_type" : "type-55",
   "self_type" : "type-55",
   "size" : 4,
   "source_file" : "/system/libhwbinder/include/hwbinder/ProcessState.h",
   "underlying_type" : "type-20",
   "unique_id" : "_ZTSN7android8hardware12ProcessState15CallRestrictionE"
  },
  {
   "alignment" : 4,
   "enum_fields" :
   [
    {
     "enum_field_value" : 0,
     "name" : "android::hardware::Status::EX_NONE"
    },
    {
     "enum_field_value" : -1,
     "name" : "android::hardware::Status::EX_SECURITY"
    },
    {
     "enum_field_value" : -2,
     "name" : "android::hardware::Status::EX_BAD_PARCELABLE"
    },
    {
     "enum_field_value" : -3,
     "name" : "android::hardware::Status::EX_ILLEGAL_ARGUMENT"
    },
    {
     "enum_field_value" : -4,
     "name" : "android::hardware::Status::EX_NULL_POINTER"
    },
    {
     "enum_field_value" : -5,
     "name" : "android::hardware::Status::EX_ILLEGAL_STATE"
    },
    {
     "enum_field_value" : -6,
     "name" : "android::hardware::Status::EX_NETWORK_MAIN_THREAD"
    },
    {
     "enum_field_value" : -7,
     "name" : "android::hardware::Status::EX_UNSUPPORTED_OPERATION"
    },
    {
     "enum_field_value" : -128,
     "name" : "android::hardware::Status::EX_HAS_REPLY_HEADER"
    },
    {
     "enum_field_value" : -129,
     "name" : "android::hardware::Status::EX_TRANSACTION_FAILED"
    }
   ],
   "linker_set_key" : "android::hardware::Status::Exception",
   "name" : "android::hardware::Status::Exception",
   "referenced_type" : "type-644",
   "self_type" : "type-644",
   "size" : 4,
   "source_file" : "/system/libhidl/base/include/hidl/Status.h",
   "underlying_type" : "type-20",
   "unique_id" : "_ZTSN7android8hardware6Status9ExceptionE"
  },
  {
   "alignment" : 4,
   "enum_fields" :
   [
    {
     "enum_field_value" : 0,
     "name" : "android::hardware::details::HidlInstrumentor::SERVER_API_ENTRY"
    },
    {
     "enum_field_value" : 1,
     "name" : "android::hardware::details::HidlInstrumentor::SERVER_API_EXIT"
    },
    {
     "enum_field_value" : 2,
     "name" : "android::hardware::details::HidlInstrumentor::CLIENT_API_ENTRY"
    },
    {
     "enum_field_value" : 3,
     "name" : "android::hardware::details::HidlInstrumentor::CLIENT_API_EXIT"
    },
    {
     "enum_field_value" : 4,
     "name" : "android::hardware::details::HidlInstrumentor::SYNC_CALLBACK_ENTRY"
    },
    {
     "enum_field_value" : 5,
     "name" : "android::hardware::details::HidlInstrumentor::SYNC_CALLBACK_EXIT"
    },
    {
     "enum_field_value" : 6,
     "name" : "android::hardware::details::HidlInstrumentor::ASYNC_CALLBACK_ENTRY"
    },
    {
     "enum_field_value" : 7,
     "name" : "android::hardware::details::HidlInstrumentor::ASYNC_CALLBACK_EXIT"
    },
    {
     "enum_field_value" : 8,
     "name" : "android::hardware::details::HidlInstrumentor::PASSTHROUGH_ENTRY"
    },
    {
     "enum_field_value" : 9,
     "name" : "android::hardware::details::HidlInstrumentor::PASSTHROUGH_EXIT"
    }
   ],
   "linker_set_key" : "android::hardware::details::HidlInstrumentor::InstrumentationEvent",
   "name" : "android::hardware::details::HidlInstrumentor::InstrumentationEvent",
   "referenced_type" : "type-2278",
   "self_type" : "type-2278",
   "size" : 4,
   "source_file" : "/system/libhidl/base/include/hidl/HidlInternal.h",
   "underlying_type" : "type-2",
   "unique_id" : "_ZTSN7android8hardware7details16HidlInstrumentor20InstrumentationEventE"
  },
  {
   "alignment" : 1,
   "enum_fields" :
   [
    {
     "enum_field_value" : 0,
     "name" : "android::hardware::gnss::V1_0::GnssConstellationType::UNKNOWN"
    },
    {
     "enum_field_value" : 1,
     "name" : "android::hardware::gnss::V1_0::GnssConstellationType::GPS"
    },
    {
     "enum_field_value" : 2,
     "name" : "android::hardware::gnss::V1_0::GnssConstellationType::SBAS"
    },
    {
     "enum_field_value" : 3,
     "name" : "android::hardware::gnss::V1_0::GnssConstellationType::GLONASS"
    },
    {
     "enum_field_value" : 4,
     "name" : "android::hardware::gnss::V1_0::GnssConstellationType::QZSS"
    },
    {
     "enum_field_value" : 5,
     "name" : "android::hardware::gnss::V1_0::GnssConstellationType::BEIDOU"
    },
    {
     "enum_field_value" : 6,
     "name" : "android::hardware::gnss::V1_0::GnssConstellationType::GALILEO"
    }
   ],
   "linker_set_key" : "android::hardware::gnss::V1_0::GnssConstellationType",
   "name" : "android::hardware::gnss::V1_0::GnssConstellationType",
   "referenced_type" : "type-353",
   "self_type" : "type-353",
   "size" : 1,
   "source_file" : "/out/soong/.intermediates/hardware/interfaces/gnss/1.0/android.hardware.gnss@1.0_genc++_headers/gen/android/hardware/gnss/1.0/types.h",
   "underlying_type" : "type-130",
   "unique_id" : "_ZTSN7android8hardware4gnss4V1_021GnssConstellationTypeE"
  },
  {
   "alignment" : 2,
   "enum_fields" :
   [
    {
     "enum_field_value" : 1,
     "name" : "android::hardware::gnss::V1_0::GnssLocationFlags::HAS_LAT_LONG"
    },
    {
     "enum_field_value" : 2,
     "name" : "android::hardware::gnss::V1_0::GnssLocationFlags::HAS_ALTITUDE"
    },
    {
     "enum_field_value" : 4,
     "name" : "android::hardware::gnss::V1_0::GnssLocationFlags::HAS_SPEED"
    },
    {
     "enum_field_value" : 8,
     "name" : "android::hardware::gnss::V1_0::GnssLocationFlags::HAS_BEARING"
    },
    {
     "enum_field_value" : 16,
     "name" : "android::hardware::gnss::V1_0::GnssLocationFlags::HAS_HORIZONTAL_ACCURACY"
    },
    {
     "enum_field_value" : 32,
     "name" : "android::hardware::gnss::V1_0::GnssLocationFlags::HAS_VERTICAL_ACCURACY"
    },
    {
     "enum_field_value" : 64,
     "name" : "android::hardware::gnss::V1_0::GnssLocationFlags::HAS_SPEED_ACCURACY"
    },
    {
     "enum_field_value" : 128,
     "name" : "android::hardware::gnss::V1_0::GnssLocationFlags::HAS_BEARING_ACCURACY"
    }
   ],
   "linker_set_key" : "android::hardware::gnss::V1_0::GnssLocationFlags",
   "name" : "android::hardware::gnss::V1_0::GnssLocationFlags",
   "referenced_type" : "type-2211",
   "self_type" : "type-2211",
   "size" : 2,
   "source_file" : "/out/soong/.intermediates/hardware/interfaces/gnss/1.0/android.hardware.gnss@1.0_genc++_headers/gen/android/hardware/gnss/1.0/types.h",
   "underlying_type" : "type-134",
   "unique_id" : "_ZTSN7android8hardware4gnss4V1_017GnssLocationFlagsE"
  },
  {
   "alignment" : 4,
   "enum_fields" :
   [
    {
     "enum_field_value" : 64,
     "name" : "android::hardware::gnss::V1_0::GnssMax::SVS_COUNT"
    }
   ],
   "linker_set_key" : "android::hardware::gnss::V1_0::GnssMax",
   "name" : "android::hardware::gnss::V1_0::GnssMax",
   "referenced_type" : "type-2210",
   "self_type" : "type-2210",
   "size" : 4,
   "source_file" : "/out/soong/.intermediates/hardware/interfaces/gnss/1.0/android.hardware.gnss@1.0_genc++_headers/gen/android/hardware/gnss/1.0/types.h",
   "underlying_type" : "type-2",
   "unique_id" : "_ZTSN7android8hardware4gnss4V1_07GnssMaxE"
  },
  {
   "alignment" : 1,
   "enum_fields" :
   [
    {
     "enum_field_value" : 0,
     "name" : "android::hardware::gnss::V1_0::IAGnss::ApnIpType::INVALID"
    },
    {
     "enum_field_value" : 1,
     "name" : "android::hardware::gnss::V1_0::IAGnss::ApnIpType::IPV4"
    },
    {
     "enum_field_value" : 2,
     "name" : "android::hardware::gnss::V1_0::IAGnss::ApnIpType::IPV6"
    },
    {
     "enum_field_value" : 3,
     "name" : "android::hardware::gnss::V1_0::IAGnss::ApnIpType::IPV4V6"
    }
   ],
   "linker_set_key" : "android::hardware::gnss::V1_0::IAGnss::ApnIpType",
   "name" : "android::hardware::gnss::V1_0::IAGnss::ApnIpType",
   "referenced_type" : "type-397",
   "self_type" : "type-397",
   "size" : 1,
   "source_file" : "/out/soong/.intermediates/hardware/interfaces/gnss/1.0/android.hardware.gnss@1.0_genc++_headers/gen/android/hardware/gnss/1.0/IAGnss.h",
   "underlying_type" : "type-130",
   "unique_id" : "_ZTSN7android8hardware4gnss4V1_06IAGnss9ApnIpTypeE"
  },
  {
   "alignment" : 1,
   "enum_fields" :
   [
    {
     "enum_field_value" : 1,
     "name" : "android::hardware::gnss::V1_0::IAGnssCallback::AGnssStatusValue::REQUEST_AGNSS_DATA_CONN"
    },
    {
     "enum_field_value" : 2,
     "name" : "android::hardware::gnss::V1_0::IAGnssCallback::AGnssStatusValue::RELEASE_AGNSS_DATA_CONN"
    },
    {
     "enum_field_value" : 3,
     "name" : "android::hardware::gnss::V1_0::IAGnssCallback::AGnssStatusValue::AGNSS_DATA_CONNECTED"
    },
    {
     "enum_field_value" : 4,
     "name" : "android::hardware::gnss::V1_0::IAGnssCallback::AGnssStatusValue::AGNSS_DATA_CONN_DONE"
    },
    {
     "enum_field_value" : 5,
     "name" : "android::hardware::gnss::V1_0::IAGnssCallback::AGnssStatusValue::AGNSS_DATA_CONN_FAILED"
    }
   ],
   "linker_set_key" : "android::hardware::gnss::V1_0::IAGnssCallback::AGnssStatusValue",
   "name" : "android::hardware::gnss::V1_0::IAGnssCallback::AGnssStatusValue",
   "referenced_type" : "type-380",
   "self_type" : "type-380",
   "size" : 1,
   "source_file" : "/out/soong/.intermediates/hardware/interfaces/gnss/1.0/android.hardware.gnss@1.0_genc++_headers/gen/android/hardware/gnss/1.0/IAGnssCallback.h",
   "underlying_type" : "type-130",
   "unique_id" : "_ZTSN7android8hardware4gnss4V1_014IAGnssCallback16AGnssStatusValueE"
  },
  {
   "alignment" : 1,
   "enum_fields" :
   [
    {
     "enum_field_value" : 1,
     "name" : "android::hardware::gnss::V1_0::IAGnssCallback::AGnssType::TYPE_SUPL"
    },
    {
     "enum_field_value" : 2,
     "name" : "android::hardware::gnss::V1_0::IAGnssCallback::AGnssType::TYPE_C2K"
    }
   ],
   "linker_set_key" : "android::hardware::gnss::V1_0::IAGnssCallback::AGnssType",
   "name" : "android::hardware::gnss::V1_0::IAGnssCallback::AGnssType",
   "referenced_type" : "type-379",
   "self_type" : "type-379",
   "size" : 1,
   "source_file" : "/out/soong/.intermediates/hardware/interfaces/gnss/1.0/android.hardware.gnss@1.0_genc++_headers/gen/android/hardware/gnss/1.0/IAGnssCallback.h",
   "underlying_type" : "type-130",
   "unique_id" : "_ZTSN7android8hardware4gnss4V1_014IAGnssCallback9AGnssTypeE"
  },
  {
   "alignment" : 1,
   "enum_fields" :
   [
    {
     "enum_field_value" : 1,
     "name" : "android::hardware::gnss::V1_0::IAGnssRil::AGnssRefLocationType::GSM_CELLID"
    },
    {
     "enum_field_value" : 2,
     "name" : "android::hardware::gnss::V1_0::IAGnssRil::AGnssRefLocationType::UMTS_CELLID"
    },
    {
     "enum_field_value" : 4,
     "name" : "android::hardware::gnss::V1_0::IAGnssRil::AGnssRefLocationType::LTE_CELLID"
    }
   ],
   "linker_set_key" : "android::hardware::gnss::V1_0::IAGnssRil::AGnssRefLocationType",
   "name" : "android::hardware::gnss::V1_0::IAGnssRil::AGnssRefLocationType",
   "referenced_type" : "type-132",
   "self_type" : "type-132",
   "size" : 1,
   "source_file" : "/out/soong/.intermediates/hardware/interfaces/gnss/1.0/android.hardware.gnss@1.0_genc++_headers/gen/android/hardware/gnss/1.0/IAGnssRil.h",
   "underlying_type" : "type-130",
   "unique_id" : "_ZTSN7android8hardware4gnss4V1_09IAGnssRil20AGnssRefLocationTypeE"
  },
  {
   "alignment" : 1,
   "enum_fields" :
   [
    {
     "enum_field_value" : 0,
     "name" : "android::hardware::gnss::V1_0::IAGnssRil::NetworkType::MOBILE"
    },
    {
     "enum_field_value" : 1,
     "name" : "android::hardware::gnss::V1_0::IAGnssRil::NetworkType::WIFI"
    },
    {
     "enum_field_value" : 2,
     "name" : "android::hardware::gnss::V1_0::IAGnssRil::NetworkType::MMS"
    },
    {
     "enum_field_value" : 3,
     "name" : "android::hardware::gnss::V1_0::IAGnssRil::NetworkType::SUPL"
    },
    {
     "enum_field_value" : 4,
     "name" : "android::hardware::gnss::V1_0::IAGnssRil::NetworkType::DUN"
    },
    {
     "enum_field_value" : 5,
     "name" : "android::hardware::gnss::V1_0::IAGnssRil::NetworkType::HIPRI"
    },
    {
     "enum_field_value" : 6,
     "name" : "android::hardware::gnss::V1_0::IAGnssRil::NetworkType::WIMAX"
    }
   ],
   "linker_set_key" : "android::hardware::gnss::V1_0::IAGnssRil::NetworkType",
   "name" : "android::hardware::gnss::V1_0::IAGnssRil::NetworkType",
   "referenced_type" : "type-131",
   "self_type" : "type-131",
   "size" : 1,
   "source_file" : "/out/soong/.intermediates/hardware/interfaces/gnss/1.0/android.hardware.gnss@1.0_genc++_headers/gen/android/hardware/gnss/1.0/IAGnssRil.h",
   "underlying_type" : "type-130",
   "unique_id" : "_ZTSN7android8hardware4gnss4V1_09IAGnssRil11NetworkTypeE"
  },
  {
   "alignment" : 1,
   "enum_fields" :
   [
    {
     "enum_field_value" : 0,
     "name" : "android::hardware::gnss::V1_0::IAGnssRil::SetIDType::NONE"
    },
    {
     "enum_field_value" : 1,
     "name" : "android::hardware::gnss::V1_0::IAGnssRil::SetIDType::IMSI"
    },
    {
     "enum_field_value" : 2,
     "name" : "android::hardware::gnss::V1_0::IAGnssRil::SetIDType::MSISDM"
    }
   ],
   "linker_set_key" : "android::hardware::gnss::V1_0::IAGnssRil::SetIDType",
   "name" : "android::hardware::gnss::V1_0::IAGnssRil::SetIDType",
   "referenced_type" : "type-129",
   "self_type" : "type-129",
   "size" : 1,
   "source_file" : "/out/soong/.intermediates/hardware/interfaces/gnss/1.0/android.hardware.gnss@1.0_genc++_headers/gen/android/hardware/gnss/1.0/IAGnssRil.h",
   "underlying_type" : "type-130",
   "unique_id" : "_ZTSN7android8hardware4gnss4V1_09IAGnssRil9SetIDTypeE"
  },
  {
   "alignment" : 4,
   "enum_fields" :
   [
    {
     "enum_field_value" : 1,
     "name" : "android::hardware::gnss::V1_0::IAGnssRilCallback::ID::IMSI"
    },
    {
     "enum_field_value" : 2,
     "name" : "android::hardware::gnss::V1_0::IAGnssRilCallback::ID::MSISDN"
    }
   ],
   "linker_set_key" : "android::hardware::gnss::V1_0::IAGnssRilCallback::ID",
   "name" : "android::hardware::gnss::V1_0::IAGnssRilCallback::ID",
   "referenced_type" : "type-125",
   "self_type" : "type-125",
   "size" : 4,
   "source_file" : "/out/soong/.intermediates/hardware/interfaces/gnss/1.0/android.hardware.gnss@1.0_genc++_headers/gen/android/hardware/gnss/1.0/IAGnssRilCallback.h",
   "underlying_type" : "type-2",
   "unique_id" : "_ZTSN7android8hardware4gnss4V1_017IAGnssRilCallback2IDE"
  },
  {
   "alignment" : 2,
   "enum_fields" :
   [
    {
     "enum_field_value" : 1,
     "name" : "android::hardware::gnss::V1_0::IGnss::GnssAidingData::DELETE_EPHEMERIS"
    },
    {
     "enum_field_value" : 2,
     "name" : "android::hardware::gnss::V1_0::IGnss::GnssAidingData::DELETE_ALMANAC"
    },
    {
     "enum_field_value" : 4,
     "name" : "android::hardware::gnss::V1_0::IGnss::GnssAidingData::DELETE_POSITION"
    },
    {
     "enum_field_value" : 8,
     "name" : "android::hardware::gnss::V1_0::IGnss::GnssAidingData::DELETE_TIME"
    },
    {
     "enum_field_value" : 16,
     "name" : "android::hardware::gnss::V1_0::IGnss::GnssAidingData::DELETE_IONO"
    },
    {
     "enum_field_value" : 32,
     "name" : "android::hardware::gnss::V1_0::IGnss::GnssAidingData::DELETE_UTC"
    },
    {
     "enum_field_value" : 64,
     "name" : "android::hardware::gnss::V1_0::IGnss::GnssAidingData::DELETE_HEALTH"
    },
    {
     "enum_field_value" : 128,
     "name" : "android::hardware::gnss::V1_0::IGnss::GnssAidingData::DELETE_SVDIR"
    },
    {
     "enum_field_value" : 256,
     "name" : "android::hardware::gnss::V1_0::IGnss::GnssAidingData::DELETE_SVSTEER"
    },
    {
     "enum_field_value" : 512,
     "name" : "android::hardware::gnss::V1_0::IGnss::GnssAidingData::DELETE_SADATA"
    },
    {
     "enum_field_value" : 1024,
     "name" : "android::hardware::gnss::V1_0::IGnss::GnssAidingData::DELETE_RTI"
    },
    {
     "enum_field_value" : 32768,
     "name" : "android::hardware::gnss::V1_0::IGnss::GnssAidingData::DELETE_CELLDB_INFO"
    },
    {
     "enum_field_value" : 65535,
     "name" : "android::hardware::gnss::V1_0::IGnss::GnssAidingData::DELETE_ALL"
    }
   ],
   "linker_set_key" : "android::hardware::gnss::V1_0::IGnss::GnssAidingData",
   "name" : "android::hardware::gnss::V1_0::IGnss::GnssAidingData",
   "referenced_type" : "type-595",
   "self_type" : "type-595",
   "size" : 2,
   "source_file" : "/out/soong/.intermediates/hardware/interfaces/gnss/1.0/android.hardware.gnss@1.0_genc++_headers/gen/android/hardware/gnss/1.0/IGnss.h",
   "underlying_type" : "type-134",
   "unique_id" : "_ZTSN7android8hardware4gnss4V1_05IGnss14GnssAidingDataE"
  },
  {
   "alignment" : 1,
   "enum_fields" :
   [
    {
     "enum_field_value" : 0,
     "name" : "android::hardware::gnss::V1_0::IGnss::GnssPositionMode::STANDALONE"
    },
    {
     "enum_field_value" : 1,
     "name" : "android::hardware::gnss::V1_0::IGnss::GnssPositionMode::MS_BASED"
    },
    {
     "enum_field_value" : 2,
     "name" : "android::hardware::gnss::V1_0::IGnss::GnssPositionMode::MS_ASSISTED"
    }
   ],
   "linker_set_key" : "android::hardware::gnss::V1_0::IGnss::GnssPositionMode",
   "name" : "android::hardware::gnss::V1_0::IGnss::GnssPositionMode",
   "referenced_type" : "type-593",
   "self_type" : "type-593",
   "size" : 1,
   "source_file" : "/out/soong/.intermediates/hardware/interfaces/gnss/1.0/android.hardware.gnss@1.0_genc++_headers/gen/android/hardware/gnss/1.0/IGnss.h",
   "underlying_type" : "type-130",
   "unique_id" : "_ZTSN7android8hardware4gnss4V1_05IGnss16GnssPositionModeE"
  },
  {
   "alignment" : 4,
   "enum_fields" :
   [
    {
     "enum_field_value" : 0,
     "name" : "android::hardware::gnss::V1_0::IGnss::GnssPositionRecurrence::RECURRENCE_PERIODIC"
    },
    {
     "enum_field_value" : 1,
     "name" : "android::hardware::gnss::V1_0::IGnss::GnssPositionRecurrence::RECURRENCE_SINGLE"
    }
   ],
   "linker_set_key" : "android::hardware::gnss::V1_0::IGnss::GnssPositionRecurrence",
   "name" : "android::hardware::gnss::V1_0::IGnss::GnssPositionRecurrence",
   "referenced_type" : "type-594",
   "self_type" : "type-594",
   "size" : 4,
   "source_file" : "/out/soong/.intermediates/hardware/interfaces/gnss/1.0/android.hardware.gnss@1.0_genc++_headers/gen/android/hardware/gnss/1.0/IGnss.h",
   "underlying_type" : "type-2",
   "unique_id" : "_ZTSN7android8hardware4gnss4V1_05IGnss22GnssPositionRecurrenceE"
  },
  {
   "alignment" : 1,
   "enum_fields" :
   [
    {
     "enum_field_value" : 1,
     "name" : "android::hardware::gnss::V1_0::IGnssBatching::Flag::WAKEUP_ON_FIFO_FULL"
    }
   ],
   "linker_set_key" : "android::hardware::gnss::V1_0::IGnssBatching::Flag",
   "name" : "android::hardware::gnss::V1_0::IGnssBatching::Flag",
   "referenced_type" : "type-414",
   "self_type" : "type-414",
   "size" : 1,
   "source_file" : "/out/soong/.intermediates/hardware/interfaces/gnss/1.0/android.hardware.gnss@1.0_genc++_headers/gen/android/hardware/gnss/1.0/IGnssBatching.h",
   "underlying_type" : "type-130",
   "unique_id" : "_ZTSN7android8hardware4gnss4V1_013IGnssBatching4FlagE"
  },
  {
   "alignment" : 4,
   "enum_fields" :
   [
    {
     "enum_field_value" : 1,
     "name" : "android::hardware::gnss::V1_0::IGnssCallback::Capabilities::SCHEDULING"
    },
    {
     "enum_field_value" : 2,
     "name" : "android::hardware::gnss::V1_0::IGnssCallback::Capabilities::MSB"
    },
    {
     "enum_field_value" : 4,
     "name" : "android::hardware::gnss::V1_0::IGnssCallback::Capabilities::MSA"
    },
    {
     "enum_field_value" : 8,
     "name" : "android::hardware::gnss::V1_0::IGnssCallback::Capabilities::SINGLE_SHOT"
    },
    {
     "enum_field_value" : 16,
     "name" : "android::hardware::gnss::V1_0::IGnssCallback::Capabilities::ON_DEMAND_TIME"
    },
    {
     "enum_field_value" : 32,
     "name" : "android::hardware::gnss::V1_0::IGnssCallback::Capabilities::GEOFENCING"
    },
    {
     "enum_field_value" : 64,
     "name" : "android::hardware::gnss::V1_0::IGnssCallback::Capabilities::MEASUREMENTS"
    },
    {
     "enum_field_value" : 128,
     "name" : "android::hardware::gnss::V1_0::IGnssCallback::Capabilities::NAV_MESSAGES"
    }
   ],
   "linker_set_key" : "android::hardware::gnss::V1_0::IGnssCallback::Capabilities",
   "name" : "android::hardware::gnss::V1_0::IGnssCallback::Capabilities",
   "referenced_type" : "type-419",
   "self_type" : "type-419",
   "size" : 4,
   "source_file" : "/out/soong/.intermediates/hardware/interfaces/gnss/1.0/android.hardware.gnss@1.0_genc++_headers/gen/android/hardware/gnss/1.0/IGnssCallback.h",
   "underlying_type" : "type-2",
   "unique_id" : "_ZTSN7android8hardware4gnss4V1_013IGnssCallback12CapabilitiesE"
  },
  {
   "alignment" : 1,
   "enum_fields" :
   [
    {
     "enum_field_value" : 0,
     "name" : "android::hardware::gnss::V1_0::IGnssCallback::GnssStatusValue::NONE"
    },
    {
     "enum_field_value" : 1,
     "name" : "android::hardware::gnss::V1_0::IGnssCallback::GnssStatusValue::SESSION_BEGIN"
    },
    {
     "enum_field_value" : 2,
     "name" : "android::hardware::gnss::V1_0::IGnssCallback::GnssStatusValue::SESSION_END"
    },
    {
     "enum_field_value" : 3,
     "name" : "android::hardware::gnss::V1_0::IGnssCallback::GnssStatusValue::ENGINE_ON"
    },
    {
     "enum_field_value" : 4,
     "name" : "android::hardware::gnss::V1_0::IGnssCallback::GnssStatusValue::ENGINE_OFF"
    }
   ],
   "linker_set_key" : "android::hardware::gnss::V1_0::IGnssCallback::GnssStatusValue",
   "name" : "android::hardware::gnss::V1_0::IGnssCallback::GnssStatusValue",
   "referenced_type" : "type-420",
   "self_type" : "type-420",
   "size" : 1,
   "source_file" : "/out/soong/.intermediates/hardware/interfaces/gnss/1.0/android.hardware.gnss@1.0_genc++_headers/gen/android/hardware/gnss/1.0/IGnssCallback.h",
   "underlying_type" : "type-130",
   "unique_id" : "_ZTSN7android8hardware4gnss4V1_013IGnssCallback15GnssStatusValueE"
  },
  {
   "alignment" : 1,
   "enum_fields" :
   [
    {
     "enum_field_value" : 0,
     "name" : "android::hardware::gnss::V1_0::IGnssCallback::GnssSvFlags::NONE"
    },
    {
     "enum_field_value" : 1,
     "name" : "android::hardware::gnss::V1_0::IGnssCallback::GnssSvFlags::HAS_EPHEMERIS_DATA"
    },
    {
     "enum_field_value" : 2,
     "name" : "android::hardware::gnss::V1_0::IGnssCallback::GnssSvFlags::HAS_ALMANAC_DATA"
    },
    {
     "enum_field_value" : 4,
     "name" : "android::hardware::gnss::V1_0::IGnssCallback::GnssSvFlags::USED_IN_FIX"
    },
    {
     "enum_field_value" : 8,
     "name" : "android::hardware::gnss::V1_0::IGnssCallback::GnssSvFlags::HAS_CARRIER_FREQUENCY"
    }
   ],
   "linker_set_key" : "android::hardware::gnss::V1_0::IGnssCallback::GnssSvFlags",
   "name" : "android::hardware::gnss::V1_0::IGnssCallback::GnssSvFlags",
   "referenced_type" : "type-421",
   "self_type" : "type-421",
   "size" : 1,
   "source_file" : "/out/soong/.intermediates/hardware/interfaces/gnss/1.0/android.hardware.gnss@1.0_genc++_headers/gen/android/hardware/gnss/1.0/IGnssCallback.h",
   "underlying_type" : "type-130",
   "unique_id" : "_ZTSN7android8hardware4gnss4V1_013IGnssCallback11GnssSvFlagsE"
  },
  {
   "alignment" : 1,
   "enum_fields" :
   [
    {
     "enum_field_value" : 1,
     "name" : "android::hardware::gnss::V1_0::IGnssConfiguration::GlonassPosProtocol::RRC_CPLANE"
    },
    {
     "enum_field_value" : 2,
     "name" : "android::hardware::gnss::V1_0::IGnssConfiguration::GlonassPosProtocol::RRLP_CPLANE"
    },
    {
     "enum_field_value" : 4,
     "name" : "android::hardware::gnss::V1_0::IGnssConfiguration::GlonassPosProtocol::LPP_UPLANE"
    }
   ],
   "linker_set_key" : "android::hardware::gnss::V1_0::IGnssConfiguration::GlonassPosProtocol",
   "name" : "android::hardware::gnss::V1_0::IGnssConfiguration::GlonassPosProtocol",
   "referenced_type" : "type-442",
   "self_type" : "type-442",
   "size" : 1,
   "source_file" : "/out/soong/.intermediates/hardware/interfaces/gnss/1.0/android.hardware.gnss@1.0_genc++_headers/gen/android/hardware/gnss/1.0/IGnssConfiguration.h",
   "underlying_type" : "type-130",
   "unique_id" : "_ZTSN7android8hardware4gnss4V1_018IGnssConfiguration18GlonassPosProtocolE"
  },
  {
   "alignment" : 1,
   "enum_fields" :
   [
    {
     "enum_field_value" : 1,
     "name" : "android::hardware::gnss::V1_0::IGnssConfiguration::GpsLock::MO"
    },
    {
     "enum_field_value" : 2,
     "name" : "android::hardware::gnss::V1_0::IGnssConfiguration::GpsLock::NI"
    }
   ],
   "linker_set_key" : "android::hardware::gnss::V1_0::IGnssConfiguration::GpsLock",
   "name" : "android::hardware::gnss::V1_0::IGnssConfiguration::GpsLock",
   "referenced_type" : "type-440",
   "self_type" : "type-440",
   "size" : 1,
   "source_file" : "/out/soong/.intermediates/hardware/interfaces/gnss/1.0/android.hardware.gnss@1.0_genc++_headers/gen/android/hardware/gnss/1.0/IGnssConfiguration.h",
   "underlying_type" : "type-130",
   "unique_id" : "_ZTSN7android8hardware4gnss4V1_018IGnssConfiguration7GpsLockE"
  },
  {
   "alignment" : 1,
   "enum_fields" :
   [
    {
     "enum_field_value" : 1,
     "name" : "android::hardware::gnss::V1_0::IGnssConfiguration::LppProfile::USER_PLANE"
    },
    {
     "enum_field_value" : 2,
     "name" : "android::hardware::gnss::V1_0::IGnssConfiguration::LppProfile::CONTROL_PLANE"
    }
   ],
   "linker_set_key" : "android::hardware::gnss::V1_0::IGnssConfiguration::LppProfile",
   "name" : "android::hardware::gnss::V1_0::IGnssConfiguration::LppProfile",
   "referenced_type" : "type-441",
   "self_type" : "type-441",
   "size" : 1,
   "source_file" : "/out/soong/.intermediates/hardware/interfaces/gnss/1.0/android.hardware.gnss@1.0_genc++_headers/gen/android/hardware/gnss/1.0/IGnssConfiguration.h",
   "underlying_type" : "type-130",
   "unique_id" : "_ZTSN7android8hardware4gnss4V1_018IGnssConfiguration10LppProfileE"
  },
  {
   "alignment" : 1,
   "enum_fields" :
   [
    {
     "enum_field_value" : 1,
     "name" : "android::hardware::gnss::V1_0::IGnssConfiguration::SuplMode::MSB"
    },
    {
     "enum_field_value" : 2,
     "name" : "android::hardware::gnss::V1_0::IGnssConfiguration::SuplMode::MSA"
    }
   ],
   "linker_set_key" : "android::hardware::gnss::V1_0::IGnssConfiguration::SuplMode",
   "name" : "android::hardware::gnss::V1_0::IGnssConfiguration::SuplMode",
   "referenced_type" : "type-439",
   "self_type" : "type-439",
   "size" : 1,
   "source_file" : "/out/soong/.intermediates/hardware/interfaces/gnss/1.0/android.hardware.gnss@1.0_genc++_headers/gen/android/hardware/gnss/1.0/IGnssConfiguration.h",
   "underlying_type" : "type-130",
   "unique_id" : "_ZTSN7android8hardware4gnss4V1_018IGnssConfiguration8SuplModeE"
  },
  {
   "alignment" : 1,
   "enum_fields" :
   [
    {
     "enum_field_value" : 0,
     "name" : "android::hardware::gnss::V1_0::IGnssDebug::SatelliteEphemerisHealth::GOOD"
    },
    {
     "enum_field_value" : 1,
     "name" : "android::hardware::gnss::V1_0::IGnssDebug::SatelliteEphemerisHealth::BAD"
    },
    {
     "enum_field_value" : 2,
     "name" : "android::hardware::gnss::V1_0::IGnssDebug::SatelliteEphemerisHealth::UNKNOWN"
    }
   ],
   "linker_set_key" : "android::hardware::gnss::V1_0::IGnssDebug::SatelliteEphemerisHealth",
   "name" : "android::hardware::gnss::V1_0::IGnssDebug::SatelliteEphemerisHealth",
   "referenced_type" : "type-467",
   "self_type" : "type-467",
   "size" : 1,
   "source_file" : "/out/soong/.intermediates/hardware/interfaces/gnss/1.0/android.hardware.gnss@1.0_genc++_headers/gen/android/hardware/gnss/1.0/IGnssDebug.h",
   "underlying_type" : "type-130",
   "unique_id" : "_ZTSN7android8hardware4gnss4V1_010IGnssDebug24SatelliteEphemerisHealthE"
  },
  {
   "alignment" : 1,
   "enum_fields" :
   [
    {
     "enum_field_value" : 0,
     "name" : "android::hardware::gnss::V1_0::IGnssDebug::SatelliteEphemerisSource::DEMODULATED"
    },
    {
     "enum_field_value" : 1,
     "name" : "android::hardware::gnss::V1_0::IGnssDebug::SatelliteEphemerisSource::SUPL_PROVIDED"
    },
    {
     "enum_field_value" : 2,
     "name" : "android::hardware::gnss::V1_0::IGnssDebug::SatelliteEphemerisSource::OTHER_SERVER_PROVIDED"
    },
    {
     "enum_field_value" : 3,
     "name" : "android::hardware::gnss::V1_0::IGnssDebug::SatelliteEphemerisSource::OTHER"
    }
   ],
   "linker_set_key" : "android::hardware::gnss::V1_0::IGnssDebug::SatelliteEphemerisSource",
   "name" : "android::hardware::gnss::V1_0::IGnssDebug::SatelliteEphemerisSource",
   "referenced_type" : "type-457",
   "self_type" : "type-457",
   "size" : 1,
   "source_file" : "/out/soong/.intermediates/hardware/interfaces/gnss/1.0/android.hardware.gnss@1.0_genc++_headers/gen/android/hardware/gnss/1.0/IGnssDebug.h",
   "underlying_type" : "type-130",
   "unique_id" : "_ZTSN7android8hardware4gnss4V1_010IGnssDebug24SatelliteEphemerisSourceE"
  },
  {
   "alignment" : 1,
   "enum_fields" :
   [
    {
     "enum_field_value" : 0,
     "name" : "android::hardware::gnss::V1_0::IGnssDebug::SatelliteEphemerisType::EPHEMERIS"
    },
    {
     "enum_field_value" : 1,
     "name" : "android::hardware::gnss::V1_0::IGnssDebug::SatelliteEphemerisType::ALMANAC_ONLY"
    },
    {
     "enum_field_value" : 2,
     "name" : "android::hardware::gnss::V1_0::IGnssDebug::SatelliteEphemerisType::NOT_AVAILABLE"
    }
   ],
   "linker_set_key" : "android::hardware::gnss::V1_0::IGnssDebug::SatelliteEphemerisType",
   "name" : "android::hardware::gnss::V1_0::IGnssDebug::SatelliteEphemerisType",
   "referenced_type" : "type-456",
   "self_type" : "type-456",
   "size" : 1,
   "source_file" : "/out/soong/.intermediates/hardware/interfaces/gnss/1.0/android.hardware.gnss@1.0_genc++_headers/gen/android/hardware/gnss/1.0/IGnssDebug.h",
   "underlying_type" : "type-130",
   "unique_id" : "_ZTSN7android8hardware4gnss4V1_010IGnssDebug22SatelliteEphemerisTypeE"
  },
  {
   "alignment" : 4,
   "enum_fields" :
   [
    {
     "enum_field_value" : 1,
     "name" : "android::hardware::gnss::V1_0::IGnssGeofenceCallback::GeofenceAvailability::UNAVAILABLE"
    },
    {
     "enum_field_value" : 2,
     "name" : "android::hardware::gnss::V1_0::IGnssGeofenceCallback::GeofenceAvailability::AVAILABLE"
    }
   ],
   "linker_set_key" : "android::hardware::gnss::V1_0::IGnssGeofenceCallback::GeofenceAvailability",
   "name" : "android::hardware::gnss::V1_0::IGnssGeofenceCallback::GeofenceAvailability",
   "referenced_type" : "type-489",
   "self_type" : "type-489",
   "size" : 4,
   "source_file" : "/out/soong/.intermediates/hardware/interfaces/gnss/1.0/android.hardware.gnss@1.0_genc++_headers/gen/android/hardware/gnss/1.0/IGnssGeofenceCallback.h",
   "underlying_type" : "type-20",
   "unique_id" : "_ZTSN7android8hardware4gnss4V1_021IGnssGeofenceCallback20GeofenceAvailabilityE"
  },
  {
   "alignment" : 4,
   "enum_fields" :
   [
    {
     "enum_field_value" : 0,
     "name" : "android::hardware::gnss::V1_0::IGnssGeofenceCallback::GeofenceStatus::OPERATION_SUCCESS"
    },
    {
     "enum_field_value" : -100,
     "name" : "android::hardware::gnss::V1_0::IGnssGeofenceCallback::GeofenceStatus::ERROR_TOO_MANY_GEOFENCES"
    },
    {
     "enum_field_value" : -101,
     "name" : "android::hardware::gnss::V1_0::IGnssGeofenceCallback::GeofenceStatus::ERROR_ID_EXISTS"
    },
    {
     "enum_field_value" : -102,
     "name" : "android::hardware::gnss::V1_0::IGnssGeofenceCallback::GeofenceStatus::ERROR_ID_UNKNOWN"
    },
    {
     "enum_field_value" : -103,
     "name" : "android::hardware::gnss::V1_0::IGnssGeofenceCallback::GeofenceStatus::ERROR_INVALID_TRANSITION"
    },
    {
     "enum_field_value" : -149,
     "name" : "android::hardware::gnss::V1_0::IGnssGeofenceCallback::GeofenceStatus::ERROR_GENERIC"
    }
   ],
   "linker_set_key" : "android::hardware::gnss::V1_0::IGnssGeofenceCallback::GeofenceStatus",
   "name" : "android::hardware::gnss::V1_0::IGnssGeofenceCallback::GeofenceStatus",
   "referenced_type" : "type-490",
   "self_type" : "type-490",
   "size" : 4,
   "source_file" : "/out/soong/.intermediates/hardware/interfaces/gnss/1.0/android.hardware.gnss@1.0_genc++_headers/gen/android/hardware/gnss/1.0/IGnssGeofenceCallback.h",
   "underlying_type" : "type-20",
   "unique_id" : "_ZTSN7android8hardware4gnss4V1_021IGnssGeofenceCallback14GeofenceStatusE"
  },
  {
   "alignment" : 4,
   "enum_fields" :
   [
    {
     "enum_field_value" : 1,
     "name" : "android::hardware::gnss::V1_0::IGnssGeofenceCallback::GeofenceTransition::ENTERED"
    },
    {
     "enum_field_value" : 2,
     "name" : "android::hardware::gnss::V1_0::IGnssGeofenceCallback::GeofenceTransition::EXITED"
    },
    {
     "enum_field_value" : 4,
     "name" : "android::hardware::gnss::V1_0::IGnssGeofenceCallback::GeofenceTransition::UNCERTAIN"
    }
   ],
   "linker_set_key" : "android::hardware::gnss::V1_0::IGnssGeofenceCallback::GeofenceTransition",
   "name" : "android::hardware::gnss::V1_0::IGnssGeofenceCallback::GeofenceTransition",
   "referenced_type" : "type-487",
   "self_type" : "type-487",
   "size" : 4,
   "source_file" : "/out/soong/.intermediates/hardware/interfaces/gnss/1.0/android.hardware.gnss@1.0_genc++_headers/gen/android/hardware/gnss/1.0/IGnssGeofenceCallback.h",
   "underlying_type" : "type-20",
   "unique_id" : "_ZTSN7android8hardware4gnss4V1_021IGnssGeofenceCallback18GeofenceTransitionE"
  },
  {
   "alignment" : 4,
   "enum_fields" :
   [
    {
     "enum_field_value" : 0,
     "name" : "android::hardware::gnss::V1_0::IGnssMeasurement::GnssMeasurementStatus::SUCCESS"
    },
    {
     "enum_field_value" : -100,
     "name" : "android::hardware::gnss::V1_0::IGnssMeasurement::GnssMeasurementStatus::ERROR_ALREADY_INIT"
    },
    {
     "enum_field_value" : -101,
     "name" : "android::hardware::gnss::V1_0::IGnssMeasurement::GnssMeasurementStatus::ERROR_GENERIC"
    }
   ],
   "linker_set_key" : "android::hardware::gnss::V1_0::IGnssMeasurement::GnssMeasurementStatus",
   "name" : "android::hardware::gnss::V1_0::IGnssMeasurement::GnssMeasurementStatus",
   "referenced_type" : "type-539",
   "self_type" : "type-539",
   "size" : 4,
   "source_file" : "/out/soong/.intermediates/hardware/interfaces/gnss/1.0/android.hardware.gnss@1.0_genc++_headers/gen/android/hardware/gnss/1.0/IGnssMeasurement.h",
   "underlying_type" : "type-20",
   "unique_id" : "_ZTSN7android8hardware4gnss4V1_016IGnssMeasurement21GnssMeasurementStatusE"
  },
  {
   "alignment" : 2,
   "enum_fields" :
   [
    {
     "enum_field_value" : 0,
     "name" : "android::hardware::gnss::V1_0::IGnssMeasurementCallback::GnssAccumulatedDeltaRangeState::ADR_STATE_UNKNOWN"
    },
    {
     "enum_field_value" : 1,
     "name" : "android::hardware::gnss::V1_0::IGnssMeasurementCallback::GnssAccumulatedDeltaRangeState::ADR_STATE_VALID"
    },
    {
     "enum_field_value" : 2,
     "name" : "android::hardware::gnss::V1_0::IGnssMeasurementCallback::GnssAccumulatedDeltaRangeState::ADR_STATE_RESET"
    },
    {
     "enum_field_value" : 4,
     "name" : "android::hardware::gnss::V1_0::IGnssMeasurementCallback::GnssAccumulatedDeltaRangeState::ADR_STATE_CYCLE_SLIP"
    }
   ],
   "linker_set_key" : "android::hardware::gnss::V1_0::IGnssMeasurementCallback::GnssAccumulatedDeltaRangeState",
   "name" : "android::hardware::gnss::V1_0::IGnssMeasurementCallback::GnssAccumulatedDeltaRangeState",
   "referenced_type" : "type-507",
   "self_type" : "type-507",
   "size" : 2,
   "source_file" : "/out/soong/.intermediates/hardware/interfaces/gnss/1.0/android.hardware.gnss@1.0_genc++_headers/gen/android/hardware/gnss/1.0/IGnssMeasurementCallback.h",
   "underlying_type" : "type-134",
   "unique_id" : "_ZTSN7android8hardware4gnss4V1_024IGnssMeasurementCallback30GnssAccumulatedDeltaRangeStateE"
  },
  {
   "alignment" : 2,
   "enum_fields" :
   [
    {
     "enum_field_value" : 1,
     "name" : "android::hardware::gnss::V1_0::IGnssMeasurementCallback::GnssClockFlags::HAS_LEAP_SECOND"
    },
    {
     "enum_field_value" : 2,
     "name" : "android::hardware::gnss::V1_0::IGnssMeasurementCallback::GnssClockFlags::HAS_TIME_UNCERTAINTY"
    },
    {
     "enum_field_value" : 4,
     "name" : "android::hardware::gnss::V1_0::IGnssMeasurementCallback::GnssClockFlags::HAS_FULL_BIAS"
    },
    {
     "enum_field_value" : 8,
     "name" : "android::hardware::gnss::V1_0::IGnssMeasurementCallback::GnssClockFlags::HAS_BIAS"
    },
    {
     "enum_field_value" : 16,
     "name" : "android::hardware::gnss::V1_0::IGnssMeasurementCallback::GnssClockFlags::HAS_BIAS_UNCERTAINTY"
    },
    {
     "enum_field_value" : 32,
     "name" : "android::hardware::gnss::V1_0::IGnssMeasurementCallback::GnssClockFlags::HAS_DRIFT"
    },
    {
     "enum_field_value" : 64,
     "name" : "android::hardware::gnss::V1_0::IGnssMeasurementCallback::GnssClockFlags::HAS_DRIFT_UNCERTAINTY"
    }
   ],
   "linker_set_key" : "android::hardware::gnss::V1_0::IGnssMeasurementCallback::GnssClockFlags",
   "name" : "android::hardware::gnss::V1_0::IGnssMeasurementCallback::GnssClockFlags",
   "referenced_type" : "type-503",
   "self_type" : "type-503",
   "size" : 2,
   "source_file" : "/out/soong/.intermediates/hardware/interfaces/gnss/1.0/android.hardware.gnss@1.0_genc++_headers/gen/android/hardware/gnss/1.0/IGnssMeasurementCallback.h",
   "underlying_type" : "type-134",
   "unique_id" : "_ZTSN7android8hardware4gnss4V1_024IGnssMeasurementCallback14GnssClockFlagsE"
  },
  {
   "alignment" : 4,
   "enum_fields" :
   [
    {
     "enum_field_value" : 1,
     "name" : "android::hardware::gnss::V1_0::IGnssMeasurementCallback::GnssMeasurementFlags::HAS_SNR"
    },
    {
     "enum_field_value" : 512,
     "name" : "android::hardware::gnss::V1_0::IGnssMeasurementCallback::GnssMeasurementFlags::HAS_CARRIER_FREQUENCY"
    },
    {
     "enum_field_value" : 1024,
     "name" : "android::hardware::gnss::V1_0::IGnssMeasurementCallback::GnssMeasurementFlags::HAS_CARRIER_CYCLES"
    },
    {
     "enum_field_value" : 2048,
     "name" : "android::hardware::gnss::V1_0::IGnssMeasurementCallback::GnssMeasurementFlags::HAS_CARRIER_PHASE"
    },
    {
     "enum_field_value" : 4096,
     "name" : "android::hardware::gnss::V1_0::IGnssMeasurementCallback::GnssMeasurementFlags::HAS_CARRIER_PHASE_UNCERTAINTY"
    },
    {
     "enum_field_value" : 8192,
     "name" : "android::hardware::gnss::V1_0::IGnssMeasurementCallback::GnssMeasurementFlags::HAS_AUTOMATIC_GAIN_CONTROL"
    }
   ],
   "linker_set_key" : "android::hardware::gnss::V1_0::IGnssMeasurementCallback::GnssMeasurementFlags",
   "name" : "android::hardware::gnss::V1_0::IGnssMeasurementCallback::GnssMeasurementFlags",
   "referenced_type" : "type-504",
   "self_type" : "type-504",
   "size" : 4,
   "source_file" : "/out/soong/.intermediates/hardware/interfaces/gnss/1.0/android.hardware.gnss@1.0_genc++_headers/gen/android/hardware/gnss/1.0/IGnssMeasurementCallback.h",
   "underlying_type" : "type-2",
   "unique_id" : "_ZTSN7android8hardware4gnss4V1_024IGnssMeasurementCallback20GnssMeasurementFlagsE"
  },
  {
   "alignment" : 4,
   "enum_fields" :
   [
    {
     "enum_field_value" : 0,
     "name" : "android::hardware::gnss::V1_0::IGnssMeasurementCallback::GnssMeasurementState::STATE_UNKNOWN"
    },
    {
     "enum_field_value" : 1,
     "name" : "android::hardware::gnss::V1_0::IGnssMeasurementCallback::GnssMeasurementState::STATE_CODE_LOCK"
    },
    {
     "enum_field_value" : 2,
     "name" : "android::hardware::gnss::V1_0::IGnssMeasurementCallback::GnssMeasurementState::STATE_BIT_SYNC"
    },
    {
     "enum_field_value" : 4,
     "name" : "android::hardware::gnss::V1_0::IGnssMeasurementCallback::GnssMeasurementState::STATE_SUBFRAME_SYNC"
    },
    {
     "enum_field_value" : 8,
     "name" : "android::hardware::gnss::V1_0::IGnssMeasurementCallback::GnssMeasurementState::STATE_TOW_DECODED"
    },
    {
     "enum_field_value" : 16,
     "name" : "android::hardware::gnss::V1_0::IGnssMeasurementCallback::GnssMeasurementState::STATE_MSEC_AMBIGUOUS"
    },
    {
     "enum_field_value" : 32,
     "name" : "android::hardware::gnss::V1_0::IGnssMeasurementCallback::GnssMeasurementState::STATE_SYMBOL_SYNC"
    },
    {
     "enum_field_value" : 64,
     "name" : "android::hardware::gnss::V1_0::IGnssMeasurementCallback::GnssMeasurementState::STATE_GLO_STRING_SYNC"
    },
    {
     "enum_field_value" : 128,
     "name" : "android::hardware::gnss::V1_0::IGnssMeasurementCallback::GnssMeasurementState::STATE_GLO_TOD_DECODED"
    },
    {
     "enum_field_value" : 256,
     "name" : "android::hardware::gnss::V1_0::IGnssMeasurementCallback::GnssMeasurementState::STATE_BDS_D2_BIT_SYNC"
    },
    {
     "enum_field_value" : 512,
     "name" : "android::hardware::gnss::V1_0::IGnssMeasurementCallback::GnssMeasurementState::STATE_BDS_D2_SUBFRAME_SYNC"
    },
    {
     "enum_field_value" : 1024,
     "name" : "android::hardware::gnss::V1_0::IGnssMeasurementCallback::GnssMeasurementState::STATE_GAL_E1BC_CODE_LOCK"
    },
    {
     "enum_field_value" : 2048,
     "name" : "android::hardware::gnss::V1_0::IGnssMeasurementCallback::GnssMeasurementState::STATE_GAL_E1C_2ND_CODE_LOCK"
    },
    {
     "enum_field_value" : 4096,
     "name" : "android::hardware::gnss::V1_0::IGnssMeasurementCallback::GnssMeasurementState::STATE_GAL_E1B_PAGE_SYNC"
    },
    {
     "enum_field_value" : 8192,
     "name" : "android::hardware::gnss::V1_0::IGnssMeasurementCallback::GnssMeasurementState::STATE_SBAS_SYNC"
    },
    {
     "enum_field_value" : 16384,
     "name" : "android::hardware::gnss::V1_0::IGnssMeasurementCallback::GnssMeasurementState::STATE_TOW_KNOWN"
    },
    {
     "enum_field_value" : 32768,
     "name" : "android::hardware::gnss::V1_0::IGnssMeasurementCallback::GnssMeasurementState::STATE_GLO_TOD_KNOWN"
    }
   ],
   "linker_set_key" : "android::hardware::gnss::V1_0::IGnssMeasurementCallback::GnssMeasurementState",
   "name" : "android::hardware::gnss::V1_0::IGnssMeasurementCallback::GnssMeasurementState",
   "referenced_type" : "type-506",
   "self_type" : "type-506",
   "size" : 4,
   "source_file" : "/out/soong/.intermediates/hardware/interfaces/gnss/1.0/android.hardware.gnss@1.0_genc++_headers/gen/android/hardware/gnss/1.0/IGnssMeasurementCallback.h",
   "underlying_type" : "type-2",
   "unique_id" : "_ZTSN7android8hardware4gnss4V1_024IGnssMeasurementCallback20GnssMeasurementStateE"
  },
  {
   "alignment" : 1,
   "enum_fields" :
   [
    {
     "enum_field_value" : 0,
     "name" : "android::hardware::gnss::V1_0::IGnssMeasurementCallback::GnssMultipathIndicator::INDICATOR_UNKNOWN"
    },
    {
     "enum_field_value" : 1,
     "name" : "android::hardware::gnss::V1_0::IGnssMeasurementCallback::GnssMultipathIndicator::INDICATOR_PRESENT"
    },
    {
     "enum_field_value" : 2,
     "name" : "android::hardware::gnss::V1_0::IGnssMeasurementCallback::GnssMultipathIndicator::INDICATIOR_NOT_PRESENT"
    }
   ],
   "linker_set_key" : "android::hardware::gnss::V1_0::IGnssMeasurementCallback::GnssMultipathIndicator",
   "name" : "android::hardware::gnss::V1_0::IGnssMeasurementCallback::GnssMultipathIndicator",
   "referenced_type" : "type-505",
   "self_type" : "type-505",
   "size" : 1,
   "source_file" : "/out/soong/.intermediates/hardware/interfaces/gnss/1.0/android.hardware.gnss@1.0_genc++_headers/gen/android/hardware/gnss/1.0/IGnssMeasurementCallback.h",
   "underlying_type" : "type-130",
   "unique_id" : "_ZTSN7android8hardware4gnss4V1_024IGnssMeasurementCallback22GnssMultipathIndicatorE"
  },
  {
   "alignment" : 4,
   "enum_fields" :
   [
    {
     "enum_field_value" : 0,
     "name" : "android::hardware::gnss::V1_0::IGnssNavigationMessage::GnssNavigationMessageStatus::SUCCESS"
    },
    {
     "enum_field_value" : -100,
     "name" : "android::hardware::gnss::V1_0::IGnssNavigationMessage::GnssNavigationMessageStatus::ERROR_ALREADY_INIT"
    },
    {
     "enum_field_value" : -101,
     "name" : "android::hardware::gnss::V1_0::IGnssNavigationMessage::GnssNavigationMessageStatus::ERROR_GENERIC"
    }
   ],
   "linker_set_key" : "android::hardware::gnss::V1_0::IGnssNavigationMessage::GnssNavigationMessageStatus",
   "name" : "android::hardware::gnss::V1_0::IGnssNavigationMessage::GnssNavigationMessageStatus",
   "referenced_type" : "type-565",
   "self_type" : "type-565",
   "size" : 4,
   "source_file" : "/out/soong/.intermediates/hardware/interfaces/gnss/1.0/android.hardware.gnss@1.0_genc++_headers/gen/android/hardware/gnss/1.0/IGnssNavigationMessage.h",
   "underlying_type" : "type-20",
   "unique_id" : "_ZTSN7android8hardware4gnss4V1_022IGnssNavigationMessage27GnssNavigationMessageStatusE"
  },
  {
   "alignment" : 2,
   "enum_fields" :
   [
    {
     "enum_field_value" : 0,
     "name" : "android::hardware::gnss::V1_0::IGnssNavigationMessageCallback::GnssNavigationMessageType::UNKNOWN"
    },
    {
     "enum_field_value" : 257,
     "name" : "android::hardware::gnss::V1_0::IGnssNavigationMessageCallback::GnssNavigationMessageType::GPS_L1CA"
    },
    {
     "enum_field_value" : 258,
     "name" : "android::hardware::gnss::V1_0::IGnssNavigationMessageCallback::GnssNavigationMessageType::GPS_L2CNAV"
    },
    {
     "enum_field_value" : 259,
     "name" : "android::hardware::gnss::V1_0::IGnssNavigationMessageCallback::GnssNavigationMessageType::GPS_L5CNAV"
    },
    {
     "enum_field_value" : 260,
     "name" : "android::hardware::gnss::V1_0::IGnssNavigationMessageCallback::GnssNavigationMessageType::GPS_CNAV2"
    },
    {
     "enum_field_value" : 769,
     "name" : "android::hardware::gnss::V1_0::IGnssNavigationMessageCallback::GnssNavigationMessageType::GLO_L1CA"
    },
    {
     "enum_field_value" : 1281,
     "name" : "android::hardware::gnss::V1_0::IGnssNavigationMessageCallback::GnssNavigationMessageType::BDS_D1"
    },
    {
     "enum_field_value" : 1282,
     "name" : "android::hardware::gnss::V1_0::IGnssNavigationMessageCallback::GnssNavigationMessageType::BDS_D2"
    },
    {
     "enum_field_value" : 1537,
     "name" : "android::hardware::gnss::V1_0::IGnssNavigationMessageCallback::GnssNavigationMessageType::GAL_I"
    },
    {
     "enum_field_value" : 1538,
     "name" : "android::hardware::gnss::V1_0::IGnssNavigationMessageCallback::GnssNavigationMessageType::GAL_F"
    }
   ],
   "linker_set_key" : "android::hardware::gnss::V1_0::IGnssNavigationMessageCallback::GnssNavigationMessageType",
   "name" : "android::hardware::gnss::V1_0::IGnssNavigationMessageCallback::GnssNavigationMessageType",
   "referenced_type" : "type-543",
   "self_type" : "type-543",
   "size" : 2,
   "source_file" : "/out/soong/.intermediates/hardware/interfaces/gnss/1.0/android.hardware.gnss@1.0_genc++_headers/gen/android/hardware/gnss/1.0/IGnssNavigationMessageCallback.h",
   "underlying_type" : "type-426",
   "unique_id" : "_ZTSN7android8hardware4gnss4V1_030IGnssNavigationMessageCallback25GnssNavigationMessageTypeE"
  },
  {
   "alignment" : 2,
   "enum_fields" :
   [
    {
     "enum_field_value" : 1,
     "name" : "android::hardware::gnss::V1_0::IGnssNavigationMessageCallback::NavigationMessageStatus::PARITY_PASSED"
    },
    {
     "enum_field_value" : 2,
     "name" : "android::hardware::gnss::V1_0::IGnssNavigationMessageCallback::NavigationMessageStatus::PARITY_REBUILT"
    },
    {
     "enum_field_value" : 0,
     "name" : "android::hardware::gnss::V1_0::IGnssNavigationMessageCallback::NavigationMessageStatus::UNKNOWN"
    }
   ],
   "linker_set_key" : "android::hardware::gnss::V1_0::IGnssNavigationMessageCallback::NavigationMessageStatus",
   "name" : "android::hardware::gnss::V1_0::IGnssNavigationMessageCallback::NavigationMessageStatus",
   "referenced_type" : "type-546",
   "self_type" : "type-546",
   "size" : 2,
   "source_file" : "/out/soong/.intermediates/hardware/interfaces/gnss/1.0/android.hardware.gnss@1.0_genc++_headers/gen/android/hardware/gnss/1.0/IGnssNavigationMessageCallback.h",
   "underlying_type" : "type-134",
   "unique_id" : "_ZTSN7android8hardware4gnss4V1_030IGnssNavigationMessageCallback23NavigationMessageStatusE"
  },
  {
   "alignment" : 4,
   "enum_fields" :
   [
    {
     "enum_field_value" : 0,
     "name" : "android::hardware::gnss::V1_0::IGnssNiCallback::GnssNiEncodingType::ENC_NONE"
    },
    {
     "enum_field_value" : 1,
     "name" : "android::hardware::gnss::V1_0::IGnssNiCallback::GnssNiEncodingType::ENC_SUPL_GSM_DEFAULT"
    },
    {
     "enum_field_value" : 2,
     "name" : "android::hardware::gnss::V1_0::IGnssNiCallback::GnssNiEncodingType::ENC_SUPL_UTF8"
    },
    {
     "enum_field_value" : 3,
     "name" : "android::hardware::gnss::V1_0::IGnssNiCallback::GnssNiEncodingType::ENC_SUPL_UCS2"
    },
    {
     "enum_field_value" : -1,
     "name" : "android::hardware::gnss::V1_0::IGnssNiCallback::GnssNiEncodingType::ENC_UNKNOWN"
    }
   ],
   "linker_set_key" : "android::hardware::gnss::V1_0::IGnssNiCallback::GnssNiEncodingType",
   "name" : "android::hardware::gnss::V1_0::IGnssNiCallback::GnssNiEncodingType",
   "referenced_type" : "type-573",
   "self_type" : "type-573",
   "size" : 4,
   "source_file" : "/out/soong/.intermediates/hardware/interfaces/gnss/1.0/android.hardware.gnss@1.0_genc++_headers/gen/android/hardware/gnss/1.0/IGnssNiCallback.h",
   "underlying_type" : "type-20",
   "unique_id" : "_ZTSN7android8hardware4gnss4V1_015IGnssNiCallback18GnssNiEncodingTypeE"
  },
  {
   "alignment" : 4,
   "enum_fields" :
   [
    {
     "enum_field_value" : 1,
     "name" : "android::hardware::gnss::V1_0::IGnssNiCallback::GnssNiNotifyFlags::NEED_NOTIFY"
    },
    {
     "enum_field_value" : 2,
     "name" : "android::hardware::gnss::V1_0::IGnssNiCallback::GnssNiNotifyFlags::NEED_VERIFY"
    },
    {
     "enum_field_value" : 4,
     "name" : "android::hardware::gnss::V1_0::IGnssNiCallback::GnssNiNotifyFlags::PRIVACY_OVERRIDE"
    }
   ],
   "linker_set_key" : "android::hardware::gnss::V1_0::IGnssNiCallback::GnssNiNotifyFlags",
   "name" : "android::hardware::gnss::V1_0::IGnssNiCallback::GnssNiNotifyFlags",
   "referenced_type" : "type-571",
   "self_type" : "type-571",
   "size" : 4,
   "source_file" : "/out/soong/.intermediates/hardware/interfaces/gnss/1.0/android.hardware.gnss@1.0_genc++_headers/gen/android/hardware/gnss/1.0/IGnssNiCallback.h",
   "underlying_type" : "type-2",
   "unique_id" : "_ZTSN7android8hardware4gnss4V1_015IGnssNiCallback17GnssNiNotifyFlagsE"
  },
  {
   "alignment" : 1,
   "enum_fields" :
   [
    {
     "enum_field_value" : 1,
     "name" : "android::hardware::gnss::V1_0::IGnssNiCallback::GnssNiType::VOICE"
    },
    {
     "enum_field_value" : 2,
     "name" : "android::hardware::gnss::V1_0::IGnssNiCallback::GnssNiType::UMTS_SUPL"
    },
    {
     "enum_field_value" : 3,
     "name" : "android::hardware::gnss::V1_0::IGnssNiCallback::GnssNiType::UMTS_CTRL_PLANE"
    },
    {
     "enum_field_value" : 4,
     "name" : "android::hardware::gnss::V1_0::IGnssNiCallback::GnssNiType::EMERGENCY_SUPL"
    }
   ],
   "linker_set_key" : "android::hardware::gnss::V1_0::IGnssNiCallback::GnssNiType",
   "name" : "android::hardware::gnss::V1_0::IGnssNiCallback::GnssNiType",
   "referenced_type" : "type-570",
   "self_type" : "type-570",
   "size" : 1,
   "source_file" : "/out/soong/.intermediates/hardware/interfaces/gnss/1.0/android.hardware.gnss@1.0_genc++_headers/gen/android/hardware/gnss/1.0/IGnssNiCallback.h",
   "underlying_type" : "type-130",
   "unique_id" : "_ZTSN7android8hardware4gnss4V1_015IGnssNiCallback10GnssNiTypeE"
  },
  {
   "alignment" : 1,
   "enum_fields" :
   [
    {
     "enum_field_value" : 1,
     "name" : "android::hardware::gnss::V1_0::IGnssNiCallback::GnssUserResponseType::RESPONSE_ACCEPT"
    },
    {
     "enum_field_value" : 2,
     "name" : "android::hardware::gnss::V1_0::IGnssNiCallback::GnssUserResponseType::RESPONSE_DENY"
    },
    {
     "enum_field_value" : 3,
     "name" : "android::hardware::gnss::V1_0::IGnssNiCallback::GnssUserResponseType::RESPONSE_NORESP"
    }
   ],
   "linker_set_key" : "android::hardware::gnss::V1_0::IGnssNiCallback::GnssUserResponseType",
   "name" : "android::hardware::gnss::V1_0::IGnssNiCallback::GnssUserResponseType",
   "referenced_type" : "type-572",
   "self_type" : "type-572",
   "size" : 1,
   "source_file" : "/out/soong/.intermediates/hardware/interfaces/gnss/1.0/android.hardware.gnss@1.0_genc++_headers/gen/android/hardware/gnss/1.0/IGnssNiCallback.h",
   "underlying_type" : "type-130",
   "unique_id" : "_ZTSN7android8hardware4gnss4V1_015IGnssNiCallback20GnssUserResponseTypeE"
  },
  {
   "alignment" : 2,
   "enum_fields" :
   [
    {
     "enum_field_value" : 0,
     "name" : "android::hardware::gnss::V1_1::IGnssMeasurementCallback::GnssAccumulatedDeltaRangeState::ADR_STATE_UNKNOWN"
    },
    {
     "enum_field_value" : 1,
     "name" : "android::hardware::gnss::V1_1::IGnssMeasurementCallback::GnssAccumulatedDeltaRangeState::ADR_STATE_VALID"
    },
    {
     "enum_field_value" : 2,
     "name" : "android::hardware::gnss::V1_1::IGnssMeasurementCallback::GnssAccumulatedDeltaRangeState::ADR_STATE_RESET"
    },
    {
     "enum_field_value" : 4,
     "name" : "android::hardware::gnss::V1_1::IGnssMeasurementCallback::GnssAccumulatedDeltaRangeState::ADR_STATE_CYCLE_SLIP"
    },
    {
     "enum_field_value" : 8,
     "name" : "android::hardware::gnss::V1_1::IGnssMeasurementCallback::GnssAccumulatedDeltaRangeState::ADR_STATE_HALF_CYCLE_RESOLVED"
    }
   ],
   "linker_set_key" : "android::hardware::gnss::V1_1::IGnssMeasurementCallback::GnssAccumulatedDeltaRangeState",
   "name" : "android::hardware::gnss::V1_1::IGnssMeasurementCallback::GnssAccumulatedDeltaRangeState",
   "referenced_type" : "type-610",
   "self_type" : "type-610",
   "size" : 2,
   "source_file" : "/out/soong/.intermediates/hardware/interfaces/gnss/1.1/android.hardware.gnss@1.1_genc++_headers/gen/android/hardware/gnss/1.1/IGnssMeasurementCallback.h",
   "underlying_type" : "type-134",
   "unique_id" : "_ZTSN7android8hardware4gnss4V1_124IGnssMeasurementCallback30GnssAccumulatedDeltaRangeStateE"
  },
  {
   "alignment" : 2,
   "enum_fields" :
   [
    {
     "enum_field_value" : 1,
     "name" : "android::hardware::gnss::V2_0::ElapsedRealtimeFlags::HAS_TIMESTAMP_NS"
    },
    {
     "enum_field_value" : 2,
     "name" : "android::hardware::gnss::V2_0::ElapsedRealtimeFlags::HAS_TIME_UNCERTAINTY_NS"
    }
   ],
   "linker_set_key" : "android::hardware::gnss::V2_0::ElapsedRealtimeFlags",
   "name" : "android::hardware::gnss::V2_0::ElapsedRealtimeFlags",
   "referenced_type" : "type-2224",
   "self_type" : "type-2224",
   "size" : 2,
   "source_file" : "/out/soong/.intermediates/hardware/interfaces/gnss/2.0/android.hardware.gnss@2.0_genc++_headers/gen/android/hardware/gnss/2.0/types.h",
   "underlying_type" : "type-134",
   "unique_id" : "_ZTSN7android8hardware4gnss4V2_020ElapsedRealtimeFlagsE"
  },
  {
   "alignment" : 1,
   "enum_fields" :
   [
    {
     "enum_field_value" : 0,
     "name" : "android::hardware::gnss::V2_0::GnssConstellationType::UNKNOWN"
    },
    {
     "enum_field_value" : 1,
     "name" : "android::hardware::gnss::V2_0::GnssConstellationType::GPS"
    },
    {
     "enum_field_value" : 2,
     "name" : "android::hardware::gnss::V2_0::GnssConstellationType::SBAS"
    },
    {
     "enum_field_value" : 3,
     "name" : "android::hardware::gnss::V2_0::GnssConstellationType::GLONASS"
    },
    {
     "enum_field_value" : 4,
     "name" : "android::hardware::gnss::V2_0::GnssConstellationType::QZSS"
    },
    {
     "enum_field_value" : 5,
     "name" : "android::hardware::gnss::V2_0::GnssConstellationType::BEIDOU"
    },
    {
     "enum_field_value" : 6,
     "name" : "android::hardware::gnss::V2_0::GnssConstellationType::GALILEO"
    },
    {
     "enum_field_value" : 7,
     "name" : "android::hardware::gnss::V2_0::GnssConstellationType::IRNSS"
    }
   ],
   "linker_set_key" : "android::hardware::gnss::V2_0::GnssConstellationType",
   "name" : "android::hardware::gnss::V2_0::GnssConstellationType",
   "referenced_type" : "type-642",
   "self_type" : "type-642",
   "size" : 1,
   "source_file" : "/out/soong/.intermediates/hardware/interfaces/gnss/2.0/android.hardware.gnss@2.0_genc++_headers/gen/android/hardware/gnss/2.0/types.h",
   "underlying_type" : "type-130",
   "unique_id" : "_ZTSN7android8hardware4gnss4V2_021GnssConstellationTypeE"
  },
  {
   "alignment" : 1,
   "enum_fields" :
   [
    {
     "enum_field_value" : 0,
     "name" : "android::hardware::gnss::V2_0::IAGnss::ApnIpType::INVALID"
    },
    {
     "enum_field_value" : 1,
     "name" : "android::hardware::gnss::V2_0::IAGnss::ApnIpType::IPV4"
    },
    {
     "enum_field_value" : 2,
     "name" : "android::hardware::gnss::V2_0::IAGnss::ApnIpType::IPV6"
    },
    {
     "enum_field_value" : 3,
     "name" : "android::hardware::gnss::V2_0::IAGnss::ApnIpType::IPV4V6"
    }
   ],
   "linker_set_key" : "android::hardware::gnss::V2_0::IAGnss::ApnIpType",
   "name" : "android::hardware::gnss::V2_0::IAGnss::ApnIpType",
   "referenced_type" : "type-2231",
   "self_type" : "type-2231",
   "size" : 1,
   "source_file" : "/out/soong/.intermediates/hardware/interfaces/gnss/2.0/android.hardware.gnss@2.0_genc++_headers/gen/android/hardware/gnss/2.0/IAGnss.h",
   "underlying_type" : "type-130",
   "unique_id" : "_ZTSN7android8hardware4gnss4V2_06IAGnss9ApnIpTypeE"
  },
  {
   "alignment" : 1,
   "enum_fields" :
   [
    {
     "enum_field_value" : 1,
     "name" : "android::hardware::gnss::V2_0::IAGnssCallback::AGnssStatusValue::REQUEST_AGNSS_DATA_CONN"
    },
    {
     "enum_field_value" : 2,
     "name" : "android::hardware::gnss::V2_0::IAGnssCallback::AGnssStatusValue::RELEASE_AGNSS_DATA_CONN"
    },
    {
     "enum_field_value" : 3,
     "name" : "android::hardware::gnss::V2_0::IAGnssCallback::AGnssStatusValue::AGNSS_DATA_CONNECTED"
    },
    {
     "enum_field_value" : 4,
     "name" : "android::hardware::gnss::V2_0::IAGnssCallback::AGnssStatusValue::AGNSS_DATA_CONN_DONE"
    },
    {
     "enum_field_value" : 5,
     "name" : "android::hardware::gnss::V2_0::IAGnssCallback::AGnssStatusValue::AGNSS_DATA_CONN_FAILED"
    }
   ],
   "linker_set_key" : "android::hardware::gnss::V2_0::IAGnssCallback::AGnssStatusValue",
   "name" : "android::hardware::gnss::V2_0::IAGnssCallback::AGnssStatusValue",
   "referenced_type" : "type-2202",
   "self_type" : "type-2202",
   "size" : 1,
   "source_file" : "/out/soong/.intermediates/hardware/interfaces/gnss/2.0/android.hardware.gnss@2.0_genc++_headers/gen/android/hardware/gnss/2.0/IAGnssCallback.h",
   "underlying_type" : "type-130",
   "unique_id" : "_ZTSN7android8hardware4gnss4V2_014IAGnssCallback16AGnssStatusValueE"
  },
  {
   "alignment" : 1,
   "enum_fields" :
   [
    {
     "enum_field_value" : 1,
     "name" : "android::hardware::gnss::V2_0::IAGnssCallback::AGnssType::SUPL"
    },
    {
     "enum_field_value" : 2,
     "name" : "android::hardware::gnss::V2_0::IAGnssCallback::AGnssType::C2K"
    },
    {
     "enum_field_value" : 3,
     "name" : "android::hardware::gnss::V2_0::IAGnssCallback::AGnssType::SUPL_EIMS"
    },
    {
     "enum_field_value" : 4,
     "name" : "android::hardware::gnss::V2_0::IAGnssCallback::AGnssType::SUPL_IMS"
    }
   ],
   "linker_set_key" : "android::hardware::gnss::V2_0::IAGnssCallback::AGnssType",
   "name" : "android::hardware::gnss::V2_0::IAGnssCallback::AGnssType",
   "referenced_type" : "type-2201",
   "self_type" : "type-2201",
   "size" : 1,
   "source_file" : "/out/soong/.intermediates/hardware/interfaces/gnss/2.0/android.hardware.gnss@2.0_genc++_headers/gen/android/hardware/gnss/2.0/IAGnssCallback.h",
   "underlying_type" : "type-130",
   "unique_id" : "_ZTSN7android8hardware4gnss4V2_014IAGnssCallback9AGnssTypeE"
  },
  {
   "alignment" : 2,
   "enum_fields" :
   [
    {
     "enum_field_value" : 1,
     "name" : "android::hardware::gnss::V2_0::IAGnssRil::NetworkCapability::NOT_METERED"
    },
    {
     "enum_field_value" : 2,
     "name" : "android::hardware::gnss::V2_0::IAGnssRil::NetworkCapability::NOT_ROAMING"
    }
   ],
   "linker_set_key" : "android::hardware::gnss::V2_0::IAGnssRil::NetworkCapability",
   "name" : "android::hardware::gnss::V2_0::IAGnssRil::NetworkCapability",
   "referenced_type" : "type-157",
   "self_type" : "type-157",
   "size" : 2,
   "source_file" : "/out/soong/.intermediates/hardware/interfaces/gnss/2.0/android.hardware.gnss@2.0_genc++_headers/gen/android/hardware/gnss/2.0/IAGnssRil.h",
   "underlying_type" : "type-134",
   "unique_id" : "_ZTSN7android8hardware4gnss4V2_09IAGnssRil17NetworkCapabilityE"
  },
  {
   "alignment" : 4,
   "enum_fields" :
   [
    {
     "enum_field_value" : 1,
     "name" : "android::hardware::gnss::V2_0::IGnssCallback::Capabilities::SCHEDULING"
    },
    {
     "enum_field_value" : 2,
     "name" : "android::hardware::gnss::V2_0::IGnssCallback::Capabilities::MSB"
    },
    {
     "enum_field_value" : 4,
     "name" : "android::hardware::gnss::V2_0::IGnssCallback::Capabilities::MSA"
    },
    {
     "enum_field_value" : 8,
     "name" : "android::hardware::gnss::V2_0::IGnssCallback::Capabilities::SINGLE_SHOT"
    },
    {
     "enum_field_value" : 16,
     "name" : "android::hardware::gnss::V2_0::IGnssCallback::Capabilities::ON_DEMAND_TIME"
    },
    {
     "enum_field_value" : 32,
     "name" : "android::hardware::gnss::V2_0::IGnssCallback::Capabilities::GEOFENCING"
    },
    {
     "enum_field_value" : 64,
     "name" : "android::hardware::gnss::V2_0::IGnssCallback::Capabilities::MEASUREMENTS"
    },
    {
     "enum_field_value" : 128,
     "name" : "android::hardware::gnss::V2_0::IGnssCallback::Capabilities::NAV_MESSAGES"
    },
    {
     "enum_field_value" : 256,
     "name" : "android::hardware::gnss::V2_0::IGnssCallback::Capabilities::LOW_POWER_MODE"
    },
    {
     "enum_field_value" : 512,
     "name" : "android::hardware::gnss::V2_0::IGnssCallback::Capabilities::SATELLITE_BLACKLIST"
    },
    {
     "enum_field_value" : 1024,
     "name" : "android::hardware::gnss::V2_0::IGnssCallback::Capabilities::MEASUREMENT_CORRECTIONS"
    }
   ],
   "linker_set_key" : "android::hardware::gnss::V2_0::IGnssCallback::Capabilities",
   "name" : "android::hardware::gnss::V2_0::IGnssCallback::Capabilities",
   "referenced_type" : "type-640",
   "self_type" : "type-640",
   "size" : 4,
   "source_file" : "/out/soong/.intermediates/hardware/interfaces/gnss/2.0/android.hardware.gnss@2.0_genc++_headers/gen/android/hardware/gnss/2.0/IGnssCallback.h",
   "underlying_type" : "type-2",
   "unique_id" : "_ZTSN7android8hardware4gnss4V2_013IGnssCallback12CapabilitiesE"
  },
  {
   "alignment" : 4,
   "enum_fields" :
   [
    {
     "enum_field_value" : 0,
     "name" : "android::hardware::gnss::V2_0::IGnssMeasurementCallback::GnssMeasurementState::STATE_UNKNOWN"
    },
    {
     "enum_field_value" : 1,
     "name" : "android::hardware::gnss::V2_0::IGnssMeasurementCallback::GnssMeasurementState::STATE_CODE_LOCK"
    },
    {
     "enum_field_value" : 2,
     "name" : "android::hardware::gnss::V2_0::IGnssMeasurementCallback::GnssMeasurementState::STATE_BIT_SYNC"
    },
    {
     "enum_field_value" : 4,
     "name" : "android::hardware::gnss::V2_0::IGnssMeasurementCallback::GnssMeasurementState::STATE_SUBFRAME_SYNC"
    },
    {
     "enum_field_value" : 8,
     "name" : "android::hardware::gnss::V2_0::IGnssMeasurementCallback::GnssMeasurementState::STATE_TOW_DECODED"
    },
    {
     "enum_field_value" : 16,
     "name" : "android::hardware::gnss::V2_0::IGnssMeasurementCallback::GnssMeasurementState::STATE_MSEC_AMBIGUOUS"
    },
    {
     "enum_field_value" : 32,
     "name" : "android::hardware::gnss::V2_0::IGnssMeasurementCallback::GnssMeasurementState::STATE_SYMBOL_SYNC"
    },
    {
     "enum_field_value" : 64,
     "name" : "android::hardware::gnss::V2_0::IGnssMeasurementCallback::GnssMeasurementState::STATE_GLO_STRING_SYNC"
    },
    {
     "enum_field_value" : 128,
     "name" : "android::hardware::gnss::V2_0::IGnssMeasurementCallback::GnssMeasurementState::STATE_GLO_TOD_DECODED"
    },
    {
     "enum_field_value" : 256,
     "name" : "android::hardware::gnss::V2_0::IGnssMeasurementCallback::GnssMeasurementState::STATE_BDS_D2_BIT_SYNC"
    },
    {
     "enum_field_value" : 512,
     "name" : "android::hardware::gnss::V2_0::IGnssMeasurementCallback::GnssMeasurementState::STATE_BDS_D2_SUBFRAME_SYNC"
    },
    {
     "enum_field_value" : 1024,
     "name" : "android::hardware::gnss::V2_0::IGnssMeasurementCallback::GnssMeasurementState::STATE_GAL_E1BC_CODE_LOCK"
    },
    {
     "enum_field_value" : 2048,
     "name" : "android::hardware::gnss::V2_0::IGnssMeasurementCallback::GnssMeasurementState::STATE_GAL_E1C_2ND_CODE_LOCK"
    },
    {
     "enum_field_value" : 4096,
     "name" : "android::hardware::gnss::V2_0::IGnssMeasurementCallback::GnssMeasurementState::STATE_GAL_E1B_PAGE_SYNC"
    },
    {
     "enum_field_value" : 8192,
     "name" : "android::hardware::gnss::V2_0::IGnssMeasurementCallback::GnssMeasurementState::STATE_SBAS_SYNC"
    },
    {
     "enum_field_value" : 16384,
     "name" : "android::hardware::gnss::V2_0::IGnssMeasurementCallback::GnssMeasurementState::STATE_TOW_KNOWN"
    },
    {
     "enum_field_value" : 32768,
     "name" : "android::hardware::gnss::V2_0::IGnssMeasurementCallback::GnssMeasurementState::STATE_GLO_TOD_KNOWN"
    },
    {
     "enum_field_value" : 65536,
     "name" : "android::hardware::gnss::V2_0::IGnssMeasurementCallback::GnssMeasurementState::STATE_2ND_CODE_LOCK"
    }
   ],
   "linker_set_key" : "android::hardware::gnss::V2_0::IGnssMeasurementCallback::GnssMeasurementState",
   "name" : "android::hardware::gnss::V2_0::IGnssMeasurementCallback::GnssMeasurementState",
   "referenced_type" : "type-653",
   "self_type" : "type-653",
   "size" : 4,
   "source_file" : "/out/soong/.intermediates/hardware/interfaces/gnss/2.0/android.hardware.gnss@2.0_genc++_headers/gen/android/hardware/gnss/2.0/IGnssMeasurementCallback.h",
   "underlying_type" : "type-2",
   "unique_id" : "_ZTSN7android8hardware4gnss4V2_024IGnssMeasurementCallback20GnssMeasurementStateE"
  },
  {
   "alignment" : 2,
   "enum_fields" :
   [
    {
     "enum_field_value" : 1,
     "name" : "android::hardware::gnss::measurement_corrections::V1_0::GnssSingleSatCorrectionFlags::HAS_SAT_IS_LOS_PROBABILITY"
    },
    {
     "enum_field_value" : 2,
     "name" : "android::hardware::gnss::measurement_corrections::V1_0::GnssSingleSatCorrectionFlags::HAS_EXCESS_PATH_LENGTH"
    },
    {
     "enum_field_value" : 4,
     "name" : "android::hardware::gnss::measurement_corrections::V1_0::GnssSingleSatCorrectionFlags::HAS_EXCESS_PATH_LENGTH_UNC"
    },
    {
     "enum_field_value" : 8,
     "name" : "android::hardware::gnss::measurement_corrections::V1_0::GnssSingleSatCorrectionFlags::HAS_REFLECTING_PLANE"
    }
   ],
   "linker_set_key" : "android::hardware::gnss::measurement_corrections::V1_0::GnssSingleSatCorrectionFlags",
   "name" : "android::hardware::gnss::measurement_corrections::V1_0::GnssSingleSatCorrectionFlags",
   "referenced_type" : "type-344",
   "self_type" : "type-344",
   "size" : 2,
   "source_file" : "/out/soong/.intermediates/hardware/interfaces/gnss/measurement_corrections/1.0/android.hardware.gnss.measurement_corrections@1.0_genc++_headers/gen/android/hardware/gnss/measurement_corrections/1.0/types.h",
   "underlying_type" : "type-134",
   "unique_id" : "_ZTSN7android8hardware4gnss23measurement_corrections4V1_028GnssSingleSatCorrectionFlagsE"
  },
  {
   "alignment" : 4,
   "enum_fields" :
   [
    {
     "enum_field_value" : 1,
     "name" : "android::hardware::gnss::measurement_corrections::V1_0::IMeasurementCorrectionsCallback::Capabilities::LOS_SATS"
    },
    {
     "enum_field_value" : 2,
     "name" : "android::hardware::gnss::measurement_corrections::V1_0::IMeasurementCorrectionsCallback::Capabilities::EXCESS_PATH_LENGTH"
    },
    {
     "enum_field_value" : 4,
     "name" : "android::hardware::gnss::measurement_corrections::V1_0::IMeasurementCorrectionsCallback::Capabilities::REFLECTING_PLANE"
    }
   ],
   "linker_set_key" : "android::hardware::gnss::measurement_corrections::V1_0::IMeasurementCorrectionsCallback::Capabilities",
   "name" : "android::hardware::gnss::measurement_corrections::V1_0::IMeasurementCorrectionsCallback::Capabilities",
   "referenced_type" : "type-331",
   "self_type" : "type-331",
   "size" : 4,
   "source_file" : "/out/soong/.intermediates/hardware/interfaces/gnss/measurement_corrections/1.0/android.hardware.gnss.measurement_corrections@1.0_genc++_headers/gen/android/hardware/gnss/measurement_corrections/1.0/IMeasurementCorrectionsCallback.h",
   "underlying_type" : "type-2",
   "unique_id" : "_ZTSN7android8hardware4gnss23measurement_corrections4V1_031IMeasurementCorrectionsCallback12CapabilitiesE"
  },
  {
   "alignment" : 1,
   "enum_fields" :
   [
    {
     "enum_field_value" : 0,
     "name" : "android::hardware::gnss::visibility_control::V1_0::IGnssVisibilityControlCallback::NfwProtocolStack::CTRL_PLANE"
    },
    {
     "enum_field_value" : 1,
     "name" : "android::hardware::gnss::visibility_control::V1_0::IGnssVisibilityControlCallback::NfwProtocolStack::SUPL"
    },
    {
     "enum_field_value" : 10,
     "name" : "android::hardware::gnss::visibility_control::V1_0::IGnssVisibilityControlCallback::NfwProtocolStack::IMS"
    },
    {
     "enum_field_value" : 11,
     "name" : "android::hardware::gnss::visibility_control::V1_0::IGnssVisibilityControlCallback::NfwProtocolStack::SIM"
    },
    {
     "enum_field_value" : 100,
     "name" : "android::hardware::gnss::visibility_control::V1_0::IGnssVisibilityControlCallback::NfwProtocolStack::OTHER_PROTOCOL_STACK"
    }
   ],
   "linker_set_key" : "android::hardware::gnss::visibility_control::V1_0::IGnssVisibilityControlCallback::NfwProtocolStack",
   "name" : "android::hardware::gnss::visibility_control::V1_0::IGnssVisibilityControlCallback::NfwProtocolStack",
   "referenced_type" : "type-359",
   "self_type" : "type-359",
   "size" : 1,
   "source_file" : "/out/soong/.intermediates/hardware/interfaces/gnss/visibility_control/1.0/android.hardware.gnss.visibility_control@1.0_genc++_headers/gen/android/hardware/gnss/visibility_control/1.0/IGnssVisibilityControlCallback.h",
   "underlying_type" : "type-130",
   "unique_id" : "_ZTSN7android8hardware4gnss18visibility_control4V1_030IGnssVisibilityControlCallback16NfwProtocolStackE"
  },
  {
   "alignment" : 1,
   "enum_fields" :
   [
    {
     "enum_field_value" : 0,
     "name" : "android::hardware::gnss::visibility_control::V1_0::IGnssVisibilityControlCallback::NfwRequestor::CARRIER"
    },
    {
     "enum_field_value" : 10,
     "name" : "android::hardware::gnss::visibility_control::V1_0::IGnssVisibilityControlCallback::NfwRequestor::OEM"
    },
    {
     "enum_field_value" : 11,
     "name" : "android::hardware::gnss::visibility_control::V1_0::IGnssVisibilityControlCallback::NfwRequestor::MODEM_CHIPSET_VENDOR"
    },
    {
     "enum_field_value" : 12,
     "name" : "android::hardware::gnss::visibility_control::V1_0::IGnssVisibilityControlCallback::NfwRequestor::GNSS_CHIPSET_VENDOR"
    },
    {
     "enum_field_value" : 13,
     "name" : "android::hardware::gnss::visibility_control::V1_0::IGnssVisibilityControlCallback::NfwRequestor::OTHER_CHIPSET_VENDOR"
    },
    {
     "enum_field_value" : 20,
     "name" : "android::hardware::gnss::visibility_control::V1_0::IGnssVisibilityControlCallback::NfwRequestor::AUTOMOBILE_CLIENT"
    },
    {
     "enum_field_value" : 100,
     "name" : "android::hardware::gnss::visibility_control::V1_0::IGnssVisibilityControlCallback::NfwRequestor::OTHER_REQUESTOR"
    }
   ],
   "linker_set_key" : "android::hardware::gnss::visibility_control::V1_0::IGnssVisibilityControlCallback::NfwRequestor",
   "name" : "android::hardware::gnss::visibility_control::V1_0::IGnssVisibilityControlCallback::NfwRequestor",
   "referenced_type" : "type-360",
   "self_type" : "type-360",
   "size" : 1,
   "source_file" : "/out/soong/.intermediates/hardware/interfaces/gnss/visibility_control/1.0/android.hardware.gnss.visibility_control@1.0_genc++_headers/gen/android/hardware/gnss/visibility_control/1.0/IGnssVisibilityControlCallback.h",
   "underlying_type" : "type-130",
   "unique_id" : "_ZTSN7android8hardware4gnss18visibility_control4V1_030IGnssVisibilityControlCallback12NfwRequestorE"
  },
  {
   "alignment" : 1,
   "enum_fields" :
   [
    {
     "enum_field_value" : 0,
     "name" : "android::hardware::gnss::visibility_control::V1_0::IGnssVisibilityControlCallback::NfwResponseType::REJECTED"
    },
    {
     "enum_field_value" : 1,
     "name" : "android::hardware::gnss::visibility_control::V1_0::IGnssVisibilityControlCallback::NfwResponseType::ACCEPTED_NO_LOCATION_PROVIDED"
    },
    {
     "enum_field_value" : 2,
     "name" : "android::hardware::gnss::visibility_control::V1_0::IGnssVisibilityControlCallback::NfwResponseType::ACCEPTED_LOCATION_PROVIDED"
    }
   ],
   "linker_set_key" : "android::hardware::gnss::visibility_control::V1_0::IGnssVisibilityControlCallback::NfwResponseType",
   "name" : "android::hardware::gnss::visibility_control::V1_0::IGnssVisibilityControlCallback::NfwResponseType",
   "referenced_type" : "type-361",
   "self_type" : "type-361",
   "size" : 1,
   "source_file" : "/out/soong/.intermediates/hardware/interfaces/gnss/visibility_control/1.0/android.hardware.gnss.visibility_control@1.0_genc++_headers/gen/android/hardware/gnss/visibility_control/1.0/IGnssVisibilityControlCallback.h",
   "underlying_type" : "type-130",
   "unique_id" : "_ZTSN7android8hardware4gnss18visibility_control4V1_030IGnssVisibilityControlCallback15NfwResponseTypeE"
  },
  {
   "alignment" : 4,
   "enum_fields" :
   [
    {
     "enum_field_value" : 0,
     "name" : "android::hidl::base::V1_0::DebugInfo::Architecture::UNKNOWN"
    },
    {
     "enum_field_value" : 1,
     "name" : "android::hidl::base::V1_0::DebugInfo::Architecture::IS_64BIT"
    },
    {
     "enum_field_value" : 2,
     "name" : "android::hidl::base::V1_0::DebugInfo::Architecture::IS_32BIT"
    }
   ],
   "linker_set_key" : "android::hidl::base::V1_0::DebugInfo::Architecture",
   "name" : "android::hidl::base::V1_0::DebugInfo::Architecture",
   "referenced_type" : "type-1799",
   "self_type" : "type-1799",
   "size" : 4,
   "source_file" : "/out/soong/.intermediates/system/libhidl/transport/base/1.0/android.hidl.base@1.0_genc++_headers/gen/android/hidl/base/1.0/types.h",
   "underlying_type" : "type-20",
   "unique_id" : "_ZTSN7android4hidl4base4V1_09DebugInfo12ArchitectureE"
  },
  {
   "alignment" : 4,
   "enum_fields" :
   [
    {
     "enum_field_value" : -1,
     "name" : "android::hidl::manager::V1_0::IServiceManager::PidConstant::NO_PID"
    }
   ],
   "linker_set_key" : "android::hidl::manager::V1_0::IServiceManager::PidConstant",
   "name" : "android::hidl::manager::V1_0::IServiceManager::PidConstant",
   "referenced_type" : "type-2190",
   "self_type" : "type-2190",
   "size" : 4,
   "source_file" : "/out/soong/.intermediates/system/libhidl/transport/manager/1.0/android.hidl.manager@1.0_genc++_headers/gen/android/hidl/manager/1.0/IServiceManager.h",
   "underlying_type" : "type-20",
   "unique_id" : "_ZTSN7android4hidl7manager4V1_015IServiceManager11PidConstantE"
  },
  {
   "alignment" : 1,
   "enum_fields" :
   [
    {
     "enum_field_value" : 0,
     "name" : "android::hidl::manager::V1_0::IServiceManager::Transport::EMPTY"
    },
    {
     "enum_field_value" : 1,
     "name" : "android::hidl::manager::V1_0::IServiceManager::Transport::HWBINDER"
    },
    {
     "enum_field_value" : 2,
     "name" : "android::hidl::manager::V1_0::IServiceManager::Transport::PASSTHROUGH"
    }
   ],
   "linker_set_key" : "android::hidl::manager::V1_0::IServiceManager::Transport",
   "name" : "android::hidl::manager::V1_0::IServiceManager::Transport",
   "referenced_type" : "type-2189",
   "self_type" : "type-2189",
   "size" : 1,
   "source_file" : "/out/soong/.intermediates/system/libhidl/transport/manager/1.0/android.hidl.manager@1.0_genc++_headers/gen/android/hidl/manager/1.0/IServiceManager.h",
   "underlying_type" : "type-130",
   "unique_id" : "_ZTSN7android4hidl7manager4V1_015IServiceManager9TransportE"
  },
  {
   "alignment" : 4,
   "enum_fields" :
   [
    {
     "enum_field_value" : 0,
     "name" : "ANDROID_LOG_UNKNOWN"
    },
    {
     "enum_field_value" : 1,
     "name" : "ANDROID_LOG_DEFAULT"
    },
    {
     "enum_field_value" : 2,
     "name" : "ANDROID_LOG_VERBOSE"
    },
    {
     "enum_field_value" : 3,
     "name" : "ANDROID_LOG_DEBUG"
    },
    {
     "enum_field_value" : 4,
     "name" : "ANDROID_LOG_INFO"
    },
    {
     "enum_field_value" : 5,
     "name" : "ANDROID_LOG_WARN"
    },
    {
     "enum_field_value" : 6,
     "name" : "ANDROID_LOG_ERROR"
    },
    {
     "enum_field_value" : 7,
     "name" : "ANDROID_LOG_FATAL"
    },
    {
     "enum_field_value" : 8,
     "name" : "ANDROID_LOG_SILENT"
    }
   ],
   "linker_set_key" : "android_LogPriority",
   "name" : "android_LogPriority",
   "referenced_type" : "type-1",
   "self_type" : "type-1",
   "size" : 4,
   "source_file" : "/system/core/liblog/include/android/log.h",
   "underlying_type" : "type-2",
   "unique_id" : "android_LogPriority"
  },
  {
   "alignment" : 4,
   "enum_fields" :
   [
    {
     "enum_field_value" : 0,
     "name" : "HAL_COLOR_MODE_NATIVE"
    },
    {
     "enum_field_value" : 1,
     "name" : "HAL_COLOR_MODE_STANDARD_BT601_625"
    },
    {
     "enum_field_value" : 2,
     "name" : "HAL_COLOR_MODE_STANDARD_BT601_625_UNADJUSTED"
    },
    {
     "enum_field_value" : 3,
     "name" : "HAL_COLOR_MODE_STANDARD_BT601_525"
    },
    {
     "enum_field_value" : 4,
     "name" : "HAL_COLOR_MODE_STANDARD_BT601_525_UNADJUSTED"
    },
    {
     "enum_field_value" : 5,
     "name" : "HAL_COLOR_MODE_STANDARD_BT709"
    },
    {
     "enum_field_value" : 6,
     "name" : "HAL_COLOR_MODE_DCI_P3"
    },
    {
     "enum_field_value" : 7,
     "name" : "HAL_COLOR_MODE_SRGB"
    },
    {
     "enum_field_value" : 8,
     "name" : "HAL_COLOR_MODE_ADOBE_RGB"
    },
    {
     "enum_field_value" : 9,
     "name" : "HAL_COLOR_MODE_DISPLAY_P3"
    }
   ],
   "linker_set_key" : "android_color_mode_t",
   "name" : "android_color_mode_t",
   "referenced_type" : "type-1988",
   "self_type" : "type-1988",
   "size" : 4,
   "source_file" : "/system/core/libsystem/include/system/graphics-base-v1.0.h",
   "underlying_type" : "type-2",
   "unique_id" : "android_color_mode_t"
  },
  {
   "alignment" : 4,
   "enum_fields" :
   [
    {
     "enum_field_value" : 10,
     "name" : "HAL_COLOR_MODE_BT2020"
    },
    {
     "enum_field_value" : 11,
     "name" : "HAL_COLOR_MODE_BT2100_PQ"
    },
    {
     "enum_field_value" : 12,
     "name" : "HAL_COLOR_MODE_BT2100_HLG"
    }
   ],
   "linker_set_key" : "android_color_mode_v1_1_t",
   "name" : "android_color_mode_v1_1_t",
   "referenced_type" : "type-2017",
   "self_type" : "type-2017",
   "size" : 4,
   "source_file" : "/system/core/libsystem/include/system/graphics-base-v1.1.h",
   "underlying_type" : "type-2",
   "unique_id" : "android_color_mode_v1_1_t"
  },
  {
   "alignment" : 4,
   "enum_fields" :
   [
    {
     "enum_field_value" : 0,
     "name" : "HAL_COLOR_TRANSFORM_IDENTITY"
    },
    {
     "enum_field_value" : 1,
     "name" : "HAL_COLOR_TRANSFORM_ARBITRARY_MATRIX"
    },
    {
     "enum_field_value" : 2,
     "name" : "HAL_COLOR_TRANSFORM_VALUE_INVERSE"
    },
    {
     "enum_field_value" : 3,
     "name" : "HAL_COLOR_TRANSFORM_GRAYSCALE"
    },
    {
     "enum_field_value" : 4,
     "name" : "HAL_COLOR_TRANSFORM_CORRECT_PROTANOPIA"
    },
    {
     "enum_field_value" : 5,
     "name" : "HAL_COLOR_TRANSFORM_CORRECT_DEUTERANOPIA"
    },
    {
     "enum_field_value" : 6,
     "name" : "HAL_COLOR_TRANSFORM_CORRECT_TRITANOPIA"
    }
   ],
   "linker_set_key" : "android_color_transform_t",
   "name" : "android_color_transform_t",
   "referenced_type" : "type-1993",
   "self_type" : "type-1993",
   "size" : 4,
   "source_file" : "/system/core/libsystem/include/system/graphics-base-v1.0.h",
   "underlying_type" : "type-2",
   "unique_id" : "android_color_transform_t"
  },
  {
   "alignment" : 4,
   "enum_fields" :
   [
    {
     "enum_field_value" : 0,
     "name" : "HAL_DATASPACE_UNKNOWN"
    },
    {
     "enum_field_value" : 1,
     "name" : "HAL_DATASPACE_ARBITRARY"
    },
    {
     "enum_field_value" : 16,
     "name" : "HAL_DATASPACE_STANDARD_SHIFT"
    },
    {
     "enum_field_value" : 4128768,
     "name" : "HAL_DATASPACE_STANDARD_MASK"
    },
    {
     "enum_field_value" : 0,
     "name" : "HAL_DATASPACE_STANDARD_UNSPECIFIED"
    },
    {
     "enum_field_value" : 65536,
     "name" : "HAL_DATASPACE_STANDARD_BT709"
    },
    {
     "enum_field_value" : 131072,
     "name" : "HAL_DATASPACE_STANDARD_BT601_625"
    },
    {
     "enum_field_value" : 196608,
     "name" : "HAL_DATASPACE_STANDARD_BT601_625_UNADJUSTED"
    },
    {
     "enum_field_value" : 262144,
     "name" : "HAL_DATASPACE_STANDARD_BT601_525"
    },
    {
     "enum_field_value" : 327680,
     "name" : "HAL_DATASPACE_STANDARD_BT601_525_UNADJUSTED"
    },
    {
     "enum_field_value" : 393216,
     "name" : "HAL_DATASPACE_STANDARD_BT2020"
    },
    {
     "enum_field_value" : 458752,
     "name" : "HAL_DATASPACE_STANDARD_BT2020_CONSTANT_LUMINANCE"
    },
    {
     "enum_field_value" : 524288,
     "name" : "HAL_DATASPACE_STANDARD_BT470M"
    },
    {
     "enum_field_value" : 589824,
     "name" : "HAL_DATASPACE_STANDARD_FILM"
    },
    {
     "enum_field_value" : 655360,
     "name" : "HAL_DATASPACE_STANDARD_DCI_P3"
    },
    {
     "enum_field_value" : 720896,
     "name" : "HAL_DATASPACE_STANDARD_ADOBE_RGB"
    },
    {
     "enum_field_value" : 22,
     "name" : "HAL_DATASPACE_TRANSFER_SHIFT"
    },
    {
     "enum_field_value" : 130023424,
     "name" : "HAL_DATASPACE_TRANSFER_MASK"
    },
    {
     "enum_field_value" : 0,
     "name" : "HAL_DATASPACE_TRANSFER_UNSPECIFIED"
    },
    {
     "enum_field_value" : 4194304,
     "name" : "HAL_DATASPACE_TRANSFER_LINEAR"
    },
    {
     "enum_field_value" : 8388608,
     "name" : "HAL_DATASPACE_TRANSFER_SRGB"
    },
    {
     "enum_field_value" : 12582912,
     "name" : "HAL_DATASPACE_TRANSFER_SMPTE_170M"
    },
    {
     "enum_field_value" : 16777216,
     "name" : "HAL_DATASPACE_TRANSFER_GAMMA2_2"
    },
    {
     "enum_field_value" : 20971520,
     "name" : "HAL_DATASPACE_TRANSFER_GAMMA2_6"
    },
    {
     "enum_field_value" : 25165824,
     "name" : "HAL_DATASPACE_TRANSFER_GAMMA2_8"
    },
    {
     "enum_field_value" : 29360128,
     "name" : "HAL_DATASPACE_TRANSFER_ST2084"
    },
    {
     "enum_field_value" : 33554432,
     "name" : "HAL_DATASPACE_TRANSFER_HLG"
    },
    {
     "enum_field_value" : 27,
     "name" : "HAL_DATASPACE_RANGE_SHIFT"
    },
    {
     "enum_field_value" : 939524096,
     "name" : "HAL_DATASPACE_RANGE_MASK"
    },
    {
     "enum_field_value" : 0,
     "name" : "HAL_DATASPACE_RANGE_UNSPECIFIED"
    },
    {
     "enum_field_value" : 134217728,
     "name" : "HAL_DATASPACE_RANGE_FULL"
    },
    {
     "enum_field_value" : 268435456,
     "name" : "HAL_DATASPACE_RANGE_LIMITED"
    },
    {
     "enum_field_value" : 402653184,
     "name" : "HAL_DATASPACE_RANGE_EXTENDED"
    },
    {
     "enum_field_value" : 512,
     "name" : "HAL_DATASPACE_SRGB_LINEAR"
    },
    {
     "enum_field_value" : 138477568,
     "name" : "HAL_DATASPACE_V0_SRGB_LINEAR"
    },
    {
     "enum_field_value" : 406913024,
     "name" : "HAL_DATASPACE_V0_SCRGB_LINEAR"
    },
    {
     "enum_field_value" : 513,
     "name" : "HAL_DATASPACE_SRGB"
    },
    {
     "enum_field_value" : 142671872,
     "name" : "HAL_DATASPACE_V0_SRGB"
    },
    {
     "enum_field_value" : 411107328,
     "name" : "HAL_DATASPACE_V0_SCRGB"
    },
    {
     "enum_field_value" : 257,
     "name" : "HAL_DATASPACE_JFIF"
    },
    {
     "enum_field_value" : 146931712,
     "name" : "HAL_DATASPACE_V0_JFIF"
    },
    {
     "enum_field_value" : 258,
     "name" : "HAL_DATASPACE_BT601_625"
    },
    {
     "enum_field_value" : 281149440,
     "name" : "HAL_DATASPACE_V0_BT601_625"
    },
    {
     "enum_field_value" : 259,
     "name" : "HAL_DATASPACE_BT601_525"
    },
    {
     "enum_field_value" : 281280512,
     "name" : "HAL_DATASPACE_V0_BT601_525"
    },
    {
     "enum_field_value" : 260,
     "name" : "HAL_DATASPACE_BT709"
    },
    {
     "enum_field_value" : 281083904,
     "name" : "HAL_DATASPACE_V0_BT709"
    },
    {
     "enum_field_value" : 139067392,
     "name" : "HAL_DATASPACE_DCI_P3_LINEAR"
    },
    {
     "enum_field_value" : 155844608,
     "name" : "HAL_DATASPACE_DCI_P3"
    },
    {
     "enum_field_value" : 139067392,
     "name" : "HAL_DATASPACE_DISPLAY_P3_LINEAR"
    },
    {
     "enum_field_value" : 143261696,
     "name" : "HAL_DATASPACE_DISPLAY_P3"
    },
    {
     "enum_field_value" : 151715840,
     "name" : "HAL_DATASPACE_ADOBE_RGB"
    },
    {
     "enum_field_value" : 138805248,
     "name" : "HAL_DATASPACE_BT2020_LINEAR"
    },
    {
     "enum_field_value" : 147193856,
     "name" : "HAL_DATASPACE_BT2020"
    },
    {
     "enum_field_value" : 163971072,
     "name" : "HAL_DATASPACE_BT2020_PQ"
    },
    {
     "enum_field_value" : 4096,
     "name" : "HAL_DATASPACE_DEPTH"
    },
    {
     "enum_field_value" : 4097,
     "name" : "HAL_DATASPACE_SENSOR"
    }
   ],
   "linker_set_key" : "android_dataspace_t",
   "name" : "android_dataspace_t",
   "referenced_type" : "type-1987",
   "self_type" : "type-1987",
   "size" : 4,
   "source_file" : "/system/core/libsystem/include/system/graphics-base-v1.0.h",
   "underlying_type" : "type-2",
   "unique_id" : "android_dataspace_t"
  },
  {
   "alignment" : 4,
   "enum_fields" :
   [
    {
     "enum_field_value" : 281411584,
     "name" : "HAL_DATASPACE_BT2020_ITU"
    },
    {
     "enum_field_value" : 298188800,
     "name" : "HAL_DATASPACE_BT2020_ITU_PQ"
    },
    {
     "enum_field_value" : 302383104,
     "name" : "HAL_DATASPACE_BT2020_ITU_HLG"
    },
    {
     "enum_field_value" : 168165376,
     "name" : "HAL_DATASPACE_BT2020_HLG"
    }
   ],
   "linker_set_key" : "android_dataspace_v1_1_t",
   "name" : "android_dataspace_v1_1_t",
   "referenced_type" : "type-2014",
   "self_type" : "type-2014",
   "size" : 4,
   "source_file" : "/system/core/libsystem/include/system/graphics-base-v1.1.h",
   "underlying_type" : "type-2",
   "unique_id" : "android_dataspace_v1_1_t"
  },
  {
   "alignment" : 4,
   "enum_fields" :
   [
    {
     "enum_field_value" : 142999552,
     "name" : "HAL_DATASPACE_DISPLAY_BT2020"
    },
    {
     "enum_field_value" : 4098,
     "name" : "HAL_DATASPACE_DYNAMIC_DEPTH"
    },
    {
     "enum_field_value" : 4099,
     "name" : "HAL_DATASPACE_JPEG_APP_SEGMENTS"
    },
    {
     "enum_field_value" : 4100,
     "name" : "HAL_DATASPACE_HEIF"
    }
   ],
   "linker_set_key" : "android_dataspace_v1_2_t",
   "name" : "android_dataspace_v1_2_t",
   "referenced_type" : "type-2023",
   "self_type" : "type-2023",
   "size" : 4,
   "source_file" : "/system/core/libsystem/include/system/graphics-base-v1.2.h",
   "underlying_type" : "type-2",
   "unique_id" : "android_dataspace_v1_2_t"
  },
  {
   "alignment" : 4,
   "enum_fields" :
   [
    {
     "enum_field_value" : 1,
     "name" : "FLEX_COMPONENT_Y"
    },
    {
     "enum_field_value" : 2,
     "name" : "FLEX_COMPONENT_Cb"
    },
    {
     "enum_field_value" : 4,
     "name" : "FLEX_COMPONENT_Cr"
    },
    {
     "enum_field_value" : 1024,
     "name" : "FLEX_COMPONENT_R"
    },
    {
     "enum_field_value" : 2048,
     "name" : "FLEX_COMPONENT_G"
    },
    {
     "enum_field_value" : 4096,
     "name" : "FLEX_COMPONENT_B"
    },
    {
     "enum_field_value" : 1073741824,
     "name" : "FLEX_COMPONENT_A"
    }
   ],
   "linker_set_key" : "android_flex_component",
   "name" : "android_flex_component",
   "referenced_type" : "type-2039",
   "self_type" : "type-2039",
   "size" : 4,
   "source_file" : "/system/core/libsystem/include/system/graphics.h",
   "underlying_type" : "type-2",
   "unique_id" : "android_flex_component"
  },
  {
   "alignment" : 4,
   "enum_fields" :
   [
    {
     "enum_field_value" : 0,
     "name" : "FLEX_FORMAT_INVALID"
    },
    {
     "enum_field_value" : 1,
     "name" : "FLEX_FORMAT_Y"
    },
    {
     "enum_field_value" : 7,
     "name" : "FLEX_FORMAT_YCbCr"
    },
    {
     "enum_field_value" : 1073741831,
     "name" : "FLEX_FORMAT_YCbCrA"
    },
    {
     "enum_field_value" : 7168,
     "name" : "FLEX_FORMAT_RGB"
    },
    {
     "enum_field_value" : 1073748992,
     "name" : "FLEX_FORMAT_RGBA"
    }
   ],
   "linker_set_key" : "android_flex_format",
   "name" : "android_flex_format",
   "referenced_type" : "type-2041",
   "self_type" : "type-2041",
   "size" : 4,
   "source_file" : "/system/core/libsystem/include/system/graphics.h",
   "underlying_type" : "type-2",
   "unique_id" : "android_flex_format"
  },
  {
   "alignment" : 4,
   "enum_fields" :
   [
    {
     "enum_field_value" : 1,
     "name" : "HAL_HDR_DOLBY_VISION"
    },
    {
     "enum_field_value" : 2,
     "name" : "HAL_HDR_HDR10"
    },
    {
     "enum_field_value" : 3,
     "name" : "HAL_HDR_HLG"
    }
   ],
   "linker_set_key" : "android_hdr_t",
   "name" : "android_hdr_t",
   "referenced_type" : "type-1998",
   "self_type" : "type-1998",
   "size" : 4,
   "source_file" : "/system/core/libsystem/include/system/graphics-base-v1.0.h",
   "underlying_type" : "type-2",
   "unique_id" : "android_hdr_t"
  },
  {
   "alignment" : 4,
   "enum_fields" :
   [
    {
     "enum_field_value" : 4,
     "name" : "HAL_HDR_HDR10_PLUS"
    }
   ],
   "linker_set_key" : "android_hdr_v1_2_t",
   "name" : "android_hdr_v1_2_t",
   "referenced_type" : "type-2019",
   "self_type" : "type-2019",
   "size" : 4,
   "source_file" : "/system/core/libsystem/include/system/graphics-base-v1.2.h",
   "underlying_type" : "type-2",
   "unique_id" : "android_hdr_v1_2_t"
  },
  {
   "alignment" : 4,
   "enum_fields" :
   [
    {
     "enum_field_value" : 39,
     "name" : "HAL_PIXEL_FORMAT_YCBCR_422_888"
    },
    {
     "enum_field_value" : 40,
     "name" : "HAL_PIXEL_FORMAT_YCBCR_444_888"
    },
    {
     "enum_field_value" : 41,
     "name" : "HAL_PIXEL_FORMAT_FLEX_RGB_888"
    },
    {
     "enum_field_value" : 42,
     "name" : "HAL_PIXEL_FORMAT_FLEX_RGBA_8888"
    }
   ],
   "linker_set_key" : "android_pixel_format_sw_t",
   "name" : "android_pixel_format_sw_t",
   "referenced_type" : "type-2025",
   "self_type" : "type-2025",
   "size" : 4,
   "source_file" : "/system/core/libsystem/include/system/graphics-sw.h",
   "underlying_type" : "type-2",
   "unique_id" : "_ZTS25android_pixel_format_sw_t"
  },
  {
   "alignment" : 4,
   "enum_fields" :
   [
    {
     "enum_field_value" : 1,
     "name" : "HAL_PIXEL_FORMAT_RGBA_8888"
    },
    {
     "enum_field_value" : 2,
     "name" : "HAL_PIXEL_FORMAT_RGBX_8888"
    },
    {
     "enum_field_value" : 3,
     "name" : "HAL_PIXEL_FORMAT_RGB_888"
    },
    {
     "enum_field_value" : 4,
     "name" : "HAL_PIXEL_FORMAT_RGB_565"
    },
    {
     "enum_field_value" : 5,
     "name" : "HAL_PIXEL_FORMAT_BGRA_8888"
    },
    {
     "enum_field_value" : 16,
     "name" : "HAL_PIXEL_FORMAT_YCBCR_422_SP"
    },
    {
     "enum_field_value" : 17,
     "name" : "HAL_PIXEL_FORMAT_YCRCB_420_SP"
    },
    {
     "enum_field_value" : 20,
     "name" : "HAL_PIXEL_FORMAT_YCBCR_422_I"
    },
    {
     "enum_field_value" : 22,
     "name" : "HAL_PIXEL_FORMAT_RGBA_FP16"
    },
    {
     "enum_field_value" : 32,
     "name" : "HAL_PIXEL_FORMAT_RAW16"
    },
    {
     "enum_field_value" : 33,
     "name" : "HAL_PIXEL_FORMAT_BLOB"
    },
    {
     "enum_field_value" : 34,
     "name" : "HAL_PIXEL_FORMAT_IMPLEMENTATION_DEFINED"
    },
    {
     "enum_field_value" : 35,
     "name" : "HAL_PIXEL_FORMAT_YCBCR_420_888"
    },
    {
     "enum_field_value" : 36,
     "name" : "HAL_PIXEL_FORMAT_RAW_OPAQUE"
    },
    {
     "enum_field_value" : 37,
     "name" : "HAL_PIXEL_FORMAT_RAW10"
    },
    {
     "enum_field_value" : 38,
     "name" : "HAL_PIXEL_FORMAT_RAW12"
    },
    {
     "enum_field_value" : 43,
     "name" : "HAL_PIXEL_FORMAT_RGBA_1010102"
    },
    {
     "enum_field_value" : 538982489,
     "name" : "HAL_PIXEL_FORMAT_Y8"
    },
    {
     "enum_field_value" : 540422489,
     "name" : "HAL_PIXEL_FORMAT_Y16"
    },
    {
     "enum_field_value" : 842094169,
     "name" : "HAL_PIXEL_FORMAT_YV12"
    }
   ],
   "linker_set_key" : "android_pixel_format_t",
   "name" : "android_pixel_format_t",
   "referenced_type" : "type-1979",
   "self_type" : "type-1979",
   "size" : 4,
   "source_file" : "/system/core/libsystem/include/system/graphics-base-v1.0.h",
   "underlying_type" : "type-2",
   "unique_id" : "android_pixel_format_t"
  },
  {
   "alignment" : 4,
   "enum_fields" :
   [
    {
     "enum_field_value" : 48,
     "name" : "HAL_PIXEL_FORMAT_DEPTH_16"
    },
    {
     "enum_field_value" : 49,
     "name" : "HAL_PIXEL_FORMAT_DEPTH_24"
    },
    {
     "enum_field_value" : 50,
     "name" : "HAL_PIXEL_FORMAT_DEPTH_24_STENCIL_8"
    },
    {
     "enum_field_value" : 51,
     "name" : "HAL_PIXEL_FORMAT_DEPTH_32F"
    },
    {
     "enum_field_value" : 52,
     "name" : "HAL_PIXEL_FORMAT_DEPTH_32F_STENCIL_8"
    },
    {
     "enum_field_value" : 53,
     "name" : "HAL_PIXEL_FORMAT_STENCIL_8"
    },
    {
     "enum_field_value" : 54,
     "name" : "HAL_PIXEL_FORMAT_YCBCR_P010"
    }
   ],
   "linker_set_key" : "android_pixel_format_v1_1_t",
   "name" : "android_pixel_format_v1_1_t",
   "referenced_type" : "type-2005",
   "self_type" : "type-2005",
   "size" : 4,
   "source_file" : "/system/core/libsystem/include/system/graphics-base-v1.1.h",
   "underlying_type" : "type-2",
   "unique_id" : "android_pixel_format_v1_1_t"
  },
  {
   "alignment" : 4,
   "enum_fields" :
   [
    {
     "enum_field_value" : 55,
     "name" : "HAL_PIXEL_FORMAT_HSV_888"
    }
   ],
   "linker_set_key" : "android_pixel_format_v1_2_t",
   "name" : "android_pixel_format_v1_2_t",
   "referenced_type" : "type-2024",
   "self_type" : "type-2024",
   "size" : 4,
   "source_file" : "/system/core/libsystem/include/system/graphics-base-v1.2.h",
   "underlying_type" : "type-2",
   "unique_id" : "android_pixel_format_v1_2_t"
  },
  {
   "alignment" : 4,
   "enum_fields" :
   [
    {
     "enum_field_value" : 0,
     "name" : "HAL_RENDER_INTENT_COLORIMETRIC"
    },
    {
     "enum_field_value" : 1,
     "name" : "HAL_RENDER_INTENT_ENHANCE"
    },
    {
     "enum_field_value" : 2,
     "name" : "HAL_RENDER_INTENT_TONE_MAP_COLORIMETRIC"
    },
    {
     "enum_field_value" : 3,
     "name" : "HAL_RENDER_INTENT_TONE_MAP_ENHANCE"
    }
   ],
   "linker_set_key" : "android_render_intent_v1_1_t",
   "name" : "android_render_intent_v1_1_t",
   "referenced_type" : "type-2018",
   "self_type" : "type-2018",
   "size" : 4,
   "source_file" : "/system/core/libsystem/include/system/graphics-base-v1.1.h",
   "underlying_type" : "type-2",
   "unique_id" : "android_render_intent_v1_1_t"
  },
  {
   "alignment" : 4,
   "enum_fields" :
   [
    {
     "enum_field_value" : 1,
     "name" : "HAL_TRANSFORM_FLIP_H"
    },
    {
     "enum_field_value" : 2,
     "name" : "HAL_TRANSFORM_FLIP_V"
    },
    {
     "enum_field_value" : 4,
     "name" : "HAL_TRANSFORM_ROT_90"
    },
    {
     "enum_field_value" : 3,
     "name" : "HAL_TRANSFORM_ROT_180"
    },
    {
     "enum_field_value" : 7,
     "name" : "HAL_TRANSFORM_ROT_270"
    }
   ],
   "linker_set_key" : "android_transform_t",
   "name" : "android_transform_t",
   "referenced_type" : "type-1986",
   "self_type" : "type-1986",
   "size" : 4,
   "source_file" : "/system/core/libsystem/include/system/graphics-base-v1.0.h",
   "underlying_type" : "type-2",
   "unique_id" : "android_transform_t"
  },
  {
   "alignment" : 4,
   "enum_fields" :
   [
    {
     "enum_field_value" : 0,
     "name" : "LOG_ID_MIN"
    },
    {
     "enum_field_value" : 0,
     "name" : "LOG_ID_MAIN"
    },
    {
     "enum_field_value" : 1,
     "name" : "LOG_ID_RADIO"
    },
    {
     "enum_field_value" : 2,
     "name" : "LOG_ID_EVENTS"
    },
    {
     "enum_field_value" : 3,
     "name" : "LOG_ID_SYSTEM"
    },
    {
     "enum_field_value" : 4,
     "name" : "LOG_ID_CRASH"
    },
    {
     "enum_field_value" : 5,
     "name" : "LOG_ID_STATS"
    },
    {
     "enum_field_value" : 6,
     "name" : "LOG_ID_SECURITY"
    },
    {
     "enum_field_value" : 7,
     "name" : "LOG_ID_KERNEL"
    },
    {
     "enum_field_value" : 8,
     "name" : "LOG_ID_MAX"
    }
   ],
   "linker_set_key" : "log_id",
   "name" : "log_id",
   "referenced_type" : "type-1531",
   "self_type" : "type-1531",
   "size" : 4,
   "source_file" : "/system/core/liblog/include/android/log.h",
   "underlying_type" : "type-2",
   "unique_id" : "log_id"
  }
 ],
 "function_types" :
 [
  {
   "alignment" : 4,
   "linker_set_key" : "bool (const android::String16 &, const android::sp<android::hardware::IBinder> &, void *)",
   "name" : "bool (const android::String16 &, const android::sp<android::hardware::IBinder> &, void *)",
   "parameters" :
   [
    {
     "referenced_type" : "type-37"
    },
    {
     "referenced_type" : "type-43"
    },
    {
     "referenced_type" : "type-21"
    }
   ],
   "referenced_type" : "type-36",
   "return_type" : "type-34",
   "self_type" : "type-36",
   "source_file" : "/system/libhwbinder/include/hwbinder/ProcessState.h"
  },
  {
   "alignment" : 4,
   "linker_set_key" : "int (void *)",
   "name" : "int (void *)",
   "parameters" :
   [
    {
     "referenced_type" : "type-21"
    }
   ],
   "referenced_type" : "type-2088",
   "return_type" : "type-20",
   "self_type" : "type-2088",
   "source_file" : "/system/core/libutils/include/utils/AndroidThreads.h"
  },
  {
   "alignment" : 4,
   "linker_set_key" : "void (android::hardware::Parcel *, const unsigned char *, unsigned int, const unsigned long long *, unsigned int, void *)",
   "name" : "void (android::hardware::Parcel *, const unsigned char *, unsigned int, const unsigned long long *, unsigned int, void *)",
   "parameters" :
   [
    {
     "referenced_type" : "type-1852"
    },
    {
     "referenced_type" : "type-1453"
    },
    {
     "referenced_type" : "type-2"
    },
    {
     "referenced_type" : "type-1853"
    },
    {
     "referenced_type" : "type-2"
    },
    {
     "referenced_type" : "type-21"
    }
   ],
   "referenced_type" : "type-1851",
   "return_type" : "type-22",
   "self_type" : "type-1851",
   "source_file" : "/system/libhwbinder/include/hwbinder/Parcel.h"
  }
 ],
 "functions" :
 [
  {
   "function_name" : "android::hardware::fromBinder",
   "linker_set_key" : "_ZN7android8hardware10fromBinderINS0_4gnss18visibility_control4V1_022IGnssVisibilityControlENS4_25BpHwGnssVisibilityControlENS4_25BnHwGnssVisibilityControlEEENS_2spIT_EERKNS8_INS0_7IBinderEEE",
   "parameters" :
   [
    {
     "referenced_type" : "type-43"
    }
   ],
   "return_type" : "type-307",
   "source_file" : "/system/libhidl/transport/include/hidl/HidlBinderSupport.h",
   "template_args" : [ "type-216", "type-699", "type-306" ]
  },
  {
   "function_name" : "android::hardware::fromBinder",
   "linker_set_key" : "_ZN7android8hardware10fromBinderINS0_4gnss23measurement_corrections4V1_023IMeasurementCorrectionsENS4_26BpHwMeasurementCorrectionsENS4_26BnHwMeasurementCorrectionsEEENS_2spIT_EERKNS8_INS0_7IBinderEEE",
   "parameters" :
   [
    {
     "referenced_type" : "type-43"
    }
   ],
   "return_type" : "type-304",
   "source_file" : "/system/libhidl/transport/include/hidl/HidlBinderSupport.h",
   "template_args" : [ "type-212", "type-682", "type-303" ]
  },
  {
   "function_name" : "android::hardware::fromBinder",
   "linker_set_key" : "_ZN7android8hardware10fromBinderINS0_4gnss4V2_010IGnssDebugENS3_13BpHwGnssDebugENS3_13BnHwGnssDebugEEENS_2spIT_EERKNS7_INS0_7IBinderEEE",
   "parameters" :
   [
    {
     "referenced_type" : "type-43"
    }
   ],
   "return_type" : "type-298",
   "source_file" : "/system/libhidl/transport/include/hidl/HidlBinderSupport.h",
   "template_args" : [ "type-277", "type-969", "type-297" ]
  },
  {
   "function_name" : "android::hardware::fromBinder",
   "linker_set_key" : "_ZN7android8hardware10fromBinderINS0_4gnss4V2_013IGnssBatchingENS3_16BpHwGnssBatchingENS3_16BnHwGnssBatchingEEENS_2spIT_EERKNS7_INS0_7IBinderEEE",
   "parameters" :
   [
    {
     "referenced_type" : "type-43"
    }
   ],
   "return_type" : "type-310",
   "source_file" : "/system/libhidl/transport/include/hidl/HidlBinderSupport.h",
   "template_args" : [ "type-270", "type-946", "type-309" ]
  },
  {
   "function_name" : "android::hardware::fromBinder",
   "linker_set_key" : "_ZN7android8hardware10fromBinderINS0_4gnss4V2_013IGnssCallbackENS3_16BpHwGnssCallbackENS3_16BnHwGnssCallbackEEENS_2spIT_EERKNS7_INS0_7IBinderEEE",
   "parameters" :
   [
    {
     "referenced_type" : "type-43"
    }
   ],
   "return_type" : "type-313",
   "source_file" : "/system/libhidl/transport/include/hidl/HidlBinderSupport.h",
   "template_args" : [ "type-272", "type-952", "type-312" ]
  },
  {
   "function_name" : "android::hardware::fromBinder",
   "linker_set_key" : "_ZN7android8hardware10fromBinderINS0_4gnss4V2_014IAGnssCallbackENS3_17BpHwAGnssCallbackENS3_17BnHwAGnssCallbackEEENS_2spIT_EERKNS7_INS0_7IBinderEEE",
   "parameters" :
   [
    {
     "referenced_type" : "type-43"
    }
   ],
   "return_type" : "type-374",
   "source_file" : "/system/libhidl/transport/include/hidl/HidlBinderSupport.h",
   "template_args" : [ "type-376", "type-387", "type-1883" ]
  },
  {
   "function_name" : "android::hardware::fromBinder",
   "linker_set_key" : "_ZN7android8hardware10fromBinderINS0_4gnss4V2_016IGnssMeasurementENS3_19BpHwGnssMeasurementENS3_19BnHwGnssMeasurementEEENS_2spIT_EERKNS7_INS0_7IBinderEEE",
   "parameters" :
   [
    {
     "referenced_type" : "type-43"
    }
   ],
   "return_type" : "type-301",
   "source_file" : "/system/libhidl/transport/include/hidl/HidlBinderSupport.h",
   "template_args" : [ "type-281", "type-984", "type-300" ]
  },
  {
   "function_name" : "android::hardware::fromBinder",
   "linker_set_key" : "_ZN7android8hardware10fromBinderINS0_4gnss4V2_018IGnssConfigurationENS3_21BpHwGnssConfigurationENS3_21BnHwGnssConfigurationEEENS_2spIT_EERKNS7_INS0_7IBinderEEE",
   "parameters" :
   [
    {
     "referenced_type" : "type-43"
    }
   ],
   "return_type" : "type-295",
   "source_file" : "/system/libhidl/transport/include/hidl/HidlBinderSupport.h",
   "template_args" : [ "type-274", "type-960", "type-294" ]
  },
  {
   "function_name" : "android::hardware::fromBinder",
   "linker_set_key" : "_ZN7android8hardware10fromBinderINS0_4gnss4V2_021IGnssBatchingCallbackENS3_24BpHwGnssBatchingCallbackENS3_24BnHwGnssBatchingCallbackEEENS_2spIT_EERKNS7_INS0_7IBinderEEE",
   "parameters" :
   [
    {
     "referenced_type" : "type-43"
    }
   ],
   "return_type" : "type-934",
   "source_file" : "/system/libhidl/transport/include/hidl/HidlBinderSupport.h",
   "template_args" : [ "type-268", "type-938", "type-933" ]
  },
  {
   "function_name" : "android::hardware::fromBinder",
   "linker_set_key" : "_ZN7android8hardware10fromBinderINS0_4gnss4V2_024IGnssMeasurementCallbackENS3_27BpHwGnssMeasurementCallbackENS3_27BnHwGnssMeasurementCallbackEEENS_2spIT_EERKNS7_INS0_7IBinderEEE",
   "parameters" :
   [
    {
     "referenced_type" : "type-43"
    }
   ],
   "return_type" : "type-974",
   "source_file" : "/system/libhidl/transport/include/hidl/HidlBinderSupport.h",
   "template_args" : [ "type-279", "type-977", "type-973" ]
  },
  {
   "function_name" : "android::hardware::fromBinder",
   "linker_set_key" : "_ZN7android8hardware10fromBinderINS0_4gnss4V2_06IAGnssENS3_9BpHwAGnssENS3_9BnHwAGnssEEENS_2spIT_EERKNS7_INS0_7IBinderEEE",
   "parameters" :
   [
    {
     "referenced_type" : "type-43"
    }
   ],
   "return_type" : "type-510",
   "source_file" : "/system/libhidl/transport/include/hidl/HidlBinderSupport.h",
   "template_args" : [ "type-512", "type-2262", "type-1824" ]
  },
  {
   "function_name" : "android::hardware::fromBinder",
   "linker_set_key" : "_ZN7android8hardware10fromBinderINS0_4gnss4V2_09IAGnssRilENS3_12BpHwAGnssRilENS3_12BnHwAGnssRilEEENS_2spIT_EERKNS7_INS0_7IBinderEEE",
   "parameters" :
   [
    {
     "referenced_type" : "type-43"
    }
   ],
   "return_type" : "type-74",
   "source_file" : "/system/libhidl/transport/include/hidl/HidlBinderSupport.h",
   "template_args" : [ "type-76", "type-192", "type-2746" ]
  },
  {
   "access" : "private",
   "function_name" : "android::hardware::gnss::V2_0::BsAGnssRil::addOnewayTask",
   "linker_set_key" : "_ZN7android8hardware4gnss4V2_010BsAGnssRil13addOnewayTaskENSt3__18functionIFvvEEE",
   "parameters" :
   [
    {
     "is_this_ptr" : true,
     "referenced_type" : "type-2750"
    },
    {
     "referenced_type" : "type-2759"
    }
   ],
   "return_type" : "type-920",
   "source_file" : "/out/soong/.intermediates/hardware/interfaces/gnss/2.0/android.hardware.gnss@2.0_genc++_headers/gen/android/hardware/gnss/2.0/BsAGnssRil.h"
  },
  {
   "function_name" : "android::hardware::gnss::V2_0::BsAGnssRil::BsAGnssRil",
   "linker_set_key" : "_ZN7android8hardware4gnss4V2_010BsAGnssRilC1ENS_2spINS2_9IAGnssRilEEE",
   "parameters" :
   [
    {
     "is_this_ptr" : true,
     "referenced_type" : "type-2750"
    },
    {
     "referenced_type" : "type-80"
    }
   ],
   "return_type" : "type-22",
   "source_file" : "/out/soong/.intermediates/hardware/interfaces/gnss/2.0/android.hardware.gnss@2.0_genc++_headers/gen/android/hardware/gnss/2.0/BsAGnssRil.h"
  },
  {
   "function_name" : "android::hardware::gnss::V2_0::BsAGnssRil::BsAGnssRil",
   "linker_set_key" : "_ZN7android8hardware4gnss4V2_010BsAGnssRilC2ENS_2spINS2_9IAGnssRilEEE",
   "parameters" :
   [
    {
     "is_this_ptr" : true,
     "referenced_type" : "type-2750"
    },
    {
     "referenced_type" : "type-80"
    }
   ],
   "return_type" : "type-22",
   "source_file" : "/out/soong/.intermediates/hardware/interfaces/gnss/2.0/android.hardware.gnss@2.0_genc++_headers/gen/android/hardware/gnss/2.0/BsAGnssRil.h"
  },
  {
   "function_name" : "android::hardware::gnss::V2_0::IGnssDebug::getService",
   "linker_set_key" : "_ZN7android8hardware4gnss4V2_010IGnssDebug10getServiceERKNSt3__112basic_stringIcNS4_11char_traitsIcEENS4_9allocatorIcEEEEb",
   "parameters" :
   [
    {
     "default_arg" : true,
     "referenced_type" : "type-2508"
    },
    {
     "default_arg" : true,
     "referenced_type" : "type-34"
    }
   ],
   "return_type" : "type-298",
   "source_file" : "/out/soong/.intermediates/hardware/interfaces/gnss/2.0/android.hardware.gnss@2.0_genc++_headers/gen/android/hardware/gnss/2.0/IGnssDebug.h"
  },
  {
   "function_name" : "android::hardware::gnss::V2_0::IGnssDebug::linkToDeath",
   "linker_set_key" : "_ZN7android8hardware4gnss4V2_010IGnssDebug11linkToDeathERKNS_2spINS0_20hidl_death_recipientEEEy",
   "parameters" :
   [
    {
     "is_this_ptr" : true,
     "referenced_type" : "type-299"
    },
    {
     "referenced_type" : "type-1550"
    },
    {
     "referenced_type" : "type-13"
    }
   ],
   "return_type" : "type-723",
   "source_file" : "/out/soong/.intermediates/hardware/interfaces/gnss/2.0/android.hardware.gnss@2.0_genc++_headers/gen/android/hardware/gnss/2.0/IGnssDebug.h"
  },
  {
   "function_name" : "android::hardware::gnss::V2_0::IGnssDebug::getDebugInfo",
   "linker_set_key" : "_ZN7android8hardware4gnss4V2_010IGnssDebug12getDebugInfoENSt3__18functionIFvRKNS_4hidl4base4V1_09DebugInfoEEEE",
   "parameters" :
   [
    {
     "is_this_ptr" : true,
     "referenced_type" : "type-299"
    },
    {
     "referenced_type" : "type-2762"
    }
   ],
   "return_type" : "type-920",
   "source_file" : "/out/soong/.intermediates/hardware/interfaces/gnss/2.0/android.hardware.gnss@2.0_genc++_headers/gen/android/hardware/gnss/2.0/IGnssDebug.h"
  },
  {
   "function_name" : "android::hardware::gnss::V2_0::IGnssDebug::getHashChain",
   "linker_set_key" : "_ZN7android8hardware4gnss4V2_010IGnssDebug12getHashChainENSt3__18functionIFvRKNS0_8hidl_vecINS0_10hidl_arrayIhLj32EJEEEEEEEE",
   "parameters" :
   [
    {
     "is_this_ptr" : true,
     "referenced_type" : "type-299"
    },
    {
     "referenced_type" : "type-2763"
    }
   ],
   "return_type" : "type-920",
   "source_file" : "/out/soong/.intermediates/hardware/interfaces/gnss/2.0/android.hardware.gnss@2.0_genc++_headers/gen/android/hardware/gnss/2.0/IGnssDebug.h"
  },
  {
   "function_name" : "android::hardware::gnss::V2_0::IGnssDebug::tryGetService",
   "linker_set_key" : "_ZN7android8hardware4gnss4V2_010IGnssDebug13tryGetServiceERKNSt3__112basic_stringIcNS4_11char_traitsIcEENS4_9allocatorIcEEEEb",
   "parameters" :
   [
    {
     "default_arg" : true,
     "referenced_type" : "type-2508"
    },
    {
     "default_arg" : true,
     "referenced_type" : "type-34"
    }
   ],
   "return_type" : "type-298",
   "source_file" : "/out/soong/.intermediates/hardware/interfaces/gnss/2.0/android.hardware.gnss@2.0_genc++_headers/gen/android/hardware/gnss/2.0/IGnssDebug.h"
  },
  {
   "function_name" : "android::hardware::gnss::V2_0::IGnssDebug::unlinkToDeath",
   "linker_set_key" : "_ZN7android8hardware4gnss4V2_010IGnssDebug13unlinkToDeathERKNS_2spINS0_20hidl_death_recipientEEE",
   "parameters" :
   [
    {
     "is_this_ptr" : true,
     "referenced_type" : "type-299"
    },
    {
     "referenced_type" : "type-1550"
    }
   ],
   "return_type" : "type-723",
   "source_file" : "/out/soong/.intermediates/hardware/interfaces/gnss/2.0/android.hardware.gnss@2.0_genc++_headers/gen/android/hardware/gnss/2.0/IGnssDebug.h"
  },
  {
   "function_name" : "android::hardware::gnss::V2_0::IGnssDebug::interfaceChain",
   "linker_set_key" : "_ZN7android8hardware4gnss4V2_010IGnssDebug14interfaceChainENSt3__18functionIFvRKNS0_8hidl_vecINS0_11hidl_stringEEEEEE",
   "parameters" :
   [
    {
     "is_this_ptr" : true,
     "referenced_type" : "type-299"
    },
    {
     "referenced_type" : "type-2764"
    }
   ],
   "return_type" : "type-920",
   "source_file" : "/out/soong/.intermediates/hardware/interfaces/gnss/2.0/android.hardware.gnss@2.0_genc++_headers/gen/android/hardware/gnss/2.0/IGnssDebug.h"
  },
  {
   "function_name" : "android::hardware::gnss::V2_0::IGnssDebug::registerAsService",
   "linker_set_key" : "_ZN7android8hardware4gnss4V2_010IGnssDebug17registerAsServiceERKNSt3__112basic_stringIcNS4_11char_traitsIcEENS4_9allocatorIcEEEE",
   "parameters" :
   [
    {
     "is_this_ptr" : true,
     "referenced_type" : "type-299"
    },
    {
     "default_arg" : true,
     "referenced_type" : "type-2508"
    }
   ],
   "return_type" : "type-20",
   "source_file" : "/out/soong/.intermediates/hardware/interfaces/gnss/2.0/android.hardware.gnss@2.0_genc++_headers/gen/android/hardware/gnss/2.0/IGnssDebug.h"
  },
  {
   "function_name" : "android::hardware::gnss::V2_0::IGnssDebug::interfaceDescriptor",
   "linker_set_key" : "_ZN7android8hardware4gnss4V2_010IGnssDebug19interfaceDescriptorENSt3__18functionIFvRKNS0_11hidl_stringEEEE",
   "parameters" :
   [
    {
     "is_this_ptr" : true,
     "referenced_type" : "type-299"
    },
    {
     "referenced_type" : "type-2765"
    }
   ],
   "return_type" : "type-920",
   "source_file" : "/out/soong/.intermediates/hardware/interfaces/gnss/2.0/android.hardware.gnss@2.0_genc++_headers/gen/android/hardware/gnss/2.0/IGnssDebug.h"
  },
  {
   "function_name" : "android::hardware::gnss::V2_0::IGnssDebug::notifySyspropsChanged",
   "linker_set_key" : "_ZN7android8hardware4gnss4V2_010IGnssDebug21notifySyspropsChangedEv",
   "parameters" :
   [
    {
     "is_this_ptr" : true,
     "referenced_type" : "type-299"
    }
   ],
   "return_type" : "type-920",
   "source_file" : "/out/soong/.intermediates/hardware/interfaces/gnss/2.0/android.hardware.gnss@2.0_genc++_headers/gen/android/hardware/gnss/2.0/IGnssDebug.h"
  },
  {
   "function_name" : "android::hardware::gnss::V2_0::IGnssDebug::setHALInstrumentation",
   "linker_set_key" : "_ZN7android8hardware4gnss4V2_010IGnssDebug21setHALInstrumentationEv",
   "parameters" :
   [
    {
     "is_this_ptr" : true,
     "referenced_type" : "type-299"
    }
   ],
   "return_type" : "type-920",
   "source_file" : "/out/soong/.intermediates/hardware/interfaces/gnss/2.0/android.hardware.gnss@2.0_genc++_headers/gen/android/hardware/gnss/2.0/IGnssDebug.h"
  },
  {
   "function_name" : "android::hardware::gnss::V2_0::IGnssDebug::registerForNotifications",
   "linker_set_key" : "_ZN7android8hardware4gnss4V2_010IGnssDebug24registerForNotificationsERKNSt3__112basic_stringIcNS4_11char_traitsIcEENS4_9allocatorIcEEEERKNS_2spINS_4hidl7manager4V1_020IServiceNotificationEEE",
   "parameters" :
   [
    {
     "referenced_type" : "type-2508"
    },
    {
     "referenced_type" : "type-2237"
    }
   ],
   "return_type" : "type-34",
   "source_file" : "/out/soong/.intermediates/hardware/interfaces/gnss/2.0/android.hardware.gnss@2.0_genc++_headers/gen/android/hardware/gnss/2.0/IGnssDebug.h"
  },
  {
   "function_name" : "android::hardware::gnss::V2_0::IGnssDebug::ping",
   "linker_set_key" : "_ZN7android8hardware4gnss4V2_010IGnssDebug4pingEv",
   "parameters" :
   [
    {
     "is_this_ptr" : true,
     "referenced_type" : "type-299"
    }
   ],
   "return_type" : "type-920",
   "source_file" : "/out/soong/.intermediates/hardware/interfaces/gnss/2.0/android.hardware.gnss@2.0_genc++_headers/gen/android/hardware/gnss/2.0/IGnssDebug.h"
  },
  {
   "function_name" : "android::hardware::gnss::V2_0::IGnssDebug::debug",
   "linker_set_key" : "_ZN7android8hardware4gnss4V2_010IGnssDebug5debugERKNS0_11hidl_handleERKNS0_8hidl_vecINS0_11hidl_stringEEE",
   "parameters" :
   [
    {
     "is_this_ptr" : true,
     "referenced_type" : "type-299"
    },
    {
     "referenced_type" : "type-1777"
    },
    {
     "referenced_type" : "type-2236"
    }
   ],
   "return_type" : "type-920",
   "source_file" : "/out/soong/.intermediates/hardware/interfaces/gnss/2.0/android.hardware.gnss@2.0_genc++_headers/gen/android/hardware/gnss/2.0/IGnssDebug.h"
  },
  {
   "function_name" : "android::hardware::gnss::V2_0::IGnssDebug::castFrom",
   "linker_set_key" : "_ZN7android8hardware4gnss4V2_010IGnssDebug8castFromERKNS_2spINS1_4V1_010IGnssDebugEEEb",
   "parameters" :
   [
    {
     "referenced_type" : "type-1027"
    },
    {
     "default_arg" : true,
     "referenced_type" : "type-34"
    }
   ],
   "return_type" : "type-1382",
   "source_file" : "/out/soong/.intermediates/hardware/interfaces/gnss/2.0/android.hardware.gnss@2.0_genc++_headers/gen/android/hardware/gnss/2.0/IGnssDebug.h"
  },
  {
   "function_name" : "android::hardware::gnss::V2_0::IGnssDebug::castFrom",
   "linker_set_key" : "_ZN7android8hardware4gnss4V2_010IGnssDebug8castFromERKNS_2spINS_4hidl4base4V1_05IBaseEEEb",
   "parameters" :
   [
    {
     "referenced_type" : "type-2325"
    },
    {
     "default_arg" : true,
     "referenced_type" : "type-34"
    }
   ],
   "return_type" : "type-1382",
   "source_file" : "/out/soong/.intermediates/hardware/interfaces/gnss/2.0/android.hardware.gnss@2.0_genc++_headers/gen/android/hardware/gnss/2.0/IGnssDebug.h"
  },
  {
   "function_name" : "android::hardware::gnss::V2_0::IGnssDebug::castFrom",
   "linker_set_key" : "_ZN7android8hardware4gnss4V2_010IGnssDebug8castFromERKNS_2spIS3_EEb",
   "parameters" :
   [
    {
     "referenced_type" : "type-1041"
    },
    {
     "default_arg" : true,
     "referenced_type" : "type-34"
    }
   ],
   "return_type" : "type-1382",
   "source_file" : "/out/soong/.intermediates/hardware/interfaces/gnss/2.0/android.hardware.gnss@2.0_genc++_headers/gen/android/hardware/gnss/2.0/IGnssDebug.h"
  },
  {
   "access" : "private",
   "function_name" : "android::hardware::gnss::V2_0::BsGnssDebug::addOnewayTask",
   "linker_set_key" : "_ZN7android8hardware4gnss4V2_011BsGnssDebug13addOnewayTaskENSt3__18functionIFvvEEE",
   "parameters" :
   [
    {
     "is_this_ptr" : true,
     "referenced_type" : "type-2487"
    },
    {
     "referenced_type" : "type-2769"
    }
   ],
   "return_type" : "type-920",
   "source_file" : "/out/soong/.intermediates/hardware/interfaces/gnss/2.0/android.hardware.gnss@2.0_genc++_headers/gen/android/hardware/gnss/2.0/BsGnssDebug.h"
  },
  {
   "function_name" : "android::hardware::gnss::V2_0::BsGnssDebug::BsGnssDebug",
   "linker_set_key" : "_ZN7android8hardware4gnss4V2_011BsGnssDebugC1ENS_2spINS2_10IGnssDebugEEE",
   "parameters" :
   [
    {
     "is_this_ptr" : true,
     "referenced_type" : "type-2487"
    },
    {
     "referenced_type" : "type-1040"
    }
   ],
   "return_type" : "type-22",
   "source_file" : "/out/soong/.intermediates/hardware/interfaces/gnss/2.0/android.hardware.gnss@2.0_genc++_headers/gen/android/hardware/gnss/2.0/BsGnssDebug.h"
  },
  {
   "function_name" : "android::hardware::gnss::V2_0::BsGnssDebug::BsGnssDebug",
   "linker_set_key" : "_ZN7android8hardware4gnss4V2_011BsGnssDebugC2ENS_2spINS2_10IGnssDebugEEE",
   "parameters" :
   [
    {
     "is_this_ptr" : true,
     "referenced_type" : "type-2487"
    },
    {
     "referenced_type" : "type-1040"
    }
   ],
   "return_type" : "type-22",
   "source_file" : "/out/soong/.intermediates/hardware/interfaces/gnss/2.0/android.hardware.gnss@2.0_genc++_headers/gen/android/hardware/gnss/2.0/BsGnssDebug.h"
  },
  {
   "function_name" : "android::hardware::gnss::V2_0::BnHwAGnssRil::onTransact",
   "linker_set_key" : "_ZN7android8hardware4gnss4V2_012BnHwAGnssRil10onTransactEjRKNS0_6ParcelEPS4_jNSt3__18functionIFvRS4_EEE",
   "parameters" :
   [
    {
     "is_this_ptr" : true,
     "referenced_type" : "type-2747"
    },
    {
     "referenced_type" : "type-2"
    },
    {
     "referenced_type" : "type-1881"
    },
    {
     "referenced_type" : "type-1852"
    },
    {
     "default_arg" : true,
     "referenced_type" : "type-2"
    },
    {
     "default_arg" : true,
     "referenced_type" : "type-2773"
    }
   ],
   "return_type" : "type-20",
   "source_file" : "/out/soong/.intermediates/hardware/interfaces/gnss/2.0/android.hardware.gnss@2.0_genc++_headers/gen/android/hardware/gnss/2.0/BnHwAGnssRil.h"
  },
  {
   "access" : "private",
   "function_name" : "android::hardware::gnss::V2_0::BnHwAGnssRil::getDebugInfo",
   "linker_set_key" : "_ZN7android8hardware4gnss4V2_012BnHwAGnssRil12getDebugInfoENSt3__18functionIFvRKNS_4hidl4base4V1_09DebugInfoEEEE",
   "parameters" :
   [
    {
     "is_this_ptr" : true,
     "referenced_type" : "type-2747"
    },
    {
     "referenced_type" : "type-2774"
    }
   ],
   "return_type" : "type-920",
   "source_file" : "/out/soong/.intermediates/hardware/interfaces/gnss/2.0/android.hardware.gnss@2.0_genc++_headers/gen/android/hardware/gnss/2.0/BnHwAGnssRil.h"
  },
  {
   "function_name" : "android::hardware::gnss::V2_0::BnHwAGnssRil::_hidl_updateNetworkState_2_0",
   "linker_set_key" : "_ZN7android8hardware4gnss4V2_012BnHwAGnssRil28_hidl_updateNetworkState_2_0EPNS_4hidl4base4V1_08BnHwBaseERKNS0_6ParcelEPS9_NSt3__18functionIFvRS9_EEE",
   "parameters" :
   [
    {
     "referenced_type" : "type-1882"
    },
    {
     "referenced_type" : "type-1881"
    },
    {
     "referenced_type" : "type-1852"
    },
    {
     "referenced_type" : "type-2775"
    }
   ],
   "return_type" : "type-20",
   "source_file" : "/out/soong/.intermediates/hardware/interfaces/gnss/2.0/android.hardware.gnss@2.0_genc++_headers/gen/android/hardware/gnss/2.0/BnHwAGnssRil.h"
  },
  {
   "access" : "private",
   "function_name" : "android::hardware::gnss::V2_0::BnHwAGnssRil::ping",
   "linker_set_key" : "_ZN7android8hardware4gnss4V2_012BnHwAGnssRil4pingEv",
   "parameters" :
   [
    {
     "is_this_ptr" : true,
     "referenced_type" : "type-2747"
    }
   ],
   "return_type" : "type-920",
   "source_file" : "/out/soong/.intermediates/hardware/interfaces/gnss/2.0/android.hardware.gnss@2.0_genc++_headers/gen/android/hardware/gnss/2.0/BnHwAGnssRil.h"
  },
  {
   "function_name" : "android::hardware::gnss::V2_0::BnHwAGnssRil::BnHwAGnssRil",
   "linker_set_key" : "_ZN7android8hardware4gnss4V2_012BnHwAGnssRilC1ERKNS_2spINS2_9IAGnssRilEEE",
   "parameters" :
   [
    {
     "is_this_ptr" : true,
     "referenced_type" : "type-2747"
    },
    {
     "referenced_type" : "type-203"
    }
   ],
   "return_type" : "type-22",
   "source_file" : "/out/soong/.intermediates/hardware/interfaces/gnss/2.0/android.hardware.gnss@2.0_genc++_headers/gen/android/hardware/gnss/2.0/BnHwAGnssRil.h"
  },
  {
   "function_name" : "android::hardware::gnss::V2_0::BnHwAGnssRil::BnHwAGnssRil",
   "linker_set_key" : "_ZN7android8hardware4gnss4V2_012BnHwAGnssRilC2ERKNS_2spINS2_9IAGnssRilEEE",
   "parameters" :
   [
    {
     "is_this_ptr" : true,
     "referenced_type" : "type-2747"
    },
    {
     "referenced_type" : "type-203"
    }
   ],
   "return_type" : "type-22",
   "source_file" : "/out/soong/.intermediates/hardware/interfaces/gnss/2.0/android.hardware.gnss@2.0_genc++_headers/gen/android/hardware/gnss/2.0/BnHwAGnssRil.h"
  },
  {
   "function_name" : "android::hardware::gnss::V2_0::BnHwAGnssRil::~BnHwAGnssRil",
   "linker_set_key" : "_ZN7android8hardware4gnss4V2_012BnHwAGnssRilD0Ev",
   "parameters" :
   [
    {
     "is_this_ptr" : true,
     "referenced_type" : "type-2747"
    }
   ],
   "return_type" : "type-22",
   "source_file" : "/out/soong/.intermediates/hardware/interfaces/gnss/2.0/android.hardware.gnss@2.0_genc++_headers/gen/android/hardware/gnss/2.0/BnHwAGnssRil.h"
  },
  {
   "function_name" : "android::hardware::gnss::V2_0::BnHwAGnssRil::~BnHwAGnssRil",
   "linker_set_key" : "_ZN7android8hardware4gnss4V2_012BnHwAGnssRilD1Ev",
   "parameters" :
   [
    {
     "is_this_ptr" : true,
     "referenced_type" : "type-2747"
    }
   ],
   "return_type" : "type-22",
   "source_file" : "/out/soong/.intermediates/hardware/interfaces/gnss/2.0/android.hardware.gnss@2.0_genc++_headers/gen/android/hardware/gnss/2.0/BnHwAGnssRil.h"
  },
  {
   "function_name" : "android::hardware::gnss::V2_0::BnHwAGnssRil::~BnHwAGnssRil",
   "linker_set_key" : "_ZN7android8hardware4gnss4V2_012BnHwAGnssRilD2Ev",
   "parameters" :
   [
    {
     "is_this_ptr" : true,
     "referenced_type" : "type-2747"
    }
   ],
   "return_type" : "type-22",
   "source_file" : "/out/soong/.intermediates/hardware/interfaces/gnss/2.0/android.hardware.gnss@2.0_genc++_headers/gen/android/hardware/gnss/2.0/BnHwAGnssRil.h"
  },
  {
   "function_name" : "android::hardware::gnss::V2_0::BpHwAGnssRil::linkToDeath",
   "linker_set_key" : "_ZN7android8hardware4gnss4V2_012BpHwAGnssRil11linkToDeathERKNS_2spINS0_20hidl_death_recipientEEEy",
   "parameters" :
   [
    {
     "is_this_ptr" : true,
     "referenced_type" : "type-2753"
    },
    {
     "referenced_type" : "type-1550"
    },
    {
     "referenced_type" : "type-13"
    }
   ],
   "return_type" : "type-723",
   "source_file" : "/out/soong/.intermediates/hardware/interfaces/gnss/2.0/android.hardware.gnss@2.0_genc++_headers/gen/android/hardware/gnss/2.0/BpHwAGnssRil.h"
  },
  {
   "function_name" : "android::hardware::gnss::V2_0::BpHwAGnssRil::setCallback",
   "linker_set_key" : "_ZN7android8hardware4gnss4V2_012BpHwAGnssRil11setCallbackERKNS_2spINS1_4V1_017IAGnssRilCallbackEEE",
   "parameters" :
   [
    {
     "is_this_ptr" : true,
     "referenced_type" : "type-2753"
    },
    {
     "referenced_type" : "type-2754"
    }
   ],
   "return_type" : "type-920",
   "source_file" : "/out/soong/.intermediates/hardware/interfaces/gnss/2.0/android.hardware.gnss@2.0_genc++_headers/gen/android/hardware/gnss/2.0/BpHwAGnssRil.h"
  },
  {
   "function_name" : "android::hardware::gnss::V2_0::BpHwAGnssRil::getDebugInfo",
   "linker_set_key" : "_ZN7android8hardware4gnss4V2_012BpHwAGnssRil12getDebugInfoENSt3__18functionIFvRKNS_4hidl4base4V1_09DebugInfoEEEE",
   "parameters" :
   [
    {
     "is_this_ptr" : true,
     "referenced_type" : "type-2753"
    },
    {
     "referenced_type" : "type-2776"
    }
   ],
   "return_type" : "type-920",
   "source_file" : "/out/soong/.intermediates/hardware/interfaces/gnss/2.0/android.hardware.gnss@2.0_genc++_headers/gen/android/hardware/gnss/2.0/BpHwAGnssRil.h"
  },
  {
   "function_name" : "android::hardware::gnss::V2_0::BpHwAGnssRil::getHashChain",
   "linker_set_key" : "_ZN7android8hardware4gnss4V2_012BpHwAGnssRil12getHashChainENSt3__18functionIFvRKNS0_8hidl_vecINS0_10hidl_arrayIhLj32EJEEEEEEEE",
   "parameters" :
   [
    {
     "is_this_ptr" : true,
     "referenced_type" : "type-2753"
    },
    {
     "referenced_type" : "type-2777"
    }
   ],
   "return_type" : "type-920",
   "source_file" : "/out/soong/.intermediates/hardware/interfaces/gnss/2.0/android.hardware.gnss@2.0_genc++_headers/gen/android/hardware/gnss/2.0/BpHwAGnssRil.h"
  },
  {
   "function_name" : "android::hardware::gnss::V2_0::BpHwAGnssRil::unlinkToDeath",
   "linker_set_key" : "_ZN7android8hardware4gnss4V2_012BpHwAGnssRil13unlinkToDeathERKNS_2spINS0_20hidl_death_recipientEEE",
   "parameters" :
   [
    {
     "is_this_ptr" : true,
     "referenced_type" : "type-2753"
    },
    {
     "referenced_type" : "type-1550"
    }
   ],
   "return_type" : "type-723",
   "source_file" : "/out/soong/.intermediates/hardware/interfaces/gnss/2.0/android.hardware.gnss@2.0_genc++_headers/gen/android/hardware/gnss/2.0/BpHwAGnssRil.h"
  },
  {
   "function_name" : "android::hardware::gnss::V2_0::BpHwAGnssRil::interfaceChain",
   "linker_set_key" : "_ZN7android8hardware4gnss4V2_012BpHwAGnssRil14interfaceChainENSt3__18functionIFvRKNS0_8hidl_vecINS0_11hidl_stringEEEEEE",
   "parameters" :
   [
    {
     "is_this_ptr" : true,
     "referenced_type" : "type-2753"
    },
    {
     "referenced_type" : "type-2778"
    }
   ],
   "return_type" : "type-920",
   "source_file" : "/out/soong/.intermediates/hardware/interfaces/gnss/2.0/android.hardware.gnss@2.0_genc++_headers/gen/android/hardware/gnss/2.0/BpHwAGnssRil.h"
  },
  {
   "function_name" : "android::hardware::gnss::V2_0::BpHwAGnssRil::setRefLocation",
   "linker_set_key" : "_ZN7android8hardware4gnss4V2_012BpHwAGnssRil14setRefLocationERKNS1_4V1_09IAGnssRil16AGnssRefLocationE",
   "parameters" :
   [
    {
     "is_this_ptr" : true,
     "referenced_type" : "type-2753"
    },
    {
     "referenced_type" : "type-197"
    }
   ],
   "return_type" : "type-920",
   "source_file" : "/out/soong/.intermediates/hardware/interfaces/gnss/2.0/android.hardware.gnss@2.0_genc++_headers/gen/android/hardware/gnss/2.0/BpHwAGnssRil.h"
  },
  {
   "function_name" : "android::hardware::gnss::V2_0::BpHwAGnssRil::updateNetworkState",
   "linker_set_key" : "_ZN7android8hardware4gnss4V2_012BpHwAGnssRil18updateNetworkStateEbNS1_4V1_09IAGnssRil11NetworkTypeEb",
   "parameters" :
   [
    {
     "is_this_ptr" : true,
     "referenced_type" : "type-2753"
    },
    {
     "referenced_type" : "type-34"
    },
    {
     "referenced_type" : "type-131"
    },
    {
     "referenced_type" : "type-34"
    }
   ],
   "return_type" : "type-723",
   "source_file" : "/out/soong/.intermediates/hardware/interfaces/gnss/2.0/android.hardware.gnss@2.0_genc++_headers/gen/android/hardware/gnss/2.0/BpHwAGnssRil.h"
  },
  {
   "function_name" : "android::hardware::gnss::V2_0::BpHwAGnssRil::interfaceDescriptor",
   "linker_set_key" : "_ZN7android8hardware4gnss4V2_012BpHwAGnssRil19interfaceDescriptorENSt3__18functionIFvRKNS0_11hidl_stringEEEE",
   "parameters" :
   [
    {
     "is_this_ptr" : true,
     "referenced_type" : "type-2753"
    },
    {
     "referenced_type" : "type-2779"
    }
   ],
   "return_type" : "type-920",
   "source_file" : "/out/soong/.intermediates/hardware/interfaces/gnss/2.0/android.hardware.gnss@2.0_genc++_headers/gen/android/hardware/gnss/2.0/BpHwAGnssRil.h"
  },
  {
   "function_name" : "android::hardware::gnss::V2_0::BpHwAGnssRil::notifySyspropsChanged",
   "linker_set_key" : "_ZN7android8hardware4gnss4V2_012BpHwAGnssRil21notifySyspropsChangedEv",
   "parameters" :
   [
    {
     "is_this_ptr" : true,
     "referenced_type" : "type-2753"
    }
   ],
   "return_type" : "type-920",
   "source_file" : "/out/soong/.intermediates/hardware/interfaces/gnss/2.0/android.hardware.gnss@2.0_genc++_headers/gen/android/hardware/gnss/2.0/BpHwAGnssRil.h"
  },
  {
   "function_name" : "android::hardware::gnss::V2_0::BpHwAGnssRil::setHALInstrumentation",
   "linker_set_key" : "_ZN7android8hardware4gnss4V2_012BpHwAGnssRil21setHALInstrumentationEv",
   "parameters" :
   [
    {
     "is_this_ptr" : true,
     "referenced_type" : "type-2753"
    }
   ],
   "return_type" : "type-920",
   "source_file" : "/out/soong/.intermediates/hardware/interfaces/gnss/2.0/android.hardware.gnss@2.0_genc++_headers/gen/android/hardware/gnss/2.0/BpHwAGnssRil.h"
  },
  {
   "function_name" : "android::hardware::gnss::V2_0::BpHwAGnssRil::updateNetworkState_2_0",
   "linker_set_key" : "_ZN7android8hardware4gnss4V2_012BpHwAGnssRil22updateNetworkState_2_0ERKNS2_9IAGnssRil17NetworkAttributesE",
   "parameters" :
   [
    {
     "is_this_ptr" : true,
     "referenced_type" : "type-2753"
    },
    {
     "referenced_type" : "type-190"
    }
   ],
   "return_type" : "type-723",
   "source_file" : "/out/soong/.intermediates/hardware/interfaces/gnss/2.0/android.hardware.gnss@2.0_genc++_headers/gen/android/hardware/gnss/2.0/BpHwAGnssRil.h"
  },
  {
   "function_name" : "android::hardware::gnss::V2_0::BpHwAGnssRil::updateNetworkAvailability",
   "linker_set_key" : "_ZN7android8hardware4gnss4V2_012BpHwAGnssRil25updateNetworkAvailabilityEbRKNS0_11hidl_stringE",
   "parameters" :
   [
    {
     "is_this_ptr" : true,
     "referenced_type" : "type-2753"
    },
    {
     "referenced_type" : "type-34"
    },
    {
     "referenced_type" : "type-1605"
    }
   ],
   "return_type" : "type-723",
   "source_file" : "/out/soong/.intermediates/hardware/interfaces/gnss/2.0/android.hardware.gnss@2.0_genc++_headers/gen/android/hardware/gnss/2.0/BpHwAGnssRil.h"
  },
  {
   "function_name" : "android::hardware::gnss::V2_0::BpHwAGnssRil::_hidl_updateNetworkState_2_0",
   "linker_set_key" : "_ZN7android8hardware4gnss4V2_012BpHwAGnssRil28_hidl_updateNetworkState_2_0EPNS0_10IInterfaceEPNS0_7details16HidlInstrumentorERKNS2_9IAGnssRil17NetworkAttributesE",
   "parameters" :
   [
    {
     "referenced_type" : "type-2752"
    },
    {
     "referenced_type" : "type-2283"
    },
    {
     "referenced_type" : "type-190"
    }
   ],
   "return_type" : "type-723",
   "source_file" : "/out/soong/.intermediates/hardware/interfaces/gnss/2.0/android.hardware.gnss@2.0_genc++_headers/gen/android/hardware/gnss/2.0/BpHwAGnssRil.h"
  },
  {
   "function_name" : "android::hardware::gnss::V2_0::BpHwAGnssRil::ping",
   "linker_set_key" : "_ZN7android8hardware4gnss4V2_012BpHwAGnssRil4pingEv",
   "parameters" :
   [
    {
     "is_this_ptr" : true,
     "referenced_type" : "type-2753"
    }
   ],
   "return_type" : "type-920",
   "source_file" : "/out/soong/.intermediates/hardware/interfaces/gnss/2.0/android.hardware.gnss@2.0_genc++_headers/gen/android/hardware/gnss/2.0/BpHwAGnssRil.h"
  },
  {
   "function_name" : "android::hardware::gnss::V2_0::BpHwAGnssRil::debug",
   "linker_set_key" : "_ZN7android8hardware4gnss4V2_012BpHwAGnssRil5debugERKNS0_11hidl_handleERKNS0_8hidl_vecINS0_11hidl_stringEEE",
   "parameters" :
   [
    {
     "is_this_ptr" : true,
     "referenced_type" : "type-2753"
    },
    {
     "referenced_type" : "type-1777"
    },
    {
     "referenced_type" : "type-2236"
    }
   ],
   "return_type" : "type-920",
   "source_file" : "/out/soong/.intermediates/hardware/interfaces/gnss/2.0/android.hardware.gnss@2.0_genc++_headers/gen/android/hardware/gnss/2.0/BpHwAGnssRil.h"
  },
  {
   "function_name" : "android::hardware::gnss::V2_0::BpHwAGnssRil::setSetId",
   "linker_set_key" : "_ZN7android8hardware4gnss4V2_012BpHwAGnssRil8setSetIdENS1_4V1_09IAGnssRil9SetIDTypeERKNS0_11hidl_stringE",
   "parameters" :
   [
    {
     "is_this_ptr" : true,
     "referenced_type" : "type-2753"
    },
    {
     "referenced_type" : "type-129"
    },
    {
     "referenced_type" : "type-1605"
    }
   ],
   "return_type" : "type-723",
   "source_file" : "/out/soong/.intermediates/hardware/interfaces/gnss/2.0/android.hardware.gnss@2.0_genc++_headers/gen/android/hardware/gnss/2.0/BpHwAGnssRil.h"
  },
  {
   "function_name" : "android::hardware::gnss::V2_0::BpHwAGnssRil::BpHwAGnssRil",
   "linker_set_key" : "_ZN7android8hardware4gnss4V2_012BpHwAGnssRilC1ERKNS_2spINS0_7IBinderEEE",
   "parameters" :
   [
    {
     "is_this_ptr" : true,
     "referenced_type" : "type-2753"
    },
    {
     "referenced_type" : "type-43"
    }
   ],
   "return_type" : "type-22",
   "source_file" : "/out/soong/.intermediates/hardware/interfaces/gnss/2.0/android.hardware.gnss@2.0_genc++_headers/gen/android/hardware/gnss/2.0/BpHwAGnssRil.h"
  },
  {
   "function_name" : "android::hardware::gnss::V2_0::BpHwAGnssRil::BpHwAGnssRil",
   "linker_set_key" : "_ZN7android8hardware4gnss4V2_012BpHwAGnssRilC2ERKNS_2spINS0_7IBinderEEE",
   "parameters" :
   [
    {
     "is_this_ptr" : true,
     "referenced_type" : "type-2753"
    },
    {
     "referenced_type" : "type-43"
    }
   ],
   "return_type" : "type-22",
   "source_file" : "/out/soong/.intermediates/hardware/interfaces/gnss/2.0/android.hardware.gnss@2.0_genc++_headers/gen/android/hardware/gnss/2.0/BpHwAGnssRil.h"
  },
  {
   "function_name" : "android::hardware::gnss::V2_0::BnHwGnssDebug::onTransact",
   "linker_set_key" : "_ZN7android8hardware4gnss4V2_013BnHwGnssDebug10onTransactEjRKNS0_6ParcelEPS4_jNSt3__18functionIFvRS4_EEE",
   "parameters" :
   [
    {
     "is_this_ptr" : true,
     "referenced_type" : "type-964"
    },
    {
     "referenced_type" : "type-2"
    },
    {
     "referenced_type" : "type-1881"
    },
    {
     "referenced_type" : "type-1852"
    },
    {
     "default_arg" : true,
     "referenced_type" : "type-2"
    },
    {
     "default_arg" : true,
     "referenced_type" : "type-2780"
    }
   ],
   "return_type" : "type-20",
   "source_file" : "/out/soong/.intermediates/hardware/interfaces/gnss/2.0/android.hardware.gnss@2.0_genc++_headers/gen/android/hardware/gnss/2.0/BnHwGnssDebug.h"
  },
  {
   "access" : "private",
   "function_name" : "android::hardware::gnss::V2_0::BnHwGnssDebug::getDebugInfo",
   "linker_set_key" : "_ZN7android8hardware4gnss4V2_013BnHwGnssDebug12getDebugInfoENSt3__18functionIFvRKNS_4hidl4base4V1_09DebugInfoEEEE",
   "parameters" :
   [
    {
     "is_this_ptr" : true,
     "referenced_type" : "type-964"
    },
    {
     "referenced_type" : "type-2781"
    }
   ],
   "return_type" : "type-920",
   "source_file" : "/out/soong/.intermediates/hardware/interfaces/gnss/2.0/android.hardware.gnss@2.0_genc++_headers/gen/android/hardware/gnss/2.0/BnHwGnssDebug.h"
  },
  {
   "function_name" : "android::hardware::gnss::V2_0::BnHwGnssDebug::_hidl_getDebugData_2_0",
   "linker_set_key" : "_ZN7android8hardware4gnss4V2_013BnHwGnssDebug22_hidl_getDebugData_2_0EPNS_4hidl4base4V1_08BnHwBaseERKNS0_6ParcelEPS9_NSt3__18functionIFvRS9_EEE",
   "parameters" :
   [
    {
     "referenced_type" : "type-1882"
    },
    {
     "referenced_type" : "type-1881"
    },
    {
     "referenced_type" : "type-1852"
    },
    {
     "referenced_type" : "type-2782"
    }
   ],
   "return_type" : "type-20",
   "source_file" : "/out/soong/.intermediates/hardware/interfaces/gnss/2.0/android.hardware.gnss@2.0_genc++_headers/gen/android/hardware/gnss/2.0/BnHwGnssDebug.h"
  },
  {
   "access" : "private",
   "function_name" : "android::hardware::gnss::V2_0::BnHwGnssDebug::ping",
   "linker_set_key" : "_ZN7android8hardware4gnss4V2_013BnHwGnssDebug4pingEv",
   "parameters" :
   [
    {
     "is_this_ptr" : true,
     "referenced_type" : "type-964"
    }
   ],
   "return_type" : "type-920",
   "source_file" : "/out/soong/.intermediates/hardware/interfaces/gnss/2.0/android.hardware.gnss@2.0_genc++_headers/gen/android/hardware/gnss/2.0/BnHwGnssDebug.h"
  },
  {
   "function_name" : "android::hardware::gnss::V2_0::BnHwGnssDebug::BnHwGnssDebug",
   "linker_set_key" : "_ZN7android8hardware4gnss4V2_013BnHwGnssDebugC1ERKNS_2spINS2_10IGnssDebugEEE",
   "parameters" :
   [
    {
     "is_this_ptr" : true,
     "referenced_type" : "type-964"
    },
    {
     "referenced_type" : "type-1041"
    }
   ],
   "return_type" : "type-22",
   "source_file" : "/out/soong/.intermediates/hardware/interfaces/gnss/2.0/android.hardware.gnss@2.0_genc++_headers/gen/android/hardware/gnss/2.0/BnHwGnssDebug.h"
  },
  {
   "function_name" : "android::hardware::gnss::V2_0::BnHwGnssDebug::BnHwGnssDebug",
   "linker_set_key" : "_ZN7android8hardware4gnss4V2_013BnHwGnssDebugC2ERKNS_2spINS2_10IGnssDebugEEE",
   "parameters" :
   [
    {
     "is_this_ptr" : true,
     "referenced_type" : "type-964"
    },
    {
     "referenced_type" : "type-1041"
    }
   ],
   "return_type" : "type-22",
   "source_file" : "/out/soong/.intermediates/hardware/interfaces/gnss/2.0/android.hardware.gnss@2.0_genc++_headers/gen/android/hardware/gnss/2.0/BnHwGnssDebug.h"
  },
  {
   "function_name" : "android::hardware::gnss::V2_0::BnHwGnssDebug::~BnHwGnssDebug",
   "linker_set_key" : "_ZN7android8hardware4gnss4V2_013BnHwGnssDebugD0Ev",
   "parameters" :
   [
    {
     "is_this_ptr" : true,
     "referenced_type" : "type-964"
    }
   ],
   "return_type" : "type-22",
   "source_file" : "/out/soong/.intermediates/hardware/interfaces/gnss/2.0/android.hardware.gnss@2.0_genc++_headers/gen/android/hardware/gnss/2.0/BnHwGnssDebug.h"
  },
  {
   "function_name" : "android::hardware::gnss::V2_0::BnHwGnssDebug::~BnHwGnssDebug",
   "linker_set_key" : "_ZN7android8hardware4gnss4V2_013BnHwGnssDebugD1Ev",
   "parameters" :
   [
    {
     "is_this_ptr" : true,
     "referenced_type" : "type-964"
    }
   ],
   "return_type" : "type-22",
   "source_file" : "/out/soong/.intermediates/hardware/interfaces/gnss/2.0/android.hardware.gnss@2.0_genc++_headers/gen/android/hardware/gnss/2.0/BnHwGnssDebug.h"
  },
  {
   "function_name" : "android::hardware::gnss::V2_0::BnHwGnssDebug::~BnHwGnssDebug",
   "linker_set_key" : "_ZN7android8hardware4gnss4V2_013BnHwGnssDebugD2Ev",
   "parameters" :
   [
    {
     "is_this_ptr" : true,
     "referenced_type" : "type-964"
    }
   ],
   "return_type" : "type-22",
   "source_file" : "/out/soong/.intermediates/hardware/interfaces/gnss/2.0/android.hardware.gnss@2.0_genc++_headers/gen/android/hardware/gnss/2.0/BnHwGnssDebug.h"
  },
  {
   "function_name" : "android::hardware::gnss::V2_0::BpHwGnssDebug::linkToDeath",
   "linker_set_key" : "_ZN7android8hardware4gnss4V2_013BpHwGnssDebug11linkToDeathERKNS_2spINS0_20hidl_death_recipientEEEy",
   "parameters" :
   [
    {
     "is_this_ptr" : true,
     "referenced_type" : "type-1244"
    },
    {
     "referenced_type" : "type-1550"
    },
    {
     "referenced_type" : "type-13"
    }
   ],
   "return_type" : "type-723",
   "source_file" : "/out/soong/.intermediates/hardware/interfaces/gnss/2.0/android.hardware.gnss@2.0_genc++_headers/gen/android/hardware/gnss/2.0/BpHwGnssDebug.h"
  },
  {
   "function_name" : "android::hardware::gnss::V2_0::BpHwGnssDebug::getDebugData",
   "linker_set_key" : "_ZN7android8hardware4gnss4V2_013BpHwGnssDebug12getDebugDataENSt3__18functionIFvRKNS1_4V1_010IGnssDebug9DebugDataEEEE",
   "parameters" :
   [
    {
     "is_this_ptr" : true,
     "referenced_type" : "type-1244"
    },
    {
     "referenced_type" : "type-2783"
    }
   ],
   "return_type" : "type-920",
   "source_file" : "/out/soong/.intermediates/hardware/interfaces/gnss/2.0/android.hardware.gnss@2.0_genc++_headers/gen/android/hardware/gnss/2.0/BpHwGnssDebug.h"
  },
  {
   "function_name" : "android::hardware::gnss::V2_0::BpHwGnssDebug::getDebugInfo",
   "linker_set_key" : "_ZN7android8hardware4gnss4V2_013BpHwGnssDebug12getDebugInfoENSt3__18functionIFvRKNS_4hidl4base4V1_09DebugInfoEEEE",
   "parameters" :
   [
    {
     "is_this_ptr" : true,
     "referenced_type" : "type-1244"
    },
    {
     "referenced_type" : "type-2784"
    }
   ],
   "return_type" : "type-920",
   "source_file" : "/out/soong/.intermediates/hardware/interfaces/gnss/2.0/android.hardware.gnss@2.0_genc++_headers/gen/android/hardware/gnss/2.0/BpHwGnssDebug.h"
  },
  {
   "function_name" : "android::hardware::gnss::V2_0::BpHwGnssDebug::getHashChain",
   "linker_set_key" : "_ZN7android8hardware4gnss4V2_013BpHwGnssDebug12getHashChainENSt3__18functionIFvRKNS0_8hidl_vecINS0_10hidl_arrayIhLj32EJEEEEEEEE",
   "parameters" :
   [
    {
     "is_this_ptr" : true,
     "referenced_type" : "type-1244"
    },
    {
     "referenced_type" : "type-2785"
    }
   ],
   "return_type" : "type-920",
   "source_file" : "/out/soong/.intermediates/hardware/interfaces/gnss/2.0/android.hardware.gnss@2.0_genc++_headers/gen/android/hardware/gnss/2.0/BpHwGnssDebug.h"
  },
  {
   "function_name" : "android::hardware::gnss::V2_0::BpHwGnssDebug::unlinkToDeath",
   "linker_set_key" : "_ZN7android8hardware4gnss4V2_013BpHwGnssDebug13unlinkToDeathERKNS_2spINS0_20hidl_death_recipientEEE",
   "parameters" :
   [
    {
     "is_this_ptr" : true,
     "referenced_type" : "type-1244"
    },
    {
     "referenced_type" : "type-1550"
    }
   ],
   "return_type" : "type-723",
   "source_file" : "/out/soong/.intermediates/hardware/interfaces/gnss/2.0/android.hardware.gnss@2.0_genc++_headers/gen/android/hardware/gnss/2.0/BpHwGnssDebug.h"
  },
  {
   "function_name" : "android::hardware::gnss::V2_0::BpHwGnssDebug::interfaceChain",
   "linker_set_key" : "_ZN7android8hardware4gnss4V2_013BpHwGnssDebug14interfaceChainENSt3__18functionIFvRKNS0_8hidl_vecINS0_11hidl_stringEEEEEE",
   "parameters" :
   [
    {
     "is_this_ptr" : true,
     "referenced_type" : "type-1244"
    },
    {
     "referenced_type" : "type-2786"
    }
   ],
   "return_type" : "type-920",
   "source_file" : "/out/soong/.intermediates/hardware/interfaces/gnss/2.0/android.hardware.gnss@2.0_genc++_headers/gen/android/hardware/gnss/2.0/BpHwGnssDebug.h"
  },
  {
   "function_name" : "android::hardware::gnss::V2_0::BpHwGnssDebug::getDebugData_2_0",
   "linker_set_key" : "_ZN7android8hardware4gnss4V2_013BpHwGnssDebug16getDebugData_2_0ENSt3__18functionIFvRKNS2_10IGnssDebug9DebugDataEEEE",
   "parameters" :
   [
    {
     "is_this_ptr" : true,
     "referenced_type" : "type-1244"
    },
    {
     "referenced_type" : "type-2787"
    }
   ],
   "return_type" : "type-920",
   "source_file" : "/out/soong/.intermediates/hardware/interfaces/gnss/2.0/android.hardware.gnss@2.0_genc++_headers/gen/android/hardware/gnss/2.0/BpHwGnssDebug.h"
  },
  {
   "function_name" : "android::hardware::gnss::V2_0::BpHwGnssDebug::interfaceDescriptor",
   "linker_set_key" : "_ZN7android8hardware4gnss4V2_013BpHwGnssDebug19interfaceDescriptorENSt3__18functionIFvRKNS0_11hidl_stringEEEE",
   "parameters" :
   [
    {
     "is_this_ptr" : true,
     "referenced_type" : "type-1244"
    },
    {
     "referenced_type" : "type-2788"
    }
   ],
   "return_type" : "type-920",
   "source_file" : "/out/soong/.intermediates/hardware/interfaces/gnss/2.0/android.hardware.gnss@2.0_genc++_headers/gen/android/hardware/gnss/2.0/BpHwGnssDebug.h"
  },
  {
   "function_name" : "android::hardware::gnss::V2_0::BpHwGnssDebug::notifySyspropsChanged",
   "linker_set_key" : "_ZN7android8hardware4gnss4V2_013BpHwGnssDebug21notifySyspropsChangedEv",
   "parameters" :
   [
    {
     "is_this_ptr" : true,
     "referenced_type" : "type-1244"
    }
   ],
   "return_type" : "type-920",
   "source_file" : "/out/soong/.intermediates/hardware/interfaces/gnss/2.0/android.hardware.gnss@2.0_genc++_headers/gen/android/hardware/gnss/2.0/BpHwGnssDebug.h"
  },
  {
   "function_name" : "android::hardware::gnss::V2_0::BpHwGnssDebug::setHALInstrumentation",
   "linker_set_key" : "_ZN7android8hardware4gnss4V2_013BpHwGnssDebug21setHALInstrumentationEv",
   "parameters" :
   [
    {
     "is_this_ptr" : true,
     "referenced_type" : "type-1244"
    }
   ],
   "return_type" : "type-920",
   "source_file" : "/out/soong/.intermediates/hardware/interfaces/gnss/2.0/android.hardware.gnss@2.0_genc++_headers/gen/android/hardware/gnss/2.0/BpHwGnssDebug.h"
  },
  {
   "function_name" : "android::hardware::gnss::V2_0::BpHwGnssDebug::_hidl_getDebugData_2_0",
   "linker_set_key" : "_ZN7android8hardware4gnss4V2_013BpHwGnssDebug22_hidl_getDebugData_2_0EPNS0_10IInterfaceEPNS0_7details16HidlInstrumentorENSt3__18functionIFvRKNS2_10IGnssDebug9DebugDataEEEE",
   "parameters" :
   [
    {
     "referenced_type" : "type-2752"
    },
    {
     "referenced_type" : "type-2283"
    },
    {
     "referenced_type" : "type-2789"
    }
   ],
   "return_type" : "type-920",
   "source_file" : "/out/soong/.intermediates/hardware/interfaces/gnss/2.0/android.hardware.gnss@2.0_genc++_headers/gen/android/hardware/gnss/2.0/BpHwGnssDebug.h"
  },
  {
   "function_name" : "android::hardware::gnss::V2_0::BpHwGnssDebug::ping",
   "linker_set_key" : "_ZN7android8hardware4gnss4V2_013BpHwGnssDebug4pingEv",
   "parameters" :
   [
    {
     "is_this_ptr" : true,
     "referenced_type" : "type-1244"
    }
   ],
   "return_type" : "type-920",
   "source_file" : "/out/soong/.intermediates/hardware/interfaces/gnss/2.0/android.hardware.gnss@2.0_genc++_headers/gen/android/hardware/gnss/2.0/BpHwGnssDebug.h"
  },
  {
   "function_name" : "android::hardware::gnss::V2_0::BpHwGnssDebug::debug",
   "linker_set_key" : "_ZN7android8hardware4gnss4V2_013BpHwGnssDebug5debugERKNS0_11hidl_handleERKNS0_8hidl_vecINS0_11hidl_stringEEE",
   "parameters" :
   [
    {
     "is_this_ptr" : true,
     "referenced_type" : "type-1244"
    },
    {
     "referenced_type" : "type-1777"
    },
    {
     "referenced_type" : "type-2236"
    }
   ],
   "return_type" : "type-920",
   "source_file" : "/out/soong/.intermediates/hardware/interfaces/gnss/2.0/android.hardware.gnss@2.0_genc++_headers/gen/android/hardware/gnss/2.0/BpHwGnssDebug.h"
  },
  {
   "function_name" : "android::hardware::gnss::V2_0::BpHwGnssDebug::BpHwGnssDebug",
   "linker_set_key" : "_ZN7android8hardware4gnss4V2_013BpHwGnssDebugC1ERKNS_2spINS0_7IBinderEEE",
   "parameters" :
   [
    {
     "is_this_ptr" : true,
     "referenced_type" : "type-1244"
    },
    {
     "referenced_type" : "type-43"
    }
   ],
   "return_type" : "type-22",
   "source_file" : "/out/soong/.intermediates/hardware/interfaces/gnss/2.0/android.hardware.gnss@2.0_genc++_headers/gen/android/hardware/gnss/2.0/BpHwGnssDebug.h"
  },
  {
   "function_name" : "android::hardware::gnss::V2_0::BpHwGnssDebug::BpHwGnssDebug",
   "linker_set_key" : "_ZN7android8hardware4gnss4V2_013BpHwGnssDebugC2ERKNS_2spINS0_7IBinderEEE",
   "parameters" :
   [
    {
     "is_this_ptr" : true,
     "referenced_type" : "type-1244"
    },
    {
     "referenced_type" : "type-43"
    }
   ],
   "return_type" : "type-22",
   "source_file" : "/out/soong/.intermediates/hardware/interfaces/gnss/2.0/android.hardware.gnss@2.0_genc++_headers/gen/android/hardware/gnss/2.0/BpHwGnssDebug.h"
  },
  {
   "function_name" : "android::hardware::gnss::V2_0::IGnssBatching::getService",
   "linker_set_key" : "_ZN7android8hardware4gnss4V2_013IGnssBatching10getServiceERKNSt3__112basic_stringIcNS4_11char_traitsIcEENS4_9allocatorIcEEEEb",
   "parameters" :
   [
    {
     "default_arg" : true,
     "referenced_type" : "type-1558"
    },
    {
     "default_arg" : true,
     "referenced_type" : "type-34"
    }
   ],
   "return_type" : "type-310",
   "source_file" : "/out/soong/.intermediates/hardware/interfaces/gnss/2.0/android.hardware.gnss@2.0_genc++_headers/gen/android/hardware/gnss/2.0/IGnssBatching.h"
  },
  {
   "function_name" : "android::hardware::gnss::V2_0::IGnssBatching::linkToDeath",
   "linker_set_key" : "_ZN7android8hardware4gnss4V2_013IGnssBatching11linkToDeathERKNS_2spINS0_20hidl_death_recipientEEEy",
   "parameters" :
   [
    {
     "is_this_ptr" : true,
     "referenced_type" : "type-311"
    },
    {
     "referenced_type" : "type-1550"
    },
    {
     "referenced_type" : "type-13"
    }
   ],
   "return_type" : "type-723",
   "source_file" : "/out/soong/.intermediates/hardware/interfaces/gnss/2.0/android.hardware.gnss@2.0_genc++_headers/gen/android/hardware/gnss/2.0/IGnssBatching.h"
  },
  {
   "function_name" : "android::hardware::gnss::V2_0::IGnssBatching::getDebugInfo",
   "linker_set_key" : "_ZN7android8hardware4gnss4V2_013IGnssBatching12getDebugInfoENSt3__18functionIFvRKNS_4hidl4base4V1_09DebugInfoEEEE",
   "parameters" :
   [
    {
     "is_this_ptr" : true,
     "referenced_type" : "type-311"
    },
    {
     "referenced_type" : "type-2790"
    }
   ],
   "return_type" : "type-920",
   "source_file" : "/out/soong/.intermediates/hardware/interfaces/gnss/2.0/android.hardware.gnss@2.0_genc++_headers/gen/android/hardware/gnss/2.0/IGnssBatching.h"
  },
  {
   "function_name" : "android::hardware::gnss::V2_0::IGnssBatching::getHashChain",
   "linker_set_key" : "_ZN7android8hardware4gnss4V2_013IGnssBatching12getHashChainENSt3__18functionIFvRKNS0_8hidl_vecINS0_10hidl_arrayIhLj32EJEEEEEEEE",
   "parameters" :
   [
    {
     "is_this_ptr" : true,
     "referenced_type" : "type-311"
    },
    {
     "referenced_type" : "type-2791"
    }
   ],
   "return_type" : "type-920",
   "source_file" : "/out/soong/.intermediates/hardware/interfaces/gnss/2.0/android.hardware.gnss@2.0_genc++_headers/gen/android/hardware/gnss/2.0/IGnssBatching.h"
  },
  {
   "function_name" : "android::hardware::gnss::V2_0::IGnssBatching::tryGetService",
   "linker_set_key" : "_ZN7android8hardware4gnss4V2_013IGnssBatching13tryGetServiceERKNSt3__112basic_stringIcNS4_11char_traitsIcEENS4_9allocatorIcEEEEb",
   "parameters" :
   [
    {
     "default_arg" : true,
     "referenced_type" : "type-1558"
    },
    {
     "default_arg" : true,
     "referenced_type" : "type-34"
    }
   ],
   "return_type" : "type-310",
   "source_file" : "/out/soong/.intermediates/hardware/interfaces/gnss/2.0/android.hardware.gnss@2.0_genc++_headers/gen/android/hardware/gnss/2.0/IGnssBatching.h"
  },
  {
   "function_name" : "android::hardware::gnss::V2_0::IGnssBatching::unlinkToDeath",
   "linker_set_key" : "_ZN7android8hardware4gnss4V2_013IGnssBatching13unlinkToDeathERKNS_2spINS0_20hidl_death_recipientEEE",
   "parameters" :
   [
    {
     "is_this_ptr" : true,
     "referenced_type" : "type-311"
    },
    {
     "referenced_type" : "type-1550"
    }
   ],
   "return_type" : "type-723",
   "source_file" : "/out/soong/.intermediates/hardware/interfaces/gnss/2.0/android.hardware.gnss@2.0_genc++_headers/gen/android/hardware/gnss/2.0/IGnssBatching.h"
  },
  {
   "function_name" : "android::hardware::gnss::V2_0::IGnssBatching::interfaceChain",
   "linker_set_key" : "_ZN7android8hardware4gnss4V2_013IGnssBatching14interfaceChainENSt3__18functionIFvRKNS0_8hidl_vecINS0_11hidl_stringEEEEEE",
   "parameters" :
   [
    {
     "is_this_ptr" : true,
     "referenced_type" : "type-311"
    },
    {
     "referenced_type" : "type-2792"
    }
   ],
   "return_type" : "type-920",
   "source_file" : "/out/soong/.intermediates/hardware/interfaces/gnss/2.0/android.hardware.gnss@2.0_genc++_headers/gen/android/hardware/gnss/2.0/IGnssBatching.h"
  },
  {
   "function_name" : "android::hardware::gnss::V2_0::IGnssBatching::registerAsService",
   "linker_set_key" : "_ZN7android8hardware4gnss4V2_013IGnssBatching17registerAsServiceERKNSt3__112basic_stringIcNS4_11char_traitsIcEENS4_9allocatorIcEEEE",
   "parameters" :
   [
    {
     "is_this_ptr" : true,
     "referenced_type" : "type-311"
    },
    {
     "default_arg" : true,
     "referenced_type" : "type-1558"
    }
   ],
   "return_type" : "type-20",
   "source_file" : "/out/soong/.intermediates/hardware/interfaces/gnss/2.0/android.hardware.gnss@2.0_genc++_headers/gen/android/hardware/gnss/2.0/IGnssBatching.h"
  },
  {
   "function_name" : "android::hardware::gnss::V2_0::IGnssBatching::interfaceDescriptor",
   "linker_set_key" : "_ZN7android8hardware4gnss4V2_013IGnssBatching19interfaceDescriptorENSt3__18functionIFvRKNS0_11hidl_stringEEEE",
   "parameters" :
   [
    {
     "is_this_ptr" : true,
     "referenced_type" : "type-311"
    },
    {
     "referenced_type" : "type-2793"
    }
   ],
   "return_type" : "type-920",
   "source_file" : "/out/soong/.intermediates/hardware/interfaces/gnss/2.0/android.hardware.gnss@2.0_genc++_headers/gen/android/hardware/gnss/2.0/IGnssBatching.h"
  },
  {
   "function_name" : "android::hardware::gnss::V2_0::IGnssBatching::notifySyspropsChanged",
   "linker_set_key" : "_ZN7android8hardware4gnss4V2_013IGnssBatching21notifySyspropsChangedEv",
   "parameters" :
   [
    {
     "is_this_ptr" : true,
     "referenced_type" : "type-311"
    }
   ],
   "return_type" : "type-920",
   "source_file" : "/out/soong/.intermediates/hardware/interfaces/gnss/2.0/android.hardware.gnss@2.0_genc++_headers/gen/android/hardware/gnss/2.0/IGnssBatching.h"
  },
  {
   "function_name" : "android::hardware::gnss::V2_0::IGnssBatching::setHALInstrumentation",
   "linker_set_key" : "_ZN7android8hardware4gnss4V2_013IGnssBatching21setHALInstrumentationEv",
   "parameters" :
   [
    {
     "is_this_ptr" : true,
     "referenced_type" : "type-311"
    }
   ],
   "return_type" : "type-920",
   "source_file" : "/out/soong/.intermediates/hardware/interfaces/gnss/2.0/android.hardware.gnss@2.0_genc++_headers/gen/android/hardware/gnss/2.0/IGnssBatching.h"
  },
  {
   "function_name" : "android::hardware::gnss::V2_0::IGnssBatching::registerForNotifications",
   "linker_set_key" : "_ZN7android8hardware4gnss4V2_013IGnssBatching24registerForNotificationsERKNSt3__112basic_stringIcNS4_11char_traitsIcEENS4_9allocatorIcEEEERKNS_2spINS_4hidl7manager4V1_020IServiceNotificationEEE",
   "parameters" :
   [
    {
     "referenced_type" : "type-1558"
    },
    {
     "referenced_type" : "type-2237"
    }
   ],
   "return_type" : "type-34",
   "source_file" : "/out/soong/.intermediates/hardware/interfaces/gnss/2.0/android.hardware.gnss@2.0_genc++_headers/gen/android/hardware/gnss/2.0/IGnssBatching.h"
  },
  {
   "function_name" : "android::hardware::gnss::V2_0::IGnssBatching::ping",
   "linker_set_key" : "_ZN7android8hardware4gnss4V2_013IGnssBatching4pingEv",
   "parameters" :
   [
    {
     "is_this_ptr" : true,
     "referenced_type" : "type-311"
    }
   ],
   "return_type" : "type-920",
   "source_file" : "/out/soong/.intermediates/hardware/interfaces/gnss/2.0/android.hardware.gnss@2.0_genc++_headers/gen/android/hardware/gnss/2.0/IGnssBatching.h"
  },
  {
   "function_name" : "android::hardware::gnss::V2_0::IGnssBatching::debug",
   "linker_set_key" : "_ZN7android8hardware4gnss4V2_013IGnssBatching5debugERKNS0_11hidl_handleERKNS0_8hidl_vecINS0_11hidl_stringEEE",
   "parameters" :
   [
    {
     "is_this_ptr" : true,
     "referenced_type" : "type-311"
    },
    {
     "referenced_type" : "type-1777"
    },
    {
     "referenced_type" : "type-2236"
    }
   ],
   "return_type" : "type-920",
   "source_file" : "/out/soong/.intermediates/hardware/interfaces/gnss/2.0/android.hardware.gnss@2.0_genc++_headers/gen/android/hardware/gnss/2.0/IGnssBatching.h"
  },
  {
   "function_name" : "android::hardware::gnss::V2_0::IGnssBatching::castFrom",
   "linker_set_key" : "_ZN7android8hardware4gnss4V2_013IGnssBatching8castFromERKNS_2spINS1_4V1_013IGnssBatchingEEEb",
   "parameters" :
   [
    {
     "referenced_type" : "type-1029"
    },
    {
     "default_arg" : true,
     "referenced_type" : "type-34"
    }
   ],
   "return_type" : "type-1369",
   "source_file" : "/out/soong/.intermediates/hardware/interfaces/gnss/2.0/android.hardware.gnss@2.0_genc++_headers/gen/android/hardware/gnss/2.0/IGnssBatching.h"
  },
  {
   "function_name" : "android::hardware::gnss::V2_0::IGnssBatching::castFrom",
   "linker_set_key" : "_ZN7android8hardware4gnss4V2_013IGnssBatching8castFromERKNS_2spINS_4hidl4base4V1_05IBaseEEEb",
   "parameters" :
   [
    {
     "referenced_type" : "type-2325"
    },
    {
     "default_arg" : true,
     "referenced_type" : "type-34"
    }
   ],
   "return_type" : "type-1369",
   "source_file" : "/out/soong/.intermediates/hardware/interfaces/gnss/2.0/android.hardware.gnss@2.0_genc++_headers/gen/android/hardware/gnss/2.0/IGnssBatching.h"
  },
  {
   "function_name" : "android::hardware::gnss::V2_0::IGnssBatching::castFrom",
   "linker_set_key" : "_ZN7android8hardware4gnss4V2_013IGnssBatching8castFromERKNS_2spIS3_EEb",
   "parameters" :
   [
    {
     "referenced_type" : "type-1050"
    },
    {
     "default_arg" : true,
     "referenced_type" : "type-34"
    }
   ],
   "return_type" : "type-1369",
   "source_file" : "/out/soong/.intermediates/hardware/interfaces/gnss/2.0/android.hardware.gnss@2.0_genc++_headers/gen/android/hardware/gnss/2.0/IGnssBatching.h"
  },
  {
   "function_name" : "android::hardware::gnss::V2_0::IGnssCallback::getService",
   "linker_set_key" : "_ZN7android8hardware4gnss4V2_013IGnssCallback10getServiceERKNSt3__112basic_stringIcNS4_11char_traitsIcEENS4_9allocatorIcEEEEb",
   "parameters" :
   [
    {
     "default_arg" : true,
     "referenced_type" : "type-1745"
    },
    {
     "default_arg" : true,
     "referenced_type" : "type-34"
    }
   ],
   "return_type" : "type-313",
   "source_file" : "/out/soong/.intermediates/hardware/interfaces/gnss/2.0/android.hardware.gnss@2.0_genc++_headers/gen/android/hardware/gnss/2.0/IGnssCallback.h"
  },
  {
   "function_name" : "android::hardware::gnss::V2_0::IGnssCallback::linkToDeath",
   "linker_set_key" : "_ZN7android8hardware4gnss4V2_013IGnssCallback11linkToDeathERKNS_2spINS0_20hidl_death_recipientEEEy",
   "parameters" :
   [
    {
     "is_this_ptr" : true,
     "referenced_type" : "type-314"
    },
    {
     "referenced_type" : "type-1550"
    },
    {
     "referenced_type" : "type-13"
    }
   ],
   "return_type" : "type-723",
   "source_file" : "/out/soong/.intermediates/hardware/interfaces/gnss/2.0/android.hardware.gnss@2.0_genc++_headers/gen/android/hardware/gnss/2.0/IGnssCallback.h"
  },
  {
   "function_name" : "android::hardware::gnss::V2_0::IGnssCallback::getDebugInfo",
   "linker_set_key" : "_ZN7android8hardware4gnss4V2_013IGnssCallback12getDebugInfoENSt3__18functionIFvRKNS_4hidl4base4V1_09DebugInfoEEEE",
   "parameters" :
   [
    {
     "is_this_ptr" : true,
     "referenced_type" : "type-314"
    },
    {
     "referenced_type" : "type-2794"
    }
   ],
   "return_type" : "type-920",
   "source_file" : "/out/soong/.intermediates/hardware/interfaces/gnss/2.0/android.hardware.gnss@2.0_genc++_headers/gen/android/hardware/gnss/2.0/IGnssCallback.h"
  },
  {
   "function_name" : "android::hardware::gnss::V2_0::IGnssCallback::getHashChain",
   "linker_set_key" : "_ZN7android8hardware4gnss4V2_013IGnssCallback12getHashChainENSt3__18functionIFvRKNS0_8hidl_vecINS0_10hidl_arrayIhLj32EJEEEEEEEE",
   "parameters" :
   [
    {
     "is_this_ptr" : true,
     "referenced_type" : "type-314"
    },
    {
     "referenced_type" : "type-2795"
    }
   ],
   "return_type" : "type-920",
   "source_file" : "/out/soong/.intermediates/hardware/interfaces/gnss/2.0/android.hardware.gnss@2.0_genc++_headers/gen/android/hardware/gnss/2.0/IGnssCallback.h"
  },
  {
   "function_name" : "android::hardware::gnss::V2_0::IGnssCallback::tryGetService",
   "linker_set_key" : "_ZN7android8hardware4gnss4V2_013IGnssCallback13tryGetServiceERKNSt3__112basic_stringIcNS4_11char_traitsIcEENS4_9allocatorIcEEEEb",
   "parameters" :
   [
    {
     "default_arg" : true,
     "referenced_type" : "type-1745"
    },
    {
     "default_arg" : true,
     "referenced_type" : "type-34"
    }
   ],
   "return_type" : "type-313",
   "source_file" : "/out/soong/.intermediates/hardware/interfaces/gnss/2.0/android.hardware.gnss@2.0_genc++_headers/gen/android/hardware/gnss/2.0/IGnssCallback.h"
  },
  {
   "function_name" : "android::hardware::gnss::V2_0::IGnssCallback::unlinkToDeath",
   "linker_set_key" : "_ZN7android8hardware4gnss4V2_013IGnssCallback13unlinkToDeathERKNS_2spINS0_20hidl_death_recipientEEE",
   "parameters" :
   [
    {
     "is_this_ptr" : true,
     "referenced_type" : "type-314"
    },
    {
     "referenced_type" : "type-1550"
    }
   ],
   "return_type" : "type-723",
   "source_file" : "/out/soong/.intermediates/hardware/interfaces/gnss/2.0/android.hardware.gnss@2.0_genc++_headers/gen/android/hardware/gnss/2.0/IGnssCallback.h"
  },
  {
   "function_name" : "android::hardware::gnss::V2_0::IGnssCallback::interfaceChain",
   "linker_set_key" : "_ZN7android8hardware4gnss4V2_013IGnssCallback14interfaceChainENSt3__18functionIFvRKNS0_8hidl_vecINS0_11hidl_stringEEEEEE",
   "parameters" :
   [
    {
     "is_this_ptr" : true,
     "referenced_type" : "type-314"
    },
    {
     "referenced_type" : "type-2796"
    }
   ],
   "return_type" : "type-920",
   "source_file" : "/out/soong/.intermediates/hardware/interfaces/gnss/2.0/android.hardware.gnss@2.0_genc++_headers/gen/android/hardware/gnss/2.0/IGnssCallback.h"
  },
  {
   "function_name" : "android::hardware::gnss::V2_0::IGnssCallback::registerAsService",
   "linker_set_key" : "_ZN7android8hardware4gnss4V2_013IGnssCallback17registerAsServiceERKNSt3__112basic_stringIcNS4_11char_traitsIcEENS4_9allocatorIcEEEE",
   "parameters" :
   [
    {
     "is_this_ptr" : true,
     "referenced_type" : "type-314"
    },
    {
     "default_arg" : true,
     "referenced_type" : "type-1745"
    }
   ],
   "return_type" : "type-20",
   "source_file" : "/out/soong/.intermediates/hardware/interfaces/gnss/2.0/android.hardware.gnss@2.0_genc++_headers/gen/android/hardware/gnss/2.0/IGnssCallback.h"
  },
  {
   "function_name" : "android::hardware::gnss::V2_0::IGnssCallback::interfaceDescriptor",
   "linker_set_key" : "_ZN7android8hardware4gnss4V2_013IGnssCallback19interfaceDescriptorENSt3__18functionIFvRKNS0_11hidl_stringEEEE",
   "parameters" :
   [
    {
     "is_this_ptr" : true,
     "referenced_type" : "type-314"
    },
    {
     "referenced_type" : "type-2797"
    }
   ],
   "return_type" : "type-920",
   "source_file" : "/out/soong/.intermediates/hardware/interfaces/gnss/2.0/android.hardware.gnss@2.0_genc++_headers/gen/android/hardware/gnss/2.0/IGnssCallback.h"
  },
  {
   "function_name" : "android::hardware::gnss::V2_0::IGnssCallback::notifySyspropsChanged",
   "linker_set_key" : "_ZN7android8hardware4gnss4V2_013IGnssCallback21notifySyspropsChangedEv",
   "parameters" :
   [
    {
     "is_this_ptr" : true,
     "referenced_type" : "type-314"
    }
   ],
   "return_type" : "type-920",
   "source_file" : "/out/soong/.intermediates/hardware/interfaces/gnss/2.0/android.hardware.gnss@2.0_genc++_headers/gen/android/hardware/gnss/2.0/IGnssCallback.h"
  },
  {
   "function_name" : "android::hardware::gnss::V2_0::IGnssCallback::setHALInstrumentation",
   "linker_set_key" : "_ZN7android8hardware4gnss4V2_013IGnssCallback21setHALInstrumentationEv",
   "parameters" :
   [
    {
     "is_this_ptr" : true,
     "referenced_type" : "type-314"
    }
   ],
   "return_type" : "type-920",
   "source_file" : "/out/soong/.intermediates/hardware/interfaces/gnss/2.0/android.hardware.gnss@2.0_genc++_headers/gen/android/hardware/gnss/2.0/IGnssCallback.h"
  },
  {
   "function_name" : "android::hardware::gnss::V2_0::IGnssCallback::registerForNotifications",
   "linker_set_key" : "_ZN7android8hardware4gnss4V2_013IGnssCallback24registerForNotificationsERKNSt3__112basic_stringIcNS4_11char_traitsIcEENS4_9allocatorIcEEEERKNS_2spINS_4hidl7manager4V1_020IServiceNotificationEEE",
   "parameters" :
   [
    {
     "referenced_type" : "type-1745"
    },
    {
     "referenced_type" : "type-2237"
    }
   ],
   "return_type" : "type-34",
   "source_file" : "/out/soong/.intermediates/hardware/interfaces/gnss/2.0/android.hardware.gnss@2.0_genc++_headers/gen/android/hardware/gnss/2.0/IGnssCallback.h"
  },
  {
   "function_name" : "android::hardware::gnss::V2_0::IGnssCallback::ping",
   "linker_set_key" : "_ZN7android8hardware4gnss4V2_013IGnssCallback4pingEv",
   "parameters" :
   [
    {
     "is_this_ptr" : true,
     "referenced_type" : "type-314"
    }
   ],
   "return_type" : "type-920",
   "source_file" : "/out/soong/.intermediates/hardware/interfaces/gnss/2.0/android.hardware.gnss@2.0_genc++_headers/gen/android/hardware/gnss/2.0/IGnssCallback.h"
  },
  {
   "function_name" : "android::hardware::gnss::V2_0::IGnssCallback::debug",
   "linker_set_key" : "_ZN7android8hardware4gnss4V2_013IGnssCallback5debugERKNS0_11hidl_handleERKNS0_8hidl_vecINS0_11hidl_stringEEE",
   "parameters" :
   [
    {
     "is_this_ptr" : true,
     "referenced_type" : "type-314"
    },
    {
     "referenced_type" : "type-1777"
    },
    {
     "referenced_type" : "type-2236"
    }
   ],
   "return_type" : "type-920",
   "source_file" : "/out/soong/.intermediates/hardware/interfaces/gnss/2.0/android.hardware.gnss@2.0_genc++_headers/gen/android/hardware/gnss/2.0/IGnssCallback.h"
  },
  {
   "function_name" : "android::hardware::gnss::V2_0::IGnssCallback::castFrom",
   "linker_set_key" : "_ZN7android8hardware4gnss4V2_013IGnssCallback8castFromERKNS_2spINS1_4V1_013IGnssCallbackEEEb",
   "parameters" :
   [
    {
     "referenced_type" : "type-1011"
    },
    {
     "default_arg" : true,
     "referenced_type" : "type-34"
    }
   ],
   "return_type" : "type-1700",
   "source_file" : "/out/soong/.intermediates/hardware/interfaces/gnss/2.0/android.hardware.gnss@2.0_genc++_headers/gen/android/hardware/gnss/2.0/IGnssCallback.h"
  },
  {
   "function_name" : "android::hardware::gnss::V2_0::IGnssCallback::castFrom",
   "linker_set_key" : "_ZN7android8hardware4gnss4V2_013IGnssCallback8castFromERKNS_2spINS1_4V1_113IGnssCallbackEEEb",
   "parameters" :
   [
    {
     "referenced_type" : "type-1031"
    },
    {
     "default_arg" : true,
     "referenced_type" : "type-34"
    }
   ],
   "return_type" : "type-1700",
   "source_file" : "/out/soong/.intermediates/hardware/interfaces/gnss/2.0/android.hardware.gnss@2.0_genc++_headers/gen/android/hardware/gnss/2.0/IGnssCallback.h"
  },
  {
   "function_name" : "android::hardware::gnss::V2_0::IGnssCallback::castFrom",
   "linker_set_key" : "_ZN7android8hardware4gnss4V2_013IGnssCallback8castFromERKNS_2spINS_4hidl4base4V1_05IBaseEEEb",
   "parameters" :
   [
    {
     "referenced_type" : "type-2325"
    },
    {
     "default_arg" : true,
     "referenced_type" : "type-34"
    }
   ],
   "return_type" : "type-1700",
   "source_file" : "/out/soong/.intermediates/hardware/interfaces/gnss/2.0/android.hardware.gnss@2.0_genc++_headers/gen/android/hardware/gnss/2.0/IGnssCallback.h"
  },
  {
   "function_name" : "android::hardware::gnss::V2_0::IGnssCallback::castFrom",
   "linker_set_key" : "_ZN7android8hardware4gnss4V2_013IGnssCallback8castFromERKNS_2spIS3_EEb",
   "parameters" :
   [
    {
     "referenced_type" : "type-1037"
    },
    {
     "default_arg" : true,
     "referenced_type" : "type-34"
    }
   ],
   "return_type" : "type-1700",
   "source_file" : "/out/soong/.intermediates/hardware/interfaces/gnss/2.0/android.hardware.gnss@2.0_genc++_headers/gen/android/hardware/gnss/2.0/IGnssCallback.h"
  },
  {
   "access" : "private",
   "function_name" : "android::hardware::gnss::V2_0::BsGnssBatching::addOnewayTask",
   "linker_set_key" : "_ZN7android8hardware4gnss4V2_014BsGnssBatching13addOnewayTaskENSt3__18functionIFvvEEE",
   "parameters" :
   [
    {
     "is_this_ptr" : true,
     "referenced_type" : "type-1509"
    },
    {
     "referenced_type" : "type-2800"
    }
   ],
   "return_type" : "type-920",
   "source_file" : "/out/soong/.intermediates/hardware/interfaces/gnss/2.0/android.hardware.gnss@2.0_genc++_headers/gen/android/hardware/gnss/2.0/BsGnssBatching.h"
  },
  {
   "function_name" : "android::hardware::gnss::V2_0::BsGnssBatching::BsGnssBatching",
   "linker_set_key" : "_ZN7android8hardware4gnss4V2_014BsGnssBatchingC1ENS_2spINS2_13IGnssBatchingEEE",
   "parameters" :
   [
    {
     "is_this_ptr" : true,
     "referenced_type" : "type-1509"
    },
    {
     "referenced_type" : "type-1049"
    }
   ],
   "return_type" : "type-22",
   "source_file" : "/out/soong/.intermediates/hardware/interfaces/gnss/2.0/android.hardware.gnss@2.0_genc++_headers/gen/android/hardware/gnss/2.0/BsGnssBatching.h"
  },
  {
   "function_name" : "android::hardware::gnss::V2_0::BsGnssBatching::BsGnssBatching",
   "linker_set_key" : "_ZN7android8hardware4gnss4V2_014BsGnssBatchingC2ENS_2spINS2_13IGnssBatchingEEE",
   "parameters" :
   [
    {
     "is_this_ptr" : true,
     "referenced_type" : "type-1509"
    },
    {
     "referenced_type" : "type-1049"
    }
   ],
   "return_type" : "type-22",
   "source_file" : "/out/soong/.intermediates/hardware/interfaces/gnss/2.0/android.hardware.gnss@2.0_genc++_headers/gen/android/hardware/gnss/2.0/BsGnssBatching.h"
  },
  {
   "access" : "private",
   "function_name" : "android::hardware::gnss::V2_0::BsGnssCallback::addOnewayTask",
   "linker_set_key" : "_ZN7android8hardware4gnss4V2_014BsGnssCallback13addOnewayTaskENSt3__18functionIFvvEEE",
   "parameters" :
   [
    {
     "is_this_ptr" : true,
     "referenced_type" : "type-1696"
    },
    {
     "referenced_type" : "type-2805"
    }
   ],
   "return_type" : "type-920",
   "source_file" : "/out/soong/.intermediates/hardware/interfaces/gnss/2.0/android.hardware.gnss@2.0_genc++_headers/gen/android/hardware/gnss/2.0/BsGnssCallback.h"
  },
  {
   "function_name" : "android::hardware::gnss::V2_0::BsGnssCallback::BsGnssCallback",
   "linker_set_key" : "_ZN7android8hardware4gnss4V2_014BsGnssCallbackC1ENS_2spINS2_13IGnssCallbackEEE",
   "parameters" :
   [
    {
     "is_this_ptr" : true,
     "referenced_type" : "type-1696"
    },
    {
     "referenced_type" : "type-1036"
    }
   ],
   "return_type" : "type-22",
   "source_file" : "/out/soong/.intermediates/hardware/interfaces/gnss/2.0/android.hardware.gnss@2.0_genc++_headers/gen/android/hardware/gnss/2.0/BsGnssCallback.h"
  },
  {
   "function_name" : "android::hardware::gnss::V2_0::BsGnssCallback::BsGnssCallback",
   "linker_set_key" : "_ZN7android8hardware4gnss4V2_014BsGnssCallbackC2ENS_2spINS2_13IGnssCallbackEEE",
   "parameters" :
   [
    {
     "is_this_ptr" : true,
     "referenced_type" : "type-1696"
    },
    {
     "referenced_type" : "type-1036"
    }
   ],
   "return_type" : "type-22",
   "source_file" : "/out/soong/.intermediates/hardware/interfaces/gnss/2.0/android.hardware.gnss@2.0_genc++_headers/gen/android/hardware/gnss/2.0/BsGnssCallback.h"
  },
  {
   "function_name" : "android::hardware::gnss::V2_0::IAGnssCallback::getService",
   "linker_set_key" : "_ZN7android8hardware4gnss4V2_014IAGnssCallback10getServiceERKNSt3__112basic_stringIcNS4_11char_traitsIcEENS4_9allocatorIcEEEEb",
   "parameters" :
   [
    {
     "default_arg" : true,
     "referenced_type" : "type-2703"
    },
    {
     "default_arg" : true,
     "referenced_type" : "type-34"
    }
   ],
   "return_type" : "type-374",
   "source_file" : "/out/soong/.intermediates/hardware/interfaces/gnss/2.0/android.hardware.gnss@2.0_genc++_headers/gen/android/hardware/gnss/2.0/IAGnssCallback.h"
  },
  {
   "function_name" : "android::hardware::gnss::V2_0::IAGnssCallback::linkToDeath",
   "linker_set_key" : "_ZN7android8hardware4gnss4V2_014IAGnssCallback11linkToDeathERKNS_2spINS0_20hidl_death_recipientEEEy",
   "parameters" :
   [
    {
     "is_this_ptr" : true,
     "referenced_type" : "type-375"
    },
    {
     "referenced_type" : "type-1550"
    },
    {
     "referenced_type" : "type-13"
    }
   ],
   "return_type" : "type-723",
   "source_file" : "/out/soong/.intermediates/hardware/interfaces/gnss/2.0/android.hardware.gnss@2.0_genc++_headers/gen/android/hardware/gnss/2.0/IAGnssCallback.h"
  },
  {
   "function_name" : "android::hardware::gnss::V2_0::IAGnssCallback::getDebugInfo",
   "linker_set_key" : "_ZN7android8hardware4gnss4V2_014IAGnssCallback12getDebugInfoENSt3__18functionIFvRKNS_4hidl4base4V1_09DebugInfoEEEE",
   "parameters" :
   [
    {
     "is_this_ptr" : true,
     "referenced_type" : "type-375"
    },
    {
     "referenced_type" : "type-2808"
    }
   ],
   "return_type" : "type-920",
   "source_file" : "/out/soong/.intermediates/hardware/interfaces/gnss/2.0/android.hardware.gnss@2.0_genc++_headers/gen/android/hardware/gnss/2.0/IAGnssCallback.h"
  },
  {
   "function_name" : "android::hardware::gnss::V2_0::IAGnssCallback::getHashChain",
   "linker_set_key" : "_ZN7android8hardware4gnss4V2_014IAGnssCallback12getHashChainENSt3__18functionIFvRKNS0_8hidl_vecINS0_10hidl_arrayIhLj32EJEEEEEEEE",
   "parameters" :
   [
    {
     "is_this_ptr" : true,
     "referenced_type" : "type-375"
    },
    {
     "referenced_type" : "type-2809"
    }
   ],
   "return_type" : "type-920",
   "source_file" : "/out/soong/.intermediates/hardware/interfaces/gnss/2.0/android.hardware.gnss@2.0_genc++_headers/gen/android/hardware/gnss/2.0/IAGnssCallback.h"
  },
  {
   "function_name" : "android::hardware::gnss::V2_0::IAGnssCallback::tryGetService",
   "linker_set_key" : "_ZN7android8hardware4gnss4V2_014IAGnssCallback13tryGetServiceERKNSt3__112basic_stringIcNS4_11char_traitsIcEENS4_9allocatorIcEEEEb",
   "parameters" :
   [
    {
     "default_arg" : true,
     "referenced_type" : "type-2703"
    },
    {
     "default_arg" : true,
     "referenced_type" : "type-34"
    }
   ],
   "return_type" : "type-374",
   "source_file" : "/out/soong/.intermediates/hardware/interfaces/gnss/2.0/android.hardware.gnss@2.0_genc++_headers/gen/android/hardware/gnss/2.0/IAGnssCallback.h"
  },
  {
   "function_name" : "android::hardware::gnss::V2_0::IAGnssCallback::unlinkToDeath",
   "linker_set_key" : "_ZN7android8hardware4gnss4V2_014IAGnssCallback13unlinkToDeathERKNS_2spINS0_20hidl_death_recipientEEE",
   "parameters" :
   [
    {
     "is_this_ptr" : true,
     "referenced_type" : "type-375"
    },
    {
     "referenced_type" : "type-1550"
    }
   ],
   "return_type" : "type-723",
   "source_file" : "/out/soong/.intermediates/hardware/interfaces/gnss/2.0/android.hardware.gnss@2.0_genc++_headers/gen/android/hardware/gnss/2.0/IAGnssCallback.h"
  },
  {
   "function_name" : "android::hardware::gnss::V2_0::IAGnssCallback::interfaceChain",
   "linker_set_key" : "_ZN7android8hardware4gnss4V2_014IAGnssCallback14interfaceChainENSt3__18functionIFvRKNS0_8hidl_vecINS0_11hidl_stringEEEEEE",
   "parameters" :
   [
    {
     "is_this_ptr" : true,
     "referenced_type" : "type-375"
    },
    {
     "referenced_type" : "type-2810"
    }
   ],
   "return_type" : "type-920",
   "source_file" : "/out/soong/.intermediates/hardware/interfaces/gnss/2.0/android.hardware.gnss@2.0_genc++_headers/gen/android/hardware/gnss/2.0/IAGnssCallback.h"
  },
  {
   "function_name" : "android::hardware::gnss::V2_0::IAGnssCallback::registerAsService",
   "linker_set_key" : "_ZN7android8hardware4gnss4V2_014IAGnssCallback17registerAsServiceERKNSt3__112basic_stringIcNS4_11char_traitsIcEENS4_9allocatorIcEEEE",
   "parameters" :
   [
    {
     "is_this_ptr" : true,
     "referenced_type" : "type-375"
    },
    {
     "default_arg" : true,
     "referenced_type" : "type-2703"
    }
   ],
   "return_type" : "type-20",
   "source_file" : "/out/soong/.intermediates/hardware/interfaces/gnss/2.0/android.hardware.gnss@2.0_genc++_headers/gen/android/hardware/gnss/2.0/IAGnssCallback.h"
  },
  {
   "function_name" : "android::hardware::gnss::V2_0::IAGnssCallback::interfaceDescriptor",
   "linker_set_key" : "_ZN7android8hardware4gnss4V2_014IAGnssCallback19interfaceDescriptorENSt3__18functionIFvRKNS0_11hidl_stringEEEE",
   "parameters" :
   [
    {
     "is_this_ptr" : true,
     "referenced_type" : "type-375"
    },
    {
     "referenced_type" : "type-2811"
    }
   ],
   "return_type" : "type-920",
   "source_file" : "/out/soong/.intermediates/hardware/interfaces/gnss/2.0/android.hardware.gnss@2.0_genc++_headers/gen/android/hardware/gnss/2.0/IAGnssCallback.h"
  },
  {
   "function_name" : "android::hardware::gnss::V2_0::IAGnssCallback::notifySyspropsChanged",
   "linker_set_key" : "_ZN7android8hardware4gnss4V2_014IAGnssCallback21notifySyspropsChangedEv",
   "parameters" :
   [
    {
     "is_this_ptr" : true,
     "referenced_type" : "type-375"
    }
   ],
   "return_type" : "type-920",
   "source_file" : "/out/soong/.intermediates/hardware/interfaces/gnss/2.0/android.hardware.gnss@2.0_genc++_headers/gen/android/hardware/gnss/2.0/IAGnssCallback.h"
  },
  {
   "function_name" : "android::hardware::gnss::V2_0::IAGnssCallback::setHALInstrumentation",
   "linker_set_key" : "_ZN7android8hardware4gnss4V2_014IAGnssCallback21setHALInstrumentationEv",
   "parameters" :
   [
    {
     "is_this_ptr" : true,
     "referenced_type" : "type-375"
    }
   ],
   "return_type" : "type-920",
   "source_file" : "/out/soong/.intermediates/hardware/interfaces/gnss/2.0/android.hardware.gnss@2.0_genc++_headers/gen/android/hardware/gnss/2.0/IAGnssCallback.h"
  },
  {
   "function_name" : "android::hardware::gnss::V2_0::IAGnssCallback::registerForNotifications",
   "linker_set_key" : "_ZN7android8hardware4gnss4V2_014IAGnssCallback24registerForNotificationsERKNSt3__112basic_stringIcNS4_11char_traitsIcEENS4_9allocatorIcEEEERKNS_2spINS_4hidl7manager4V1_020IServiceNotificationEEE",
   "parameters" :
   [
    {
     "referenced_type" : "type-2703"
    },
    {
     "referenced_type" : "type-2237"
    }
   ],
   "return_type" : "type-34",
   "source_file" : "/out/soong/.intermediates/hardware/interfaces/gnss/2.0/android.hardware.gnss@2.0_genc++_headers/gen/android/hardware/gnss/2.0/IAGnssCallback.h"
  },
  {
   "function_name" : "android::hardware::gnss::V2_0::IAGnssCallback::ping",
   "linker_set_key" : "_ZN7android8hardware4gnss4V2_014IAGnssCallback4pingEv",
   "parameters" :
   [
    {
     "is_this_ptr" : true,
     "referenced_type" : "type-375"
    }
   ],
   "return_type" : "type-920",
   "source_file" : "/out/soong/.intermediates/hardware/interfaces/gnss/2.0/android.hardware.gnss@2.0_genc++_headers/gen/android/hardware/gnss/2.0/IAGnssCallback.h"
  },
  {
   "function_name" : "android::hardware::gnss::V2_0::IAGnssCallback::debug",
   "linker_set_key" : "_ZN7android8hardware4gnss4V2_014IAGnssCallback5debugERKNS0_11hidl_handleERKNS0_8hidl_vecINS0_11hidl_stringEEE",
   "parameters" :
   [
    {
     "is_this_ptr" : true,
     "referenced_type" : "type-375"
    },
    {
     "referenced_type" : "type-1777"
    },
    {
     "referenced_type" : "type-2236"
    }
   ],
   "return_type" : "type-920",
   "source_file" : "/out/soong/.intermediates/hardware/interfaces/gnss/2.0/android.hardware.gnss@2.0_genc++_headers/gen/android/hardware/gnss/2.0/IAGnssCallback.h"
  },
  {
   "function_name" : "android::hardware::gnss::V2_0::IAGnssCallback::castFrom",
   "linker_set_key" : "_ZN7android8hardware4gnss4V2_014IAGnssCallback8castFromERKNS_2spINS_4hidl4base4V1_05IBaseEEEb",
   "parameters" :
   [
    {
     "referenced_type" : "type-2325"
    },
    {
     "default_arg" : true,
     "referenced_type" : "type-34"
    }
   ],
   "return_type" : "type-2482",
   "source_file" : "/out/soong/.intermediates/hardware/interfaces/gnss/2.0/android.hardware.gnss@2.0_genc++_headers/gen/android/hardware/gnss/2.0/IAGnssCallback.h"
  },
  {
   "function_name" : "android::hardware::gnss::V2_0::IAGnssCallback::castFrom",
   "linker_set_key" : "_ZN7android8hardware4gnss4V2_014IAGnssCallback8castFromERKNS_2spIS3_EEb",
   "parameters" :
   [
    {
     "referenced_type" : "type-2730"
    },
    {
     "default_arg" : true,
     "referenced_type" : "type-34"
    }
   ],
   "return_type" : "type-2482",
   "source_file" : "/out/soong/.intermediates/hardware/interfaces/gnss/2.0/android.hardware.gnss@2.0_genc++_headers/gen/android/hardware/gnss/2.0/IAGnssCallback.h"
  },
  {
   "access" : "private",
   "function_name" : "android::hardware::gnss::V2_0::BsAGnssCallback::addOnewayTask",
   "linker_set_key" : "_ZN7android8hardware4gnss4V2_015BsAGnssCallback13addOnewayTaskENSt3__18functionIFvvEEE",
   "parameters" :
   [
    {
     "is_this_ptr" : true,
     "referenced_type" : "type-2392"
    },
    {
     "referenced_type" : "type-2814"
    }
   ],
   "return_type" : "type-920",
   "source_file" : "/out/soong/.intermediates/hardware/interfaces/gnss/2.0/android.hardware.gnss@2.0_genc++_headers/gen/android/hardware/gnss/2.0/BsAGnssCallback.h"
  },
  {
   "function_name" : "android::hardware::gnss::V2_0::BsAGnssCallback::BsAGnssCallback",
   "linker_set_key" : "_ZN7android8hardware4gnss4V2_015BsAGnssCallbackC1ENS_2spINS2_14IAGnssCallbackEEE",
   "parameters" :
   [
    {
     "is_this_ptr" : true,
     "referenced_type" : "type-2392"
    },
    {
     "referenced_type" : "type-478"
    }
   ],
   "return_type" : "type-22",
   "source_file" : "/out/soong/.intermediates/hardware/interfaces/gnss/2.0/android.hardware.gnss@2.0_genc++_headers/gen/android/hardware/gnss/2.0/BsAGnssCallback.h"
  },
  {
   "function_name" : "android::hardware::gnss::V2_0::BsAGnssCallback::BsAGnssCallback",
   "linker_set_key" : "_ZN7android8hardware4gnss4V2_015BsAGnssCallbackC2ENS_2spINS2_14IAGnssCallbackEEE",
   "parameters" :
   [
    {
     "is_this_ptr" : true,
     "referenced_type" : "type-2392"
    },
    {
     "referenced_type" : "type-478"
    }
   ],
   "return_type" : "type-22",
   "source_file" : "/out/soong/.intermediates/hardware/interfaces/gnss/2.0/android.hardware.gnss@2.0_genc++_headers/gen/android/hardware/gnss/2.0/BsAGnssCallback.h"
  },
  {
   "function_name" : "android::hardware::gnss::V2_0::BnHwGnssBatching::onTransact",
   "linker_set_key" : "_ZN7android8hardware4gnss4V2_016BnHwGnssBatching10onTransactEjRKNS0_6ParcelEPS4_jNSt3__18functionIFvRS4_EEE",
   "parameters" :
   [
    {
     "is_this_ptr" : true,
     "referenced_type" : "type-944"
    },
    {
     "referenced_type" : "type-2"
    },
    {
     "referenced_type" : "type-1881"
    },
    {
     "referenced_type" : "type-1852"
    },
    {
     "default_arg" : true,
     "referenced_type" : "type-2"
    },
    {
     "default_arg" : true,
     "referenced_type" : "type-2817"
    }
   ],
   "return_type" : "type-20",
   "source_file" : "/out/soong/.intermediates/hardware/interfaces/gnss/2.0/android.hardware.gnss@2.0_genc++_headers/gen/android/hardware/gnss/2.0/BnHwGnssBatching.h"
  },
  {
   "access" : "private",
   "function_name" : "android::hardware::gnss::V2_0::BnHwGnssBatching::getDebugInfo",
   "linker_set_key" : "_ZN7android8hardware4gnss4V2_016BnHwGnssBatching12getDebugInfoENSt3__18functionIFvRKNS_4hidl4base4V1_09DebugInfoEEEE",
   "parameters" :
   [
    {
     "is_this_ptr" : true,
     "referenced_type" : "type-944"
    },
    {
     "referenced_type" : "type-2818"
    }
   ],
   "return_type" : "type-920",
   "source_file" : "/out/soong/.intermediates/hardware/interfaces/gnss/2.0/android.hardware.gnss@2.0_genc++_headers/gen/android/hardware/gnss/2.0/BnHwGnssBatching.h"
  },
  {
   "function_name" : "android::hardware::gnss::V2_0::BnHwGnssBatching::_hidl_init_2_0",
   "linker_set_key" : "_ZN7android8hardware4gnss4V2_016BnHwGnssBatching14_hidl_init_2_0EPNS_4hidl4base4V1_08BnHwBaseERKNS0_6ParcelEPS9_NSt3__18functionIFvRS9_EEE",
   "parameters" :
   [
    {
     "referenced_type" : "type-1882"
    },
    {
     "referenced_type" : "type-1881"
    },
    {
     "referenced_type" : "type-1852"
    },
    {
     "referenced_type" : "type-2819"
    }
   ],
   "return_type" : "type-20",
   "source_file" : "/out/soong/.intermediates/hardware/interfaces/gnss/2.0/android.hardware.gnss@2.0_genc++_headers/gen/android/hardware/gnss/2.0/BnHwGnssBatching.h"
  },
  {
   "access" : "private",
   "function_name" : "android::hardware::gnss::V2_0::BnHwGnssBatching::ping",
   "linker_set_key" : "_ZN7android8hardware4gnss4V2_016BnHwGnssBatching4pingEv",
   "parameters" :
   [
    {
     "is_this_ptr" : true,
     "referenced_type" : "type-944"
    }
   ],
   "return_type" : "type-920",
   "source_file" : "/out/soong/.intermediates/hardware/interfaces/gnss/2.0/android.hardware.gnss@2.0_genc++_headers/gen/android/hardware/gnss/2.0/BnHwGnssBatching.h"
  },
  {
   "function_name" : "android::hardware::gnss::V2_0::BnHwGnssBatching::BnHwGnssBatching",
   "linker_set_key" : "_ZN7android8hardware4gnss4V2_016BnHwGnssBatchingC1ERKNS_2spINS2_13IGnssBatchingEEE",
   "parameters" :
   [
    {
     "is_this_ptr" : true,
     "referenced_type" : "type-944"
    },
    {
     "referenced_type" : "type-1050"
    }
   ],
   "return_type" : "type-22",
   "source_file" : "/out/soong/.intermediates/hardware/interfaces/gnss/2.0/android.hardware.gnss@2.0_genc++_headers/gen/android/hardware/gnss/2.0/BnHwGnssBatching.h"
  },
  {
   "function_name" : "android::hardware::gnss::V2_0::BnHwGnssBatching::BnHwGnssBatching",
   "linker_set_key" : "_ZN7android8hardware4gnss4V2_016BnHwGnssBatchingC2ERKNS_2spINS2_13IGnssBatchingEEE",
   "parameters" :
   [
    {
     "is_this_ptr" : true,
     "referenced_type" : "type-944"
    },
    {
     "referenced_type" : "type-1050"
    }
   ],
   "return_type" : "type-22",
   "source_file" : "/out/soong/.intermediates/hardware/interfaces/gnss/2.0/android.hardware.gnss@2.0_genc++_headers/gen/android/hardware/gnss/2.0/BnHwGnssBatching.h"
  },
  {
   "function_name" : "android::hardware::gnss::V2_0::BnHwGnssBatching::~BnHwGnssBatching",
   "linker_set_key" : "_ZN7android8hardware4gnss4V2_016BnHwGnssBatchingD0Ev",
   "parameters" :
   [
    {
     "is_this_ptr" : true,
     "referenced_type" : "type-944"
    }
   ],
   "return_type" : "type-22",
   "source_file" : "/out/soong/.intermediates/hardware/interfaces/gnss/2.0/android.hardware.gnss@2.0_genc++_headers/gen/android/hardware/gnss/2.0/BnHwGnssBatching.h"
  },
  {
   "function_name" : "android::hardware::gnss::V2_0::BnHwGnssBatching::~BnHwGnssBatching",
   "linker_set_key" : "_ZN7android8hardware4gnss4V2_016BnHwGnssBatchingD1Ev",
   "parameters" :
   [
    {
     "is_this_ptr" : true,
     "referenced_type" : "type-944"
    }
   ],
   "return_type" : "type-22",
   "source_file" : "/out/soong/.intermediates/hardware/interfaces/gnss/2.0/android.hardware.gnss@2.0_genc++_headers/gen/android/hardware/gnss/2.0/BnHwGnssBatching.h"
  },
  {
   "function_name" : "android::hardware::gnss::V2_0::BnHwGnssBatching::~BnHwGnssBatching",
   "linker_set_key" : "_ZN7android8hardware4gnss4V2_016BnHwGnssBatchingD2Ev",
   "parameters" :
   [
    {
     "is_this_ptr" : true,
     "referenced_type" : "type-944"
    }
   ],
   "return_type" : "type-22",
   "source_file" : "/out/soong/.intermediates/hardware/interfaces/gnss/2.0/android.hardware.gnss@2.0_genc++_headers/gen/android/hardware/gnss/2.0/BnHwGnssBatching.h"
  },
  {
   "function_name" : "android::hardware::gnss::V2_0::BnHwGnssCallback::onTransact",
   "linker_set_key" : "_ZN7android8hardware4gnss4V2_016BnHwGnssCallback10onTransactEjRKNS0_6ParcelEPS4_jNSt3__18functionIFvRS4_EEE",
   "parameters" :
   [
    {
     "is_this_ptr" : true,
     "referenced_type" : "type-950"
    },
    {
     "referenced_type" : "type-2"
    },
    {
     "referenced_type" : "type-1881"
    },
    {
     "referenced_type" : "type-1852"
    },
    {
     "default_arg" : true,
     "referenced_type" : "type-2"
    },
    {
     "default_arg" : true,
     "referenced_type" : "type-2820"
    }
   ],
   "return_type" : "type-20",
   "source_file" : "/out/soong/.intermediates/hardware/interfaces/gnss/2.0/android.hardware.gnss@2.0_genc++_headers/gen/android/hardware/gnss/2.0/BnHwGnssCallback.h"
  },
  {
   "access" : "private",
   "function_name" : "android::hardware::gnss::V2_0::BnHwGnssCallback::getDebugInfo",
   "linker_set_key" : "_ZN7android8hardware4gnss4V2_016BnHwGnssCallback12getDebugInfoENSt3__18functionIFvRKNS_4hidl4base4V1_09DebugInfoEEEE",
   "parameters" :
   [
    {
     "is_this_ptr" : true,
     "referenced_type" : "type-950"
    },
    {
     "referenced_type" : "type-2821"
    }
   ],
   "return_type" : "type-920",
   "source_file" : "/out/soong/.intermediates/hardware/interfaces/gnss/2.0/android.hardware.gnss@2.0_genc++_headers/gen/android/hardware/gnss/2.0/BnHwGnssCallback.h"
  },
  {
   "function_name" : "android::hardware::gnss::V2_0::BnHwGnssCallback::_hidl_gnssLocationCb_2_0",
   "linker_set_key" : "_ZN7android8hardware4gnss4V2_016BnHwGnssCallback24_hidl_gnssLocationCb_2_0EPNS_4hidl4base4V1_08BnHwBaseERKNS0_6ParcelEPS9_NSt3__18functionIFvRS9_EEE",
   "parameters" :
   [
    {
     "referenced_type" : "type-1882"
    },
    {
     "referenced_type" : "type-1881"
    },
    {
     "referenced_type" : "type-1852"
    },
    {
     "referenced_type" : "type-2822"
    }
   ],
   "return_type" : "type-20",
   "source_file" : "/out/soong/.intermediates/hardware/interfaces/gnss/2.0/android.hardware.gnss@2.0_genc++_headers/gen/android/hardware/gnss/2.0/BnHwGnssCallback.h"
  },
  {
   "function_name" : "android::hardware::gnss::V2_0::BnHwGnssCallback::_hidl_gnssSvStatusCb_2_0",
   "linker_set_key" : "_ZN7android8hardware4gnss4V2_016BnHwGnssCallback24_hidl_gnssSvStatusCb_2_0EPNS_4hidl4base4V1_08BnHwBaseERKNS0_6ParcelEPS9_NSt3__18functionIFvRS9_EEE",
   "parameters" :
   [
    {
     "referenced_type" : "type-1882"
    },
    {
     "referenced_type" : "type-1881"
    },
    {
     "referenced_type" : "type-1852"
    },
    {
     "referenced_type" : "type-2823"
    }
   ],
   "return_type" : "type-20",
   "source_file" : "/out/soong/.intermediates/hardware/interfaces/gnss/2.0/android.hardware.gnss@2.0_genc++_headers/gen/android/hardware/gnss/2.0/BnHwGnssCallback.h"
  },
  {
   "function_name" : "android::hardware::gnss::V2_0::BnHwGnssCallback::_hidl_gnssRequestLocationCb_2_0",
   "linker_set_key" : "_ZN7android8hardware4gnss4V2_016BnHwGnssCallback31_hidl_gnssRequestLocationCb_2_0EPNS_4hidl4base4V1_08BnHwBaseERKNS0_6ParcelEPS9_NSt3__18functionIFvRS9_EEE",
   "parameters" :
   [
    {
     "referenced_type" : "type-1882"
    },
    {
     "referenced_type" : "type-1881"
    },
    {
     "referenced_type" : "type-1852"
    },
    {
     "referenced_type" : "type-2824"
    }
   ],
   "return_type" : "type-20",
   "source_file" : "/out/soong/.intermediates/hardware/interfaces/gnss/2.0/android.hardware.gnss@2.0_genc++_headers/gen/android/hardware/gnss/2.0/BnHwGnssCallback.h"
  },
  {
   "function_name" : "android::hardware::gnss::V2_0::BnHwGnssCallback::_hidl_gnssSetCapabilitiesCb_2_0",
   "linker_set_key" : "_ZN7android8hardware4gnss4V2_016BnHwGnssCallback31_hidl_gnssSetCapabilitiesCb_2_0EPNS_4hidl4base4V1_08BnHwBaseERKNS0_6ParcelEPS9_NSt3__18functionIFvRS9_EEE",
   "parameters" :
   [
    {
     "referenced_type" : "type-1882"
    },
    {
     "referenced_type" : "type-1881"
    },
    {
     "referenced_type" : "type-1852"
    },
    {
     "referenced_type" : "type-2825"
    }
   ],
   "return_type" : "type-20",
   "source_file" : "/out/soong/.intermediates/hardware/interfaces/gnss/2.0/android.hardware.gnss@2.0_genc++_headers/gen/android/hardware/gnss/2.0/BnHwGnssCallback.h"
  },
  {
   "access" : "private",
   "function_name" : "android::hardware::gnss::V2_0::BnHwGnssCallback::ping",
   "linker_set_key" : "_ZN7android8hardware4gnss4V2_016BnHwGnssCallback4pingEv",
   "parameters" :
   [
    {
     "is_this_ptr" : true,
     "referenced_type" : "type-950"
    }
   ],
   "return_type" : "type-920",
   "source_file" : "/out/soong/.intermediates/hardware/interfaces/gnss/2.0/android.hardware.gnss@2.0_genc++_headers/gen/android/hardware/gnss/2.0/BnHwGnssCallback.h"
  },
  {
   "function_name" : "android::hardware::gnss::V2_0::BnHwGnssCallback::BnHwGnssCallback",
   "linker_set_key" : "_ZN7android8hardware4gnss4V2_016BnHwGnssCallbackC1ERKNS_2spINS2_13IGnssCallbackEEE",
   "parameters" :
   [
    {
     "is_this_ptr" : true,
     "referenced_type" : "type-950"
    },
    {
     "referenced_type" : "type-1037"
    }
   ],
   "return_type" : "type-22",
   "source_file" : "/out/soong/.intermediates/hardware/interfaces/gnss/2.0/android.hardware.gnss@2.0_genc++_headers/gen/android/hardware/gnss/2.0/BnHwGnssCallback.h"
  },
  {
   "function_name" : "android::hardware::gnss::V2_0::BnHwGnssCallback::BnHwGnssCallback",
   "linker_set_key" : "_ZN7android8hardware4gnss4V2_016BnHwGnssCallbackC2ERKNS_2spINS2_13IGnssCallbackEEE",
   "parameters" :
   [
    {
     "is_this_ptr" : true,
     "referenced_type" : "type-950"
    },
    {
     "referenced_type" : "type-1037"
    }
   ],
   "return_type" : "type-22",
   "source_file" : "/out/soong/.intermediates/hardware/interfaces/gnss/2.0/android.hardware.gnss@2.0_genc++_headers/gen/android/hardware/gnss/2.0/BnHwGnssCallback.h"
  },
  {
   "function_name" : "android::hardware::gnss::V2_0::BnHwGnssCallback::~BnHwGnssCallback",
   "linker_set_key" : "_ZN7android8hardware4gnss4V2_016BnHwGnssCallbackD0Ev",
   "parameters" :
   [
    {
     "is_this_ptr" : true,
     "referenced_type" : "type-950"
    }
   ],
   "return_type" : "type-22",
   "source_file" : "/out/soong/.intermediates/hardware/interfaces/gnss/2.0/android.hardware.gnss@2.0_genc++_headers/gen/android/hardware/gnss/2.0/BnHwGnssCallback.h"
  },
  {
   "function_name" : "android::hardware::gnss::V2_0::BnHwGnssCallback::~BnHwGnssCallback",
   "linker_set_key" : "_ZN7android8hardware4gnss4V2_016BnHwGnssCallbackD1Ev",
   "parameters" :
   [
    {
     "is_this_ptr" : true,
     "referenced_type" : "type-950"
    }
   ],
   "return_type" : "type-22",
   "source_file" : "/out/soong/.intermediates/hardware/interfaces/gnss/2.0/android.hardware.gnss@2.0_genc++_headers/gen/android/hardware/gnss/2.0/BnHwGnssCallback.h"
  },
  {
   "function_name" : "android::hardware::gnss::V2_0::BnHwGnssCallback::~BnHwGnssCallback",
   "linker_set_key" : "_ZN7android8hardware4gnss4V2_016BnHwGnssCallbackD2Ev",
   "parameters" :
   [
    {
     "is_this_ptr" : true,
     "referenced_type" : "type-950"
    }
   ],
   "return_type" : "type-22",
   "source_file" : "/out/soong/.intermediates/hardware/interfaces/gnss/2.0/android.hardware.gnss@2.0_genc++_headers/gen/android/hardware/gnss/2.0/BnHwGnssCallback.h"
  },
  {
   "function_name" : "android::hardware::gnss::V2_0::BpHwGnssBatching::linkToDeath",
   "linker_set_key" : "_ZN7android8hardware4gnss4V2_016BpHwGnssBatching11linkToDeathERKNS_2spINS0_20hidl_death_recipientEEEy",
   "parameters" :
   [
    {
     "is_this_ptr" : true,
     "referenced_type" : "type-1219"
    },
    {
     "referenced_type" : "type-1550"
    },
    {
     "referenced_type" : "type-13"
    }
   ],
   "return_type" : "type-723",
   "source_file" : "/out/soong/.intermediates/hardware/interfaces/gnss/2.0/android.hardware.gnss@2.0_genc++_headers/gen/android/hardware/gnss/2.0/BpHwGnssBatching.h"
  },
  {
   "function_name" : "android::hardware::gnss::V2_0::BpHwGnssBatching::getBatchSize",
   "linker_set_key" : "_ZN7android8hardware4gnss4V2_016BpHwGnssBatching12getBatchSizeEv",
   "parameters" :
   [
    {
     "is_this_ptr" : true,
     "referenced_type" : "type-1219"
    }
   ],
   "return_type" : "type-1522",
   "source_file" : "/out/soong/.intermediates/hardware/interfaces/gnss/2.0/android.hardware.gnss@2.0_genc++_headers/gen/android/hardware/gnss/2.0/BpHwGnssBatching.h"
  },
  {
   "function_name" : "android::hardware::gnss::V2_0::BpHwGnssBatching::getDebugInfo",
   "linker_set_key" : "_ZN7android8hardware4gnss4V2_016BpHwGnssBatching12getDebugInfoENSt3__18functionIFvRKNS_4hidl4base4V1_09DebugInfoEEEE",
   "parameters" :
   [
    {
     "is_this_ptr" : true,
     "referenced_type" : "type-1219"
    },
    {
     "referenced_type" : "type-2826"
    }
   ],
   "return_type" : "type-920",
   "source_file" : "/out/soong/.intermediates/hardware/interfaces/gnss/2.0/android.hardware.gnss@2.0_genc++_headers/gen/android/hardware/gnss/2.0/BpHwGnssBatching.h"
  },
  {
   "function_name" : "android::hardware::gnss::V2_0::BpHwGnssBatching::getHashChain",
   "linker_set_key" : "_ZN7android8hardware4gnss4V2_016BpHwGnssBatching12getHashChainENSt3__18functionIFvRKNS0_8hidl_vecINS0_10hidl_arrayIhLj32EJEEEEEEEE",
   "parameters" :
   [
    {
     "is_this_ptr" : true,
     "referenced_type" : "type-1219"
    },
    {
     "referenced_type" : "type-2827"
    }
   ],
   "return_type" : "type-920",
   "source_file" : "/out/soong/.intermediates/hardware/interfaces/gnss/2.0/android.hardware.gnss@2.0_genc++_headers/gen/android/hardware/gnss/2.0/BpHwGnssBatching.h"
  },
  {
   "function_name" : "android::hardware::gnss::V2_0::BpHwGnssBatching::unlinkToDeath",
   "linker_set_key" : "_ZN7android8hardware4gnss4V2_016BpHwGnssBatching13unlinkToDeathERKNS_2spINS0_20hidl_death_recipientEEE",
   "parameters" :
   [
    {
     "is_this_ptr" : true,
     "referenced_type" : "type-1219"
    },
    {
     "referenced_type" : "type-1550"
    }
   ],
   "return_type" : "type-723",
   "source_file" : "/out/soong/.intermediates/hardware/interfaces/gnss/2.0/android.hardware.gnss@2.0_genc++_headers/gen/android/hardware/gnss/2.0/BpHwGnssBatching.h"
  },
  {
   "function_name" : "android::hardware::gnss::V2_0::BpHwGnssBatching::_hidl_init_2_0",
   "linker_set_key" : "_ZN7android8hardware4gnss4V2_016BpHwGnssBatching14_hidl_init_2_0EPNS0_10IInterfaceEPNS0_7details16HidlInstrumentorERKNS_2spINS2_21IGnssBatchingCallbackEEE",
   "parameters" :
   [
    {
     "referenced_type" : "type-2752"
    },
    {
     "referenced_type" : "type-2283"
    },
    {
     "referenced_type" : "type-1214"
    }
   ],
   "return_type" : "type-723",
   "source_file" : "/out/soong/.intermediates/hardware/interfaces/gnss/2.0/android.hardware.gnss@2.0_genc++_headers/gen/android/hardware/gnss/2.0/BpHwGnssBatching.h"
  },
  {
   "function_name" : "android::hardware::gnss::V2_0::BpHwGnssBatching::interfaceChain",
   "linker_set_key" : "_ZN7android8hardware4gnss4V2_016BpHwGnssBatching14interfaceChainENSt3__18functionIFvRKNS0_8hidl_vecINS0_11hidl_stringEEEEEE",
   "parameters" :
   [
    {
     "is_this_ptr" : true,
     "referenced_type" : "type-1219"
    },
    {
     "referenced_type" : "type-2828"
    }
   ],
   "return_type" : "type-920",
   "source_file" : "/out/soong/.intermediates/hardware/interfaces/gnss/2.0/android.hardware.gnss@2.0_genc++_headers/gen/android/hardware/gnss/2.0/BpHwGnssBatching.h"
  },
  {
   "function_name" : "android::hardware::gnss::V2_0::BpHwGnssBatching::interfaceDescriptor",
   "linker_set_key" : "_ZN7android8hardware4gnss4V2_016BpHwGnssBatching19interfaceDescriptorENSt3__18functionIFvRKNS0_11hidl_stringEEEE",
   "parameters" :
   [
    {
     "is_this_ptr" : true,
     "referenced_type" : "type-1219"
    },
    {
     "referenced_type" : "type-2829"
    }
   ],
   "return_type" : "type-920",
   "source_file" : "/out/soong/.intermediates/hardware/interfaces/gnss/2.0/android.hardware.gnss@2.0_genc++_headers/gen/android/hardware/gnss/2.0/BpHwGnssBatching.h"
  },
  {
   "function_name" : "android::hardware::gnss::V2_0::BpHwGnssBatching::notifySyspropsChanged",
   "linker_set_key" : "_ZN7android8hardware4gnss4V2_016BpHwGnssBatching21notifySyspropsChangedEv",
   "parameters" :
   [
    {
     "is_this_ptr" : true,
     "referenced_type" : "type-1219"
    }
   ],
   "return_type" : "type-920",
   "source_file" : "/out/soong/.intermediates/hardware/interfaces/gnss/2.0/android.hardware.gnss@2.0_genc++_headers/gen/android/hardware/gnss/2.0/BpHwGnssBatching.h"
  },
  {
   "function_name" : "android::hardware::gnss::V2_0::BpHwGnssBatching::setHALInstrumentation",
   "linker_set_key" : "_ZN7android8hardware4gnss4V2_016BpHwGnssBatching21setHALInstrumentationEv",
   "parameters" :
   [
    {
     "is_this_ptr" : true,
     "referenced_type" : "type-1219"
    }
   ],
   "return_type" : "type-920",
   "source_file" : "/out/soong/.intermediates/hardware/interfaces/gnss/2.0/android.hardware.gnss@2.0_genc++_headers/gen/android/hardware/gnss/2.0/BpHwGnssBatching.h"
  },
  {
   "function_name" : "android::hardware::gnss::V2_0::BpHwGnssBatching::init",
   "linker_set_key" : "_ZN7android8hardware4gnss4V2_016BpHwGnssBatching4initERKNS_2spINS1_4V1_021IGnssBatchingCallbackEEE",
   "parameters" :
   [
    {
     "is_this_ptr" : true,
     "referenced_type" : "type-1219"
    },
    {
     "referenced_type" : "type-1094"
    }
   ],
   "return_type" : "type-723",
   "source_file" : "/out/soong/.intermediates/hardware/interfaces/gnss/2.0/android.hardware.gnss@2.0_genc++_headers/gen/android/hardware/gnss/2.0/BpHwGnssBatching.h"
  },
  {
   "function_name" : "android::hardware::gnss::V2_0::BpHwGnssBatching::ping",
   "linker_set_key" : "_ZN7android8hardware4gnss4V2_016BpHwGnssBatching4pingEv",
   "parameters" :
   [
    {
     "is_this_ptr" : true,
     "referenced_type" : "type-1219"
    }
   ],
   "return_type" : "type-920",
   "source_file" : "/out/soong/.intermediates/hardware/interfaces/gnss/2.0/android.hardware.gnss@2.0_genc++_headers/gen/android/hardware/gnss/2.0/BpHwGnssBatching.h"
  },
  {
   "function_name" : "android::hardware::gnss::V2_0::BpHwGnssBatching::stop",
   "linker_set_key" : "_ZN7android8hardware4gnss4V2_016BpHwGnssBatching4stopEv",
   "parameters" :
   [
    {
     "is_this_ptr" : true,
     "referenced_type" : "type-1219"
    }
   ],
   "return_type" : "type-723",
   "source_file" : "/out/soong/.intermediates/hardware/interfaces/gnss/2.0/android.hardware.gnss@2.0_genc++_headers/gen/android/hardware/gnss/2.0/BpHwGnssBatching.h"
  },
  {
   "function_name" : "android::hardware::gnss::V2_0::BpHwGnssBatching::debug",
   "linker_set_key" : "_ZN7android8hardware4gnss4V2_016BpHwGnssBatching5debugERKNS0_11hidl_handleERKNS0_8hidl_vecINS0_11hidl_stringEEE",
   "parameters" :
   [
    {
     "is_this_ptr" : true,
     "referenced_type" : "type-1219"
    },
    {
     "referenced_type" : "type-1777"
    },
    {
     "referenced_type" : "type-2236"
    }
   ],
   "return_type" : "type-920",
   "source_file" : "/out/soong/.intermediates/hardware/interfaces/gnss/2.0/android.hardware.gnss@2.0_genc++_headers/gen/android/hardware/gnss/2.0/BpHwGnssBatching.h"
  },
  {
   "function_name" : "android::hardware::gnss::V2_0::BpHwGnssBatching::flush",
   "linker_set_key" : "_ZN7android8hardware4gnss4V2_016BpHwGnssBatching5flushEv",
   "parameters" :
   [
    {
     "is_this_ptr" : true,
     "referenced_type" : "type-1219"
    }
   ],
   "return_type" : "type-920",
   "source_file" : "/out/soong/.intermediates/hardware/interfaces/gnss/2.0/android.hardware.gnss@2.0_genc++_headers/gen/android/hardware/gnss/2.0/BpHwGnssBatching.h"
  },
  {
   "function_name" : "android::hardware::gnss::V2_0::BpHwGnssBatching::start",
   "linker_set_key" : "_ZN7android8hardware4gnss4V2_016BpHwGnssBatching5startERKNS1_4V1_013IGnssBatching7OptionsE",
   "parameters" :
   [
    {
     "is_this_ptr" : true,
     "referenced_type" : "type-1219"
    },
    {
     "referenced_type" : "type-1592"
    }
   ],
   "return_type" : "type-723",
   "source_file" : "/out/soong/.intermediates/hardware/interfaces/gnss/2.0/android.hardware.gnss@2.0_genc++_headers/gen/android/hardware/gnss/2.0/BpHwGnssBatching.h"
  },
  {
   "function_name" : "android::hardware::gnss::V2_0::BpHwGnssBatching::cleanup",
   "linker_set_key" : "_ZN7android8hardware4gnss4V2_016BpHwGnssBatching7cleanupEv",
   "parameters" :
   [
    {
     "is_this_ptr" : true,
     "referenced_type" : "type-1219"
    }
   ],
   "return_type" : "type-920",
   "source_file" : "/out/soong/.intermediates/hardware/interfaces/gnss/2.0/android.hardware.gnss@2.0_genc++_headers/gen/android/hardware/gnss/2.0/BpHwGnssBatching.h"
  },
  {
   "function_name" : "android::hardware::gnss::V2_0::BpHwGnssBatching::init_2_0",
   "linker_set_key" : "_ZN7android8hardware4gnss4V2_016BpHwGnssBatching8init_2_0ERKNS_2spINS2_21IGnssBatchingCallbackEEE",
   "parameters" :
   [
    {
     "is_this_ptr" : true,
     "referenced_type" : "type-1219"
    },
    {
     "referenced_type" : "type-1214"
    }
   ],
   "return_type" : "type-723",
   "source_file" : "/out/soong/.intermediates/hardware/interfaces/gnss/2.0/android.hardware.gnss@2.0_genc++_headers/gen/android/hardware/gnss/2.0/BpHwGnssBatching.h"
  },
  {
   "function_name" : "android::hardware::gnss::V2_0::BpHwGnssBatching::BpHwGnssBatching",
   "linker_set_key" : "_ZN7android8hardware4gnss4V2_016BpHwGnssBatchingC1ERKNS_2spINS0_7IBinderEEE",
   "parameters" :
   [
    {
     "is_this_ptr" : true,
     "referenced_type" : "type-1219"
    },
    {
     "referenced_type" : "type-43"
    }
   ],
   "return_type" : "type-22",
   "source_file" : "/out/soong/.intermediates/hardware/interfaces/gnss/2.0/android.hardware.gnss@2.0_genc++_headers/gen/android/hardware/gnss/2.0/BpHwGnssBatching.h"
  },
  {
   "function_name" : "android::hardware::gnss::V2_0::BpHwGnssBatching::BpHwGnssBatching",
   "linker_set_key" : "_ZN7android8hardware4gnss4V2_016BpHwGnssBatchingC2ERKNS_2spINS0_7IBinderEEE",
   "parameters" :
   [
    {
     "is_this_ptr" : true,
     "referenced_type" : "type-1219"
    },
    {
     "referenced_type" : "type-43"
    }
   ],
   "return_type" : "type-22",
   "source_file" : "/out/soong/.intermediates/hardware/interfaces/gnss/2.0/android.hardware.gnss@2.0_genc++_headers/gen/android/hardware/gnss/2.0/BpHwGnssBatching.h"
  },
  {
   "function_name" : "android::hardware::gnss::V2_0::BpHwGnssCallback::gnssNameCb",
   "linker_set_key" : "_ZN7android8hardware4gnss4V2_016BpHwGnssCallback10gnssNameCbERKNS0_11hidl_stringE",
   "parameters" :
   [
    {
     "is_this_ptr" : true,
     "referenced_type" : "type-1225"
    },
    {
     "referenced_type" : "type-1605"
    }
   ],
   "return_type" : "type-920",
   "source_file" : "/out/soong/.intermediates/hardware/interfaces/gnss/2.0/android.hardware.gnss@2.0_genc++_headers/gen/android/hardware/gnss/2.0/BpHwGnssCallback.h"
  },
  {
   "function_name" : "android::hardware::gnss::V2_0::BpHwGnssCallback::gnssNmeaCb",
   "linker_set_key" : "_ZN7android8hardware4gnss4V2_016BpHwGnssCallback10gnssNmeaCbExRKNS0_11hidl_stringE",
   "parameters" :
   [
    {
     "is_this_ptr" : true,
     "referenced_type" : "type-1225"
    },
    {
     "referenced_type" : "type-25"
    },
    {
     "referenced_type" : "type-1605"
    }
   ],
   "return_type" : "type-920",
   "source_file" : "/out/soong/.intermediates/hardware/interfaces/gnss/2.0/android.hardware.gnss@2.0_genc++_headers/gen/android/hardware/gnss/2.0/BpHwGnssCallback.h"
  },
  {
   "function_name" : "android::hardware::gnss::V2_0::BpHwGnssCallback::linkToDeath",
   "linker_set_key" : "_ZN7android8hardware4gnss4V2_016BpHwGnssCallback11linkToDeathERKNS_2spINS0_20hidl_death_recipientEEEy",
   "parameters" :
   [
    {
     "is_this_ptr" : true,
     "referenced_type" : "type-1225"
    },
    {
     "referenced_type" : "type-1550"
    },
    {
     "referenced_type" : "type-13"
    }
   ],
   "return_type" : "type-723",
   "source_file" : "/out/soong/.intermediates/hardware/interfaces/gnss/2.0/android.hardware.gnss@2.0_genc++_headers/gen/android/hardware/gnss/2.0/BpHwGnssCallback.h"
  },
  {
   "function_name" : "android::hardware::gnss::V2_0::BpHwGnssCallback::getDebugInfo",
   "linker_set_key" : "_ZN7android8hardware4gnss4V2_016BpHwGnssCallback12getDebugInfoENSt3__18functionIFvRKNS_4hidl4base4V1_09DebugInfoEEEE",
   "parameters" :
   [
    {
     "is_this_ptr" : true,
     "referenced_type" : "type-1225"
    },
    {
     "referenced_type" : "type-2830"
    }
   ],
   "return_type" : "type-920",
   "source_file" : "/out/soong/.intermediates/hardware/interfaces/gnss/2.0/android.hardware.gnss@2.0_genc++_headers/gen/android/hardware/gnss/2.0/BpHwGnssCallback.h"
  },
  {
   "function_name" : "android::hardware::gnss::V2_0::BpHwGnssCallback::getHashChain",
   "linker_set_key" : "_ZN7android8hardware4gnss4V2_016BpHwGnssCallback12getHashChainENSt3__18functionIFvRKNS0_8hidl_vecINS0_10hidl_arrayIhLj32EJEEEEEEEE",
   "parameters" :
   [
    {
     "is_this_ptr" : true,
     "referenced_type" : "type-1225"
    },
    {
     "referenced_type" : "type-2831"
    }
   ],
   "return_type" : "type-920",
   "source_file" : "/out/soong/.intermediates/hardware/interfaces/gnss/2.0/android.hardware.gnss@2.0_genc++_headers/gen/android/hardware/gnss/2.0/BpHwGnssCallback.h"
  },
  {
   "function_name" : "android::hardware::gnss::V2_0::BpHwGnssCallback::gnssStatusCb",
   "linker_set_key" : "_ZN7android8hardware4gnss4V2_016BpHwGnssCallback12gnssStatusCbENS1_4V1_013IGnssCallback15GnssStatusValueE",
   "parameters" :
   [
    {
     "is_this_ptr" : true,
     "referenced_type" : "type-1225"
    },
    {
     "referenced_type" : "type-420"
    }
   ],
   "return_type" : "type-920",
   "source_file" : "/out/soong/.intermediates/hardware/interfaces/gnss/2.0/android.hardware.gnss@2.0_genc++_headers/gen/android/hardware/gnss/2.0/BpHwGnssCallback.h"
  },
  {
   "function_name" : "android::hardware::gnss::V2_0::BpHwGnssCallback::unlinkToDeath",
   "linker_set_key" : "_ZN7android8hardware4gnss4V2_016BpHwGnssCallback13unlinkToDeathERKNS_2spINS0_20hidl_death_recipientEEE",
   "parameters" :
   [
    {
     "is_this_ptr" : true,
     "referenced_type" : "type-1225"
    },
    {
     "referenced_type" : "type-1550"
    }
   ],
   "return_type" : "type-723",
   "source_file" : "/out/soong/.intermediates/hardware/interfaces/gnss/2.0/android.hardware.gnss@2.0_genc++_headers/gen/android/hardware/gnss/2.0/BpHwGnssCallback.h"
  },
  {
   "function_name" : "android::hardware::gnss::V2_0::BpHwGnssCallback::gnssLocationCb",
   "linker_set_key" : "_ZN7android8hardware4gnss4V2_016BpHwGnssCallback14gnssLocationCbERKNS1_4V1_012GnssLocationE",
   "parameters" :
   [
    {
     "is_this_ptr" : true,
     "referenced_type" : "type-1225"
    },
    {
     "referenced_type" : "type-998"
    }
   ],
   "return_type" : "type-920",
   "source_file" : "/out/soong/.intermediates/hardware/interfaces/gnss/2.0/android.hardware.gnss@2.0_genc++_headers/gen/android/hardware/gnss/2.0/BpHwGnssCallback.h"
  },
  {
   "function_name" : "android::hardware::gnss::V2_0::BpHwGnssCallback::gnssSvStatusCb",
   "linker_set_key" : "_ZN7android8hardware4gnss4V2_016BpHwGnssCallback14gnssSvStatusCbERKNS1_4V1_013IGnssCallback12GnssSvStatusE",
   "parameters" :
   [
    {
     "is_this_ptr" : true,
     "referenced_type" : "type-1225"
    },
    {
     "referenced_type" : "type-1789"
    }
   ],
   "return_type" : "type-920",
   "source_file" : "/out/soong/.intermediates/hardware/interfaces/gnss/2.0/android.hardware.gnss@2.0_genc++_headers/gen/android/hardware/gnss/2.0/BpHwGnssCallback.h"
  },
  {
   "function_name" : "android::hardware::gnss::V2_0::BpHwGnssCallback::interfaceChain",
   "linker_set_key" : "_ZN7android8hardware4gnss4V2_016BpHwGnssCallback14interfaceChainENSt3__18functionIFvRKNS0_8hidl_vecINS0_11hidl_stringEEEEEE",
   "parameters" :
   [
    {
     "is_this_ptr" : true,
     "referenced_type" : "type-1225"
    },
    {
     "referenced_type" : "type-2832"
    }
   ],
   "return_type" : "type-920",
   "source_file" : "/out/soong/.intermediates/hardware/interfaces/gnss/2.0/android.hardware.gnss@2.0_genc++_headers/gen/android/hardware/gnss/2.0/BpHwGnssCallback.h"
  },
  {
   "function_name" : "android::hardware::gnss::V2_0::BpHwGnssCallback::gnssRequestTimeCb",
   "linker_set_key" : "_ZN7android8hardware4gnss4V2_016BpHwGnssCallback17gnssRequestTimeCbEv",
   "parameters" :
   [
    {
     "is_this_ptr" : true,
     "referenced_type" : "type-1225"
    }
   ],
   "return_type" : "type-920",
   "source_file" : "/out/soong/.intermediates/hardware/interfaces/gnss/2.0/android.hardware.gnss@2.0_genc++_headers/gen/android/hardware/gnss/2.0/BpHwGnssCallback.h"
  },
  {
   "function_name" : "android::hardware::gnss::V2_0::BpHwGnssCallback::gnssLocationCb_2_0",
   "linker_set_key" : "_ZN7android8hardware4gnss4V2_016BpHwGnssCallback18gnssLocationCb_2_0ERKNS2_12GnssLocationE",
   "parameters" :
   [
    {
     "is_this_ptr" : true,
     "referenced_type" : "type-1225"
    },
    {
     "referenced_type" : "type-996"
    }
   ],
   "return_type" : "type-920",
   "source_file" : "/out/soong/.intermediates/hardware/interfaces/gnss/2.0/android.hardware.gnss@2.0_genc++_headers/gen/android/hardware/gnss/2.0/BpHwGnssCallback.h"
  },
  {
   "function_name" : "android::hardware::gnss::V2_0::BpHwGnssCallback::gnssSvStatusCb_2_0",
   "linker_set_key" : "_ZN7android8hardware4gnss4V2_016BpHwGnssCallback18gnssSvStatusCb_2_0ERKNS0_8hidl_vecINS2_13IGnssCallback10GnssSvInfoEEE",
   "parameters" :
   [
    {
     "is_this_ptr" : true,
     "referenced_type" : "type-1225"
    },
    {
     "referenced_type" : "type-1742"
    }
   ],
   "return_type" : "type-920",
   "source_file" : "/out/soong/.intermediates/hardware/interfaces/gnss/2.0/android.hardware.gnss@2.0_genc++_headers/gen/android/hardware/gnss/2.0/BpHwGnssCallback.h"
  },
  {
   "function_name" : "android::hardware::gnss::V2_0::BpHwGnssCallback::gnssSetSystemInfoCb",
   "linker_set_key" : "_ZN7android8hardware4gnss4V2_016BpHwGnssCallback19gnssSetSystemInfoCbERKNS1_4V1_013IGnssCallback14GnssSystemInfoE",
   "parameters" :
   [
    {
     "is_this_ptr" : true,
     "referenced_type" : "type-1225"
    },
    {
     "referenced_type" : "type-1791"
    }
   ],
   "return_type" : "type-920",
   "source_file" : "/out/soong/.intermediates/hardware/interfaces/gnss/2.0/android.hardware.gnss@2.0_genc++_headers/gen/android/hardware/gnss/2.0/BpHwGnssCallback.h"
  },
  {
   "function_name" : "android::hardware::gnss::V2_0::BpHwGnssCallback::interfaceDescriptor",
   "linker_set_key" : "_ZN7android8hardware4gnss4V2_016BpHwGnssCallback19interfaceDescriptorENSt3__18functionIFvRKNS0_11hidl_stringEEEE",
   "parameters" :
   [
    {
     "is_this_ptr" : true,
     "referenced_type" : "type-1225"
    },
    {
     "referenced_type" : "type-2833"
    }
   ],
   "return_type" : "type-920",
   "source_file" : "/out/soong/.intermediates/hardware/interfaces/gnss/2.0/android.hardware.gnss@2.0_genc++_headers/gen/android/hardware/gnss/2.0/BpHwGnssCallback.h"
  },
  {
   "function_name" : "android::hardware::gnss::V2_0::BpHwGnssCallback::gnssSetCapabilitesCb",
   "linker_set_key" : "_ZN7android8hardware4gnss4V2_016BpHwGnssCallback20gnssSetCapabilitesCbEj",
   "parameters" :
   [
    {
     "is_this_ptr" : true,
     "referenced_type" : "type-1225"
    },
    {
     "referenced_type" : "type-2"
    }
   ],
   "return_type" : "type-920",
   "source_file" : "/out/soong/.intermediates/hardware/interfaces/gnss/2.0/android.hardware.gnss@2.0_genc++_headers/gen/android/hardware/gnss/2.0/BpHwGnssCallback.h"
  },
  {
   "function_name" : "android::hardware::gnss::V2_0::BpHwGnssCallback::gnssAcquireWakelockCb",
   "linker_set_key" : "_ZN7android8hardware4gnss4V2_016BpHwGnssCallback21gnssAcquireWakelockCbEv",
   "parameters" :
   [
    {
     "is_this_ptr" : true,
     "referenced_type" : "type-1225"
    }
   ],
   "return_type" : "type-920",
   "source_file" : "/out/soong/.intermediates/hardware/interfaces/gnss/2.0/android.hardware.gnss@2.0_genc++_headers/gen/android/hardware/gnss/2.0/BpHwGnssCallback.h"
  },
  {
   "function_name" : "android::hardware::gnss::V2_0::BpHwGnssCallback::gnssReleaseWakelockCb",
   "linker_set_key" : "_ZN7android8hardware4gnss4V2_016BpHwGnssCallback21gnssReleaseWakelockCbEv",
   "parameters" :
   [
    {
     "is_this_ptr" : true,
     "referenced_type" : "type-1225"
    }
   ],
   "return_type" : "type-920",
   "source_file" : "/out/soong/.intermediates/hardware/interfaces/gnss/2.0/android.hardware.gnss@2.0_genc++_headers/gen/android/hardware/gnss/2.0/BpHwGnssCallback.h"
  },
  {
   "function_name" : "android::hardware::gnss::V2_0::BpHwGnssCallback::gnssRequestLocationCb",
   "linker_set_key" : "_ZN7android8hardware4gnss4V2_016BpHwGnssCallback21gnssRequestLocationCbEb",
   "parameters" :
   [
    {
     "is_this_ptr" : true,
     "referenced_type" : "type-1225"
    },
    {
     "referenced_type" : "type-34"
    }
   ],
   "return_type" : "type-920",
   "source_file" : "/out/soong/.intermediates/hardware/interfaces/gnss/2.0/android.hardware.gnss@2.0_genc++_headers/gen/android/hardware/gnss/2.0/BpHwGnssCallback.h"
  },
  {
   "function_name" : "android::hardware::gnss::V2_0::BpHwGnssCallback::notifySyspropsChanged",
   "linker_set_key" : "_ZN7android8hardware4gnss4V2_016BpHwGnssCallback21notifySyspropsChangedEv",
   "parameters" :
   [
    {
     "is_this_ptr" : true,
     "referenced_type" : "type-1225"
    }
   ],
   "return_type" : "type-920",
   "source_file" : "/out/soong/.intermediates/hardware/interfaces/gnss/2.0/android.hardware.gnss@2.0_genc++_headers/gen/android/hardware/gnss/2.0/BpHwGnssCallback.h"
  },
  {
   "function_name" : "android::hardware::gnss::V2_0::BpHwGnssCallback::setHALInstrumentation",
   "linker_set_key" : "_ZN7android8hardware4gnss4V2_016BpHwGnssCallback21setHALInstrumentationEv",
   "parameters" :
   [
    {
     "is_this_ptr" : true,
     "referenced_type" : "type-1225"
    }
   ],
   "return_type" : "type-920",
   "source_file" : "/out/soong/.intermediates/hardware/interfaces/gnss/2.0/android.hardware.gnss@2.0_genc++_headers/gen/android/hardware/gnss/2.0/BpHwGnssCallback.h"
  },
  {
   "function_name" : "android::hardware::gnss::V2_0::BpHwGnssCallback::_hidl_gnssLocationCb_2_0",
   "linker_set_key" : "_ZN7android8hardware4gnss4V2_016BpHwGnssCallback24_hidl_gnssLocationCb_2_0EPNS0_10IInterfaceEPNS0_7details16HidlInstrumentorERKNS2_12GnssLocationE",
   "parameters" :
   [
    {
     "referenced_type" : "type-2752"
    },
    {
     "referenced_type" : "type-2283"
    },
    {
     "referenced_type" : "type-996"
    }
   ],
   "return_type" : "type-920",
   "source_file" : "/out/soong/.intermediates/hardware/interfaces/gnss/2.0/android.hardware.gnss@2.0_genc++_headers/gen/android/hardware/gnss/2.0/BpHwGnssCallback.h"
  },
  {
   "function_name" : "android::hardware::gnss::V2_0::BpHwGnssCallback::_hidl_gnssSvStatusCb_2_0",
   "linker_set_key" : "_ZN7android8hardware4gnss4V2_016BpHwGnssCallback24_hidl_gnssSvStatusCb_2_0EPNS0_10IInterfaceEPNS0_7details16HidlInstrumentorERKNS0_8hidl_vecINS2_13IGnssCallback10GnssSvInfoEEE",
   "parameters" :
   [
    {
     "referenced_type" : "type-2752"
    },
    {
     "referenced_type" : "type-2283"
    },
    {
     "referenced_type" : "type-1742"
    }
   ],
   "return_type" : "type-920",
   "source_file" : "/out/soong/.intermediates/hardware/interfaces/gnss/2.0/android.hardware.gnss@2.0_genc++_headers/gen/android/hardware/gnss/2.0/BpHwGnssCallback.h"
  },
  {
   "function_name" : "android::hardware::gnss::V2_0::BpHwGnssCallback::gnssRequestLocationCb_2_0",
   "linker_set_key" : "_ZN7android8hardware4gnss4V2_016BpHwGnssCallback25gnssRequestLocationCb_2_0Ebb",
   "parameters" :
   [
    {
     "is_this_ptr" : true,
     "referenced_type" : "type-1225"
    },
    {
     "referenced_type" : "type-34"
    },
    {
     "referenced_type" : "type-34"
    }
   ],
   "return_type" : "type-920",
   "source_file" : "/out/soong/.intermediates/hardware/interfaces/gnss/2.0/android.hardware.gnss@2.0_genc++_headers/gen/android/hardware/gnss/2.0/BpHwGnssCallback.h"
  },
  {
   "function_name" : "android::hardware::gnss::V2_0::BpHwGnssCallback::gnssSetCapabilitiesCb_2_0",
   "linker_set_key" : "_ZN7android8hardware4gnss4V2_016BpHwGnssCallback25gnssSetCapabilitiesCb_2_0Ej",
   "parameters" :
   [
    {
     "is_this_ptr" : true,
     "referenced_type" : "type-1225"
    },
    {
     "referenced_type" : "type-2"
    }
   ],
   "return_type" : "type-920",
   "source_file" : "/out/soong/.intermediates/hardware/interfaces/gnss/2.0/android.hardware.gnss@2.0_genc++_headers/gen/android/hardware/gnss/2.0/BpHwGnssCallback.h"
  },
  {
   "function_name" : "android::hardware::gnss::V2_0::BpHwGnssCallback::_hidl_gnssRequestLocationCb_2_0",
   "linker_set_key" : "_ZN7android8hardware4gnss4V2_016BpHwGnssCallback31_hidl_gnssRequestLocationCb_2_0EPNS0_10IInterfaceEPNS0_7details16HidlInstrumentorEbb",
   "parameters" :
   [
    {
     "referenced_type" : "type-2752"
    },
    {
     "referenced_type" : "type-2283"
    },
    {
     "referenced_type" : "type-34"
    },
    {
     "referenced_type" : "type-34"
    }
   ],
   "return_type" : "type-920",
   "source_file" : "/out/soong/.intermediates/hardware/interfaces/gnss/2.0/android.hardware.gnss@2.0_genc++_headers/gen/android/hardware/gnss/2.0/BpHwGnssCallback.h"
  },
  {
   "function_name" : "android::hardware::gnss::V2_0::BpHwGnssCallback::_hidl_gnssSetCapabilitiesCb_2_0",
   "linker_set_key" : "_ZN7android8hardware4gnss4V2_016BpHwGnssCallback31_hidl_gnssSetCapabilitiesCb_2_0EPNS0_10IInterfaceEPNS0_7details16HidlInstrumentorEj",
   "parameters" :
   [
    {
     "referenced_type" : "type-2752"
    },
    {
     "referenced_type" : "type-2283"
    },
    {
     "referenced_type" : "type-2"
    }
   ],
   "return_type" : "type-920",
   "source_file" : "/out/soong/.intermediates/hardware/interfaces/gnss/2.0/android.hardware.gnss@2.0_genc++_headers/gen/android/hardware/gnss/2.0/BpHwGnssCallback.h"
  },
  {
   "function_name" : "android::hardware::gnss::V2_0::BpHwGnssCallback::ping",
   "linker_set_key" : "_ZN7android8hardware4gnss4V2_016BpHwGnssCallback4pingEv",
   "parameters" :
   [
    {
     "is_this_ptr" : true,
     "referenced_type" : "type-1225"
    }
   ],
   "return_type" : "type-920",
   "source_file" : "/out/soong/.intermediates/hardware/interfaces/gnss/2.0/android.hardware.gnss@2.0_genc++_headers/gen/android/hardware/gnss/2.0/BpHwGnssCallback.h"
  },
  {
   "function_name" : "android::hardware::gnss::V2_0::BpHwGnssCallback::debug",
   "linker_set_key" : "_ZN7android8hardware4gnss4V2_016BpHwGnssCallback5debugERKNS0_11hidl_handleERKNS0_8hidl_vecINS0_11hidl_stringEEE",
   "parameters" :
   [
    {
     "is_this_ptr" : true,
     "referenced_type" : "type-1225"
    },
    {
     "referenced_type" : "type-1777"
    },
    {
     "referenced_type" : "type-2236"
    }
   ],
   "return_type" : "type-920",
   "source_file" : "/out/soong/.intermediates/hardware/interfaces/gnss/2.0/android.hardware.gnss@2.0_genc++_headers/gen/android/hardware/gnss/2.0/BpHwGnssCallback.h"
  },
  {
   "function_name" : "android::hardware::gnss::V2_0::BpHwGnssCallback::BpHwGnssCallback",
   "linker_set_key" : "_ZN7android8hardware4gnss4V2_016BpHwGnssCallbackC1ERKNS_2spINS0_7IBinderEEE",
   "parameters" :
   [
    {
     "is_this_ptr" : true,
     "referenced_type" : "type-1225"
    },
    {
     "referenced_type" : "type-43"
    }
   ],
   "return_type" : "type-22",
   "source_file" : "/out/soong/.intermediates/hardware/interfaces/gnss/2.0/android.hardware.gnss@2.0_genc++_headers/gen/android/hardware/gnss/2.0/BpHwGnssCallback.h"
  },
  {
   "function_name" : "android::hardware::gnss::V2_0::BpHwGnssCallback::BpHwGnssCallback",
   "linker_set_key" : "_ZN7android8hardware4gnss4V2_016BpHwGnssCallbackC2ERKNS_2spINS0_7IBinderEEE",
   "parameters" :
   [
    {
     "is_this_ptr" : true,
     "referenced_type" : "type-1225"
    },
    {
     "referenced_type" : "type-43"
    }
   ],
   "return_type" : "type-22",
   "source_file" : "/out/soong/.intermediates/hardware/interfaces/gnss/2.0/android.hardware.gnss@2.0_genc++_headers/gen/android/hardware/gnss/2.0/BpHwGnssCallback.h"
  },
  {
   "function_name" : "android::hardware::gnss::V2_0::IGnssMeasurement::getService",
   "linker_set_key" : "_ZN7android8hardware4gnss4V2_016IGnssMeasurement10getServiceERKNSt3__112basic_stringIcNS4_11char_traitsIcEENS4_9allocatorIcEEEEb",
   "parameters" :
   [
    {
     "default_arg" : true,
     "referenced_type" : "type-2580"
    },
    {
     "default_arg" : true,
     "referenced_type" : "type-34"
    }
   ],
   "return_type" : "type-301",
   "source_file" : "/out/soong/.intermediates/hardware/interfaces/gnss/2.0/android.hardware.gnss@2.0_genc++_headers/gen/android/hardware/gnss/2.0/IGnssMeasurement.h"
  },
  {
   "function_name" : "android::hardware::gnss::V2_0::IGnssMeasurement::linkToDeath",
   "linker_set_key" : "_ZN7android8hardware4gnss4V2_016IGnssMeasurement11linkToDeathERKNS_2spINS0_20hidl_death_recipientEEEy",
   "parameters" :
   [
    {
     "is_this_ptr" : true,
     "referenced_type" : "type-302"
    },
    {
     "referenced_type" : "type-1550"
    },
    {
     "referenced_type" : "type-13"
    }
   ],
   "return_type" : "type-723",
   "source_file" : "/out/soong/.intermediates/hardware/interfaces/gnss/2.0/android.hardware.gnss@2.0_genc++_headers/gen/android/hardware/gnss/2.0/IGnssMeasurement.h"
  },
  {
   "function_name" : "android::hardware::gnss::V2_0::IGnssMeasurement::getDebugInfo",
   "linker_set_key" : "_ZN7android8hardware4gnss4V2_016IGnssMeasurement12getDebugInfoENSt3__18functionIFvRKNS_4hidl4base4V1_09DebugInfoEEEE",
   "parameters" :
   [
    {
     "is_this_ptr" : true,
     "referenced_type" : "type-302"
    },
    {
     "referenced_type" : "type-2834"
    }
   ],
   "return_type" : "type-920",
   "source_file" : "/out/soong/.intermediates/hardware/interfaces/gnss/2.0/android.hardware.gnss@2.0_genc++_headers/gen/android/hardware/gnss/2.0/IGnssMeasurement.h"
  },
  {
   "function_name" : "android::hardware::gnss::V2_0::IGnssMeasurement::getHashChain",
   "linker_set_key" : "_ZN7android8hardware4gnss4V2_016IGnssMeasurement12getHashChainENSt3__18functionIFvRKNS0_8hidl_vecINS0_10hidl_arrayIhLj32EJEEEEEEEE",
   "parameters" :
   [
    {
     "is_this_ptr" : true,
     "referenced_type" : "type-302"
    },
    {
     "referenced_type" : "type-2835"
    }
   ],
   "return_type" : "type-920",
   "source_file" : "/out/soong/.intermediates/hardware/interfaces/gnss/2.0/android.hardware.gnss@2.0_genc++_headers/gen/android/hardware/gnss/2.0/IGnssMeasurement.h"
  },
  {
   "function_name" : "android::hardware::gnss::V2_0::IGnssMeasurement::tryGetService",
   "linker_set_key" : "_ZN7android8hardware4gnss4V2_016IGnssMeasurement13tryGetServiceERKNSt3__112basic_stringIcNS4_11char_traitsIcEENS4_9allocatorIcEEEEb",
   "parameters" :
   [
    {
     "default_arg" : true,
     "referenced_type" : "type-2580"
    },
    {
     "default_arg" : true,
     "referenced_type" : "type-34"
    }
   ],
   "return_type" : "type-301",
   "source_file" : "/out/soong/.intermediates/hardware/interfaces/gnss/2.0/android.hardware.gnss@2.0_genc++_headers/gen/android/hardware/gnss/2.0/IGnssMeasurement.h"
  },
  {
   "function_name" : "android::hardware::gnss::V2_0::IGnssMeasurement::unlinkToDeath",
   "linker_set_key" : "_ZN7android8hardware4gnss4V2_016IGnssMeasurement13unlinkToDeathERKNS_2spINS0_20hidl_death_recipientEEE",
   "parameters" :
   [
    {
     "is_this_ptr" : true,
     "referenced_type" : "type-302"
    },
    {
     "referenced_type" : "type-1550"
    }
   ],
   "return_type" : "type-723",
   "source_file" : "/out/soong/.intermediates/hardware/interfaces/gnss/2.0/android.hardware.gnss@2.0_genc++_headers/gen/android/hardware/gnss/2.0/IGnssMeasurement.h"
  },
  {
   "function_name" : "android::hardware::gnss::V2_0::IGnssMeasurement::interfaceChain",
   "linker_set_key" : "_ZN7android8hardware4gnss4V2_016IGnssMeasurement14interfaceChainENSt3__18functionIFvRKNS0_8hidl_vecINS0_11hidl_stringEEEEEE",
   "parameters" :
   [
    {
     "is_this_ptr" : true,
     "referenced_type" : "type-302"
    },
    {
     "referenced_type" : "type-2836"
    }
   ],
   "return_type" : "type-920",
   "source_file" : "/out/soong/.intermediates/hardware/interfaces/gnss/2.0/android.hardware.gnss@2.0_genc++_headers/gen/android/hardware/gnss/2.0/IGnssMeasurement.h"
  },
  {
   "function_name" : "android::hardware::gnss::V2_0::IGnssMeasurement::registerAsService",
   "linker_set_key" : "_ZN7android8hardware4gnss4V2_016IGnssMeasurement17registerAsServiceERKNSt3__112basic_stringIcNS4_11char_traitsIcEENS4_9allocatorIcEEEE",
   "parameters" :
   [
    {
     "is_this_ptr" : true,
     "referenced_type" : "type-302"
    },
    {
     "default_arg" : true,
     "referenced_type" : "type-2580"
    }
   ],
   "return_type" : "type-20",
   "source_file" : "/out/soong/.intermediates/hardware/interfaces/gnss/2.0/android.hardware.gnss@2.0_genc++_headers/gen/android/hardware/gnss/2.0/IGnssMeasurement.h"
  },
  {
   "function_name" : "android::hardware::gnss::V2_0::IGnssMeasurement::interfaceDescriptor",
   "linker_set_key" : "_ZN7android8hardware4gnss4V2_016IGnssMeasurement19interfaceDescriptorENSt3__18functionIFvRKNS0_11hidl_stringEEEE",
   "parameters" :
   [
    {
     "is_this_ptr" : true,
     "referenced_type" : "type-302"
    },
    {
     "referenced_type" : "type-2837"
    }
   ],
   "return_type" : "type-920",
   "source_file" : "/out/soong/.intermediates/hardware/interfaces/gnss/2.0/android.hardware.gnss@2.0_genc++_headers/gen/android/hardware/gnss/2.0/IGnssMeasurement.h"
  },
  {
   "function_name" : "android::hardware::gnss::V2_0::IGnssMeasurement::notifySyspropsChanged",
   "linker_set_key" : "_ZN7android8hardware4gnss4V2_016IGnssMeasurement21notifySyspropsChangedEv",
   "parameters" :
   [
    {
     "is_this_ptr" : true,
     "referenced_type" : "type-302"
    }
   ],
   "return_type" : "type-920",
   "source_file" : "/out/soong/.intermediates/hardware/interfaces/gnss/2.0/android.hardware.gnss@2.0_genc++_headers/gen/android/hardware/gnss/2.0/IGnssMeasurement.h"
  },
  {
   "function_name" : "android::hardware::gnss::V2_0::IGnssMeasurement::setHALInstrumentation",
   "linker_set_key" : "_ZN7android8hardware4gnss4V2_016IGnssMeasurement21setHALInstrumentationEv",
   "parameters" :
   [
    {
     "is_this_ptr" : true,
     "referenced_type" : "type-302"
    }
   ],
   "return_type" : "type-920",
   "source_file" : "/out/soong/.intermediates/hardware/interfaces/gnss/2.0/android.hardware.gnss@2.0_genc++_headers/gen/android/hardware/gnss/2.0/IGnssMeasurement.h"
  },
  {
   "function_name" : "android::hardware::gnss::V2_0::IGnssMeasurement::registerForNotifications",
   "linker_set_key" : "_ZN7android8hardware4gnss4V2_016IGnssMeasurement24registerForNotificationsERKNSt3__112basic_stringIcNS4_11char_traitsIcEENS4_9allocatorIcEEEERKNS_2spINS_4hidl7manager4V1_020IServiceNotificationEEE",
   "parameters" :
   [
    {
     "referenced_type" : "type-2580"
    },
    {
     "referenced_type" : "type-2237"
    }
   ],
   "return_type" : "type-34",
   "source_file" : "/out/soong/.intermediates/hardware/interfaces/gnss/2.0/android.hardware.gnss@2.0_genc++_headers/gen/android/hardware/gnss/2.0/IGnssMeasurement.h"
  },
  {
   "function_name" : "android::hardware::gnss::V2_0::IGnssMeasurement::ping",
   "linker_set_key" : "_ZN7android8hardware4gnss4V2_016IGnssMeasurement4pingEv",
   "parameters" :
   [
    {
     "is_this_ptr" : true,
     "referenced_type" : "type-302"
    }
   ],
   "return_type" : "type-920",
   "source_file" : "/out/soong/.intermediates/hardware/interfaces/gnss/2.0/android.hardware.gnss@2.0_genc++_headers/gen/android/hardware/gnss/2.0/IGnssMeasurement.h"
  },
  {
   "function_name" : "android::hardware::gnss::V2_0::IGnssMeasurement::debug",
   "linker_set_key" : "_ZN7android8hardware4gnss4V2_016IGnssMeasurement5debugERKNS0_11hidl_handleERKNS0_8hidl_vecINS0_11hidl_stringEEE",
   "parameters" :
   [
    {
     "is_this_ptr" : true,
     "referenced_type" : "type-302"
    },
    {
     "referenced_type" : "type-1777"
    },
    {
     "referenced_type" : "type-2236"
    }
   ],
   "return_type" : "type-920",
   "source_file" : "/out/soong/.intermediates/hardware/interfaces/gnss/2.0/android.hardware.gnss@2.0_genc++_headers/gen/android/hardware/gnss/2.0/IGnssMeasurement.h"
  },
  {
   "function_name" : "android::hardware::gnss::V2_0::IGnssMeasurement::castFrom",
   "linker_set_key" : "_ZN7android8hardware4gnss4V2_016IGnssMeasurement8castFromERKNS_2spINS1_4V1_016IGnssMeasurementEEEb",
   "parameters" :
   [
    {
     "referenced_type" : "type-1019"
    },
    {
     "default_arg" : true,
     "referenced_type" : "type-34"
    }
   ],
   "return_type" : "type-1388",
   "source_file" : "/out/soong/.intermediates/hardware/interfaces/gnss/2.0/android.hardware.gnss@2.0_genc++_headers/gen/android/hardware/gnss/2.0/IGnssMeasurement.h"
  },
  {
   "function_name" : "android::hardware::gnss::V2_0::IGnssMeasurement::castFrom",
   "linker_set_key" : "_ZN7android8hardware4gnss4V2_016IGnssMeasurement8castFromERKNS_2spINS1_4V1_116IGnssMeasurementEEEb",
   "parameters" :
   [
    {
     "referenced_type" : "type-1035"
    },
    {
     "default_arg" : true,
     "referenced_type" : "type-34"
    }
   ],
   "return_type" : "type-1388",
   "source_file" : "/out/soong/.intermediates/hardware/interfaces/gnss/2.0/android.hardware.gnss@2.0_genc++_headers/gen/android/hardware/gnss/2.0/IGnssMeasurement.h"
  },
  {
   "function_name" : "android::hardware::gnss::V2_0::IGnssMeasurement::castFrom",
   "linker_set_key" : "_ZN7android8hardware4gnss4V2_016IGnssMeasurement8castFromERKNS_2spINS_4hidl4base4V1_05IBaseEEEb",
   "parameters" :
   [
    {
     "referenced_type" : "type-2325"
    },
    {
     "default_arg" : true,
     "referenced_type" : "type-34"
    }
   ],
   "return_type" : "type-1388",
   "source_file" : "/out/soong/.intermediates/hardware/interfaces/gnss/2.0/android.hardware.gnss@2.0_genc++_headers/gen/android/hardware/gnss/2.0/IGnssMeasurement.h"
  },
  {
   "function_name" : "android::hardware::gnss::V2_0::IGnssMeasurement::castFrom",
   "linker_set_key" : "_ZN7android8hardware4gnss4V2_016IGnssMeasurement8castFromERKNS_2spIS3_EEb",
   "parameters" :
   [
    {
     "referenced_type" : "type-1043"
    },
    {
     "default_arg" : true,
     "referenced_type" : "type-34"
    }
   ],
   "return_type" : "type-1388",
   "source_file" : "/out/soong/.intermediates/hardware/interfaces/gnss/2.0/android.hardware.gnss@2.0_genc++_headers/gen/android/hardware/gnss/2.0/IGnssMeasurement.h"
  },
  {
   "function_name" : "android::hardware::gnss::V2_0::BnHwAGnssCallback::onTransact",
   "linker_set_key" : "_ZN7android8hardware4gnss4V2_017BnHwAGnssCallback10onTransactEjRKNS0_6ParcelEPS4_jNSt3__18functionIFvRS4_EEE",
   "parameters" :
   [
    {
     "is_this_ptr" : true,
     "referenced_type" : "type-2255"
    },
    {
     "referenced_type" : "type-2"
    },
    {
     "referenced_type" : "type-1881"
    },
    {
     "referenced_type" : "type-1852"
    },
    {
     "default_arg" : true,
     "referenced_type" : "type-2"
    },
    {
     "default_arg" : true,
     "referenced_type" : "type-2838"
    }
   ],
   "return_type" : "type-20",
   "source_file" : "/out/soong/.intermediates/hardware/interfaces/gnss/2.0/android.hardware.gnss@2.0_genc++_headers/gen/android/hardware/gnss/2.0/BnHwAGnssCallback.h"
  },
  {
   "access" : "private",
   "function_name" : "android::hardware::gnss::V2_0::BnHwAGnssCallback::getDebugInfo",
   "linker_set_key" : "_ZN7android8hardware4gnss4V2_017BnHwAGnssCallback12getDebugInfoENSt3__18functionIFvRKNS_4hidl4base4V1_09DebugInfoEEEE",
   "parameters" :
   [
    {
     "is_this_ptr" : true,
     "referenced_type" : "type-2255"
    },
    {
     "referenced_type" : "type-2839"
    }
   ],
   "return_type" : "type-920",
   "source_file" : "/out/soong/.intermediates/hardware/interfaces/gnss/2.0/android.hardware.gnss@2.0_genc++_headers/gen/android/hardware/gnss/2.0/BnHwAGnssCallback.h"
  },
  {
   "function_name" : "android::hardware::gnss::V2_0::BnHwAGnssCallback::_hidl_agnssStatusCb",
   "linker_set_key" : "_ZN7android8hardware4gnss4V2_017BnHwAGnssCallback19_hidl_agnssStatusCbEPNS_4hidl4base4V1_08BnHwBaseERKNS0_6ParcelEPS9_NSt3__18functionIFvRS9_EEE",
   "parameters" :
   [
    {
     "referenced_type" : "type-1882"
    },
    {
     "referenced_type" : "type-1881"
    },
    {
     "referenced_type" : "type-1852"
    },
    {
     "referenced_type" : "type-2840"
    }
   ],
   "return_type" : "type-20",
   "source_file" : "/out/soong/.intermediates/hardware/interfaces/gnss/2.0/android.hardware.gnss@2.0_genc++_headers/gen/android/hardware/gnss/2.0/BnHwAGnssCallback.h"
  },
  {
   "access" : "private",
   "function_name" : "android::hardware::gnss::V2_0::BnHwAGnssCallback::ping",
   "linker_set_key" : "_ZN7android8hardware4gnss4V2_017BnHwAGnssCallback4pingEv",
   "parameters" :
   [
    {
     "is_this_ptr" : true,
     "referenced_type" : "type-2255"
    }
   ],
   "return_type" : "type-920",
   "source_file" : "/out/soong/.intermediates/hardware/interfaces/gnss/2.0/android.hardware.gnss@2.0_genc++_headers/gen/android/hardware/gnss/2.0/BnHwAGnssCallback.h"
  },
  {
   "function_name" : "android::hardware::gnss::V2_0::BnHwAGnssCallback::BnHwAGnssCallback",
   "linker_set_key" : "_ZN7android8hardware4gnss4V2_017BnHwAGnssCallbackC1ERKNS_2spINS2_14IAGnssCallbackEEE",
   "parameters" :
   [
    {
     "is_this_ptr" : true,
     "referenced_type" : "type-2255"
    },
    {
     "referenced_type" : "type-2730"
    }
   ],
   "return_type" : "type-22",
   "source_file" : "/out/soong/.intermediates/hardware/interfaces/gnss/2.0/android.hardware.gnss@2.0_genc++_headers/gen/android/hardware/gnss/2.0/BnHwAGnssCallback.h"
  },
  {
   "function_name" : "android::hardware::gnss::V2_0::BnHwAGnssCallback::BnHwAGnssCallback",
   "linker_set_key" : "_ZN7android8hardware4gnss4V2_017BnHwAGnssCallbackC2ERKNS_2spINS2_14IAGnssCallbackEEE",
   "parameters" :
   [
    {
     "is_this_ptr" : true,
     "referenced_type" : "type-2255"
    },
    {
     "referenced_type" : "type-2730"
    }
   ],
   "return_type" : "type-22",
   "source_file" : "/out/soong/.intermediates/hardware/interfaces/gnss/2.0/android.hardware.gnss@2.0_genc++_headers/gen/android/hardware/gnss/2.0/BnHwAGnssCallback.h"
  },
  {
   "function_name" : "android::hardware::gnss::V2_0::BnHwAGnssCallback::~BnHwAGnssCallback",
   "linker_set_key" : "_ZN7android8hardware4gnss4V2_017BnHwAGnssCallbackD0Ev",
   "parameters" :
   [
    {
     "is_this_ptr" : true,
     "referenced_type" : "type-2255"
    }
   ],
   "return_type" : "type-22",
   "source_file" : "/out/soong/.intermediates/hardware/interfaces/gnss/2.0/android.hardware.gnss@2.0_genc++_headers/gen/android/hardware/gnss/2.0/BnHwAGnssCallback.h"
  },
  {
   "function_name" : "android::hardware::gnss::V2_0::BnHwAGnssCallback::~BnHwAGnssCallback",
   "linker_set_key" : "_ZN7android8hardware4gnss4V2_017BnHwAGnssCallbackD1Ev",
   "parameters" :
   [
    {
     "is_this_ptr" : true,
     "referenced_type" : "type-2255"
    }
   ],
   "return_type" : "type-22",
   "source_file" : "/out/soong/.intermediates/hardware/interfaces/gnss/2.0/android.hardware.gnss@2.0_genc++_headers/gen/android/hardware/gnss/2.0/BnHwAGnssCallback.h"
  },
  {
   "function_name" : "android::hardware::gnss::V2_0::BnHwAGnssCallback::~BnHwAGnssCallback",
   "linker_set_key" : "_ZN7android8hardware4gnss4V2_017BnHwAGnssCallbackD2Ev",
   "parameters" :
   [
    {
     "is_this_ptr" : true,
     "referenced_type" : "type-2255"
    }
   ],
   "return_type" : "type-22",
   "source_file" : "/out/soong/.intermediates/hardware/interfaces/gnss/2.0/android.hardware.gnss@2.0_genc++_headers/gen/android/hardware/gnss/2.0/BnHwAGnssCallback.h"
  },
  {
   "function_name" : "android::hardware::gnss::V2_0::BpHwAGnssCallback::linkToDeath",
   "linker_set_key" : "_ZN7android8hardware4gnss4V2_017BpHwAGnssCallback11linkToDeathERKNS_2spINS0_20hidl_death_recipientEEEy",
   "parameters" :
   [
    {
     "is_this_ptr" : true,
     "referenced_type" : "type-427"
    },
    {
     "referenced_type" : "type-1550"
    },
    {
     "referenced_type" : "type-13"
    }
   ],
   "return_type" : "type-723",
   "source_file" : "/out/soong/.intermediates/hardware/interfaces/gnss/2.0/android.hardware.gnss@2.0_genc++_headers/gen/android/hardware/gnss/2.0/BpHwAGnssCallback.h"
  },
  {
   "function_name" : "android::hardware::gnss::V2_0::BpHwAGnssCallback::getDebugInfo",
   "linker_set_key" : "_ZN7android8hardware4gnss4V2_017BpHwAGnssCallback12getDebugInfoENSt3__18functionIFvRKNS_4hidl4base4V1_09DebugInfoEEEE",
   "parameters" :
   [
    {
     "is_this_ptr" : true,
     "referenced_type" : "type-427"
    },
    {
     "referenced_type" : "type-2841"
    }
   ],
   "return_type" : "type-920",
   "source_file" : "/out/soong/.intermediates/hardware/interfaces/gnss/2.0/android.hardware.gnss@2.0_genc++_headers/gen/android/hardware/gnss/2.0/BpHwAGnssCallback.h"
  },
  {
   "function_name" : "android::hardware::gnss::V2_0::BpHwAGnssCallback::getHashChain",
   "linker_set_key" : "_ZN7android8hardware4gnss4V2_017BpHwAGnssCallback12getHashChainENSt3__18functionIFvRKNS0_8hidl_vecINS0_10hidl_arrayIhLj32EJEEEEEEEE",
   "parameters" :
   [
    {
     "is_this_ptr" : true,
     "referenced_type" : "type-427"
    },
    {
     "referenced_type" : "type-2842"
    }
   ],
   "return_type" : "type-920",
   "source_file" : "/out/soong/.intermediates/hardware/interfaces/gnss/2.0/android.hardware.gnss@2.0_genc++_headers/gen/android/hardware/gnss/2.0/BpHwAGnssCallback.h"
  },
  {
   "function_name" : "android::hardware::gnss::V2_0::BpHwAGnssCallback::agnssStatusCb",
   "linker_set_key" : "_ZN7android8hardware4gnss4V2_017BpHwAGnssCallback13agnssStatusCbENS2_14IAGnssCallback9AGnssTypeENS4_16AGnssStatusValueE",
   "parameters" :
   [
    {
     "is_this_ptr" : true,
     "referenced_type" : "type-427"
    },
    {
     "referenced_type" : "type-2201"
    },
    {
     "referenced_type" : "type-2202"
    }
   ],
   "return_type" : "type-920",
   "source_file" : "/out/soong/.intermediates/hardware/interfaces/gnss/2.0/android.hardware.gnss@2.0_genc++_headers/gen/android/hardware/gnss/2.0/BpHwAGnssCallback.h"
  },
  {
   "function_name" : "android::hardware::gnss::V2_0::BpHwAGnssCallback::unlinkToDeath",
   "linker_set_key" : "_ZN7android8hardware4gnss4V2_017BpHwAGnssCallback13unlinkToDeathERKNS_2spINS0_20hidl_death_recipientEEE",
   "parameters" :
   [
    {
     "is_this_ptr" : true,
     "referenced_type" : "type-427"
    },
    {
     "referenced_type" : "type-1550"
    }
   ],
   "return_type" : "type-723",
   "source_file" : "/out/soong/.intermediates/hardware/interfaces/gnss/2.0/android.hardware.gnss@2.0_genc++_headers/gen/android/hardware/gnss/2.0/BpHwAGnssCallback.h"
  },
  {
   "function_name" : "android::hardware::gnss::V2_0::BpHwAGnssCallback::interfaceChain",
   "linker_set_key" : "_ZN7android8hardware4gnss4V2_017BpHwAGnssCallback14interfaceChainENSt3__18functionIFvRKNS0_8hidl_vecINS0_11hidl_stringEEEEEE",
   "parameters" :
   [
    {
     "is_this_ptr" : true,
     "referenced_type" : "type-427"
    },
    {
     "referenced_type" : "type-2843"
    }
   ],
   "return_type" : "type-920",
   "source_file" : "/out/soong/.intermediates/hardware/interfaces/gnss/2.0/android.hardware.gnss@2.0_genc++_headers/gen/android/hardware/gnss/2.0/BpHwAGnssCallback.h"
  },
  {
   "function_name" : "android::hardware::gnss::V2_0::BpHwAGnssCallback::_hidl_agnssStatusCb",
   "linker_set_key" : "_ZN7android8hardware4gnss4V2_017BpHwAGnssCallback19_hidl_agnssStatusCbEPNS0_10IInterfaceEPNS0_7details16HidlInstrumentorENS2_14IAGnssCallback9AGnssTypeENS9_16AGnssStatusValueE",
   "parameters" :
   [
    {
     "referenced_type" : "type-2752"
    },
    {
     "referenced_type" : "type-2283"
    },
    {
     "referenced_type" : "type-2201"
    },
    {
     "referenced_type" : "type-2202"
    }
   ],
   "return_type" : "type-920",
   "source_file" : "/out/soong/.intermediates/hardware/interfaces/gnss/2.0/android.hardware.gnss@2.0_genc++_headers/gen/android/hardware/gnss/2.0/BpHwAGnssCallback.h"
  },
  {
   "function_name" : "android::hardware::gnss::V2_0::BpHwAGnssCallback::interfaceDescriptor",
   "linker_set_key" : "_ZN7android8hardware4gnss4V2_017BpHwAGnssCallback19interfaceDescriptorENSt3__18functionIFvRKNS0_11hidl_stringEEEE",
   "parameters" :
   [
    {
     "is_this_ptr" : true,
     "referenced_type" : "type-427"
    },
    {
     "referenced_type" : "type-2844"
    }
   ],
   "return_type" : "type-920",
   "source_file" : "/out/soong/.intermediates/hardware/interfaces/gnss/2.0/android.hardware.gnss@2.0_genc++_headers/gen/android/hardware/gnss/2.0/BpHwAGnssCallback.h"
  },
  {
   "function_name" : "android::hardware::gnss::V2_0::BpHwAGnssCallback::notifySyspropsChanged",
   "linker_set_key" : "_ZN7android8hardware4gnss4V2_017BpHwAGnssCallback21notifySyspropsChangedEv",
   "parameters" :
   [
    {
     "is_this_ptr" : true,
     "referenced_type" : "type-427"
    }
   ],
   "return_type" : "type-920",
   "source_file" : "/out/soong/.intermediates/hardware/interfaces/gnss/2.0/android.hardware.gnss@2.0_genc++_headers/gen/android/hardware/gnss/2.0/BpHwAGnssCallback.h"
  },
  {
   "function_name" : "android::hardware::gnss::V2_0::BpHwAGnssCallback::setHALInstrumentation",
   "linker_set_key" : "_ZN7android8hardware4gnss4V2_017BpHwAGnssCallback21setHALInstrumentationEv",
   "parameters" :
   [
    {
     "is_this_ptr" : true,
     "referenced_type" : "type-427"
    }
   ],
   "return_type" : "type-920",
   "source_file" : "/out/soong/.intermediates/hardware/interfaces/gnss/2.0/android.hardware.gnss@2.0_genc++_headers/gen/android/hardware/gnss/2.0/BpHwAGnssCallback.h"
  },
  {
   "function_name" : "android::hardware::gnss::V2_0::BpHwAGnssCallback::ping",
   "linker_set_key" : "_ZN7android8hardware4gnss4V2_017BpHwAGnssCallback4pingEv",
   "parameters" :
   [
    {
     "is_this_ptr" : true,
     "referenced_type" : "type-427"
    }
   ],
   "return_type" : "type-920",
   "source_file" : "/out/soong/.intermediates/hardware/interfaces/gnss/2.0/android.hardware.gnss@2.0_genc++_headers/gen/android/hardware/gnss/2.0/BpHwAGnssCallback.h"
  },
  {
   "function_name" : "android::hardware::gnss::V2_0::BpHwAGnssCallback::debug",
   "linker_set_key" : "_ZN7android8hardware4gnss4V2_017BpHwAGnssCallback5debugERKNS0_11hidl_handleERKNS0_8hidl_vecINS0_11hidl_stringEEE",
   "parameters" :
   [
    {
     "is_this_ptr" : true,
     "referenced_type" : "type-427"
    },
    {
     "referenced_type" : "type-1777"
    },
    {
     "referenced_type" : "type-2236"
    }
   ],
   "return_type" : "type-920",
   "source_file" : "/out/soong/.intermediates/hardware/interfaces/gnss/2.0/android.hardware.gnss@2.0_genc++_headers/gen/android/hardware/gnss/2.0/BpHwAGnssCallback.h"
  },
  {
   "function_name" : "android::hardware::gnss::V2_0::BpHwAGnssCallback::BpHwAGnssCallback",
   "linker_set_key" : "_ZN7android8hardware4gnss4V2_017BpHwAGnssCallbackC1ERKNS_2spINS0_7IBinderEEE",
   "parameters" :
   [
    {
     "is_this_ptr" : true,
     "referenced_type" : "type-427"
    },
    {
     "referenced_type" : "type-43"
    }
   ],
   "return_type" : "type-22",
   "source_file" : "/out/soong/.intermediates/hardware/interfaces/gnss/2.0/android.hardware.gnss@2.0_genc++_headers/gen/android/hardware/gnss/2.0/BpHwAGnssCallback.h"
  },
  {
   "function_name" : "android::hardware::gnss::V2_0::BpHwAGnssCallback::BpHwAGnssCallback",
   "linker_set_key" : "_ZN7android8hardware4gnss4V2_017BpHwAGnssCallbackC2ERKNS_2spINS0_7IBinderEEE",
   "parameters" :
   [
    {
     "is_this_ptr" : true,
     "referenced_type" : "type-427"
    },
    {
     "referenced_type" : "type-43"
    }
   ],
   "return_type" : "type-22",
   "source_file" : "/out/soong/.intermediates/hardware/interfaces/gnss/2.0/android.hardware.gnss@2.0_genc++_headers/gen/android/hardware/gnss/2.0/BpHwAGnssCallback.h"
  },
  {
   "access" : "private",
   "function_name" : "android::hardware::gnss::V2_0::BsGnssMeasurement::addOnewayTask",
   "linker_set_key" : "_ZN7android8hardware4gnss4V2_017BsGnssMeasurement13addOnewayTaskENSt3__18functionIFvvEEE",
   "parameters" :
   [
    {
     "is_this_ptr" : true,
     "referenced_type" : "type-2541"
    },
    {
     "referenced_type" : "type-2847"
    }
   ],
   "return_type" : "type-920",
   "source_file" : "/out/soong/.intermediates/hardware/interfaces/gnss/2.0/android.hardware.gnss@2.0_genc++_headers/gen/android/hardware/gnss/2.0/BsGnssMeasurement.h"
  },
  {
   "function_name" : "android::hardware::gnss::V2_0::BsGnssMeasurement::BsGnssMeasurement",
   "linker_set_key" : "_ZN7android8hardware4gnss4V2_017BsGnssMeasurementC1ENS_2spINS2_16IGnssMeasurementEEE",
   "parameters" :
   [
    {
     "is_this_ptr" : true,
     "referenced_type" : "type-2541"
    },
    {
     "referenced_type" : "type-1042"
    }
   ],
   "return_type" : "type-22",
   "source_file" : "/out/soong/.intermediates/hardware/interfaces/gnss/2.0/android.hardware.gnss@2.0_genc++_headers/gen/android/hardware/gnss/2.0/BsGnssMeasurement.h"
  },
  {
   "function_name" : "android::hardware::gnss::V2_0::BsGnssMeasurement::BsGnssMeasurement",
   "linker_set_key" : "_ZN7android8hardware4gnss4V2_017BsGnssMeasurementC2ENS_2spINS2_16IGnssMeasurementEEE",
   "parameters" :
   [
    {
     "is_this_ptr" : true,
     "referenced_type" : "type-2541"
    },
    {
     "referenced_type" : "type-1042"
    }
   ],
   "return_type" : "type-22",
   "source_file" : "/out/soong/.intermediates/hardware/interfaces/gnss/2.0/android.hardware.gnss@2.0_genc++_headers/gen/android/hardware/gnss/2.0/BsGnssMeasurement.h"
  },
  {
   "function_name" : "android::hardware::gnss::V2_0::IGnssConfiguration::getService",
   "linker_set_key" : "_ZN7android8hardware4gnss4V2_018IGnssConfiguration10getServiceERKNSt3__112basic_stringIcNS4_11char_traitsIcEENS4_9allocatorIcEEEEb",
   "parameters" :
   [
    {
     "default_arg" : true,
     "referenced_type" : "type-2452"
    },
    {
     "default_arg" : true,
     "referenced_type" : "type-34"
    }
   ],
   "return_type" : "type-295",
   "source_file" : "/out/soong/.intermediates/hardware/interfaces/gnss/2.0/android.hardware.gnss@2.0_genc++_headers/gen/android/hardware/gnss/2.0/IGnssConfiguration.h"
  },
  {
   "function_name" : "android::hardware::gnss::V2_0::IGnssConfiguration::linkToDeath",
   "linker_set_key" : "_ZN7android8hardware4gnss4V2_018IGnssConfiguration11linkToDeathERKNS_2spINS0_20hidl_death_recipientEEEy",
   "parameters" :
   [
    {
     "is_this_ptr" : true,
     "referenced_type" : "type-296"
    },
    {
     "referenced_type" : "type-1550"
    },
    {
     "referenced_type" : "type-13"
    }
   ],
   "return_type" : "type-723",
   "source_file" : "/out/soong/.intermediates/hardware/interfaces/gnss/2.0/android.hardware.gnss@2.0_genc++_headers/gen/android/hardware/gnss/2.0/IGnssConfiguration.h"
  },
  {
   "function_name" : "android::hardware::gnss::V2_0::IGnssConfiguration::getDebugInfo",
   "linker_set_key" : "_ZN7android8hardware4gnss4V2_018IGnssConfiguration12getDebugInfoENSt3__18functionIFvRKNS_4hidl4base4V1_09DebugInfoEEEE",
   "parameters" :
   [
    {
     "is_this_ptr" : true,
     "referenced_type" : "type-296"
    },
    {
     "referenced_type" : "type-2850"
    }
   ],
   "return_type" : "type-920",
   "source_file" : "/out/soong/.intermediates/hardware/interfaces/gnss/2.0/android.hardware.gnss@2.0_genc++_headers/gen/android/hardware/gnss/2.0/IGnssConfiguration.h"
  },
  {
   "function_name" : "android::hardware::gnss::V2_0::IGnssConfiguration::getHashChain",
   "linker_set_key" : "_ZN7android8hardware4gnss4V2_018IGnssConfiguration12getHashChainENSt3__18functionIFvRKNS0_8hidl_vecINS0_10hidl_arrayIhLj32EJEEEEEEEE",
   "parameters" :
   [
    {
     "is_this_ptr" : true,
     "referenced_type" : "type-296"
    },
    {
     "referenced_type" : "type-2851"
    }
   ],
   "return_type" : "type-920",
   "source_file" : "/out/soong/.intermediates/hardware/interfaces/gnss/2.0/android.hardware.gnss@2.0_genc++_headers/gen/android/hardware/gnss/2.0/IGnssConfiguration.h"
  },
  {
   "function_name" : "android::hardware::gnss::V2_0::IGnssConfiguration::tryGetService",
   "linker_set_key" : "_ZN7android8hardware4gnss4V2_018IGnssConfiguration13tryGetServiceERKNSt3__112basic_stringIcNS4_11char_traitsIcEENS4_9allocatorIcEEEEb",
   "parameters" :
   [
    {
     "default_arg" : true,
     "referenced_type" : "type-2452"
    },
    {
     "default_arg" : true,
     "referenced_type" : "type-34"
    }
   ],
   "return_type" : "type-295",
   "source_file" : "/out/soong/.intermediates/hardware/interfaces/gnss/2.0/android.hardware.gnss@2.0_genc++_headers/gen/android/hardware/gnss/2.0/IGnssConfiguration.h"
  },
  {
   "function_name" : "android::hardware::gnss::V2_0::IGnssConfiguration::unlinkToDeath",
   "linker_set_key" : "_ZN7android8hardware4gnss4V2_018IGnssConfiguration13unlinkToDeathERKNS_2spINS0_20hidl_death_recipientEEE",
   "parameters" :
   [
    {
     "is_this_ptr" : true,
     "referenced_type" : "type-296"
    },
    {
     "referenced_type" : "type-1550"
    }
   ],
   "return_type" : "type-723",
   "source_file" : "/out/soong/.intermediates/hardware/interfaces/gnss/2.0/android.hardware.gnss@2.0_genc++_headers/gen/android/hardware/gnss/2.0/IGnssConfiguration.h"
  },
  {
   "function_name" : "android::hardware::gnss::V2_0::IGnssConfiguration::interfaceChain",
   "linker_set_key" : "_ZN7android8hardware4gnss4V2_018IGnssConfiguration14interfaceChainENSt3__18functionIFvRKNS0_8hidl_vecINS0_11hidl_stringEEEEEE",
   "parameters" :
   [
    {
     "is_this_ptr" : true,
     "referenced_type" : "type-296"
    },
    {
     "referenced_type" : "type-2852"
    }
   ],
   "return_type" : "type-920",
   "source_file" : "/out/soong/.intermediates/hardware/interfaces/gnss/2.0/android.hardware.gnss@2.0_genc++_headers/gen/android/hardware/gnss/2.0/IGnssConfiguration.h"
  },
  {
   "function_name" : "android::hardware::gnss::V2_0::IGnssConfiguration::registerAsService",
   "linker_set_key" : "_ZN7android8hardware4gnss4V2_018IGnssConfiguration17registerAsServiceERKNSt3__112basic_stringIcNS4_11char_traitsIcEENS4_9allocatorIcEEEE",
   "parameters" :
   [
    {
     "is_this_ptr" : true,
     "referenced_type" : "type-296"
    },
    {
     "default_arg" : true,
     "referenced_type" : "type-2452"
    }
   ],
   "return_type" : "type-20",
   "source_file" : "/out/soong/.intermediates/hardware/interfaces/gnss/2.0/android.hardware.gnss@2.0_genc++_headers/gen/android/hardware/gnss/2.0/IGnssConfiguration.h"
  },
  {
   "function_name" : "android::hardware::gnss::V2_0::IGnssConfiguration::interfaceDescriptor",
   "linker_set_key" : "_ZN7android8hardware4gnss4V2_018IGnssConfiguration19interfaceDescriptorENSt3__18functionIFvRKNS0_11hidl_stringEEEE",
   "parameters" :
   [
    {
     "is_this_ptr" : true,
     "referenced_type" : "type-296"
    },
    {
     "referenced_type" : "type-2853"
    }
   ],
   "return_type" : "type-920",
   "source_file" : "/out/soong/.intermediates/hardware/interfaces/gnss/2.0/android.hardware.gnss@2.0_genc++_headers/gen/android/hardware/gnss/2.0/IGnssConfiguration.h"
  },
  {
   "function_name" : "android::hardware::gnss::V2_0::IGnssConfiguration::notifySyspropsChanged",
   "linker_set_key" : "_ZN7android8hardware4gnss4V2_018IGnssConfiguration21notifySyspropsChangedEv",
   "parameters" :
   [
    {
     "is_this_ptr" : true,
     "referenced_type" : "type-296"
    }
   ],
   "return_type" : "type-920",
   "source_file" : "/out/soong/.intermediates/hardware/interfaces/gnss/2.0/android.hardware.gnss@2.0_genc++_headers/gen/android/hardware/gnss/2.0/IGnssConfiguration.h"
  },
  {
   "function_name" : "android::hardware::gnss::V2_0::IGnssConfiguration::setHALInstrumentation",
   "linker_set_key" : "_ZN7android8hardware4gnss4V2_018IGnssConfiguration21setHALInstrumentationEv",
   "parameters" :
   [
    {
     "is_this_ptr" : true,
     "referenced_type" : "type-296"
    }
   ],
   "return_type" : "type-920",
   "source_file" : "/out/soong/.intermediates/hardware/interfaces/gnss/2.0/android.hardware.gnss@2.0_genc++_headers/gen/android/hardware/gnss/2.0/IGnssConfiguration.h"
  },
  {
   "function_name" : "android::hardware::gnss::V2_0::IGnssConfiguration::registerForNotifications",
   "linker_set_key" : "_ZN7android8hardware4gnss4V2_018IGnssConfiguration24registerForNotificationsERKNSt3__112basic_stringIcNS4_11char_traitsIcEENS4_9allocatorIcEEEERKNS_2spINS_4hidl7manager4V1_020IServiceNotificationEEE",
   "parameters" :
   [
    {
     "referenced_type" : "type-2452"
    },
    {
     "referenced_type" : "type-2237"
    }
   ],
   "return_type" : "type-34",
   "source_file" : "/out/soong/.intermediates/hardware/interfaces/gnss/2.0/android.hardware.gnss@2.0_genc++_headers/gen/android/hardware/gnss/2.0/IGnssConfiguration.h"
  },
  {
   "function_name" : "android::hardware::gnss::V2_0::IGnssConfiguration::ping",
   "linker_set_key" : "_ZN7android8hardware4gnss4V2_018IGnssConfiguration4pingEv",
   "parameters" :
   [
    {
     "is_this_ptr" : true,
     "referenced_type" : "type-296"
    }
   ],
   "return_type" : "type-920",
   "source_file" : "/out/soong/.intermediates/hardware/interfaces/gnss/2.0/android.hardware.gnss@2.0_genc++_headers/gen/android/hardware/gnss/2.0/IGnssConfiguration.h"
  },
  {
   "function_name" : "android::hardware::gnss::V2_0::IGnssConfiguration::debug",
   "linker_set_key" : "_ZN7android8hardware4gnss4V2_018IGnssConfiguration5debugERKNS0_11hidl_handleERKNS0_8hidl_vecINS0_11hidl_stringEEE",
   "parameters" :
   [
    {
     "is_this_ptr" : true,
     "referenced_type" : "type-296"
    },
    {
     "referenced_type" : "type-1777"
    },
    {
     "referenced_type" : "type-2236"
    }
   ],
   "return_type" : "type-920",
   "source_file" : "/out/soong/.intermediates/hardware/interfaces/gnss/2.0/android.hardware.gnss@2.0_genc++_headers/gen/android/hardware/gnss/2.0/IGnssConfiguration.h"
  },
  {
   "function_name" : "android::hardware::gnss::V2_0::IGnssConfiguration::castFrom",
   "linker_set_key" : "_ZN7android8hardware4gnss4V2_018IGnssConfiguration8castFromERKNS_2spINS1_4V1_018IGnssConfigurationEEEb",
   "parameters" :
   [
    {
     "referenced_type" : "type-1025"
    },
    {
     "default_arg" : true,
     "referenced_type" : "type-34"
    }
   ],
   "return_type" : "type-1375",
   "source_file" : "/out/soong/.intermediates/hardware/interfaces/gnss/2.0/android.hardware.gnss@2.0_genc++_headers/gen/android/hardware/gnss/2.0/IGnssConfiguration.h"
  },
  {
   "function_name" : "android::hardware::gnss::V2_0::IGnssConfiguration::castFrom",
   "linker_set_key" : "_ZN7android8hardware4gnss4V2_018IGnssConfiguration8castFromERKNS_2spINS1_4V1_118IGnssConfigurationEEEb",
   "parameters" :
   [
    {
     "referenced_type" : "type-1033"
    },
    {
     "default_arg" : true,
     "referenced_type" : "type-34"
    }
   ],
   "return_type" : "type-1375",
   "source_file" : "/out/soong/.intermediates/hardware/interfaces/gnss/2.0/android.hardware.gnss@2.0_genc++_headers/gen/android/hardware/gnss/2.0/IGnssConfiguration.h"
  },
  {
   "function_name" : "android::hardware::gnss::V2_0::IGnssConfiguration::castFrom",
   "linker_set_key" : "_ZN7android8hardware4gnss4V2_018IGnssConfiguration8castFromERKNS_2spINS_4hidl4base4V1_05IBaseEEEb",
   "parameters" :
   [
    {
     "referenced_type" : "type-2325"
    },
    {
     "default_arg" : true,
     "referenced_type" : "type-34"
    }
   ],
   "return_type" : "type-1375",
   "source_file" : "/out/soong/.intermediates/hardware/interfaces/gnss/2.0/android.hardware.gnss@2.0_genc++_headers/gen/android/hardware/gnss/2.0/IGnssConfiguration.h"
  },
  {
   "function_name" : "android::hardware::gnss::V2_0::IGnssConfiguration::castFrom",
   "linker_set_key" : "_ZN7android8hardware4gnss4V2_018IGnssConfiguration8castFromERKNS_2spIS3_EEb",
   "parameters" :
   [
    {
     "referenced_type" : "type-1039"
    },
    {
     "default_arg" : true,
     "referenced_type" : "type-34"
    }
   ],
   "return_type" : "type-1375",
   "source_file" : "/out/soong/.intermediates/hardware/interfaces/gnss/2.0/android.hardware.gnss@2.0_genc++_headers/gen/android/hardware/gnss/2.0/IGnssConfiguration.h"
  },
  {
   "function_name" : "android::hardware::gnss::V2_0::BnHwGnssMeasurement::onTransact",
   "linker_set_key" : "_ZN7android8hardware4gnss4V2_019BnHwGnssMeasurement10onTransactEjRKNS0_6ParcelEPS4_jNSt3__18functionIFvRS4_EEE",
   "parameters" :
   [
    {
     "is_this_ptr" : true,
     "referenced_type" : "type-982"
    },
    {
     "referenced_type" : "type-2"
    },
    {
     "referenced_type" : "type-1881"
    },
    {
     "referenced_type" : "type-1852"
    },
    {
     "default_arg" : true,
     "referenced_type" : "type-2"
    },
    {
     "default_arg" : true,
     "referenced_type" : "type-2854"
    }
   ],
   "return_type" : "type-20",
   "source_file" : "/out/soong/.intermediates/hardware/interfaces/gnss/2.0/android.hardware.gnss@2.0_genc++_headers/gen/android/hardware/gnss/2.0/BnHwGnssMeasurement.h"
  },
  {
   "access" : "private",
   "function_name" : "android::hardware::gnss::V2_0::BnHwGnssMeasurement::getDebugInfo",
   "linker_set_key" : "_ZN7android8hardware4gnss4V2_019BnHwGnssMeasurement12getDebugInfoENSt3__18functionIFvRKNS_4hidl4base4V1_09DebugInfoEEEE",
   "parameters" :
   [
    {
     "is_this_ptr" : true,
     "referenced_type" : "type-982"
    },
    {
     "referenced_type" : "type-2855"
    }
   ],
   "return_type" : "type-920",
   "source_file" : "/out/soong/.intermediates/hardware/interfaces/gnss/2.0/android.hardware.gnss@2.0_genc++_headers/gen/android/hardware/gnss/2.0/BnHwGnssMeasurement.h"
  },
  {
   "function_name" : "android::hardware::gnss::V2_0::BnHwGnssMeasurement::_hidl_setCallback_2_0",
   "linker_set_key" : "_ZN7android8hardware4gnss4V2_019BnHwGnssMeasurement21_hidl_setCallback_2_0EPNS_4hidl4base4V1_08BnHwBaseERKNS0_6ParcelEPS9_NSt3__18functionIFvRS9_EEE",
   "parameters" :
   [
    {
     "referenced_type" : "type-1882"
    },
    {
     "referenced_type" : "type-1881"
    },
    {
     "referenced_type" : "type-1852"
    },
    {
     "referenced_type" : "type-2856"
    }
   ],
   "return_type" : "type-20",
   "source_file" : "/out/soong/.intermediates/hardware/interfaces/gnss/2.0/android.hardware.gnss@2.0_genc++_headers/gen/android/hardware/gnss/2.0/BnHwGnssMeasurement.h"
  },
  {
   "access" : "private",
   "function_name" : "android::hardware::gnss::V2_0::BnHwGnssMeasurement::ping",
   "linker_set_key" : "_ZN7android8hardware4gnss4V2_019BnHwGnssMeasurement4pingEv",
   "parameters" :
   [
    {
     "is_this_ptr" : true,
     "referenced_type" : "type-982"
    }
   ],
   "return_type" : "type-920",
   "source_file" : "/out/soong/.intermediates/hardware/interfaces/gnss/2.0/android.hardware.gnss@2.0_genc++_headers/gen/android/hardware/gnss/2.0/BnHwGnssMeasurement.h"
  },
  {
   "function_name" : "android::hardware::gnss::V2_0::BnHwGnssMeasurement::BnHwGnssMeasurement",
   "linker_set_key" : "_ZN7android8hardware4gnss4V2_019BnHwGnssMeasurementC1ERKNS_2spINS2_16IGnssMeasurementEEE",
   "parameters" :
   [
    {
     "is_this_ptr" : true,
     "referenced_type" : "type-982"
    },
    {
     "referenced_type" : "type-1043"
    }
   ],
   "return_type" : "type-22",
   "source_file" : "/out/soong/.intermediates/hardware/interfaces/gnss/2.0/android.hardware.gnss@2.0_genc++_headers/gen/android/hardware/gnss/2.0/BnHwGnssMeasurement.h"
  },
  {
   "function_name" : "android::hardware::gnss::V2_0::BnHwGnssMeasurement::BnHwGnssMeasurement",
   "linker_set_key" : "_ZN7android8hardware4gnss4V2_019BnHwGnssMeasurementC2ERKNS_2spINS2_16IGnssMeasurementEEE",
   "parameters" :
   [
    {
     "is_this_ptr" : true,
     "referenced_type" : "type-982"
    },
    {
     "referenced_type" : "type-1043"
    }
   ],
   "return_type" : "type-22",
   "source_file" : "/out/soong/.intermediates/hardware/interfaces/gnss/2.0/android.hardware.gnss@2.0_genc++_headers/gen/android/hardware/gnss/2.0/BnHwGnssMeasurement.h"
  },
  {
   "function_name" : "android::hardware::gnss::V2_0::BnHwGnssMeasurement::~BnHwGnssMeasurement",
   "linker_set_key" : "_ZN7android8hardware4gnss4V2_019BnHwGnssMeasurementD0Ev",
   "parameters" :
   [
    {
     "is_this_ptr" : true,
     "referenced_type" : "type-982"
    }
   ],
   "return_type" : "type-22",
   "source_file" : "/out/soong/.intermediates/hardware/interfaces/gnss/2.0/android.hardware.gnss@2.0_genc++_headers/gen/android/hardware/gnss/2.0/BnHwGnssMeasurement.h"
  },
  {
   "function_name" : "android::hardware::gnss::V2_0::BnHwGnssMeasurement::~BnHwGnssMeasurement",
   "linker_set_key" : "_ZN7android8hardware4gnss4V2_019BnHwGnssMeasurementD1Ev",
   "parameters" :
   [
    {
     "is_this_ptr" : true,
     "referenced_type" : "type-982"
    }
   ],
   "return_type" : "type-22",
   "source_file" : "/out/soong/.intermediates/hardware/interfaces/gnss/2.0/android.hardware.gnss@2.0_genc++_headers/gen/android/hardware/gnss/2.0/BnHwGnssMeasurement.h"
  },
  {
   "function_name" : "android::hardware::gnss::V2_0::BnHwGnssMeasurement::~BnHwGnssMeasurement",
   "linker_set_key" : "_ZN7android8hardware4gnss4V2_019BnHwGnssMeasurementD2Ev",
   "parameters" :
   [
    {
     "is_this_ptr" : true,
     "referenced_type" : "type-982"
    }
   ],
   "return_type" : "type-22",
   "source_file" : "/out/soong/.intermediates/hardware/interfaces/gnss/2.0/android.hardware.gnss@2.0_genc++_headers/gen/android/hardware/gnss/2.0/BnHwGnssMeasurement.h"
  },
  {
   "function_name" : "android::hardware::gnss::V2_0::BpHwGnssMeasurement::linkToDeath",
   "linker_set_key" : "_ZN7android8hardware4gnss4V2_019BpHwGnssMeasurement11linkToDeathERKNS_2spINS0_20hidl_death_recipientEEEy",
   "parameters" :
   [
    {
     "is_this_ptr" : true,
     "referenced_type" : "type-1257"
    },
    {
     "referenced_type" : "type-1550"
    },
    {
     "referenced_type" : "type-13"
    }
   ],
   "return_type" : "type-723",
   "source_file" : "/out/soong/.intermediates/hardware/interfaces/gnss/2.0/android.hardware.gnss@2.0_genc++_headers/gen/android/hardware/gnss/2.0/BpHwGnssMeasurement.h"
  },
  {
   "function_name" : "android::hardware::gnss::V2_0::BpHwGnssMeasurement::setCallback",
   "linker_set_key" : "_ZN7android8hardware4gnss4V2_019BpHwGnssMeasurement11setCallbackERKNS_2spINS1_4V1_024IGnssMeasurementCallbackEEE",
   "parameters" :
   [
    {
     "is_this_ptr" : true,
     "referenced_type" : "type-1257"
    },
    {
     "referenced_type" : "type-1136"
    }
   ],
   "return_type" : "type-2552",
   "source_file" : "/out/soong/.intermediates/hardware/interfaces/gnss/2.0/android.hardware.gnss@2.0_genc++_headers/gen/android/hardware/gnss/2.0/BpHwGnssMeasurement.h"
  },
  {
   "function_name" : "android::hardware::gnss::V2_0::BpHwGnssMeasurement::getDebugInfo",
   "linker_set_key" : "_ZN7android8hardware4gnss4V2_019BpHwGnssMeasurement12getDebugInfoENSt3__18functionIFvRKNS_4hidl4base4V1_09DebugInfoEEEE",
   "parameters" :
   [
    {
     "is_this_ptr" : true,
     "referenced_type" : "type-1257"
    },
    {
     "referenced_type" : "type-2857"
    }
   ],
   "return_type" : "type-920",
   "source_file" : "/out/soong/.intermediates/hardware/interfaces/gnss/2.0/android.hardware.gnss@2.0_genc++_headers/gen/android/hardware/gnss/2.0/BpHwGnssMeasurement.h"
  },
  {
   "function_name" : "android::hardware::gnss::V2_0::BpHwGnssMeasurement::getHashChain",
   "linker_set_key" : "_ZN7android8hardware4gnss4V2_019BpHwGnssMeasurement12getHashChainENSt3__18functionIFvRKNS0_8hidl_vecINS0_10hidl_arrayIhLj32EJEEEEEEEE",
   "parameters" :
   [
    {
     "is_this_ptr" : true,
     "referenced_type" : "type-1257"
    },
    {
     "referenced_type" : "type-2858"
    }
   ],
   "return_type" : "type-920",
   "source_file" : "/out/soong/.intermediates/hardware/interfaces/gnss/2.0/android.hardware.gnss@2.0_genc++_headers/gen/android/hardware/gnss/2.0/BpHwGnssMeasurement.h"
  },
  {
   "function_name" : "android::hardware::gnss::V2_0::BpHwGnssMeasurement::unlinkToDeath",
   "linker_set_key" : "_ZN7android8hardware4gnss4V2_019BpHwGnssMeasurement13unlinkToDeathERKNS_2spINS0_20hidl_death_recipientEEE",
   "parameters" :
   [
    {
     "is_this_ptr" : true,
     "referenced_type" : "type-1257"
    },
    {
     "referenced_type" : "type-1550"
    }
   ],
   "return_type" : "type-723",
   "source_file" : "/out/soong/.intermediates/hardware/interfaces/gnss/2.0/android.hardware.gnss@2.0_genc++_headers/gen/android/hardware/gnss/2.0/BpHwGnssMeasurement.h"
  },
  {
   "function_name" : "android::hardware::gnss::V2_0::BpHwGnssMeasurement::interfaceChain",
   "linker_set_key" : "_ZN7android8hardware4gnss4V2_019BpHwGnssMeasurement14interfaceChainENSt3__18functionIFvRKNS0_8hidl_vecINS0_11hidl_stringEEEEEE",
   "parameters" :
   [
    {
     "is_this_ptr" : true,
     "referenced_type" : "type-1257"
    },
    {
     "referenced_type" : "type-2859"
    }
   ],
   "return_type" : "type-920",
   "source_file" : "/out/soong/.intermediates/hardware/interfaces/gnss/2.0/android.hardware.gnss@2.0_genc++_headers/gen/android/hardware/gnss/2.0/BpHwGnssMeasurement.h"
  },
  {
   "function_name" : "android::hardware::gnss::V2_0::BpHwGnssMeasurement::setCallback_1_1",
   "linker_set_key" : "_ZN7android8hardware4gnss4V2_019BpHwGnssMeasurement15setCallback_1_1ERKNS_2spINS1_4V1_124IGnssMeasurementCallbackEEEb",
   "parameters" :
   [
    {
     "is_this_ptr" : true,
     "referenced_type" : "type-1257"
    },
    {
     "referenced_type" : "type-1198"
    },
    {
     "referenced_type" : "type-34"
    }
   ],
   "return_type" : "type-2552",
   "source_file" : "/out/soong/.intermediates/hardware/interfaces/gnss/2.0/android.hardware.gnss@2.0_genc++_headers/gen/android/hardware/gnss/2.0/BpHwGnssMeasurement.h"
  },
  {
   "function_name" : "android::hardware::gnss::V2_0::BpHwGnssMeasurement::setCallback_2_0",
   "linker_set_key" : "_ZN7android8hardware4gnss4V2_019BpHwGnssMeasurement15setCallback_2_0ERKNS_2spINS2_24IGnssMeasurementCallbackEEEb",
   "parameters" :
   [
    {
     "is_this_ptr" : true,
     "referenced_type" : "type-1257"
    },
    {
     "referenced_type" : "type-1252"
    },
    {
     "referenced_type" : "type-34"
    }
   ],
   "return_type" : "type-2552",
   "source_file" : "/out/soong/.intermediates/hardware/interfaces/gnss/2.0/android.hardware.gnss@2.0_genc++_headers/gen/android/hardware/gnss/2.0/BpHwGnssMeasurement.h"
  },
  {
   "function_name" : "android::hardware::gnss::V2_0::BpHwGnssMeasurement::interfaceDescriptor",
   "linker_set_key" : "_ZN7android8hardware4gnss4V2_019BpHwGnssMeasurement19interfaceDescriptorENSt3__18functionIFvRKNS0_11hidl_stringEEEE",
   "parameters" :
   [
    {
     "is_this_ptr" : true,
     "referenced_type" : "type-1257"
    },
    {
     "referenced_type" : "type-2860"
    }
   ],
   "return_type" : "type-920",
   "source_file" : "/out/soong/.intermediates/hardware/interfaces/gnss/2.0/android.hardware.gnss@2.0_genc++_headers/gen/android/hardware/gnss/2.0/BpHwGnssMeasurement.h"
  },
  {
   "function_name" : "android::hardware::gnss::V2_0::BpHwGnssMeasurement::_hidl_setCallback_2_0",
   "linker_set_key" : "_ZN7android8hardware4gnss4V2_019BpHwGnssMeasurement21_hidl_setCallback_2_0EPNS0_10IInterfaceEPNS0_7details16HidlInstrumentorERKNS_2spINS2_24IGnssMeasurementCallbackEEEb",
   "parameters" :
   [
    {
     "referenced_type" : "type-2752"
    },
    {
     "referenced_type" : "type-2283"
    },
    {
     "referenced_type" : "type-1252"
    },
    {
     "referenced_type" : "type-34"
    }
   ],
   "return_type" : "type-2552",
   "source_file" : "/out/soong/.intermediates/hardware/interfaces/gnss/2.0/android.hardware.gnss@2.0_genc++_headers/gen/android/hardware/gnss/2.0/BpHwGnssMeasurement.h"
  },
  {
   "function_name" : "android::hardware::gnss::V2_0::BpHwGnssMeasurement::notifySyspropsChanged",
   "linker_set_key" : "_ZN7android8hardware4gnss4V2_019BpHwGnssMeasurement21notifySyspropsChangedEv",
   "parameters" :
   [
    {
     "is_this_ptr" : true,
     "referenced_type" : "type-1257"
    }
   ],
   "return_type" : "type-920",
   "source_file" : "/out/soong/.intermediates/hardware/interfaces/gnss/2.0/android.hardware.gnss@2.0_genc++_headers/gen/android/hardware/gnss/2.0/BpHwGnssMeasurement.h"
  },
  {
   "function_name" : "android::hardware::gnss::V2_0::BpHwGnssMeasurement::setHALInstrumentation",
   "linker_set_key" : "_ZN7android8hardware4gnss4V2_019BpHwGnssMeasurement21setHALInstrumentationEv",
   "parameters" :
   [
    {
     "is_this_ptr" : true,
     "referenced_type" : "type-1257"
    }
   ],
   "return_type" : "type-920",
   "source_file" : "/out/soong/.intermediates/hardware/interfaces/gnss/2.0/android.hardware.gnss@2.0_genc++_headers/gen/android/hardware/gnss/2.0/BpHwGnssMeasurement.h"
  },
  {
   "function_name" : "android::hardware::gnss::V2_0::BpHwGnssMeasurement::ping",
   "linker_set_key" : "_ZN7android8hardware4gnss4V2_019BpHwGnssMeasurement4pingEv",
   "parameters" :
   [
    {
     "is_this_ptr" : true,
     "referenced_type" : "type-1257"
    }
   ],
   "return_type" : "type-920",
   "source_file" : "/out/soong/.intermediates/hardware/interfaces/gnss/2.0/android.hardware.gnss@2.0_genc++_headers/gen/android/hardware/gnss/2.0/BpHwGnssMeasurement.h"
  },
  {
   "function_name" : "android::hardware::gnss::V2_0::BpHwGnssMeasurement::close",
   "linker_set_key" : "_ZN7android8hardware4gnss4V2_019BpHwGnssMeasurement5closeEv",
   "parameters" :
   [
    {
     "is_this_ptr" : true,
     "referenced_type" : "type-1257"
    }
   ],
   "return_type" : "type-920",
   "source_file" : "/out/soong/.intermediates/hardware/interfaces/gnss/2.0/android.hardware.gnss@2.0_genc++_headers/gen/android/hardware/gnss/2.0/BpHwGnssMeasurement.h"
  },
  {
   "function_name" : "android::hardware::gnss::V2_0::BpHwGnssMeasurement::debug",
   "linker_set_key" : "_ZN7android8hardware4gnss4V2_019BpHwGnssMeasurement5debugERKNS0_11hidl_handleERKNS0_8hidl_vecINS0_11hidl_stringEEE",
   "parameters" :
   [
    {
     "is_this_ptr" : true,
     "referenced_type" : "type-1257"
    },
    {
     "referenced_type" : "type-1777"
    },
    {
     "referenced_type" : "type-2236"
    }
   ],
   "return_type" : "type-920",
   "source_file" : "/out/soong/.intermediates/hardware/interfaces/gnss/2.0/android.hardware.gnss@2.0_genc++_headers/gen/android/hardware/gnss/2.0/BpHwGnssMeasurement.h"
  },
  {
   "function_name" : "android::hardware::gnss::V2_0::BpHwGnssMeasurement::BpHwGnssMeasurement",
   "linker_set_key" : "_ZN7android8hardware4gnss4V2_019BpHwGnssMeasurementC1ERKNS_2spINS0_7IBinderEEE",
   "parameters" :
   [
    {
     "is_this_ptr" : true,
     "referenced_type" : "type-1257"
    },
    {
     "referenced_type" : "type-43"
    }
   ],
   "return_type" : "type-22",
   "source_file" : "/out/soong/.intermediates/hardware/interfaces/gnss/2.0/android.hardware.gnss@2.0_genc++_headers/gen/android/hardware/gnss/2.0/BpHwGnssMeasurement.h"
  },
  {
   "function_name" : "android::hardware::gnss::V2_0::BpHwGnssMeasurement::BpHwGnssMeasurement",
   "linker_set_key" : "_ZN7android8hardware4gnss4V2_019BpHwGnssMeasurementC2ERKNS_2spINS0_7IBinderEEE",
   "parameters" :
   [
    {
     "is_this_ptr" : true,
     "referenced_type" : "type-1257"
    },
    {
     "referenced_type" : "type-43"
    }
   ],
   "return_type" : "type-22",
   "source_file" : "/out/soong/.intermediates/hardware/interfaces/gnss/2.0/android.hardware.gnss@2.0_genc++_headers/gen/android/hardware/gnss/2.0/BpHwGnssMeasurement.h"
  },
  {
   "access" : "private",
   "function_name" : "android::hardware::gnss::V2_0::BsGnssConfiguration::addOnewayTask",
   "linker_set_key" : "_ZN7android8hardware4gnss4V2_019BsGnssConfiguration13addOnewayTaskENSt3__18functionIFvvEEE",
   "parameters" :
   [
    {
     "is_this_ptr" : true,
     "referenced_type" : "type-2430"
    },
    {
     "referenced_type" : "type-2863"
    }
   ],
   "return_type" : "type-920",
   "source_file" : "/out/soong/.intermediates/hardware/interfaces/gnss/2.0/android.hardware.gnss@2.0_genc++_headers/gen/android/hardware/gnss/2.0/BsGnssConfiguration.h"
  },
  {
   "function_name" : "android::hardware::gnss::V2_0::BsGnssConfiguration::BsGnssConfiguration",
   "linker_set_key" : "_ZN7android8hardware4gnss4V2_019BsGnssConfigurationC1ENS_2spINS2_18IGnssConfigurationEEE",
   "parameters" :
   [
    {
     "is_this_ptr" : true,
     "referenced_type" : "type-2430"
    },
    {
     "referenced_type" : "type-1038"
    }
   ],
   "return_type" : "type-22",
   "source_file" : "/out/soong/.intermediates/hardware/interfaces/gnss/2.0/android.hardware.gnss@2.0_genc++_headers/gen/android/hardware/gnss/2.0/BsGnssConfiguration.h"
  },
  {
   "function_name" : "android::hardware::gnss::V2_0::BsGnssConfiguration::BsGnssConfiguration",
   "linker_set_key" : "_ZN7android8hardware4gnss4V2_019BsGnssConfigurationC2ENS_2spINS2_18IGnssConfigurationEEE",
   "parameters" :
   [
    {
     "is_this_ptr" : true,
     "referenced_type" : "type-2430"
    },
    {
     "referenced_type" : "type-1038"
    }
   ],
   "return_type" : "type-22",
   "source_file" : "/out/soong/.intermediates/hardware/interfaces/gnss/2.0/android.hardware.gnss@2.0_genc++_headers/gen/android/hardware/gnss/2.0/BsGnssConfiguration.h"
  },
  {
   "function_name" : "android::hardware::gnss::V2_0::BnHwGnssConfiguration::onTransact",
   "linker_set_key" : "_ZN7android8hardware4gnss4V2_021BnHwGnssConfiguration10onTransactEjRKNS0_6ParcelEPS4_jNSt3__18functionIFvRS4_EEE",
   "parameters" :
   [
    {
     "is_this_ptr" : true,
     "referenced_type" : "type-957"
    },
    {
     "referenced_type" : "type-2"
    },
    {
     "referenced_type" : "type-1881"
    },
    {
     "referenced_type" : "type-1852"
    },
    {
     "default_arg" : true,
     "referenced_type" : "type-2"
    },
    {
     "default_arg" : true,
     "referenced_type" : "type-2866"
    }
   ],
   "return_type" : "type-20",
   "source_file" : "/out/soong/.intermediates/hardware/interfaces/gnss/2.0/android.hardware.gnss@2.0_genc++_headers/gen/android/hardware/gnss/2.0/BnHwGnssConfiguration.h"
  },
  {
   "access" : "private",
   "function_name" : "android::hardware::gnss::V2_0::BnHwGnssConfiguration::getDebugInfo",
   "linker_set_key" : "_ZN7android8hardware4gnss4V2_021BnHwGnssConfiguration12getDebugInfoENSt3__18functionIFvRKNS_4hidl4base4V1_09DebugInfoEEEE",
   "parameters" :
   [
    {
     "is_this_ptr" : true,
     "referenced_type" : "type-957"
    },
    {
     "referenced_type" : "type-2867"
    }
   ],
   "return_type" : "type-920",
   "source_file" : "/out/soong/.intermediates/hardware/interfaces/gnss/2.0/android.hardware.gnss@2.0_genc++_headers/gen/android/hardware/gnss/2.0/BnHwGnssConfiguration.h"
  },
  {
   "function_name" : "android::hardware::gnss::V2_0::BnHwGnssConfiguration::_hidl_setEsExtensionSec",
   "linker_set_key" : "_ZN7android8hardware4gnss4V2_021BnHwGnssConfiguration23_hidl_setEsExtensionSecEPNS_4hidl4base4V1_08BnHwBaseERKNS0_6ParcelEPS9_NSt3__18functionIFvRS9_EEE",
   "parameters" :
   [
    {
     "referenced_type" : "type-1882"
    },
    {
     "referenced_type" : "type-1881"
    },
    {
     "referenced_type" : "type-1852"
    },
    {
     "referenced_type" : "type-2868"
    }
   ],
   "return_type" : "type-20",
   "source_file" : "/out/soong/.intermediates/hardware/interfaces/gnss/2.0/android.hardware.gnss@2.0_genc++_headers/gen/android/hardware/gnss/2.0/BnHwGnssConfiguration.h"
  },
  {
   "access" : "private",
   "function_name" : "android::hardware::gnss::V2_0::BnHwGnssConfiguration::ping",
   "linker_set_key" : "_ZN7android8hardware4gnss4V2_021BnHwGnssConfiguration4pingEv",
   "parameters" :
   [
    {
     "is_this_ptr" : true,
     "referenced_type" : "type-957"
    }
   ],
   "return_type" : "type-920",
   "source_file" : "/out/soong/.intermediates/hardware/interfaces/gnss/2.0/android.hardware.gnss@2.0_genc++_headers/gen/android/hardware/gnss/2.0/BnHwGnssConfiguration.h"
  },
  {
   "function_name" : "android::hardware::gnss::V2_0::BnHwGnssConfiguration::BnHwGnssConfiguration",
   "linker_set_key" : "_ZN7android8hardware4gnss4V2_021BnHwGnssConfigurationC1ERKNS_2spINS2_18IGnssConfigurationEEE",
   "parameters" :
   [
    {
     "is_this_ptr" : true,
     "referenced_type" : "type-957"
    },
    {
     "referenced_type" : "type-1039"
    }
   ],
   "return_type" : "type-22",
   "source_file" : "/out/soong/.intermediates/hardware/interfaces/gnss/2.0/android.hardware.gnss@2.0_genc++_headers/gen/android/hardware/gnss/2.0/BnHwGnssConfiguration.h"
  },
  {
   "function_name" : "android::hardware::gnss::V2_0::BnHwGnssConfiguration::BnHwGnssConfiguration",
   "linker_set_key" : "_ZN7android8hardware4gnss4V2_021BnHwGnssConfigurationC2ERKNS_2spINS2_18IGnssConfigurationEEE",
   "parameters" :
   [
    {
     "is_this_ptr" : true,
     "referenced_type" : "type-957"
    },
    {
     "referenced_type" : "type-1039"
    }
   ],
   "return_type" : "type-22",
   "source_file" : "/out/soong/.intermediates/hardware/interfaces/gnss/2.0/android.hardware.gnss@2.0_genc++_headers/gen/android/hardware/gnss/2.0/BnHwGnssConfiguration.h"
  },
  {
   "function_name" : "android::hardware::gnss::V2_0::BnHwGnssConfiguration::~BnHwGnssConfiguration",
   "linker_set_key" : "_ZN7android8hardware4gnss4V2_021BnHwGnssConfigurationD0Ev",
   "parameters" :
   [
    {
     "is_this_ptr" : true,
     "referenced_type" : "type-957"
    }
   ],
   "return_type" : "type-22",
   "source_file" : "/out/soong/.intermediates/hardware/interfaces/gnss/2.0/android.hardware.gnss@2.0_genc++_headers/gen/android/hardware/gnss/2.0/BnHwGnssConfiguration.h"
  },
  {
   "function_name" : "android::hardware::gnss::V2_0::BnHwGnssConfiguration::~BnHwGnssConfiguration",
   "linker_set_key" : "_ZN7android8hardware4gnss4V2_021BnHwGnssConfigurationD1Ev",
   "parameters" :
   [
    {
     "is_this_ptr" : true,
     "referenced_type" : "type-957"
    }
   ],
   "return_type" : "type-22",
   "source_file" : "/out/soong/.intermediates/hardware/interfaces/gnss/2.0/android.hardware.gnss@2.0_genc++_headers/gen/android/hardware/gnss/2.0/BnHwGnssConfiguration.h"
  },
  {
   "function_name" : "android::hardware::gnss::V2_0::BnHwGnssConfiguration::~BnHwGnssConfiguration",
   "linker_set_key" : "_ZN7android8hardware4gnss4V2_021BnHwGnssConfigurationD2Ev",
   "parameters" :
   [
    {
     "is_this_ptr" : true,
     "referenced_type" : "type-957"
    }
   ],
   "return_type" : "type-22",
   "source_file" : "/out/soong/.intermediates/hardware/interfaces/gnss/2.0/android.hardware.gnss@2.0_genc++_headers/gen/android/hardware/gnss/2.0/BnHwGnssConfiguration.h"
  },
  {
   "function_name" : "android::hardware::gnss::V2_0::BpHwGnssConfiguration::setGpsLock",
   "linker_set_key" : "_ZN7android8hardware4gnss4V2_021BpHwGnssConfiguration10setGpsLockEh",
   "parameters" :
   [
    {
     "is_this_ptr" : true,
     "referenced_type" : "type-1236"
    },
    {
     "referenced_type" : "type-130"
    }
   ],
   "return_type" : "type-723",
   "source_file" : "/out/soong/.intermediates/hardware/interfaces/gnss/2.0/android.hardware.gnss@2.0_genc++_headers/gen/android/hardware/gnss/2.0/BpHwGnssConfiguration.h"
  },
  {
   "function_name" : "android::hardware::gnss::V2_0::BpHwGnssConfiguration::linkToDeath",
   "linker_set_key" : "_ZN7android8hardware4gnss4V2_021BpHwGnssConfiguration11linkToDeathERKNS_2spINS0_20hidl_death_recipientEEEy",
   "parameters" :
   [
    {
     "is_this_ptr" : true,
     "referenced_type" : "type-1236"
    },
    {
     "referenced_type" : "type-1550"
    },
    {
     "referenced_type" : "type-13"
    }
   ],
   "return_type" : "type-723",
   "source_file" : "/out/soong/.intermediates/hardware/interfaces/gnss/2.0/android.hardware.gnss@2.0_genc++_headers/gen/android/hardware/gnss/2.0/BpHwGnssConfiguration.h"
  },
  {
   "function_name" : "android::hardware::gnss::V2_0::BpHwGnssConfiguration::setSuplMode",
   "linker_set_key" : "_ZN7android8hardware4gnss4V2_021BpHwGnssConfiguration11setSuplModeEh",
   "parameters" :
   [
    {
     "is_this_ptr" : true,
     "referenced_type" : "type-1236"
    },
    {
     "referenced_type" : "type-130"
    }
   ],
   "return_type" : "type-723",
   "source_file" : "/out/soong/.intermediates/hardware/interfaces/gnss/2.0/android.hardware.gnss@2.0_genc++_headers/gen/android/hardware/gnss/2.0/BpHwGnssConfiguration.h"
  },
  {
   "function_name" : "android::hardware::gnss::V2_0::BpHwGnssConfiguration::getDebugInfo",
   "linker_set_key" : "_ZN7android8hardware4gnss4V2_021BpHwGnssConfiguration12getDebugInfoENSt3__18functionIFvRKNS_4hidl4base4V1_09DebugInfoEEEE",
   "parameters" :
   [
    {
     "is_this_ptr" : true,
     "referenced_type" : "type-1236"
    },
    {
     "referenced_type" : "type-2869"
    }
   ],
   "return_type" : "type-920",
   "source_file" : "/out/soong/.intermediates/hardware/interfaces/gnss/2.0/android.hardware.gnss@2.0_genc++_headers/gen/android/hardware/gnss/2.0/BpHwGnssConfiguration.h"
  },
  {
   "function_name" : "android::hardware::gnss::V2_0::BpHwGnssConfiguration::getHashChain",
   "linker_set_key" : "_ZN7android8hardware4gnss4V2_021BpHwGnssConfiguration12getHashChainENSt3__18functionIFvRKNS0_8hidl_vecINS0_10hidl_arrayIhLj32EJEEEEEEEE",
   "parameters" :
   [
    {
     "is_this_ptr" : true,
     "referenced_type" : "type-1236"
    },
    {
     "referenced_type" : "type-2870"
    }
   ],
   "return_type" : "type-920",
   "source_file" : "/out/soong/.intermediates/hardware/interfaces/gnss/2.0/android.hardware.gnss@2.0_genc++_headers/gen/android/hardware/gnss/2.0/BpHwGnssConfiguration.h"
  },
  {
   "function_name" : "android::hardware::gnss::V2_0::BpHwGnssConfiguration::setBlacklist",
   "linker_set_key" : "_ZN7android8hardware4gnss4V2_021BpHwGnssConfiguration12setBlacklistERKNS0_8hidl_vecINS1_4V1_118IGnssConfiguration17BlacklistedSourceEEE",
   "parameters" :
   [
    {
     "is_this_ptr" : true,
     "referenced_type" : "type-1236"
    },
    {
     "referenced_type" : "type-2478"
    }
   ],
   "return_type" : "type-723",
   "source_file" : "/out/soong/.intermediates/hardware/interfaces/gnss/2.0/android.hardware.gnss@2.0_genc++_headers/gen/android/hardware/gnss/2.0/BpHwGnssConfiguration.h"
  },
  {
   "function_name" : "android::hardware::gnss::V2_0::BpHwGnssConfiguration::setLppProfile",
   "linker_set_key" : "_ZN7android8hardware4gnss4V2_021BpHwGnssConfiguration13setLppProfileEh",
   "parameters" :
   [
    {
     "is_this_ptr" : true,
     "referenced_type" : "type-1236"
    },
    {
     "referenced_type" : "type-130"
    }
   ],
   "return_type" : "type-723",
   "source_file" : "/out/soong/.intermediates/hardware/interfaces/gnss/2.0/android.hardware.gnss@2.0_genc++_headers/gen/android/hardware/gnss/2.0/BpHwGnssConfiguration.h"
  },
  {
   "function_name" : "android::hardware::gnss::V2_0::BpHwGnssConfiguration::unlinkToDeath",
   "linker_set_key" : "_ZN7android8hardware4gnss4V2_021BpHwGnssConfiguration13unlinkToDeathERKNS_2spINS0_20hidl_death_recipientEEE",
   "parameters" :
   [
    {
     "is_this_ptr" : true,
     "referenced_type" : "type-1236"
    },
    {
     "referenced_type" : "type-1550"
    }
   ],
   "return_type" : "type-723",
   "source_file" : "/out/soong/.intermediates/hardware/interfaces/gnss/2.0/android.hardware.gnss@2.0_genc++_headers/gen/android/hardware/gnss/2.0/BpHwGnssConfiguration.h"
  },
  {
   "function_name" : "android::hardware::gnss::V2_0::BpHwGnssConfiguration::interfaceChain",
   "linker_set_key" : "_ZN7android8hardware4gnss4V2_021BpHwGnssConfiguration14interfaceChainENSt3__18functionIFvRKNS0_8hidl_vecINS0_11hidl_stringEEEEEE",
   "parameters" :
   [
    {
     "is_this_ptr" : true,
     "referenced_type" : "type-1236"
    },
    {
     "referenced_type" : "type-2871"
    }
   ],
   "return_type" : "type-920",
   "source_file" : "/out/soong/.intermediates/hardware/interfaces/gnss/2.0/android.hardware.gnss@2.0_genc++_headers/gen/android/hardware/gnss/2.0/BpHwGnssConfiguration.h"
  },
  {
   "function_name" : "android::hardware::gnss::V2_0::BpHwGnssConfiguration::setSuplVersion",
   "linker_set_key" : "_ZN7android8hardware4gnss4V2_021BpHwGnssConfiguration14setSuplVersionEj",
   "parameters" :
   [
    {
     "is_this_ptr" : true,
     "referenced_type" : "type-1236"
    },
    {
     "referenced_type" : "type-2"
    }
   ],
   "return_type" : "type-723",
   "source_file" : "/out/soong/.intermediates/hardware/interfaces/gnss/2.0/android.hardware.gnss@2.0_genc++_headers/gen/android/hardware/gnss/2.0/BpHwGnssConfiguration.h"
  },
  {
   "function_name" : "android::hardware::gnss::V2_0::BpHwGnssConfiguration::setEsExtensionSec",
   "linker_set_key" : "_ZN7android8hardware4gnss4V2_021BpHwGnssConfiguration17setEsExtensionSecEj",
   "parameters" :
   [
    {
     "is_this_ptr" : true,
     "referenced_type" : "type-1236"
    },
    {
     "referenced_type" : "type-2"
    }
   ],
   "return_type" : "type-723",
   "source_file" : "/out/soong/.intermediates/hardware/interfaces/gnss/2.0/android.hardware.gnss@2.0_genc++_headers/gen/android/hardware/gnss/2.0/BpHwGnssConfiguration.h"
  },
  {
   "function_name" : "android::hardware::gnss::V2_0::BpHwGnssConfiguration::interfaceDescriptor",
   "linker_set_key" : "_ZN7android8hardware4gnss4V2_021BpHwGnssConfiguration19interfaceDescriptorENSt3__18functionIFvRKNS0_11hidl_stringEEEE",
   "parameters" :
   [
    {
     "is_this_ptr" : true,
     "referenced_type" : "type-1236"
    },
    {
     "referenced_type" : "type-2872"
    }
   ],
   "return_type" : "type-920",
   "source_file" : "/out/soong/.intermediates/hardware/interfaces/gnss/2.0/android.hardware.gnss@2.0_genc++_headers/gen/android/hardware/gnss/2.0/BpHwGnssConfiguration.h"
  },
  {
   "function_name" : "android::hardware::gnss::V2_0::BpHwGnssConfiguration::setEmergencySuplPdn",
   "linker_set_key" : "_ZN7android8hardware4gnss4V2_021BpHwGnssConfiguration19setEmergencySuplPdnEb",
   "parameters" :
   [
    {
     "is_this_ptr" : true,
     "referenced_type" : "type-1236"
    },
    {
     "referenced_type" : "type-34"
    }
   ],
   "return_type" : "type-723",
   "source_file" : "/out/soong/.intermediates/hardware/interfaces/gnss/2.0/android.hardware.gnss@2.0_genc++_headers/gen/android/hardware/gnss/2.0/BpHwGnssConfiguration.h"
  },
  {
   "function_name" : "android::hardware::gnss::V2_0::BpHwGnssConfiguration::notifySyspropsChanged",
   "linker_set_key" : "_ZN7android8hardware4gnss4V2_021BpHwGnssConfiguration21notifySyspropsChangedEv",
   "parameters" :
   [
    {
     "is_this_ptr" : true,
     "referenced_type" : "type-1236"
    }
   ],
   "return_type" : "type-920",
   "source_file" : "/out/soong/.intermediates/hardware/interfaces/gnss/2.0/android.hardware.gnss@2.0_genc++_headers/gen/android/hardware/gnss/2.0/BpHwGnssConfiguration.h"
  },
  {
   "function_name" : "android::hardware::gnss::V2_0::BpHwGnssConfiguration::setHALInstrumentation",
   "linker_set_key" : "_ZN7android8hardware4gnss4V2_021BpHwGnssConfiguration21setHALInstrumentationEv",
   "parameters" :
   [
    {
     "is_this_ptr" : true,
     "referenced_type" : "type-1236"
    }
   ],
   "return_type" : "type-920",
   "source_file" : "/out/soong/.intermediates/hardware/interfaces/gnss/2.0/android.hardware.gnss@2.0_genc++_headers/gen/android/hardware/gnss/2.0/BpHwGnssConfiguration.h"
  },
  {
   "function_name" : "android::hardware::gnss::V2_0::BpHwGnssConfiguration::_hidl_setEsExtensionSec",
   "linker_set_key" : "_ZN7android8hardware4gnss4V2_021BpHwGnssConfiguration23_hidl_setEsExtensionSecEPNS0_10IInterfaceEPNS0_7details16HidlInstrumentorEj",
   "parameters" :
   [
    {
     "referenced_type" : "type-2752"
    },
    {
     "referenced_type" : "type-2283"
    },
    {
     "referenced_type" : "type-2"
    }
   ],
   "return_type" : "type-723",
   "source_file" : "/out/soong/.intermediates/hardware/interfaces/gnss/2.0/android.hardware.gnss@2.0_genc++_headers/gen/android/hardware/gnss/2.0/BpHwGnssConfiguration.h"
  },
  {
   "function_name" : "android::hardware::gnss::V2_0::BpHwGnssConfiguration::setGlonassPositioningProtocol",
   "linker_set_key" : "_ZN7android8hardware4gnss4V2_021BpHwGnssConfiguration29setGlonassPositioningProtocolEh",
   "parameters" :
   [
    {
     "is_this_ptr" : true,
     "referenced_type" : "type-1236"
    },
    {
     "referenced_type" : "type-130"
    }
   ],
   "return_type" : "type-723",
   "source_file" : "/out/soong/.intermediates/hardware/interfaces/gnss/2.0/android.hardware.gnss@2.0_genc++_headers/gen/android/hardware/gnss/2.0/BpHwGnssConfiguration.h"
  },
  {
   "function_name" : "android::hardware::gnss::V2_0::BpHwGnssConfiguration::ping",
   "linker_set_key" : "_ZN7android8hardware4gnss4V2_021BpHwGnssConfiguration4pingEv",
   "parameters" :
   [
    {
     "is_this_ptr" : true,
     "referenced_type" : "type-1236"
    }
   ],
   "return_type" : "type-920",
   "source_file" : "/out/soong/.intermediates/hardware/interfaces/gnss/2.0/android.hardware.gnss@2.0_genc++_headers/gen/android/hardware/gnss/2.0/BpHwGnssConfiguration.h"
  },
  {
   "function_name" : "android::hardware::gnss::V2_0::BpHwGnssConfiguration::debug",
   "linker_set_key" : "_ZN7android8hardware4gnss4V2_021BpHwGnssConfiguration5debugERKNS0_11hidl_handleERKNS0_8hidl_vecINS0_11hidl_stringEEE",
   "parameters" :
   [
    {
     "is_this_ptr" : true,
     "referenced_type" : "type-1236"
    },
    {
     "referenced_type" : "type-1777"
    },
    {
     "referenced_type" : "type-2236"
    }
   ],
   "return_type" : "type-920",
   "source_file" : "/out/soong/.intermediates/hardware/interfaces/gnss/2.0/android.hardware.gnss@2.0_genc++_headers/gen/android/hardware/gnss/2.0/BpHwGnssConfiguration.h"
  },
  {
   "function_name" : "android::hardware::gnss::V2_0::BpHwGnssConfiguration::setSuplEs",
   "linker_set_key" : "_ZN7android8hardware4gnss4V2_021BpHwGnssConfiguration9setSuplEsEb",
   "parameters" :
   [
    {
     "is_this_ptr" : true,
     "referenced_type" : "type-1236"
    },
    {
     "referenced_type" : "type-34"
    }
   ],
   "return_type" : "type-723",
   "source_file" : "/out/soong/.intermediates/hardware/interfaces/gnss/2.0/android.hardware.gnss@2.0_genc++_headers/gen/android/hardware/gnss/2.0/BpHwGnssConfiguration.h"
  },
  {
   "function_name" : "android::hardware::gnss::V2_0::BpHwGnssConfiguration::BpHwGnssConfiguration",
   "linker_set_key" : "_ZN7android8hardware4gnss4V2_021BpHwGnssConfigurationC1ERKNS_2spINS0_7IBinderEEE",
   "parameters" :
   [
    {
     "is_this_ptr" : true,
     "referenced_type" : "type-1236"
    },
    {
     "referenced_type" : "type-43"
    }
   ],
   "return_type" : "type-22",
   "source_file" : "/out/soong/.intermediates/hardware/interfaces/gnss/2.0/android.hardware.gnss@2.0_genc++_headers/gen/android/hardware/gnss/2.0/BpHwGnssConfiguration.h"
  },
  {
   "function_name" : "android::hardware::gnss::V2_0::BpHwGnssConfiguration::BpHwGnssConfiguration",
   "linker_set_key" : "_ZN7android8hardware4gnss4V2_021BpHwGnssConfigurationC2ERKNS_2spINS0_7IBinderEEE",
   "parameters" :
   [
    {
     "is_this_ptr" : true,
     "referenced_type" : "type-1236"
    },
    {
     "referenced_type" : "type-43"
    }
   ],
   "return_type" : "type-22",
   "source_file" : "/out/soong/.intermediates/hardware/interfaces/gnss/2.0/android.hardware.gnss@2.0_genc++_headers/gen/android/hardware/gnss/2.0/BpHwGnssConfiguration.h"
  },
  {
   "function_name" : "android::hardware::gnss::V2_0::IGnssBatchingCallback::getService",
   "linker_set_key" : "_ZN7android8hardware4gnss4V2_021IGnssBatchingCallback10getServiceERKNSt3__112basic_stringIcNS4_11char_traitsIcEENS4_9allocatorIcEEEEb",
   "parameters" :
   [
    {
     "default_arg" : true,
     "referenced_type" : "type-1655"
    },
    {
     "default_arg" : true,
     "referenced_type" : "type-34"
    }
   ],
   "return_type" : "type-934",
   "source_file" : "/out/soong/.intermediates/hardware/interfaces/gnss/2.0/android.hardware.gnss@2.0_genc++_headers/gen/android/hardware/gnss/2.0/IGnssBatchingCallback.h"
  },
  {
   "function_name" : "android::hardware::gnss::V2_0::IGnssBatchingCallback::linkToDeath",
   "linker_set_key" : "_ZN7android8hardware4gnss4V2_021IGnssBatchingCallback11linkToDeathERKNS_2spINS0_20hidl_death_recipientEEEy",
   "parameters" :
   [
    {
     "is_this_ptr" : true,
     "referenced_type" : "type-935"
    },
    {
     "referenced_type" : "type-1550"
    },
    {
     "referenced_type" : "type-13"
    }
   ],
   "return_type" : "type-723",
   "source_file" : "/out/soong/.intermediates/hardware/interfaces/gnss/2.0/android.hardware.gnss@2.0_genc++_headers/gen/android/hardware/gnss/2.0/IGnssBatchingCallback.h"
  },
  {
   "function_name" : "android::hardware::gnss::V2_0::IGnssBatchingCallback::getDebugInfo",
   "linker_set_key" : "_ZN7android8hardware4gnss4V2_021IGnssBatchingCallback12getDebugInfoENSt3__18functionIFvRKNS_4hidl4base4V1_09DebugInfoEEEE",
   "parameters" :
   [
    {
     "is_this_ptr" : true,
     "referenced_type" : "type-935"
    },
    {
     "referenced_type" : "type-2873"
    }
   ],
   "return_type" : "type-920",
   "source_file" : "/out/soong/.intermediates/hardware/interfaces/gnss/2.0/android.hardware.gnss@2.0_genc++_headers/gen/android/hardware/gnss/2.0/IGnssBatchingCallback.h"
  },
  {
   "function_name" : "android::hardware::gnss::V2_0::IGnssBatchingCallback::getHashChain",
   "linker_set_key" : "_ZN7android8hardware4gnss4V2_021IGnssBatchingCallback12getHashChainENSt3__18functionIFvRKNS0_8hidl_vecINS0_10hidl_arrayIhLj32EJEEEEEEEE",
   "parameters" :
   [
    {
     "is_this_ptr" : true,
     "referenced_type" : "type-935"
    },
    {
     "referenced_type" : "type-2874"
    }
   ],
   "return_type" : "type-920",
   "source_file" : "/out/soong/.intermediates/hardware/interfaces/gnss/2.0/android.hardware.gnss@2.0_genc++_headers/gen/android/hardware/gnss/2.0/IGnssBatchingCallback.h"
  },
  {
   "function_name" : "android::hardware::gnss::V2_0::IGnssBatchingCallback::tryGetService",
   "linker_set_key" : "_ZN7android8hardware4gnss4V2_021IGnssBatchingCallback13tryGetServiceERKNSt3__112basic_stringIcNS4_11char_traitsIcEENS4_9allocatorIcEEEEb",
   "parameters" :
   [
    {
     "default_arg" : true,
     "referenced_type" : "type-1655"
    },
    {
     "default_arg" : true,
     "referenced_type" : "type-34"
    }
   ],
   "return_type" : "type-934",
   "source_file" : "/out/soong/.intermediates/hardware/interfaces/gnss/2.0/android.hardware.gnss@2.0_genc++_headers/gen/android/hardware/gnss/2.0/IGnssBatchingCallback.h"
  },
  {
   "function_name" : "android::hardware::gnss::V2_0::IGnssBatchingCallback::unlinkToDeath",
   "linker_set_key" : "_ZN7android8hardware4gnss4V2_021IGnssBatchingCallback13unlinkToDeathERKNS_2spINS0_20hidl_death_recipientEEE",
   "parameters" :
   [
    {
     "is_this_ptr" : true,
     "referenced_type" : "type-935"
    },
    {
     "referenced_type" : "type-1550"
    }
   ],
   "return_type" : "type-723",
   "source_file" : "/out/soong/.intermediates/hardware/interfaces/gnss/2.0/android.hardware.gnss@2.0_genc++_headers/gen/android/hardware/gnss/2.0/IGnssBatchingCallback.h"
  },
  {
   "function_name" : "android::hardware::gnss::V2_0::IGnssBatchingCallback::interfaceChain",
   "linker_set_key" : "_ZN7android8hardware4gnss4V2_021IGnssBatchingCallback14interfaceChainENSt3__18functionIFvRKNS0_8hidl_vecINS0_11hidl_stringEEEEEE",
   "parameters" :
   [
    {
     "is_this_ptr" : true,
     "referenced_type" : "type-935"
    },
    {
     "referenced_type" : "type-2875"
    }
   ],
   "return_type" : "type-920",
   "source_file" : "/out/soong/.intermediates/hardware/interfaces/gnss/2.0/android.hardware.gnss@2.0_genc++_headers/gen/android/hardware/gnss/2.0/IGnssBatchingCallback.h"
  },
  {
   "function_name" : "android::hardware::gnss::V2_0::IGnssBatchingCallback::registerAsService",
   "linker_set_key" : "_ZN7android8hardware4gnss4V2_021IGnssBatchingCallback17registerAsServiceERKNSt3__112basic_stringIcNS4_11char_traitsIcEENS4_9allocatorIcEEEE",
   "parameters" :
   [
    {
     "is_this_ptr" : true,
     "referenced_type" : "type-935"
    },
    {
     "default_arg" : true,
     "referenced_type" : "type-1655"
    }
   ],
   "return_type" : "type-20",
   "source_file" : "/out/soong/.intermediates/hardware/interfaces/gnss/2.0/android.hardware.gnss@2.0_genc++_headers/gen/android/hardware/gnss/2.0/IGnssBatchingCallback.h"
  },
  {
   "function_name" : "android::hardware::gnss::V2_0::IGnssBatchingCallback::interfaceDescriptor",
   "linker_set_key" : "_ZN7android8hardware4gnss4V2_021IGnssBatchingCallback19interfaceDescriptorENSt3__18functionIFvRKNS0_11hidl_stringEEEE",
   "parameters" :
   [
    {
     "is_this_ptr" : true,
     "referenced_type" : "type-935"
    },
    {
     "referenced_type" : "type-2876"
    }
   ],
   "return_type" : "type-920",
   "source_file" : "/out/soong/.intermediates/hardware/interfaces/gnss/2.0/android.hardware.gnss@2.0_genc++_headers/gen/android/hardware/gnss/2.0/IGnssBatchingCallback.h"
  },
  {
   "function_name" : "android::hardware::gnss::V2_0::IGnssBatchingCallback::notifySyspropsChanged",
   "linker_set_key" : "_ZN7android8hardware4gnss4V2_021IGnssBatchingCallback21notifySyspropsChangedEv",
   "parameters" :
   [
    {
     "is_this_ptr" : true,
     "referenced_type" : "type-935"
    }
   ],
   "return_type" : "type-920",
   "source_file" : "/out/soong/.intermediates/hardware/interfaces/gnss/2.0/android.hardware.gnss@2.0_genc++_headers/gen/android/hardware/gnss/2.0/IGnssBatchingCallback.h"
  },
  {
   "function_name" : "android::hardware::gnss::V2_0::IGnssBatchingCallback::setHALInstrumentation",
   "linker_set_key" : "_ZN7android8hardware4gnss4V2_021IGnssBatchingCallback21setHALInstrumentationEv",
   "parameters" :
   [
    {
     "is_this_ptr" : true,
     "referenced_type" : "type-935"
    }
   ],
   "return_type" : "type-920",
   "source_file" : "/out/soong/.intermediates/hardware/interfaces/gnss/2.0/android.hardware.gnss@2.0_genc++_headers/gen/android/hardware/gnss/2.0/IGnssBatchingCallback.h"
  },
  {
   "function_name" : "android::hardware::gnss::V2_0::IGnssBatchingCallback::registerForNotifications",
   "linker_set_key" : "_ZN7android8hardware4gnss4V2_021IGnssBatchingCallback24registerForNotificationsERKNSt3__112basic_stringIcNS4_11char_traitsIcEENS4_9allocatorIcEEEERKNS_2spINS_4hidl7manager4V1_020IServiceNotificationEEE",
   "parameters" :
   [
    {
     "referenced_type" : "type-1655"
    },
    {
     "referenced_type" : "type-2237"
    }
   ],
   "return_type" : "type-34",
   "source_file" : "/out/soong/.intermediates/hardware/interfaces/gnss/2.0/android.hardware.gnss@2.0_genc++_headers/gen/android/hardware/gnss/2.0/IGnssBatchingCallback.h"
  },
  {
   "function_name" : "android::hardware::gnss::V2_0::IGnssBatchingCallback::ping",
   "linker_set_key" : "_ZN7android8hardware4gnss4V2_021IGnssBatchingCallback4pingEv",
   "parameters" :
   [
    {
     "is_this_ptr" : true,
     "referenced_type" : "type-935"
    }
   ],
   "return_type" : "type-920",
   "source_file" : "/out/soong/.intermediates/hardware/interfaces/gnss/2.0/android.hardware.gnss@2.0_genc++_headers/gen/android/hardware/gnss/2.0/IGnssBatchingCallback.h"
  },
  {
   "function_name" : "android::hardware::gnss::V2_0::IGnssBatchingCallback::debug",
   "linker_set_key" : "_ZN7android8hardware4gnss4V2_021IGnssBatchingCallback5debugERKNS0_11hidl_handleERKNS0_8hidl_vecINS0_11hidl_stringEEE",
   "parameters" :
   [
    {
     "is_this_ptr" : true,
     "referenced_type" : "type-935"
    },
    {
     "referenced_type" : "type-1777"
    },
    {
     "referenced_type" : "type-2236"
    }
   ],
   "return_type" : "type-920",
   "source_file" : "/out/soong/.intermediates/hardware/interfaces/gnss/2.0/android.hardware.gnss@2.0_genc++_headers/gen/android/hardware/gnss/2.0/IGnssBatchingCallback.h"
  },
  {
   "function_name" : "android::hardware::gnss::V2_0::IGnssBatchingCallback::castFrom",
   "linker_set_key" : "_ZN7android8hardware4gnss4V2_021IGnssBatchingCallback8castFromERKNS_2spINS_4hidl4base4V1_05IBaseEEEb",
   "parameters" :
   [
    {
     "referenced_type" : "type-2325"
    },
    {
     "default_arg" : true,
     "referenced_type" : "type-34"
    }
   ],
   "return_type" : "type-1607",
   "source_file" : "/out/soong/.intermediates/hardware/interfaces/gnss/2.0/android.hardware.gnss@2.0_genc++_headers/gen/android/hardware/gnss/2.0/IGnssBatchingCallback.h"
  },
  {
   "function_name" : "android::hardware::gnss::V2_0::IGnssBatchingCallback::castFrom",
   "linker_set_key" : "_ZN7android8hardware4gnss4V2_021IGnssBatchingCallback8castFromERKNS_2spIS3_EEb",
   "parameters" :
   [
    {
     "referenced_type" : "type-1214"
    },
    {
     "default_arg" : true,
     "referenced_type" : "type-34"
    }
   ],
   "return_type" : "type-1607",
   "source_file" : "/out/soong/.intermediates/hardware/interfaces/gnss/2.0/android.hardware.gnss@2.0_genc++_headers/gen/android/hardware/gnss/2.0/IGnssBatchingCallback.h"
  },
  {
   "function_name" : "android::hardware::gnss::V2_0::writeEmbeddedToParcel",
   "linker_set_key" : "_ZN7android8hardware4gnss4V2_021writeEmbeddedToParcelERKNS2_10IGnssDebug9DebugDataEPNS0_6ParcelEjj",
   "parameters" :
   [
    {
     "referenced_type" : "type-2536"
    },
    {
     "referenced_type" : "type-1852"
    },
    {
     "referenced_type" : "type-2"
    },
    {
     "referenced_type" : "type-2"
    }
   ],
   "return_type" : "type-20",
   "source_file" : "/out/soong/.intermediates/hardware/interfaces/gnss/2.0/android.hardware.gnss@2.0_genc++_headers/gen/android/hardware/gnss/2.0/IHwGnssDebug.h"
  },
  {
   "function_name" : "android::hardware::gnss::V2_0::writeEmbeddedToParcel",
   "linker_set_key" : "_ZN7android8hardware4gnss4V2_021writeEmbeddedToParcelERKNS2_24IGnssMeasurementCallback15GnssMeasurementEPNS0_6ParcelEjj",
   "parameters" :
   [
    {
     "referenced_type" : "type-1489"
    },
    {
     "referenced_type" : "type-1852"
    },
    {
     "referenced_type" : "type-2"
    },
    {
     "referenced_type" : "type-2"
    }
   ],
   "return_type" : "type-20",
   "source_file" : "/out/soong/.intermediates/hardware/interfaces/gnss/2.0/android.hardware.gnss@2.0_genc++_headers/gen/android/hardware/gnss/2.0/IHwGnssMeasurementCallback.h"
  },
  {
   "function_name" : "android::hardware::gnss::V2_0::writeEmbeddedToParcel",
   "linker_set_key" : "_ZN7android8hardware4gnss4V2_021writeEmbeddedToParcelERKNS2_24IGnssMeasurementCallback8GnssDataEPNS0_6ParcelEjj",
   "parameters" :
   [
    {
     "referenced_type" : "type-2688"
    },
    {
     "referenced_type" : "type-1852"
    },
    {
     "referenced_type" : "type-2"
    },
    {
     "referenced_type" : "type-2"
    }
   ],
   "return_type" : "type-20",
   "source_file" : "/out/soong/.intermediates/hardware/interfaces/gnss/2.0/android.hardware.gnss@2.0_genc++_headers/gen/android/hardware/gnss/2.0/IHwGnssMeasurementCallback.h"
  },
  {
   "function_name" : "android::hardware::gnss::V2_0::writeEmbeddedToParcel",
   "linker_set_key" : "_ZN7android8hardware4gnss4V2_021writeEmbeddedToParcelERKNS2_9IAGnssRil17NetworkAttributesEPNS0_6ParcelEjj",
   "parameters" :
   [
    {
     "referenced_type" : "type-190"
    },
    {
     "referenced_type" : "type-1852"
    },
    {
     "referenced_type" : "type-2"
    },
    {
     "referenced_type" : "type-2"
    }
   ],
   "return_type" : "type-20",
   "source_file" : "/out/soong/.intermediates/hardware/interfaces/gnss/2.0/android.hardware.gnss@2.0_genc++_headers/gen/android/hardware/gnss/2.0/IHwAGnssRil.h"
  },
  {
   "access" : "private",
   "function_name" : "android::hardware::gnss::V2_0::BsGnssBatchingCallback::addOnewayTask",
   "linker_set_key" : "_ZN7android8hardware4gnss4V2_022BsGnssBatchingCallback13addOnewayTaskENSt3__18functionIFvvEEE",
   "parameters" :
   [
    {
     "is_this_ptr" : true,
     "referenced_type" : "type-1603"
    },
    {
     "referenced_type" : "type-2879"
    }
   ],
   "return_type" : "type-920",
   "source_file" : "/out/soong/.intermediates/hardware/interfaces/gnss/2.0/android.hardware.gnss@2.0_genc++_headers/gen/android/hardware/gnss/2.0/BsGnssBatchingCallback.h"
  },
  {
   "function_name" : "android::hardware::gnss::V2_0::BsGnssBatchingCallback::BsGnssBatchingCallback",
   "linker_set_key" : "_ZN7android8hardware4gnss4V2_022BsGnssBatchingCallbackC1ENS_2spINS2_21IGnssBatchingCallbackEEE",
   "parameters" :
   [
    {
     "is_this_ptr" : true,
     "referenced_type" : "type-1603"
    },
    {
     "referenced_type" : "type-1213"
    }
   ],
   "return_type" : "type-22",
   "source_file" : "/out/soong/.intermediates/hardware/interfaces/gnss/2.0/android.hardware.gnss@2.0_genc++_headers/gen/android/hardware/gnss/2.0/BsGnssBatchingCallback.h"
  },
  {
   "function_name" : "android::hardware::gnss::V2_0::BsGnssBatchingCallback::BsGnssBatchingCallback",
   "linker_set_key" : "_ZN7android8hardware4gnss4V2_022BsGnssBatchingCallbackC2ENS_2spINS2_21IGnssBatchingCallbackEEE",
   "parameters" :
   [
    {
     "is_this_ptr" : true,
     "referenced_type" : "type-1603"
    },
    {
     "referenced_type" : "type-1213"
    }
   ],
   "return_type" : "type-22",
   "source_file" : "/out/soong/.intermediates/hardware/interfaces/gnss/2.0/android.hardware.gnss@2.0_genc++_headers/gen/android/hardware/gnss/2.0/BsGnssBatchingCallback.h"
  },
  {
   "function_name" : "android::hardware::gnss::V2_0::readEmbeddedFromParcel",
   "linker_set_key" : "_ZN7android8hardware4gnss4V2_022readEmbeddedFromParcelERKNS2_10IGnssDebug9DebugDataERKNS0_6ParcelEjj",
   "parameters" :
   [
    {
     "referenced_type" : "type-2536"
    },
    {
     "referenced_type" : "type-1881"
    },
    {
     "referenced_type" : "type-2"
    },
    {
     "referenced_type" : "type-2"
    }
   ],
   "return_type" : "type-20",
   "source_file" : "/out/soong/.intermediates/hardware/interfaces/gnss/2.0/android.hardware.gnss@2.0_genc++_headers/gen/android/hardware/gnss/2.0/IHwGnssDebug.h"
  },
  {
   "function_name" : "android::hardware::gnss::V2_0::readEmbeddedFromParcel",
   "linker_set_key" : "_ZN7android8hardware4gnss4V2_022readEmbeddedFromParcelERKNS2_24IGnssMeasurementCallback15GnssMeasurementERKNS0_6ParcelEjj",
   "parameters" :
   [
    {
     "referenced_type" : "type-1489"
    },
    {
     "referenced_type" : "type-1881"
    },
    {
     "referenced_type" : "type-2"
    },
    {
     "referenced_type" : "type-2"
    }
   ],
   "return_type" : "type-20",
   "source_file" : "/out/soong/.intermediates/hardware/interfaces/gnss/2.0/android.hardware.gnss@2.0_genc++_headers/gen/android/hardware/gnss/2.0/IHwGnssMeasurementCallback.h"
  },
  {
   "function_name" : "android::hardware::gnss::V2_0::readEmbeddedFromParcel",
   "linker_set_key" : "_ZN7android8hardware4gnss4V2_022readEmbeddedFromParcelERKNS2_24IGnssMeasurementCallback8GnssDataERKNS0_6ParcelEjj",
   "parameters" :
   [
    {
     "referenced_type" : "type-2688"
    },
    {
     "referenced_type" : "type-1881"
    },
    {
     "referenced_type" : "type-2"
    },
    {
     "referenced_type" : "type-2"
    }
   ],
   "return_type" : "type-20",
   "source_file" : "/out/soong/.intermediates/hardware/interfaces/gnss/2.0/android.hardware.gnss@2.0_genc++_headers/gen/android/hardware/gnss/2.0/IHwGnssMeasurementCallback.h"
  },
  {
   "function_name" : "android::hardware::gnss::V2_0::readEmbeddedFromParcel",
   "linker_set_key" : "_ZN7android8hardware4gnss4V2_022readEmbeddedFromParcelERKNS2_9IAGnssRil17NetworkAttributesERKNS0_6ParcelEjj",
   "parameters" :
   [
    {
     "referenced_type" : "type-190"
    },
    {
     "referenced_type" : "type-1881"
    },
    {
     "referenced_type" : "type-2"
    },
    {
     "referenced_type" : "type-2"
    }
   ],
   "return_type" : "type-20",
   "source_file" : "/out/soong/.intermediates/hardware/interfaces/gnss/2.0/android.hardware.gnss@2.0_genc++_headers/gen/android/hardware/gnss/2.0/IHwAGnssRil.h"
  },
  {
   "function_name" : "android::hardware::gnss::V2_0::BnHwGnssBatchingCallback::onTransact",
   "linker_set_key" : "_ZN7android8hardware4gnss4V2_024BnHwGnssBatchingCallback10onTransactEjRKNS0_6ParcelEPS4_jNSt3__18functionIFvRS4_EEE",
   "parameters" :
   [
    {
     "is_this_ptr" : true,
     "referenced_type" : "type-936"
    },
    {
     "referenced_type" : "type-2"
    },
    {
     "referenced_type" : "type-1881"
    },
    {
     "referenced_type" : "type-1852"
    },
    {
     "default_arg" : true,
     "referenced_type" : "type-2"
    },
    {
     "default_arg" : true,
     "referenced_type" : "type-2882"
    }
   ],
   "return_type" : "type-20",
   "source_file" : "/out/soong/.intermediates/hardware/interfaces/gnss/2.0/android.hardware.gnss@2.0_genc++_headers/gen/android/hardware/gnss/2.0/BnHwGnssBatchingCallback.h"
  },
  {
   "access" : "private",
   "function_name" : "android::hardware::gnss::V2_0::BnHwGnssBatchingCallback::getDebugInfo",
   "linker_set_key" : "_ZN7android8hardware4gnss4V2_024BnHwGnssBatchingCallback12getDebugInfoENSt3__18functionIFvRKNS_4hidl4base4V1_09DebugInfoEEEE",
   "parameters" :
   [
    {
     "is_this_ptr" : true,
     "referenced_type" : "type-936"
    },
    {
     "referenced_type" : "type-2883"
    }
   ],
   "return_type" : "type-920",
   "source_file" : "/out/soong/.intermediates/hardware/interfaces/gnss/2.0/android.hardware.gnss@2.0_genc++_headers/gen/android/hardware/gnss/2.0/BnHwGnssBatchingCallback.h"
  },
  {
   "function_name" : "android::hardware::gnss::V2_0::BnHwGnssBatchingCallback::_hidl_gnssLocationBatchCb",
   "linker_set_key" : "_ZN7android8hardware4gnss4V2_024BnHwGnssBatchingCallback25_hidl_gnssLocationBatchCbEPNS_4hidl4base4V1_08BnHwBaseERKNS0_6ParcelEPS9_NSt3__18functionIFvRS9_EEE",
   "parameters" :
   [
    {
     "referenced_type" : "type-1882"
    },
    {
     "referenced_type" : "type-1881"
    },
    {
     "referenced_type" : "type-1852"
    },
    {
     "referenced_type" : "type-2884"
    }
   ],
   "return_type" : "type-20",
   "source_file" : "/out/soong/.intermediates/hardware/interfaces/gnss/2.0/android.hardware.gnss@2.0_genc++_headers/gen/android/hardware/gnss/2.0/BnHwGnssBatchingCallback.h"
  },
  {
   "access" : "private",
   "function_name" : "android::hardware::gnss::V2_0::BnHwGnssBatchingCallback::ping",
   "linker_set_key" : "_ZN7android8hardware4gnss4V2_024BnHwGnssBatchingCallback4pingEv",
   "parameters" :
   [
    {
     "is_this_ptr" : true,
     "referenced_type" : "type-936"
    }
   ],
   "return_type" : "type-920",
   "source_file" : "/out/soong/.intermediates/hardware/interfaces/gnss/2.0/android.hardware.gnss@2.0_genc++_headers/gen/android/hardware/gnss/2.0/BnHwGnssBatchingCallback.h"
  },
  {
   "function_name" : "android::hardware::gnss::V2_0::BnHwGnssBatchingCallback::BnHwGnssBatchingCallback",
   "linker_set_key" : "_ZN7android8hardware4gnss4V2_024BnHwGnssBatchingCallbackC1ERKNS_2spINS2_21IGnssBatchingCallbackEEE",
   "parameters" :
   [
    {
     "is_this_ptr" : true,
     "referenced_type" : "type-936"
    },
    {
     "referenced_type" : "type-1214"
    }
   ],
   "return_type" : "type-22",
   "source_file" : "/out/soong/.intermediates/hardware/interfaces/gnss/2.0/android.hardware.gnss@2.0_genc++_headers/gen/android/hardware/gnss/2.0/BnHwGnssBatchingCallback.h"
  },
  {
   "function_name" : "android::hardware::gnss::V2_0::BnHwGnssBatchingCallback::BnHwGnssBatchingCallback",
   "linker_set_key" : "_ZN7android8hardware4gnss4V2_024BnHwGnssBatchingCallbackC2ERKNS_2spINS2_21IGnssBatchingCallbackEEE",
   "parameters" :
   [
    {
     "is_this_ptr" : true,
     "referenced_type" : "type-936"
    },
    {
     "referenced_type" : "type-1214"
    }
   ],
   "return_type" : "type-22",
   "source_file" : "/out/soong/.intermediates/hardware/interfaces/gnss/2.0/android.hardware.gnss@2.0_genc++_headers/gen/android/hardware/gnss/2.0/BnHwGnssBatchingCallback.h"
  },
  {
   "function_name" : "android::hardware::gnss::V2_0::BnHwGnssBatchingCallback::~BnHwGnssBatchingCallback",
   "linker_set_key" : "_ZN7android8hardware4gnss4V2_024BnHwGnssBatchingCallbackD0Ev",
   "parameters" :
   [
    {
     "is_this_ptr" : true,
     "referenced_type" : "type-936"
    }
   ],
   "return_type" : "type-22",
   "source_file" : "/out/soong/.intermediates/hardware/interfaces/gnss/2.0/android.hardware.gnss@2.0_genc++_headers/gen/android/hardware/gnss/2.0/BnHwGnssBatchingCallback.h"
  },
  {
   "function_name" : "android::hardware::gnss::V2_0::BnHwGnssBatchingCallback::~BnHwGnssBatchingCallback",
   "linker_set_key" : "_ZN7android8hardware4gnss4V2_024BnHwGnssBatchingCallbackD1Ev",
   "parameters" :
   [
    {
     "is_this_ptr" : true,
     "referenced_type" : "type-936"
    }
   ],
   "return_type" : "type-22",
   "source_file" : "/out/soong/.intermediates/hardware/interfaces/gnss/2.0/android.hardware.gnss@2.0_genc++_headers/gen/android/hardware/gnss/2.0/BnHwGnssBatchingCallback.h"
  },
  {
   "function_name" : "android::hardware::gnss::V2_0::BnHwGnssBatchingCallback::~BnHwGnssBatchingCallback",
   "linker_set_key" : "_ZN7android8hardware4gnss4V2_024BnHwGnssBatchingCallbackD2Ev",
   "parameters" :
   [
    {
     "is_this_ptr" : true,
     "referenced_type" : "type-936"
    }
   ],
   "return_type" : "type-22",
   "source_file" : "/out/soong/.intermediates/hardware/interfaces/gnss/2.0/android.hardware.gnss@2.0_genc++_headers/gen/android/hardware/gnss/2.0/BnHwGnssBatchingCallback.h"
  },
  {
   "function_name" : "android::hardware::gnss::V2_0::BpHwGnssBatchingCallback::linkToDeath",
   "linker_set_key" : "_ZN7android8hardware4gnss4V2_024BpHwGnssBatchingCallback11linkToDeathERKNS_2spINS0_20hidl_death_recipientEEEy",
   "parameters" :
   [
    {
     "is_this_ptr" : true,
     "referenced_type" : "type-1518"
    },
    {
     "referenced_type" : "type-1550"
    },
    {
     "referenced_type" : "type-13"
    }
   ],
   "return_type" : "type-723",
   "source_file" : "/out/soong/.intermediates/hardware/interfaces/gnss/2.0/android.hardware.gnss@2.0_genc++_headers/gen/android/hardware/gnss/2.0/BpHwGnssBatchingCallback.h"
  },
  {
   "function_name" : "android::hardware::gnss::V2_0::BpHwGnssBatchingCallback::getDebugInfo",
   "linker_set_key" : "_ZN7android8hardware4gnss4V2_024BpHwGnssBatchingCallback12getDebugInfoENSt3__18functionIFvRKNS_4hidl4base4V1_09DebugInfoEEEE",
   "parameters" :
   [
    {
     "is_this_ptr" : true,
     "referenced_type" : "type-1518"
    },
    {
     "referenced_type" : "type-2885"
    }
   ],
   "return_type" : "type-920",
   "source_file" : "/out/soong/.intermediates/hardware/interfaces/gnss/2.0/android.hardware.gnss@2.0_genc++_headers/gen/android/hardware/gnss/2.0/BpHwGnssBatchingCallback.h"
  },
  {
   "function_name" : "android::hardware::gnss::V2_0::BpHwGnssBatchingCallback::getHashChain",
   "linker_set_key" : "_ZN7android8hardware4gnss4V2_024BpHwGnssBatchingCallback12getHashChainENSt3__18functionIFvRKNS0_8hidl_vecINS0_10hidl_arrayIhLj32EJEEEEEEEE",
   "parameters" :
   [
    {
     "is_this_ptr" : true,
     "referenced_type" : "type-1518"
    },
    {
     "referenced_type" : "type-2886"
    }
   ],
   "return_type" : "type-920",
   "source_file" : "/out/soong/.intermediates/hardware/interfaces/gnss/2.0/android.hardware.gnss@2.0_genc++_headers/gen/android/hardware/gnss/2.0/BpHwGnssBatchingCallback.h"
  },
  {
   "function_name" : "android::hardware::gnss::V2_0::BpHwGnssBatchingCallback::unlinkToDeath",
   "linker_set_key" : "_ZN7android8hardware4gnss4V2_024BpHwGnssBatchingCallback13unlinkToDeathERKNS_2spINS0_20hidl_death_recipientEEE",
   "parameters" :
   [
    {
     "is_this_ptr" : true,
     "referenced_type" : "type-1518"
    },
    {
     "referenced_type" : "type-1550"
    }
   ],
   "return_type" : "type-723",
   "source_file" : "/out/soong/.intermediates/hardware/interfaces/gnss/2.0/android.hardware.gnss@2.0_genc++_headers/gen/android/hardware/gnss/2.0/BpHwGnssBatchingCallback.h"
  },
  {
   "function_name" : "android::hardware::gnss::V2_0::BpHwGnssBatchingCallback::interfaceChain",
   "linker_set_key" : "_ZN7android8hardware4gnss4V2_024BpHwGnssBatchingCallback14interfaceChainENSt3__18functionIFvRKNS0_8hidl_vecINS0_11hidl_stringEEEEEE",
   "parameters" :
   [
    {
     "is_this_ptr" : true,
     "referenced_type" : "type-1518"
    },
    {
     "referenced_type" : "type-2887"
    }
   ],
   "return_type" : "type-920",
   "source_file" : "/out/soong/.intermediates/hardware/interfaces/gnss/2.0/android.hardware.gnss@2.0_genc++_headers/gen/android/hardware/gnss/2.0/BpHwGnssBatchingCallback.h"
  },
  {
   "function_name" : "android::hardware::gnss::V2_0::BpHwGnssBatchingCallback::gnssLocationBatchCb",
   "linker_set_key" : "_ZN7android8hardware4gnss4V2_024BpHwGnssBatchingCallback19gnssLocationBatchCbERKNS0_8hidl_vecINS2_12GnssLocationEEE",
   "parameters" :
   [
    {
     "is_this_ptr" : true,
     "referenced_type" : "type-1518"
    },
    {
     "referenced_type" : "type-1651"
    }
   ],
   "return_type" : "type-920",
   "source_file" : "/out/soong/.intermediates/hardware/interfaces/gnss/2.0/android.hardware.gnss@2.0_genc++_headers/gen/android/hardware/gnss/2.0/BpHwGnssBatchingCallback.h"
  },
  {
   "function_name" : "android::hardware::gnss::V2_0::BpHwGnssBatchingCallback::interfaceDescriptor",
   "linker_set_key" : "_ZN7android8hardware4gnss4V2_024BpHwGnssBatchingCallback19interfaceDescriptorENSt3__18functionIFvRKNS0_11hidl_stringEEEE",
   "parameters" :
   [
    {
     "is_this_ptr" : true,
     "referenced_type" : "type-1518"
    },
    {
     "referenced_type" : "type-2888"
    }
   ],
   "return_type" : "type-920",
   "source_file" : "/out/soong/.intermediates/hardware/interfaces/gnss/2.0/android.hardware.gnss@2.0_genc++_headers/gen/android/hardware/gnss/2.0/BpHwGnssBatchingCallback.h"
  },
  {
   "function_name" : "android::hardware::gnss::V2_0::BpHwGnssBatchingCallback::notifySyspropsChanged",
   "linker_set_key" : "_ZN7android8hardware4gnss4V2_024BpHwGnssBatchingCallback21notifySyspropsChangedEv",
   "parameters" :
   [
    {
     "is_this_ptr" : true,
     "referenced_type" : "type-1518"
    }
   ],
   "return_type" : "type-920",
   "source_file" : "/out/soong/.intermediates/hardware/interfaces/gnss/2.0/android.hardware.gnss@2.0_genc++_headers/gen/android/hardware/gnss/2.0/BpHwGnssBatchingCallback.h"
  },
  {
   "function_name" : "android::hardware::gnss::V2_0::BpHwGnssBatchingCallback::setHALInstrumentation",
   "linker_set_key" : "_ZN7android8hardware4gnss4V2_024BpHwGnssBatchingCallback21setHALInstrumentationEv",
   "parameters" :
   [
    {
     "is_this_ptr" : true,
     "referenced_type" : "type-1518"
    }
   ],
   "return_type" : "type-920",
   "source_file" : "/out/soong/.intermediates/hardware/interfaces/gnss/2.0/android.hardware.gnss@2.0_genc++_headers/gen/android/hardware/gnss/2.0/BpHwGnssBatchingCallback.h"
  },
  {
   "function_name" : "android::hardware::gnss::V2_0::BpHwGnssBatchingCallback::_hidl_gnssLocationBatchCb",
   "linker_set_key" : "_ZN7android8hardware4gnss4V2_024BpHwGnssBatchingCallback25_hidl_gnssLocationBatchCbEPNS0_10IInterfaceEPNS0_7details16HidlInstrumentorERKNS0_8hidl_vecINS2_12GnssLocationEEE",
   "parameters" :
   [
    {
     "referenced_type" : "type-2752"
    },
    {
     "referenced_type" : "type-2283"
    },
    {
     "referenced_type" : "type-1651"
    }
   ],
   "return_type" : "type-920",
   "source_file" : "/out/soong/.intermediates/hardware/interfaces/gnss/2.0/android.hardware.gnss@2.0_genc++_headers/gen/android/hardware/gnss/2.0/BpHwGnssBatchingCallback.h"
  },
  {
   "function_name" : "android::hardware::gnss::V2_0::BpHwGnssBatchingCallback::ping",
   "linker_set_key" : "_ZN7android8hardware4gnss4V2_024BpHwGnssBatchingCallback4pingEv",
   "parameters" :
   [
    {
     "is_this_ptr" : true,
     "referenced_type" : "type-1518"
    }
   ],
   "return_type" : "type-920",
   "source_file" : "/out/soong/.intermediates/hardware/interfaces/gnss/2.0/android.hardware.gnss@2.0_genc++_headers/gen/android/hardware/gnss/2.0/BpHwGnssBatchingCallback.h"
  },
  {
   "function_name" : "android::hardware::gnss::V2_0::BpHwGnssBatchingCallback::debug",
   "linker_set_key" : "_ZN7android8hardware4gnss4V2_024BpHwGnssBatchingCallback5debugERKNS0_11hidl_handleERKNS0_8hidl_vecINS0_11hidl_stringEEE",
   "parameters" :
   [
    {
     "is_this_ptr" : true,
     "referenced_type" : "type-1518"
    },
    {
     "referenced_type" : "type-1777"
    },
    {
     "referenced_type" : "type-2236"
    }
   ],
   "return_type" : "type-920",
   "source_file" : "/out/soong/.intermediates/hardware/interfaces/gnss/2.0/android.hardware.gnss@2.0_genc++_headers/gen/android/hardware/gnss/2.0/BpHwGnssBatchingCallback.h"
  },
  {
   "function_name" : "android::hardware::gnss::V2_0::BpHwGnssBatchingCallback::BpHwGnssBatchingCallback",
   "linker_set_key" : "_ZN7android8hardware4gnss4V2_024BpHwGnssBatchingCallbackC1ERKNS_2spINS0_7IBinderEEE",
   "parameters" :
   [
    {
     "is_this_ptr" : true,
     "referenced_type" : "type-1518"
    },
    {
     "referenced_type" : "type-43"
    }
   ],
   "return_type" : "type-22",
   "source_file" : "/out/soong/.intermediates/hardware/interfaces/gnss/2.0/android.hardware.gnss@2.0_genc++_headers/gen/android/hardware/gnss/2.0/BpHwGnssBatchingCallback.h"
  },
  {
   "function_name" : "android::hardware::gnss::V2_0::BpHwGnssBatchingCallback::BpHwGnssBatchingCallback",
   "linker_set_key" : "_ZN7android8hardware4gnss4V2_024BpHwGnssBatchingCallbackC2ERKNS_2spINS0_7IBinderEEE",
   "parameters" :
   [
    {
     "is_this_ptr" : true,
     "referenced_type" : "type-1518"
    },
    {
     "referenced_type" : "type-43"
    }
   ],
   "return_type" : "type-22",
   "source_file" : "/out/soong/.intermediates/hardware/interfaces/gnss/2.0/android.hardware.gnss@2.0_genc++_headers/gen/android/hardware/gnss/2.0/BpHwGnssBatchingCallback.h"
  },
  {
   "function_name" : "android::hardware::gnss::V2_0::IGnssMeasurementCallback::getService",
   "linker_set_key" : "_ZN7android8hardware4gnss4V2_024IGnssMeasurementCallback10getServiceERKNSt3__112basic_stringIcNS4_11char_traitsIcEENS4_9allocatorIcEEEEb",
   "parameters" :
   [
    {
     "default_arg" : true,
     "referenced_type" : "type-2651"
    },
    {
     "default_arg" : true,
     "referenced_type" : "type-34"
    }
   ],
   "return_type" : "type-974",
   "source_file" : "/out/soong/.intermediates/hardware/interfaces/gnss/2.0/android.hardware.gnss@2.0_genc++_headers/gen/android/hardware/gnss/2.0/IGnssMeasurementCallback.h"
  },
  {
   "function_name" : "android::hardware::gnss::V2_0::IGnssMeasurementCallback::linkToDeath",
   "linker_set_key" : "_ZN7android8hardware4gnss4V2_024IGnssMeasurementCallback11linkToDeathERKNS_2spINS0_20hidl_death_recipientEEEy",
   "parameters" :
   [
    {
     "is_this_ptr" : true,
     "referenced_type" : "type-975"
    },
    {
     "referenced_type" : "type-1550"
    },
    {
     "referenced_type" : "type-13"
    }
   ],
   "return_type" : "type-723",
   "source_file" : "/out/soong/.intermediates/hardware/interfaces/gnss/2.0/android.hardware.gnss@2.0_genc++_headers/gen/android/hardware/gnss/2.0/IGnssMeasurementCallback.h"
  },
  {
   "function_name" : "android::hardware::gnss::V2_0::IGnssMeasurementCallback::getDebugInfo",
   "linker_set_key" : "_ZN7android8hardware4gnss4V2_024IGnssMeasurementCallback12getDebugInfoENSt3__18functionIFvRKNS_4hidl4base4V1_09DebugInfoEEEE",
   "parameters" :
   [
    {
     "is_this_ptr" : true,
     "referenced_type" : "type-975"
    },
    {
     "referenced_type" : "type-2889"
    }
   ],
   "return_type" : "type-920",
   "source_file" : "/out/soong/.intermediates/hardware/interfaces/gnss/2.0/android.hardware.gnss@2.0_genc++_headers/gen/android/hardware/gnss/2.0/IGnssMeasurementCallback.h"
  },
  {
   "function_name" : "android::hardware::gnss::V2_0::IGnssMeasurementCallback::getHashChain",
   "linker_set_key" : "_ZN7android8hardware4gnss4V2_024IGnssMeasurementCallback12getHashChainENSt3__18functionIFvRKNS0_8hidl_vecINS0_10hidl_arrayIhLj32EJEEEEEEEE",
   "parameters" :
   [
    {
     "is_this_ptr" : true,
     "referenced_type" : "type-975"
    },
    {
     "referenced_type" : "type-2890"
    }
   ],
   "return_type" : "type-920",
   "source_file" : "/out/soong/.intermediates/hardware/interfaces/gnss/2.0/android.hardware.gnss@2.0_genc++_headers/gen/android/hardware/gnss/2.0/IGnssMeasurementCallback.h"
  },
  {
   "function_name" : "android::hardware::gnss::V2_0::IGnssMeasurementCallback::tryGetService",
   "linker_set_key" : "_ZN7android8hardware4gnss4V2_024IGnssMeasurementCallback13tryGetServiceERKNSt3__112basic_stringIcNS4_11char_traitsIcEENS4_9allocatorIcEEEEb",
   "parameters" :
   [
    {
     "default_arg" : true,
     "referenced_type" : "type-2651"
    },
    {
     "default_arg" : true,
     "referenced_type" : "type-34"
    }
   ],
   "return_type" : "type-974",
   "source_file" : "/out/soong/.intermediates/hardware/interfaces/gnss/2.0/android.hardware.gnss@2.0_genc++_headers/gen/android/hardware/gnss/2.0/IGnssMeasurementCallback.h"
  },
  {
   "function_name" : "android::hardware::gnss::V2_0::IGnssMeasurementCallback::unlinkToDeath",
   "linker_set_key" : "_ZN7android8hardware4gnss4V2_024IGnssMeasurementCallback13unlinkToDeathERKNS_2spINS0_20hidl_death_recipientEEE",
   "parameters" :
   [
    {
     "is_this_ptr" : true,
     "referenced_type" : "type-975"
    },
    {
     "referenced_type" : "type-1550"
    }
   ],
   "return_type" : "type-723",
   "source_file" : "/out/soong/.intermediates/hardware/interfaces/gnss/2.0/android.hardware.gnss@2.0_genc++_headers/gen/android/hardware/gnss/2.0/IGnssMeasurementCallback.h"
  },
  {
   "function_name" : "android::hardware::gnss::V2_0::IGnssMeasurementCallback::interfaceChain",
   "linker_set_key" : "_ZN7android8hardware4gnss4V2_024IGnssMeasurementCallback14interfaceChainENSt3__18functionIFvRKNS0_8hidl_vecINS0_11hidl_stringEEEEEE",
   "parameters" :
   [
    {
     "is_this_ptr" : true,
     "referenced_type" : "type-975"
    },
    {
     "referenced_type" : "type-2891"
    }
   ],
   "return_type" : "type-920",
   "source_file" : "/out/soong/.intermediates/hardware/interfaces/gnss/2.0/android.hardware.gnss@2.0_genc++_headers/gen/android/hardware/gnss/2.0/IGnssMeasurementCallback.h"
  },
  {
   "function_name" : "android::hardware::gnss::V2_0::IGnssMeasurementCallback::registerAsService",
   "linker_set_key" : "_ZN7android8hardware4gnss4V2_024IGnssMeasurementCallback17registerAsServiceERKNSt3__112basic_stringIcNS4_11char_traitsIcEENS4_9allocatorIcEEEE",
   "parameters" :
   [
    {
     "is_this_ptr" : true,
     "referenced_type" : "type-975"
    },
    {
     "default_arg" : true,
     "referenced_type" : "type-2651"
    }
   ],
   "return_type" : "type-20",
   "source_file" : "/out/soong/.intermediates/hardware/interfaces/gnss/2.0/android.hardware.gnss@2.0_genc++_headers/gen/android/hardware/gnss/2.0/IGnssMeasurementCallback.h"
  },
  {
   "function_name" : "android::hardware::gnss::V2_0::IGnssMeasurementCallback::interfaceDescriptor",
   "linker_set_key" : "_ZN7android8hardware4gnss4V2_024IGnssMeasurementCallback19interfaceDescriptorENSt3__18functionIFvRKNS0_11hidl_stringEEEE",
   "parameters" :
   [
    {
     "is_this_ptr" : true,
     "referenced_type" : "type-975"
    },
    {
     "referenced_type" : "type-2892"
    }
   ],
   "return_type" : "type-920",
   "source_file" : "/out/soong/.intermediates/hardware/interfaces/gnss/2.0/android.hardware.gnss@2.0_genc++_headers/gen/android/hardware/gnss/2.0/IGnssMeasurementCallback.h"
  },
  {
   "function_name" : "android::hardware::gnss::V2_0::IGnssMeasurementCallback::notifySyspropsChanged",
   "linker_set_key" : "_ZN7android8hardware4gnss4V2_024IGnssMeasurementCallback21notifySyspropsChangedEv",
   "parameters" :
   [
    {
     "is_this_ptr" : true,
     "referenced_type" : "type-975"
    }
   ],
   "return_type" : "type-920",
   "source_file" : "/out/soong/.intermediates/hardware/interfaces/gnss/2.0/android.hardware.gnss@2.0_genc++_headers/gen/android/hardware/gnss/2.0/IGnssMeasurementCallback.h"
  },
  {
   "function_name" : "android::hardware::gnss::V2_0::IGnssMeasurementCallback::setHALInstrumentation",
   "linker_set_key" : "_ZN7android8hardware4gnss4V2_024IGnssMeasurementCallback21setHALInstrumentationEv",
   "parameters" :
   [
    {
     "is_this_ptr" : true,
     "referenced_type" : "type-975"
    }
   ],
   "return_type" : "type-920",
   "source_file" : "/out/soong/.intermediates/hardware/interfaces/gnss/2.0/android.hardware.gnss@2.0_genc++_headers/gen/android/hardware/gnss/2.0/IGnssMeasurementCallback.h"
  },
  {
   "function_name" : "android::hardware::gnss::V2_0::IGnssMeasurementCallback::registerForNotifications",
   "linker_set_key" : "_ZN7android8hardware4gnss4V2_024IGnssMeasurementCallback24registerForNotificationsERKNSt3__112basic_stringIcNS4_11char_traitsIcEENS4_9allocatorIcEEEERKNS_2spINS_4hidl7manager4V1_020IServiceNotificationEEE",
   "parameters" :
   [
    {
     "referenced_type" : "type-2651"
    },
    {
     "referenced_type" : "type-2237"
    }
   ],
   "return_type" : "type-34",
   "source_file" : "/out/soong/.intermediates/hardware/interfaces/gnss/2.0/android.hardware.gnss@2.0_genc++_headers/gen/android/hardware/gnss/2.0/IGnssMeasurementCallback.h"
  },
  {
   "function_name" : "android::hardware::gnss::V2_0::IGnssMeasurementCallback::ping",
   "linker_set_key" : "_ZN7android8hardware4gnss4V2_024IGnssMeasurementCallback4pingEv",
   "parameters" :
   [
    {
     "is_this_ptr" : true,
     "referenced_type" : "type-975"
    }
   ],
   "return_type" : "type-920",
   "source_file" : "/out/soong/.intermediates/hardware/interfaces/gnss/2.0/android.hardware.gnss@2.0_genc++_headers/gen/android/hardware/gnss/2.0/IGnssMeasurementCallback.h"
  },
  {
   "function_name" : "android::hardware::gnss::V2_0::IGnssMeasurementCallback::debug",
   "linker_set_key" : "_ZN7android8hardware4gnss4V2_024IGnssMeasurementCallback5debugERKNS0_11hidl_handleERKNS0_8hidl_vecINS0_11hidl_stringEEE",
   "parameters" :
   [
    {
     "is_this_ptr" : true,
     "referenced_type" : "type-975"
    },
    {
     "referenced_type" : "type-1777"
    },
    {
     "referenced_type" : "type-2236"
    }
   ],
   "return_type" : "type-920",
   "source_file" : "/out/soong/.intermediates/hardware/interfaces/gnss/2.0/android.hardware.gnss@2.0_genc++_headers/gen/android/hardware/gnss/2.0/IGnssMeasurementCallback.h"
  },
  {
   "function_name" : "android::hardware::gnss::V2_0::IGnssMeasurementCallback::castFrom",
   "linker_set_key" : "_ZN7android8hardware4gnss4V2_024IGnssMeasurementCallback8castFromERKNS_2spINS1_4V1_024IGnssMeasurementCallbackEEEb",
   "parameters" :
   [
    {
     "referenced_type" : "type-1136"
    },
    {
     "default_arg" : true,
     "referenced_type" : "type-34"
    }
   ],
   "return_type" : "type-2626",
   "source_file" : "/out/soong/.intermediates/hardware/interfaces/gnss/2.0/android.hardware.gnss@2.0_genc++_headers/gen/android/hardware/gnss/2.0/IGnssMeasurementCallback.h"
  },
  {
   "function_name" : "android::hardware::gnss::V2_0::IGnssMeasurementCallback::castFrom",
   "linker_set_key" : "_ZN7android8hardware4gnss4V2_024IGnssMeasurementCallback8castFromERKNS_2spINS1_4V1_124IGnssMeasurementCallbackEEEb",
   "parameters" :
   [
    {
     "referenced_type" : "type-1198"
    },
    {
     "default_arg" : true,
     "referenced_type" : "type-34"
    }
   ],
   "return_type" : "type-2626",
   "source_file" : "/out/soong/.intermediates/hardware/interfaces/gnss/2.0/android.hardware.gnss@2.0_genc++_headers/gen/android/hardware/gnss/2.0/IGnssMeasurementCallback.h"
  },
  {
   "function_name" : "android::hardware::gnss::V2_0::IGnssMeasurementCallback::castFrom",
   "linker_set_key" : "_ZN7android8hardware4gnss4V2_024IGnssMeasurementCallback8castFromERKNS_2spINS_4hidl4base4V1_05IBaseEEEb",
   "parameters" :
   [
    {
     "referenced_type" : "type-2325"
    },
    {
     "default_arg" : true,
     "referenced_type" : "type-34"
    }
   ],
   "return_type" : "type-2626",
   "source_file" : "/out/soong/.intermediates/hardware/interfaces/gnss/2.0/android.hardware.gnss@2.0_genc++_headers/gen/android/hardware/gnss/2.0/IGnssMeasurementCallback.h"
  },
  {
   "function_name" : "android::hardware::gnss::V2_0::IGnssMeasurementCallback::castFrom",
   "linker_set_key" : "_ZN7android8hardware4gnss4V2_024IGnssMeasurementCallback8castFromERKNS_2spIS3_EEb",
   "parameters" :
   [
    {
     "referenced_type" : "type-1252"
    },
    {
     "default_arg" : true,
     "referenced_type" : "type-34"
    }
   ],
   "return_type" : "type-2626",
   "source_file" : "/out/soong/.intermediates/hardware/interfaces/gnss/2.0/android.hardware.gnss@2.0_genc++_headers/gen/android/hardware/gnss/2.0/IGnssMeasurementCallback.h"
  },
  {
   "access" : "private",
   "function_name" : "android::hardware::gnss::V2_0::BsGnssMeasurementCallback::addOnewayTask",
   "linker_set_key" : "_ZN7android8hardware4gnss4V2_025BsGnssMeasurementCallback13addOnewayTaskENSt3__18functionIFvvEEE",
   "parameters" :
   [
    {
     "is_this_ptr" : true,
     "referenced_type" : "type-2623"
    },
    {
     "referenced_type" : "type-2895"
    }
   ],
   "return_type" : "type-920",
   "source_file" : "/out/soong/.intermediates/hardware/interfaces/gnss/2.0/android.hardware.gnss@2.0_genc++_headers/gen/android/hardware/gnss/2.0/BsGnssMeasurementCallback.h"
  },
  {
   "function_name" : "android::hardware::gnss::V2_0::BsGnssMeasurementCallback::BsGnssMeasurementCallback",
   "linker_set_key" : "_ZN7android8hardware4gnss4V2_025BsGnssMeasurementCallbackC1ENS_2spINS2_24IGnssMeasurementCallbackEEE",
   "parameters" :
   [
    {
     "is_this_ptr" : true,
     "referenced_type" : "type-2623"
    },
    {
     "referenced_type" : "type-1251"
    }
   ],
   "return_type" : "type-22",
   "source_file" : "/out/soong/.intermediates/hardware/interfaces/gnss/2.0/android.hardware.gnss@2.0_genc++_headers/gen/android/hardware/gnss/2.0/BsGnssMeasurementCallback.h"
  },
  {
   "function_name" : "android::hardware::gnss::V2_0::BsGnssMeasurementCallback::BsGnssMeasurementCallback",
   "linker_set_key" : "_ZN7android8hardware4gnss4V2_025BsGnssMeasurementCallbackC2ENS_2spINS2_24IGnssMeasurementCallbackEEE",
   "parameters" :
   [
    {
     "is_this_ptr" : true,
     "referenced_type" : "type-2623"
    },
    {
     "referenced_type" : "type-1251"
    }
   ],
   "return_type" : "type-22",
   "source_file" : "/out/soong/.intermediates/hardware/interfaces/gnss/2.0/android.hardware.gnss@2.0_genc++_headers/gen/android/hardware/gnss/2.0/BsGnssMeasurementCallback.h"
  },
  {
   "function_name" : "android::hardware::gnss::V2_0::BnHwGnssMeasurementCallback::onTransact",
   "linker_set_key" : "_ZN7android8hardware4gnss4V2_027BnHwGnssMeasurementCallback10onTransactEjRKNS0_6ParcelEPS4_jNSt3__18functionIFvRS4_EEE",
   "parameters" :
   [
    {
     "is_this_ptr" : true,
     "referenced_type" : "type-976"
    },
    {
     "referenced_type" : "type-2"
    },
    {
     "referenced_type" : "type-1881"
    },
    {
     "referenced_type" : "type-1852"
    },
    {
     "default_arg" : true,
     "referenced_type" : "type-2"
    },
    {
     "default_arg" : true,
     "referenced_type" : "type-2898"
    }
   ],
   "return_type" : "type-20",
   "source_file" : "/out/soong/.intermediates/hardware/interfaces/gnss/2.0/android.hardware.gnss@2.0_genc++_headers/gen/android/hardware/gnss/2.0/BnHwGnssMeasurementCallback.h"
  },
  {
   "access" : "private",
   "function_name" : "android::hardware::gnss::V2_0::BnHwGnssMeasurementCallback::getDebugInfo",
   "linker_set_key" : "_ZN7android8hardware4gnss4V2_027BnHwGnssMeasurementCallback12getDebugInfoENSt3__18functionIFvRKNS_4hidl4base4V1_09DebugInfoEEEE",
   "parameters" :
   [
    {
     "is_this_ptr" : true,
     "referenced_type" : "type-976"
    },
    {
     "referenced_type" : "type-2899"
    }
   ],
   "return_type" : "type-920",
   "source_file" : "/out/soong/.intermediates/hardware/interfaces/gnss/2.0/android.hardware.gnss@2.0_genc++_headers/gen/android/hardware/gnss/2.0/BnHwGnssMeasurementCallback.h"
  },
  {
   "function_name" : "android::hardware::gnss::V2_0::BnHwGnssMeasurementCallback::_hidl_gnssMeasurementCb_2_0",
   "linker_set_key" : "_ZN7android8hardware4gnss4V2_027BnHwGnssMeasurementCallback27_hidl_gnssMeasurementCb_2_0EPNS_4hidl4base4V1_08BnHwBaseERKNS0_6ParcelEPS9_NSt3__18functionIFvRS9_EEE",
   "parameters" :
   [
    {
     "referenced_type" : "type-1882"
    },
    {
     "referenced_type" : "type-1881"
    },
    {
     "referenced_type" : "type-1852"
    },
    {
     "referenced_type" : "type-2900"
    }
   ],
   "return_type" : "type-20",
   "source_file" : "/out/soong/.intermediates/hardware/interfaces/gnss/2.0/android.hardware.gnss@2.0_genc++_headers/gen/android/hardware/gnss/2.0/BnHwGnssMeasurementCallback.h"
  },
  {
   "access" : "private",
   "function_name" : "android::hardware::gnss::V2_0::BnHwGnssMeasurementCallback::ping",
   "linker_set_key" : "_ZN7android8hardware4gnss4V2_027BnHwGnssMeasurementCallback4pingEv",
   "parameters" :
   [
    {
     "is_this_ptr" : true,
     "referenced_type" : "type-976"
    }
   ],
   "return_type" : "type-920",
   "source_file" : "/out/soong/.intermediates/hardware/interfaces/gnss/2.0/android.hardware.gnss@2.0_genc++_headers/gen/android/hardware/gnss/2.0/BnHwGnssMeasurementCallback.h"
  },
  {
   "function_name" : "android::hardware::gnss::V2_0::BnHwGnssMeasurementCallback::BnHwGnssMeasurementCallback",
   "linker_set_key" : "_ZN7android8hardware4gnss4V2_027BnHwGnssMeasurementCallbackC1ERKNS_2spINS2_24IGnssMeasurementCallbackEEE",
   "parameters" :
   [
    {
     "is_this_ptr" : true,
     "referenced_type" : "type-976"
    },
    {
     "referenced_type" : "type-1252"
    }
   ],
   "return_type" : "type-22",
   "source_file" : "/out/soong/.intermediates/hardware/interfaces/gnss/2.0/android.hardware.gnss@2.0_genc++_headers/gen/android/hardware/gnss/2.0/BnHwGnssMeasurementCallback.h"
  },
  {
   "function_name" : "android::hardware::gnss::V2_0::BnHwGnssMeasurementCallback::BnHwGnssMeasurementCallback",
   "linker_set_key" : "_ZN7android8hardware4gnss4V2_027BnHwGnssMeasurementCallbackC2ERKNS_2spINS2_24IGnssMeasurementCallbackEEE",
   "parameters" :
   [
    {
     "is_this_ptr" : true,
     "referenced_type" : "type-976"
    },
    {
     "referenced_type" : "type-1252"
    }
   ],
   "return_type" : "type-22",
   "source_file" : "/out/soong/.intermediates/hardware/interfaces/gnss/2.0/android.hardware.gnss@2.0_genc++_headers/gen/android/hardware/gnss/2.0/BnHwGnssMeasurementCallback.h"
  },
  {
   "function_name" : "android::hardware::gnss::V2_0::BnHwGnssMeasurementCallback::~BnHwGnssMeasurementCallback",
   "linker_set_key" : "_ZN7android8hardware4gnss4V2_027BnHwGnssMeasurementCallbackD0Ev",
   "parameters" :
   [
    {
     "is_this_ptr" : true,
     "referenced_type" : "type-976"
    }
   ],
   "return_type" : "type-22",
   "source_file" : "/out/soong/.intermediates/hardware/interfaces/gnss/2.0/android.hardware.gnss@2.0_genc++_headers/gen/android/hardware/gnss/2.0/BnHwGnssMeasurementCallback.h"
  },
  {
   "function_name" : "android::hardware::gnss::V2_0::BnHwGnssMeasurementCallback::~BnHwGnssMeasurementCallback",
   "linker_set_key" : "_ZN7android8hardware4gnss4V2_027BnHwGnssMeasurementCallbackD1Ev",
   "parameters" :
   [
    {
     "is_this_ptr" : true,
     "referenced_type" : "type-976"
    }
   ],
   "return_type" : "type-22",
   "source_file" : "/out/soong/.intermediates/hardware/interfaces/gnss/2.0/android.hardware.gnss@2.0_genc++_headers/gen/android/hardware/gnss/2.0/BnHwGnssMeasurementCallback.h"
  },
  {
   "function_name" : "android::hardware::gnss::V2_0::BnHwGnssMeasurementCallback::~BnHwGnssMeasurementCallback",
   "linker_set_key" : "_ZN7android8hardware4gnss4V2_027BnHwGnssMeasurementCallbackD2Ev",
   "parameters" :
   [
    {
     "is_this_ptr" : true,
     "referenced_type" : "type-976"
    }
   ],
   "return_type" : "type-22",
   "source_file" : "/out/soong/.intermediates/hardware/interfaces/gnss/2.0/android.hardware.gnss@2.0_genc++_headers/gen/android/hardware/gnss/2.0/BnHwGnssMeasurementCallback.h"
  },
  {
   "function_name" : "android::hardware::gnss::V2_0::BpHwGnssMeasurementCallback::linkToDeath",
   "linker_set_key" : "_ZN7android8hardware4gnss4V2_027BpHwGnssMeasurementCallback11linkToDeathERKNS_2spINS0_20hidl_death_recipientEEEy",
   "parameters" :
   [
    {
     "is_this_ptr" : true,
     "referenced_type" : "type-2549"
    },
    {
     "referenced_type" : "type-1550"
    },
    {
     "referenced_type" : "type-13"
    }
   ],
   "return_type" : "type-723",
   "source_file" : "/out/soong/.intermediates/hardware/interfaces/gnss/2.0/android.hardware.gnss@2.0_genc++_headers/gen/android/hardware/gnss/2.0/BpHwGnssMeasurementCallback.h"
  },
  {
   "function_name" : "android::hardware::gnss::V2_0::BpHwGnssMeasurementCallback::getDebugInfo",
   "linker_set_key" : "_ZN7android8hardware4gnss4V2_027BpHwGnssMeasurementCallback12getDebugInfoENSt3__18functionIFvRKNS_4hidl4base4V1_09DebugInfoEEEE",
   "parameters" :
   [
    {
     "is_this_ptr" : true,
     "referenced_type" : "type-2549"
    },
    {
     "referenced_type" : "type-2901"
    }
   ],
   "return_type" : "type-920",
   "source_file" : "/out/soong/.intermediates/hardware/interfaces/gnss/2.0/android.hardware.gnss@2.0_genc++_headers/gen/android/hardware/gnss/2.0/BpHwGnssMeasurementCallback.h"
  },
  {
   "function_name" : "android::hardware::gnss::V2_0::BpHwGnssMeasurementCallback::getHashChain",
   "linker_set_key" : "_ZN7android8hardware4gnss4V2_027BpHwGnssMeasurementCallback12getHashChainENSt3__18functionIFvRKNS0_8hidl_vecINS0_10hidl_arrayIhLj32EJEEEEEEEE",
   "parameters" :
   [
    {
     "is_this_ptr" : true,
     "referenced_type" : "type-2549"
    },
    {
     "referenced_type" : "type-2902"
    }
   ],
   "return_type" : "type-920",
   "source_file" : "/out/soong/.intermediates/hardware/interfaces/gnss/2.0/android.hardware.gnss@2.0_genc++_headers/gen/android/hardware/gnss/2.0/BpHwGnssMeasurementCallback.h"
  },
  {
   "function_name" : "android::hardware::gnss::V2_0::BpHwGnssMeasurementCallback::unlinkToDeath",
   "linker_set_key" : "_ZN7android8hardware4gnss4V2_027BpHwGnssMeasurementCallback13unlinkToDeathERKNS_2spINS0_20hidl_death_recipientEEE",
   "parameters" :
   [
    {
     "is_this_ptr" : true,
     "referenced_type" : "type-2549"
    },
    {
     "referenced_type" : "type-1550"
    }
   ],
   "return_type" : "type-723",
   "source_file" : "/out/soong/.intermediates/hardware/interfaces/gnss/2.0/android.hardware.gnss@2.0_genc++_headers/gen/android/hardware/gnss/2.0/BpHwGnssMeasurementCallback.h"
  },
  {
   "function_name" : "android::hardware::gnss::V2_0::BpHwGnssMeasurementCallback::interfaceChain",
   "linker_set_key" : "_ZN7android8hardware4gnss4V2_027BpHwGnssMeasurementCallback14interfaceChainENSt3__18functionIFvRKNS0_8hidl_vecINS0_11hidl_stringEEEEEE",
   "parameters" :
   [
    {
     "is_this_ptr" : true,
     "referenced_type" : "type-2549"
    },
    {
     "referenced_type" : "type-2903"
    }
   ],
   "return_type" : "type-920",
   "source_file" : "/out/soong/.intermediates/hardware/interfaces/gnss/2.0/android.hardware.gnss@2.0_genc++_headers/gen/android/hardware/gnss/2.0/BpHwGnssMeasurementCallback.h"
  },
  {
   "function_name" : "android::hardware::gnss::V2_0::BpHwGnssMeasurementCallback::GnssMeasurementCb",
   "linker_set_key" : "_ZN7android8hardware4gnss4V2_027BpHwGnssMeasurementCallback17GnssMeasurementCbERKNS1_4V1_024IGnssMeasurementCallback8GnssDataE",
   "parameters" :
   [
    {
     "is_this_ptr" : true,
     "referenced_type" : "type-2549"
    },
    {
     "referenced_type" : "type-2692"
    }
   ],
   "return_type" : "type-920",
   "source_file" : "/out/soong/.intermediates/hardware/interfaces/gnss/2.0/android.hardware.gnss@2.0_genc++_headers/gen/android/hardware/gnss/2.0/BpHwGnssMeasurementCallback.h"
  },
  {
   "function_name" : "android::hardware::gnss::V2_0::BpHwGnssMeasurementCallback::gnssMeasurementCb",
   "linker_set_key" : "_ZN7android8hardware4gnss4V2_027BpHwGnssMeasurementCallback17gnssMeasurementCbERKNS1_4V1_124IGnssMeasurementCallback8GnssDataE",
   "parameters" :
   [
    {
     "is_this_ptr" : true,
     "referenced_type" : "type-2549"
    },
    {
     "referenced_type" : "type-2694"
    }
   ],
   "return_type" : "type-920",
   "source_file" : "/out/soong/.intermediates/hardware/interfaces/gnss/2.0/android.hardware.gnss@2.0_genc++_headers/gen/android/hardware/gnss/2.0/BpHwGnssMeasurementCallback.h"
  },
  {
   "function_name" : "android::hardware::gnss::V2_0::BpHwGnssMeasurementCallback::interfaceDescriptor",
   "linker_set_key" : "_ZN7android8hardware4gnss4V2_027BpHwGnssMeasurementCallback19interfaceDescriptorENSt3__18functionIFvRKNS0_11hidl_stringEEEE",
   "parameters" :
   [
    {
     "is_this_ptr" : true,
     "referenced_type" : "type-2549"
    },
    {
     "referenced_type" : "type-2904"
    }
   ],
   "return_type" : "type-920",
   "source_file" : "/out/soong/.intermediates/hardware/interfaces/gnss/2.0/android.hardware.gnss@2.0_genc++_headers/gen/android/hardware/gnss/2.0/BpHwGnssMeasurementCallback.h"
  },
  {
   "function_name" : "android::hardware::gnss::V2_0::BpHwGnssMeasurementCallback::gnssMeasurementCb_2_0",
   "linker_set_key" : "_ZN7android8hardware4gnss4V2_027BpHwGnssMeasurementCallback21gnssMeasurementCb_2_0ERKNS2_24IGnssMeasurementCallback8GnssDataE",
   "parameters" :
   [
    {
     "is_this_ptr" : true,
     "referenced_type" : "type-2549"
    },
    {
     "referenced_type" : "type-2688"
    }
   ],
   "return_type" : "type-920",
   "source_file" : "/out/soong/.intermediates/hardware/interfaces/gnss/2.0/android.hardware.gnss@2.0_genc++_headers/gen/android/hardware/gnss/2.0/BpHwGnssMeasurementCallback.h"
  },
  {
   "function_name" : "android::hardware::gnss::V2_0::BpHwGnssMeasurementCallback::notifySyspropsChanged",
   "linker_set_key" : "_ZN7android8hardware4gnss4V2_027BpHwGnssMeasurementCallback21notifySyspropsChangedEv",
   "parameters" :
   [
    {
     "is_this_ptr" : true,
     "referenced_type" : "type-2549"
    }
   ],
   "return_type" : "type-920",
   "source_file" : "/out/soong/.intermediates/hardware/interfaces/gnss/2.0/android.hardware.gnss@2.0_genc++_headers/gen/android/hardware/gnss/2.0/BpHwGnssMeasurementCallback.h"
  },
  {
   "function_name" : "android::hardware::gnss::V2_0::BpHwGnssMeasurementCallback::setHALInstrumentation",
   "linker_set_key" : "_ZN7android8hardware4gnss4V2_027BpHwGnssMeasurementCallback21setHALInstrumentationEv",
   "parameters" :
   [
    {
     "is_this_ptr" : true,
     "referenced_type" : "type-2549"
    }
   ],
   "return_type" : "type-920",
   "source_file" : "/out/soong/.intermediates/hardware/interfaces/gnss/2.0/android.hardware.gnss@2.0_genc++_headers/gen/android/hardware/gnss/2.0/BpHwGnssMeasurementCallback.h"
  },
  {
   "function_name" : "android::hardware::gnss::V2_0::BpHwGnssMeasurementCallback::_hidl_gnssMeasurementCb_2_0",
   "linker_set_key" : "_ZN7android8hardware4gnss4V2_027BpHwGnssMeasurementCallback27_hidl_gnssMeasurementCb_2_0EPNS0_10IInterfaceEPNS0_7details16HidlInstrumentorERKNS2_24IGnssMeasurementCallback8GnssDataE",
   "parameters" :
   [
    {
     "referenced_type" : "type-2752"
    },
    {
     "referenced_type" : "type-2283"
    },
    {
     "referenced_type" : "type-2688"
    }
   ],
   "return_type" : "type-920",
   "source_file" : "/out/soong/.intermediates/hardware/interfaces/gnss/2.0/android.hardware.gnss@2.0_genc++_headers/gen/android/hardware/gnss/2.0/BpHwGnssMeasurementCallback.h"
  },
  {
   "function_name" : "android::hardware::gnss::V2_0::BpHwGnssMeasurementCallback::ping",
   "linker_set_key" : "_ZN7android8hardware4gnss4V2_027BpHwGnssMeasurementCallback4pingEv",
   "parameters" :
   [
    {
     "is_this_ptr" : true,
     "referenced_type" : "type-2549"
    }
   ],
   "return_type" : "type-920",
   "source_file" : "/out/soong/.intermediates/hardware/interfaces/gnss/2.0/android.hardware.gnss@2.0_genc++_headers/gen/android/hardware/gnss/2.0/BpHwGnssMeasurementCallback.h"
  },
  {
   "function_name" : "android::hardware::gnss::V2_0::BpHwGnssMeasurementCallback::debug",
   "linker_set_key" : "_ZN7android8hardware4gnss4V2_027BpHwGnssMeasurementCallback5debugERKNS0_11hidl_handleERKNS0_8hidl_vecINS0_11hidl_stringEEE",
   "parameters" :
   [
    {
     "is_this_ptr" : true,
     "referenced_type" : "type-2549"
    },
    {
     "referenced_type" : "type-1777"
    },
    {
     "referenced_type" : "type-2236"
    }
   ],
   "return_type" : "type-920",
   "source_file" : "/out/soong/.intermediates/hardware/interfaces/gnss/2.0/android.hardware.gnss@2.0_genc++_headers/gen/android/hardware/gnss/2.0/BpHwGnssMeasurementCallback.h"
  },
  {
   "function_name" : "android::hardware::gnss::V2_0::BpHwGnssMeasurementCallback::BpHwGnssMeasurementCallback",
   "linker_set_key" : "_ZN7android8hardware4gnss4V2_027BpHwGnssMeasurementCallbackC1ERKNS_2spINS0_7IBinderEEE",
   "parameters" :
   [
    {
     "is_this_ptr" : true,
     "referenced_type" : "type-2549"
    },
    {
     "referenced_type" : "type-43"
    }
   ],
   "return_type" : "type-22",
   "source_file" : "/out/soong/.intermediates/hardware/interfaces/gnss/2.0/android.hardware.gnss@2.0_genc++_headers/gen/android/hardware/gnss/2.0/BpHwGnssMeasurementCallback.h"
  },
  {
   "function_name" : "android::hardware::gnss::V2_0::BpHwGnssMeasurementCallback::BpHwGnssMeasurementCallback",
   "linker_set_key" : "_ZN7android8hardware4gnss4V2_027BpHwGnssMeasurementCallbackC2ERKNS_2spINS0_7IBinderEEE",
   "parameters" :
   [
    {
     "is_this_ptr" : true,
     "referenced_type" : "type-2549"
    },
    {
     "referenced_type" : "type-43"
    }
   ],
   "return_type" : "type-22",
   "source_file" : "/out/soong/.intermediates/hardware/interfaces/gnss/2.0/android.hardware.gnss@2.0_genc++_headers/gen/android/hardware/gnss/2.0/BpHwGnssMeasurementCallback.h"
  },
  {
   "function_name" : "android::hardware::gnss::V2_0::IGnss::getService",
   "linker_set_key" : "_ZN7android8hardware4gnss4V2_05IGnss10getServiceERKNSt3__112basic_stringIcNS4_11char_traitsIcEENS4_9allocatorIcEEEEb",
   "parameters" :
   [
    {
     "default_arg" : true,
     "referenced_type" : "type-317"
    },
    {
     "default_arg" : true,
     "referenced_type" : "type-34"
    }
   ],
   "return_type" : "type-532",
   "source_file" : "/out/soong/.intermediates/hardware/interfaces/gnss/2.0/android.hardware.gnss@2.0_genc++_headers/gen/android/hardware/gnss/2.0/IGnss.h"
  },
  {
   "function_name" : "android::hardware::gnss::V2_0::IGnss::linkToDeath",
   "linker_set_key" : "_ZN7android8hardware4gnss4V2_05IGnss11linkToDeathERKNS_2spINS0_20hidl_death_recipientEEEy",
   "parameters" :
   [
    {
     "is_this_ptr" : true,
     "referenced_type" : "type-533"
    },
    {
     "referenced_type" : "type-1550"
    },
    {
     "referenced_type" : "type-13"
    }
   ],
   "return_type" : "type-723",
   "source_file" : "/out/soong/.intermediates/hardware/interfaces/gnss/2.0/android.hardware.gnss@2.0_genc++_headers/gen/android/hardware/gnss/2.0/IGnss.h"
  },
  {
   "function_name" : "android::hardware::gnss::V2_0::IGnss::getDebugInfo",
   "linker_set_key" : "_ZN7android8hardware4gnss4V2_05IGnss12getDebugInfoENSt3__18functionIFvRKNS_4hidl4base4V1_09DebugInfoEEEE",
   "parameters" :
   [
    {
     "is_this_ptr" : true,
     "referenced_type" : "type-533"
    },
    {
     "referenced_type" : "type-2905"
    }
   ],
   "return_type" : "type-920",
   "source_file" : "/out/soong/.intermediates/hardware/interfaces/gnss/2.0/android.hardware.gnss@2.0_genc++_headers/gen/android/hardware/gnss/2.0/IGnss.h"
  },
  {
   "function_name" : "android::hardware::gnss::V2_0::IGnss::getHashChain",
   "linker_set_key" : "_ZN7android8hardware4gnss4V2_05IGnss12getHashChainENSt3__18functionIFvRKNS0_8hidl_vecINS0_10hidl_arrayIhLj32EJEEEEEEEE",
   "parameters" :
   [
    {
     "is_this_ptr" : true,
     "referenced_type" : "type-533"
    },
    {
     "referenced_type" : "type-2906"
    }
   ],
   "return_type" : "type-920",
   "source_file" : "/out/soong/.intermediates/hardware/interfaces/gnss/2.0/android.hardware.gnss@2.0_genc++_headers/gen/android/hardware/gnss/2.0/IGnss.h"
  },
  {
   "function_name" : "android::hardware::gnss::V2_0::IGnss::tryGetService",
   "linker_set_key" : "_ZN7android8hardware4gnss4V2_05IGnss13tryGetServiceERKNSt3__112basic_stringIcNS4_11char_traitsIcEENS4_9allocatorIcEEEEb",
   "parameters" :
   [
    {
     "default_arg" : true,
     "referenced_type" : "type-317"
    },
    {
     "default_arg" : true,
     "referenced_type" : "type-34"
    }
   ],
   "return_type" : "type-532",
   "source_file" : "/out/soong/.intermediates/hardware/interfaces/gnss/2.0/android.hardware.gnss@2.0_genc++_headers/gen/android/hardware/gnss/2.0/IGnss.h"
  },
  {
   "function_name" : "android::hardware::gnss::V2_0::IGnss::unlinkToDeath",
   "linker_set_key" : "_ZN7android8hardware4gnss4V2_05IGnss13unlinkToDeathERKNS_2spINS0_20hidl_death_recipientEEE",
   "parameters" :
   [
    {
     "is_this_ptr" : true,
     "referenced_type" : "type-533"
    },
    {
     "referenced_type" : "type-1550"
    }
   ],
   "return_type" : "type-723",
   "source_file" : "/out/soong/.intermediates/hardware/interfaces/gnss/2.0/android.hardware.gnss@2.0_genc++_headers/gen/android/hardware/gnss/2.0/IGnss.h"
  },
  {
   "function_name" : "android::hardware::gnss::V2_0::IGnss::interfaceChain",
   "linker_set_key" : "_ZN7android8hardware4gnss4V2_05IGnss14interfaceChainENSt3__18functionIFvRKNS0_8hidl_vecINS0_11hidl_stringEEEEEE",
   "parameters" :
   [
    {
     "is_this_ptr" : true,
     "referenced_type" : "type-533"
    },
    {
     "referenced_type" : "type-2907"
    }
   ],
   "return_type" : "type-920",
   "source_file" : "/out/soong/.intermediates/hardware/interfaces/gnss/2.0/android.hardware.gnss@2.0_genc++_headers/gen/android/hardware/gnss/2.0/IGnss.h"
  },
  {
   "function_name" : "android::hardware::gnss::V2_0::IGnss::registerAsService",
   "linker_set_key" : "_ZN7android8hardware4gnss4V2_05IGnss17registerAsServiceERKNSt3__112basic_stringIcNS4_11char_traitsIcEENS4_9allocatorIcEEEE",
   "parameters" :
   [
    {
     "is_this_ptr" : true,
     "referenced_type" : "type-533"
    },
    {
     "default_arg" : true,
     "referenced_type" : "type-317"
    }
   ],
   "return_type" : "type-20",
   "source_file" : "/out/soong/.intermediates/hardware/interfaces/gnss/2.0/android.hardware.gnss@2.0_genc++_headers/gen/android/hardware/gnss/2.0/IGnss.h"
  },
  {
   "function_name" : "android::hardware::gnss::V2_0::IGnss::interfaceDescriptor",
   "linker_set_key" : "_ZN7android8hardware4gnss4V2_05IGnss19interfaceDescriptorENSt3__18functionIFvRKNS0_11hidl_stringEEEE",
   "parameters" :
   [
    {
     "is_this_ptr" : true,
     "referenced_type" : "type-533"
    },
    {
     "referenced_type" : "type-2908"
    }
   ],
   "return_type" : "type-920",
   "source_file" : "/out/soong/.intermediates/hardware/interfaces/gnss/2.0/android.hardware.gnss@2.0_genc++_headers/gen/android/hardware/gnss/2.0/IGnss.h"
  },
  {
   "function_name" : "android::hardware::gnss::V2_0::IGnss::notifySyspropsChanged",
   "linker_set_key" : "_ZN7android8hardware4gnss4V2_05IGnss21notifySyspropsChangedEv",
   "parameters" :
   [
    {
     "is_this_ptr" : true,
     "referenced_type" : "type-533"
    }
   ],
   "return_type" : "type-920",
   "source_file" : "/out/soong/.intermediates/hardware/interfaces/gnss/2.0/android.hardware.gnss@2.0_genc++_headers/gen/android/hardware/gnss/2.0/IGnss.h"
  },
  {
   "function_name" : "android::hardware::gnss::V2_0::IGnss::setHALInstrumentation",
   "linker_set_key" : "_ZN7android8hardware4gnss4V2_05IGnss21setHALInstrumentationEv",
   "parameters" :
   [
    {
     "is_this_ptr" : true,
     "referenced_type" : "type-533"
    }
   ],
   "return_type" : "type-920",
   "source_file" : "/out/soong/.intermediates/hardware/interfaces/gnss/2.0/android.hardware.gnss@2.0_genc++_headers/gen/android/hardware/gnss/2.0/IGnss.h"
  },
  {
   "function_name" : "android::hardware::gnss::V2_0::IGnss::registerForNotifications",
   "linker_set_key" : "_ZN7android8hardware4gnss4V2_05IGnss24registerForNotificationsERKNSt3__112basic_stringIcNS4_11char_traitsIcEENS4_9allocatorIcEEEERKNS_2spINS_4hidl7manager4V1_020IServiceNotificationEEE",
   "parameters" :
   [
    {
     "referenced_type" : "type-317"
    },
    {
     "referenced_type" : "type-2237"
    }
   ],
   "return_type" : "type-34",
   "source_file" : "/out/soong/.intermediates/hardware/interfaces/gnss/2.0/android.hardware.gnss@2.0_genc++_headers/gen/android/hardware/gnss/2.0/IGnss.h"
  },
  {
   "function_name" : "android::hardware::gnss::V2_0::IGnss::ping",
   "linker_set_key" : "_ZN7android8hardware4gnss4V2_05IGnss4pingEv",
   "parameters" :
   [
    {
     "is_this_ptr" : true,
     "referenced_type" : "type-533"
    }
   ],
   "return_type" : "type-920",
   "source_file" : "/out/soong/.intermediates/hardware/interfaces/gnss/2.0/android.hardware.gnss@2.0_genc++_headers/gen/android/hardware/gnss/2.0/IGnss.h"
  },
  {
   "function_name" : "android::hardware::gnss::V2_0::IGnss::debug",
   "linker_set_key" : "_ZN7android8hardware4gnss4V2_05IGnss5debugERKNS0_11hidl_handleERKNS0_8hidl_vecINS0_11hidl_stringEEE",
   "parameters" :
   [
    {
     "is_this_ptr" : true,
     "referenced_type" : "type-533"
    },
    {
     "referenced_type" : "type-1777"
    },
    {
     "referenced_type" : "type-2236"
    }
   ],
   "return_type" : "type-920",
   "source_file" : "/out/soong/.intermediates/hardware/interfaces/gnss/2.0/android.hardware.gnss@2.0_genc++_headers/gen/android/hardware/gnss/2.0/IGnss.h"
  },
  {
   "function_name" : "android::hardware::gnss::V2_0::IGnss::castFrom",
   "linker_set_key" : "_ZN7android8hardware4gnss4V2_05IGnss8castFromERKNS_2spINS1_4V1_05IGnssEEEb",
   "parameters" :
   [
    {
     "referenced_type" : "type-1180"
    },
    {
     "default_arg" : true,
     "referenced_type" : "type-34"
    }
   ],
   "return_type" : "type-1396",
   "source_file" : "/out/soong/.intermediates/hardware/interfaces/gnss/2.0/android.hardware.gnss@2.0_genc++_headers/gen/android/hardware/gnss/2.0/IGnss.h"
  },
  {
   "function_name" : "android::hardware::gnss::V2_0::IGnss::castFrom",
   "linker_set_key" : "_ZN7android8hardware4gnss4V2_05IGnss8castFromERKNS_2spINS1_4V1_15IGnssEEEb",
   "parameters" :
   [
    {
     "referenced_type" : "type-1209"
    },
    {
     "default_arg" : true,
     "referenced_type" : "type-34"
    }
   ],
   "return_type" : "type-1396",
   "source_file" : "/out/soong/.intermediates/hardware/interfaces/gnss/2.0/android.hardware.gnss@2.0_genc++_headers/gen/android/hardware/gnss/2.0/IGnss.h"
  },
  {
   "function_name" : "android::hardware::gnss::V2_0::IGnss::castFrom",
   "linker_set_key" : "_ZN7android8hardware4gnss4V2_05IGnss8castFromERKNS_2spINS_4hidl4base4V1_05IBaseEEEb",
   "parameters" :
   [
    {
     "referenced_type" : "type-2325"
    },
    {
     "default_arg" : true,
     "referenced_type" : "type-34"
    }
   ],
   "return_type" : "type-1396",
   "source_file" : "/out/soong/.intermediates/hardware/interfaces/gnss/2.0/android.hardware.gnss@2.0_genc++_headers/gen/android/hardware/gnss/2.0/IGnss.h"
  },
  {
   "function_name" : "android::hardware::gnss::V2_0::IGnss::castFrom",
   "linker_set_key" : "_ZN7android8hardware4gnss4V2_05IGnss8castFromERKNS_2spIS3_EEb",
   "parameters" :
   [
    {
     "referenced_type" : "type-547"
    },
    {
     "default_arg" : true,
     "referenced_type" : "type-34"
    }
   ],
   "return_type" : "type-1396",
   "source_file" : "/out/soong/.intermediates/hardware/interfaces/gnss/2.0/android.hardware.gnss@2.0_genc++_headers/gen/android/hardware/gnss/2.0/IGnss.h"
  },
  {
   "access" : "private",
   "function_name" : "android::hardware::gnss::V2_0::BsGnss::addOnewayTask",
   "linker_set_key" : "_ZN7android8hardware4gnss4V2_06BsGnss13addOnewayTaskENSt3__18functionIFvvEEE",
   "parameters" :
   [
    {
     "is_this_ptr" : true,
     "referenced_type" : "type-1008"
    },
    {
     "referenced_type" : "type-2911"
    }
   ],
   "return_type" : "type-920",
   "source_file" : "/out/soong/.intermediates/hardware/interfaces/gnss/2.0/android.hardware.gnss@2.0_genc++_headers/gen/android/hardware/gnss/2.0/BsGnss.h"
  },
  {
   "function_name" : "android::hardware::gnss::V2_0::BsGnss::BsGnss",
   "linker_set_key" : "_ZN7android8hardware4gnss4V2_06BsGnssC1ENS_2spINS2_5IGnssEEE",
   "parameters" :
   [
    {
     "is_this_ptr" : true,
     "referenced_type" : "type-1008"
    },
    {
     "referenced_type" : "type-531"
    }
   ],
   "return_type" : "type-22",
   "source_file" : "/out/soong/.intermediates/hardware/interfaces/gnss/2.0/android.hardware.gnss@2.0_genc++_headers/gen/android/hardware/gnss/2.0/BsGnss.h"
  },
  {
   "function_name" : "android::hardware::gnss::V2_0::BsGnss::BsGnss",
   "linker_set_key" : "_ZN7android8hardware4gnss4V2_06BsGnssC2ENS_2spINS2_5IGnssEEE",
   "parameters" :
   [
    {
     "is_this_ptr" : true,
     "referenced_type" : "type-1008"
    },
    {
     "referenced_type" : "type-531"
    }
   ],
   "return_type" : "type-22",
   "source_file" : "/out/soong/.intermediates/hardware/interfaces/gnss/2.0/android.hardware.gnss@2.0_genc++_headers/gen/android/hardware/gnss/2.0/BsGnss.h"
  },
  {
   "function_name" : "android::hardware::gnss::V2_0::IAGnss::getService",
   "linker_set_key" : "_ZN7android8hardware4gnss4V2_06IAGnss10getServiceERKNSt3__112basic_stringIcNS4_11char_traitsIcEENS4_9allocatorIcEEEEb",
   "parameters" :
   [
    {
     "default_arg" : true,
     "referenced_type" : "type-1886"
    },
    {
     "default_arg" : true,
     "referenced_type" : "type-34"
    }
   ],
   "return_type" : "type-510",
   "source_file" : "/out/soong/.intermediates/hardware/interfaces/gnss/2.0/android.hardware.gnss@2.0_genc++_headers/gen/android/hardware/gnss/2.0/IAGnss.h"
  },
  {
   "function_name" : "android::hardware::gnss::V2_0::IAGnss::linkToDeath",
   "linker_set_key" : "_ZN7android8hardware4gnss4V2_06IAGnss11linkToDeathERKNS_2spINS0_20hidl_death_recipientEEEy",
   "parameters" :
   [
    {
     "is_this_ptr" : true,
     "referenced_type" : "type-511"
    },
    {
     "referenced_type" : "type-1550"
    },
    {
     "referenced_type" : "type-13"
    }
   ],
   "return_type" : "type-723",
   "source_file" : "/out/soong/.intermediates/hardware/interfaces/gnss/2.0/android.hardware.gnss@2.0_genc++_headers/gen/android/hardware/gnss/2.0/IAGnss.h"
  },
  {
   "function_name" : "android::hardware::gnss::V2_0::IAGnss::getDebugInfo",
   "linker_set_key" : "_ZN7android8hardware4gnss4V2_06IAGnss12getDebugInfoENSt3__18functionIFvRKNS_4hidl4base4V1_09DebugInfoEEEE",
   "parameters" :
   [
    {
     "is_this_ptr" : true,
     "referenced_type" : "type-511"
    },
    {
     "referenced_type" : "type-2914"
    }
   ],
   "return_type" : "type-920",
   "source_file" : "/out/soong/.intermediates/hardware/interfaces/gnss/2.0/android.hardware.gnss@2.0_genc++_headers/gen/android/hardware/gnss/2.0/IAGnss.h"
  },
  {
   "function_name" : "android::hardware::gnss::V2_0::IAGnss::getHashChain",
   "linker_set_key" : "_ZN7android8hardware4gnss4V2_06IAGnss12getHashChainENSt3__18functionIFvRKNS0_8hidl_vecINS0_10hidl_arrayIhLj32EJEEEEEEEE",
   "parameters" :
   [
    {
     "is_this_ptr" : true,
     "referenced_type" : "type-511"
    },
    {
     "referenced_type" : "type-2915"
    }
   ],
   "return_type" : "type-920",
   "source_file" : "/out/soong/.intermediates/hardware/interfaces/gnss/2.0/android.hardware.gnss@2.0_genc++_headers/gen/android/hardware/gnss/2.0/IAGnss.h"
  },
  {
   "function_name" : "android::hardware::gnss::V2_0::IAGnss::tryGetService",
   "linker_set_key" : "_ZN7android8hardware4gnss4V2_06IAGnss13tryGetServiceERKNSt3__112basic_stringIcNS4_11char_traitsIcEENS4_9allocatorIcEEEEb",
   "parameters" :
   [
    {
     "default_arg" : true,
     "referenced_type" : "type-1886"
    },
    {
     "default_arg" : true,
     "referenced_type" : "type-34"
    }
   ],
   "return_type" : "type-510",
   "source_file" : "/out/soong/.intermediates/hardware/interfaces/gnss/2.0/android.hardware.gnss@2.0_genc++_headers/gen/android/hardware/gnss/2.0/IAGnss.h"
  },
  {
   "function_name" : "android::hardware::gnss::V2_0::IAGnss::unlinkToDeath",
   "linker_set_key" : "_ZN7android8hardware4gnss4V2_06IAGnss13unlinkToDeathERKNS_2spINS0_20hidl_death_recipientEEE",
   "parameters" :
   [
    {
     "is_this_ptr" : true,
     "referenced_type" : "type-511"
    },
    {
     "referenced_type" : "type-1550"
    }
   ],
   "return_type" : "type-723",
   "source_file" : "/out/soong/.intermediates/hardware/interfaces/gnss/2.0/android.hardware.gnss@2.0_genc++_headers/gen/android/hardware/gnss/2.0/IAGnss.h"
  },
  {
   "function_name" : "android::hardware::gnss::V2_0::IAGnss::interfaceChain",
   "linker_set_key" : "_ZN7android8hardware4gnss4V2_06IAGnss14interfaceChainENSt3__18functionIFvRKNS0_8hidl_vecINS0_11hidl_stringEEEEEE",
   "parameters" :
   [
    {
     "is_this_ptr" : true,
     "referenced_type" : "type-511"
    },
    {
     "referenced_type" : "type-2916"
    }
   ],
   "return_type" : "type-920",
   "source_file" : "/out/soong/.intermediates/hardware/interfaces/gnss/2.0/android.hardware.gnss@2.0_genc++_headers/gen/android/hardware/gnss/2.0/IAGnss.h"
  },
  {
   "function_name" : "android::hardware::gnss::V2_0::IAGnss::registerAsService",
   "linker_set_key" : "_ZN7android8hardware4gnss4V2_06IAGnss17registerAsServiceERKNSt3__112basic_stringIcNS4_11char_traitsIcEENS4_9allocatorIcEEEE",
   "parameters" :
   [
    {
     "is_this_ptr" : true,
     "referenced_type" : "type-511"
    },
    {
     "default_arg" : true,
     "referenced_type" : "type-1886"
    }
   ],
   "return_type" : "type-20",
   "source_file" : "/out/soong/.intermediates/hardware/interfaces/gnss/2.0/android.hardware.gnss@2.0_genc++_headers/gen/android/hardware/gnss/2.0/IAGnss.h"
  },
  {
   "function_name" : "android::hardware::gnss::V2_0::IAGnss::interfaceDescriptor",
   "linker_set_key" : "_ZN7android8hardware4gnss4V2_06IAGnss19interfaceDescriptorENSt3__18functionIFvRKNS0_11hidl_stringEEEE",
   "parameters" :
   [
    {
     "is_this_ptr" : true,
     "referenced_type" : "type-511"
    },
    {
     "referenced_type" : "type-2917"
    }
   ],
   "return_type" : "type-920",
   "source_file" : "/out/soong/.intermediates/hardware/interfaces/gnss/2.0/android.hardware.gnss@2.0_genc++_headers/gen/android/hardware/gnss/2.0/IAGnss.h"
  },
  {
   "function_name" : "android::hardware::gnss::V2_0::IAGnss::notifySyspropsChanged",
   "linker_set_key" : "_ZN7android8hardware4gnss4V2_06IAGnss21notifySyspropsChangedEv",
   "parameters" :
   [
    {
     "is_this_ptr" : true,
     "referenced_type" : "type-511"
    }
   ],
   "return_type" : "type-920",
   "source_file" : "/out/soong/.intermediates/hardware/interfaces/gnss/2.0/android.hardware.gnss@2.0_genc++_headers/gen/android/hardware/gnss/2.0/IAGnss.h"
  },
  {
   "function_name" : "android::hardware::gnss::V2_0::IAGnss::setHALInstrumentation",
   "linker_set_key" : "_ZN7android8hardware4gnss4V2_06IAGnss21setHALInstrumentationEv",
   "parameters" :
   [
    {
     "is_this_ptr" : true,
     "referenced_type" : "type-511"
    }
   ],
   "return_type" : "type-920",
   "source_file" : "/out/soong/.intermediates/hardware/interfaces/gnss/2.0/android.hardware.gnss@2.0_genc++_headers/gen/android/hardware/gnss/2.0/IAGnss.h"
  },
  {
   "function_name" : "android::hardware::gnss::V2_0::IAGnss::registerForNotifications",
   "linker_set_key" : "_ZN7android8hardware4gnss4V2_06IAGnss24registerForNotificationsERKNSt3__112basic_stringIcNS4_11char_traitsIcEENS4_9allocatorIcEEEERKNS_2spINS_4hidl7manager4V1_020IServiceNotificationEEE",
   "parameters" :
   [
    {
     "referenced_type" : "type-1886"
    },
    {
     "referenced_type" : "type-2237"
    }
   ],
   "return_type" : "type-34",
   "source_file" : "/out/soong/.intermediates/hardware/interfaces/gnss/2.0/android.hardware.gnss@2.0_genc++_headers/gen/android/hardware/gnss/2.0/IAGnss.h"
  },
  {
   "function_name" : "android::hardware::gnss::V2_0::IAGnss::ping",
   "linker_set_key" : "_ZN7android8hardware4gnss4V2_06IAGnss4pingEv",
   "parameters" :
   [
    {
     "is_this_ptr" : true,
     "referenced_type" : "type-511"
    }
   ],
   "return_type" : "type-920",
   "source_file" : "/out/soong/.intermediates/hardware/interfaces/gnss/2.0/android.hardware.gnss@2.0_genc++_headers/gen/android/hardware/gnss/2.0/IAGnss.h"
  },
  {
   "function_name" : "android::hardware::gnss::V2_0::IAGnss::debug",
   "linker_set_key" : "_ZN7android8hardware4gnss4V2_06IAGnss5debugERKNS0_11hidl_handleERKNS0_8hidl_vecINS0_11hidl_stringEEE",
   "parameters" :
   [
    {
     "is_this_ptr" : true,
     "referenced_type" : "type-511"
    },
    {
     "referenced_type" : "type-1777"
    },
    {
     "referenced_type" : "type-2236"
    }
   ],
   "return_type" : "type-920",
   "source_file" : "/out/soong/.intermediates/hardware/interfaces/gnss/2.0/android.hardware.gnss@2.0_genc++_headers/gen/android/hardware/gnss/2.0/IAGnss.h"
  },
  {
   "function_name" : "android::hardware::gnss::V2_0::IAGnss::castFrom",
   "linker_set_key" : "_ZN7android8hardware4gnss4V2_06IAGnss8castFromERKNS_2spINS_4hidl4base4V1_05IBaseEEEb",
   "parameters" :
   [
    {
     "referenced_type" : "type-2325"
    },
    {
     "default_arg" : true,
     "referenced_type" : "type-34"
    }
   ],
   "return_type" : "type-795",
   "source_file" : "/out/soong/.intermediates/hardware/interfaces/gnss/2.0/android.hardware.gnss@2.0_genc++_headers/gen/android/hardware/gnss/2.0/IAGnss.h"
  },
  {
   "function_name" : "android::hardware::gnss::V2_0::IAGnss::castFrom",
   "linker_set_key" : "_ZN7android8hardware4gnss4V2_06IAGnss8castFromERKNS_2spIS3_EEb",
   "parameters" :
   [
    {
     "referenced_type" : "type-2285"
    },
    {
     "default_arg" : true,
     "referenced_type" : "type-34"
    }
   ],
   "return_type" : "type-795",
   "source_file" : "/out/soong/.intermediates/hardware/interfaces/gnss/2.0/android.hardware.gnss@2.0_genc++_headers/gen/android/hardware/gnss/2.0/IAGnss.h"
  },
  {
   "access" : "private",
   "function_name" : "android::hardware::gnss::V2_0::BsAGnss::addOnewayTask",
   "linker_set_key" : "_ZN7android8hardware4gnss4V2_07BsAGnss13addOnewayTaskENSt3__18functionIFvvEEE",
   "parameters" :
   [
    {
     "is_this_ptr" : true,
     "referenced_type" : "type-2384"
    },
    {
     "referenced_type" : "type-2920"
    }
   ],
   "return_type" : "type-920",
   "source_file" : "/out/soong/.intermediates/hardware/interfaces/gnss/2.0/android.hardware.gnss@2.0_genc++_headers/gen/android/hardware/gnss/2.0/BsAGnss.h"
  },
  {
   "function_name" : "android::hardware::gnss::V2_0::BsAGnss::BsAGnss",
   "linker_set_key" : "_ZN7android8hardware4gnss4V2_07BsAGnssC1ENS_2spINS2_6IAGnssEEE",
   "parameters" :
   [
    {
     "is_this_ptr" : true,
     "referenced_type" : "type-2384"
    },
    {
     "referenced_type" : "type-545"
    }
   ],
   "return_type" : "type-22",
   "source_file" : "/out/soong/.intermediates/hardware/interfaces/gnss/2.0/android.hardware.gnss@2.0_genc++_headers/gen/android/hardware/gnss/2.0/BsAGnss.h"
  },
  {
   "function_name" : "android::hardware::gnss::V2_0::BsAGnss::BsAGnss",
   "linker_set_key" : "_ZN7android8hardware4gnss4V2_07BsAGnssC2ENS_2spINS2_6IAGnssEEE",
   "parameters" :
   [
    {
     "is_this_ptr" : true,
     "referenced_type" : "type-2384"
    },
    {
     "referenced_type" : "type-545"
    }
   ],
   "return_type" : "type-22",
   "source_file" : "/out/soong/.intermediates/hardware/interfaces/gnss/2.0/android.hardware.gnss@2.0_genc++_headers/gen/android/hardware/gnss/2.0/BsAGnss.h"
  },
  {
   "function_name" : "android::hardware::gnss::V2_0::BnHwGnss::onTransact",
   "linker_set_key" : "_ZN7android8hardware4gnss4V2_08BnHwGnss10onTransactEjRKNS0_6ParcelEPS4_jNSt3__18functionIFvRS4_EEE",
   "parameters" :
   [
    {
     "is_this_ptr" : true,
     "referenced_type" : "type-958"
    },
    {
     "referenced_type" : "type-2"
    },
    {
     "referenced_type" : "type-1881"
    },
    {
     "referenced_type" : "type-1852"
    },
    {
     "default_arg" : true,
     "referenced_type" : "type-2"
    },
    {
     "default_arg" : true,
     "referenced_type" : "type-2923"
    }
   ],
   "return_type" : "type-20",
   "source_file" : "/out/soong/.intermediates/hardware/interfaces/gnss/2.0/android.hardware.gnss@2.0_genc++_headers/gen/android/hardware/gnss/2.0/BnHwGnss.h"
  },
  {
   "access" : "private",
   "function_name" : "android::hardware::gnss::V2_0::BnHwGnss::getDebugInfo",
   "linker_set_key" : "_ZN7android8hardware4gnss4V2_08BnHwGnss12getDebugInfoENSt3__18functionIFvRKNS_4hidl4base4V1_09DebugInfoEEEE",
   "parameters" :
   [
    {
     "is_this_ptr" : true,
     "referenced_type" : "type-958"
    },
    {
     "referenced_type" : "type-2924"
    }
   ],
   "return_type" : "type-920",
   "source_file" : "/out/soong/.intermediates/hardware/interfaces/gnss/2.0/android.hardware.gnss@2.0_genc++_headers/gen/android/hardware/gnss/2.0/BnHwGnss.h"
  },
  {
   "function_name" : "android::hardware::gnss::V2_0::BnHwGnss::_hidl_setCallback_2_0",
   "linker_set_key" : "_ZN7android8hardware4gnss4V2_08BnHwGnss21_hidl_setCallback_2_0EPNS_4hidl4base4V1_08BnHwBaseERKNS0_6ParcelEPS9_NSt3__18functionIFvRS9_EEE",
   "parameters" :
   [
    {
     "referenced_type" : "type-1882"
    },
    {
     "referenced_type" : "type-1881"
    },
    {
     "referenced_type" : "type-1852"
    },
    {
     "referenced_type" : "type-2925"
    }
   ],
   "return_type" : "type-20",
   "source_file" : "/out/soong/.intermediates/hardware/interfaces/gnss/2.0/android.hardware.gnss@2.0_genc++_headers/gen/android/hardware/gnss/2.0/BnHwGnss.h"
  },
  {
   "function_name" : "android::hardware::gnss::V2_0::BnHwGnss::_hidl_getExtensionAGnss_2_0",
   "linker_set_key" : "_ZN7android8hardware4gnss4V2_08BnHwGnss27_hidl_getExtensionAGnss_2_0EPNS_4hidl4base4V1_08BnHwBaseERKNS0_6ParcelEPS9_NSt3__18functionIFvRS9_EEE",
   "parameters" :
   [
    {
     "referenced_type" : "type-1882"
    },
    {
