{
 "array_types" :
 [
  {
   "alignment" : 4,
   "linker_set_key" : "AHardwareBuffer_Plane [4]",
   "name" : "AHardwareBuffer_Plane [4]",
   "referenced_type" : "type-2167",
   "self_type" : "type-2169",
   "size" : 48,
   "source_file" : "/frameworks/native/libs/nativewindow/include/android/hardware_buffer.h"
  },
  {
   "alignment" : 2,
   "linker_set_key" : "_fpreg [8]",
   "name" : "_fpreg [8]",
   "referenced_type" : "type-2227",
   "self_type" : "type-2234",
   "size" : 80,
   "source_file" : "/bionic/libc/kernel/uapi/asm-x86/asm/sigcontext.h"
  },
  {
   "alignment" : 2,
   "linker_set_key" : "_fpxreg [8]",
   "name" : "_fpxreg [8]",
   "referenced_type" : "type-2229",
   "self_type" : "type-2235",
   "size" : 128,
   "source_file" : "/bionic/libc/kernel/uapi/asm-x86/asm/sigcontext.h"
  },
  {
   "alignment" : 2,
   "linker_set_key" : "_libc_fpreg [8]",
   "name" : "_libc_fpreg [8]",
   "referenced_type" : "type-2310",
   "self_type" : "type-2312",
   "size" : 80,
   "source_file" : "/out/soong/.intermediates/bionic/libc/libc.llndk/android_x86_vendor_shared/gen/include/sys/ucontext.h"
  },
  {
   "alignment" : 4,
   "linker_set_key" : "_xmmreg [8]",
   "name" : "_xmmreg [8]",
   "referenced_type" : "type-2231",
   "self_type" : "type-2236",
   "size" : 128,
   "source_file" : "/bionic/libc/kernel/uapi/asm-x86/asm/sigcontext.h"
  },
  {
   "alignment" : 4,
   "linker_set_key" : "android::renderscript::Allocation::Hal::DrvState::LodState [16]",
   "name" : "android::renderscript::Allocation::Hal::DrvState::LodState [16]",
   "referenced_type" : "type-85",
   "self_type" : "type-84",
   "size" : 320,
   "source_file" : "/frameworks/rs/rsAllocation.h"
  },
  {
   "alignment" : 4,
   "linker_set_key" : "android::renderscript::ObjectBaseRef<android::renderscript::Sampler> [16]",
   "name" : "android::renderscript::ObjectBaseRef<android::renderscript::Sampler> [16]",
   "referenced_type" : "type-116",
   "self_type" : "type-404",
   "size" : 64,
   "source_file" : "/frameworks/rs/rsSampler.h"
  },
  {
   "linker_set_key" : "char *[]",
   "name" : "char *[]",
   "referenced_type" : "type-588",
   "self_type" : "type-2324",
   "source_file" : "/out/soong/.intermediates/bionic/libc/libc.llndk/android_x86_vendor_shared/gen/include/time.h"
  },
  {
   "alignment" : 1,
   "linker_set_key" : "char [0]",
   "name" : "char [0]",
   "referenced_type" : "type-23",
   "self_type" : "type-2029",
   "source_file" : "/system/core/liblog/include/log/log_read.h"
  },
  {
   "alignment" : 1,
   "linker_set_key" : "char [11]",
   "name" : "char [11]",
   "referenced_type" : "type-23",
   "self_type" : "type-591",
   "size" : 11,
   "source_file" : "/external/libcxx/include/string"
  },
  {
   "alignment" : 1,
   "linker_set_key" : "char [17]",
   "name" : "char [17]",
   "referenced_type" : "type-23",
   "self_type" : "type-2465",
   "size" : 17,
   "source_file" : "/frameworks/rs/rsDefines.h"
  },
  {
   "alignment" : 1,
   "linker_set_key" : "char [18]",
   "name" : "char [18]",
   "referenced_type" : "type-23",
   "self_type" : "type-5421",
   "size" : 18,
   "source_file" : "/external/libcxx/include/type_traits"
  },
  {
   "alignment" : 1,
   "linker_set_key" : "char [19]",
   "name" : "char [19]",
   "referenced_type" : "type-23",
   "self_type" : "type-2442",
   "size" : 19,
   "source_file" : "/frameworks/rs/rsDefines.h"
  },
  {
   "alignment" : 1,
   "linker_set_key" : "char [1]",
   "name" : "char [1]",
   "referenced_type" : "type-23",
   "self_type" : "type-6235",
   "size" : 1,
   "source_file" : "/external/libcxx/include/type_traits"
  },
  {
   "alignment" : 1,
   "linker_set_key" : "char [21]",
   "name" : "char [21]",
   "referenced_type" : "type-23",
   "self_type" : "type-2485",
   "size" : 21,
   "source_file" : "/frameworks/rs/rsDefines.h"
  },
  {
   "alignment" : 1,
   "linker_set_key" : "char [22]",
   "name" : "char [22]",
   "referenced_type" : "type-23",
   "self_type" : "type-2505",
   "size" : 22,
   "source_file" : "/frameworks/rs/rsDefines.h"
  },
  {
   "alignment" : 1,
   "linker_set_key" : "char [23]",
   "name" : "char [23]",
   "referenced_type" : "type-23",
   "self_type" : "type-5392",
   "size" : 23,
   "source_file" : "/external/libcxx/include/type_traits"
  },
  {
   "alignment" : 1,
   "linker_set_key" : "char [24]",
   "name" : "char [24]",
   "referenced_type" : "type-23",
   "self_type" : "type-5387",
   "size" : 24,
   "source_file" : "/external/libcxx/include/type_traits"
  },
  {
   "alignment" : 1,
   "linker_set_key" : "char [25]",
   "name" : "char [25]",
   "referenced_type" : "type-23",
   "self_type" : "type-5411",
   "size" : 25,
   "source_file" : "/external/libcxx/include/type_traits"
  },
  {
   "alignment" : 1,
   "linker_set_key" : "char [26]",
   "name" : "char [26]",
   "referenced_type" : "type-23",
   "self_type" : "type-5416",
   "size" : 26,
   "source_file" : "/external/libcxx/include/type_traits"
  },
  {
   "alignment" : 1,
   "linker_set_key" : "char [2]",
   "name" : "char [2]",
   "referenced_type" : "type-23",
   "self_type" : "type-3158",
   "size" : 2,
   "source_file" : "/external/libcxx/include/type_traits"
  },
  {
   "alignment" : 1,
   "linker_set_key" : "char [32]",
   "name" : "char [32]",
   "referenced_type" : "type-23",
   "self_type" : "type-2308",
   "size" : 32,
   "source_file" : "/out/soong/.intermediates/bionic/libc/libc.llndk/android_x86_vendor_shared/gen/include/sys/user.h"
  },
  {
   "alignment" : 1,
   "linker_set_key" : "char [3]",
   "name" : "char [3]",
   "referenced_type" : "type-23",
   "self_type" : "type-5397",
   "size" : 3,
   "source_file" : "/external/libcxx/include/type_traits"
  },
  {
   "alignment" : 1,
   "linker_set_key" : "char [4097]",
   "name" : "char [4097]",
   "referenced_type" : "type-23",
   "self_type" : "type-500",
   "size" : 4097,
   "source_file" : "/frameworks/rs/rsContext.h"
  },
  {
   "alignment" : 1,
   "linker_set_key" : "char [48]",
   "name" : "char [48]",
   "referenced_type" : "type-23",
   "self_type" : "type-5402",
   "size" : 48,
   "source_file" : "/external/libcxx/include/type_traits"
  },
  {
   "alignment" : 1,
   "linker_set_key" : "char [4]",
   "name" : "char [4]",
   "referenced_type" : "type-23",
   "self_type" : "type-2275",
   "size" : 4,
   "source_file" : "/bionic/libc/kernel/uapi/asm-generic/siginfo.h"
  },
  {
   "alignment" : 1,
   "linker_set_key" : "char [5]",
   "name" : "char [5]",
   "referenced_type" : "type-23",
   "self_type" : "type-2395",
   "size" : 5,
   "source_file" : "/frameworks/rs/rsDefines.h"
  },
  {
   "alignment" : 1,
   "linker_set_key" : "char [8]",
   "name" : "char [8]",
   "referenced_type" : "type-23",
   "self_type" : "type-1884",
   "size" : 8,
   "source_file" : "/external/libcxx/include/functional"
  },
  {
   "alignment" : 1,
   "linker_set_key" : "char [9]",
   "name" : "char [9]",
   "referenced_type" : "type-23",
   "self_type" : "type-2420",
   "size" : 9,
   "source_file" : "/frameworks/rs/rsDefines.h"
  },
  {
   "alignment" : 2,
   "linker_set_key" : "char16_t [5]",
   "name" : "char16_t [5]",
   "referenced_type" : "type-618",
   "self_type" : "type-621",
   "size" : 10,
   "source_file" : "/external/libcxx/include/string"
  },
  {
   "alignment" : 4,
   "linker_set_key" : "char32_t [2]",
   "name" : "char32_t [2]",
   "referenced_type" : "type-636",
   "self_type" : "type-639",
   "size" : 8,
   "source_file" : "/external/libcxx/include/string"
  },
  {
   "alignment" : 4,
   "linker_set_key" : "const char *[65]",
   "name" : "const char *[65]",
   "referenced_type" : "type-21",
   "self_type" : "type-2321",
   "size" : 260,
   "source_file" : "/out/soong/.intermediates/bionic/libc/libc.llndk/android_x86_vendor_shared/gen/include/signal.h"
  },
  {
   "alignment" : 4,
   "linker_set_key" : "double [4]",
   "name" : "double [4]",
   "referenced_type" : "type-687",
   "self_type" : "type-4004",
   "size" : 32,
   "source_file" : "/external/libcxx/include/type_traits"
  },
  {
   "alignment" : 4,
   "linker_set_key" : "float [16]",
   "name" : "float [16]",
   "referenced_type" : "type-108",
   "self_type" : "type-709",
   "size" : 64,
   "source_file" : "/frameworks/rs/rsDefines.h"
  },
  {
   "alignment" : 4,
   "linker_set_key" : "float [3]",
   "name" : "float [3]",
   "referenced_type" : "type-108",
   "self_type" : "type-3490",
   "size" : 12,
   "source_file" : "/frameworks/rs/rsMesh.h"
  },
  {
   "alignment" : 4,
   "linker_set_key" : "float [4]",
   "name" : "float [4]",
   "referenced_type" : "type-108",
   "self_type" : "type-125",
   "size" : 16,
   "source_file" : "/frameworks/rs/rsDefines.h"
  },
  {
   "alignment" : 4,
   "linker_set_key" : "float [9]",
   "name" : "float [9]",
   "referenced_type" : "type-108",
   "self_type" : "type-720",
   "size" : 36,
   "source_file" : "/frameworks/rs/rsDefines.h"
  },
  {
   "linker_set_key" : "float []",
   "name" : "float []",
   "referenced_type" : "type-108",
   "self_type" : "type-3391",
   "source_file" : "/system/core/libsystem/include/system/graphics.h"
  },
  {
   "alignment" : 4,
   "linker_set_key" : "int [0]",
   "name" : "int [0]",
   "referenced_type" : "type-36",
   "self_type" : "type-2143",
   "source_file" : "/system/core/libcutils/include/cutils/native_handle.h"
  },
  {
   "alignment" : 4,
   "linker_set_key" : "int [10]",
   "name" : "int [10]",
   "referenced_type" : "type-36",
   "self_type" : "type-1406",
   "size" : 40,
   "source_file" : "/out/soong/.intermediates/bionic/libc/libc.llndk/android_x86_vendor_shared/gen/include/bits/pthread_types.h"
  },
  {
   "alignment" : 4,
   "linker_set_key" : "int [13]",
   "name" : "int [13]",
   "referenced_type" : "type-36",
   "self_type" : "type-2287",
   "size" : 52,
   "source_file" : "/bionic/libc/kernel/uapi/asm-generic/siginfo.h"
  },
  {
   "alignment" : 4,
   "linker_set_key" : "int [19]",
   "name" : "int [19]",
   "referenced_type" : "type-36",
   "self_type" : "type-2314",
   "size" : 76,
   "source_file" : "/out/soong/.intermediates/bionic/libc/libc.llndk/android_x86_vendor_shared/gen/include/sys/ucontext.h"
  },
  {
   "alignment" : 4,
   "linker_set_key" : "int [1]",
   "name" : "int [1]",
   "referenced_type" : "type-36",
   "self_type" : "type-1131",
   "size" : 4,
   "source_file" : "/out/soong/.intermediates/bionic/libc/libc.llndk/android_x86_vendor_shared/gen/include/bits/pthread_types.h"
  },
  {
   "alignment" : 4,
   "linker_set_key" : "int [2]",
   "name" : "int [2]",
   "referenced_type" : "type-36",
   "self_type" : "type-478",
   "size" : 8,
   "source_file" : "/bionic/libc/kernel/uapi/asm-generic/posix_types.h"
  },
  {
   "alignment" : 4,
   "linker_set_key" : "int [32]",
   "name" : "int [32]",
   "referenced_type" : "type-36",
   "self_type" : "type-2279",
   "size" : 128,
   "source_file" : "/bionic/libc/kernel/uapi/asm-generic/siginfo.h"
  },
  {
   "alignment" : 4,
   "linker_set_key" : "int [4]",
   "name" : "int [4]",
   "referenced_type" : "type-36",
   "self_type" : "type-1969",
   "size" : 16,
   "source_file" : "/frameworks/rs/rsCppUtils.h"
  },
  {
   "alignment" : 4,
   "linker_set_key" : "int [8]",
   "name" : "int [8]",
   "referenced_type" : "type-36",
   "self_type" : "type-2309",
   "size" : 32,
   "source_file" : "/out/soong/.intermediates/bionic/libc/libc.llndk/android_x86_vendor_shared/gen/include/bits/pthread_types.h"
  },
  {
   "alignment" : 4,
   "linker_set_key" : "long [20]",
   "name" : "long [20]",
   "referenced_type" : "type-488",
   "self_type" : "type-2299",
   "size" : 80,
   "source_file" : "/out/soong/.intermediates/bionic/libc/libc.llndk/android_x86_vendor_shared/gen/include/sys/user.h"
  },
  {
   "alignment" : 4,
   "linker_set_key" : "long [32]",
   "name" : "long [32]",
   "referenced_type" : "type-488",
   "self_type" : "type-2301",
   "size" : 128,
   "source_file" : "/out/soong/.intermediates/bionic/libc/libc.llndk/android_x86_vendor_shared/gen/include/sys/user.h"
  },
  {
   "alignment" : 4,
   "linker_set_key" : "long [56]",
   "name" : "long [56]",
   "referenced_type" : "type-488",
   "self_type" : "type-2302",
   "size" : 224,
   "source_file" : "/out/soong/.intermediates/bionic/libc/libc.llndk/android_x86_vendor_shared/gen/include/sys/user.h"
  },
  {
   "alignment" : 1,
   "linker_set_key" : "unsigned char [16]",
   "name" : "unsigned char [16]",
   "referenced_type" : "type-143",
   "self_type" : "type-557",
   "size" : 16,
   "source_file" : "/external/libcxx/include/type_traits"
  },
  {
   "alignment" : 1,
   "linker_set_key" : "unsigned char [2048]",
   "name" : "unsigned char [2048]",
   "referenced_type" : "type-143",
   "self_type" : "type-479",
   "size" : 2048,
   "source_file" : "/frameworks/rs/rsThreadIO.h"
  },
  {
   "alignment" : 1,
   "linker_set_key" : "unsigned char [4]",
   "name" : "unsigned char [4]",
   "referenced_type" : "type-143",
   "self_type" : "type-1235",
   "size" : 4,
   "source_file" : "/out/soong/.intermediates/bionic/libc/libc.llndk/android_x86_vendor_shared/gen/include/bits/mbstate_t.h"
  },
  {
   "alignment" : 1,
   "linker_set_key" : "unsigned char [5121]",
   "name" : "unsigned char [5121]",
   "referenced_type" : "type-143",
   "self_type" : "type-2035",
   "size" : 5121,
   "source_file" : "/system/core/liblog/include/log/log_read.h"
  },
  {
   "alignment" : 4,
   "linker_set_key" : "unsigned int [12]",
   "name" : "unsigned int [12]",
   "referenced_type" : "type-16",
   "self_type" : "type-2240",
   "size" : 48,
   "source_file" : "/bionic/libc/kernel/uapi/asm-x86/asm/sigcontext.h"
  },
  {
   "alignment" : 4,
   "linker_set_key" : "unsigned int [32]",
   "name" : "unsigned int [32]",
   "referenced_type" : "type-16",
   "self_type" : "type-2242",
   "size" : 128,
   "source_file" : "/bionic/libc/kernel/uapi/asm-x86/asm/sigcontext.h"
  },
  {
   "alignment" : 4,
   "linker_set_key" : "unsigned int [3]",
   "name" : "unsigned int [3]",
   "referenced_type" : "type-16",
   "self_type" : "type-593",
   "size" : 12,
   "source_file" : "/external/libcxx/include/string"
  },
  {
   "alignment" : 4,
   "linker_set_key" : "unsigned int [44]",
   "name" : "unsigned int [44]",
   "referenced_type" : "type-16",
   "self_type" : "type-2238",
   "size" : 176,
   "source_file" : "/bionic/libc/kernel/uapi/asm-x86/asm/sigcontext.h"
  },
  {
   "alignment" : 4,
   "linker_set_key" : "unsigned int [4]",
   "name" : "unsigned int [4]",
   "referenced_type" : "type-16",
   "self_type" : "type-82",
   "size" : 16,
   "source_file" : "/bionic/libc/kernel/uapi/asm-x86/asm/sigcontext.h"
  },
  {
   "alignment" : 4,
   "linker_set_key" : "unsigned int [64]",
   "name" : "unsigned int [64]",
   "referenced_type" : "type-16",
   "self_type" : "type-2243",
   "size" : 256,
   "source_file" : "/bionic/libc/kernel/uapi/asm-x86/asm/sigcontext.h"
  },
  {
   "alignment" : 4,
   "linker_set_key" : "unsigned int [6]",
   "name" : "unsigned int [6]",
   "referenced_type" : "type-16",
   "self_type" : "type-2173",
   "size" : 24,
   "source_file" : "/bionic/libc/kernel/uapi/asm-x86/asm/sigcontext.h"
  },
  {
   "alignment" : 4,
   "linker_set_key" : "unsigned int [7]",
   "name" : "unsigned int [7]",
   "referenced_type" : "type-16",
   "self_type" : "type-2226",
   "size" : 28,
   "source_file" : "/bionic/libc/kernel/uapi/asm-x86/asm/sigcontext.h"
  },
  {
   "alignment" : 4,
   "linker_set_key" : "unsigned int [8]",
   "name" : "unsigned int [8]",
   "referenced_type" : "type-16",
   "self_type" : "type-3377",
   "size" : 32,
   "source_file" : "/system/core/libsystem/include/system/graphics.h"
  },
  {
   "alignment" : 4,
   "linker_set_key" : "unsigned long [1]",
   "name" : "unsigned long [1]",
   "referenced_type" : "type-568",
   "self_type" : "type-2216",
   "size" : 4,
   "source_file" : "/out/soong/.intermediates/bionic/libc/libc.llndk/android_x86_vendor_shared/gen/include/sched.h"
  },
  {
   "alignment" : 4,
   "linker_set_key" : "unsigned long [2]",
   "name" : "unsigned long [2]",
   "referenced_type" : "type-568",
   "self_type" : "type-2292",
   "size" : 8,
   "source_file" : "/out/soong/.intermediates/bionic/libc/libc.llndk/android_x86_vendor_shared/gen/include/bits/signal_types.h"
  },
  {
   "alignment" : 4,
   "linker_set_key" : "unsigned long [32]",
   "name" : "unsigned long [32]",
   "referenced_type" : "type-568",
   "self_type" : "type-2283",
   "size" : 128,
   "source_file" : "/bionic/libc/kernel/uapi/linux/posix_types.h"
  },
  {
   "alignment" : 4,
   "linker_set_key" : "unsigned long long [14]",
   "name" : "unsigned long long [14]",
   "referenced_type" : "type-498",
   "self_type" : "type-2025",
   "size" : 112,
   "source_file" : "/bionic/libc/kernel/uapi/linux/stat.h"
  },
  {
   "alignment" : 4,
   "linker_set_key" : "unsigned long long [2]",
   "name" : "unsigned long long [2]",
   "referenced_type" : "type-498",
   "self_type" : "type-2246",
   "size" : 16,
   "source_file" : "/bionic/libc/kernel/uapi/asm-x86/asm/sigcontext.h"
  },
  {
   "alignment" : 4,
   "linker_set_key" : "unsigned long long [4]",
   "name" : "unsigned long long [4]",
   "referenced_type" : "type-498",
   "self_type" : "type-497",
   "size" : 32,
   "source_file" : "/frameworks/rs/rsContext.h"
  },
  {
   "alignment" : 4,
   "linker_set_key" : "unsigned long long [5]",
   "name" : "unsigned long long [5]",
   "referenced_type" : "type-498",
   "self_type" : "type-2247",
   "size" : 40,
   "source_file" : "/bionic/libc/kernel/uapi/asm-x86/asm/sigcontext.h"
  },
  {
   "alignment" : 4,
   "linker_set_key" : "unsigned long long [8]",
   "name" : "unsigned long long [8]",
   "referenced_type" : "type-498",
   "self_type" : "type-2253",
   "size" : 64,
   "source_file" : "/bionic/libc/kernel/uapi/asm-x86/asm/sigcontext.h"
  },
  {
   "alignment" : 2,
   "linker_set_key" : "unsigned short [1]",
   "name" : "unsigned short [1]",
   "referenced_type" : "type-563",
   "self_type" : "type-2024",
   "size" : 2,
   "source_file" : "/bionic/libc/kernel/uapi/linux/stat.h"
  },
  {
   "alignment" : 2,
   "linker_set_key" : "unsigned short [3]",
   "name" : "unsigned short [3]",
   "referenced_type" : "type-563",
   "self_type" : "type-2230",
   "size" : 6,
   "source_file" : "/bionic/libc/kernel/uapi/asm-x86/asm/sigcontext.h"
  },
  {
   "alignment" : 2,
   "linker_set_key" : "unsigned short [4]",
   "name" : "unsigned short [4]",
   "referenced_type" : "type-563",
   "self_type" : "type-2228",
   "size" : 8,
   "source_file" : "/bionic/libc/kernel/uapi/asm-x86/asm/sigcontext.h"
  },
  {
   "alignment" : 4,
   "linker_set_key" : "void *[1]",
   "name" : "void *[1]",
   "referenced_type" : "type-7",
   "self_type" : "type-2139",
   "size" : 4,
   "source_file" : "/frameworks/native/libs/nativebase/include/nativebase/nativebase.h"
  },
  {
   "alignment" : 4,
   "linker_set_key" : "void *[4]",
   "name" : "void *[4]",
   "referenced_type" : "type-7",
   "self_type" : "type-2135",
   "size" : 16,
   "source_file" : "/frameworks/native/libs/nativebase/include/nativebase/nativebase.h"
  },
  {
   "alignment" : 4,
   "linker_set_key" : "void *[6]",
   "name" : "void *[6]",
   "referenced_type" : "type-7",
   "self_type" : "type-2144",
   "size" : 24,
   "source_file" : "/frameworks/native/libs/nativebase/include/nativebase/nativebase.h"
  },
  {
   "alignment" : 4,
   "linker_set_key" : "wchar_t [2]",
   "name" : "wchar_t [2]",
   "referenced_type" : "type-603",
   "self_type" : "type-606",
   "size" : 8,
   "source_file" : "/external/libcxx/include/string"
  }
 ],
 "builtin_types" :
 [
  {
   "alignment" : 2,
   "linker_set_key" : "__fp16",
   "name" : "__fp16",
   "referenced_type" : "type-922",
   "self_type" : "type-922",
   "size" : 2
  },
  {
   "alignment" : 1,
   "is_integral" : true,
   "is_unsigned" : true,
   "linker_set_key" : "bool",
   "name" : "bool",
   "referenced_type" : "type-27",
   "self_type" : "type-27",
   "size" : 1
  },
  {
   "alignment" : 1,
   "is_integral" : true,
   "linker_set_key" : "char",
   "name" : "char",
   "referenced_type" : "type-23",
   "self_type" : "type-23",
   "size" : 1
  },
  {
   "alignment" : 2,
   "is_integral" : true,
   "is_unsigned" : true,
   "linker_set_key" : "char16_t",
   "name" : "char16_t",
   "referenced_type" : "type-618",
   "self_type" : "type-618",
   "size" : 2
  },
  {
   "alignment" : 4,
   "is_integral" : true,
   "is_unsigned" : true,
   "linker_set_key" : "char32_t",
   "name" : "char32_t",
   "referenced_type" : "type-636",
   "self_type" : "type-636",
   "size" : 4
  },
  {
   "alignment" : 4,
   "linker_set_key" : "double",
   "name" : "double",
   "referenced_type" : "type-687",
   "self_type" : "type-687",
   "size" : 8
  },
  {
   "alignment" : 4,
   "linker_set_key" : "float",
   "name" : "float",
   "referenced_type" : "type-108",
   "self_type" : "type-108",
   "size" : 4
  },
  {
   "alignment" : 4,
   "is_integral" : true,
   "linker_set_key" : "int",
   "name" : "int",
   "referenced_type" : "type-36",
   "self_type" : "type-36",
   "size" : 4
  },
  {
   "alignment" : 4,
   "is_integral" : true,
   "linker_set_key" : "long",
   "name" : "long",
   "referenced_type" : "type-488",
   "self_type" : "type-488",
   "size" : 4
  },
  {
   "alignment" : 4,
   "linker_set_key" : "long double",
   "name" : "long double",
   "referenced_type" : "type-3",
   "self_type" : "type-3",
   "size" : 8
  },
  {
   "alignment" : 4,
   "is_integral" : true,
   "linker_set_key" : "long long",
   "name" : "long long",
   "referenced_type" : "type-2",
   "self_type" : "type-2",
   "size" : 8
  },
  {
   "alignment" : 4,
   "linker_set_key" : "nullptr_t",
   "name" : "nullptr_t",
   "referenced_type" : "type-1136",
   "self_type" : "type-1136",
   "size" : 4
  },
  {
   "alignment" : 2,
   "is_integral" : true,
   "linker_set_key" : "short",
   "name" : "short",
   "referenced_type" : "type-561",
   "self_type" : "type-561",
   "size" : 2
  },
  {
   "alignment" : 1,
   "is_integral" : true,
   "linker_set_key" : "signed char",
   "name" : "signed char",
   "referenced_type" : "type-1095",
   "self_type" : "type-1095",
   "size" : 1
  },
  {
   "alignment" : 1,
   "is_integral" : true,
   "is_unsigned" : true,
   "linker_set_key" : "unsigned char",
   "name" : "unsigned char",
   "referenced_type" : "type-143",
   "self_type" : "type-143",
   "size" : 1
  },
  {
   "alignment" : 4,
   "is_integral" : true,
   "is_unsigned" : true,
   "linker_set_key" : "unsigned int",
   "name" : "unsigned int",
   "referenced_type" : "type-16",
   "self_type" : "type-16",
   "size" : 4
  },
  {
   "alignment" : 4,
   "is_integral" : true,
   "is_unsigned" : true,
   "linker_set_key" : "unsigned long",
   "name" : "unsigned long",
   "referenced_type" : "type-568",
   "self_type" : "type-568",
   "size" : 4
  },
  {
   "alignment" : 4,
   "is_integral" : true,
   "is_unsigned" : true,
   "linker_set_key" : "unsigned long long",
   "name" : "unsigned long long",
   "referenced_type" : "type-498",
   "self_type" : "type-498",
   "size" : 8
  },
  {
   "alignment" : 2,
   "is_integral" : true,
   "is_unsigned" : true,
   "linker_set_key" : "unsigned short",
   "name" : "unsigned short",
   "referenced_type" : "type-563",
   "self_type" : "type-563",
   "size" : 2
  },
  {
   "linker_set_key" : "void",
   "name" : "void",
   "referenced_type" : "type-8",
   "self_type" : "type-8"
  },
  {
   "alignment" : 4,
   "is_integral" : true,
   "linker_set_key" : "wchar_t",
   "name" : "wchar_t",
   "referenced_type" : "type-603",
   "self_type" : "type-603",
   "size" : 4
  }
 ],
 "elf_functions" :
 [
  {
   "name" : "_Z10rsIsObject10rs_element"
  },
  {
   "name" : "_Z10rsIsObject10rs_sampler"
  },
  {
   "name" : "_Z10rsIsObject13rs_allocation"
  },
  {
   "name" : "_Z10rsIsObject16rs_program_store"
  },
  {
   "name" : "_Z10rsIsObject17rs_program_raster"
  },
  {
   "name" : "_Z10rsIsObject17rs_program_vertex"
  },
  {
   "name" : "_Z10rsIsObject19rs_program_fragment"
  },
  {
   "name" : "_Z10rsIsObject7rs_font"
  },
  {
   "name" : "_Z10rsIsObject7rs_mesh"
  },
  {
   "name" : "_Z10rsIsObject7rs_type"
  },
  {
   "name" : "_Z10rsIsObject9rs_script"
  },
  {
   "name" : "_Z11rsLocaltimeP5rs_tmPKi"
  },
  {
   "name" : "_Z11rsSetObjectP10rs_elementS_"
  },
  {
   "name" : "_Z11rsSetObjectP10rs_samplerS_"
  },
  {
   "name" : "_Z11rsSetObjectP13rs_allocationS_"
  },
  {
   "name" : "_Z11rsSetObjectP16rs_program_storeS_"
  },
  {
   "name" : "_Z11rsSetObjectP17rs_program_rasterS_"
  },
  {
   "name" : "_Z11rsSetObjectP17rs_program_vertexS_"
  },
  {
   "name" : "_Z11rsSetObjectP19rs_program_fragmentS_"
  },
  {
   "name" : "_Z11rsSetObjectP7rs_fontS_"
  },
  {
   "name" : "_Z11rsSetObjectP7rs_meshS_"
  },
  {
   "name" : "_Z11rsSetObjectP7rs_typeS_"
  },
  {
   "name" : "_Z11rsSetObjectP9rs_scriptS_"
  },
  {
   "name" : "_Z11rsdGLFinishPKN7android12renderscript7ContextE"
  },
  {
   "name" : "_Z11rsdMeshDrawPKN7android12renderscript7ContextEPKNS0_4MeshEjjj"
  },
  {
   "name" : "_Z11rsdMeshInitPKN7android12renderscript7ContextEPKNS0_4MeshE"
  },
  {
   "name" : "_Z11rsdTypeInitPKN7android12renderscript7ContextEPKNS0_4TypeE"
  },
  {
   "name" : "_Z11rsgBindFont7rs_font"
  },
  {
   "name" : "_Z11rsgDrawMesh7rs_mesh"
  },
  {
   "name" : "_Z11rsgDrawMesh7rs_meshj"
  },
  {
   "name" : "_Z11rsgDrawMesh7rs_meshjjj"
  },
  {
   "name" : "_Z11rsgDrawQuadffffffffffff"
  },
  {
   "name" : "_Z11rsgDrawRectfffff"
  },
  {
   "name" : "_Z11rsgDrawText13rs_allocationii"
  },
  {
   "name" : "_Z11rsgDrawTextPKcii"
  },
  {
   "name" : "_Z11rsgGetWidthv"
  },
  {
   "name" : "_Z12GetOffsetPtrPKN7android12renderscript10AllocationEjjjj23RsAllocationCubemapFace"
  },
  {
   "name" : "_Z12rsCreateType10rs_elementjjjbb13rs_yuv_format"
  },
  {
   "name" : "_Z12rsgFontColorffff"
  },
  {
   "name" : "_Z12rsgGetHeightv"
  },
  {
   "name" : "_Z13getConfigDataPKN7android12renderscript7ContextEPijj"
  },
  {
   "name" : "_Z13rsClearObjectP10rs_element"
  },
  {
   "name" : "_Z13rsClearObjectP10rs_sampler"
  },
  {
   "name" : "_Z13rsClearObjectP13rs_allocation"
  },
  {
   "name" : "_Z13rsClearObjectP16rs_program_store"
  },
  {
   "name" : "_Z13rsClearObjectP17rs_program_raster"
  },
  {
   "name" : "_Z13rsClearObjectP17rs_program_vertex"
  },
  {
   "name" : "_Z13rsClearObjectP19rs_program_fragment"
  },
  {
   "name" : "_Z13rsClearObjectP7rs_font"
  },
  {
   "name" : "_Z13rsClearObjectP7rs_mesh"
  },
  {
   "name" : "_Z13rsClearObjectP7rs_type"
  },
  {
   "name" : "_Z13rsClearObjectP9rs_script"
  },
  {
   "name" : "_Z13rsUptimeNanosv"
  },
  {
   "name" : "_Z13rsdGLShutdownPKN7android12renderscript7ContextE"
  },
  {
   "name" : "_Z13rsdScriptInitPKN7android12renderscript7ContextEPNS0_7ScriptCEPKcS7_PKhjj"
  },
  {
   "name" : "_Z13rsgClearColorffff"
  },
  {
   "name" : "_Z13rsgClearDepthf"
  },
  {
   "name" : "_Z14rsGetElementAt13rs_allocationj"
  },
  {
   "name" : "_Z14rsGetElementAt13rs_allocationjj"
  },
  {
   "name" : "_Z14rsGetElementAt13rs_allocationjjj"
  },
  {
   "name" : "_Z14rsSendToClienti"
  },
  {
   "name" : "_Z14rsSendToClientiPKvj"
  },
  {
   "name" : "_Z14rsSetElementAt13rs_allocationPKvj"
  },
  {
   "name" : "_Z14rsSetElementAt13rs_allocationPKvjj"
  },
  {
   "name" : "_Z14rsSetElementAt13rs_allocationPKvjjj"
  },
  {
   "name" : "_Z14rsUptimeMillisv"
  },
  {
   "name" : "_Z14rsdElementInitPKN7android12renderscript7ContextEPKNS0_7ElementE"
  },
  {
   "name" : "_Z14rsdMeshDestroyPKN7android12renderscript7ContextEPKNS0_4MeshE"
  },
  {
   "name" : "_Z14rsdSamplerInitPKN7android12renderscript7ContextEPKNS0_7SamplerE"
  },
  {
   "name" : "_Z14rsdTypeDestroyPKN7android12renderscript7ContextEPKNS0_4TypeE"
  },
  {
   "name" : "_Z14rsgBindSampler19rs_program_fragmentj10rs_sampler"
  },
  {
   "name" : "_Z14rsgBindTexture19rs_program_fragmentj13rs_allocation"
  },
  {
   "name" : "_Z14rsgMeasureText13rs_allocationPiS0_S0_S0_"
  },
  {
   "name" : "_Z14rsgMeasureTextPKcPiS1_S1_S1_"
  },
  {
   "name" : "_Z15rsCreateElementiibj"
  },
  {
   "name" : "_Z15rsGetAllocationPKv"
  },
  {
   "name" : "_Z15rsdGLCheckErrorPKN7android12renderscript7ContextEPKcb"
  },
  {
   "name" : "_Z15rsdGLClearColorPKN7android12renderscript7ContextEffff"
  },
  {
   "name" : "_Z15rsdGLClearDepthPKN7android12renderscript7ContextEf"
  },
  {
   "name" : "_Z15rsdGLSetSurfacePKN7android12renderscript7ContextEjjPv"
  },
  {
   "name" : "_Z15rsdTypeToGLType10RsDataType"
  },
  {
   "name" : "_Z15rsgBindConstant17rs_program_vertexj13rs_allocation"
  },
  {
   "name" : "_Z15rsgBindConstant19rs_program_fragmentj13rs_allocation"
  },
  {
   "name" : "_Z16rsdGLSetPriorityPKN7android12renderscript7ContextEi"
  },
  {
   "name" : "_Z16rsdInitIntrinsicPKN7android12renderscript7ContextEPNS0_6ScriptE19RsScriptIntrinsicIDPNS0_7ElementE"
  },
  {
   "name" : "_Z16rsdScriptDestroyPKN7android12renderscript7ContextEPNS0_6ScriptE"
  },
  {
   "name" : "_Z17rsForEachInternaliP14rs_script_calliiP13rs_allocation"
  },
  {
   "name" : "_Z17rsdAllocationInitPKN7android12renderscript7ContextEPNS0_10AllocationEb"
  },
  {
   "name" : "_Z17rsdElementDestroyPKN7android12renderscript7ContextEPKNS0_7ElementE"
  },
  {
   "name" : "_Z17rsdFreeRuntimeMemPv"
  },
  {
   "name" : "_Z17rsdKindToGLFormat10RsDataKind"
  },
  {
   "name" : "_Z17rsdSamplerDestroyPKN7android12renderscript7ContextEPKNS0_7SamplerE"
  },
  {
   "name" : "_Z18rsAllocationIoSend13rs_allocation"
  },
  {
   "name" : "_Z18rsCreateAllocation7rs_type28rs_allocation_mipmap_controljPv"
  },
  {
   "name" : "_Z18rsGetElementAt_int13rs_allocationPij"
  },
  {
   "name" : "_Z18rsGetElementAt_int13rs_allocationPijj"
  },
  {
   "name" : "_Z18rsGetElementAt_int13rs_allocationPijjj"
  },
  {
   "name" : "_Z18rsSetElementAt_int13rs_allocationPKij"
  },
  {
   "name" : "_Z18rsSetElementAt_int13rs_allocationPKijj"
  },
  {
   "name" : "_Z18rsSetElementAt_int13rs_allocationPKijjj"
  },
  {
   "name" : "_Z18rsdAllocRuntimeMemjj"
  },
  {
   "name" : "_Z18rsdFrameBufferInitPKN7android12renderscript7ContextEPKNS0_8FBOCacheE"
  },
  {
   "name" : "_Z18rsdScriptGroupInitPKN7android12renderscript7ContextEPNS0_15ScriptGroupBaseE"
  },
  {
   "name" : "_Z18rsgBindColorTarget13rs_allocationj"
  },
  {
   "name" : "_Z18rsgBindDepthTarget13rs_allocation"
  },
  {
   "name" : "_Z18setColorAttachmentPKN7android12renderscript7ContextEPKNS0_8FBOCacheE"
  },
  {
   "name" : "_Z18setDepthAttachmentPKN7android12renderscript7ContextEPKNS0_8FBOCacheE"
  },
  {
   "name" : "_Z19rsGetElementAt_char13rs_allocationPcj"
  },
  {
   "name" : "_Z19rsGetElementAt_char13rs_allocationPcjj"
  },
  {
   "name" : "_Z19rsGetElementAt_char13rs_allocationPcjjj"
  },
  {
   "name" : "_Z19rsGetElementAt_half13rs_allocationPDhj"
  },
  {
   "name" : "_Z19rsGetElementAt_half13rs_allocationPDhjj"
  },
  {
   "name" : "_Z19rsGetElementAt_half13rs_allocationPDhjjj"
  },
  {
   "name" : "_Z19rsGetElementAt_int213rs_allocationPDv2_ij"
  },
  {
   "name" : "_Z19rsGetElementAt_int213rs_allocationPDv2_ijj"
  },
  {
   "name" : "_Z19rsGetElementAt_int213rs_allocationPDv2_ijjj"
  },
  {
   "name" : "_Z19rsGetElementAt_int313rs_allocationPDv3_ij"
  },
  {
   "name" : "_Z19rsGetElementAt_int313rs_allocationPDv3_ijj"
  },
  {
   "name" : "_Z19rsGetElementAt_int313rs_allocationPDv3_ijjj"
  },
  {
   "name" : "_Z19rsGetElementAt_int413rs_allocationPDv4_ij"
  },
  {
   "name" : "_Z19rsGetElementAt_int413rs_allocationPDv4_ijj"
  },
  {
   "name" : "_Z19rsGetElementAt_int413rs_allocationPDv4_ijjj"
  },
  {
   "name" : "_Z19rsGetElementAt_long13rs_allocationPlj"
  },
  {
   "name" : "_Z19rsGetElementAt_long13rs_allocationPljj"
  },
  {
   "name" : "_Z19rsGetElementAt_long13rs_allocationPljjj"
  },
  {
   "name" : "_Z19rsGetElementAt_long13rs_allocationPxj"
  },
  {
   "name" : "_Z19rsGetElementAt_long13rs_allocationPxjj"
  },
  {
   "name" : "_Z19rsGetElementAt_long13rs_allocationPxjjj"
  },
  {
   "name" : "_Z19rsGetElementAt_uint13rs_allocationPjj"
  },
  {
   "name" : "_Z19rsGetElementAt_uint13rs_allocationPjjj"
  },
  {
   "name" : "_Z19rsGetElementAt_uint13rs_allocationPjjjj"
  },
  {
   "name" : "_Z19rsSetElementAt_char13rs_allocationPKcj"
  },
  {
   "name" : "_Z19rsSetElementAt_char13rs_allocationPKcjj"
  },
  {
   "name" : "_Z19rsSetElementAt_char13rs_allocationPKcjjj"
  },
  {
   "name" : "_Z19rsSetElementAt_half13rs_allocationPKDhj"
  },
  {
   "name" : "_Z19rsSetElementAt_half13rs_allocationPKDhjj"
  },
  {
   "name" : "_Z19rsSetElementAt_half13rs_allocationPKDhjjj"
  },
  {
   "name" : "_Z19rsSetElementAt_int213rs_allocationPKDv2_ij"
  },
  {
   "name" : "_Z19rsSetElementAt_int213rs_allocationPKDv2_ijj"
  },
  {
   "name" : "_Z19rsSetElementAt_int213rs_allocationPKDv2_ijjj"
  },
  {
   "name" : "_Z19rsSetElementAt_int313rs_allocationPKDv3_ij"
  },
  {
   "name" : "_Z19rsSetElementAt_int313rs_allocationPKDv3_ijj"
  },
  {
   "name" : "_Z19rsSetElementAt_int313rs_allocationPKDv3_ijjj"
  },
  {
   "name" : "_Z19rsSetElementAt_int413rs_allocationPKDv4_ij"
  },
  {
   "name" : "_Z19rsSetElementAt_int413rs_allocationPKDv4_ijj"
  },
  {
   "name" : "_Z19rsSetElementAt_int413rs_allocationPKDv4_ijjj"
  },
  {
   "name" : "_Z19rsSetElementAt_long13rs_allocationPKlj"
  },
  {
   "name" : "_Z19rsSetElementAt_long13rs_allocationPKljj"
  },
  {
   "name" : "_Z19rsSetElementAt_long13rs_allocationPKljjj"
  },
  {
   "name" : "_Z19rsSetElementAt_long13rs_allocationPKxj"
  },
  {
   "name" : "_Z19rsSetElementAt_long13rs_allocationPKxjj"
  },
  {
   "name" : "_Z19rsSetElementAt_long13rs_allocationPKxjjj"
  },
  {
   "name" : "_Z19rsSetElementAt_uint13rs_allocationPKjj"
  },
  {
   "name" : "_Z19rsSetElementAt_uint13rs_allocationPKjjj"
  },
  {
   "name" : "_Z19rsSetElementAt_uint13rs_allocationPKjjjj"
  },
  {
   "name" : "_Z19rsdAllocationData1DPKN7android12renderscript7ContextEPKNS0_10AllocationEjjjPKvj"
  },
  {
   "name" : "_Z19rsdAllocationData2DPKN7android12renderscript7ContextEPKNS0_10AllocationEjjj23RsAllocationCubemapFacejjPKvjj"
  },
  {
   "name" : "_Z19rsdAllocationData3DPKN7android12renderscript7ContextEPKNS0_10AllocationEjjjjjjjPKvjj"
  },
  {
   "name" : "_Z19rsdAllocationIoSendPKN7android12renderscript7ContextEPNS0_10AllocationE"
  },
  {
   "name" : "_Z19rsdAllocationLock1DPKN7android12renderscript7ContextEPKNS0_10AllocationE"
  },
  {
   "name" : "_Z19rsdAllocationRead1DPKN7android12renderscript7ContextEPKNS0_10AllocationEjjjPvj"
  },
  {
   "name" : "_Z19rsdAllocationRead2DPKN7android12renderscript7ContextEPKNS0_10AllocationEjjj23RsAllocationCubemapFacejjPvjj"
  },
  {
   "name" : "_Z19rsdAllocationRead3DPKN7android12renderscript7ContextEPKNS0_10AllocationEjjjjjjjPvjj"
  },
  {
   "name" : "_Z19rsdAllocationResizePKN7android12renderscript7ContextEPKNS0_10AllocationEPKNS0_4TypeEb"
  },
  {
   "name" : "_Z19rsdProgramStoreInitPKN7android12renderscript7ContextEPKNS0_12ProgramStoreE"
  },
  {
   "name" : "_Z19rsdScriptInvokeInitPKN7android12renderscript7ContextEPNS0_6ScriptE"
  },
  {
   "name" : "_Z19rsdScriptInvokeRootPKN7android12renderscript7ContextEPNS0_6ScriptE"
  },
  {
   "name" : "_Z19rsgBindProgramStore16rs_program_store"
  },
  {
   "name" : "_Z19rsgClearColorTargetj"
  },
  {
   "name" : "_Z19rsgClearDepthTargetv"
  },
  {
   "name" : "_Z20rsGetElementAt_char213rs_allocationPDv2_cj"
  },
  {
   "name" : "_Z20rsGetElementAt_char213rs_allocationPDv2_cjj"
  },
  {
   "name" : "_Z20rsGetElementAt_char213rs_allocationPDv2_cjjj"
  },
  {
   "name" : "_Z20rsGetElementAt_char313rs_allocationPDv3_cj"
  },
  {
   "name" : "_Z20rsGetElementAt_char313rs_allocationPDv3_cjj"
  },
  {
   "name" : "_Z20rsGetElementAt_char313rs_allocationPDv3_cjjj"
  },
  {
   "name" : "_Z20rsGetElementAt_char413rs_allocationPDv4_cj"
  },
  {
   "name" : "_Z20rsGetElementAt_char413rs_allocationPDv4_cjj"
  },
  {
   "name" : "_Z20rsGetElementAt_char413rs_allocationPDv4_cjjj"
  },
  {
   "name" : "_Z20rsGetElementAt_float13rs_allocationPfj"
  },
  {
   "name" : "_Z20rsGetElementAt_float13rs_allocationPfjj"
  },
  {
   "name" : "_Z20rsGetElementAt_float13rs_allocationPfjjj"
  },
  {
   "name" : "_Z20rsGetElementAt_half213rs_allocationPDv2_Dhj"
  },
  {
   "name" : "_Z20rsGetElementAt_half213rs_allocationPDv2_Dhjj"
  },
  {
   "name" : "_Z20rsGetElementAt_half213rs_allocationPDv2_Dhjjj"
  },
  {
   "name" : "_Z20rsGetElementAt_half313rs_allocationPDv3_Dhj"
  },
  {
   "name" : "_Z20rsGetElementAt_half313rs_allocationPDv3_Dhjj"
  },
  {
   "name" : "_Z20rsGetElementAt_half313rs_allocationPDv3_Dhjjj"
  },
  {
   "name" : "_Z20rsGetElementAt_half413rs_allocationPDv4_Dhj"
  },
  {
   "name" : "_Z20rsGetElementAt_half413rs_allocationPDv4_Dhjj"
  },
  {
   "name" : "_Z20rsGetElementAt_half413rs_allocationPDv4_Dhjjj"
  },
  {
   "name" : "_Z20rsGetElementAt_long213rs_allocationPDv2_lj"
  },
  {
   "name" : "_Z20rsGetElementAt_long213rs_allocationPDv2_ljj"
  },
  {
   "name" : "_Z20rsGetElementAt_long213rs_allocationPDv2_ljjj"
  },
  {
   "name" : "_Z20rsGetElementAt_long213rs_allocationPDv2_xj"
  },
  {
   "name" : "_Z20rsGetElementAt_long213rs_allocationPDv2_xjj"
  },
  {
   "name" : "_Z20rsGetElementAt_long213rs_allocationPDv2_xjjj"
  },
  {
   "name" : "_Z20rsGetElementAt_long313rs_allocationPDv3_lj"
  },
  {
   "name" : "_Z20rsGetElementAt_long313rs_allocationPDv3_ljj"
  },
  {
   "name" : "_Z20rsGetElementAt_long313rs_allocationPDv3_ljjj"
  },
  {
   "name" : "_Z20rsGetElementAt_long313rs_allocationPDv3_xj"
  },
  {
   "name" : "_Z20rsGetElementAt_long313rs_allocationPDv3_xjj"
  },
  {
   "name" : "_Z20rsGetElementAt_long313rs_allocationPDv3_xjjj"
  },
  {
   "name" : "_Z20rsGetElementAt_long413rs_allocationPDv4_lj"
  },
  {
   "name" : "_Z20rsGetElementAt_long413rs_allocationPDv4_ljj"
  },
  {
   "name" : "_Z20rsGetElementAt_long413rs_allocationPDv4_ljjj"
  },
  {
   "name" : "_Z20rsGetElementAt_long413rs_allocationPDv4_xj"
  },
  {
   "name" : "_Z20rsGetElementAt_long413rs_allocationPDv4_xjj"
  },
  {
   "name" : "_Z20rsGetElementAt_long413rs_allocationPDv4_xjjj"
  },
  {
   "name" : "_Z20rsGetElementAt_short13rs_allocationPsj"
  },
  {
   "name" : "_Z20rsGetElementAt_short13rs_allocationPsjj"
  },
  {
   "name" : "_Z20rsGetElementAt_short13rs_allocationPsjjj"
  },
  {
   "name" : "_Z20rsGetElementAt_uchar13rs_allocationPhj"
  },
  {
   "name" : "_Z20rsGetElementAt_uchar13rs_allocationPhjj"
  },
  {
   "name" : "_Z20rsGetElementAt_uchar13rs_allocationPhjjj"
  },
  {
   "name" : "_Z20rsGetElementAt_uint213rs_allocationPDv2_jj"
  },
  {
   "name" : "_Z20rsGetElementAt_uint213rs_allocationPDv2_jjj"
  },
  {
   "name" : "_Z20rsGetElementAt_uint213rs_allocationPDv2_jjjj"
  },
  {
   "name" : "_Z20rsGetElementAt_uint313rs_allocationPDv3_jj"
  },
  {
   "name" : "_Z20rsGetElementAt_uint313rs_allocationPDv3_jjj"
  },
  {
   "name" : "_Z20rsGetElementAt_uint313rs_allocationPDv3_jjjj"
  },
  {
   "name" : "_Z20rsGetElementAt_uint413rs_allocationPDv4_jj"
  },
  {
   "name" : "_Z20rsGetElementAt_uint413rs_allocationPDv4_jjj"
  },
  {
   "name" : "_Z20rsGetElementAt_uint413rs_allocationPDv4_jjjj"
  },
  {
   "name" : "_Z20rsGetElementAt_ulong13rs_allocationPmj"
  },
  {
   "name" : "_Z20rsGetElementAt_ulong13rs_allocationPmjj"
  },
  {
   "name" : "_Z20rsGetElementAt_ulong13rs_allocationPmjjj"
  },
  {
   "name" : "_Z20rsGetElementAt_ulong13rs_allocationPyj"
  },
  {
   "name" : "_Z20rsGetElementAt_ulong13rs_allocationPyjj"
  },
  {
   "name" : "_Z20rsGetElementAt_ulong13rs_allocationPyjjj"
  },
  {
   "name" : "_Z20rsSetElementAt_char213rs_allocationPKDv2_cj"
  },
  {
   "name" : "_Z20rsSetElementAt_char213rs_allocationPKDv2_cjj"
  },
  {
   "name" : "_Z20rsSetElementAt_char213rs_allocationPKDv2_cjjj"
  },
  {
   "name" : "_Z20rsSetElementAt_char313rs_allocationPKDv3_cj"
  },
  {
   "name" : "_Z20rsSetElementAt_char313rs_allocationPKDv3_cjj"
  },
  {
   "name" : "_Z20rsSetElementAt_char313rs_allocationPKDv3_cjjj"
  },
  {
   "name" : "_Z20rsSetElementAt_char413rs_allocationPKDv4_cj"
  },
  {
   "name" : "_Z20rsSetElementAt_char413rs_allocationPKDv4_cjj"
  },
  {
   "name" : "_Z20rsSetElementAt_char413rs_allocationPKDv4_cjjj"
  },
  {
   "name" : "_Z20rsSetElementAt_float13rs_allocationPKfj"
  },
  {
   "name" : "_Z20rsSetElementAt_float13rs_allocationPKfjj"
  },
  {
   "name" : "_Z20rsSetElementAt_float13rs_allocationPKfjjj"
  },
  {
   "name" : "_Z20rsSetElementAt_half213rs_allocationPKDv2_Dhj"
  },
  {
   "name" : "_Z20rsSetElementAt_half213rs_allocationPKDv2_Dhjj"
  },
  {
   "name" : "_Z20rsSetElementAt_half213rs_allocationPKDv2_Dhjjj"
  },
  {
   "name" : "_Z20rsSetElementAt_half313rs_allocationPKDv3_Dhj"
  },
  {
   "name" : "_Z20rsSetElementAt_half313rs_allocationPKDv3_Dhjj"
  },
  {
   "name" : "_Z20rsSetElementAt_half313rs_allocationPKDv3_Dhjjj"
  },
  {
   "name" : "_Z20rsSetElementAt_half413rs_allocationPKDv4_Dhj"
  },
  {
   "name" : "_Z20rsSetElementAt_half413rs_allocationPKDv4_Dhjj"
  },
  {
   "name" : "_Z20rsSetElementAt_half413rs_allocationPKDv4_Dhjjj"
  },
  {
   "name" : "_Z20rsSetElementAt_long213rs_allocationPKDv2_lj"
  },
  {
   "name" : "_Z20rsSetElementAt_long213rs_allocationPKDv2_ljj"
  },
  {
   "name" : "_Z20rsSetElementAt_long213rs_allocationPKDv2_ljjj"
  },
  {
   "name" : "_Z20rsSetElementAt_long213rs_allocationPKDv2_xj"
  },
  {
   "name" : "_Z20rsSetElementAt_long213rs_allocationPKDv2_xjj"
  },
  {
   "name" : "_Z20rsSetElementAt_long213rs_allocationPKDv2_xjjj"
  },
  {
   "name" : "_Z20rsSetElementAt_long313rs_allocationPKDv3_lj"
  },
  {
   "name" : "_Z20rsSetElementAt_long313rs_allocationPKDv3_ljj"
  },
  {
   "name" : "_Z20rsSetElementAt_long313rs_allocationPKDv3_ljjj"
  },
  {
   "name" : "_Z20rsSetElementAt_long313rs_allocationPKDv3_xj"
  },
  {
   "name" : "_Z20rsSetElementAt_long313rs_allocationPKDv3_xjj"
  },
  {
   "name" : "_Z20rsSetElementAt_long313rs_allocationPKDv3_xjjj"
  },
  {
   "name" : "_Z20rsSetElementAt_long413rs_allocationPKDv4_lj"
  },
  {
   "name" : "_Z20rsSetElementAt_long413rs_allocationPKDv4_ljj"
  },
  {
   "name" : "_Z20rsSetElementAt_long413rs_allocationPKDv4_ljjj"
  },
  {
   "name" : "_Z20rsSetElementAt_long413rs_allocationPKDv4_xj"
  },
  {
   "name" : "_Z20rsSetElementAt_long413rs_allocationPKDv4_xjj"
  },
  {
   "name" : "_Z20rsSetElementAt_long413rs_allocationPKDv4_xjjj"
  },
  {
   "name" : "_Z20rsSetElementAt_short13rs_allocationPKsj"
  },
  {
   "name" : "_Z20rsSetElementAt_short13rs_allocationPKsjj"
  },
  {
   "name" : "_Z20rsSetElementAt_short13rs_allocationPKsjjj"
  },
  {
   "name" : "_Z20rsSetElementAt_uchar13rs_allocationPKhj"
  },
  {
   "name" : "_Z20rsSetElementAt_uchar13rs_allocationPKhjj"
  },
  {
   "name" : "_Z20rsSetElementAt_uchar13rs_allocationPKhjjj"
  },
  {
   "name" : "_Z20rsSetElementAt_uint213rs_allocationPKDv2_jj"
  },
  {
   "name" : "_Z20rsSetElementAt_uint213rs_allocationPKDv2_jjj"
  },
  {
   "name" : "_Z20rsSetElementAt_uint213rs_allocationPKDv2_jjjj"
  },
  {
   "name" : "_Z20rsSetElementAt_uint313rs_allocationPKDv3_jj"
  },
  {
   "name" : "_Z20rsSetElementAt_uint313rs_allocationPKDv3_jjj"
  },
  {
   "name" : "_Z20rsSetElementAt_uint313rs_allocationPKDv3_jjjj"
  },
  {
   "name" : "_Z20rsSetElementAt_uint413rs_allocationPKDv4_jj"
  },
  {
   "name" : "_Z20rsSetElementAt_uint413rs_allocationPKDv4_jjj"
  },
  {
   "name" : "_Z20rsSetElementAt_uint413rs_allocationPKDv4_jjjj"
  },
  {
   "name" : "_Z20rsSetElementAt_ulong13rs_allocationPKmj"
  },
  {
   "name" : "_Z20rsSetElementAt_ulong13rs_allocationPKmjj"
  },
  {
   "name" : "_Z20rsSetElementAt_ulong13rs_allocationPKmjjj"
  },
  {
   "name" : "_Z20rsSetElementAt_ulong13rs_allocationPKyj"
  },
  {
   "name" : "_Z20rsSetElementAt_ulong13rs_allocationPKyjj"
  },
  {
   "name" : "_Z20rsSetElementAt_ulong13rs_allocationPKyjjj"
  },
  {
   "name" : "_Z20rsdAllocationDestroyPKN7android12renderscript7ContextEPNS0_10AllocationE"
  },
  {
   "name" : "_Z20rsdAllocationSyncAllPKN7android12renderscript7ContextEPKNS0_10AllocationE21RsAllocationUsageType"
  },
  {
   "name" : "_Z20rsdLookupRuntimeStubPN7android12renderscript7ContextEPKc"
  },
  {
   "name" : "_Z20rsdProgramRasterInitPKN7android12renderscript7ContextEPKNS0_13ProgramRasterE"
  },
  {
   "name" : "_Z20rsdProgramVertexInitPKN7android12renderscript7ContextEPKNS0_13ProgramVertexEPKcjPS8_jPKj"
  },
  {
   "name" : "_Z20rsgAllocationSyncAll13rs_allocation"
  },
  {
   "name" : "_Z20rsgAllocationSyncAll13rs_allocation24rs_allocation_usage_type"
  },
  {
   "name" : "_Z20rsgAllocationSyncAll13rs_allocationj"
  },
  {
   "name" : "_Z20rsgBindProgramRaster17rs_program_raster"
  },
  {
   "name" : "_Z20rsgBindProgramVertex17rs_program_vertex"
  },
  {
   "name" : "_Z20rsgDrawQuadTexCoordsffffffffffffffffffff"
  },
  {
   "name" : "_Z21rsAllocationIoReceive13rs_allocation"
  },
  {
   "name" : "_Z21rsAllocationMarkDirty13rs_allocation"
  },
  {
   "name" : "_Z21rsGetElementAt_double13rs_allocationPdj"
  },
  {
   "name" : "_Z21rsGetElementAt_double13rs_allocationPdjj"
  },
  {
   "name" : "_Z21rsGetElementAt_double13rs_allocationPdjjj"
  },
  {
   "name" : "_Z21rsGetElementAt_float213rs_allocationPDv2_fj"
  },
  {
   "name" : "_Z21rsGetElementAt_float213rs_allocationPDv2_fjj"
  },
  {
   "name" : "_Z21rsGetElementAt_float213rs_allocationPDv2_fjjj"
  },
  {
   "name" : "_Z21rsGetElementAt_float313rs_allocationPDv3_fj"
  },
  {
   "name" : "_Z21rsGetElementAt_float313rs_allocationPDv3_fjj"
  },
  {
   "name" : "_Z21rsGetElementAt_float313rs_allocationPDv3_fjjj"
  },
  {
   "name" : "_Z21rsGetElementAt_float413rs_allocationPDv4_fj"
  },
  {
   "name" : "_Z21rsGetElementAt_float413rs_allocationPDv4_fjj"
  },
  {
   "name" : "_Z21rsGetElementAt_float413rs_allocationPDv4_fjjj"
  },
  {
   "name" : "_Z21rsGetElementAt_short213rs_allocationPDv2_sj"
  },
  {
   "name" : "_Z21rsGetElementAt_short213rs_allocationPDv2_sjj"
  },
  {
   "name" : "_Z21rsGetElementAt_short213rs_allocationPDv2_sjjj"
  },
  {
   "name" : "_Z21rsGetElementAt_short313rs_allocationPDv3_sj"
  },
  {
   "name" : "_Z21rsGetElementAt_short313rs_allocationPDv3_sjj"
  },
  {
   "name" : "_Z21rsGetElementAt_short313rs_allocationPDv3_sjjj"
  },
  {
   "name" : "_Z21rsGetElementAt_short413rs_allocationPDv4_sj"
  },
  {
   "name" : "_Z21rsGetElementAt_short413rs_allocationPDv4_sjj"
  },
  {
   "name" : "_Z21rsGetElementAt_short413rs_allocationPDv4_sjjj"
  },
  {
   "name" : "_Z21rsGetElementAt_uchar213rs_allocationPDv2_hj"
  },
  {
   "name" : "_Z21rsGetElementAt_uchar213rs_allocationPDv2_hjj"
  },
  {
   "name" : "_Z21rsGetElementAt_uchar213rs_allocationPDv2_hjjj"
  },
  {
   "name" : "_Z21rsGetElementAt_uchar313rs_allocationPDv3_hj"
  },
  {
   "name" : "_Z21rsGetElementAt_uchar313rs_allocationPDv3_hjj"
  },
  {
   "name" : "_Z21rsGetElementAt_uchar313rs_allocationPDv3_hjjj"
  },
  {
   "name" : "_Z21rsGetElementAt_uchar413rs_allocationPDv4_hj"
  },
  {
   "name" : "_Z21rsGetElementAt_uchar413rs_allocationPDv4_hjj"
  },
  {
   "name" : "_Z21rsGetElementAt_uchar413rs_allocationPDv4_hjjj"
  },
  {
   "name" : "_Z21rsGetElementAt_ulong213rs_allocationPDv2_mj"
  },
  {
   "name" : "_Z21rsGetElementAt_ulong213rs_allocationPDv2_mjj"
  },
  {
   "name" : "_Z21rsGetElementAt_ulong213rs_allocationPDv2_mjjj"
  },
  {
   "name" : "_Z21rsGetElementAt_ulong213rs_allocationPDv2_yj"
  },
  {
   "name" : "_Z21rsGetElementAt_ulong213rs_allocationPDv2_yjj"
  },
  {
   "name" : "_Z21rsGetElementAt_ulong213rs_allocationPDv2_yjjj"
  },
  {
   "name" : "_Z21rsGetElementAt_ulong313rs_allocationPDv3_mj"
  },
  {
   "name" : "_Z21rsGetElementAt_ulong313rs_allocationPDv3_mjj"
  },
  {
   "name" : "_Z21rsGetElementAt_ulong313rs_allocationPDv3_mjjj"
  },
  {
   "name" : "_Z21rsGetElementAt_ulong313rs_allocationPDv3_yj"
  },
  {
   "name" : "_Z21rsGetElementAt_ulong313rs_allocationPDv3_yjj"
  },
  {
   "name" : "_Z21rsGetElementAt_ulong313rs_allocationPDv3_yjjj"
  },
  {
   "name" : "_Z21rsGetElementAt_ulong413rs_allocationPDv4_mj"
  },
  {
   "name" : "_Z21rsGetElementAt_ulong413rs_allocationPDv4_mjj"
  },
  {
   "name" : "_Z21rsGetElementAt_ulong413rs_allocationPDv4_mjjj"
  },
  {
   "name" : "_Z21rsGetElementAt_ulong413rs_allocationPDv4_yj"
  },
  {
   "name" : "_Z21rsGetElementAt_ulong413rs_allocationPDv4_yjj"
  },
  {
   "name" : "_Z21rsGetElementAt_ulong413rs_allocationPDv4_yjjj"
  },
  {
   "name" : "_Z21rsGetElementAt_ushort13rs_allocationPtj"
  },
  {
   "name" : "_Z21rsGetElementAt_ushort13rs_allocationPtjj"
  },
  {
   "name" : "_Z21rsGetElementAt_ushort13rs_allocationPtjjj"
  },
  {
   "name" : "_Z21rsSetElementAt_double13rs_allocationPKdj"
  },
  {
   "name" : "_Z21rsSetElementAt_double13rs_allocationPKdjj"
  },
  {
   "name" : "_Z21rsSetElementAt_double13rs_allocationPKdjjj"
  },
  {
   "name" : "_Z21rsSetElementAt_float213rs_allocationPKDv2_fj"
  },
  {
   "name" : "_Z21rsSetElementAt_float213rs_allocationPKDv2_fjj"
  },
  {
   "name" : "_Z21rsSetElementAt_float213rs_allocationPKDv2_fjjj"
  },
  {
   "name" : "_Z21rsSetElementAt_float313rs_allocationPKDv3_fj"
  },
  {
   "name" : "_Z21rsSetElementAt_float313rs_allocationPKDv3_fjj"
  },
  {
   "name" : "_Z21rsSetElementAt_float313rs_allocationPKDv3_fjjj"
  },
  {
   "name" : "_Z21rsSetElementAt_float413rs_allocationPKDv4_fj"
  },
  {
   "name" : "_Z21rsSetElementAt_float413rs_allocationPKDv4_fjj"
  },
  {
   "name" : "_Z21rsSetElementAt_float413rs_allocationPKDv4_fjjj"
  },
  {
   "name" : "_Z21rsSetElementAt_short213rs_allocationPKDv2_sj"
  },
  {
   "name" : "_Z21rsSetElementAt_short213rs_allocationPKDv2_sjj"
  },
  {
   "name" : "_Z21rsSetElementAt_short213rs_allocationPKDv2_sjjj"
  },
  {
   "name" : "_Z21rsSetElementAt_short313rs_allocationPKDv3_sj"
  },
  {
   "name" : "_Z21rsSetElementAt_short313rs_allocationPKDv3_sjj"
  },
  {
   "name" : "_Z21rsSetElementAt_short313rs_allocationPKDv3_sjjj"
  },
  {
   "name" : "_Z21rsSetElementAt_short413rs_allocationPKDv4_sj"
  },
  {
   "name" : "_Z21rsSetElementAt_short413rs_allocationPKDv4_sjj"
  },
  {
   "name" : "_Z21rsSetElementAt_short413rs_allocationPKDv4_sjjj"
  },
  {
   "name" : "_Z21rsSetElementAt_uchar213rs_allocationPKDv2_hj"
  },
  {
   "name" : "_Z21rsSetElementAt_uchar213rs_allocationPKDv2_hjj"
  },
  {
   "name" : "_Z21rsSetElementAt_uchar213rs_allocationPKDv2_hjjj"
  },
  {
   "name" : "_Z21rsSetElementAt_uchar313rs_allocationPKDv3_hj"
  },
  {
   "name" : "_Z21rsSetElementAt_uchar313rs_allocationPKDv3_hjj"
  },
  {
   "name" : "_Z21rsSetElementAt_uchar313rs_allocationPKDv3_hjjj"
  },
  {
   "name" : "_Z21rsSetElementAt_uchar413rs_allocationPKDv4_hj"
  },
  {
   "name" : "_Z21rsSetElementAt_uchar413rs_allocationPKDv4_hjj"
  },
  {
   "name" : "_Z21rsSetElementAt_uchar413rs_allocationPKDv4_hjjj"
  },
  {
   "name" : "_Z21rsSetElementAt_ulong213rs_allocationPKDv2_mj"
  },
  {
   "name" : "_Z21rsSetElementAt_ulong213rs_allocationPKDv2_mjj"
  },
  {
   "name" : "_Z21rsSetElementAt_ulong213rs_allocationPKDv2_mjjj"
  },
  {
   "name" : "_Z21rsSetElementAt_ulong213rs_allocationPKDv2_yj"
  },
  {
   "name" : "_Z21rsSetElementAt_ulong213rs_allocationPKDv2_yjj"
  },
  {
   "name" : "_Z21rsSetElementAt_ulong213rs_allocationPKDv2_yjjj"
  },
  {
   "name" : "_Z21rsSetElementAt_ulong313rs_allocationPKDv3_mj"
  },
  {
   "name" : "_Z21rsSetElementAt_ulong313rs_allocationPKDv3_mjj"
  },
  {
   "name" : "_Z21rsSetElementAt_ulong313rs_allocationPKDv3_mjjj"
  },
  {
   "name" : "_Z21rsSetElementAt_ulong313rs_allocationPKDv3_yj"
  },
  {
   "name" : "_Z21rsSetElementAt_ulong313rs_allocationPKDv3_yjj"
  },
  {
   "name" : "_Z21rsSetElementAt_ulong313rs_allocationPKDv3_yjjj"
  },
  {
   "name" : "_Z21rsSetElementAt_ulong413rs_allocationPKDv4_mj"
  },
  {
   "name" : "_Z21rsSetElementAt_ulong413rs_allocationPKDv4_mjj"
  },
  {
   "name" : "_Z21rsSetElementAt_ulong413rs_allocationPKDv4_mjjj"
  },
  {
   "name" : "_Z21rsSetElementAt_ulong413rs_allocationPKDv4_yj"
  },
  {
   "name" : "_Z21rsSetElementAt_ulong413rs_allocationPKDv4_yjj"
  },
  {
   "name" : "_Z21rsSetElementAt_ulong413rs_allocationPKDv4_yjjj"
  },
  {
   "name" : "_Z21rsSetElementAt_ushort13rs_allocationPKtj"
  },
  {
   "name" : "_Z21rsSetElementAt_ushort13rs_allocationPKtjj"
  },
  {
   "name" : "_Z21rsSetElementAt_ushort13rs_allocationPKtjjj"
  },
  {
   "name" : "_Z21rsdAllocationUnlock1DPKN7android12renderscript7ContextEPKNS0_10AllocationE"
  },
  {
   "name" : "_Z21rsdFrameBufferDestroyPKN7android12renderscript7ContextEPKNS0_8FBOCacheE"
  },
  {
   "name" : "_Z21rsdScriptGetGlobalVarPKN7android12renderscript7ContextEPKNS0_6ScriptEjPvj"
  },
  {
   "name" : "_Z21rsdScriptGroupDestroyPKN7android12renderscript7ContextEPKNS0_15ScriptGroupBaseE"
  },
  {
   "name" : "_Z21rsdScriptGroupExecutePKN7android12renderscript7ContextEPKNS0_15ScriptGroupBaseE"
  },
  {
   "name" : "_Z21rsdScriptInvokeReducePKN7android12renderscript7ContextEPNS0_6ScriptEjPPKNS0_10AllocationEjPS6_PK12RsScriptCall"
  },
  {
   "name" : "_Z21rsdScriptSetGlobalObjPKN7android12renderscript7ContextEPKNS0_6ScriptEjPNS0_10ObjectBaseE"
  },
  {
   "name" : "_Z21rsdScriptSetGlobalVarPKN7android12renderscript7ContextEPKNS0_6ScriptEjPvj"
  },
  {
   "name" : "_Z22rsGetElementAt_double213rs_allocationPDv2_dj"
  },
  {
   "name" : "_Z22rsGetElementAt_double213rs_allocationPDv2_djj"
  },
  {
   "name" : "_Z22rsGetElementAt_double213rs_allocationPDv2_djjj"
  },
  {
   "name" : "_Z22rsGetElementAt_double313rs_allocationPDv3_dj"
  },
  {
   "name" : "_Z22rsGetElementAt_double313rs_allocationPDv3_djj"
  },
  {
   "name" : "_Z22rsGetElementAt_double313rs_allocationPDv3_djjj"
  },
  {
   "name" : "_Z22rsGetElementAt_double413rs_allocationPDv4_dj"
  },
  {
   "name" : "_Z22rsGetElementAt_double413rs_allocationPDv4_djj"
  },
  {
   "name" : "_Z22rsGetElementAt_double413rs_allocationPDv4_djjj"
  },
  {
   "name" : "_Z22rsGetElementAt_ushort213rs_allocationPDv2_tj"
  },
  {
   "name" : "_Z22rsGetElementAt_ushort213rs_allocationPDv2_tjj"
  },
  {
   "name" : "_Z22rsGetElementAt_ushort213rs_allocationPDv2_tjjj"
  },
  {
   "name" : "_Z22rsGetElementAt_ushort313rs_allocationPDv3_tj"
  },
  {
   "name" : "_Z22rsGetElementAt_ushort313rs_allocationPDv3_tjj"
  },
  {
   "name" : "_Z22rsGetElementAt_ushort313rs_allocationPDv3_tjjj"
  },
  {
   "name" : "_Z22rsGetElementAt_ushort413rs_allocationPDv4_tj"
  },
  {
   "name" : "_Z22rsGetElementAt_ushort413rs_allocationPDv4_tjj"
  },
  {
   "name" : "_Z22rsGetElementAt_ushort413rs_allocationPDv4_tjjj"
  },
  {
   "name" : "_Z22rsSendToClientBlockingi"
  },
  {
   "name" : "_Z22rsSendToClientBlockingiPKvj"
  },
  {
   "name" : "_Z22rsSetElementAt_double213rs_allocationPKDv2_dj"
  },
  {
   "name" : "_Z22rsSetElementAt_double213rs_allocationPKDv2_djj"
  },
  {
   "name" : "_Z22rsSetElementAt_double213rs_allocationPKDv2_djjj"
  },
  {
   "name" : "_Z22rsSetElementAt_double313rs_allocationPKDv3_dj"
  },
  {
   "name" : "_Z22rsSetElementAt_double313rs_allocationPKDv3_djj"
  },
  {
   "name" : "_Z22rsSetElementAt_double313rs_allocationPKDv3_djjj"
  },
  {
   "name" : "_Z22rsSetElementAt_double413rs_allocationPKDv4_dj"
  },
  {
   "name" : "_Z22rsSetElementAt_double413rs_allocationPKDv4_djj"
  },
  {
   "name" : "_Z22rsSetElementAt_double413rs_allocationPKDv4_djjj"
  },
  {
   "name" : "_Z22rsSetElementAt_ushort213rs_allocationPKDv2_tj"
  },
  {
   "name" : "_Z22rsSetElementAt_ushort213rs_allocationPKDv2_tjj"
  },
  {
   "name" : "_Z22rsSetElementAt_ushort213rs_allocationPKDv2_tjjj"
  },
  {
   "name" : "_Z22rsSetElementAt_ushort313rs_allocationPKDv3_tj"
  },
  {
   "name" : "_Z22rsSetElementAt_ushort313rs_allocationPKDv3_tjj"
  },
  {
   "name" : "_Z22rsSetElementAt_ushort313rs_allocationPKDv3_tjjj"
  },
  {
   "name" : "_Z22rsSetElementAt_ushort413rs_allocationPKDv4_tj"
  },
  {
   "name" : "_Z22rsSetElementAt_ushort413rs_allocationPKDv4_tjj"
  },
  {
   "name" : "_Z22rsSetElementAt_ushort413rs_allocationPKDv4_tjjj"
  },
  {
   "name" : "_Z22rsdAllocationIoReceivePKN7android12renderscript7ContextEPNS0_10AllocationE"
  },
  {
   "name" : "_Z22rsdAllocationMarkDirtyPKN7android12renderscript7ContextEPKNS0_10AllocationE"
  },
  {
   "name" : "_Z22rsdGLDrawQuadTexCoordsPKN7android12renderscript7ContextEffffffffffffffffffff"
  },
  {
   "name" : "_Z22rsdProgramFragmentInitPKN7android12renderscript7ContextEPKNS0_15ProgramFragmentEPKcjPS8_jPKj"
  },
  {
   "name" : "_Z22rsdProgramStoreDestroyPKN7android12renderscript7ContextEPKNS0_12ProgramStoreE"
  },
  {
   "name" : "_Z22rsdScriptGroupSetInputPKN7android12renderscript7ContextEPKNS0_11ScriptGroupEPKNS0_14ScriptKernelIDEPNS0_10AllocationE"
  },
  {
   "name" : "_Z22rsdScriptInvokeForEachPKN7android12renderscript7ContextEPNS0_6ScriptEjPKNS0_10AllocationEPS6_PKvjPK12RsScriptCall"
  },
  {
   "name" : "_Z22rsdScriptSetGlobalBindPKN7android12renderscript7ContextEPKNS0_6ScriptEjPNS0_10AllocationE"
  },
  {
   "name" : "_Z22rsgBindProgramFragment19rs_program_fragment"
  },
  {
   "name" : "_Z23rsAllocationCopy1DRange13rs_allocationjjjS_jj"
  },
  {
   "name" : "_Z23rsAllocationCopy2DRange13rs_allocationjjj26rs_allocation_cubemap_facejjS_jjjS0_"
  },
  {
   "name" : "_Z23rsdAllocationSetSurfacePKN7android12renderscript7ContextEPNS0_10AllocationEP13ANativeWindow"
  },
  {
   "name" : "_Z23rsdFrameBufferSetActivePKN7android12renderscript7ContextEPKNS0_8FBOCacheE"
  },
  {
   "name" : "_Z23rsdGLSetInternalSurfacePKN7android12renderscript7ContextEPv"
  },
  {
   "name" : "_Z23rsdProgramRasterDestroyPKN7android12renderscript7ContextEPKNS0_13ProgramRasterE"
  },
  {
   "name" : "_Z23rsdProgramVertexDestroyPKN7android12renderscript7ContextEPKNS0_13ProgramVertexE"
  },
  {
   "name" : "_Z23rsdScriptGroupSetOutputPKN7android12renderscript7ContextEPKNS0_11ScriptGroupEPKNS0_14ScriptKernelIDEPNS0_10AllocationE"
  },
  {
   "name" : "_Z23rsdScriptInvokeFunctionPKN7android12renderscript7ContextEPNS0_6ScriptEjPKvj"
  },
  {
   "name" : "_Z24rsdAllocationAdapterInitPKN7android12renderscript7ContextEPNS0_10AllocationE"
  },
  {
   "name" : "_Z24rsdAllocationElementDataPKN7android12renderscript7ContextEPKNS0_10AllocationEjjjPKvjj"
  },
  {
   "name" : "_Z24rsdAllocationElementReadPKN7android12renderscript7ContextEPKNS0_10AllocationEjjjPvjj"
  },
  {
   "name" : "_Z24rsdAllocationGrallocBitsPKN7android12renderscript7ContextEPNS0_10AllocationE"
  },
  {
   "name" : "_Z24rsdAllocationInitStridedPKN7android12renderscript7ContextEPNS0_10AllocationEbj"
  },
  {
   "name" : "_Z24rsdProgramStoreSetActivePKN7android12renderscript7ContextEPKNS0_12ProgramStoreE"
  },
  {
   "name" : "_Z24rsgClearAllRenderTargetsv"
  },
  {
   "name" : "_Z24rsgDrawSpriteScreenspacefffff"
  },
  {
   "name" : "_Z25rsdAllocationData1D_allocPKN7android12renderscript7ContextEPKNS0_10AllocationEjjjS6_jj"
  },
  {
   "name" : "_Z25rsdAllocationData2D_allocPKN7android12renderscript7ContextEPKNS0_10AllocationEjjj23RsAllocationCubemapFacejjS6_jjjS7_"
  },
  {
   "name" : "_Z25rsdAllocationData3D_allocPKN7android12renderscript7ContextEPKNS0_10AllocationEjjjjjjjS6_jjjj"
  },
  {
   "name" : "_Z25rsdProgramFragmentDestroyPKN7android12renderscript7ContextEPKNS0_15ProgramFragmentE"
  },
  {
   "name" : "_Z25rsdProgramRasterSetActivePKN7android12renderscript7ContextEPKNS0_13ProgramRasterE"
  },
  {
   "name" : "_Z25rsdProgramVertexSetActivePKN7android12renderscript7ContextEPKNS0_13ProgramVertexE"
  },
  {
   "name" : "_Z25rsdTypeUpdateCachedObjectPKN7android12renderscript7ContextEPKNS0_4TypeEPNS0_7rs_typeE"
  },
  {
   "name" : "_Z25rsgMeshComputeBoundingBox7rs_meshPfS0_S0_S0_S0_S0_"
  },
  {
   "name" : "_Z26rsdAllocationAdapterOffsetPKN7android12renderscript7ContextEPKNS0_10AllocationE"
  },
  {
   "name" : "_Z27rsdProgramFragmentSetActivePKN7android12renderscript7ContextEPKNS0_15ProgramFragmentE"
  },
  {
   "name" : "_Z27rsdScriptInvokeForEachMultiPKN7android12renderscript7ContextEPNS0_6ScriptEjPPKNS0_10AllocationEjPS6_PKvjPK12RsScriptCall"
  },
  {
   "name" : "_Z27rsdScriptInvokeFreeChildrenPKN7android12renderscript7ContextEPNS0_6ScriptE"
  },
  {
   "name" : "_Z27rsdScriptUpdateCachedObjectPKN7android12renderscript7ContextEPKNS0_6ScriptEPNS0_9rs_scriptE"
  },
  {
   "name" : "_Z28rsdAllocationGenerateMipmapsPKN7android12renderscript7ContextEPKNS0_10AllocationE"
  },
  {
   "name" : "_Z28rsdElementUpdateCachedObjectPKN7android12renderscript7ContextEPKNS0_7ElementEPNS0_10rs_elementE"
  },
  {
   "name" : "_Z28rsdSamplerUpdateCachedObjectPKN7android12renderscript7ContextEPKNS0_7SamplerEPNS0_10rs_samplerE"
  },
  {
   "name" : "_Z31rsdAllocationUpdateCachedObjectPKN7android12renderscript7ContextEPKNS0_10AllocationEPNS0_13rs_allocationE"
  },
  {
   "name" : "_Z31rsgProgramFragmentConstantColor19rs_program_fragmentffff"
  },
  {
   "name" : "_Z31rsgProgramVertexLoadModelMatrixPK12rs_matrix4x4"
  },
  {
   "name" : "_Z32rsdAllocationData2D_alloc_scriptPKN7android12renderscript7ContextEPKNS0_10AllocationEjjj23RsAllocationCubemapFacejjS6_jjjS7_"
  },
  {
   "name" : "_Z32rsdAllocationData3D_alloc_scriptPKN7android12renderscript7ContextEPKNS0_10AllocationEjjjjjjjS6_jjjj"
  },
  {
   "name" : "_Z32rsdScriptGetAllocationForPointerPKN7android12renderscript7ContextEPKNS0_6ScriptEPKv"
  },
  {
   "name" : "_Z32rsdScriptGroupUpdateCachedObjectPKN7android12renderscript7ContextEPKNS0_11ScriptGroupEPNS0_15rs_script_groupE"
  },
  {
   "name" : "_Z33rsdScriptSetGlobalVarWithElemDimsPKN7android12renderscript7ContextEPKNS0_6ScriptEjPvjPKNS0_7ElementEPKjj"
  },
  {
   "name" : "_Z33rsgProgramVertexLoadTextureMatrixPK12rs_matrix4x4"
  },
  {
   "name" : "_Z35rsgProgramVertexGetProjectionMatrixP12rs_matrix4x4"
  },
  {
   "name" : "_Z36rsgProgramVertexLoadProjectionMatrixPK12rs_matrix4x4"
  },
  {
   "name" : "_Z5colorffff"
  },
  {
   "name" : "_Z6rsTimePi"
  },
  {
   "name" : "_Z7rsDebugPKcDv2_x"
  },
  {
   "name" : "_Z7rsDebugPKcDv2_y"
  },
  {
   "name" : "_Z7rsDebugPKcDv3_x"
  },
  {
   "name" : "_Z7rsDebugPKcDv3_y"
  },
  {
   "name" : "_Z7rsDebugPKcDv4_x"
  },
  {
   "name" : "_Z7rsDebugPKcDv4_y"
  },
  {
   "name" : "_Z7rsDebugPKcPK12rs_matrix2x2"
  },
  {
   "name" : "_Z7rsDebugPKcPK12rs_matrix3x3"
  },
  {
   "name" : "_Z7rsDebugPKcPK12rs_matrix4x4"
  },
  {
   "name" : "_Z7rsDebugPKcPKDv2_c"
  },
  {
   "name" : "_Z7rsDebugPKcPKDv2_d"
  },
  {
   "name" : "_Z7rsDebugPKcPKDv2_f"
  },
  {
   "name" : "_Z7rsDebugPKcPKDv2_fPKDv2_t"
  },
  {
   "name" : "_Z7rsDebugPKcPKDv2_h"
  },
  {
   "name" : "_Z7rsDebugPKcPKDv2_i"
  },
  {
   "name" : "_Z7rsDebugPKcPKDv2_j"
  },
  {
   "name" : "_Z7rsDebugPKcPKDv2_l"
  },
  {
   "name" : "_Z7rsDebugPKcPKDv2_m"
  },
  {
   "name" : "_Z7rsDebugPKcPKDv2_s"
  },
  {
   "name" : "_Z7rsDebugPKcPKDv2_t"
  },
  {
   "name" : "_Z7rsDebugPKcPKDv2_x"
  },
  {
   "name" : "_Z7rsDebugPKcPKDv2_y"
  },
  {
   "name" : "_Z7rsDebugPKcPKDv3_c"
  },
  {
   "name" : "_Z7rsDebugPKcPKDv3_d"
  },
  {
   "name" : "_Z7rsDebugPKcPKDv3_f"
  },
  {
   "name" : "_Z7rsDebugPKcPKDv3_fPKDv3_t"
  },
  {
   "name" : "_Z7rsDebugPKcPKDv3_h"
  },
  {
   "name" : "_Z7rsDebugPKcPKDv3_i"
  },
  {
   "name" : "_Z7rsDebugPKcPKDv3_j"
  },
  {
   "name" : "_Z7rsDebugPKcPKDv3_l"
  },
  {
   "name" : "_Z7rsDebugPKcPKDv3_m"
  },
  {
   "name" : "_Z7rsDebugPKcPKDv3_s"
  },
  {
   "name" : "_Z7rsDebugPKcPKDv3_t"
  },
  {
   "name" : "_Z7rsDebugPKcPKDv3_x"
  },
  {
   "name" : "_Z7rsDebugPKcPKDv3_y"
  },
  {
   "name" : "_Z7rsDebugPKcPKDv4_c"
  },
  {
   "name" : "_Z7rsDebugPKcPKDv4_d"
  },
  {
   "name" : "_Z7rsDebugPKcPKDv4_f"
  },
  {
   "name" : "_Z7rsDebugPKcPKDv4_fPKDv4_t"
  },
  {
   "name" : "_Z7rsDebugPKcPKDv4_h"
  },
  {
   "name" : "_Z7rsDebugPKcPKDv4_i"
  },
  {
   "name" : "_Z7rsDebugPKcPKDv4_j"
  },
  {
   "name" : "_Z7rsDebugPKcPKDv4_l"
  },
  {
   "name" : "_Z7rsDebugPKcPKDv4_m"
  },
  {
   "name" : "_Z7rsDebugPKcPKDv4_s"
  },
  {
   "name" : "_Z7rsDebugPKcPKDv4_t"
  },
  {
   "name" : "_Z7rsDebugPKcPKDv4_x"
  },
  {
   "name" : "_Z7rsDebugPKcPKDv4_y"
  },
  {
   "name" : "_Z7rsDebugPKcPKv"
  },
  {
   "name" : "_Z7rsDebugPKcc"
  },
  {
   "name" : "_Z7rsDebugPKcd"
  },
  {
   "name" : "_Z7rsDebugPKcf"
  },
  {
   "name" : "_Z7rsDebugPKcff"
  },
  {
   "name" : "_Z7rsDebugPKcfff"
  },
  {
   "name" : "_Z7rsDebugPKcffff"
  },
  {
   "name" : "_Z7rsDebugPKcft"
  },
  {
   "name" : "_Z7rsDebugPKch"
  },
  {
   "name" : "_Z7rsDebugPKci"
  },
  {
   "name" : "_Z7rsDebugPKcj"
  },
  {
   "name" : "_Z7rsDebugPKcl"
  },
  {
   "name" : "_Z7rsDebugPKcm"
  },
  {
   "name" : "_Z7rsDebugPKcs"
  },
  {
   "name" : "_Z7rsDebugPKct"
  },
  {
   "name" : "_Z7rsDebugPKcx"
  },
  {
   "name" : "_Z7rsDebugPKcy"
  },
  {
   "name" : "_Z7rsGetDtv"
  },
  {
   "name" : "_Z9rsForEach9rs_script13rs_allocationS0_"
  },
  {
   "name" : "_Z9rsForEach9rs_script13rs_allocationS0_PKv"
  },
  {
   "name" : "_Z9rsForEach9rs_script13rs_allocationS0_PKvPK14rs_script_call"
  },
  {
   "name" : "_Z9rsForEach9rs_script13rs_allocationS0_PKvj"
  },
  {
   "name" : "_Z9rsForEach9rs_script13rs_allocationS0_PKvjPK14rs_script_call"
  },
  {
   "name" : "_Z9rsdGLInitPKN7android12renderscript7ContextE"
  },
  {
   "name" : "_Z9rsdGLSwapPKN7android12renderscript7ContextE"
  },
  {
   "name" : "_Z9rsgFinishv"
  },
  {
   "name" : "_ZN10RsdMeshObj18isValidGLComponentEPKN7android12renderscript7ElementEj"
  },
  {
   "name" : "_ZN10RsdMeshObj18updateGLPrimitivesEPKN7android12renderscript7ContextE"
  },
  {
   "name" : "_ZN10RsdMeshObj4initEPKN7android12renderscript7ContextE"
  },
  {
   "name" : "_ZN10RsdMeshObjC1EPKN7android12renderscript7ContextEPKNS1_4MeshE"
  },
  {
   "name" : "_ZN10RsdMeshObjC2EPKN7android12renderscript7ContextEPKNS1_4MeshE"
  },
  {
   "name" : "_ZN10RsdMeshObjD1Ev"
  },
  {
   "name" : "_ZN10RsdMeshObjD2Ev"
  },
  {
   "name" : "_ZN14RsdShaderCache10cleanupAllEv"
  },
  {
   "name" : "_ZN14RsdShaderCache13cleanupVertexEP9RsdShader"
  },
  {
   "name" : "_ZN14RsdShaderCache15cleanupFragmentEP9RsdShader"
  },
  {
   "name" : "_ZN14RsdShaderCache16hasArrayUniformsEP9RsdShaderS1_"
  },
  {
   "name" : "_ZN14RsdShaderCache19populateUniformDataEP9RsdShaderjPNS_11UniformDataE"
  },
  {
   "name" : "_ZN14RsdShaderCache22updateUniformArrayDataEPKN7android12renderscript7ContextEP9RsdShaderjPNS_11UniformDataEPKcPPNS_16UniformQueryDataEj"
  },
  {
   "name" : "_ZN14RsdShaderCache4linkEPKN7android12renderscript7ContextE"
  },
  {
   "name" : "_ZN14RsdShaderCache5setupEPKN7android12renderscript7ContextE"
  },
  {
   "name" : "_ZN14RsdShaderCacheC1Ev"
  },
  {
   "name" : "_ZN14RsdShaderCacheC2Ev"
  },
  {
   "name" : "_ZN14RsdShaderCacheD0Ev"
  },
  {
   "name" : "_ZN14RsdShaderCacheD1Ev"
  },
  {
   "name" : "_ZN14RsdShaderCacheD2Ev"
  },
  {
   "name" : "_ZN14RsdVertexArray6Attrib3setEjjjbjPKc"
  },
  {
   "name" : "_ZN14RsdVertexArray6Attrib5clearEv"
  },
  {
   "name" : "_ZN14RsdVertexArray6AttribC1Ev"
  },
  {
   "name" : "_ZN14RsdVertexArray6AttribC2Ev"
  },
  {
   "name" : "_ZN14RsdVertexArrayC1EPKNS_6AttribEj"
  },
  {
   "name" : "_ZN14RsdVertexArrayC2EPKNS_6AttribEj"
  },
  {
   "name" : "_ZN14RsdVertexArrayD0Ev"
  },
  {
   "name" : "_ZN14RsdVertexArrayD1Ev"
  },
  {
   "name" : "_ZN14RsdVertexArrayD2Ev"
  },
  {
   "name" : "_ZN17RsdFrameBufferObj10checkErrorEPKN7android12renderscript7ContextE"
  },
  {
   "name" : "_ZN17RsdFrameBufferObj18setColorAttachmentEv"
  },
  {
   "name" : "_ZN17RsdFrameBufferObj18setDepthAttachmentEv"
  },
  {
   "name" : "_ZN17RsdFrameBufferObj19renderToFramebufferEv"
  },
  {
   "name" : "_ZN17RsdFrameBufferObj9setActiveEPKN7android12renderscript7ContextE"
  },
  {
   "name" : "_ZN17RsdFrameBufferObjC1Ev"
  },
  {
   "name" : "_ZN17RsdFrameBufferObjC2Ev"
  },
  {
   "name" : "_ZN17RsdFrameBufferObjD1Ev"
  },
  {
   "name" : "_ZN17RsdFrameBufferObjD2Ev"
  },
  {
   "name" : "_ZN19RsdVertexArrayState4initEj"
  },
  {
   "name" : "_ZN19RsdVertexArrayStateC1Ev"
  },
  {
   "name" : "_ZN19RsdVertexArrayStateC2Ev"
  },
  {
   "name" : "_ZN19RsdVertexArrayStateD1Ev"
  },
  {
   "name" : "_ZN19RsdVertexArrayStateD2Ev"
  },
  {
   "name" : "_ZN9RsdShader10loadShaderEPKN7android12renderscript7ContextE"
  },
  {
   "name" : "_ZN9RsdShader10logUniformEPKN7android12renderscript7ElementEPKfj"
  },
  {
   "name" : "_ZN9RsdShader10setUniformEPKN7android12renderscript7ContextEPKNS1_7ElementEPKfij"
  },
  {
   "name" : "_ZN9RsdShader12createShaderEv"
  },
  {
   "name" : "_ZN9RsdShader12setupSamplerEPKN7android12renderscript7ContextEPKNS1_7SamplerEPKNS1_10AllocationE"
  },
  {
   "name" : "_ZN9RsdShader13setupTexturesEPKN7android12renderscript7ContextEP14RsdShaderCache"
  },
  {
   "name" : "_ZN9RsdShader14appendTexturesEv"
  },
  {
   "name" : "_ZN9RsdShader14initMemberVarsEv"
  },
  {
   "name" : "_ZN9RsdShader16appendAttributesEv"
  },
  {
   "name" : "_ZN9RsdShader16getExistingStateEv"
  },
  {
   "name" : "_ZN9RsdShader18initAddUserElementEPKN7android12renderscript7ElementEPNSt3__112basic_stringIcNS5_11char_traitsIcEENS5_9allocatorIcEEEEPjSD_PKc"
  },
  {
   "name" : "_ZN9RsdShader18setupUserConstantsEPKN7android12renderscript7ContextEP14RsdShaderCacheb"
  },
  {
   "name" : "_ZN9RsdShader19appendUserConstantsEv"
  },
  {
   "name" : "_ZN9RsdShader21getStateBasedShaderIDEPKN7android12renderscript7ContextE"
  },
  {
   "name" : "_ZN9RsdShader25initAttribAndUniformArrayEv"
  },
  {
   "name" : "_ZN9RsdShader4initEPPKcjPKj"
  },
  {
   "name" : "_ZN9RsdShader5setupEPKN7android12renderscript7ContextEP14RsdShaderCache"
  },
  {
   "name" : "_ZN9RsdShaderC1EPKN7android12renderscript7ProgramEjPKcjPS6_jPKj"
  },
  {
   "name" : "_ZN9RsdShaderC2EPKN7android12renderscript7ProgramEjPKcjPS6_jPKj"
  },
  {
   "name" : "_ZN9RsdShaderD0Ev"
  },
  {
   "name" : "_ZN9RsdShaderD1Ev"
  },
  {
   "name" : "_ZN9RsdShaderD2Ev"
  },
  {
   "name" : "_ZNK10RsdMeshObj20renderPrimitiveRangeEPKN7android12renderscript7ContextEjjj"
  },
  {
   "name" : "_ZNK14RsdShaderCache13vtxAttribSlotERKNSt3__112basic_stringIcNS0_11char_traitsIcEENS0_9allocatorIcEEEE"
  },
  {
   "name" : "_ZNK14RsdVertexArray5setupEPKN7android12renderscript7ContextE"
  },
  {
   "name" : "_ZNK14RsdVertexArray9logAttribEjj"
  },
  {
   "name" : "_ZNK9RsdShader18getGLSLInputStringEv"
  },
  {
   "binding" : "weak",
   "name" : "_ZNSt3__16vectorINS_12basic_stringIcNS_11char_traitsIcEENS_9allocatorIcEEEENS4_IS6_EEE21__push_back_slow_pathIS6_EEvOT_"
  },
  {
   "binding" : "weak",
   "name" : "_ZNSt3__16vectorIPN14RsdShaderCache12ProgramEntryENS_9allocatorIS3_EEE21__push_back_slow_pathIRKS3_EEvOT_"
  },
  {
   "binding" : "weak",
   "name" : "_ZNSt3__16vectorIPN9RsdShader13StateBasedKeyENS_9allocatorIS3_EEE21__push_back_slow_pathIRKS3_EEvOT_"
  },
  {
   "name" : "rsdHalAbort"
  },
  {
   "name" : "rsdHalInit"
  },
  {
   "name" : "rsdHalQueryHal"
  },
  {
   "name" : "rsdHalQueryVersion"
  }
 ],
 "elf_objects" :
 [
  {
   "name" : "_ZTV14RsdShaderCache"
  },
  {
   "name" : "_ZTV14RsdVertexArray"
  },
  {
   "name" : "_ZTV9RsdShader"
  }
 ],
 "enum_types" :
 [
  {
   "alignment" : 4,
   "enum_fields" :
   [
    {
     "enum_field_value" : 0,
     "name" : "ADATASPACE_UNKNOWN"
    },
    {
     "enum_field_value" : 406913024,
     "name" : "ADATASPACE_SCRGB_LINEAR"
    },
    {
     "enum_field_value" : 142671872,
     "name" : "ADATASPACE_SRGB"
    },
    {
     "enum_field_value" : 411107328,
     "name" : "ADATASPACE_SCRGB"
    },
    {
     "enum_field_value" : 143261696,
     "name" : "ADATASPACE_DISPLAY_P3"
    },
    {
     "enum_field_value" : 163971072,
     "name" : "ADATASPACE_BT2020_PQ"
    }
   ],
   "linker_set_key" : "ADataSpace",
   "name" : "ADataSpace",
   "referenced_type" : "type-2162",
   "self_type" : "type-2162",
   "size" : 4,
   "source_file" : "/frameworks/native/libs/nativewindow/include/android/data_space.h",
   "underlying_type" : "type-16",
   "unique_id" : "ADataSpace"
  },
  {
   "alignment" : 4,
   "enum_fields" :
   [
    {
     "enum_field_value" : 1,
     "name" : "AHARDWAREBUFFER_FORMAT_R8G8B8A8_UNORM"
    },
    {
     "enum_field_value" : 2,
     "name" : "AHARDWAREBUFFER_FORMAT_R8G8B8X8_UNORM"
    },
    {
     "enum_field_value" : 3,
     "name" : "AHARDWAREBUFFER_FORMAT_R8G8B8_UNORM"
    },
    {
     "enum_field_value" : 4,
     "name" : "AHARDWAREBUFFER_FORMAT_R5G6B5_UNORM"
    },
    {
     "enum_field_value" : 22,
     "name" : "AHARDWAREBUFFER_FORMAT_R16G16B16A16_FLOAT"
    },
    {
     "enum_field_value" : 43,
     "name" : "AHARDWAREBUFFER_FORMAT_R10G10B10A2_UNORM"
    },
    {
     "enum_field_value" : 33,
     "name" : "AHARDWAREBUFFER_FORMAT_BLOB"
    },
    {
     "enum_field_value" : 48,
     "name" : "AHARDWAREBUFFER_FORMAT_D16_UNORM"
    },
    {
     "enum_field_value" : 49,
     "name" : "AHARDWAREBUFFER_FORMAT_D24_UNORM"
    },
    {
     "enum_field_value" : 50,
     "name" : "AHARDWAREBUFFER_FORMAT_D24_UNORM_S8_UINT"
    },
    {
     "enum_field_value" : 51,
     "name" : "AHARDWAREBUFFER_FORMAT_D32_FLOAT"
    },
    {
     "enum_field_value" : 52,
     "name" : "AHARDWAREBUFFER_FORMAT_D32_FLOAT_S8_UINT"
    },
    {
     "enum_field_value" : 53,
     "name" : "AHARDWAREBUFFER_FORMAT_S8_UINT"
    },
    {
     "enum_field_value" : 35,
     "name" : "AHARDWAREBUFFER_FORMAT_Y8Cb8Cr8_420"
    }
   ],
   "linker_set_key" : "AHardwareBuffer_Format",
   "name" : "AHardwareBuffer_Format",
   "referenced_type" : "type-2164",
   "self_type" : "type-2164",
   "size" : 4,
   "source_file" : "/frameworks/native/libs/nativewindow/include/android/hardware_buffer.h",
   "underlying_type" : "type-16",
   "unique_id" : "AHardwareBuffer_Format"
  },
  {
   "alignment" : 4,
   "enum_fields" :
   [
    {
     "enum_field_value" : 0,
     "name" : "AHARDWAREBUFFER_USAGE_CPU_READ_NEVER"
    },
    {
     "enum_field_value" : 2,
     "name" : "AHARDWAREBUFFER_USAGE_CPU_READ_RARELY"
    },
    {
     "enum_field_value" : 3,
     "name" : "AHARDWAREBUFFER_USAGE_CPU_READ_OFTEN"
    },
    {
     "enum_field_value" : 15,
     "name" : "AHARDWAREBUFFER_USAGE_CPU_READ_MASK"
    },
    {
     "enum_field_value" : 0,
     "name" : "AHARDWAREBUFFER_USAGE_CPU_WRITE_NEVER"
    },
    {
     "enum_field_value" : 32,
     "name" : "AHARDWAREBUFFER_USAGE_CPU_WRITE_RARELY"
    },
    {
     "enum_field_value" : 48,
     "name" : "AHARDWAREBUFFER_USAGE_CPU_WRITE_OFTEN"
    },
    {
     "enum_field_value" : 240,
     "name" : "AHARDWAREBUFFER_USAGE_CPU_WRITE_MASK"
    },
    {
     "enum_field_value" : 256,
     "name" : "AHARDWAREBUFFER_USAGE_GPU_SAMPLED_IMAGE"
    },
    {
     "enum_field_value" : 512,
     "name" : "AHARDWAREBUFFER_USAGE_GPU_FRAMEBUFFER"
    },
    {
     "enum_field_value" : 512,
     "name" : "AHARDWAREBUFFER_USAGE_GPU_COLOR_OUTPUT"
    },
    {
     "enum_field_value" : 2048,
     "name" : "AHARDWAREBUFFER_USAGE_COMPOSER_OVERLAY"
    },
    {
     "enum_field_value" : 16384,
     "name" : "AHARDWAREBUFFER_USAGE_PROTECTED_CONTENT"
    },
    {
     "enum_field_value" : 65536,
     "name" : "AHARDWAREBUFFER_USAGE_VIDEO_ENCODE"
    },
    {
     "enum_field_value" : 8388608,
     "name" : "AHARDWAREBUFFER_USAGE_SENSOR_DIRECT_DATA"
    },
    {
     "enum_field_value" : 16777216,
     "name" : "AHARDWAREBUFFER_USAGE_GPU_DATA_BUFFER"
    },
    {
     "enum_field_value" : 33554432,
     "name" : "AHARDWAREBUFFER_USAGE_GPU_CUBE_MAP"
    },
    {
     "enum_field_value" : 67108864,
     "name" : "AHARDWAREBUFFER_USAGE_GPU_MIPMAP_COMPLETE"
    },
    {
     "enum_field_value" : 268435456,
     "name" : "AHARDWAREBUFFER_USAGE_VENDOR_0"
    },
    {
     "enum_field_value" : 536870912,
     "name" : "AHARDWAREBUFFER_USAGE_VENDOR_1"
    },
    {
     "enum_field_value" : 1073741824,
     "name" : "AHARDWAREBUFFER_USAGE_VENDOR_2"
    },
    {
     "enum_field_value" : -2147483648,
     "name" : "AHARDWAREBUFFER_USAGE_VENDOR_3"
    },
    {
     "enum_field_value" : 0,
     "name" : "AHARDWAREBUFFER_USAGE_VENDOR_4"
    },
    {
     "enum_field_value" : 0,
     "name" : "AHARDWAREBUFFER_USAGE_VENDOR_5"
    },
    {
     "enum_field_value" : 0,
     "name" : "AHARDWAREBUFFER_USAGE_VENDOR_6"
    },
    {
     "enum_field_value" : 0,
     "name" : "AHARDWAREBUFFER_USAGE_VENDOR_7"
    },
    {
     "enum_field_value" : 0,
     "name" : "AHARDWAREBUFFER_USAGE_VENDOR_8"
    },
    {
     "enum_field_value" : 0,
     "name" : "AHARDWAREBUFFER_USAGE_VENDOR_9"
    },
    {
     "enum_field_value" : 0,
     "name" : "AHARDWAREBUFFER_USAGE_VENDOR_10"
    },
    {
     "enum_field_value" : 0,
     "name" : "AHARDWAREBUFFER_USAGE_VENDOR_11"
    },
    {
     "enum_field_value" : 0,
     "name" : "AHARDWAREBUFFER_USAGE_VENDOR_12"
    },
    {
     "enum_field_value" : 0,
     "name" : "AHARDWAREBUFFER_USAGE_VENDOR_13"
    },
    {
     "enum_field_value" : 0,
     "name" : "AHARDWAREBUFFER_USAGE_VENDOR_14"
    },
    {
     "enum_field_value" : 0,
     "name" : "AHARDWAREBUFFER_USAGE_VENDOR_15"
    },
    {
     "enum_field_value" : 0,
     "name" : "AHARDWAREBUFFER_USAGE_VENDOR_16"
    },
    {
     "enum_field_value" : 0,
     "name" : "AHARDWAREBUFFER_USAGE_VENDOR_17"
    },
    {
     "enum_field_value" : 0,
     "name" : "AHARDWAREBUFFER_USAGE_VENDOR_18"
    },
    {
     "enum_field_value" : 0,
     "name" : "AHARDWAREBUFFER_USAGE_VENDOR_19"
    }
   ],
   "linker_set_key" : "AHardwareBuffer_UsageFlags",
   "name" : "AHardwareBuffer_UsageFlags",
   "referenced_type" : "type-2165",
   "self_type" : "type-2165",
   "size" : 8,
   "source_file" : "/frameworks/native/libs/nativewindow/include/android/hardware_buffer.h",
   "underlying_type" : "type-498",
   "unique_id" : "AHardwareBuffer_UsageFlags"
  },
  {
   "alignment" : 4,
   "enum_fields" :
   [
    {
     "enum_field_value" : 3,
     "name" : "ANATIVEWINDOW_QUERY_MIN_UNDEQUEUED_BUFFERS"
    },
    {
     "enum_field_value" : 6,
     "name" : "ANATIVEWINDOW_QUERY_DEFAULT_WIDTH"
    },
    {
     "enum_field_value" : 7,
     "name" : "ANATIVEWINDOW_QUERY_DEFAULT_HEIGHT"
    },
    {
     "enum_field_value" : 8,
     "name" : "ANATIVEWINDOW_QUERY_TRANSFORM_HINT"
    },
    {
     "enum_field_value" : 13,
     "name" : "ANATIVEWINDOW_QUERY_BUFFER_AGE"
    },
    {
     "enum_field_value" : 65536,
     "name" : "ANATIVEWINDOW_QUERY_MIN_SWAP_INTERVAL"
    },
    {
     "enum_field_value" : 65537,
     "name" : "ANATIVEWINDOW_QUERY_MAX_SWAP_INTERVAL"
    },
    {
     "enum_field_value" : 65538,
     "name" : "ANATIVEWINDOW_QUERY_XDPI"
    },
    {
     "enum_field_value" : 65539,
     "name" : "ANATIVEWINDOW_QUERY_YDPI"
    }
   ],
   "linker_set_key" : "ANativeWindowQuery",
   "name" : "ANativeWindowQuery",
   "referenced_type" : "type-2190",
   "self_type" : "type-2190",
   "size" : 4,
   "source_file" : "/frameworks/native/libs/nativewindow/include/vndk/window.h",
   "underlying_type" : "type-16",
   "unique_id" : "ANativeWindowQuery"
  },
  {
   "alignment" : 4,
   "enum_fields" :
   [
    {
     "enum_field_value" : 0,
     "name" : "ANATIVEWINDOW_TRANSFORM_IDENTITY"
    },
    {
     "enum_field_value" : 1,
     "name" : "ANATIVEWINDOW_TRANSFORM_MIRROR_HORIZONTAL"
    },
    {
     "enum_field_value" : 2,
     "name" : "ANATIVEWINDOW_TRANSFORM_MIRROR_VERTICAL"
    },
    {
     "enum_field_value" : 4,
     "name" : "ANATIVEWINDOW_TRANSFORM_ROTATE_90"
    },
    {
     "enum_field_value" : 3,
     "name" : "ANATIVEWINDOW_TRANSFORM_ROTATE_180"
    },
    {
     "enum_field_value" : 7,
     "name" : "ANATIVEWINDOW_TRANSFORM_ROTATE_270"
    }
   ],
   "linker_set_key" : "ANativeWindowTransform",
   "name" : "ANativeWindowTransform",
   "referenced_type" : "type-2171",
   "self_type" : "type-2171",
   "size" : 4,
   "source_file" : "/frameworks/native/libs/nativewindow/include/android/native_window.h",
   "underlying_type" : "type-16",
   "unique_id" : "ANativeWindowTransform"
  },
  {
   "alignment" : 4,
   "enum_fields" :
   [
    {
     "enum_field_value" : 1,
     "name" : "WINDOW_FORMAT_RGBA_8888"
    },
    {
     "enum_field_value" : 2,
     "name" : "WINDOW_FORMAT_RGBX_8888"
    },
    {
     "enum_field_value" : 4,
     "name" : "WINDOW_FORMAT_RGB_565"
    }
   ],
   "linker_set_key" : "ANativeWindow_LegacyFormat",
   "name" : "ANativeWindow_LegacyFormat",
   "referenced_type" : "type-2170",
   "self_type" : "type-2170",
   "size" : 4,
   "source_file" : "/frameworks/native/libs/nativewindow/include/android/native_window.h",
   "underlying_type" : "type-16",
   "unique_id" : "ANativeWindow_LegacyFormat"
  },
  {
   "alignment" : 4,
   "enum_fields" :
   [
    {
     "enum_field_value" : 0,
     "name" : "RS_A3D_CLASS_ID_UNKNOWN"
    },
    {
     "enum_field_value" : 1,
     "name" : "RS_A3D_CLASS_ID_MESH"
    },
    {
     "enum_field_value" : 2,
     "name" : "RS_A3D_CLASS_ID_TYPE"
    },
    {
     "enum_field_value" : 3,
     "name" : "RS_A3D_CLASS_ID_ELEMENT"
    },
    {
     "enum_field_value" : 4,
     "name" : "RS_A3D_CLASS_ID_ALLOCATION"
    },
    {
     "enum_field_value" : 5,
     "name" : "RS_A3D_CLASS_ID_PROGRAM_VERTEX"
    },
    {
     "enum_field_value" : 6,
     "name" : "RS_A3D_CLASS_ID_PROGRAM_RASTER"
    },
    {
     "enum_field_value" : 7,
     "name" : "RS_A3D_CLASS_ID_PROGRAM_FRAGMENT"
    },
    {
     "enum_field_value" : 8,
     "name" : "RS_A3D_CLASS_ID_PROGRAM_STORE"
    },
    {
     "enum_field_value" : 9,
     "name" : "RS_A3D_CLASS_ID_SAMPLER"
    },
    {
     "enum_field_value" : 10,
     "name" : "RS_A3D_CLASS_ID_ANIMATION"
    },
    {
     "enum_field_value" : 11,
     "name" : "RS_A3D_CLASS_ID_ADAPTER_1D"
    },
    {
     "enum_field_value" : 12,
     "name" : "RS_A3D_CLASS_ID_ADAPTER_2D"
    },
    {
     "enum_field_value" : 13,
     "name" : "RS_A3D_CLASS_ID_SCRIPT_C"
    },
    {
     "enum_field_value" : 14,
     "name" : "RS_A3D_CLASS_ID_SCRIPT_KERNEL_ID"
    },
    {
     "enum_field_value" : 15,
     "name" : "RS_A3D_CLASS_ID_SCRIPT_FIELD_ID"
    },
    {
     "enum_field_value" : 16,
     "name" : "RS_A3D_CLASS_ID_SCRIPT_METHOD_ID"
    },
    {
     "enum_field_value" : 17,
     "name" : "RS_A3D_CLASS_ID_SCRIPT_GROUP"
    },
    {
     "enum_field_value" : 18,
     "name" : "RS_A3D_CLASS_ID_CLOSURE"
    },
    {
     "enum_field_value" : 19,
     "name" : "RS_A3D_CLASS_ID_SCRIPT_GROUP2"
    },
    {
     "enum_field_value" : 20,
     "name" : "RS_A3D_CLASS_ID_SCRIPT_INVOKE_ID"
    }
   ],
   "linker_set_key" : "RsA3DClassID",
   "name" : "RsA3DClassID",
   "referenced_type" : "type-2645",
   "self_type" : "type-2645",
   "size" : 4,
   "source_file" : "/frameworks/rs/rsInternalDefines.h",
   "underlying_type" : "type-16",
   "unique_id" : "RsA3DClassID"
  },
  {
   "alignment" : 4,
   "enum_fields" :
   [
    {
     "enum_field_value" : 0,
     "name" : "RS_ALLOCATION_CUBEMAP_FACE_POSITIVE_X"
    },
    {
     "enum_field_value" : 1,
     "name" : "RS_ALLOCATION_CUBEMAP_FACE_NEGATIVE_X"
    },
    {
     "enum_field_value" : 2,
     "name" : "RS_ALLOCATION_CUBEMAP_FACE_POSITIVE_Y"
    },
    {
     "enum_field_value" : 3,
     "name" : "RS_ALLOCATION_CUBEMAP_FACE_NEGATIVE_Y"
    },
    {
     "enum_field_value" : 4,
     "name" : "RS_ALLOCATION_CUBEMAP_FACE_POSITIVE_Z"
    },
    {
     "enum_field_value" : 5,
     "name" : "RS_ALLOCATION_CUBEMAP_FACE_NEGATIVE_Z"
    }
   ],
   "linker_set_key" : "RsAllocationCubemapFace",
   "name" : "RsAllocationCubemapFace",
   "referenced_type" : "type-210",
   "self_type" : "type-210",
   "size" : 4,
   "source_file" : "/frameworks/rs/rsDefines.h",
   "underlying_type" : "type-16",
   "unique_id" : "RsAllocationCubemapFace"
  },
  {
   "alignment" : 4,
   "enum_fields" :
   [
    {
     "enum_field_value" : 0,
     "name" : "RS_ALLOCATION_MIPMAP_NONE"
    },
    {
     "enum_field_value" : 1,
     "name" : "RS_ALLOCATION_MIPMAP_FULL"
    },
    {
     "enum_field_value" : 2,
     "name" : "RS_ALLOCATION_MIPMAP_ON_SYNC_TO_TEXTURE"
    }
   ],
   "linker_set_key" : "RsAllocationMipmapControl",
   "name" : "RsAllocationMipmapControl",
   "referenced_type" : "type-77",
   "self_type" : "type-77",
   "size" : 4,
   "source_file" : "/frameworks/rs/rsDefines.h",
   "underlying_type" : "type-16",
   "unique_id" : "RsAllocationMipmapControl"
  },
  {
   "alignment" : 4,
   "enum_fields" :
   [
    {
     "enum_field_value" : 1,
     "name" : "RS_ALLOCATION_USAGE_SCRIPT"
    },
    {
     "enum_field_value" : 2,
     "name" : "RS_ALLOCATION_USAGE_GRAPHICS_TEXTURE"
    },
    {
     "enum_field_value" : 4,
     "name" : "RS_ALLOCATION_USAGE_GRAPHICS_VERTEX"
    },
    {
     "enum_field_value" : 8,
     "name" : "RS_ALLOCATION_USAGE_GRAPHICS_CONSTANTS"
    },
    {
     "enum_field_value" : 16,
     "name" : "RS_ALLOCATION_USAGE_GRAPHICS_RENDER_TARGET"
    },
    {
     "enum_field_value" : 32,
     "name" : "RS_ALLOCATION_USAGE_IO_INPUT"
    },
    {
     "enum_field_value" : 64,
     "name" : "RS_ALLOCATION_USAGE_IO_OUTPUT"
    },
    {
     "enum_field_value" : 128,
     "name" : "RS_ALLOCATION_USAGE_SHARED"
    },
    {
     "enum_field_value" : 4096,
     "name" : "RS_ALLOCATION_USAGE_INCREMENTAL_SUPPORT"
    },
    {
     "enum_field_value" : 32768,
     "name" : "RS_ALLOCATION_USAGE_OEM"
    },
    {
     "enum_field_value" : 33023,
     "name" : "RS_ALLOCATION_USAGE_ALL"
    }
   ],
   "linker_set_key" : "RsAllocationUsageType",
   "name" : "RsAllocationUsageType",
   "referenced_type" : "type-199",
   "self_type" : "type-199",
   "size" : 4,
   "source_file" : "/frameworks/rs/rsDefines.h",
   "underlying_type" : "type-16",
   "unique_id" : "RsAllocationUsageType"
  },
  {
   "alignment" : 4,
   "enum_fields" :
   [
    {
     "enum_field_value" : 0,
     "name" : "RS_ANIMATION_EDGE_UNDEFINED"
    },
    {
     "enum_field_value" : 1,
     "name" : "RS_ANIMATION_EDGE_CONSTANT"
    },
    {
     "enum_field_value" : 2,
     "name" : "RS_ANIMATION_EDGE_GRADIENT"
    },
    {
     "enum_field_value" : 3,
     "name" : "RS_ANIMATION_EDGE_CYCLE"
    },
    {
     "enum_field_value" : 4,
     "name" : "RS_ANIMATION_EDGE_OSCILLATE"
    },
    {
     "enum_field_value" : 5,
     "name" : "RS_ANIMATION_EDGE_CYLE_RELATIVE"
    }
   ],
   "linker_set_key" : "RsAnimationEdge",
   "name" : "RsAnimationEdge",
   "referenced_type" : "type-2634",
   "self_type" : "type-2634",
   "size" : 4,
   "source_file" : "/frameworks/rs/rsInternalDefines.h",
   "underlying_type" : "type-16",
   "unique_id" : "RsAnimationEdge"
  },
  {
   "alignment" : 4,
   "enum_fields" :
   [
    {
     "enum_field_value" : 0,
     "name" : "RS_ANIMATION_INTERPOLATION_STEP"
    },
    {
     "enum_field_value" : 1,
     "name" : "RS_ANIMATION_INTERPOLATION_LINEAR"
    },
    {
     "enum_field_value" : 2,
     "name" : "RS_ANIMATION_INTERPOLATION_BEZIER"
    },
    {
     "enum_field_value" : 3,
     "name" : "RS_ANIMATION_INTERPOLATION_CARDINAL"
    },
    {
     "enum_field_value" : 4,
     "name" : "RS_ANIMATION_INTERPOLATION_HERMITE"
    },
    {
     "enum_field_value" : 5,
     "name" : "RS_ANIMATION_INTERPOLATION_BSPLINE"
    }
   ],
   "linker_set_key" : "RsAnimationInterpolation",
   "name" : "RsAnimationInterpolation",
   "referenced_type" : "type-2622",
   "self_type" : "type-2622",
   "size" : 4,
   "source_file" : "/frameworks/rs/rsInternalDefines.h",
   "underlying_type" : "type-16",
   "unique_id" : "RsAnimationInterpolation"
  },
  {
   "alignment" : 4,
   "enum_fields" :
   [
    {
     "enum_field_value" : 131,
     "name" : "RsBlasNonUnit"
    },
    {
     "enum_field_value" : 132,
     "name" : "RsBlasUnit"
    }
   ],
   "linker_set_key" : "RsBlasDiag",
   "name" : "RsBlasDiag",
   "referenced_type" : "type-2326",
   "self_type" : "type-2326",
   "size" : 4,
   "source_file" : "/frameworks/rs/rsDefines.h",
   "underlying_type" : "type-16",
   "unique_id" : "RsBlasDiag"
  },
  {
   "alignment" : 4,
   "enum_fields" :
   [
    {
     "enum_field_value" : 0,
     "name" : "RsBlas_nop"
    },
    {
     "enum_field_value" : 1,
     "name" : "RsBlas_sdsdot"
    },
    {
     "enum_field_value" : 2,
     "name" : "RsBlas_dsdot"
    },
    {
     "enum_field_value" : 3,
     "name" : "RsBlas_sdot"
    },
    {
     "enum_field_value" : 4,
     "name" : "RsBlas_ddot"
    },
    {
     "enum_field_value" : 5,
     "name" : "RsBlas_cdotu_sub"
    },
    {
     "enum_field_value" : 6,
     "name" : "RsBlas_cdotc_sub"
    },
    {
     "enum_field_value" : 7,
     "name" : "RsBlas_zdotu_sub"
    },
    {
     "enum_field_value" : 8,
     "name" : "RsBlas_zdotc_sub"
    },
    {
     "enum_field_value" : 9,
     "name" : "RsBlas_snrm2"
    },
    {
     "enum_field_value" : 10,
     "name" : "RsBlas_sasum"
    },
    {
     "enum_field_value" : 11,
     "name" : "RsBlas_dnrm2"
    },
    {
     "enum_field_value" : 12,
     "name" : "RsBlas_dasum"
    },
    {
     "enum_field_value" : 13,
     "name" : "RsBlas_scnrm2"
    },
    {
     "enum_field_value" : 14,
     "name" : "RsBlas_scasum"
    },
    {
     "enum_field_value" : 15,
     "name" : "RsBlas_dznrm2"
    },
    {
     "enum_field_value" : 16,
     "name" : "RsBlas_dzasum"
    },
    {
     "enum_field_value" : 17,
     "name" : "RsBlas_isamax"
    },
    {
     "enum_field_value" : 18,
     "name" : "RsBlas_idamax"
    },
    {
     "enum_field_value" : 19,
     "name" : "RsBlas_icamax"
    },
    {
     "enum_field_value" : 20,
     "name" : "RsBlas_izamax"
    },
    {
     "enum_field_value" : 21,
     "name" : "RsBlas_sswap"
    },
    {
     "enum_field_value" : 22,
     "name" : "RsBlas_scopy"
    },
    {
     "enum_field_value" : 23,
     "name" : "RsBlas_saxpy"
    },
    {
     "enum_field_value" : 24,
     "name" : "RsBlas_dswap"
    },
    {
     "enum_field_value" : 25,
     "name" : "RsBlas_dcopy"
    },
    {
     "enum_field_value" : 26,
     "name" : "RsBlas_daxpy"
    },
    {
     "enum_field_value" : 27,
     "name" : "RsBlas_cswap"
    },
    {
     "enum_field_value" : 28,
     "name" : "RsBlas_ccopy"
    },
    {
     "enum_field_value" : 29,
     "name" : "RsBlas_caxpy"
    },
    {
     "enum_field_value" : 30,
     "name" : "RsBlas_zswap"
    },
    {
     "enum_field_value" : 31,
     "name" : "RsBlas_zcopy"
    },
    {
     "enum_field_value" : 32,
     "name" : "RsBlas_zaxpy"
    },
    {
     "enum_field_value" : 33,
     "name" : "RsBlas_srotg"
    },
    {
     "enum_field_value" : 34,
     "name" : "RsBlas_srotmg"
    },
    {
     "enum_field_value" : 35,
     "name" : "RsBlas_srot"
    },
    {
     "enum_field_value" : 36,
     "name" : "RsBlas_srotm"
    },
    {
     "enum_field_value" : 37,
     "name" : "RsBlas_drotg"
    },
    {
     "enum_field_value" : 38,
     "name" : "RsBlas_drotmg"
    },
    {
     "enum_field_value" : 39,
     "name" : "RsBlas_drot"
    },
    {
     "enum_field_value" : 40,
     "name" : "RsBlas_drotm"
    },
    {
     "enum_field_value" : 41,
     "name" : "RsBlas_sscal"
    },
    {
     "enum_field_value" : 42,
     "name" : "RsBlas_dscal"
    },
    {
     "enum_field_value" : 43,
     "name" : "RsBlas_cscal"
    },
    {
     "enum_field_value" : 44,
     "name" : "RsBlas_zscal"
    },
    {
     "enum_field_value" : 45,
     "name" : "RsBlas_csscal"
    },
    {
     "enum_field_value" : 46,
     "name" : "RsBlas_zdscal"
    },
    {
     "enum_field_value" : 47,
     "name" : "RsBlas_sgemv"
    },
    {
     "enum_field_value" : 48,
     "name" : "RsBlas_sgbmv"
    },
    {
     "enum_field_value" : 49,
     "name" : "RsBlas_strmv"
    },
    {
     "enum_field_value" : 50,
     "name" : "RsBlas_stbmv"
    },
    {
     "enum_field_value" : 51,
     "name" : "RsBlas_stpmv"
    },
    {
     "enum_field_value" : 52,
     "name" : "RsBlas_strsv"
    },
    {
     "enum_field_value" : 53,
     "name" : "RsBlas_stbsv"
    },
    {
     "enum_field_value" : 54,
     "name" : "RsBlas_stpsv"
    },
    {
     "enum_field_value" : 55,
     "name" : "RsBlas_dgemv"
    },
    {
     "enum_field_value" : 56,
     "name" : "RsBlas_dgbmv"
    },
    {
     "enum_field_value" : 57,
     "name" : "RsBlas_dtrmv"
    },
    {
     "enum_field_value" : 58,
     "name" : "RsBlas_dtbmv"
    },
    {
     "enum_field_value" : 59,
     "name" : "RsBlas_dtpmv"
    },
    {
     "enum_field_value" : 60,
     "name" : "RsBlas_dtrsv"
    },
    {
     "enum_field_value" : 61,
     "name" : "RsBlas_dtbsv"
    },
    {
     "enum_field_value" : 62,
     "name" : "RsBlas_dtpsv"
    },
    {
     "enum_field_value" : 63,
     "name" : "RsBlas_cgemv"
    },
    {
     "enum_field_value" : 64,
     "name" : "RsBlas_cgbmv"
    },
    {
     "enum_field_value" : 65,
     "name" : "RsBlas_ctrmv"
    },
    {
     "enum_field_value" : 66,
     "name" : "RsBlas_ctbmv"
    },
    {
     "enum_field_value" : 67,
     "name" : "RsBlas_ctpmv"
    },
    {
     "enum_field_value" : 68,
     "name" : "RsBlas_ctrsv"
    },
    {
     "enum_field_value" : 69,
     "name" : "RsBlas_ctbsv"
    },
    {
     "enum_field_value" : 70,
     "name" : "RsBlas_ctpsv"
    },
    {
     "enum_field_value" : 71,
     "name" : "RsBlas_zgemv"
    },
    {
     "enum_field_value" : 72,
     "name" : "RsBlas_zgbmv"
    },
    {
     "enum_field_value" : 73,
     "name" : "RsBlas_ztrmv"
    },
    {
     "enum_field_value" : 74,
     "name" : "RsBlas_ztbmv"
    },
    {
     "enum_field_value" : 75,
     "name" : "RsBlas_ztpmv"
    },
    {
     "enum_field_value" : 76,
     "name" : "RsBlas_ztrsv"
    },
    {
     "enum_field_value" : 77,
     "name" : "RsBlas_ztbsv"
    },
    {
     "enum_field_value" : 78,
     "name" : "RsBlas_ztpsv"
    },
    {
     "enum_field_value" : 79,
     "name" : "RsBlas_ssymv"
    },
    {
     "enum_field_value" : 80,
     "name" : "RsBlas_ssbmv"
    },
    {
     "enum_field_value" : 81,
     "name" : "RsBlas_sspmv"
    },
    {
     "enum_field_value" : 82,
     "name" : "RsBlas_sger"
    },
    {
     "enum_field_value" : 83,
     "name" : "RsBlas_ssyr"
    },
    {
     "enum_field_value" : 84,
     "name" : "RsBlas_sspr"
    },
    {
     "enum_field_value" : 85,
     "name" : "RsBlas_ssyr2"
    },
    {
     "enum_field_value" : 86,
     "name" : "RsBlas_sspr2"
    },
    {
     "enum_field_value" : 87,
     "name" : "RsBlas_dsymv"
    },
    {
     "enum_field_value" : 88,
     "name" : "RsBlas_dsbmv"
    },
    {
     "enum_field_value" : 89,
     "name" : "RsBlas_dspmv"
    },
    {
     "enum_field_value" : 90,
     "name" : "RsBlas_dger"
    },
    {
     "enum_field_value" : 91,
     "name" : "RsBlas_dsyr"
    },
    {
     "enum_field_value" : 92,
     "name" : "RsBlas_dspr"
    },
    {
     "enum_field_value" : 93,
     "name" : "RsBlas_dsyr2"
    },
    {
     "enum_field_value" : 94,
     "name" : "RsBlas_dspr2"
    },
    {
     "enum_field_value" : 95,
     "name" : "RsBlas_chemv"
    },
    {
     "enum_field_value" : 96,
     "name" : "RsBlas_chbmv"
    },
    {
     "enum_field_value" : 97,
     "name" : "RsBlas_chpmv"
    },
    {
     "enum_field_value" : 98,
     "name" : "RsBlas_cgeru"
    },
    {
     "enum_field_value" : 99,
     "name" : "RsBlas_cgerc"
    },
    {
     "enum_field_value" : 100,
     "name" : "RsBlas_cher"
    },
    {
     "enum_field_value" : 101,
     "name" : "RsBlas_chpr"
    },
    {
     "enum_field_value" : 102,
     "name" : "RsBlas_cher2"
    },
    {
     "enum_field_value" : 103,
     "name" : "RsBlas_chpr2"
    },
    {
     "enum_field_value" : 104,
     "name" : "RsBlas_zhemv"
    },
    {
     "enum_field_value" : 105,
     "name" : "RsBlas_zhbmv"
    },
    {
     "enum_field_value" : 106,
     "name" : "RsBlas_zhpmv"
    },
    {
     "enum_field_value" : 107,
     "name" : "RsBlas_zgeru"
    },
    {
     "enum_field_value" : 108,
     "name" : "RsBlas_zgerc"
    },
    {
     "enum_field_value" : 109,
     "name" : "RsBlas_zher"
    },
    {
     "enum_field_value" : 110,
     "name" : "RsBlas_zhpr"
    },
    {
     "enum_field_value" : 111,
     "name" : "RsBlas_zher2"
    },
    {
     "enum_field_value" : 112,
     "name" : "RsBlas_zhpr2"
    },
    {
     "enum_field_value" : 113,
     "name" : "RsBlas_sgemm"
    },
    {
     "enum_field_value" : 114,
     "name" : "RsBlas_ssymm"
    },
    {
     "enum_field_value" : 115,
     "name" : "RsBlas_ssyrk"
    },
    {
     "enum_field_value" : 116,
     "name" : "RsBlas_ssyr2k"
    },
    {
     "enum_field_value" : 117,
     "name" : "RsBlas_strmm"
    },
    {
     "enum_field_value" : 118,
     "name" : "RsBlas_strsm"
    },
    {
     "enum_field_value" : 119,
     "name" : "RsBlas_dgemm"
    },
    {
     "enum_field_value" : 120,
     "name" : "RsBlas_dsymm"
    },
    {
     "enum_field_value" : 121,
     "name" : "RsBlas_dsyrk"
    },
    {
     "enum_field_value" : 122,
     "name" : "RsBlas_dsyr2k"
    },
    {
     "enum_field_value" : 123,
     "name" : "RsBlas_dtrmm"
    },
    {
     "enum_field_value" : 124,
     "name" : "RsBlas_dtrsm"
    },
    {
     "enum_field_value" : 125,
     "name" : "RsBlas_cgemm"
    },
    {
     "enum_field_value" : 126,
     "name" : "RsBlas_csymm"
    },
    {
     "enum_field_value" : 127,
     "name" : "RsBlas_csyrk"
    },
    {
     "enum_field_value" : 128,
     "name" : "RsBlas_csyr2k"
    },
    {
     "enum_field_value" : 129,
     "name" : "RsBlas_ctrmm"
    },
    {
     "enum_field_value" : 130,
     "name" : "RsBlas_ctrsm"
    },
    {
     "enum_field_value" : 131,
     "name" : "RsBlas_zgemm"
    },
    {
     "enum_field_value" : 132,
     "name" : "RsBlas_zsymm"
    },
    {
     "enum_field_value" : 133,
     "name" : "RsBlas_zsyrk"
    },
    {
     "enum_field_value" : 134,
     "name" : "RsBlas_zsyr2k"
    },
    {
     "enum_field_value" : 135,
     "name" : "RsBlas_ztrmm"
    },
    {
     "enum_field_value" : 136,
     "name" : "RsBlas_ztrsm"
    },
    {
     "enum_field_value" : 137,
     "name" : "RsBlas_chemm"
    },
    {
     "enum_field_value" : 138,
     "name" : "RsBlas_cherk"
    },
    {
     "enum_field_value" : 139,
     "name" : "RsBlas_cher2k"
    },
    {
     "enum_field_value" : 140,
     "name" : "RsBlas_zhemm"
    },
    {
     "enum_field_value" : 141,
     "name" : "RsBlas_zherk"
    },
    {
     "enum_field_value" : 142,
     "name" : "RsBlas_zher2k"
    },
    {
     "enum_field_value" : 1000,
     "name" : "RsBlas_bnnm"
    }
   ],
   "linker_set_key" : "RsBlasFunction",
   "name" : "RsBlasFunction",
   "referenced_type" : "type-2342",
   "self_type" : "type-2342",
   "size" : 4,
   "source_file" : "/frameworks/rs/rsDefines.h",
   "underlying_type" : "type-16",
   "unique_id" : "RsBlasFunction"
  },
  {
   "alignment" : 4,
   "enum_fields" :
   [
    {
     "enum_field_value" : 141,
     "name" : "RsBlasLeft"
    },
    {
     "enum_field_value" : 142,
     "name" : "RsBlasRight"
    }
   ],
   "linker_set_key" : "RsBlasSide",
   "name" : "RsBlasSide",
   "referenced_type" : "type-2336",
   "self_type" : "type-2336",
   "size" : 4,
   "source_file" : "/frameworks/rs/rsDefines.h",
   "underlying_type" : "type-16",
   "unique_id" : "RsBlasSide"
  },
  {
   "alignment" : 4,
   "enum_fields" :
   [
    {
     "enum_field_value" : 111,
     "name" : "RsBlasNoTrans"
    },
    {
     "enum_field_value" : 112,
     "name" : "RsBlasTrans"
    },
    {
     "enum_field_value" : 113,
     "name" : "RsBlasConjTrans"
    }
   ],
   "linker_set_key" : "RsBlasTranspose",
   "name" : "RsBlasTranspose",
   "referenced_type" : "type-2304",
   "self_type" : "type-2304",
   "size" : 4,
   "source_file" : "/frameworks/rs/rsDefines.h",
   "underlying_type" : "type-16",
   "unique_id" : "RsBlasTranspose"
  },
  {
   "alignment" : 4,
   "enum_fields" :
   [
    {
     "enum_field_value" : 121,
     "name" : "RsBlasUpper"
    },
    {
     "enum_field_value" : 122,
     "name" : "RsBlasLower"
    }
   ],
   "linker_set_key" : "RsBlasUplo",
   "name" : "RsBlasUplo",
   "referenced_type" : "type-2316",
   "self_type" : "type-2316",
   "size" : 4,
   "source_file" : "/frameworks/rs/rsDefines.h",
   "underlying_type" : "type-16",
   "unique_id" : "RsBlasUplo"
  },
  {
   "alignment" : 4,
   "enum_fields" :
   [
    {
     "enum_field_value" : 0,
     "name" : "RS_BLEND_DST_ZERO"
    },
    {
     "enum_field_value" : 1,
     "name" : "RS_BLEND_DST_ONE"
    },
    {
     "enum_field_value" : 2,
     "name" : "RS_BLEND_DST_SRC_COLOR"
    },
    {
     "enum_field_value" : 3,
     "name" : "RS_BLEND_DST_ONE_MINUS_SRC_COLOR"
    },
    {
     "enum_field_value" : 4,
     "name" : "RS_BLEND_DST_SRC_ALPHA"
    },
    {
     "enum_field_value" : 5,
     "name" : "RS_BLEND_DST_ONE_MINUS_SRC_ALPHA"
    },
    {
     "enum_field_value" : 6,
     "name" : "RS_BLEND_DST_DST_ALPHA"
    },
    {
     "enum_field_value" : 7,
     "name" : "RS_BLEND_DST_ONE_MINUS_DST_ALPHA"
    },
    {
     "enum_field_value" : 100,
     "name" : "RS_BLEND_DST_INVALID"
    }
   ],
   "linker_set_key" : "RsBlendDstFunc",
   "name" : "RsBlendDstFunc",
   "referenced_type" : "type-138",
   "self_type" : "type-138",
   "size" : 4,
   "source_file" : "/frameworks/rs/rsInternalDefines.h",
   "underlying_type" : "type-16",
   "unique_id" : "RsBlendDstFunc"
  },
  {
   "alignment" : 4,
   "enum_fields" :
   [
    {
     "enum_field_value" : 0,
     "name" : "RS_BLEND_SRC_ZERO"
    },
    {
     "enum_field_value" : 1,
     "name" : "RS_BLEND_SRC_ONE"
    },
    {
     "enum_field_value" : 2,
     "name" : "RS_BLEND_SRC_DST_COLOR"
    },
    {
     "enum_field_value" : 3,
     "name" : "RS_BLEND_SRC_ONE_MINUS_DST_COLOR"
    },
    {
     "enum_field_value" : 4,
     "name" : "RS_BLEND_SRC_SRC_ALPHA"
    },
    {
     "enum_field_value" : 5,
     "name" : "RS_BLEND_SRC_ONE_MINUS_SRC_ALPHA"
    },
    {
     "enum_field_value" : 6,
     "name" : "RS_BLEND_SRC_DST_ALPHA"
    },
    {
     "enum_field_value" : 7,
     "name" : "RS_BLEND_SRC_ONE_MINUS_DST_ALPHA"
    },
    {
     "enum_field_value" : 8,
     "name" : "RS_BLEND_SRC_SRC_ALPHA_SATURATE"
    },
    {
     "enum_field_value" : 100,
     "name" : "RS_BLEND_SRC_INVALID"
    }
   ],
   "linker_set_key" : "RsBlendSrcFunc",
   "name" : "RsBlendSrcFunc",
   "referenced_type" : "type-137",
   "self_type" : "type-137",
   "size" : 4,
   "source_file" : "/frameworks/rs/rsInternalDefines.h",
   "underlying_type" : "type-16",
   "unique_id" : "RsBlendSrcFunc"
  },
  {
   "alignment" : 4,
   "enum_fields" :
   [
    {
     "enum_field_value" : 1,
     "name" : "RS_CONTEXT_SYNCHRONOUS"
    },
    {
     "enum_field_value" : 2,
     "name" : "RS_CONTEXT_LOW_LATENCY"
    },
    {
     "enum_field_value" : 4,
     "name" : "RS_CONTEXT_LOW_POWER"
    },
    {
     "enum_field_value" : 8,
     "name" : "RS_CONTEXT_WAIT_FOR_ATTACH"
    }
   ],
   "linker_set_key" : "RsContextFlags",
   "name" : "RsContextFlags",
   "referenced_type" : "type-2293",
   "self_type" : "type-2293",
   "size" : 4,
   "source_file" : "/frameworks/rs/rsDefines.h",
   "underlying_type" : "type-16",
   "unique_id" : "RsContextFlags"
  },
  {
   "alignment" : 4,
   "enum_fields" :
   [
    {
     "enum_field_value" : 0,
     "name" : "RS_CONTEXT_TYPE_NORMAL"
    },
    {
     "enum_field_value" : 1,
     "name" : "RS_CONTEXT_TYPE_DEBUG"
    },
    {
     "enum_field_value" : 2,
     "name" : "RS_CONTEXT_TYPE_PROFILE"
    }
   ],
   "linker_set_key" : "RsContextType",
   "name" : "RsContextType",
   "referenced_type" : "type-486",
   "self_type" : "type-486",
   "size" : 4,
   "source_file" : "/frameworks/rs/rsDefines.h",
   "underlying_type" : "type-16",
   "unique_id" : "RsContextType"
  },
  {
   "alignment" : 4,
   "enum_fields" :
   [
    {
     "enum_field_value" : 0,
     "name" : "RS_CULL_BACK"
    },
    {
     "enum_field_value" : 1,
     "name" : "RS_CULL_FRONT"
    },
    {
     "enum_field_value" : 2,
     "name" : "RS_CULL_NONE"
    },
    {
     "enum_field_value" : 100,
     "name" : "RS_CULL_INVALID"
    }
   ],
   "linker_set_key" : "RsCullMode",
   "name" : "RsCullMode",
   "referenced_type" : "type-131",
   "self_type" : "type-131",
   "size" : 4,
   "source_file" : "/frameworks/rs/rsInternalDefines.h",
   "underlying_type" : "type-16",
   "unique_id" : "RsCullMode"
  },
  {
   "alignment" : 4,
   "enum_fields" :
   [
    {
     "enum_field_value" : 0,
     "name" : "RS_KIND_USER"
    },
    {
     "enum_field_value" : 7,
     "name" : "RS_KIND_PIXEL_L"
    },
    {
     "enum_field_value" : 8,
     "name" : "RS_KIND_PIXEL_A"
    },
    {
     "enum_field_value" : 9,
     "name" : "RS_KIND_PIXEL_LA"
    },
    {
     "enum_field_value" : 10,
     "name" : "RS_KIND_PIXEL_RGB"
    },
    {
     "enum_field_value" : 11,
     "name" : "RS_KIND_PIXEL_RGBA"
    },
    {
     "enum_field_value" : 12,
     "name" : "RS_KIND_PIXEL_DEPTH"
    },
    {
     "enum_field_value" : 13,
     "name" : "RS_KIND_PIXEL_YUV"
    },
    {
     "enum_field_value" : 100,
     "name" : "RS_KIND_INVALID"
    }
   ],
   "linker_set_key" : "RsDataKind",
   "name" : "RsDataKind",
   "referenced_type" : "type-17",
   "self_type" : "type-17",
   "size" : 4,
   "source_file" : "/frameworks/rs/rsDefines.h",
   "underlying_type" : "type-16",
   "unique_id" : "RsDataKind"
  },
  {
   "alignment" : 4,
   "enum_fields" :
   [
    {
     "enum_field_value" : 0,
     "name" : "RS_TYPE_NONE"
    },
    {
     "enum_field_value" : 1,
     "name" : "RS_TYPE_FLOAT_16"
    },
    {
     "enum_field_value" : 2,
     "name" : "RS_TYPE_FLOAT_32"
    },
    {
     "enum_field_value" : 3,
     "name" : "RS_TYPE_FLOAT_64"
    },
    {
     "enum_field_value" : 4,
     "name" : "RS_TYPE_SIGNED_8"
    },
    {
     "enum_field_value" : 5,
     "name" : "RS_TYPE_SIGNED_16"
    },
    {
     "enum_field_value" : 6,
     "name" : "RS_TYPE_SIGNED_32"
    },
    {
     "enum_field_value" : 7,
     "name" : "RS_TYPE_SIGNED_64"
    },
    {
     "enum_field_value" : 8,
     "name" : "RS_TYPE_UNSIGNED_8"
    },
    {
     "enum_field_value" : 9,
     "name" : "RS_TYPE_UNSIGNED_16"
    },
    {
     "enum_field_value" : 10,
     "name" : "RS_TYPE_UNSIGNED_32"
    },
    {
     "enum_field_value" : 11,
     "name" : "RS_TYPE_UNSIGNED_64"
    },
    {
     "enum_field_value" : 12,
     "name" : "RS_TYPE_BOOLEAN"
    },
    {
     "enum_field_value" : 13,
     "name" : "RS_TYPE_UNSIGNED_5_6_5"
    },
    {
     "enum_field_value" : 14,
     "name" : "RS_TYPE_UNSIGNED_5_5_5_1"
    },
    {
     "enum_field_value" : 15,
     "name" : "RS_TYPE_UNSIGNED_4_4_4_4"
    },
    {
     "enum_field_value" : 16,
     "name" : "RS_TYPE_MATRIX_4X4"
    },
    {
     "enum_field_value" : 17,
     "name" : "RS_TYPE_MATRIX_3X3"
    },
    {
     "enum_field_value" : 18,
     "name" : "RS_TYPE_MATRIX_2X2"
    },
    {
     "enum_field_value" : 1000,
     "name" : "RS_TYPE_ELEMENT"
    },
    {
     "enum_field_value" : 1001,
     "name" : "RS_TYPE_TYPE"
    },
    {
     "enum_field_value" : 1002,
     "name" : "RS_TYPE_ALLOCATION"
    },
    {
     "enum_field_value" : 1003,
     "name" : "RS_TYPE_SAMPLER"
    },
    {
     "enum_field_value" : 1004,
     "name" : "RS_TYPE_SCRIPT"
    },
    {
     "enum_field_value" : 1005,
     "name" : "RS_TYPE_MESH"
    },
    {
     "enum_field_value" : 1006,
     "name" : "RS_TYPE_PROGRAM_FRAGMENT"
    },
    {
     "enum_field_value" : 1007,
     "name" : "RS_TYPE_PROGRAM_VERTEX"
    },
    {
     "enum_field_value" : 1008,
     "name" : "RS_TYPE_PROGRAM_RASTER"
    },
    {
     "enum_field_value" : 1009,
     "name" : "RS_TYPE_PROGRAM_STORE"
    },
    {
     "enum_field_value" : 1010,
     "name" : "RS_TYPE_FONT"
    },
    {
     "enum_field_value" : 10000,
     "name" : "RS_TYPE_INVALID"
    }
   ],
   "linker_set_key" : "RsDataType",
   "name" : "RsDataType",
   "referenced_type" : "type-15",
   "self_type" : "type-15",
   "size" : 4,
   "source_file" : "/frameworks/rs/rsDefines.h",
   "underlying_type" : "type-16",
   "unique_id" : "RsDataType"
  },
  {
   "alignment" : 4,
   "enum_fields" :
   [
    {
     "enum_field_value" : 0,
     "name" : "RS_DEPTH_FUNC_ALWAYS"
    },
    {
     "enum_field_value" : 1,
     "name" : "RS_DEPTH_FUNC_LESS"
    },
    {
     "enum_field_value" : 2,
     "name" : "RS_DEPTH_FUNC_LEQUAL"
    },
    {
     "enum_field_value" : 3,
     "name" : "RS_DEPTH_FUNC_GREATER"
    },
    {
     "enum_field_value" : 4,
     "name" : "RS_DEPTH_FUNC_GEQUAL"
    },
    {
     "enum_field_value" : 5,
     "name" : "RS_DEPTH_FUNC_EQUAL"
    },
    {
     "enum_field_value" : 6,
     "name" : "RS_DEPTH_FUNC_NOTEQUAL"
    }
   ],
   "linker_set_key" : "RsDepthFunc",
   "name" : "RsDepthFunc",
   "referenced_type" : "type-139",
   "self_type" : "type-139",
   "size" : 4,
   "source_file" : "/frameworks/rs/rsInternalDefines.h",
   "underlying_type" : "type-16",
   "unique_id" : "RsDepthFunc"
  },
  {
   "alignment" : 4,
   "enum_fields" :
   [
    {
     "enum_field_value" : 0,
     "name" : "RS_DEVICE_PARAM_FORCE_SOFTWARE_GL"
    },
    {
     "enum_field_value" : 1,
     "name" : "RS_DEVICE_PARAM_COUNT"
    }
   ],
   "linker_set_key" : "RsDeviceParam",
   "name" : "RsDeviceParam",
   "referenced_type" : "type-2193",
   "self_type" : "type-2193",
   "size" : 4,
   "source_file" : "/frameworks/rs/rsDefines.h",
   "underlying_type" : "type-16",
   "unique_id" : "RsDeviceParam"
  },
  {
   "alignment" : 4,
   "enum_fields" :
   [
    {
     "enum_field_value" : 0,
     "name" : "RS_DIMENSION_X"
    },
    {
     "enum_field_value" : 1,
     "name" : "RS_DIMENSION_Y"
    },
    {
     "enum_field_value" : 2,
     "name" : "RS_DIMENSION_Z"
    },
    {
     "enum_field_value" : 3,
     "name" : "RS_DIMENSION_LOD"
    },
    {
     "enum_field_value" : 4,
     "name" : "RS_DIMENSION_FACE"
    },
    {
     "enum_field_value" : 100,
     "name" : "RS_DIMENSION_ARRAY_0"
    },
    {
     "enum_field_value" : 101,
     "name" : "RS_DIMENSION_ARRAY_1"
    },
    {
     "enum_field_value" : 102,
     "name" : "RS_DIMENSION_ARRAY_2"
    },
    {
     "enum_field_value" : 103,
     "name" : "RS_DIMENSION_ARRAY_3"
    },
    {
     "enum_field_value" : 103,
     "name" : "RS_DIMENSION_MAX"
    }
   ],
   "linker_set_key" : "RsDimension",
   "name" : "RsDimension",
   "referenced_type" : "type-2251",
   "self_type" : "type-2251",
   "size" : 4,
   "source_file" : "/frameworks/rs/rsDefines.h",
   "underlying_type" : "type-16",
   "unique_id" : "RsDimension"
  },
  {
   "alignment" : 4,
   "enum_fields" :
   [
    {
     "enum_field_value" : 0,
     "name" : "RS_ERROR_NONE"
    },
    {
     "enum_field_value" : 1,
     "name" : "RS_ERROR_BAD_SHADER"
    },
    {
     "enum_field_value" : 2,
     "name" : "RS_ERROR_BAD_SCRIPT"
    },
    {
     "enum_field_value" : 3,
     "name" : "RS_ERROR_BAD_VALUE"
    },
    {
     "enum_field_value" : 4,
     "name" : "RS_ERROR_OUT_OF_MEMORY"
    },
    {
     "enum_field_value" : 5,
     "name" : "RS_ERROR_DRIVER"
    },
    {
     "enum_field_value" : 2048,
     "name" : "RS_ERROR_FATAL_DEBUG"
    },
    {
     "enum_field_value" : 4096,
     "name" : "RS_ERROR_FATAL_UNKNOWN"
    },
    {
     "enum_field_value" : 4097,
     "name" : "RS_ERROR_FATAL_DRIVER"
    },
    {
     "enum_field_value" : 4098,
     "name" : "RS_ERROR_FATAL_PROGRAM_LINK"
    }
   ],
   "linker_set_key" : "RsError",
   "name" : "RsError",
   "referenced_type" : "type-487",
   "self_type" : "type-487",
   "size" : 4,
   "source_file" : "/frameworks/rs/rsDefines.h",
   "underlying_type" : "type-16",
   "unique_id" : "RsError"
  },
  {
   "alignment" : 4,
   "enum_fields" :
   [
    {
     "enum_field_value" : 0,
     "name" : "RS_FOR_EACH_STRATEGY_SERIAL"
    },
    {
     "enum_field_value" : 1,
     "name" : "RS_FOR_EACH_STRATEGY_DONT_CARE"
    },
    {
     "enum_field_value" : 2,
     "name" : "RS_FOR_EACH_STRATEGY_DST_LINEAR"
    },
    {
     "enum_field_value" : 3,
     "name" : "RS_FOR_EACH_STRATEGY_TILE_SMALL"
    },
    {
     "enum_field_value" : 4,
     "name" : "RS_FOR_EACH_STRATEGY_TILE_MEDIUM"
    },
    {
     "enum_field_value" : 5,
     "name" : "RS_FOR_EACH_STRATEGY_TILE_LARGE"
    }
   ],
   "linker_set_key" : "RsForEachStrategy",
   "name" : "RsForEachStrategy",
   "referenced_type" : "type-159",
   "self_type" : "type-159",
   "size" : 4,
   "source_file" : "/frameworks/rs/rsDefines.h",
   "underlying_type" : "type-16",
   "unique_id" : "RsForEachStrategy"
  },
  {
   "alignment" : 4,
   "enum_fields" :
   [
    {
     "enum_field_value" : 65535,
     "name" : "RS_GLOBAL_TYPE"
    },
    {
     "enum_field_value" : 65536,
     "name" : "RS_GLOBAL_CONSTANT"
    },
    {
     "enum_field_value" : 131072,
     "name" : "RS_GLOBAL_STATIC"
    },
    {
     "enum_field_value" : 262144,
     "name" : "RS_GLOBAL_POINTER"
    }
   ],
   "linker_set_key" : "RsGlobalProperty",
   "name" : "RsGlobalProperty",
   "referenced_type" : "type-2390",
   "self_type" : "type-2390",
   "size" : 4,
   "source_file" : "/frameworks/rs/rsDefines.h",
   "underlying_type" : "type-16",
   "unique_id" : "RsGlobalProperty"
  },
  {
   "alignment" : 4,
   "enum_fields" :
   [
    {
     "enum_field_value" : 0,
     "name" : "RS_MESSAGE_TO_CLIENT_NONE"
    },
    {
     "enum_field_value" : 1,
     "name" : "RS_MESSAGE_TO_CLIENT_EXCEPTION"
    },
    {
     "enum_field_value" : 2,
     "name" : "RS_MESSAGE_TO_CLIENT_RESIZE"
    },
    {
     "enum_field_value" : 3,
     "name" : "RS_MESSAGE_TO_CLIENT_ERROR"
    },
    {
     "enum_field_value" : 4,
     "name" : "RS_MESSAGE_TO_CLIENT_USER"
    },
    {
     "enum_field_value" : 5,
     "name" : "RS_MESSAGE_TO_CLIENT_NEW_BUFFER"
    }
   ],
   "linker_set_key" : "RsMessageToClientType",
   "name" : "RsMessageToClientType",
   "referenced_type" : "type-2533",
   "self_type" : "type-2533",
   "size" : 4,
   "source_file" : "/frameworks/rs/rsInternalDefines.h",
   "underlying_type" : "type-16",
   "unique_id" : "RsMessageToClientType"
  },
  {
   "alignment" : 4,
   "enum_fields" :
   [
    {
     "enum_field_value" : 0,
     "name" : "RS_PATH_PRIMITIVE_QUADRATIC_BEZIER"
    },
    {
     "enum_field_value" : 1,
     "name" : "RS_PATH_PRIMITIVE_CUBIC_BEZIER"
    }
   ],
   "linker_set_key" : "RsPathPrimitive",
   "name" : "RsPathPrimitive",
   "referenced_type" : "type-2611",
   "self_type" : "type-2611",
   "size" : 4,
   "source_file" : "/frameworks/rs/rsInternalDefines.h",
   "underlying_type" : "type-16",
   "unique_id" : "RsPathPrimitive"
  },
  {
   "alignment" : 4,
   "enum_fields" :
   [
    {
     "enum_field_value" : 0,
     "name" : "RS_PRIMITIVE_POINT"
    },
    {
     "enum_field_value" : 1,
     "name" : "RS_PRIMITIVE_LINE"
    },
    {
     "enum_field_value" : 2,
     "name" : "RS_PRIMITIVE_LINE_STRIP"
    },
    {
     "enum_field_value" : 3,
     "name" : "RS_PRIMITIVE_TRIANGLE"
    },
    {
     "enum_field_value" : 4,
     "name" : "RS_PRIMITIVE_TRIANGLE_STRIP"
    },
    {
     "enum_field_value" : 5,
     "name" : "RS_PRIMITIVE_TRIANGLE_FAN"
    },
    {
     "enum_field_value" : 100,
     "name" : "RS_PRIMITIVE_INVALID"
    }
   ],
   "linker_set_key" : "RsPrimitive",
   "name" : "RsPrimitive",
   "referenced_type" : "type-2600",
   "self_type" : "type-2600",
   "size" : 4,
   "source_file" : "/frameworks/rs/rsInternalDefines.h",
   "underlying_type" : "type-16",
   "unique_id" : "RsPrimitive"
  },
  {
   "alignment" : 4,
   "enum_fields" :
   [
    {
     "enum_field_value" : 0,
     "name" : "RS_PROGRAM_PARAM_INPUT"
    },
    {
     "enum_field_value" : 1,
     "name" : "RS_PROGRAM_PARAM_OUTPUT"
    },
    {
     "enum_field_value" : 2,
     "name" : "RS_PROGRAM_PARAM_CONSTANT"
    },
    {
     "enum_field_value" : 3,
     "name" : "RS_PROGRAM_PARAM_TEXTURE_TYPE"
    }
   ],
   "linker_set_key" : "RsProgramParam",
   "name" : "RsProgramParam",
   "referenced_type" : "type-2588",
   "self_type" : "type-2588",
   "size" : 4,
   "source_file" : "/frameworks/rs/rsInternalDefines.h",
   "underlying_type" : "type-16",
   "unique_id" : "RsProgramParam"
  },
  {
   "alignment" : 4,
   "enum_fields" :
   [
    {
     "enum_field_value" : 0,
     "name" : "RS_SAMPLER_MIN_FILTER"
    },
    {
     "enum_field_value" : 1,
     "name" : "RS_SAMPLER_MAG_FILTER"
    },
    {
     "enum_field_value" : 2,
     "name" : "RS_SAMPLER_WRAP_S"
    },
    {
     "enum_field_value" : 3,
     "name" : "RS_SAMPLER_WRAP_T"
    },
    {
     "enum_field_value" : 4,
     "name" : "RS_SAMPLER_WRAP_R"
    },
    {
     "enum_field_value" : 5,
     "name" : "RS_SAMPLER_ANISO"
    }
   ],
   "linker_set_key" : "RsSamplerParam",
   "name" : "RsSamplerParam",
   "referenced_type" : "type-2232",
   "self_type" : "type-2232",
   "size" : 4,
   "source_file" : "/frameworks/rs/rsDefines.h",
   "underlying_type" : "type-16",
   "unique_id" : "RsSamplerParam"
  },
  {
   "alignment" : 4,
   "enum_fields" :
   [
    {
     "enum_field_value" : 0,
     "name" : "RS_SAMPLER_NEAREST"
    },
    {
     "enum_field_value" : 1,
     "name" : "RS_SAMPLER_LINEAR"
    },
    {
     "enum_field_value" : 2,
     "name" : "RS_SAMPLER_LINEAR_MIP_LINEAR"
    },
    {
     "enum_field_value" : 3,
     "name" : "RS_SAMPLER_WRAP"
    },
    {
     "enum_field_value" : 4,
     "name" : "RS_SAMPLER_CLAMP"
    },
    {
     "enum_field_value" : 5,
     "name" : "RS_SAMPLER_LINEAR_MIP_NEAREST"
    },
    {
     "enum_field_value" : 6,
     "name" : "RS_SAMPLER_MIRRORED_REPEAT"
    },
    {
     "enum_field_value" : 100,
     "name" : "RS_SAMPLER_INVALID"
    }
   ],
   "linker_set_key" : "RsSamplerValue",
   "name" : "RsSamplerValue",
   "referenced_type" : "type-107",
   "self_type" : "type-107",
   "size" : 4,
   "source_file" : "/frameworks/rs/rsDefines.h",
   "underlying_type" : "type-16",
   "unique_id" : "RsSamplerValue"
  },
  {
   "alignment" : 4,
   "enum_fields" :
   [
    {
     "enum_field_value" : 0,
     "name" : "RS_SCRIPT_INTRINSIC_ID_UNDEFINED"
    },
    {
     "enum_field_value" : 1,
     "name" : "RS_SCRIPT_INTRINSIC_ID_CONVOLVE_3x3"
    },
    {
     "enum_field_value" : 2,
     "name" : "RS_SCRIPT_INTRINSIC_ID_COLOR_MATRIX"
    },
    {
     "enum_field_value" : 3,
     "name" : "RS_SCRIPT_INTRINSIC_ID_LUT"
    },
    {
     "enum_field_value" : 4,
     "name" : "RS_SCRIPT_INTRINSIC_ID_CONVOLVE_5x5"
    },
    {
     "enum_field_value" : 5,
     "name" : "RS_SCRIPT_INTRINSIC_ID_BLUR"
    },
    {
     "enum_field_value" : 6,
     "name" : "RS_SCRIPT_INTRINSIC_ID_YUV_TO_RGB"
    },
    {
     "enum_field_value" : 7,
     "name" : "RS_SCRIPT_INTRINSIC_ID_BLEND"
    },
    {
     "enum_field_value" : 8,
     "name" : "RS_SCRIPT_INTRINSIC_ID_3DLUT"
    },
    {
     "enum_field_value" : 9,
     "name" : "RS_SCRIPT_INTRINSIC_ID_HISTOGRAM"
    },
    {
     "enum_field_value" : 12,
     "name" : "RS_SCRIPT_INTRINSIC_ID_RESIZE"
    },
    {
     "enum_field_value" : 13,
     "name" : "RS_SCRIPT_INTRINSIC_ID_BLAS"
    },
    {
     "enum_field_value" : 14,
     "name" : "RS_SCRIPT_INTRINSIC_ID_EXTBLAS"
    },
    {
     "enum_field_value" : 268435456,
     "name" : "RS_SCRIPT_INTRINSIC_ID_OEM_START"
    }
   ],
   "linker_set_key" : "RsScriptIntrinsicID",
   "name" : "RsScriptIntrinsicID",
   "referenced_type" : "type-147",
   "self_type" : "type-147",
   "size" : 4,
   "source_file" : "/frameworks/rs/rsInternalDefines.h",
   "underlying_type" : "type-16",
   "unique_id" : "RsScriptIntrinsicID"
  },
  {
   "alignment" : 4,
   "enum_fields" :
   [
    {
     "enum_field_value" : 0,
     "name" : "RS_TEX_ENV_MODE_NONE"
    },
    {
     "enum_field_value" : 1,
     "name" : "RS_TEX_ENV_MODE_REPLACE"
    },
    {
     "enum_field_value" : 2,
     "name" : "RS_TEX_ENV_MODE_MODULATE"
    },
    {
     "enum_field_value" : 3,
     "name" : "RS_TEX_ENV_MODE_DECAL"
    }
   ],
   "linker_set_key" : "RsTexEnvMode",
   "name" : "RsTexEnvMode",
   "referenced_type" : "type-2577",
   "self_type" : "type-2577",
   "size" : 4,
   "source_file" : "/frameworks/rs/rsInternalDefines.h",
   "underlying_type" : "type-16",
   "unique_id" : "RsTexEnvMode"
  },
  {
   "alignment" : 4,
   "enum_fields" :
   [
    {
     "enum_field_value" : 0,
     "name" : "RS_TEXTURE_2D"
    },
    {
     "enum_field_value" : 1,
     "name" : "RS_TEXTURE_CUBE"
    }
   ],
   "linker_set_key" : "RsTextureTarget",
   "name" : "RsTextureTarget",
   "referenced_type" : "type-101",
   "self_type" : "type-101",
   "size" : 4,
   "source_file" : "/frameworks/rs/rsInternalDefines.h",
   "underlying_type" : "type-16",
   "unique_id" : "RsTextureTarget"
  },
  {
   "alignment" : 4,
   "enum_fields" :
   [
    {
     "enum_field_value" : 15,
     "name" : "RS_THREAD_PRIORITY_LOW"
    },
    {
     "enum_field_value" : -8,
     "name" : "RS_THREAD_PRIORITY_NORMAL_GRAPHICS"
    },
    {
     "enum_field_value" : -1,
     "name" : "RS_THREAD_PRIORITY_NORMAL"
    },
    {
     "enum_field_value" : -4,
     "name" : "RS_THREAD_PRIORITY_LOW_LATENCY"
    }
   ],
   "linker_set_key" : "RsThreadPriorities",
   "name" : "RsThreadPriorities",
   "referenced_type" : "type-2709",
   "self_type" : "type-2709",
   "size" : 4,
   "source_file" : "/frameworks/rs/rsInternalDefines.h",
   "underlying_type" : "type-36",
   "unique_id" : "RsThreadPriorities"
  },
  {
   "alignment" : 4,
   "enum_fields" :
   [
    {
     "enum_field_value" : 0,
     "name" : "RS_YUV_NONE"
    },
    {
     "enum_field_value" : 842094169,
     "name" : "RS_YUV_YV12"
    },
    {
     "enum_field_value" : 17,
     "name" : "RS_YUV_NV21"
    },
    {
     "enum_field_value" : 35,
     "name" : "RS_YUV_420_888"
    }
   ],
   "linker_set_key" : "RsYuvFormat",
   "name" : "RsYuvFormat",
   "referenced_type" : "type-2223",
   "self_type" : "type-2223",
   "size" : 4,
   "source_file" : "/frameworks/rs/rsDefines.h",
   "underlying_type" : "type-16",
   "unique_id" : "RsYuvFormat"
  },
  {
   "alignment" : 4,
   "enum_fields" :
   [
    {
     "enum_field_value" : 0,
     "name" : "android::renderscript::Context::RS_TIMER_IDLE"
    },
    {
     "enum_field_value" : 1,
     "name" : "android::renderscript::Context::RS_TIMER_INTERNAL"
    },
    {
     "enum_field_value" : 2,
     "name" : "android::renderscript::Context::RS_TIMER_SCRIPT"
    },
    {
     "enum_field_value" : 3,
     "name" : "android::renderscript::Context::RS_TIMER_CLEAR_SWAP"
    },
    {
     "enum_field_value" : 4,
     "name" : "android::renderscript::Context::_RS_TIMER_TOTAL"
    }
   ],
   "linker_set_key" : "android::renderscript::Context::Timers",
   "name" : "android::renderscript::Context::Timers",
   "referenced_type" : "type-499",
   "self_type" : "type-499",
   "size" : 4,
   "source_file" : "/frameworks/rs/rsContext.h",
   "underlying_type" : "type-16",
   "unique_id" : "_ZTSN7android12renderscript7Context6TimersE"
  },
  {
   "alignment" : 4,
   "enum_fields" :
   [
    {
     "enum_field_value" : 0,
     "name" : "android::renderscript::Font::FRAMEBUFFER"
    },
    {
     "enum_field_value" : 1,
     "name" : "android::renderscript::Font::BITMAP"
    },
    {
     "enum_field_value" : 2,
     "name" : "android::renderscript::Font::MEASURE"
    }
   ],
   "linker_set_key" : "android::renderscript::Font::RenderMode",
   "name" : "android::renderscript::Font::RenderMode",
   "referenced_type" : "type-2109",
   "self_type" : "type-2109",
   "size" : 4,
   "source_file" : "/frameworks/rs/rsFont.h",
   "underlying_type" : "type-16",
   "unique_id" : "_ZTSN7android12renderscript4Font10RenderModeE"
  },
  {
   "alignment" : 4,
   "enum_fields" :
   [
    {
     "enum_field_value" : 1,
     "name" : "android::renderscript::RS_HAL_CORE_SHUTDOWN"
    },
    {
     "enum_field_value" : 2,
     "name" : "android::renderscript::RS_HAL_CORE_SET_PRIORITY"
    },
    {
     "enum_field_value" : 3,
     "name" : "android::renderscript::RS_HAL_CORE_ALLOC_RUNTIME_MEM"
    },
    {
     "enum_field_value" : 4,
     "name" : "android::renderscript::RS_HAL_CORE_FREE_RUNTIME_MEM"
    },
    {
     "enum_field_value" : 5,
     "name" : "android::renderscript::RS_HAL_CORE_FINISH"
    },
    {
     "enum_field_value" : 1000,
     "name" : "android::renderscript::RS_HAL_SCRIPT_INIT"
    },
    {
     "enum_field_value" : 1001,
     "name" : "android::renderscript::RS_HAL_SCRIPT_INIT_INTRINSIC"
    },
    {
     "enum_field_value" : 1002,
     "name" : "android::renderscript::RS_HAL_SCRIPT_INVOKE_FUNCTION"
    },
    {
     "enum_field_value" : 1003,
     "name" : "android::renderscript::RS_HAL_SCRIPT_INVOKE_ROOT"
    },
    {
     "enum_field_value" : 1004,
     "name" : "android::renderscript::RS_HAL_SCRIPT_INVOKE_FOR_EACH"
    },
    {
     "enum_field_value" : 1005,
     "name" : "android::renderscript::RS_HAL_SCRIPT_INVOKE_INIT"
    },
    {
     "enum_field_value" : 1006,
     "name" : "android::renderscript::RS_HAL_SCRIPT_INVOKE_FREE_CHILDREN"
    },
    {
     "enum_field_value" : 1007,
     "name" : "android::renderscript::RS_HAL_SCRIPT_SET_GLOBAL_VAR"
    },
    {
     "enum_field_value" : 1008,
     "name" : "android::renderscript::RS_HAL_SCRIPT_GET_GLOBAL_VAR"
    },
    {
     "enum_field_value" : 1009,
     "name" : "android::renderscript::RS_HAL_SCRIPT_SET_GLOBAL_VAR_WITH_ELEMENT_DIM"
    },
    {
     "enum_field_value" : 1010,
     "name" : "android::renderscript::RS_HAL_SCRIPT_SET_GLOBAL_BIND"
    },
    {
     "enum_field_value" : 1011,
     "name" : "android::renderscript::RS_HAL_SCRIPT_SET_GLOBAL_OBJECT"
    },
    {
     "enum_field_value" : 1012,
     "name" : "android::renderscript::RS_HAL_SCRIPT_DESTROY"
    },
    {
     "enum_field_value" : 1013,
     "name" : "android::renderscript::RS_HAL_SCRIPT_INVOKE_FOR_EACH_MULTI"
    },
    {
     "enum_field_value" : 1014,
     "name" : "android::renderscript::RS_HAL_SCRIPT_UPDATE_CACHED_OBJECT"
    },
    {
     "enum_field_value" : 1015,
     "name" : "android::renderscript::RS_HAL_SCRIPT_INVOKE_REDUCE"
    },
    {
     "enum_field_value" : 2000,
     "name" : "android::renderscript::RS_HAL_ALLOCATION_INIT"
    },
    {
     "enum_field_value" : 2001,
     "name" : "android::renderscript::RS_HAL_ALLOCATION_INIT_ADAPTER"
    },
    {
     "enum_field_value" : 2002,
     "name" : "android::renderscript::RS_HAL_ALLOCATION_DESTROY"
    },
    {
     "enum_field_value" : 2003,
     "name" : "android::renderscript::RS_HAL_ALLOCATION_GET_GRALLOC_BITS"
    },
    {
     "enum_field_value" : 2004,
     "name" : "android::renderscript::RS_HAL_ALLOCATION_RESIZE"
    },
    {
     "enum_field_value" : 2005,
     "name" : "android::renderscript::RS_HAL_ALLOCATION_SYNC_ALL"
    },
    {
     "enum_field_value" : 2006,
     "name" : "android::renderscript::RS_HAL_ALLOCATION_MARK_DIRTY"
    },
    {
     "enum_field_value" : 2007,
     "name" : "android::renderscript::RS_HAL_ALLOCATION_SET_SURFACE"
    },
    {
     "enum_field_value" : 2008,
     "name" : "android::renderscript::RS_HAL_ALLOCATION_IO_SEND"
    },
    {
     "enum_field_value" : 2009,
     "name" : "android::renderscript::RS_HAL_ALLOCATION_IO_RECEIVE"
    },
    {
     "enum_field_value" : 2010,
     "name" : "android::renderscript::RS_HAL_ALLOCATION_DATA_1D"
    },
    {
     "enum_field_value" : 2011,
     "name" : "android::renderscript::RS_HAL_ALLOCATION_DATA_2D"
    },
    {
     "enum_field_value" : 2012,
     "name" : "android::renderscript::RS_HAL_ALLOCATION_DATA_3D"
    },
    {
     "enum_field_value" : 2013,
     "name" : "android::renderscript::RS_HAL_ALLOCATION_READ_1D"
    },
    {
     "enum_field_value" : 2014,
     "name" : "android::renderscript::RS_HAL_ALLOCATION_READ_2D"
    },
    {
     "enum_field_value" : 2015,
     "name" : "android::renderscript::RS_HAL_ALLOCATION_READ_3D"
    },
    {
     "enum_field_value" : 2016,
     "name" : "android::renderscript::RS_HAL_ALLOCATION_LOCK_1D"
    },
    {
     "enum_field_value" : 2017,
     "name" : "android::renderscript::RS_HAL_ALLOCATION_UNLOCK_1D"
    },
    {
     "enum_field_value" : 2018,
     "name" : "android::renderscript::RS_HAL_ALLOCATION_COPY_1D"
    },
    {
     "enum_field_value" : 2019,
     "name" : "android::renderscript::RS_HAL_ALLOCATION_COPY_2D"
    },
    {
     "enum_field_value" : 2020,
     "name" : "android::renderscript::RS_HAL_ALLOCATION_COPY_3D"
    },
    {
     "enum_field_value" : 2021,
     "name" : "android::renderscript::RS_HAL_ALLOCATION_ELEMENT_DATA"
    },
    {
     "enum_field_value" : 2022,
     "name" : "android::renderscript::RS_HAL_ALLOCATION_ELEMENT_READ"
    },
    {
     "enum_field_value" : 2023,
     "name" : "android::renderscript::RS_HAL_ALLOCATION_GENERATE_MIPMAPS"
    },
    {
     "enum_field_value" : 2024,
     "name" : "android::renderscript::RS_HAL_ALLOCATION_UPDATE_CACHED_OBJECT"
    },
    {
     "enum_field_value" : 2025,
     "name" : "android::renderscript::RS_HAL_ALLOCATION_ADAPTER_OFFSET"
    },
    {
     "enum_field_value" : 2026,
     "name" : "android::renderscript::RS_HAL_ALLOCATION_INIT_OEM"
    },
    {
     "enum_field_value" : 2027,
     "name" : "android::renderscript::RS_HAL_ALLOCATION_GET_POINTER"
    },
    {
     "enum_field_value" : 3000,
     "name" : "android::renderscript::RS_HAL_SAMPLER_INIT"
    },
    {
     "enum_field_value" : 3001,
     "name" : "android::renderscript::RS_HAL_SAMPLER_DESTROY"
    },
    {
     "enum_field_value" : 3002,
     "name" : "android::renderscript::RS_HAL_SAMPLER_UPDATE_CACHED_OBJECT"
    },
    {
     "enum_field_value" : 4000,
     "name" : "android::renderscript::RS_HAL_TYPE_INIT"
    },
    {
     "enum_field_value" : 4001,
     "name" : "android::renderscript::RS_HAL_TYPE_DESTROY"
    },
    {
     "enum_field_value" : 4002,
     "name" : "android::renderscript::RS_HAL_TYPE_UPDATE_CACHED_OBJECT"
    },
    {
     "enum_field_value" : 5000,
     "name" : "android::renderscript::RS_HAL_ELEMENT_INIT"
    },
    {
     "enum_field_value" : 5001,
     "name" : "android::renderscript::RS_HAL_ELEMENT_DESTROY"
    },
    {
     "enum_field_value" : 5002,
     "name" : "android::renderscript::RS_HAL_ELEMENT_UPDATE_CACHED_OBJECT"
    },
    {
     "enum_field_value" : 6000,
     "name" : "android::renderscript::RS_HAL_SCRIPT_GROUP_INIT"
    },
    {
     "enum_field_value" : 6001,
     "name" : "android::renderscript::RS_HAL_SCRIPT_GROUP_DESTROY"
    },
    {
     "enum_field_value" : 6002,
     "name" : "android::renderscript::RS_HAL_SCRIPT_GROUP_UPDATE_CACHED_OBJECT"
    },
    {
     "enum_field_value" : 6003,
     "name" : "android::renderscript::RS_HAL_SCRIPT_GROUP_SET_INPUT"
    },
    {
     "enum_field_value" : 6004,
     "name" : "android::renderscript::RS_HAL_SCRIPT_GROUP_SET_OUTPUT"
    },
    {
     "enum_field_value" : 6005,
     "name" : "android::renderscript::RS_HAL_SCRIPT_GROUP_EXECUTE"
    },
    {
     "enum_field_value" : 100001,
     "name" : "android::renderscript::RS_HAL_GRAPHICS_INIT"
    },
    {
     "enum_field_value" : 100002,
     "name" : "android::renderscript::RS_HAL_GRAPHICS_SHUTDOWN"
    },
    {
     "enum_field_value" : 100003,
     "name" : "android::renderscript::RS_HAL_GRAPHICS_SWAP"
    },
    {
     "enum_field_value" : 100004,
     "name" : "android::renderscript::RS_HAL_GRAPHICS_SET_SURFACE"
    },
    {
     "enum_field_value" : 101000,
     "name" : "android::renderscript::RS_HAL_GRAPHICS_RASTER_INIT"
    },
    {
     "enum_field_value" : 101001,
     "name" : "android::renderscript::RS_HAL_GRAPHICS_RASTER_SET_ACTIVE"
    },
    {
     "enum_field_value" : 101002,
     "name" : "android::renderscript::RS_HAL_GRAPHICS_RASTER_DESTROY"
    },
    {
     "enum_field_value" : 102000,
     "name" : "android::renderscript::RS_HAL_GRAPHICS_VERTEX_INIT"
    },
    {
     "enum_field_value" : 102001,
     "name" : "android::renderscript::RS_HAL_GRAPHICS_VERTEX_SET_ACTIVE"
    },
    {
     "enum_field_value" : 102002,
     "name" : "android::renderscript::RS_HAL_GRAPHICS_VERTEX_DESTROY"
    },
    {
     "enum_field_value" : 103000,
     "name" : "android::renderscript::RS_HAL_GRAPHICS_FRAGMENT_INIT"
    },
    {
     "enum_field_value" : 103001,
     "name" : "android::renderscript::RS_HAL_GRAPHICS_FRAGMENT_SET_ACTIVE"
    },
    {
     "enum_field_value" : 103002,
     "name" : "android::renderscript::RS_HAL_GRAPHICS_FRAGMENT_DESTROY"
    },
    {
     "enum_field_value" : 104000,
     "name" : "android::renderscript::RS_HAL_GRAPHICS_MESH_INIT"
    },
    {
     "enum_field_value" : 104001,
     "name" : "android::renderscript::RS_HAL_GRAPHICS_MESH_DRAW"
    },
    {
     "enum_field_value" : 104002,
     "name" : "android::renderscript::RS_HAL_GRAPHICS_MESH_DESTROY"
    },
    {
     "enum_field_value" : 105000,
     "name" : "android::renderscript::RS_HAL_GRAPHICS_FB_INIT"
    },
    {
     "enum_field_value" : 105001,
     "name" : "android::renderscript::RS_HAL_GRAPHICS_FB_SET_ACTIVE"
    },
    {
     "enum_field_value" : 105002,
     "name" : "android::renderscript::RS_HAL_GRAPHICS_FB_DESTROY"
    },
    {
     "enum_field_value" : 106000,
     "name" : "android::renderscript::RS_HAL_GRAPHICS_STORE_INIT"
    },
    {
     "enum_field_value" : 106001,
     "name" : "android::renderscript::RS_HAL_GRAPHICS_STORE_SET_ACTIVE"
    },
    {
     "enum_field_value" : 106002,
     "name" : "android::renderscript::RS_HAL_GRAPHICS_STORE_DESTROY"
    }
   ],
   "linker_set_key" : "android::renderscript::RsHalInitEnums",
   "name" : "android::renderscript::RsHalInitEnums",
   "referenced_type" : "type-2194",
   "self_type" : "type-2194",
   "size" : 4,
   "source_file" : "/frameworks/rs/rs_hal.h",
   "underlying_type" : "type-16",
   "unique_id" : "_ZTSN7android12renderscript14RsHalInitEnumsE"
  },
  {
   "alignment" : 4,
   "enum_fields" :
   [
    {
     "enum_field_value" : 10,
     "name" : "android::renderscript::ScriptGroupBase::SG_V1"
    },
    {
     "enum_field_value" : 20,
     "name" : "android::renderscript::ScriptGroupBase::SG_V2"
    }
   ],
   "linker_set_key" : "android::renderscript::ScriptGroupBase::SG_API_Version",
   "name" : "android::renderscript::ScriptGroupBase::SG_API_Version",
   "referenced_type" : "type-2017",
   "self_type" : "type-2017",
   "size" : 4,
   "source_file" : "/frameworks/rs/rsScriptGroupBase.h",
   "underlying_type" : "type-16",
   "unique_id" : "_ZTSN7android12renderscript15ScriptGroupBase14SG_API_VersionE"
  },
  {
   "alignment" : 4,
   "enum_fields" :
   [
    {
     "enum_field_value" : 0,
     "name" : "ANDROID_LOG_UNKNOWN"
    },
    {
     "enum_field_value" : 1,
     "name" : "ANDROID_LOG_DEFAULT"
    },
    {
     "enum_field_value" : 2,
     "name" : "ANDROID_LOG_VERBOSE"
    },
    {
     "enum_field_value" : 3,
     "name" : "ANDROID_LOG_DEBUG"
    },
    {
     "enum_field_value" : 4,
     "name" : "ANDROID_LOG_INFO"
    },
    {
     "enum_field_value" : 5,
     "name" : "ANDROID_LOG_WARN"
    },
    {
     "enum_field_value" : 6,
     "name" : "ANDROID_LOG_ERROR"
    },
    {
     "enum_field_value" : 7,
     "name" : "ANDROID_LOG_FATAL"
    },
    {
     "enum_field_value" : 8,
     "name" : "ANDROID_LOG_SILENT"
    }
   ],
   "linker_set_key" : "android_LogPriority",
   "name" : "android_LogPriority",
   "referenced_type" : "type-1967",
   "self_type" : "type-1967",
   "size" : 4,
   "source_file" : "/system/core/liblog/include/android/log.h",
   "underlying_type" : "type-16",
   "unique_id" : "android_LogPriority"
  },
  {
   "alignment" : 4,
   "enum_fields" :
   [
    {
     "enum_field_value" : 0,
     "name" : "HAL_COLOR_MODE_NATIVE"
    },
    {
     "enum_field_value" : 1,
     "name" : "HAL_COLOR_MODE_STANDARD_BT601_625"
    },
    {
     "enum_field_value" : 2,
     "name" : "HAL_COLOR_MODE_STANDARD_BT601_625_UNADJUSTED"
    },
    {
     "enum_field_value" : 3,
     "name" : "HAL_COLOR_MODE_STANDARD_BT601_525"
    },
    {
     "enum_field_value" : 4,
     "name" : "HAL_COLOR_MODE_STANDARD_BT601_525_UNADJUSTED"
    },
    {
     "enum_field_value" : 5,
     "name" : "HAL_COLOR_MODE_STANDARD_BT709"
    },
    {
     "enum_field_value" : 6,
     "name" : "HAL_COLOR_MODE_DCI_P3"
    },
    {
     "enum_field_value" : 7,
     "name" : "HAL_COLOR_MODE_SRGB"
    },
    {
     "enum_field_value" : 8,
     "name" : "HAL_COLOR_MODE_ADOBE_RGB"
    },
    {
     "enum_field_value" : 9,
     "name" : "HAL_COLOR_MODE_DISPLAY_P3"
    }
   ],
   "linker_set_key" : "android_color_mode_t",
   "name" : "android_color_mode_t",
   "referenced_type" : "type-2177",
   "self_type" : "type-2177",
   "size" : 4,
   "source_file" : "/system/core/libsystem/include/system/graphics-base-v1.0.h",
   "underlying_type" : "type-16",
   "unique_id" : "android_color_mode_t"
  },
  {
   "alignment" : 4,
   "enum_fields" :
   [
    {
     "enum_field_value" : 10,
     "name" : "HAL_COLOR_MODE_BT2020"
    },
    {
     "enum_field_value" : 11,
     "name" : "HAL_COLOR_MODE_BT2100_PQ"
    },
    {
     "enum_field_value" : 12,
     "name" : "HAL_COLOR_MODE_BT2100_HLG"
    }
   ],
   "linker_set_key" : "android_color_mode_v1_1_t",
   "name" : "android_color_mode_v1_1_t",
   "referenced_type" : "type-2182",
   "self_type" : "type-2182",
   "size" : 4,
   "source_file" : "/system/core/libsystem/include/system/graphics-base-v1.1.h",
   "underlying_type" : "type-16",
   "unique_id" : "android_color_mode_v1_1_t"
  },
  {
   "alignment" : 4,
   "enum_fields" :
   [
    {
     "enum_field_value" : 0,
     "name" : "HAL_COLOR_TRANSFORM_IDENTITY"
    },
    {
     "enum_field_value" : 1,
     "name" : "HAL_COLOR_TRANSFORM_ARBITRARY_MATRIX"
    },
    {
     "enum_field_value" : 2,
     "name" : "HAL_COLOR_TRANSFORM_VALUE_INVERSE"
    },
    {
     "enum_field_value" : 3,
     "name" : "HAL_COLOR_TRANSFORM_GRAYSCALE"
    },
    {
     "enum_field_value" : 4,
     "name" : "HAL_COLOR_TRANSFORM_CORRECT_PROTANOPIA"
    },
    {
     "enum_field_value" : 5,
     "name" : "HAL_COLOR_TRANSFORM_CORRECT_DEUTERANOPIA"
    },
    {
     "enum_field_value" : 6,
     "name" : "HAL_COLOR_TRANSFORM_CORRECT_TRITANOPIA"
    }
   ],
   "linker_set_key" : "android_color_transform_t",
   "name" : "android_color_transform_t",
   "referenced_type" : "type-2178",
   "self_type" : "type-2178",
   "size" : 4,
   "source_file" : "/system/core/libsystem/include/system/graphics-base-v1.0.h",
   "underlying_type" : "type-16",
   "unique_id" : "android_color_transform_t"
  },
  {
   "alignment" : 4,
   "enum_fields" :
   [
    {
     "enum_field_value" : 0,
     "name" : "HAL_DATASPACE_UNKNOWN"
    },
    {
     "enum_field_value" : 1,
     "name" : "HAL_DATASPACE_ARBITRARY"
    },
    {
     "enum_field_value" : 16,
     "name" : "HAL_DATASPACE_STANDARD_SHIFT"
    },
    {
     "enum_field_value" : 4128768,
     "name" : "HAL_DATASPACE_STANDARD_MASK"
    },
    {
     "enum_field_value" : 0,
     "name" : "HAL_DATASPACE_STANDARD_UNSPECIFIED"
    },
    {
     "enum_field_value" : 65536,
     "name" : "HAL_DATASPACE_STANDARD_BT709"
    },
    {
     "enum_field_value" : 131072,
     "name" : "HAL_DATASPACE_STANDARD_BT601_625"
    },
    {
     "enum_field_value" : 196608,
     "name" : "HAL_DATASPACE_STANDARD_BT601_625_UNADJUSTED"
    },
    {
     "enum_field_value" : 262144,
     "name" : "HAL_DATASPACE_STANDARD_BT601_525"
    },
    {
     "enum_field_value" : 327680,
     "name" : "HAL_DATASPACE_STANDARD_BT601_525_UNADJUSTED"
    },
    {
     "enum_field_value" : 393216,
     "name" : "HAL_DATASPACE_STANDARD_BT2020"
    },
    {
     "enum_field_value" : 458752,
     "name" : "HAL_DATASPACE_STANDARD_BT2020_CONSTANT_LUMINANCE"
    },
    {
     "enum_field_value" : 524288,
     "name" : "HAL_DATASPACE_STANDARD_BT470M"
    },
    {
     "enum_field_value" : 589824,
     "name" : "HAL_DATASPACE_STANDARD_FILM"
    },
    {
     "enum_field_value" : 655360,
     "name" : "HAL_DATASPACE_STANDARD_DCI_P3"
    },
    {
     "enum_field_value" : 720896,
     "name" : "HAL_DATASPACE_STANDARD_ADOBE_RGB"
    },
    {
     "enum_field_value" : 22,
     "name" : "HAL_DATASPACE_TRANSFER_SHIFT"
    },
    {
     "enum_field_value" : 130023424,
     "name" : "HAL_DATASPACE_TRANSFER_MASK"
    },
    {
     "enum_field_value" : 0,
     "name" : "HAL_DATASPACE_TRANSFER_UNSPECIFIED"
    },
    {
     "enum_field_value" : 4194304,
     "name" : "HAL_DATASPACE_TRANSFER_LINEAR"
    },
    {
     "enum_field_value" : 8388608,
     "name" : "HAL_DATASPACE_TRANSFER_SRGB"
    },
    {
     "enum_field_value" : 12582912,
     "name" : "HAL_DATASPACE_TRANSFER_SMPTE_170M"
    },
    {
     "enum_field_value" : 16777216,
     "name" : "HAL_DATASPACE_TRANSFER_GAMMA2_2"
    },
    {
     "enum_field_value" : 20971520,
     "name" : "HAL_DATASPACE_TRANSFER_GAMMA2_6"
    },
    {
     "enum_field_value" : 25165824,
     "name" : "HAL_DATASPACE_TRANSFER_GAMMA2_8"
    },
    {
     "enum_field_value" : 29360128,
     "name" : "HAL_DATASPACE_TRANSFER_ST2084"
    },
    {
     "enum_field_value" : 33554432,
     "name" : "HAL_DATASPACE_TRANSFER_HLG"
    },
    {
     "enum_field_value" : 27,
     "name" : "HAL_DATASPACE_RANGE_SHIFT"
    },
    {
     "enum_field_value" : 939524096,
     "name" : "HAL_DATASPACE_RANGE_MASK"
    },
    {
     "enum_field_value" : 0,
     "name" : "HAL_DATASPACE_RANGE_UNSPECIFIED"
    },
    {
     "enum_field_value" : 134217728,
     "name" : "HAL_DATASPACE_RANGE_FULL"
    },
    {
     "enum_field_value" : 268435456,
     "name" : "HAL_DATASPACE_RANGE_LIMITED"
    },
    {
     "enum_field_value" : 402653184,
     "name" : "HAL_DATASPACE_RANGE_EXTENDED"
    },
    {
     "enum_field_value" : 512,
     "name" : "HAL_DATASPACE_SRGB_LINEAR"
    },
    {
     "enum_field_value" : 138477568,
     "name" : "HAL_DATASPACE_V0_SRGB_LINEAR"
    },
    {
     "enum_field_value" : 406913024,
     "name" : "HAL_DATASPACE_V0_SCRGB_LINEAR"
    },
    {
     "enum_field_value" : 513,
     "name" : "HAL_DATASPACE_SRGB"
    },
    {
     "enum_field_value" : 142671872,
     "name" : "HAL_DATASPACE_V0_SRGB"
    },
    {
     "enum_field_value" : 411107328,
     "name" : "HAL_DATASPACE_V0_SCRGB"
    },
    {
     "enum_field_value" : 257,
     "name" : "HAL_DATASPACE_JFIF"
    },
    {
     "enum_field_value" : 146931712,
     "name" : "HAL_DATASPACE_V0_JFIF"
    },
    {
     "enum_field_value" : 258,
     "name" : "HAL_DATASPACE_BT601_625"
    },
    {
     "enum_field_value" : 281149440,
     "name" : "HAL_DATASPACE_V0_BT601_625"
    },
    {
     "enum_field_value" : 259,
     "name" : "HAL_DATASPACE_BT601_525"
    },
    {
     "enum_field_value" : 281280512,
     "name" : "HAL_DATASPACE_V0_BT601_525"
    },
    {
     "enum_field_value" : 260,
     "name" : "HAL_DATASPACE_BT709"
    },
    {
     "enum_field_value" : 281083904,
     "name" : "HAL_DATASPACE_V0_BT709"
    },
    {
     "enum_field_value" : 139067392,
     "name" : "HAL_DATASPACE_DCI_P3_LINEAR"
    },
    {
     "enum_field_value" : 155844608,
     "name" : "HAL_DATASPACE_DCI_P3"
    },
    {
     "enum_field_value" : 139067392,
     "name" : "HAL_DATASPACE_DISPLAY_P3_LINEAR"
    },
    {
     "enum_field_value" : 143261696,
     "name" : "HAL_DATASPACE_DISPLAY_P3"
    },
    {
     "enum_field_value" : 151715840,
     "name" : "HAL_DATASPACE_ADOBE_RGB"
    },
    {
     "enum_field_value" : 138805248,
     "name" : "HAL_DATASPACE_BT2020_LINEAR"
    },
    {
     "enum_field_value" : 147193856,
     "name" : "HAL_DATASPACE_BT2020"
    },
    {
     "enum_field_value" : 163971072,
     "name" : "HAL_DATASPACE_BT2020_PQ"
    },
    {
     "enum_field_value" : 4096,
     "name" : "HAL_DATASPACE_DEPTH"
    },
    {
     "enum_field_value" : 4097,
     "name" : "HAL_DATASPACE_SENSOR"
    }
   ],
   "linker_set_key" : "android_dataspace_t",
   "name" : "android_dataspace_t",
   "referenced_type" : "type-2176",
   "self_type" : "type-2176",
   "size" : 4,
   "source_file" : "/system/core/libsystem/include/system/graphics-base-v1.0.h",
   "underlying_type" : "type-16",
   "unique_id" : "android_dataspace_t"
  },
  {
   "alignment" : 4,
   "enum_fields" :
   [
    {
     "enum_field_value" : 281411584,
     "name" : "HAL_DATASPACE_BT2020_ITU"
    },
    {
     "enum_field_value" : 298188800,
     "name" : "HAL_DATASPACE_BT2020_ITU_PQ"
    },
    {
     "enum_field_value" : 302383104,
     "name" : "HAL_DATASPACE_BT2020_ITU_HLG"
    },
    {
     "enum_field_value" : 168165376,
     "name" : "HAL_DATASPACE_BT2020_HLG"
    }
   ],
   "linker_set_key" : "android_dataspace_v1_1_t",
   "name" : "android_dataspace_v1_1_t",
   "referenced_type" : "type-2181",
   "self_type" : "type-2181",
   "size" : 4,
   "source_file" : "/system/core/libsystem/include/system/graphics-base-v1.1.h",
   "underlying_type" : "type-16",
   "unique_id" : "android_dataspace_v1_1_t"
  },
  {
   "alignment" : 4,
   "enum_fields" :
   [
    {
     "enum_field_value" : 142999552,
     "name" : "HAL_DATASPACE_DISPLAY_BT2020"
    },
    {
     "enum_field_value" : 4098,
     "name" : "HAL_DATASPACE_DYNAMIC_DEPTH"
    },
    {
     "enum_field_value" : 4099,
     "name" : "HAL_DATASPACE_JPEG_APP_SEGMENTS"
    },
    {
     "enum_field_value" : 4100,
     "name" : "HAL_DATASPACE_HEIF"
    }
   ],
   "linker_set_key" : "android_dataspace_v1_2_t",
   "name" : "android_dataspace_v1_2_t",
   "referenced_type" : "type-2185",
   "self_type" : "type-2185",
   "size" : 4,
   "source_file" : "/system/core/libsystem/include/system/graphics-base-v1.2.h",
   "underlying_type" : "type-16",
   "unique_id" : "android_dataspace_v1_2_t"
  },
  {
   "alignment" : 4,
   "enum_fields" :
   [
    {
     "enum_field_value" : 1,
     "name" : "FLEX_COMPONENT_Y"
    },
    {
     "enum_field_value" : 2,
     "name" : "FLEX_COMPONENT_Cb"
    },
    {
     "enum_field_value" : 4,
     "name" : "FLEX_COMPONENT_Cr"
    },
    {
     "enum_field_value" : 1024,
     "name" : "FLEX_COMPONENT_R"
    },
    {
     "enum_field_value" : 2048,
     "name" : "FLEX_COMPONENT_G"
    },
    {
     "enum_field_value" : 4096,
     "name" : "FLEX_COMPONENT_B"
    },
    {
     "enum_field_value" : 1073741824,
     "name" : "FLEX_COMPONENT_A"
    }
   ],
   "linker_set_key" : "android_flex_component",
   "name" : "android_flex_component",
   "referenced_type" : "type-3379",
   "self_type" : "type-3379",
   "size" : 4,
   "source_file" : "/system/core/libsystem/include/system/graphics.h",
   "underlying_type" : "type-16",
   "unique_id" : "android_flex_component"
  },
  {
   "alignment" : 4,
   "enum_fields" :
   [
    {
     "enum_field_value" : 0,
     "name" : "FLEX_FORMAT_INVALID"
    },
    {
     "enum_field_value" : 1,
     "name" : "FLEX_FORMAT_Y"
    },
    {
     "enum_field_value" : 7,
     "name" : "FLEX_FORMAT_YCbCr"
    },
    {
     "enum_field_value" : 1073741831,
     "name" : "FLEX_FORMAT_YCbCrA"
    },
    {
     "enum_field_value" : 7168,
     "name" : "FLEX_FORMAT_RGB"
    },
    {
     "enum_field_value" : 1073748992,
     "name" : "FLEX_FORMAT_RGBA"
    }
   ],
   "linker_set_key" : "android_flex_format",
   "name" : "android_flex_format",
   "referenced_type" : "type-3384",
   "self_type" : "type-3384",
   "size" : 4,
   "source_file" : "/system/core/libsystem/include/system/graphics.h",
   "underlying_type" : "type-16",
   "unique_id" : "android_flex_format"
  },
  {
   "alignment" : 4,
   "enum_fields" :
   [
    {
     "enum_field_value" : 1,
     "name" : "HAL_HDR_DOLBY_VISION"
    },
    {
     "enum_field_value" : 2,
     "name" : "HAL_HDR_HDR10"
    },
    {
     "enum_field_value" : 3,
     "name" : "HAL_HDR_HLG"
    }
   ],
   "linker_set_key" : "android_hdr_t",
   "name" : "android_hdr_t",
   "referenced_type" : "type-2179",
   "self_type" : "type-2179",
   "size" : 4,
   "source_file" : "/system/core/libsystem/include/system/graphics-base-v1.0.h",
   "underlying_type" : "type-16",
   "unique_id" : "android_hdr_t"
  },
  {
   "alignment" : 4,
   "enum_fields" :
   [
    {
     "enum_field_value" : 4,
     "name" : "HAL_HDR_HDR10_PLUS"
    }
   ],
   "linker_set_key" : "android_hdr_v1_2_t",
   "name" : "android_hdr_v1_2_t",
   "referenced_type" : "type-2184",
   "self_type" : "type-2184",
   "size" : 4,
   "source_file" : "/system/core/libsystem/include/system/graphics-base-v1.2.h",
   "underlying_type" : "type-16",
   "unique_id" : "android_hdr_v1_2_t"
  },
  {
   "alignment" : 4,
   "enum_fields" :
   [
    {
     "enum_field_value" : 39,
     "name" : "HAL_PIXEL_FORMAT_YCBCR_422_888"
    },
    {
     "enum_field_value" : 40,
     "name" : "HAL_PIXEL_FORMAT_YCBCR_444_888"
    },
    {
     "enum_field_value" : 41,
     "name" : "HAL_PIXEL_FORMAT_FLEX_RGB_888"
    },
    {
     "enum_field_value" : 42,
     "name" : "HAL_PIXEL_FORMAT_FLEX_RGBA_8888"
    }
   ],
   "linker_set_key" : "android_pixel_format_sw_t",
   "name" : "android_pixel_format_sw_t",
   "referenced_type" : "type-3371",
   "self_type" : "type-3371",
   "size" : 4,
   "source_file" : "/system/core/libsystem/include/system/graphics-sw.h",
   "underlying_type" : "type-16",
   "unique_id" : "_ZTS25android_pixel_format_sw_t"
  },
  {
   "alignment" : 4,
   "enum_fields" :
   [
    {
     "enum_field_value" : 1,
     "name" : "HAL_PIXEL_FORMAT_RGBA_8888"
    },
    {
     "enum_field_value" : 2,
     "name" : "HAL_PIXEL_FORMAT_RGBX_8888"
    },
    {
     "enum_field_value" : 3,
     "name" : "HAL_PIXEL_FORMAT_RGB_888"
    },
    {
     "enum_field_value" : 4,
     "name" : "HAL_PIXEL_FORMAT_RGB_565"
    },
    {
     "enum_field_value" : 5,
     "name" : "HAL_PIXEL_FORMAT_BGRA_8888"
    },
    {
     "enum_field_value" : 16,
     "name" : "HAL_PIXEL_FORMAT_YCBCR_422_SP"
    },
    {
     "enum_field_value" : 17,
     "name" : "HAL_PIXEL_FORMAT_YCRCB_420_SP"
    },
    {
     "enum_field_value" : 20,
     "name" : "HAL_PIXEL_FORMAT_YCBCR_422_I"
    },
    {
     "enum_field_value" : 22,
     "name" : "HAL_PIXEL_FORMAT_RGBA_FP16"
    },
    {
     "enum_field_value" : 32,
     "name" : "HAL_PIXEL_FORMAT_RAW16"
    },
    {
     "enum_field_value" : 33,
     "name" : "HAL_PIXEL_FORMAT_BLOB"
    },
    {
     "enum_field_value" : 34,
     "name" : "HAL_PIXEL_FORMAT_IMPLEMENTATION_DEFINED"
    },
    {
     "enum_field_value" : 35,
     "name" : "HAL_PIXEL_FORMAT_YCBCR_420_888"
    },
    {
     "enum_field_value" : 36,
     "name" : "HAL_PIXEL_FORMAT_RAW_OPAQUE"
    },
    {
     "enum_field_value" : 37,
     "name" : "HAL_PIXEL_FORMAT_RAW10"
    },
    {
     "enum_field_value" : 38,
     "name" : "HAL_PIXEL_FORMAT_RAW12"
    },
    {
     "enum_field_value" : 43,
     "name" : "HAL_PIXEL_FORMAT_RGBA_1010102"
    },
    {
     "enum_field_value" : 538982489,
     "name" : "HAL_PIXEL_FORMAT_Y8"
    },
    {
     "enum_field_value" : 540422489,
     "name" : "HAL_PIXEL_FORMAT_Y16"
    },
    {
     "enum_field_value" : 842094169,
     "name" : "HAL_PIXEL_FORMAT_YV12"
    }
   ],
   "linker_set_key" : "android_pixel_format_t",
   "name" : "android_pixel_format_t",
   "referenced_type" : "type-2174",
   "self_type" : "type-2174",
   "size" : 4,
   "source_file" : "/system/core/libsystem/include/system/graphics-base-v1.0.h",
   "underlying_type" : "type-16",
   "unique_id" : "android_pixel_format_t"
  },
  {
   "alignment" : 4,
   "enum_fields" :
   [
    {
     "enum_field_value" : 48,
     "name" : "HAL_PIXEL_FORMAT_DEPTH_16"
    },
    {
     "enum_field_value" : 49,
     "name" : "HAL_PIXEL_FORMAT_DEPTH_24"
    },
    {
     "enum_field_value" : 50,
     "name" : "HAL_PIXEL_FORMAT_DEPTH_24_STENCIL_8"
    },
    {
     "enum_field_value" : 51,
     "name" : "HAL_PIXEL_FORMAT_DEPTH_32F"
    },
    {
     "enum_field_value" : 52,
     "name" : "HAL_PIXEL_FORMAT_DEPTH_32F_STENCIL_8"
    },
    {
     "enum_field_value" : 53,
     "name" : "HAL_PIXEL_FORMAT_STENCIL_8"
    },
    {
     "enum_field_value" : 54,
     "name" : "HAL_PIXEL_FORMAT_YCBCR_P010"
    }
   ],
   "linker_set_key" : "android_pixel_format_v1_1_t",
   "name" : "android_pixel_format_v1_1_t",
   "referenced_type" : "type-2180",
   "self_type" : "type-2180",
   "size" : 4,
   "source_file" : "/system/core/libsystem/include/system/graphics-base-v1.1.h",
   "underlying_type" : "type-16",
   "unique_id" : "android_pixel_format_v1_1_t"
  },
  {
   "alignment" : 4,
   "enum_fields" :
   [
    {
     "enum_field_value" : 55,
     "name" : "HAL_PIXEL_FORMAT_HSV_888"
    }
   ],
   "linker_set_key" : "android_pixel_format_v1_2_t",
   "name" : "android_pixel_format_v1_2_t",
   "referenced_type" : "type-2186",
   "self_type" : "type-2186",
   "size" : 4,
   "source_file" : "/system/core/libsystem/include/system/graphics-base-v1.2.h",
   "underlying_type" : "type-16",
   "unique_id" : "android_pixel_format_v1_2_t"
  },
  {
   "alignment" : 4,
   "enum_fields" :
   [
    {
     "enum_field_value" : 0,
     "name" : "HAL_RENDER_INTENT_COLORIMETRIC"
    },
    {
     "enum_field_value" : 1,
     "name" : "HAL_RENDER_INTENT_ENHANCE"
    },
    {
     "enum_field_value" : 2,
     "name" : "HAL_RENDER_INTENT_TONE_MAP_COLORIMETRIC"
    },
    {
     "enum_field_value" : 3,
     "name" : "HAL_RENDER_INTENT_TONE_MAP_ENHANCE"
    }
   ],
   "linker_set_key" : "android_render_intent_v1_1_t",
   "name" : "android_render_intent_v1_1_t",
   "referenced_type" : "type-2183",
   "self_type" : "type-2183",
   "size" : 4,
   "source_file" : "/system/core/libsystem/include/system/graphics-base-v1.1.h",
   "underlying_type" : "type-16",
   "unique_id" : "android_render_intent_v1_1_t"
  },
  {
   "alignment" : 4,
   "enum_fields" :
   [
    {
     "enum_field_value" : 1,
     "name" : "HAL_TRANSFORM_FLIP_H"
    },
    {
     "enum_field_value" : 2,
     "name" : "HAL_TRANSFORM_FLIP_V"
    },
    {
     "enum_field_value" : 4,
     "name" : "HAL_TRANSFORM_ROT_90"
    },
    {
     "enum_field_value" : 3,
     "name" : "HAL_TRANSFORM_ROT_180"
    },
    {
     "enum_field_value" : 7,
     "name" : "HAL_TRANSFORM_ROT_270"
    }
   ],
   "linker_set_key" : "android_transform_t",
   "name" : "android_transform_t",
   "referenced_type" : "type-2175",
   "self_type" : "type-2175",
   "size" : 4,
   "source_file" : "/system/core/libsystem/include/system/graphics-base-v1.0.h",
   "underlying_type" : "type-16",
   "unique_id" : "android_transform_t"
  },
  {
   "alignment" : 4,
   "enum_fields" :
   [
    {
     "enum_field_value" : 0,
     "name" : "KHRONOS_FALSE"
    },
    {
     "enum_field_value" : 1,
     "name" : "KHRONOS_TRUE"
    },
    {
     "enum_field_value" : 2147483647,
     "name" : "KHRONOS_BOOLEAN_ENUM_FORCE_SIZE"
    }
   ],
   "linker_set_key" : "khronos_boolean_enum_t",
   "name" : "khronos_boolean_enum_t",
   "referenced_type" : "type-2130",
   "self_type" : "type-2130",
   "size" : 4,
   "source_file" : "/frameworks/native/opengl/include/KHR/khrplatform.h",
   "underlying_type" : "type-16",
   "unique_id" : "khronos_boolean_enum_t"
  },
  {
   "alignment" : 4,
   "enum_fields" :
   [
    {
     "enum_field_value" : 0,
     "name" : "LOG_ID_MIN"
    },
    {
     "enum_field_value" : 0,
     "name" : "LOG_ID_MAIN"
    },
    {
     "enum_field_value" : 1,
     "name" : "LOG_ID_RADIO"
    },
    {
     "enum_field_value" : 2,
     "name" : "LOG_ID_EVENTS"
    },
    {
     "enum_field_value" : 3,
     "name" : "LOG_ID_SYSTEM"
    },
    {
     "enum_field_value" : 4,
     "name" : "LOG_ID_CRASH"
    },
    {
     "enum_field_value" : 5,
     "name" : "LOG_ID_STATS"
    },
    {
     "enum_field_value" : 6,
     "name" : "LOG_ID_SECURITY"
    },
    {
     "enum_field_value" : 7,
     "name" : "LOG_ID_KERNEL"
    },
    {
     "enum_field_value" : 8,
     "name" : "LOG_ID_MAX"
    }
   ],
   "linker_set_key" : "log_id",
   "name" : "log_id",
   "referenced_type" : "type-1968",
   "self_type" : "type-1968",
   "size" : 4,
   "source_file" : "/system/core/liblog/include/android/log.h",
   "underlying_type" : "type-16",
   "unique_id" : "log_id"
  },
  {
   "alignment" : 4,
   "linker_set_key" : "rs_allocation_cubemap_face",
   "name" : "rs_allocation_cubemap_face",
   "referenced_type" : "type-760",
   "self_type" : "type-760",
   "size" : 4,
   "source_file" : "/frameworks/rs/driver/rsdRuntimeStubs.cpp",
   "underlying_type" : "type-16",
   "unique_id" : "_ZTS26rs_allocation_cubemap_face"
  },
  {
   "alignment" : 4,
   "linker_set_key" : "rs_allocation_mipmap_control",
   "name" : "rs_allocation_mipmap_control",
   "referenced_type" : "type-763",
   "self_type" : "type-763",
   "size" : 4,
   "source_file" : "/frameworks/rs/driver/rsdRuntimeStubs.cpp",
   "underlying_type" : "type-16",
   "unique_id" : "_ZTS28rs_allocation_mipmap_control"
  },
  {
   "alignment" : 4,
   "linker_set_key" : "rs_yuv_format",
   "name" : "rs_yuv_format",
   "referenced_type" : "type-762",
   "self_type" : "type-762",
   "size" : 4,
   "source_file" : "/frameworks/rs/driver/rsdRuntimeStubs.cpp",
   "underlying_type" : "type-16",
   "unique_id" : "_ZTS13rs_yuv_format"
  },
  {
   "alignment" : 4,
   "linker_set_key" : "std::align_val_t",
   "name" : "std::align_val_t",
   "referenced_type" : "type-1232",
   "self_type" : "type-1232",
   "size" : 4,
   "source_file" : "/external/libcxx/include/new",
   "underlying_type" : "type-16",
   "unique_id" : "_ZTSSt11align_val_t"
  },
  {
   "alignment" : 1,
   "linker_set_key" : "std::byte",
   "name" : "std::byte",
   "referenced_type" : "type-2329",
   "self_type" : "type-2329",
   "size" : 1,
   "source_file" : "/external/libcxx/include/cstddef",
   "underlying_type" : "type-143",
   "unique_id" : "_ZTSSt4byte"
  },
  {
   "alignment" : 4,
   "enum_fields" :
   [
    {
     "enum_field_value" : -1,
     "name" : "std::__1::denorm_indeterminate"
    },
    {
     "enum_field_value" : 0,
     "name" : "std::__1::denorm_absent"
    },
    {
     "enum_field_value" : 1,
     "name" : "std::__1::denorm_present"
    }
   ],
   "linker_set_key" : "std::float_denorm_style",
   "name" : "std::float_denorm_style",
   "referenced_type" : "type-664",
   "self_type" : "type-664",
   "size" : 4,
   "source_file" : "/external/libcxx/include/limits",
   "underlying_type" : "type-36",
   "unique_id" : "_ZTSNSt3__118float_denorm_styleE"
  },
  {
   "alignment" : 4,
   "enum_fields" :
   [
    {
     "enum_field_value" : -1,
     "name" : "std::__1::round_indeterminate"
    },
    {
     "enum_field_value" : 0,
     "name" : "std::__1::round_toward_zero"
    },
    {
     "enum_field_value" : 1,
     "name" : "std::__1::round_to_nearest"
    },
    {
     "enum_field_value" : 2,
     "name" : "std::__1::round_toward_infinity"
    },
    {
     "enum_field_value" : 3,
     "name" : "std::__1::round_toward_neg_infinity"
    }
   ],
   "linker_set_key" : "std::float_round_style",
   "name" : "std::float_round_style",
   "referenced_type" : "type-661",
   "self_type" : "type-661",
   "size" : 4,
   "source_file" : "/external/libcxx/include/limits",
   "underlying_type" : "type-36",
   "unique_id" : "_ZTSNSt3__117float_round_styleE"
  },
  {
   "alignment" : 4,
   "enum_fields" :
   [
    {
     "enum_field_value" : 0,
     "name" : "std::__1::memory_order_relaxed"
    },
    {
     "enum_field_value" : 1,
     "name" : "std::__1::memory_order_consume"
    },
    {
     "enum_field_value" : 2,
     "name" : "std::__1::memory_order_acquire"
    },
    {
     "enum_field_value" : 3,
     "name" : "std::__1::memory_order_release"
    },
    {
     "enum_field_value" : 4,
     "name" : "std::__1::memory_order_acq_rel"
    },
    {
     "enum_field_value" : 5,
     "name" : "std::__1::memory_order_seq_cst"
    }
   ],
   "linker_set_key" : "std::memory_order",
   "name" : "std::memory_order",
   "referenced_type" : "type-1316",
   "self_type" : "type-1316",
   "size" : 4,
   "source_file" : "/external/libcxx/include/atomic",
   "underlying_type" : "type-16",
   "unique_id" : "_ZTSNSt3__112memory_orderE"
  },
  {
   "alignment" : 4,
   "enum_fields" :
   [
    {
     "enum_field_value" : 0,
     "name" : "std::__1::pointer_safety::relaxed"
    },
    {
     "enum_field_value" : 1,
     "name" : "std::__1::pointer_safety::preferred"
    },
    {
     "enum_field_value" : 2,
     "name" : "std::__1::pointer_safety::strict"
    }
   ],
   "linker_set_key" : "std::pointer_safety::__lx",
   "name" : "std::pointer_safety::__lx",
   "referenced_type" : "type-1856",
   "self_type" : "type-1856",
   "size" : 4,
   "source_file" : "/external/libcxx/include/memory",
   "underlying_type" : "type-16",
   "unique_id" : "_ZTSNSt3__114pointer_safety4__lxE"
  }
 ],
 "function_types" :
 [
  {
   "alignment" : 4,
   "linker_set_key" : "bool (const android::renderscript::Context *, android::renderscript::Allocation *)",
   "name" : "bool (const android::renderscript::Context *, android::renderscript::Allocation *)",
   "parameters" :
   [
    {
     "referenced_type" : "type-37"
    },
    {
     "referenced_type" : "type-72"
    }
   ],
   "referenced_type" : "type-190",
   "return_type" : "type-27",
   "self_type" : "type-190",
   "source_file" : "/frameworks/rs/rs_hal.h"
  },
  {
   "alignment" : 4,
   "linker_set_key" : "bool (const android::renderscript::Context *, android::renderscript::Allocation *, bool)",
   "name" : "bool (const android::renderscript::Context *, android::renderscript::Allocation *, bool)",
   "parameters" :
   [
    {
     "referenced_type" : "type-37"
    },
    {
     "referenced_type" : "type-72"
    },
    {
     "referenced_type" : "type-27"
    }
   ],
   "referenced_type" : "type-186",
   "return_type" : "type-27",
   "self_type" : "type-186",
   "source_file" : "/frameworks/rs/rs_hal.h"
  },
  {
   "alignment" : 4,
   "linker_set_key" : "bool (const android::renderscript::Context *, android::renderscript::Allocation *, bool, void *)",
   "name" : "bool (const android::renderscript::Context *, android::renderscript::Allocation *, bool, void *)",
   "parameters" :
   [
    {
     "referenced_type" : "type-37"
    },
    {
     "referenced_type" : "type-72"
    },
    {
     "referenced_type" : "type-27"
    },
    {
     "referenced_type" : "type-7"
    }
   ],
   "referenced_type" : "type-188",
   "return_type" : "type-27",
   "self_type" : "type-188",
   "source_file" : "/frameworks/rs/rs_hal.h"
  },
  {
   "alignment" : 4,
   "linker_set_key" : "bool (const android::renderscript::Context *, android::renderscript::Script *, RsScriptIntrinsicID, android::renderscript::Element *)",
   "name" : "bool (const android::renderscript::Context *, android::renderscript::Script *, RsScriptIntrinsicID, android::renderscript::Element *)",
   "parameters" :
   [
    {
     "referenced_type" : "type-37"
    },
    {
     "referenced_type" : "type-146"
    },
    {
     "referenced_type" : "type-147"
    },
    {
     "referenced_type" : "type-112"
    }
   ],
   "referenced_type" : "type-145",
   "return_type" : "type-27",
   "self_type" : "type-145",
   "source_file" : "/frameworks/rs/rs_hal.h"
  },
  {
   "alignment" : 4,
   "linker_set_key" : "bool (const android::renderscript::Context *, android::renderscript::ScriptC *, const char *, const char *, const unsigned char *, unsigned int, unsigned int)",
   "name" : "bool (const android::renderscript::Context *, android::renderscript::ScriptC *, const char *, const char *, const unsigned char *, unsigned int, unsigned int)",
   "parameters" :
   [
    {
     "referenced_type" : "type-37"
    },
    {
     "referenced_type" : "type-54"
    },
    {
     "referenced_type" : "type-21"
    },
    {
     "referenced_type" : "type-21"
    },
    {
     "referenced_type" : "type-141"
    },
    {
     "referenced_type" : "type-16"
    },
    {
     "referenced_type" : "type-16"
    }
   ],
   "referenced_type" : "type-53",
   "return_type" : "type-27",
   "self_type" : "type-53",
   "source_file" : "/frameworks/rs/rs_hal.h"
  },
  {
   "alignment" : 4,
   "linker_set_key" : "bool (const android::renderscript::Context *, android::renderscript::ScriptGroupBase *)",
   "name" : "bool (const android::renderscript::Context *, android::renderscript::ScriptGroupBase *)",
   "parameters" :
   [
    {
     "referenced_type" : "type-37"
    },
    {
     "referenced_type" : "type-299"
    }
   ],
   "referenced_type" : "type-298",
   "return_type" : "type-27",
   "self_type" : "type-298",
   "source_file" : "/frameworks/rs/rs_hal.h"
  },
  {
   "alignment" : 4,
   "linker_set_key" : "bool (const android::renderscript::Context *, const android::renderscript::Element *)",
   "name" : "bool (const android::renderscript::Context *, const android::renderscript::Element *)",
   "parameters" :
   [
    {
     "referenced_type" : "type-37"
    },
    {
     "referenced_type" : "type-10"
    }
   ],
   "referenced_type" : "type-381",
   "return_type" : "type-27",
   "self_type" : "type-381",
   "source_file" : "/frameworks/rs/rs_hal.h"
  },
  {
   "alignment" : 4,
   "linker_set_key" : "bool (const android::renderscript::Context *, const android::renderscript::FBOCache *)",
   "name" : "bool (const android::renderscript::Context *, const android::renderscript::FBOCache *)",
   "parameters" :
   [
    {
     "referenced_type" : "type-37"
    },
    {
     "referenced_type" : "type-289"
    }
   ],
   "referenced_type" : "type-288",
   "return_type" : "type-27",
   "self_type" : "type-288",
   "source_file" : "/frameworks/rs/rs_hal.h"
  },
  {
   "alignment" : 4,
   "linker_set_key" : "bool (const android::renderscript::Context *, const android::renderscript::Mesh *)",
   "name" : "bool (const android::renderscript::Context *, const android::renderscript::Mesh *)",
   "parameters" :
   [
    {
     "referenced_type" : "type-37"
    },
    {
     "referenced_type" : "type-268"
    }
   ],
   "referenced_type" : "type-267",
   "return_type" : "type-27",
   "self_type" : "type-267",
   "source_file" : "/frameworks/rs/rs_hal.h"
  },
  {
   "alignment" : 4,
   "linker_set_key" : "bool (const android::renderscript::Context *, const android::renderscript::ProgramFragment *, const char *, unsigned int, const char **, unsigned int, const unsigned int *)",
   "name" : "bool (const android::renderscript::Context *, const android::renderscript::ProgramFragment *, const char *, unsigned int, const char **, unsigned int, const unsigned int *)",
   "parameters" :
   [
    {
     "referenced_type" : "type-37"
    },
    {
     "referenced_type" : "type-261"
    },
    {
     "referenced_type" : "type-21"
    },
    {
     "referenced_type" : "type-16"
    },
    {
     "referenced_type" : "type-20"
    },
    {
     "referenced_type" : "type-16"
    },
    {
     "referenced_type" : "type-171"
    }
   ],
   "referenced_type" : "type-260",
   "return_type" : "type-27",
   "self_type" : "type-260",
   "source_file" : "/frameworks/rs/rs_hal.h"
  },
  {
   "alignment" : 4,
   "linker_set_key" : "bool (const android::renderscript::Context *, const android::renderscript::ProgramRaster *)",
   "name" : "bool (const android::renderscript::Context *, const android::renderscript::ProgramRaster *)",
   "parameters" :
   [
    {
     "referenced_type" : "type-37"
    },
    {
     "referenced_type" : "type-247"
    }
   ],
   "referenced_type" : "type-246",
   "return_type" : "type-27",
   "self_type" : "type-246",
   "source_file" : "/frameworks/rs/rs_hal.h"
  },
  {
   "alignment" : 4,
   "linker_set_key" : "bool (const android::renderscript::Context *, const android::renderscript::ProgramStore *)",
   "name" : "bool (const android::renderscript::Context *, const android::renderscript::ProgramStore *)",
   "parameters" :
   [
    {
     "referenced_type" : "type-37"
    },
    {
     "referenced_type" : "type-240"
    }
   ],
   "referenced_type" : "type-239",
   "return_type" : "type-27",
   "self_type" : "type-239",
   "source_file" : "/frameworks/rs/rs_hal.h"
  },
  {
   "alignment" : 4,
   "linker_set_key" : "bool (const android::renderscript::Context *, const android::renderscript::ProgramVertex *, const char *, unsigned int, const char **, unsigned int, const unsigned int *)",
   "name" : "bool (const android::renderscript::Context *, const android::renderscript::ProgramVertex *, const char *, unsigned int, const char **, unsigned int, const unsigned int *)",
   "parameters" :
   [
    {
     "referenced_type" : "type-37"
    },
    {
     "referenced_type" : "type-254"
    },
    {
     "referenced_type" : "type-21"
    },
    {
     "referenced_type" : "type-16"
    },
    {
     "referenced_type" : "type-20"
    },
    {
     "referenced_type" : "type-16"
    },
    {
     "referenced_type" : "type-171"
    }
   ],
   "referenced_type" : "type-253",
   "return_type" : "type-27",
   "self_type" : "type-253",
   "source_file" : "/frameworks/rs/rs_hal.h"
  },
  {
   "alignment" : 4,
   "linker_set_key" : "bool (const android::renderscript::Context *, const android::renderscript::Sampler *)",
   "name" : "bool (const android::renderscript::Context *, const android::renderscript::Sampler *)",
   "parameters" :
   [
    {
     "referenced_type" : "type-37"
    },
    {
     "referenced_type" : "type-278"
    }
   ],
   "referenced_type" : "type-277",
   "return_type" : "type-27",
   "self_type" : "type-277",
   "source_file" : "/frameworks/rs/rs_hal.h"
  },
  {
   "alignment" : 4,
   "linker_set_key" : "bool (const android::renderscript::Context *, const android::renderscript::Type *)",
   "name" : "bool (const android::renderscript::Context *, const android::renderscript::Type *)",
   "parameters" :
   [
    {
     "referenced_type" : "type-37"
    },
    {
     "referenced_type" : "type-76"
    }
   ],
   "referenced_type" : "type-372",
   "return_type" : "type-27",
   "self_type" : "type-372",
   "source_file" : "/frameworks/rs/rs_hal.h"
  },
  {
   "alignment" : 4,
   "linker_set_key" : "bool (const android::renderscript::Context *, unsigned int, unsigned int, void *)",
   "name" : "bool (const android::renderscript::Context *, unsigned int, unsigned int, void *)",
   "parameters" :
   [
    {
     "referenced_type" : "type-37"
    },
    {
     "referenced_type" : "type-16"
    },
    {
     "referenced_type" : "type-16"
    },
    {
     "referenced_type" : "type-7"
    }
   ],
   "referenced_type" : "type-42",
   "return_type" : "type-27",
   "self_type" : "type-42",
   "source_file" : "/frameworks/rs/rs_hal.h"
  },
  {
   "alignment" : 4,
   "linker_set_key" : "int ()",
   "name" : "int ()",
   "referenced_type" : "type-63",
   "return_type" : "type-36",
   "self_type" : "type-63",
   "source_file" : "/frameworks/rs/rsScript.h"
  },
  {
   "alignment" : 4,
   "linker_set_key" : "int (ANativeWindow *, ANativeWindowBuffer *)",
   "name" : "int (ANativeWindow *, ANativeWindowBuffer *)",
   "parameters" :
   [
    {
     "referenced_type" : "type-3220"
    },
    {
     "referenced_type" : "type-2132"
    }
   ],
   "referenced_type" : "type-3225",
   "return_type" : "type-36",
   "self_type" : "type-3225",
   "source_file" : "/frameworks/native/libs/nativewindow/include/system/window.h"
  },
  {
   "alignment" : 4,
   "linker_set_key" : "int (ANativeWindow *, ANativeWindowBuffer **)",
   "name" : "int (ANativeWindow *, ANativeWindowBuffer **)",
   "parameters" :
   [
    {
     "referenced_type" : "type-3220"
    },
    {
     "referenced_type" : "type-3223"
    }
   ],
   "referenced_type" : "type-3222",
   "return_type" : "type-36",
   "self_type" : "type-3222",
   "source_file" : "/frameworks/native/libs/nativewindow/include/system/window.h"
  },
  {
   "alignment" : 4,
   "linker_set_key" : "int (ANativeWindow *, ANativeWindowBuffer **, int *)",
   "name" : "int (ANativeWindow *, ANativeWindowBuffer **, int *)",
   "parameters" :
   [
    {
     "referenced_type" : "type-3220"
    },
    {
     "referenced_type" : "type-3223"
    },
    {
     "referenced_type" : "type-3230"
    }
   ],
   "referenced_type" : "type-3234",
   "return_type" : "type-36",
   "self_type" : "type-3234",
   "source_file" : "/frameworks/native/libs/nativewindow/include/system/window.h"
  },
  {
   "alignment" : 4,
   "linker_set_key" : "int (ANativeWindow *, ANativeWindowBuffer *, int)",
   "name" : "int (ANativeWindow *, ANativeWindowBuffer *, int)",
   "parameters" :
   [
    {
     "referenced_type" : "type-3220"
    },
    {
     "referenced_type" : "type-2132"
    },
    {
     "referenced_type" : "type-36"
    }
   ],
   "referenced_type" : "type-3236",
   "return_type" : "type-36",
   "self_type" : "type-3236",
   "source_file" : "/frameworks/native/libs/nativewindow/include/system/window.h"
  },
  {
   "alignment" : 4,
   "linker_set_key" : "int (ANativeWindow *, int)",
   "name" : "int (ANativeWindow *, int)",
   "parameters" :
   [
    {
     "referenced_type" : "type-3220"
    },
    {
     "referenced_type" : "type-36"
    }
   ],
   "referenced_type" : "type-3219",
   "return_type" : "type-36",
   "self_type" : "type-3219",
   "source_file" : "/frameworks/native/libs/nativewindow/include/system/window.h"
  },
  {
   "alignment" : 4,
   "linker_set_key" : "int (ANativeWindow *, int, ...)",
   "name" : "int (ANativeWindow *, int, ...)",
   "parameters" :
   [
    {
     "referenced_type" : "type-3220"
    },
    {
     "referenced_type" : "type-36"
    }
   ],
   "referenced_type" : "type-3232",
   "return_type" : "type-36",
   "self_type" : "type-3232",
   "source_file" : "/frameworks/native/libs/nativewindow/include/system/window.h"
  },
  {
   "alignment" : 4,
   "linker_set_key" : "int (const ANativeWindow *, int, int *)",
   "name" : "int (const ANativeWindow *, int, int *)",
   "parameters" :
   [
    {
     "referenced_type" : "type-3228"
    },
    {
     "referenced_type" : "type-36"
    },
    {
     "referenced_type" : "type-3230"
    }
   ],
   "referenced_type" : "type-3227",
   "return_type" : "type-36",
   "self_type" : "type-3227",
   "source_file" : "/frameworks/native/libs/nativewindow/include/system/window.h"
  },
  {
   "alignment" : 4,
   "linker_set_key" : "int (const android::renderscript::Context *)",
   "name" : "int (const android::renderscript::Context *)",
   "parameters" :
   [
    {
     "referenced_type" : "type-37"
    }
   ],
   "referenced_type" : "type-35",
   "return_type" : "type-36",
   "self_type" : "type-35",
   "source_file" : "/frameworks/rs/rs_hal.h"
  },
  {
   "alignment" : 4,
   "linker_set_key" : "int (const android::renderscript::Context *, android::renderscript::Script *)",
   "name" : "int (const android::renderscript::Context *, android::renderscript::Script *)",
   "parameters" :
   [
    {
     "referenced_type" : "type-37"
    },
    {
     "referenced_type" : "type-146"
    }
   ],
   "referenced_type" : "type-153",
   "return_type" : "type-36",
   "self_type" : "type-153",
   "source_file" : "/frameworks/rs/rs_hal.h"
  },
  {
   "alignment" : 4,
   "linker_set_key" : "unsigned int (const android::renderscript::Context *, android::renderscript::Allocation *)",
   "name" : "unsigned int (const android::renderscript::Context *, android::renderscript::Allocation *)",
   "parameters" :
   [
    {
     "referenced_type" : "type-37"
    },
    {
     "referenced_type" : "type-72"
    }
   ],
   "referenced_type" : "type-194",
   "return_type" : "type-16",
   "self_type" : "type-194",
   "source_file" : "/frameworks/rs/rs_hal.h"
  },
  {
   "alignment" : 4,
   "linker_set_key" : "void ()",
   "name" : "void ()",
   "referenced_type" : "type-2281",
   "return_type" : "type-8",
   "self_type" : "type-2281",
   "source_file" : "/bionic/libc/kernel/uapi/asm-x86/asm/signal.h"
  },
  {
   "alignment" : 4,
   "linker_set_key" : "void (android::renderscript::Context *)",
   "name" : "void (android::renderscript::Context *)",
   "parameters" :
   [
    {
     "referenced_type" : "type-30"
    }
   ],
   "referenced_type" : "type-44",
   "return_type" : "type-8",
   "self_type" : "type-44",
   "source_file" : "/frameworks/rs/rs_hal.h"
  },
  {
   "alignment" : 4,
   "linker_set_key" : "void (android_native_base_t *)",
   "name" : "void (android_native_base_t *)",
   "parameters" :
   [
    {
     "referenced_type" : "type-2138"
    }
   ],
   "referenced_type" : "type-2137",
   "return_type" : "type-8",
   "self_type" : "type-2137",
   "source_file" : "/frameworks/native/libs/nativebase/include/nativebase/nativebase.h"
  },
  {
   "alignment" : 4,
   "linker_set_key" : "void (const android::renderscript::Context *)",
   "name" : "void (const android::renderscript::Context *)",
   "parameters" :
   [
    {
     "referenced_type" : "type-37"
    }
   ],
   "referenced_type" : "type-40",
   "return_type" : "type-8",
   "self_type" : "type-40",
   "source_file" : "/frameworks/rs/rs_hal.h"
  },
  {
   "alignment" : 4,
   "linker_set_key" : "void (const android::renderscript::Context *, android::renderscript::Allocation *)",
   "name" : "void (const android::renderscript::Context *, android::renderscript::Allocation *)",
   "parameters" :
   [
    {
     "referenced_type" : "type-37"
    },
    {
     "referenced_type" : "type-72"
    }
   ],
   "referenced_type" : "type-192",
   "return_type" : "type-8",
   "self_type" : "type-192",
   "source_file" : "/frameworks/rs/rs_hal.h"
  },
  {
   "alignment" : 4,
   "linker_set_key" : "void (const android::renderscript::Context *, android::renderscript::Allocation *, ANativeWindow *)",
   "name" : "void (const android::renderscript::Context *, android::renderscript::Allocation *, ANativeWindow *)",
   "parameters" :
   [
    {
     "referenced_type" : "type-37"
    },
    {
     "referenced_type" : "type-72"
    },
    {
     "referenced_type" : "type-204"
    }
   ],
   "referenced_type" : "type-203",
   "return_type" : "type-8",
   "self_type" : "type-203",
   "source_file" : "/frameworks/rs/rs_hal.h"
  },
  {
   "alignment" : 4,
   "linker_set_key" : "void (const android::renderscript::Context *, android::renderscript::Script *)",
   "name" : "void (const android::renderscript::Context *, android::renderscript::Script *)",
   "parameters" :
   [
    {
     "referenced_type" : "type-37"
    },
    {
     "referenced_type" : "type-146"
    }
   ],
   "referenced_type" : "type-164",
   "return_type" : "type-8",
   "self_type" : "type-164",
   "source_file" : "/frameworks/rs/rs_hal.h"
  },
  {
   "alignment" : 4,
   "linker_set_key" : "void (const android::renderscript::Context *, android::renderscript::Script *, unsigned int, const android::renderscript::Allocation **, unsigned int, android::renderscript::Allocation *, const RsScriptCall *)",
   "name" : "void (const android::renderscript::Context *, android::renderscript::Script *, unsigned int, const android::renderscript::Allocation **, unsigned int, android::renderscript::Allocation *, const RsScriptCall *)",
   "parameters" :
   [
    {
     "referenced_type" : "type-37"
    },
    {
     "referenced_type" : "type-146"
    },
    {
     "referenced_type" : "type-16"
    },
    {
     "referenced_type" : "type-162"
    },
    {
     "referenced_type" : "type-16"
    },
    {
     "referenced_type" : "type-72"
    },
    {
     "referenced_type" : "type-156"
    }
   ],
   "referenced_type" : "type-161",
   "return_type" : "type-8",
   "self_type" : "type-161",
   "source_file" : "/frameworks/rs/rs_hal.h"
  },
  {
   "alignment" : 4,
   "linker_set_key" : "void (const android::renderscript::Context *, android::renderscript::Script *, unsigned int, const android::renderscript::Allocation **, unsigned int, android::renderscript::Allocation *, const void *, unsigned int, const RsScriptCall *)",
   "name" : "void (const android::renderscript::Context *, android::renderscript::Script *, unsigned int, const android::renderscript::Allocation **, unsigned int, android::renderscript::Allocation *, const void *, unsigned int, const RsScriptCall *)",
   "parameters" :
   [
    {
     "referenced_type" : "type-37"
    },
    {
     "referenced_type" : "type-146"
    },
    {
     "referenced_type" : "type-16"
    },
    {
     "referenced_type" : "type-162"
    },
    {
     "referenced_type" : "type-16"
    },
    {
     "referenced_type" : "type-72"
    },
    {
     "referenced_type" : "type-150"
    },
    {
     "referenced_type" : "type-16"
    },
    {
     "referenced_type" : "type-156"
    }
   ],
   "referenced_type" : "type-179",
   "return_type" : "type-8",
   "self_type" : "type-179",
   "source_file" : "/frameworks/rs/rs_hal.h"
  },
  {
   "alignment" : 4,
   "linker_set_key" : "void (const android::renderscript::Context *, android::renderscript::Script *, unsigned int, const android::renderscript::Allocation *, android::renderscript::Allocation *, const void *, unsigned int, const RsScriptCall *)",
   "name" : "void (const android::renderscript::Context *, android::renderscript::Script *, unsigned int, const android::renderscript::Allocation *, android::renderscript::Allocation *, const void *, unsigned int, const RsScriptCall *)",
   "parameters" :
   [
    {
     "referenced_type" : "type-37"
    },
    {
     "referenced_type" : "type-146"
    },
    {
     "referenced_type" : "type-16"
    },
    {
     "referenced_type" : "type-80"
    },
    {
     "referenced_type" : "type-72"
    },
    {
     "referenced_type" : "type-150"
    },
    {
     "referenced_type" : "type-16"
    },
    {
     "referenced_type" : "type-156"
    }
   ],
   "referenced_type" : "type-155",
   "return_type" : "type-8",
   "self_type" : "type-155",
   "source_file" : "/frameworks/rs/rs_hal.h"
  },
  {
   "alignment" : 4,
   "linker_set_key" : "void (const android::renderscript::Context *, android::renderscript::Script *, unsigned int, const void *, unsigned int)",
   "name" : "void (const android::renderscript::Context *, android::renderscript::Script *, unsigned int, const void *, unsigned int)",
   "parameters" :
   [
    {
     "referenced_type" : "type-37"
    },
    {
     "referenced_type" : "type-146"
    },
    {
     "referenced_type" : "type-16"
    },
    {
     "referenced_type" : "type-150"
    },
    {
     "referenced_type" : "type-16"
    }
   ],
   "referenced_type" : "type-149",
   "return_type" : "type-8",
   "self_type" : "type-149",
   "source_file" : "/frameworks/rs/rs_hal.h"
  },
  {
   "alignment" : 4,
   "linker_set_key" : "void (const android::renderscript::Context *, const android::renderscript::Allocation *)",
   "name" : "void (const android::renderscript::Context *, const android::renderscript::Allocation *)",
   "parameters" :
   [
    {
     "referenced_type" : "type-37"
    },
    {
     "referenced_type" : "type-80"
    }
   ],
   "referenced_type" : "type-201",
   "return_type" : "type-8",
   "self_type" : "type-201",
   "source_file" : "/frameworks/rs/rs_hal.h"
  },
  {
   "alignment" : 4,
   "linker_set_key" : "void (const android::renderscript::Context *, const android::renderscript::Allocation *, RsAllocationUsageType)",
   "name" : "void (const android::renderscript::Context *, const android::renderscript::Allocation *, RsAllocationUsageType)",
   "parameters" :
   [
    {
     "referenced_type" : "type-37"
    },
    {
     "referenced_type" : "type-80"
    },
    {
     "referenced_type" : "type-199"
    }
   ],
   "referenced_type" : "type-198",
   "return_type" : "type-8",
   "self_type" : "type-198",
   "source_file" : "/frameworks/rs/rs_hal.h"
  },
  {
   "alignment" : 4,
   "linker_set_key" : "void (const android::renderscript::Context *, const android::renderscript::Allocation *, android::renderscript::rs_allocation *)",
   "name" : "void (const android::renderscript::Context *, const android::renderscript::Allocation *, android::renderscript::rs_allocation *)",
   "parameters" :
   [
    {
     "referenced_type" : "type-37"
    },
    {
     "referenced_type" : "type-80"
    },
    {
     "referenced_type" : "type-233"
    }
   ],
   "referenced_type" : "type-232",
   "return_type" : "type-8",
   "self_type" : "type-232",
   "source_file" : "/frameworks/rs/rs_hal.h"
  },
  {
   "alignment" : 4,
   "linker_set_key" : "void (const android::renderscript::Context *, const android::renderscript::Allocation *, const android::renderscript::Type *, bool)",
   "name" : "void (const android::renderscript::Context *, const android::renderscript::Allocation *, const android::renderscript::Type *, bool)",
   "parameters" :
   [
    {
     "referenced_type" : "type-37"
    },
    {
     "referenced_type" : "type-80"
    },
    {
     "referenced_type" : "type-76"
    },
    {
     "referenced_type" : "type-27"
    }
   ],
   "referenced_type" : "type-196",
   "return_type" : "type-8",
   "self_type" : "type-196",
   "source_file" : "/frameworks/rs/rs_hal.h"
  },
  {
   "alignment" : 4,
   "linker_set_key" : "void (const android::renderscript::Context *, const android::renderscript::Allocation *, unsigned int, RsAllocationCubemapFace, unsigned int, unsigned int)",
   "name" : "void (const android::renderscript::Context *, const android::renderscript::Allocation *, unsigned int, RsAllocationCubemapFace, unsigned int, unsigned int)",
   "parameters" :
   [
    {
     "referenced_type" : "type-37"
    },
    {
     "referenced_type" : "type-80"
    },
    {
     "referenced_type" : "type-16"
    },
    {
     "referenced_type" : "type-210"
    },
    {
     "referenced_type" : "type-16"
    },
    {
     "referenced_type" : "type-16"
    }
   ],
   "referenced_type" : "type-236",
   "return_type" : "type-8",
   "self_type" : "type-236",
   "source_file" : "/frameworks/rs/rs_hal.h"
  },
  {
   "alignment" : 4,
   "linker_set_key" : "void (const android::renderscript::Context *, const android::renderscript::Allocation *, unsigned int, unsigned int, unsigned int, RsAllocationCubemapFace, unsigned int, unsigned int, const android::renderscript::Allocation *, unsigned int, unsigned int, unsigned int, RsAllocationCubemapFace)",
   "name" : "void (const android::renderscript::Context *, const android::renderscript::Allocation *, unsigned int, unsigned int, unsigned int, RsAllocationCubemapFace, unsigned int, unsigned int, const android::renderscript::Allocation *, unsigned int, unsigned int, unsigned int, RsAllocationCubemapFace)",
   "parameters" :
   [
    {
     "referenced_type" : "type-37"
    },
    {
     "referenced_type" : "type-80"
    },
    {
     "referenced_type" : "type-16"
    },
    {
     "referenced_type" : "type-16"
    },
    {
     "referenced_type" : "type-16"
    },
    {
     "referenced_type" : "type-210"
    },
    {
     "referenced_type" : "type-16"
    },
    {
     "referenced_type" : "type-16"
    },
    {
     "referenced_type" : "type-80"
    },
    {
     "referenced_type" : "type-16"
    },
    {
     "referenced_type" : "type-16"
    },
    {
     "referenced_type" : "type-16"
    },
    {
     "referenced_type" : "type-210"
    }
   ],
   "referenced_type" : "type-224",
   "return_type" : "type-8",
   "self_type" : "type-224",
   "source_file" : "/frameworks/rs/rs_hal.h"
  },
  {
   "alignment" : 4,
   "linker_set_key" : "void (const android::renderscript::Context *, const android::renderscript::Allocation *, unsigned int, unsigned int, unsigned int, RsAllocationCubemapFace, unsigned int, unsigned int, const void *, unsigned int, unsigned int)",
   "name" : "void (const android::renderscript::Context *, const android::renderscript::Allocation *, unsigned int, unsigned int, unsigned int, RsAllocationCubemapFace, unsigned int, unsigned int, const void *, unsigned int, unsigned int)",
   "parameters" :
   [
    {
     "referenced_type" : "type-37"
    },
    {
     "referenced_type" : "type-80"
    },
    {
     "referenced_type" : "type-16"
    },
    {
     "referenced_type" : "type-16"
    },
    {
     "referenced_type" : "type-16"
    },
    {
     "referenced_type" : "type-210"
    },
    {
     "referenced_type" : "type-16"
    },
    {
     "referenced_type" : "type-16"
    },
    {
     "referenced_type" : "type-150"
    },
    {
     "referenced_type" : "type-16"
    },
    {
     "referenced_type" : "type-16"
    }
   ],
   "referenced_type" : "type-209",
   "return_type" : "type-8",
   "self_type" : "type-209",
   "source_file" : "/frameworks/rs/rs_hal.h"
  },
  {
   "alignment" : 4,
   "linker_set_key" : "void (const android::renderscript::Context *, const android::renderscript::Allocation *, unsigned int, unsigned int, unsigned int, RsAllocationCubemapFace, unsigned int, unsigned int, void *, unsigned int, unsigned int)",
   "name" : "void (const android::renderscript::Context *, const android::renderscript::Allocation *, unsigned int, unsigned int, unsigned int, RsAllocationCubemapFace, unsigned int, unsigned int, void *, unsigned int, unsigned int)",
   "parameters" :
   [
    {
     "referenced_type" : "type-37"
    },
    {
     "referenced_type" : "type-80"
    },
    {
     "referenced_type" : "type-16"
    },
    {
     "referenced_type" : "type-16"
    },
    {
     "referenced_type" : "type-16"
    },
    {
     "referenced_type" : "type-210"
    },
    {
     "referenced_type" : "type-16"
    },
    {
     "referenced_type" : "type-16"
    },
    {
     "referenced_type" : "type-7"
    },
    {
     "referenced_type" : "type-16"
    },
    {
     "referenced_type" : "type-16"
    }
   ],
   "referenced_type" : "type-216",
   "return_type" : "type-8",
   "self_type" : "type-216",
   "source_file" : "/frameworks/rs/rs_hal.h"
  },
  {
   "alignment" : 4,
   "linker_set_key" : "void (const android::renderscript::Context *, const android::renderscript::Allocation *, unsigned int, unsigned int, unsigned int, const android::renderscript::Allocation *, unsigned int, unsigned int)",
   "name" : "void (const android::renderscript::Context *, const android::renderscript::Allocation *, unsigned int, unsigned int, unsigned int, const android::renderscript::Allocation *, unsigned int, unsigned int)",
   "parameters" :
   [
    {
     "referenced_type" : "type-37"
    },
    {
     "referenced_type" : "type-80"
    },
    {
     "referenced_type" : "type-16"
    },
    {
     "referenced_type" : "type-16"
    },
    {
     "referenced_type" : "type-16"
    },
    {
     "referenced_type" : "type-80"
    },
    {
     "referenced_type" : "type-16"
    },
    {
     "referenced_type" : "type-16"
    }
   ],
   "referenced_type" : "type-222",
   "return_type" : "type-8",
   "self_type" : "type-222",
   "source_file" : "/frameworks/rs/rs_hal.h"
  },
  {
   "alignment" : 4,
   "linker_set_key" : "void (const android::renderscript::Context *, const android::renderscript::Allocation *, unsigned int, unsigned int, unsigned int, const void *, unsigned int)",
   "name" : "void (const android::renderscript::Context *, const android::renderscript::Allocation *, unsigned int, unsigned int, unsigned int, const void *, unsigned int)",
   "parameters" :
   [
    {
     "referenced_type" : "type-37"
    },
    {
     "referenced_type" : "type-80"
    },
    {
     "referenced_type" : "type-16"
    },
    {
     "referenced_type" : "type-16"
    },
    {
     "referenced_type" : "type-16"
    },
    {
     "referenced_type" : "type-150"
    },
    {
     "referenced_type" : "type-16"
    }
   ],
   "referenced_type" : "type-207",
   "return_type" : "type-8",
   "self_type" : "type-207",
   "source_file" : "/frameworks/rs/rs_hal.h"
  },
  {
   "alignment" : 4,
   "linker_set_key" : "void (const android::renderscript::Context *, const android::renderscript::Allocation *, unsigned int, unsigned int, unsigned int, const void *, unsigned int, unsigned int)",
   "name" : "void (const android::renderscript::Context *, const android::renderscript::Allocation *, unsigned int, unsigned int, unsigned int, const void *, unsigned int, unsigned int)",
   "parameters" :
   [
    {
     "referenced_type" : "type-37"
    },
    {
     "referenced_type" : "type-80"
    },
    {
     "referenced_type" : "type-16"
    },
    {
     "referenced_type" : "type-16"
    },
    {
     "referenced_type" : "type-16"
    },
    {
     "referenced_type" : "type-150"
    },
    {
     "referenced_type" : "type-16"
    },
    {
     "referenced_type" : "type-16"
    }
   ],
   "referenced_type" : "type-228",
   "return_type" : "type-8",
   "self_type" : "type-228",
   "source_file" : "/frameworks/rs/rs_hal.h"
  },
  {
   "alignment" : 4,
   "linker_set_key" : "void (const android::renderscript::Context *, const android::renderscript::Allocation *, unsigned int, unsigned int, unsigned int, unsigned int, unsigned int, unsigned int, unsigned int, const android::renderscript::Allocation *, unsigned int, unsigned int, unsigned int, unsigned int)",
   "name" : "void (const android::renderscript::Context *, const android::renderscript::Allocation *, unsigned int, unsigned int, unsigned int, unsigned int, unsigned int, unsigned int, unsigned int, const android::renderscript::Allocation *, unsigned int, unsigned int, unsigned int, unsigned int)",
   "parameters" :
   [
    {
     "referenced_type" : "type-37"
    },
    {
     "referenced_type" : "type-80"
    },
    {
     "referenced_type" : "type-16"
    },
    {
     "referenced_type" : "type-16"
    },
    {
     "referenced_type" : "type-16"
    },
    {
     "referenced_type" : "type-16"
    },
    {
     "referenced_type" : "type-16"
    },
    {
     "referenced_type" : "type-16"
    },
    {
     "referenced_type" : "type-16"
    },
    {
     "referenced_type" : "type-80"
    },
    {
     "referenced_type" : "type-16"
    },
    {
     "referenced_type" : "type-16"
    },
    {
     "referenced_type" : "type-16"
    },
    {
     "referenced_type" : "type-16"
    }
   ],
   "referenced_type" : "type-226",
   "return_type" : "type-8",
   "self_type" : "type-226",
   "source_file" : "/frameworks/rs/rs_hal.h"
  },
  {
   "alignment" : 4,
   "linker_set_key" : "void (const android::renderscript::Context *, const android::renderscript::Allocation *, unsigned int, unsigned int, unsigned int, unsigned int, unsigned int, unsigned int, unsigned int, const void *, unsigned int, unsigned int)",
   "name" : "void (const android::renderscript::Context *, const android::renderscript::Allocation *, unsigned int, unsigned int, unsigned int, unsigned int, unsigned int, unsigned int, unsigned int, const void *, unsigned int, unsigned int)",
   "parameters" :
   [
    {
     "referenced_type" : "type-37"
    },
    {
     "referenced_type" : "type-80"
    },
    {
     "referenced_type" : "type-16"
    },
    {
     "referenced_type" : "type-16"
    },
    {
     "referenced_type" : "type-16"
    },
    {
     "referenced_type" : "type-16"
    },
    {
     "referenced_type" : "type-16"
    },
    {
     "referenced_type" : "type-16"
    },
    {
     "referenced_type" : "type-16"
    },
    {
     "referenced_type" : "type-150"
    },
    {
     "referenced_type" : "type-16"
    },
    {
     "referenced_type" : "type-16"
    }
   ],
   "referenced_type" : "type-212",
   "return_type" : "type-8",
   "self_type" : "type-212",
   "source_file" : "/frameworks/rs/rs_hal.h"
  },
  {
   "alignment" : 4,
   "linker_set_key" : "void (const android::renderscript::Context *, const android::renderscript::Allocation *, unsigned int, unsigned int, unsigned int, unsigned int, unsigned int, unsigned int, unsigned int, void *, unsigned int, unsigned int)",
   "name" : "void (const android::renderscript::Context *, const android::renderscript::Allocation *, unsigned int, unsigned int, unsigned int, unsigned int, unsigned int, unsigned int, unsigned int, void *, unsigned int, unsigned int)",
   "parameters" :
   [
    {
     "referenced_type" : "type-37"
    },
    {
     "referenced_type" : "type-80"
    },
    {
     "referenced_type" : "type-16"
    },
    {
     "referenced_type" : "type-16"
    },
    {
     "referenced_type" : "type-16"
    },
    {
     "referenced_type" : "type-16"
    },
    {
     "referenced_type" : "type-16"
    },
    {
     "referenced_type" : "type-16"
    },
    {
     "referenced_type" : "type-16"
    },
    {
     "referenced_type" : "type-7"
    },
    {
     "referenced_type" : "type-16"
    },
    {
     "referenced_type" : "type-16"
    }
   ],
   "referenced_type" : "type-218",
   "return_type" : "type-8",
   "self_type" : "type-218",
   "source_file" : "/frameworks/rs/rs_hal.h"
  },
  {
   "alignment" : 4,
   "linker_set_key" : "void (const android::renderscript::Context *, const android::renderscript::Allocation *, unsigned int, unsigned int, unsigned int, void *, unsigned int)",
   "name" : "void (const android::renderscript::Context *, const android::renderscript::Allocation *, unsigned int, unsigned int, unsigned int, void *, unsigned int)",
   "parameters" :
   [
    {
     "referenced_type" : "type-37"
    },
    {
     "referenced_type" : "type-80"
    },
    {
     "referenced_type" : "type-16"
    },
    {
     "referenced_type" : "type-16"
    },
    {
     "referenced_type" : "type-16"
    },
    {
     "referenced_type" : "type-7"
    },
    {
     "referenced_type" : "type-16"
    }
   ],
   "referenced_type" : "type-214",
   "return_type" : "type-8",
   "self_type" : "type-214",
   "source_file" : "/frameworks/rs/rs_hal.h"
  },
  {
   "alignment" : 4,
   "linker_set_key" : "void (const android::renderscript::Context *, const android::renderscript::Allocation *, unsigned int, unsigned int, unsigned int, void *, unsigned int, unsigned int)",
   "name" : "void (const android::renderscript::Context *, const android::renderscript::Allocation *, unsigned int, unsigned int, unsigned int, void *, unsigned int, unsigned int)",
   "parameters" :
   [
    {
     "referenced_type" : "type-37"
    },
    {
     "referenced_type" : "type-80"
    },
    {
     "referenced_type" : "type-16"
    },
    {
     "referenced_type" : "type-16"
    },
    {
     "referenced_type" : "type-16"
    },
    {
     "referenced_type" : "type-7"
    },
    {
     "referenced_type" : "type-16"
    },
    {
     "referenced_type" : "type-16"
    }
   ],
   "referenced_type" : "type-230",
   "return_type" : "type-8",
   "self_type" : "type-230",
   "source_file" : "/frameworks/rs/rs_hal.h"
  },
  {
   "alignment" : 4,
   "linker_set_key" : "void (const android::renderscript::Context *, const android::renderscript::Element *)",
   "name" : "void (const android::renderscript::Context *, const android::renderscript::Element *)",
   "parameters" :
   [
    {
     "referenced_type" : "type-37"
    },
    {
     "referenced_type" : "type-10"
    }
   ],
   "referenced_type" : "type-383",
   "return_type" : "type-8",
   "self_type" : "type-383",
   "source_file" : "/frameworks/rs/rs_hal.h"
  },
  {
   "alignment" : 4,
   "linker_set_key" : "void (const android::renderscript::Context *, const android::renderscript::Element *, android::renderscript::rs_element *)",
   "name" : "void (const android::renderscript::Context *, const android::renderscript::Element *, android::renderscript::rs_element *)",
   "parameters" :
   [
    {
     "referenced_type" : "type-37"
    },
    {
     "referenced_type" : "type-10"
    },
    {
     "referenced_type" : "type-386"
    }
   ],
   "referenced_type" : "type-385",
   "return_type" : "type-8",
   "self_type" : "type-385",
   "source_file" : "/frameworks/rs/rs_hal.h"
  },
  {
   "alignment" : 4,
   "linker_set_key" : "void (const android::renderscript::Context *, const android::renderscript::FBOCache *)",
   "name" : "void (const android::renderscript::Context *, const android::renderscript::FBOCache *)",
   "parameters" :
   [
    {
     "referenced_type" : "type-37"
    },
    {
     "referenced_type" : "type-289"
    }
   ],
   "referenced_type" : "type-295",
   "return_type" : "type-8",
   "self_type" : "type-295",
   "source_file" : "/frameworks/rs/rs_hal.h"
  },
  {
   "alignment" : 4,
   "linker_set_key" : "void (const android::renderscript::Context *, const android::renderscript::Mesh *)",
   "name" : "void (const android::renderscript::Context *, const android::renderscript::Mesh *)",
   "parameters" :
   [
    {
     "referenced_type" : "type-37"
    },
    {
     "referenced_type" : "type-268"
    }
   ],
   "referenced_type" : "type-274",
   "return_type" : "type-8",
   "self_type" : "type-274",
   "source_file" : "/frameworks/rs/rs_hal.h"
  },
  {
   "alignment" : 4,
   "linker_set_key" : "void (const android::renderscript::Context *, const android::renderscript::Mesh *, unsigned int, unsigned int, unsigned int)",
   "name" : "void (const android::renderscript::Context *, const android::renderscript::Mesh *, unsigned int, unsigned int, unsigned int)",
   "parameters" :
   [
    {
     "referenced_type" : "type-37"
    },
    {
     "referenced_type" : "type-268"
    },
    {
     "referenced_type" : "type-16"
    },
    {
     "referenced_type" : "type-16"
    },
    {
     "referenced_type" : "type-16"
    }
   ],
   "referenced_type" : "type-272",
   "return_type" : "type-8",
   "self_type" : "type-272",
   "source_file" : "/frameworks/rs/rs_hal.h"
  },
  {
   "alignment" : 4,
   "linker_set_key" : "void (const android::renderscript::Context *, const android::renderscript::ProgramFragment *)",
   "name" : "void (const android::renderscript::Context *, const android::renderscript::ProgramFragment *)",
   "parameters" :
   [
    {
     "referenced_type" : "type-37"
    },
    {
     "referenced_type" : "type-261"
    }
   ],
   "referenced_type" : "type-264",
   "return_type" : "type-8",
   "self_type" : "type-264",
   "source_file" : "/frameworks/rs/rs_hal.h"
  },
  {
   "alignment" : 4,
   "linker_set_key" : "void (const android::renderscript::Context *, const android::renderscript::ProgramRaster *)",
   "name" : "void (const android::renderscript::Context *, const android::renderscript::ProgramRaster *)",
   "parameters" :
   [
    {
     "referenced_type" : "type-37"
    },
    {
     "referenced_type" : "type-247"
    }
   ],
   "referenced_type" : "type-250",
   "return_type" : "type-8",
   "self_type" : "type-250",
   "source_file" : "/frameworks/rs/rs_hal.h"
  },
  {
   "alignment" : 4,
   "linker_set_key" : "void (const android::renderscript::Context *, const android::renderscript::ProgramStore *)",
   "name" : "void (const android::renderscript::Context *, const android::renderscript::ProgramStore *)",
   "parameters" :
   [
    {
     "referenced_type" : "type-37"
    },
    {
     "referenced_type" : "type-240"
    }
   ],
   "referenced_type" : "type-243",
   "return_type" : "type-8",
   "self_type" : "type-243",
   "source_file" : "/frameworks/rs/rs_hal.h"
  },
  {
   "alignment" : 4,
   "linker_set_key" : "void (const android::renderscript::Context *, const android::renderscript::ProgramVertex *)",
   "name" : "void (const android::renderscript::Context *, const android::renderscript::ProgramVertex *)",
   "parameters" :
   [
    {
     "referenced_type" : "type-37"
    },
    {
     "referenced_type" : "type-254"
    }
   ],
   "referenced_type" : "type-257",
   "return_type" : "type-8",
   "self_type" : "type-257",
   "source_file" : "/frameworks/rs/rs_hal.h"
  },
  {
   "alignment" : 4,
   "linker_set_key" : "void (const android::renderscript::Context *, const android::renderscript::Sampler *)",
   "name" : "void (const android::renderscript::Context *, const android::renderscript::Sampler *)",
   "parameters" :
   [
    {
     "referenced_type" : "type-37"
    },
    {
     "referenced_type" : "type-278"
    }
   ],
   "referenced_type" : "type-281",
   "return_type" : "type-8",
   "self_type" : "type-281",
   "source_file" : "/frameworks/rs/rs_hal.h"
  },
  {
   "alignment" : 4,
   "linker_set_key" : "void (const android::renderscript::Context *, const android::renderscript::Sampler *, android::renderscript::rs_sampler *)",
   "name" : "void (const android::renderscript::Context *, const android::renderscript::Sampler *, android::renderscript::rs_sampler *)",
   "parameters" :
   [
    {
     "referenced_type" : "type-37"
    },
    {
     "referenced_type" : "type-278"
    },
    {
     "referenced_type" : "type-284"
    }
   ],
   "referenced_type" : "type-283",
   "return_type" : "type-8",
   "self_type" : "type-283",
   "source_file" : "/frameworks/rs/rs_hal.h"
  },
  {
   "alignment" : 4,
   "linker_set_key" : "void (const android::renderscript::Context *, const android::renderscript::Script *, android::renderscript::rs_script *)",
   "name" : "void (const android::renderscript::Context *, const android::renderscript::Script *, android::renderscript::rs_script *)",
   "parameters" :
   [
    {
     "referenced_type" : "type-37"
    },
    {
     "referenced_type" : "type-167"
    },
    {
     "referenced_type" : "type-182"
    }
   ],
   "referenced_type" : "type-181",
   "return_type" : "type-8",
   "self_type" : "type-181",
   "source_file" : "/frameworks/rs/rs_hal.h"
  },
  {
   "alignment" : 4,
   "linker_set_key" : "void (const android::renderscript::Context *, const android::renderscript::Script *, unsigned int, android::renderscript::Allocation *)",
   "name" : "void (const android::renderscript::Context *, const android::renderscript::Script *, unsigned int, android::renderscript::Allocation *)",
   "parameters" :
   [
    {
     "referenced_type" : "type-37"
    },
    {
     "referenced_type" : "type-167"
    },
    {
     "referenced_type" : "type-16"
    },
    {
     "referenced_type" : "type-72"
    }
   ],
   "referenced_type" : "type-174",
   "return_type" : "type-8",
   "self_type" : "type-174",
   "source_file" : "/frameworks/rs/rs_hal.h"
  },
  {
   "alignment" : 4,
   "linker_set_key" : "void (const android::renderscript::Context *, const android::renderscript::Script *, unsigned int, android::renderscript::ObjectBase *)",
   "name" : "void (const android::renderscript::Context *, const android::renderscript::Script *, unsigned int, android::renderscript::ObjectBase *)",
   "parameters" :
   [
    {
     "referenced_type" : "type-37"
    },
    {
     "referenced_type" : "type-167"
    },
    {
     "referenced_type" : "type-16"
    },
    {
     "referenced_type" : "type-177"
    }
   ],
   "referenced_type" : "type-176",
   "return_type" : "type-8",
   "self_type" : "type-176",
   "source_file" : "/frameworks/rs/rs_hal.h"
  },
  {
   "alignment" : 4,
   "linker_set_key" : "void (const android::renderscript::Context *, const android::renderscript::Script *, unsigned int, void *, unsigned int)",
   "name" : "void (const android::renderscript::Context *, const android::renderscript::Script *, unsigned int, void *, unsigned int)",
   "parameters" :
   [
    {
     "referenced_type" : "type-37"
    },
    {
     "referenced_type" : "type-167"
    },
    {
     "referenced_type" : "type-16"
    },
    {
     "referenced_type" : "type-7"
    },
    {
     "referenced_type" : "type-16"
    }
   ],
   "referenced_type" : "type-166",
   "return_type" : "type-8",
   "self_type" : "type-166",
   "source_file" : "/frameworks/rs/rs_hal.h"
  },
  {
   "alignment" : 4,
   "linker_set_key" : "void (const android::renderscript::Context *, const android::renderscript::Script *, unsigned int, void *, unsigned int, const android::renderscript::Element *, const unsigned int *, unsigned int)",
   "name" : "void (const android::renderscript::Context *, const android::renderscript::Script *, unsigned int, void *, unsigned int, const android::renderscript::Element *, const unsigned int *, unsigned int)",
   "parameters" :
   [
    {
     "referenced_type" : "type-37"
    },
    {
     "referenced_type" : "type-167"
    },
    {
     "referenced_type" : "type-16"
    },
    {
     "referenced_type" : "type-7"
    },
    {
     "referenced_type" : "type-16"
    },
    {
     "referenced_type" : "type-10"
    },
    {
     "referenced_type" : "type-171"
    },
    {
     "referenced_type" : "type-16"
    }
   ],
   "referenced_type" : "type-170",
   "return_type" : "type-8",
   "self_type" : "type-170",
   "source_file" : "/frameworks/rs/rs_hal.h"
  },
  {
   "alignment" : 4,
   "linker_set_key" : "void (const android::renderscript::Context *, const android::renderscript::ScriptGroup *, android::renderscript::rs_script_group *)",
   "name" : "void (const android::renderscript::Context *, const android::renderscript::ScriptGroup *, android::renderscript::rs_script_group *)",
   "parameters" :
   [
    {
     "referenced_type" : "type-37"
    },
    {
     "referenced_type" : "type-305"
    },
    {
     "referenced_type" : "type-368"
    }
   ],
   "referenced_type" : "type-367",
   "return_type" : "type-8",
   "self_type" : "type-367",
   "source_file" : "/frameworks/rs/rs_hal.h"
  },
  {
   "alignment" : 4,
   "linker_set_key" : "void (const android::renderscript::Context *, const android::renderscript::ScriptGroup *, const android::renderscript::ScriptKernelID *, android::renderscript::Allocation *)",
   "name" : "void (const android::renderscript::Context *, const android::renderscript::ScriptGroup *, const android::renderscript::ScriptKernelID *, android::renderscript::Allocation *)",
   "parameters" :
   [
    {
     "referenced_type" : "type-37"
    },
    {
     "referenced_type" : "type-305"
    },
    {
     "referenced_type" : "type-325"
    },
    {
     "referenced_type" : "type-72"
    }
   ],
   "referenced_type" : "type-304",
   "return_type" : "type-8",
   "self_type" : "type-304",
   "source_file" : "/frameworks/rs/rs_hal.h"
  },
  {
   "alignment" : 4,
   "linker_set_key" : "void (const android::renderscript::Context *, const android::renderscript::ScriptGroupBase *)",
   "name" : "void (const android::renderscript::Context *, const android::renderscript::ScriptGroupBase *)",
   "parameters" :
   [
    {
     "referenced_type" : "type-37"
    },
    {
     "referenced_type" : "type-364"
    }
   ],
   "referenced_type" : "type-363",
   "return_type" : "type-8",
   "self_type" : "type-363",
   "source_file" : "/frameworks/rs/rs_hal.h"
  },
  {
   "alignment" : 4,
   "linker_set_key" : "void (const android::renderscript::Context *, const android::renderscript::Type *)",
   "name" : "void (const android::renderscript::Context *, const android::renderscript::Type *)",
   "parameters" :
   [
    {
     "referenced_type" : "type-37"
    },
    {
     "referenced_type" : "type-76"
    }
   ],
   "referenced_type" : "type-374",
   "return_type" : "type-8",
   "self_type" : "type-374",
   "source_file" : "/frameworks/rs/rs_hal.h"
  },
  {
   "alignment" : 4,
   "linker_set_key" : "void (const android::renderscript::Context *, const android::renderscript::Type *, android::renderscript::rs_type *)",
   "name" : "void (const android::renderscript::Context *, const android::renderscript::Type *, android::renderscript::rs_type *)",
   "parameters" :
   [
    {
     "referenced_type" : "type-37"
    },
    {
     "referenced_type" : "type-76"
    },
    {
     "referenced_type" : "type-377"
    }
   ],
   "referenced_type" : "type-376",
   "return_type" : "type-8",
   "self_type" : "type-376",
   "source_file" : "/frameworks/rs/rs_hal.h"
  },
  {
   "alignment" : 4,
   "linker_set_key" : "void (const android::renderscript::Context *, int)",
   "name" : "void (const android::renderscript::Context *, int)",
   "parameters" :
   [
    {
     "referenced_type" : "type-37"
    },
    {
     "referenced_type" : "type-36"
    }
   ],
   "referenced_type" : "type-46",
   "return_type" : "type-8",
   "self_type" : "type-46",
   "source_file" : "/frameworks/rs/rs_hal.h"
  },
  {
   "alignment" : 4,
   "linker_set_key" : "void (const std::__1::__libcpp_debug_info &)",
   "name" : "void (const std::__1::__libcpp_debug_info &)",
   "parameters" :
   [
    {
     "referenced_type" : "type-1063"
    }
   ],
   "referenced_type" : "type-1062",
   "return_type" : "type-8",
   "self_type" : "type-1062",
   "source_file" : "/external/libcxx/include/__debug"
  },
  {
   "alignment" : 4,
   "linker_set_key" : "void (int)",
   "name" : "void (int)",
   "parameters" :
   [
    {
     "referenced_type" : "type-36"
    }
   ],
   "referenced_type" : "type-2259",
   "return_type" : "type-8",
   "self_type" : "type-2259",
   "source_file" : "/bionic/libc/kernel/uapi/asm-x86/asm/signal.h"
  },
  {
   "alignment" : 4,
   "linker_set_key" : "void (int, siginfo *, void *)",
   "name" : "void (int, siginfo *, void *)",
   "parameters" :
   [
    {
     "referenced_type" : "type-36"
    },
    {
     "referenced_type" : "type-2262"
    },
    {
     "referenced_type" : "type-7"
    }
   ],
   "referenced_type" : "type-2261",
   "return_type" : "type-8",
   "self_type" : "type-2261",
   "source_file" : "/bionic/libc/kernel/uapi/asm-x86/asm/signal.h"
  },
  {
   "alignment" : 4,
   "linker_set_key" : "void (sigval)",
   "name" : "void (sigval)",
   "parameters" :
   [
    {
     "referenced_type" : "type-2269"
    }
   ],
   "referenced_type" : "type-2290",
   "return_type" : "type-8",
   "self_type" : "type-2290",
   "source_file" : "/bionic/libc/kernel/uapi/asm-generic/siginfo.h"
  },
  {
   "alignment" : 4,
   "linker_set_key" : "void (void *)",
   "name" : "void (void *)",
   "parameters" :
   [
    {
     "referenced_type" : "type-7"
    }
   ],
   "referenced_type" : "type-50",
   "return_type" : "type-8",
   "self_type" : "type-50",
   "source_file" : "/frameworks/rs/rs_hal.h"
  },
  {
   "alignment" : 4,
   "linker_set_key" : "void (void *, const void *)",
   "name" : "void (void *, const void *)",
   "parameters" :
   [
    {
     "referenced_type" : "type-7"
    },
    {
     "referenced_type" : "type-150"
    }
   ],
   "referenced_type" : "type-2205",
   "return_type" : "type-8",
   "self_type" : "type-2205",
   "source_file" : "/out/soong/.intermediates/bionic/libc/libc.llndk/android_x86_vendor_shared/gen/include/malloc.h"
  },
  {
   "alignment" : 4,
   "linker_set_key" : "void *(const android::renderscript::Context *, const android::renderscript::Allocation *)",
   "name" : "void *(const android::renderscript::Context *, const android::renderscript::Allocation *)",
   "parameters" :
   [
    {
     "referenced_type" : "type-37"
    },
    {
     "referenced_type" : "type-80"
    }
   ],
   "referenced_type" : "type-220",
   "return_type" : "type-7",
   "self_type" : "type-220",
   "source_file" : "/frameworks/rs/rs_hal.h"
  },
  {
   "alignment" : 4,
   "linker_set_key" : "void *(const void *)",
   "name" : "void *(const void *)",
   "parameters" :
   [
    {
     "referenced_type" : "type-150"
    }
   ],
   "referenced_type" : "type-1888",
   "return_type" : "type-7",
   "self_type" : "type-1888",
   "source_file" : "/external/libcxx/include/functional"
  },
  {
   "alignment" : 4,
   "linker_set_key" : "void *(unsigned int, const void *)",
   "name" : "void *(unsigned int, const void *)",
   "parameters" :
   [
    {
     "referenced_type" : "type-16"
    },
    {
     "referenced_type" : "type-150"
    }
   ],
   "referenced_type" : "type-2199",
   "return_type" : "type-7",
   "self_type" : "type-2199",
   "source_file" : "/out/soong/.intermediates/bionic/libc/libc.llndk/android_x86_vendor_shared/gen/include/malloc.h"
  },
  {
   "alignment" : 4,
   "linker_set_key" : "void *(unsigned int, unsigned int)",
   "name" : "void *(unsigned int, unsigned int)",
   "parameters" :
   [
    {
     "referenced_type" : "type-16"
    },
    {
     "referenced_type" : "type-16"
    }
   ],
   "referenced_type" : "type-48",
   "return_type" : "type-7",
   "self_type" : "type-48",
   "source_file" : "/frameworks/rs/rs_hal.h"
  },
  {
   "alignment" : 4,
   "linker_set_key" : "void *(unsigned int, unsigned int, const void *)",
   "name" : "void *(unsigned int, unsigned int, const void *)",
   "parameters" :
   [
    {
     "referenced_type" : "type-16"
    },
    {
     "referenced_type" : "type-16"
    },
    {
     "referenced_type" : "type-150"
    }
   ],
   "referenced_type" : "type-2208",
   "return_type" : "type-7",
   "self_type" : "type-2208",
   "source_file" : "/out/soong/.intermediates/bionic/libc/libc.llndk/android_x86_vendor_shared/gen/include/malloc.h"
  },
  {
   "alignment" : 4,
   "linker_set_key" : "void *(void *, unsigned int, const void *)",
   "name" : "void *(void *, unsigned int, const void *)",
   "parameters" :
   [
    {
     "referenced_type" : "type-7"
    },
    {
     "referenced_type" : "type-16"
    },
    {
     "referenced_type" : "type-150"
    }
   ],
   "referenced_type" : "type-2202",
   "return_type" : "type-7",
   "self_type" : "type-2202",
   "source_file" : "/out/soong/.intermediates/bionic/libc/libc.llndk/android_x86_vendor_shared/gen/include/malloc.h"
  }
 ],
 "functions" :
 [
  {
   "function_name" : "rsIsObject",
   "linker_set_key" : "_Z10rsIsObject10rs_element",
   "parameters" :
   [
    {
     "referenced_type" : "type-745"
    }
   ],
   "return_type" : "type-27",
   "source_file" : "/frameworks/rs/driver/rsdRuntimeStubs.cpp"
  },
  {
   "function_name" : "rsIsObject",
   "linker_set_key" : "_Z10rsIsObject10rs_sampler",
   "parameters" :
   [
    {
     "referenced_type" : "type-751"
    }
   ],
   "return_type" : "type-27",
   "source_file" : "/frameworks/rs/driver/rsdRuntimeStubs.cpp"
  },
  {
   "function_name" : "rsIsObject",
   "linker_set_key" : "_Z10rsIsObject13rs_allocation",
   "parameters" :
   [
    {
     "referenced_type" : "type-750"
    }
   ],
   "return_type" : "type-27",
   "source_file" : "/frameworks/rs/driver/rsdRuntimeStubs.cpp"
  },
  {
   "function_name" : "rsIsObject",
   "linker_set_key" : "_Z10rsIsObject16rs_program_store",
   "parameters" :
   [
    {
     "referenced_type" : "type-755"
    }
   ],
   "return_type" : "type-27",
   "source_file" : "/frameworks/rs/driver/rsdRuntimeStubs.cpp"
  },
  {
   "function_name" : "rsIsObject",
   "linker_set_key" : "_Z10rsIsObject17rs_program_raster",
   "parameters" :
   [
    {
     "referenced_type" : "type-757"
    }
   ],
   "return_type" : "type-27",
   "source_file" : "/frameworks/rs/driver/rsdRuntimeStubs.cpp"
  },
  {
   "function_name" : "rsIsObject",
   "linker_set_key" : "_Z10rsIsObject17rs_program_vertex",
   "parameters" :
   [
    {
     "referenced_type" : "type-756"
    }
   ],
   "return_type" : "type-27",
   "source_file" : "/frameworks/rs/driver/rsdRuntimeStubs.cpp"
  },
  {
   "function_name" : "rsIsObject",
   "linker_set_key" : "_Z10rsIsObject19rs_program_fragment",
   "parameters" :
   [
    {
     "referenced_type" : "type-754"
    }
   ],
   "return_type" : "type-27",
   "source_file" : "/frameworks/rs/driver/rsdRuntimeStubs.cpp"
  },
  {
   "function_name" : "rsIsObject",
   "linker_set_key" : "_Z10rsIsObject7rs_font",
   "parameters" :
   [
    {
     "referenced_type" : "type-759"
    }
   ],
   "return_type" : "type-27",
   "source_file" : "/frameworks/rs/driver/rsdRuntimeStubs.cpp"
  },
  {
   "function_name" : "rsIsObject",
   "linker_set_key" : "_Z10rsIsObject7rs_mesh",
   "parameters" :
   [
    {
     "referenced_type" : "type-758"
    }
   ],
   "return_type" : "type-27",
   "source_file" : "/frameworks/rs/driver/rsdRuntimeStubs.cpp"
  },
  {
   "function_name" : "rsIsObject",
   "linker_set_key" : "_Z10rsIsObject7rs_type",
   "parameters" :
   [
    {
     "referenced_type" : "type-749"
    }
   ],
   "return_type" : "type-27",
   "source_file" : "/frameworks/rs/driver/rsdRuntimeStubs.cpp"
  },
  {
   "function_name" : "rsIsObject",
   "linker_set_key" : "_Z10rsIsObject9rs_script",
   "parameters" :
   [
    {
     "referenced_type" : "type-752"
    }
   ],
   "return_type" : "type-27",
   "source_file" : "/frameworks/rs/driver/rsdRuntimeStubs.cpp"
  },
  {
   "function_name" : "rsLocaltime",
   "linker_set_key" : "_Z11rsLocaltimeP5rs_tmPKi",
   "parameters" :
   [
    {
     "referenced_type" : "type-1023"
    },
    {
     "referenced_type" : "type-747"
    }
   ],
   "return_type" : "type-1023",
   "source_file" : "/frameworks/rs/driver/rsdRuntimeStubs.cpp"
  },
  {
   "function_name" : "rsSetObject",
   "linker_set_key" : "_Z11rsSetObjectP10rs_elementS_",
   "parameters" :
   [
    {
     "referenced_type" : "type-766"
    },
    {
     "referenced_type" : "type-745"
    }
   ],
   "return_type" : "type-8",
   "source_file" : "/frameworks/rs/driver/rsdRuntimeStubs.cpp"
  },
  {
   "function_name" : "rsSetObject",
   "linker_set_key" : "_Z11rsSetObjectP10rs_samplerS_",
   "parameters" :
   [
    {
     "referenced_type" : "type-769"
    },
    {
     "referenced_type" : "type-751"
    }
   ],
   "return_type" : "type-8",
   "source_file" : "/frameworks/rs/driver/rsdRuntimeStubs.cpp"
  },
  {
   "function_name" : "rsSetObject",
   "linker_set_key" : "_Z11rsSetObjectP13rs_allocationS_",
   "parameters" :
   [
    {
     "referenced_type" : "type-768"
    },
    {
     "referenced_type" : "type-750"
    }
   ],
   "return_type" : "type-8",
   "source_file" : "/frameworks/rs/driver/rsdRuntimeStubs.cpp"
  },
  {
   "function_name" : "rsSetObject",
   "linker_set_key" : "_Z11rsSetObjectP16rs_program_storeS_",
   "parameters" :
   [
    {
     "referenced_type" : "type-776"
    },
    {
     "referenced_type" : "type-755"
    }
   ],
   "return_type" : "type-8",
   "source_file" : "/frameworks/rs/driver/rsdRuntimeStubs.cpp"
  },
  {
   "function_name" : "rsSetObject",
   "linker_set_key" : "_Z11rsSetObjectP17rs_program_rasterS_",
   "parameters" :
   [
    {
     "referenced_type" : "type-775"
    },
    {
     "referenced_type" : "type-757"
    }
   ],
   "return_type" : "type-8",
   "source_file" : "/frameworks/rs/driver/rsdRuntimeStubs.cpp"
  },
  {
   "function_name" : "rsSetObject",
   "linker_set_key" : "_Z11rsSetObjectP17rs_program_vertexS_",
   "parameters" :
   [
    {
     "referenced_type" : "type-774"
    },
    {
     "referenced_type" : "type-756"
    }
   ],
   "return_type" : "type-8",
   "source_file" : "/frameworks/rs/driver/rsdRuntimeStubs.cpp"
  },
  {
   "function_name" : "rsSetObject",
   "linker_set_key" : "_Z11rsSetObjectP19rs_program_fragmentS_",
   "parameters" :
   [
    {
     "referenced_type" : "type-773"
    },
    {
     "referenced_type" : "type-754"
    }
   ],
   "return_type" : "type-8",
   "source_file" : "/frameworks/rs/driver/rsdRuntimeStubs.cpp"
  },
  {
   "function_name" : "rsSetObject",
   "linker_set_key" : "_Z11rsSetObjectP7rs_fontS_",
   "parameters" :
   [
    {
     "referenced_type" : "type-777"
    },
    {
     "referenced_type" : "type-759"
    }
   ],
   "return_type" : "type-8",
   "source_file" : "/frameworks/rs/driver/rsdRuntimeStubs.cpp"
  },
  {
   "function_name" : "rsSetObject",
   "linker_set_key" : "_Z11rsSetObjectP7rs_meshS_",
   "parameters" :
   [
    {
     "referenced_type" : "type-771"
    },
    {
     "referenced_type" : "type-758"
    }
   ],
   "return_type" : "type-8",
   "source_file" : "/frameworks/rs/driver/rsdRuntimeStubs.cpp"
  },
  {
   "function_name" : "rsSetObject",
   "linker_set_key" : "_Z11rsSetObjectP7rs_typeS_",
   "parameters" :
   [
    {
     "referenced_type" : "type-767"
    },
    {
     "referenced_type" : "type-749"
    }
   ],
   "return_type" : "type-8",
   "source_file" : "/frameworks/rs/driver/rsdRuntimeStubs.cpp"
  },
  {
   "function_name" : "rsSetObject",
   "linker_set_key" : "_Z11rsSetObjectP9rs_scriptS_",
   "parameters" :
   [
    {
     "referenced_type" : "type-770"
    },
    {
     "referenced_type" : "type-752"
    }
   ],
   "return_type" : "type-8",
   "source_file" : "/frameworks/rs/driver/rsdRuntimeStubs.cpp"
  },
  {
   "function_name" : "rsdGLFinish",
   "linker_set_key" : "_Z11rsdGLFinishPKN7android12renderscript7ContextE",
   "parameters" :
   [
    {
     "referenced_type" : "type-37"
    }
   ],
   "return_type" : "type-8",
   "source_file" : "/frameworks/rs/driver/rsdGL.h"
  },
  {
   "function_name" : "rsdMeshDraw",
   "linker_set_key" : "_Z11rsdMeshDrawPKN7android12renderscript7ContextEPKNS0_4MeshEjjj",
   "parameters" :
   [
    {
     "referenced_type" : "type-37"
    },
    {
     "referenced_type" : "type-3502"
    },
    {
     "referenced_type" : "type-16"
    },
    {
     "referenced_type" : "type-16"
    },
    {
     "referenced_type" : "type-16"
    }
   ],
   "return_type" : "type-8",
   "source_file" : "/frameworks/rs/driver/rsdMesh.h"
  },
  {
   "function_name" : "rsdMeshInit",
   "linker_set_key" : "_Z11rsdMeshInitPKN7android12renderscript7ContextEPKNS0_4MeshE",
   "parameters" :
   [
    {
     "referenced_type" : "type-37"
    },
    {
     "referenced_type" : "type-3502"
    }
   ],
   "return_type" : "type-27",
   "source_file" : "/frameworks/rs/driver/rsdMesh.h"
  },
  {
   "function_name" : "rsdTypeInit",
   "linker_set_key" : "_Z11rsdTypeInitPKN7android12renderscript7ContextEPKNS0_4TypeE",
   "parameters" :
   [
    {
     "referenced_type" : "type-37"
    },
    {
     "referenced_type" : "type-76"
    }
   ],
   "return_type" : "type-27",
   "source_file" : "/frameworks/rs/driver/rsdType.cpp"
  },
  {
   "function_name" : "rsgBindFont",
   "linker_set_key" : "_Z11rsgBindFont7rs_font",
   "parameters" :
   [
    {
     "referenced_type" : "type-759"
    }
   ],
   "return_type" : "type-8",
   "source_file" : "/frameworks/rs/driver/rsdRuntimeStubs.cpp"
  },
  {
   "function_name" : "rsgDrawMesh",
   "linker_set_key" : "_Z11rsgDrawMesh7rs_mesh",
   "parameters" :
   [
    {
     "referenced_type" : "type-758"
    }
   ],
   "return_type" : "type-8",
   "source_file" : "/frameworks/rs/driver/rsdRuntimeStubs.cpp"
  },
  {
   "function_name" : "rsgDrawMesh",
   "linker_set_key" : "_Z11rsgDrawMesh7rs_meshj",
   "parameters" :
   [
    {
     "referenced_type" : "type-758"
    },
    {
     "referenced_type" : "type-16"
    }
   ],
   "return_type" : "type-8",
   "source_file" : "/frameworks/rs/driver/rsdRuntimeStubs.cpp"
  },
  {
   "function_name" : "rsgDrawMesh",
   "linker_set_key" : "_Z11rsgDrawMesh7rs_meshjjj",
   "parameters" :
   [
    {
     "referenced_type" : "type-758"
    },
    {
     "referenced_type" : "type-16"
    },
    {
     "referenced_type" : "type-16"
    },
    {
     "referenced_type" : "type-16"
    }
   ],
   "return_type" : "type-8",
   "source_file" : "/frameworks/rs/driver/rsdRuntimeStubs.cpp"
  },
  {
   "function_name" : "rsgDrawQuad",
   "linker_set_key" : "_Z11rsgDrawQuadffffffffffff",
   "parameters" :
   [
    {
     "referenced_type" : "type-108"
    },
    {
     "referenced_type" : "type-108"
    },
    {
     "referenced_type" : "type-108"
    },
    {
     "referenced_type" : "type-108"
    },
    {
     "referenced_type" : "type-108"
    },
    {
     "referenced_type" : "type-108"
    },
    {
     "referenced_type" : "type-108"
    },
    {
     "referenced_type" : "type-108"
    },
    {
     "referenced_type" : "type-108"
    },
    {
     "referenced_type" : "type-108"
    },
    {
     "referenced_type" : "type-108"
    },
    {
     "referenced_type" : "type-108"
    }
   ],
   "return_type" : "type-8",
   "source_file" : "/frameworks/rs/driver/rsdRuntimeStubs.cpp"
  },
  {
   "function_name" : "rsgDrawRect",
   "linker_set_key" : "_Z11rsgDrawRectfffff",
   "parameters" :
   [
    {
     "referenced_type" : "type-108"
    },
    {
     "referenced_type" : "type-108"
    },
    {
     "referenced_type" : "type-108"
    },
    {
     "referenced_type" : "type-108"
    },
    {
     "referenced_type" : "type-108"
    }
   ],
   "return_type" : "type-8",
   "source_file" : "/frameworks/rs/driver/rsdRuntimeStubs.cpp"
  },
  {
   "function_name" : "rsgDrawText",
   "linker_set_key" : "_Z11rsgDrawText13rs_allocationii",
   "parameters" :
   [
    {
     "referenced_type" : "type-750"
    },
    {
     "referenced_type" : "type-36"
    },
    {
     "referenced_type" : "type-36"
    }
   ],
   "return_type" : "type-8",
   "source_file" : "/frameworks/rs/driver/rsdRuntimeStubs.cpp"
  },
  {
   "function_name" : "rsgDrawText",
   "linker_set_key" : "_Z11rsgDrawTextPKcii",
   "parameters" :
   [
    {
     "referenced_type" : "type-21"
    },
    {
     "referenced_type" : "type-36"
    },
    {
     "referenced_type" : "type-36"
    }
   ],
   "return_type" : "type-8",
   "source_file" : "/frameworks/rs/driver/rsdRuntimeStubs.cpp"
  },
  {
   "function_name" : "rsgGetWidth",
   "linker_set_key" : "_Z11rsgGetWidthv",
   "return_type" : "type-16",
   "source_file" : "/frameworks/rs/driver/rsdRuntimeStubs.cpp"
  },
  {
   "function_name" : "GetOffsetPtr",
   "linker_set_key" : "_Z12GetOffsetPtrPKN7android12renderscript10AllocationEjjjj23RsAllocationCubemapFace",
   "parameters" :
   [
    {
     "referenced_type" : "type-80"
    },
    {
     "referenced_type" : "type-16"
    },
    {
     "referenced_type" : "type-16"
    },
    {
     "referenced_type" : "type-16"
    },
    {
     "referenced_type" : "type-16"
    },
    {
     "referenced_type" : "type-210"
    }
   ],
   "return_type" : "type-469",
   "source_file" : "/frameworks/rs/driver/rsdAllocation.cpp"
  },
  {
   "function_name" : "rsCreateType",
   "linker_set_key" : "_Z12rsCreateType10rs_elementjjjbb13rs_yuv_format",
   "parameters" :
   [
    {
     "referenced_type" : "type-745"
    },
    {
     "referenced_type" : "type-16"
    },
    {
     "referenced_type" : "type-16"
    },
    {
     "referenced_type" : "type-16"
    },
    {
     "referenced_type" : "type-27"
    },
    {
     "referenced_type" : "type-27"
    },
    {
     "referenced_type" : "type-762"
    }
   ],
   "return_type" : "type-110",
   "source_file" : "/frameworks/rs/driver/rsdRuntimeStubs.cpp"
  },
  {
   "function_name" : "rsgFontColor",
   "linker_set_key" : "_Z12rsgFontColorffff",
   "parameters" :
   [
    {
     "referenced_type" : "type-108"
    },
    {
     "referenced_type" : "type-108"
    },
    {
     "referenced_type" : "type-108"
    },
    {
     "referenced_type" : "type-108"
    }
   ],
   "return_type" : "type-8",
   "source_file" : "/frameworks/rs/driver/rsdRuntimeStubs.cpp"
  },
  {
   "function_name" : "rsgGetHeight",
   "linker_set_key" : "_Z12rsgGetHeightv",
   "return_type" : "type-16",
   "source_file" : "/frameworks/rs/driver/rsdRuntimeStubs.cpp"
  },
  {
   "function_name" : "getConfigData",
   "linker_set_key" : "_Z13getConfigDataPKN7android12renderscript7ContextEPijj",
   "parameters" :
   [
    {
     "referenced_type" : "type-37"
    },
    {
     "referenced_type" : "type-3230"
    },
    {
     "referenced_type" : "type-16"
    },
    {
     "referenced_type" : "type-16"
    }
   ],
   "return_type" : "type-8",
   "source_file" : "/frameworks/rs/driver/rsdGL.cpp"
  },
  {
   "function_name" : "rsClearObject",
   "linker_set_key" : "_Z13rsClearObjectP10rs_element",
   "parameters" :
   [
    {
     "referenced_type" : "type-766"
    }
   ],
   "return_type" : "type-8",
   "source_file" : "/frameworks/rs/driver/rsdRuntimeStubs.cpp"
  },
  {
   "function_name" : "rsClearObject",
   "linker_set_key" : "_Z13rsClearObjectP10rs_sampler",
   "parameters" :
   [
    {
     "referenced_type" : "type-769"
    }
   ],
   "return_type" : "type-8",
   "source_file" : "/frameworks/rs/driver/rsdRuntimeStubs.cpp"
  },
  {
   "function_name" : "rsClearObject",
   "linker_set_key" : "_Z13rsClearObjectP13rs_allocation",
   "parameters" :
   [
    {
     "referenced_type" : "type-768"
    }
   ],
   "return_type" : "type-8",
   "source_file" : "/frameworks/rs/driver/rsdRuntimeStubs.cpp"
  },
  {
   "function_name" : "rsClearObject",
   "linker_set_key" : "_Z13rsClearObjectP16rs_program_store",
   "parameters" :
   [
    {
     "referenced_type" : "type-776"
    }
   ],
   "return_type" : "type-8",
   "source_file" : "/frameworks/rs/driver/rsdRuntimeStubs.cpp"
  },
  {
   "function_name" : "rsClearObject",
   "linker_set_key" : "_Z13rsClearObjectP17rs_program_raster",
   "parameters" :
   [
    {
     "referenced_type" : "type-775"
    }
   ],
   "return_type" : "type-8",
   "source_file" : "/frameworks/rs/driver/rsdRuntimeStubs.cpp"
  },
  {
   "function_name" : "rsClearObject",
   "linker_set_key" : "_Z13rsClearObjectP17rs_program_vertex",
   "parameters" :
   [
    {
     "referenced_type" : "type-774"
    }
   ],
   "return_type" : "type-8",
   "source_file" : "/frameworks/rs/driver/rsdRuntimeStubs.cpp"
  },
  {
   "function_name" : "rsClearObject",
   "linker_set_key" : "_Z13rsClearObjectP19rs_program_fragment",
   "parameters" :
   [
    {
     "referenced_type" : "type-773"
    }
   ],
   "return_type" : "type-8",
   "source_file" : "/frameworks/rs/driver/rsdRuntimeStubs.cpp"
  },
  {
   "function_name" : "rsClearObject",
   "linker_set_key" : "_Z13rsClearObjectP7rs_font",
   "parameters" :
   [
    {
     "referenced_type" : "type-777"
    }
   ],
   "return_type" : "type-8",
   "source_file" : "/frameworks/rs/driver/rsdRuntimeStubs.cpp"
  },
  {
   "function_name" : "rsClearObject",
   "linker_set_key" : "_Z13rsClearObjectP7rs_mesh",
   "parameters" :
   [
    {
     "referenced_type" : "type-771"
    }
   ],
   "return_type" : "type-8",
   "source_file" : "/frameworks/rs/driver/rsdRuntimeStubs.cpp"
  },
  {
   "function_name" : "rsClearObject",
   "linker_set_key" : "_Z13rsClearObjectP7rs_type",
   "parameters" :
   [
    {
     "referenced_type" : "type-767"
    }
   ],
   "return_type" : "type-8",
   "source_file" : "/frameworks/rs/driver/rsdRuntimeStubs.cpp"
  },
  {
   "function_name" : "rsClearObject",
   "linker_set_key" : "_Z13rsClearObjectP9rs_script",
   "parameters" :
   [
    {
     "referenced_type" : "type-770"
    }
   ],
   "return_type" : "type-8",
   "source_file" : "/frameworks/rs/driver/rsdRuntimeStubs.cpp"
  },
  {
   "function_name" : "rsUptimeNanos",
   "linker_set_key" : "_Z13rsUptimeNanosv",
   "return_type" : "type-2",
   "source_file" : "/frameworks/rs/driver/rsdRuntimeStubs.cpp"
  },
  {
   "function_name" : "rsdGLShutdown",
   "linker_set_key" : "_Z13rsdGLShutdownPKN7android12renderscript7ContextE",
   "parameters" :
   [
    {
     "referenced_type" : "type-37"
    }
   ],
   "return_type" : "type-8",
   "source_file" : "/frameworks/rs/driver/rsdGL.h"
  },
  {
   "function_name" : "rsdScriptInit",
   "linker_set_key" : "_Z13rsdScriptInitPKN7android12renderscript7ContextEPNS0_7ScriptCEPKcS7_PKhjj",
   "parameters" :
   [
    {
     "referenced_type" : "type-37"
    },
    {
     "referenced_type" : "type-54"
    },
    {
     "referenced_type" : "type-21"
    },
    {
     "referenced_type" : "type-21"
    },
    {
     "referenced_type" : "type-141"
    },
    {
     "referenced_type" : "type-16"
    },
    {
     "referenced_type" : "type-16"
    }
   ],
   "return_type" : "type-27",
   "source_file" : "/frameworks/rs/driver/rsdBcc.h"
  },
  {
   "function_name" : "rsgClearColor",
   "linker_set_key" : "_Z13rsgClearColorffff",
   "parameters" :
   [
    {
     "referenced_type" : "type-108"
    },
    {
     "referenced_type" : "type-108"
    },
    {
     "referenced_type" : "type-108"
    },
    {
     "referenced_type" : "type-108"
    }
   ],
   "return_type" : "type-8",
   "source_file" : "/frameworks/rs/driver/rsdRuntimeStubs.cpp"
  },
  {
   "function_name" : "rsgClearDepth",
   "linker_set_key" : "_Z13rsgClearDepthf",
   "parameters" :
   [
    {
     "referenced_type" : "type-108"
    }
   ],
   "return_type" : "type-8",
   "source_file" : "/frameworks/rs/driver/rsdRuntimeStubs.cpp"
  },
  {
   "function_name" : "rsGetElementAt",
   "linker_set_key" : "_Z14rsGetElementAt13rs_allocationj",
   "parameters" :
   [
    {
     "referenced_type" : "type-750"
    },
    {
     "referenced_type" : "type-16"
    }
   ],
   "return_type" : "type-150",
   "source_file" : "/frameworks/rs/driver/rsdRuntimeStubs.cpp"
  },
  {
   "function_name" : "rsGetElementAt",
   "linker_set_key" : "_Z14rsGetElementAt13rs_allocationjj",
   "parameters" :
   [
    {
     "referenced_type" : "type-750"
    },
    {
     "referenced_type" : "type-16"
    },
    {
     "referenced_type" : "type-16"
    }
   ],
   "return_type" : "type-150",
   "source_file" : "/frameworks/rs/driver/rsdRuntimeStubs.cpp"
  },
  {
   "function_name" : "rsGetElementAt",
   "linker_set_key" : "_Z14rsGetElementAt13rs_allocationjjj",
   "parameters" :
   [
    {
     "referenced_type" : "type-750"
    },
    {
     "referenced_type" : "type-16"
    },
    {
     "referenced_type" : "type-16"
    },
    {
     "referenced_type" : "type-16"
    }
   ],
   "return_type" : "type-150",
   "source_file" : "/frameworks/rs/driver/rsdRuntimeStubs.cpp"
  },
  {
   "function_name" : "rsSendToClient",
   "linker_set_key" : "_Z14rsSendToClienti",
   "parameters" :
   [
    {
     "referenced_type" : "type-36"
    }
   ],
   "return_type" : "type-16",
   "source_file" : "/frameworks/rs/driver/rsdRuntimeStubs.cpp"
  },
  {
   "function_name" : "rsSendToClient",
   "linker_set_key" : "_Z14rsSendToClientiPKvj",
   "parameters" :
   [
    {
     "referenced_type" : "type-36"
    },
    {
     "referenced_type" : "type-150"
    },
    {
     "referenced_type" : "type-16"
    }
   ],
   "return_type" : "type-16",
   "source_file" : "/frameworks/rs/driver/rsdRuntimeStubs.cpp"
  },
  {
   "function_name" : "rsSetElementAt",
   "linker_set_key" : "_Z14rsSetElementAt13rs_allocationPKvj",
   "parameters" :
   [
    {
     "referenced_type" : "type-750"
    },
    {
     "referenced_type" : "type-150"
    },
    {
     "referenced_type" : "type-16"
    }
   ],
   "return_type" : "type-8",
   "source_file" : "/frameworks/rs/driver/rsdRuntimeStubs.cpp"
  },
  {
   "function_name" : "rsSetElementAt",
   "linker_set_key" : "_Z14rsSetElementAt13rs_allocationPKvjj",
   "parameters" :
   [
    {
     "referenced_type" : "type-750"
    },
    {
     "referenced_type" : "type-150"
    },
    {
     "referenced_type" : "type-16"
    },
    {
     "referenced_type" : "type-16"
    }
   ],
   "return_type" : "type-8",
   "source_file" : "/frameworks/rs/driver/rsdRuntimeStubs.cpp"
  },
  {
   "function_name" : "rsSetElementAt",
   "linker_set_key" : "_Z14rsSetElementAt13rs_allocationPKvjjj",
   "parameters" :
   [
    {
     "referenced_type" : "type-750"
    },
    {
     "referenced_type" : "type-150"
    },
    {
     "referenced_type" : "type-16"
    },
    {
     "referenced_type" : "type-16"
    },
    {
     "referenced_type" : "type-16"
    }
   ],
   "return_type" : "type-8",
   "source_file" : "/frameworks/rs/driver/rsdRuntimeStubs.cpp"
  },
  {
   "function_name" : "rsUptimeMillis",
   "linker_set_key" : "_Z14rsUptimeMillisv",
   "return_type" : "type-2",
   "source_file" : "/frameworks/rs/driver/rsdRuntimeStubs.cpp"
  },
  {
   "function_name" : "rsdElementInit",
   "linker_set_key" : "_Z14rsdElementInitPKN7android12renderscript7ContextEPKNS0_7ElementE",
   "parameters" :
   [
    {
     "referenced_type" : "type-2958"
    },
    {
     "referenced_type" : "type-10"
    }
   ],
   "return_type" : "type-27",
   "source_file" : "/frameworks/rs/driver/rsdElement.cpp"
  },
  {
   "function_name" : "rsdMeshDestroy",
   "linker_set_key" : "_Z14rsdMeshDestroyPKN7android12renderscript7ContextEPKNS0_4MeshE",
   "parameters" :
   [
    {
     "referenced_type" : "type-37"
    },
    {
     "referenced_type" : "type-3502"
    }
   ],
   "return_type" : "type-8",
   "source_file" : "/frameworks/rs/driver/rsdMesh.h"
  },
  {
   "function_name" : "rsdSamplerInit",
   "linker_set_key" : "_Z14rsdSamplerInitPKN7android12renderscript7ContextEPKNS0_7SamplerE",
   "parameters" :
   [
    {
     "referenced_type" : "type-37"
    },
    {
     "referenced_type" : "type-278"
    }
   ],
   "return_type" : "type-27",
   "source_file" : "/frameworks/rs/driver/rsdSampler.h"
  },
  {
   "function_name" : "rsdTypeDestroy",
   "linker_set_key" : "_Z14rsdTypeDestroyPKN7android12renderscript7ContextEPKNS0_4TypeE",
   "parameters" :
   [
    {
     "referenced_type" : "type-37"
    },
    {
     "referenced_type" : "type-76"
    }
   ],
   "return_type" : "type-8",
   "source_file" : "/frameworks/rs/driver/rsdType.cpp"
  },
  {
   "function_name" : "rsgBindSampler",
   "linker_set_key" : "_Z14rsgBindSampler19rs_program_fragmentj10rs_sampler",
   "parameters" :
   [
    {
     "referenced_type" : "type-754"
    },
    {
     "referenced_type" : "type-16"
    },
    {
     "referenced_type" : "type-751"
    }
   ],
   "return_type" : "type-8",
   "source_file" : "/frameworks/rs/driver/rsdRuntimeStubs.cpp"
  },
  {
   "function_name" : "rsgBindTexture",
   "linker_set_key" : "_Z14rsgBindTexture19rs_program_fragmentj13rs_allocation",
   "parameters" :
   [
    {
     "referenced_type" : "type-754"
    },
    {
     "referenced_type" : "type-16"
    },
    {
     "referenced_type" : "type-750"
    }
   ],
   "return_type" : "type-8",
   "source_file" : "/frameworks/rs/driver/rsdRuntimeStubs.cpp"
  },
  {
   "function_name" : "rsgMeasureText",
   "linker_set_key" : "_Z14rsgMeasureText13rs_allocationPiS0_S0_S0_",
   "parameters" :
   [
    {
     "referenced_type" : "type-750"
    },
    {
     "referenced_type" : "type-3230"
    },
    {
     "referenced_type" : "type-3230"
    },
    {
     "referenced_type" : "type-3230"
    },
    {
     "referenced_type" : "type-3230"
    }
   ],
   "return_type" : "type-8",
   "source_file" : "/frameworks/rs/driver/rsdRuntimeStubs.cpp"
  },
  {
   "function_name" : "rsgMeasureText",
   "linker_set_key" : "_Z14rsgMeasureTextPKcPiS1_S1_S1_",
   "parameters" :
   [
    {
     "referenced_type" : "type-21"
    },
    {
     "referenced_type" : "type-3230"
    },
    {
     "referenced_type" : "type-3230"
    },
    {
     "referenced_type" : "type-3230"
    },
    {
     "referenced_type" : "type-3230"
    }
   ],
   "return_type" : "type-8",
   "source_file" : "/frameworks/rs/driver/rsdRuntimeStubs.cpp"
  },
  {
   "function_name" : "rsCreateElement",
   "linker_set_key" : "_Z15rsCreateElementiibj",
   "parameters" :
   [
    {
     "referenced_type" : "type-36"
    },
    {
     "referenced_type" : "type-36"
    },
    {
     "referenced_type" : "type-27"
    },
    {
     "referenced_type" : "type-16"
    }
   ],
   "return_type" : "type-112",
   "source_file" : "/frameworks/rs/driver/rsdRuntimeStubs.cpp"
  },
  {
   "function_name" : "rsGetAllocation",
   "linker_set_key" : "_Z15rsGetAllocationPKv",
   "parameters" :
   [
    {
     "referenced_type" : "type-150"
    }
   ],
   "return_type" : "type-80",
   "source_file" : "/frameworks/rs/driver/rsdRuntimeStubs.cpp"
  },
  {
   "function_name" : "rsdGLCheckError",
   "linker_set_key" : "_Z15rsdGLCheckErrorPKN7android12renderscript7ContextEPKcb",
   "parameters" :
   [
    {
     "referenced_type" : "type-37"
    },
    {
     "referenced_type" : "type-21"
    },
    {
     "default_arg" : true,
     "referenced_type" : "type-27"
    }
   ],
   "return_type" : "type-8",
   "source_file" : "/frameworks/rs/driver/rsdGL.h"
  },
  {
   "function_name" : "rsdGLClearColor",
   "linker_set_key" : "_Z15rsdGLClearColorPKN7android12renderscript7ContextEffff",
   "parameters" :
   [
    {
     "referenced_type" : "type-37"
    },
    {
     "referenced_type" : "type-108"
    },
    {
     "referenced_type" : "type-108"
    },
    {
     "referenced_type" : "type-108"
    },
    {
     "referenced_type" : "type-108"
    }
   ],
   "return_type" : "type-8",
   "source_file" : "/frameworks/rs/driver/rsdGL.h"
  },
  {
   "function_name" : "rsdGLClearDepth",
   "linker_set_key" : "_Z15rsdGLClearDepthPKN7android12renderscript7ContextEf",
   "parameters" :
   [
    {
     "referenced_type" : "type-37"
    },
    {
     "referenced_type" : "type-108"
    }
   ],
   "return_type" : "type-8",
   "source_file" : "/frameworks/rs/driver/rsdGL.h"
  },
  {
   "function_name" : "rsdGLSetSurface",
   "linker_set_key" : "_Z15rsdGLSetSurfacePKN7android12renderscript7ContextEjjPv",
   "parameters" :
   [
    {
     "referenced_type" : "type-37"
    },
    {
     "referenced_type" : "type-16"
    },
    {
     "referenced_type" : "type-16"
    },
    {
     "referenced_type" : "type-7"
    }
   ],
   "return_type" : "type-27",
   "source_file" : "/frameworks/rs/driver/rsdGL.h"
  },
  {
   "function_name" : "rsdTypeToGLType",
   "linker_set_key" : "_Z15rsdTypeToGLType10RsDataType",
   "parameters" :
   [
    {
     "referenced_type" : "type-15"
    }
   ],
   "return_type" : "type-16",
   "source_file" : "/frameworks/rs/driver/rsdAllocation.h"
  },
  {
   "function_name" : "rsgBindConstant",
   "linker_set_key" : "_Z15rsgBindConstant17rs_program_vertexj13rs_allocation",
   "parameters" :
   [
    {
     "referenced_type" : "type-756"
    },
    {
     "referenced_type" : "type-16"
    },
    {
     "referenced_type" : "type-750"
    }
   ],
   "return_type" : "type-8",
   "source_file" : "/frameworks/rs/driver/rsdRuntimeStubs.cpp"
  },
  {
   "function_name" : "rsgBindConstant",
   "linker_set_key" : "_Z15rsgBindConstant19rs_program_fragmentj13rs_allocation",
   "parameters" :
   [
    {
     "referenced_type" : "type-754"
    },
    {
     "referenced_type" : "type-16"
    },
    {
     "referenced_type" : "type-750"
    }
   ],
   "return_type" : "type-8",
   "source_file" : "/frameworks/rs/driver/rsdRuntimeStubs.cpp"
  },
  {
   "function_name" : "rsdGLSetPriority",
   "linker_set_key" : "_Z16rsdGLSetPriorityPKN7android12renderscript7ContextEi",
   "parameters" :
   [
    {
     "referenced_type" : "type-37"
    },
    {
     "referenced_type" : "type-36"
    }
   ],
   "return_type" : "type-8",
   "source_file" : "/frameworks/rs/driver/rsdGL.h"
  },
  {
   "function_name" : "rsdInitIntrinsic",
   "linker_set_key" : "_Z16rsdInitIntrinsicPKN7android12renderscript7ContextEPNS0_6ScriptE19RsScriptIntrinsicIDPNS0_7ElementE",
   "parameters" :
   [
    {
     "referenced_type" : "type-37"
    },
    {
     "referenced_type" : "type-146"
    },
    {
     "referenced_type" : "type-147"
    },
    {
     "referenced_type" : "type-112"
    }
   ],
   "return_type" : "type-27",
   "source_file" : "/frameworks/rs/driver/rsdBcc.h"
  },
  {
   "function_name" : "rsdScriptDestroy",
   "linker_set_key" : "_Z16rsdScriptDestroyPKN7android12renderscript7ContextEPNS0_6ScriptE",
   "parameters" :
   [
    {
     "referenced_type" : "type-37"
    },
    {
     "referenced_type" : "type-146"
    }
   ],
   "return_type" : "type-8",
   "source_file" : "/frameworks/rs/driver/rsdBcc.h"
  },
  {
   "function_name" : "rsForEachInternal",
   "linker_set_key" : "_Z17rsForEachInternaliP14rs_script_calliiP13rs_allocation",
   "parameters" :
   [
    {
     "referenced_type" : "type-36"
    },
    {
     "referenced_type" : "type-1020"
    },
    {
     "referenced_type" : "type-36"
    },
    {
     "referenced_type" : "type-36"
    },
    {
     "referenced_type" : "type-768"
    }
   ],
   "return_type" : "type-8",
   "source_file" : "/frameworks/rs/driver/rsdRuntimeStubs.cpp"
  },
  {
   "function_name" : "rsdAllocationInit",
   "linker_set_key" : "_Z17rsdAllocationInitPKN7android12renderscript7ContextEPNS0_10AllocationEb",
   "parameters" :
   [
    {
     "referenced_type" : "type-37"
    },
    {
     "referenced_type" : "type-72"
    },
    {
     "referenced_type" : "type-27"
    }
   ],
   "return_type" : "type-27",
   "source_file" : "/frameworks/rs/driver/rsdAllocation.h"
  },
  {
   "function_name" : "rsdElementDestroy",
   "linker_set_key" : "_Z17rsdElementDestroyPKN7android12renderscript7ContextEPKNS0_7ElementE",
   "parameters" :
   [
    {
     "referenced_type" : "type-2958"
    },
    {
     "referenced_type" : "type-10"
    }
   ],
   "return_type" : "type-8",
   "source_file" : "/frameworks/rs/driver/rsdElement.cpp"
  },
  {
   "function_name" : "rsdFreeRuntimeMem",
   "linker_set_key" : "_Z17rsdFreeRuntimeMemPv",
   "parameters" :
   [
    {
     "referenced_type" : "type-7"
    }
   ],
   "return_type" : "type-8",
   "source_file" : "/frameworks/rs/driver/rsdCore.h"
  },
  {
   "function_name" : "rsdKindToGLFormat",
   "linker_set_key" : "_Z17rsdKindToGLFormat10RsDataKind",
   "parameters" :
   [
    {
     "referenced_type" : "type-17"
    }
   ],
   "return_type" : "type-16",
   "source_file" : "/frameworks/rs/driver/rsdAllocation.h"
  },
  {
   "function_name" : "rsdSamplerDestroy",
   "linker_set_key" : "_Z17rsdSamplerDestroyPKN7android12renderscript7ContextEPKNS0_7SamplerE",
   "parameters" :
   [
    {
     "referenced_type" : "type-37"
    },
    {
     "referenced_type" : "type-278"
    }
   ],
   "return_type" : "type-8",
   "source_file" : "/frameworks/rs/driver/rsdSampler.h"
  },
  {
   "function_name" : "rsAllocationIoSend",
   "linker_set_key" : "_Z18rsAllocationIoSend13rs_allocation",
   "parameters" :
   [
    {
     "referenced_type" : "type-750"
    }
   ],
   "return_type" : "type-8",
   "source_file" : "/frameworks/rs/driver/rsdRuntimeStubs.cpp"
  },
  {
   "function_name" : "rsCreateAllocation",
   "linker_set_key" : "_Z18rsCreateAllocation7rs_type28rs_allocation_mipmap_controljPv",
   "parameters" :
   [
    {
     "referenced_type" : "type-749"
    },
    {
     "referenced_type" : "type-763"
    },
    {
     "referenced_type" : "type-16"
    },
    {
     "referenced_type" : "type-7"
    }
   ],
   "return_type" : "type-72",
   "source_file" : "/frameworks/rs/driver/rsdRuntimeStubs.cpp"
  },
  {
   "function_name" : "rsGetElementAt_int",
   "linker_set_key" : "_Z18rsGetElementAt_int13rs_allocationPij",
   "parameters" :
   [
    {
     "referenced_type" : "type-750"
    },
    {
     "referenced_type" : "type-3230"
    },
    {
     "referenced_type" : "type-16"
    }
   ],
   "return_type" : "type-8",
   "source_file" : "/frameworks/rs/driver/rsdRuntimeStubs.cpp"
  },
  {
   "function_name" : "rsGetElementAt_int",
   "linker_set_key" : "_Z18rsGetElementAt_int13rs_allocationPijj",
   "parameters" :
   [
    {
     "referenced_type" : "type-750"
    },
    {
     "referenced_type" : "type-3230"
    },
    {
     "referenced_type" : "type-16"
    },
    {
     "referenced_type" : "type-16"
    }
   ],
   "return_type" : "type-8",
   "source_file" : "/frameworks/rs/driver/rsdRuntimeStubs.cpp"
  },
  {
   "function_name" : "rsGetElementAt_int",
   "linker_set_key" : "_Z18rsGetElementAt_int13rs_allocationPijjj",
   "parameters" :
   [
    {
     "referenced_type" : "type-750"
    },
    {
     "referenced_type" : "type-3230"
    },
    {
     "referenced_type" : "type-16"
    },
    {
     "referenced_type" : "type-16"
    },
    {
     "referenced_type" : "type-16"
    }
   ],
   "return_type" : "type-8",
   "source_file" : "/frameworks/rs/driver/rsdRuntimeStubs.cpp"
  },
  {
   "function_name" : "rsSetElementAt_int",
   "linker_set_key" : "_Z18rsSetElementAt_int13rs_allocationPKij",
   "parameters" :
   [
    {
     "referenced_type" : "type-750"
    },
    {
     "referenced_type" : "type-747"
    },
    {
     "referenced_type" : "type-16"
    }
   ],
   "return_type" : "type-8",
   "source_file" : "/frameworks/rs/driver/rsdRuntimeStubs.cpp"
  },
  {
   "function_name" : "rsSetElementAt_int",
   "linker_set_key" : "_Z18rsSetElementAt_int13rs_allocationPKijj",
   "parameters" :
   [
    {
     "referenced_type" : "type-750"
    },
    {
     "referenced_type" : "type-747"
    },
    {
     "referenced_type" : "type-16"
    },
    {
     "referenced_type" : "type-16"
    }
   ],
   "return_type" : "type-8",
   "source_file" : "/frameworks/rs/driver/rsdRuntimeStubs.cpp"
  },
  {
   "function_name" : "rsSetElementAt_int",
   "linker_set_key" : "_Z18rsSetElementAt_int13rs_allocationPKijjj",
   "parameters" :
   [
    {
     "referenced_type" : "type-750"
    },
    {
     "referenced_type" : "type-747"
    },
    {
     "referenced_type" : "type-16"
    },
    {
     "referenced_type" : "type-16"
    },
    {
     "referenced_type" : "type-16"
    }
   ],
   "return_type" : "type-8",
   "source_file" : "/frameworks/rs/driver/rsdRuntimeStubs.cpp"
  },
  {
   "function_name" : "rsdAllocRuntimeMem",
   "linker_set_key" : "_Z18rsdAllocRuntimeMemjj",
   "parameters" :
   [
    {
     "referenced_type" : "type-16"
    },
    {
     "referenced_type" : "type-16"
    }
   ],
   "return_type" : "type-7",
   "source_file" : "/frameworks/rs/driver/rsdCore.h"
  },
  {
   "function_name" : "rsdFrameBufferInit",
   "linker_set_key" : "_Z18rsdFrameBufferInitPKN7android12renderscript7ContextEPKNS0_8FBOCacheE",
   "parameters" :
   [
    {
     "referenced_type" : "type-37"
    },
    {
     "referenced_type" : "type-289"
    }
   ],
   "return_type" : "type-27",
   "source_file" : "/frameworks/rs/driver/rsdFrameBuffer.h"
  },
  {
   "function_name" : "rsdScriptGroupInit",
   "linker_set_key" : "_Z18rsdScriptGroupInitPKN7android12renderscript7ContextEPNS0_15ScriptGroupBaseE",
   "parameters" :
   [
    {
     "referenced_type" : "type-37"
    },
    {
     "referenced_type" : "type-299"
    }
   ],
   "return_type" : "type-27",
   "source_file" : "/frameworks/rs/driver/rsdScriptGroup.h"
  },
  {
   "function_name" : "rsgBindColorTarget",
   "linker_set_key" : "_Z18rsgBindColorTarget13rs_allocationj",
   "parameters" :
   [
    {
     "referenced_type" : "type-750"
    },
    {
     "referenced_type" : "type-16"
    }
   ],
   "return_type" : "type-8",
   "source_file" : "/frameworks/rs/driver/rsdRuntimeStubs.cpp"
  },
  {
   "function_name" : "rsgBindDepthTarget",
   "linker_set_key" : "_Z18rsgBindDepthTarget13rs_allocation",
   "parameters" :
   [
    {
     "referenced_type" : "type-750"
    }
   ],
   "return_type" : "type-8",
   "source_file" : "/frameworks/rs/driver/rsdRuntimeStubs.cpp"
  },
  {
   "function_name" : "setColorAttachment",
   "linker_set_key" : "_Z18setColorAttachmentPKN7android12renderscript7ContextEPKNS0_8FBOCacheE",
   "parameters" :
   [
    {
     "referenced_type" : "type-37"
    },
    {
     "referenced_type" : "type-289"
    }
   ],
   "return_type" : "type-8",
   "source_file" : "/frameworks/rs/driver/rsdFrameBuffer.cpp"
  },
  {
   "function_name" : "setDepthAttachment",
   "linker_set_key" : "_Z18setDepthAttachmentPKN7android12renderscript7ContextEPKNS0_8FBOCacheE",
   "parameters" :
   [
    {
     "referenced_type" : "type-37"
    },
    {
     "referenced_type" : "type-289"
    }
   ],
   "return_type" : "type-8",
   "source_file" : "/frameworks/rs/driver/rsdFrameBuffer.cpp"
  },
  {
   "function_name" : "rsGetElementAt_char",
   "linker_set_key" : "_Z19rsGetElementAt_char13rs_allocationPcj",
   "parameters" :
   [
    {
     "referenced_type" : "type-750"
    },
    {
     "referenced_type" : "type-588"
    },
    {
     "referenced_type" : "type-16"
    }
   ],
   "return_type" : "type-8",
   "source_file" : "/frameworks/rs/driver/rsdRuntimeStubs.cpp"
  },
  {
   "function_name" : "rsGetElementAt_char",
   "linker_set_key" : "_Z19rsGetElementAt_char13rs_allocationPcjj",
   "parameters" :
   [
    {
     "referenced_type" : "type-750"
    },
    {
     "referenced_type" : "type-588"
    },
    {
     "referenced_type" : "type-16"
    },
    {
     "referenced_type" : "type-16"
    }
   ],
   "return_type" : "type-8",
   "source_file" : "/frameworks/rs/driver/rsdRuntimeStubs.cpp"
  },
  {
   "function_name" : "rsGetElementAt_char",
   "linker_set_key" : "_Z19rsGetElementAt_char13rs_allocationPcjjj",
   "parameters" :
   [
    {
     "referenced_type" : "type-750"
    },
    {
     "referenced_type" : "type-588"
    },
    {
     "referenced_type" : "type-16"
    },
    {
     "referenced_type" : "type-16"
    },
    {
     "referenced_type" : "type-16"
    }
   ],
   "return_type" : "type-8",
   "source_file" : "/frameworks/rs/driver/rsdRuntimeStubs.cpp"
  },
  {
   "function_name" : "rsGetElementAt_half",
   "linker_set_key" : "_Z19rsGetElementAt_half13rs_allocationPDhj",
   "parameters" :
   [
    {
     "referenced_type" : "type-750"
    },
    {
     "referenced_type" : "type-924"
    },
    {
     "referenced_type" : "type-16"
    }
   ],
   "return_type" : "type-8",
   "source_file" : "/frameworks/rs/driver/rsdRuntimeStubs.cpp"
  },
  {
   "function_name" : "rsGetElementAt_half",
   "linker_set_key" : "_Z19rsGetElementAt_half13rs_allocationPDhjj",
   "parameters" :
   [
    {
     "referenced_type" : "type-750"
    },
    {
     "referenced_type" : "type-924"
    },
    {
     "referenced_type" : "type-16"
    },
    {
     "referenced_type" : "type-16"
    }
   ],
   "return_type" : "type-8",
   "source_file" : "/frameworks/rs/driver/rsdRuntimeStubs.cpp"
  },
  {
   "function_name" : "rsGetElementAt_half",
   "linker_set_key" : "_Z19rsGetElementAt_half13rs_allocationPDhjjj",
   "parameters" :
   [
    {
     "referenced_type" : "type-750"
    },
    {
     "referenced_type" : "type-924"
    },
    {
     "referenced_type" : "type-16"
    },
    {
     "referenced_type" : "type-16"
    },
    {
     "referenced_type" : "type-16"
    }
   ],
   "return_type" : "type-8",
   "source_file" : "/frameworks/rs/driver/rsdRuntimeStubs.cpp"
  },
  {
   "function_name" : "rsGetElementAt_int2",
   "linker_set_key" : "_Z19rsGetElementAt_int213rs_allocationPDv2_ij",
   "parameters" :
   [
    {
     "referenced_type" : "type-750"
    },
    {
     "referenced_type" : "type-854"
    },
    {
     "referenced_type" : "type-16"
    }
   ],
   "return_type" : "type-8",
   "source_file" : "/frameworks/rs/driver/rsdRuntimeStubs.cpp"
  },
  {
   "function_name" : "rsGetElementAt_int2",
   "linker_set_key" : "_Z19rsGetElementAt_int213rs_allocationPDv2_ijj",
   "parameters" :
   [
    {
     "referenced_type" : "type-750"
    },
    {
     "referenced_type" : "type-854"
    },
    {
     "referenced_type" : "type-16"
    },
    {
     "referenced_type" : "type-16"
    }
   ],
   "return_type" : "type-8",
   "source_file" : "/frameworks/rs/driver/rsdRuntimeStubs.cpp"
  },
  {
   "function_name" : "rsGetElementAt_int2",
   "linker_set_key" : "_Z19rsGetElementAt_int213rs_allocationPDv2_ijjj",
   "parameters" :
   [
    {
     "referenced_type" : "type-750"
    },
    {
     "referenced_type" : "type-854"
    },
    {
     "referenced_type" : "type-16"
    },
    {
     "referenced_type" : "type-16"
    },
    {
     "referenced_type" : "type-16"
    }
   ],
   "return_type" : "type-8",
   "source_file" : "/frameworks/rs/driver/rsdRuntimeStubs.cpp"
  },
  {
   "function_name" : "rsGetElementAt_int3",
   "linker_set_key" : "_Z19rsGetElementAt_int313rs_allocationPDv3_ij",
   "parameters" :
   [
    {
     "referenced_type" : "type-750"
    },
    {
     "referenced_type" : "type-859"
    },
    {
     "referenced_type" : "type-16"
    }
   ],
   "return_type" : "type-8",
   "source_file" : "/frameworks/rs/driver/rsdRuntimeStubs.cpp"
  },
  {
   "function_name" : "rsGetElementAt_int3",
   "linker_set_key" : "_Z19rsGetElementAt_int313rs_allocationPDv3_ijj",
   "parameters" :
   [
    {
     "referenced_type" : "type-750"
    },
    {
     "referenced_type" : "type-859"
    },
    {
     "referenced_type" : "type-16"
    },
    {
     "referenced_type" : "type-16"
    }
   ],
   "return_type" : "type-8",
   "source_file" : "/frameworks/rs/driver/rsdRuntimeStubs.cpp"
  },
  {
   "function_name" : "rsGetElementAt_int3",
   "linker_set_key" : "_Z19rsGetElementAt_int313rs_allocationPDv3_ijjj",
   "parameters" :
   [
    {
     "referenced_type" : "type-750"
    },
    {
     "referenced_type" : "type-859"
    },
    {
     "referenced_type" : "type-16"
    },
    {
     "referenced_type" : "type-16"
    },
    {
     "referenced_type" : "type-16"
    }
   ],
   "return_type" : "type-8",
   "source_file" : "/frameworks/rs/driver/rsdRuntimeStubs.cpp"
  },
  {
   "function_name" : "rsGetElementAt_int4",
   "linker_set_key" : "_Z19rsGetElementAt_int413rs_allocationPDv4_ij",
   "parameters" :
   [
    {
     "referenced_type" : "type-750"
    },
    {
     "referenced_type" : "type-865"
    },
    {
     "referenced_type" : "type-16"
    }
   ],
   "return_type" : "type-8",
   "source_file" : "/frameworks/rs/driver/rsdRuntimeStubs.cpp"
  },
  {
   "function_name" : "rsGetElementAt_int4",
   "linker_set_key" : "_Z19rsGetElementAt_int413rs_allocationPDv4_ijj",
   "parameters" :
   [
    {
     "referenced_type" : "type-750"
    },
    {
     "referenced_type" : "type-865"
    },
    {
     "referenced_type" : "type-16"
    },
    {
     "referenced_type" : "type-16"
    }
   ],
   "return_type" : "type-8",
   "source_file" : "/frameworks/rs/driver/rsdRuntimeStubs.cpp"
  },
  {
   "function_name" : "rsGetElementAt_int4",
   "linker_set_key" : "_Z19rsGetElementAt_int413rs_allocationPDv4_ijjj",
   "parameters" :
   [
    {
     "referenced_type" : "type-750"
    },
    {
     "referenced_type" : "type-865"
    },
    {
     "referenced_type" : "type-16"
    },
    {
     "referenced_type" : "type-16"
    },
    {
     "referenced_type" : "type-16"
    }
   ],
   "return_type" : "type-8",
   "source_file" : "/frameworks/rs/driver/rsdRuntimeStubs.cpp"
  },
  {
   "function_name" : "rsGetElementAt_long",
   "linker_set_key" : "_Z19rsGetElementAt_long13rs_allocationPlj",
   "parameters" :
   [
    {
     "referenced_type" : "type-750"
    },
    {
     "referenced_type" : "type-884"
    },
    {
     "referenced_type" : "type-16"
    }
   ],
   "return_type" : "type-8",
   "source_file" : "/frameworks/rs/driver/rsdRuntimeStubs.cpp"
  },
  {
   "function_name" : "rsGetElementAt_long",
   "linker_set_key" : "_Z19rsGetElementAt_long13rs_allocationPljj",
   "parameters" :
   [
    {
     "referenced_type" : "type-750"
    },
    {
     "referenced_type" : "type-884"
    },
    {
     "referenced_type" : "type-16"
    },
    {
     "referenced_type" : "type-16"
    }
   ],
   "return_type" : "type-8",
   "source_file" : "/frameworks/rs/driver/rsdRuntimeStubs.cpp"
  },
  {
   "function_name" : "rsGetElementAt_long",
   "linker_set_key" : "_Z19rsGetElementAt_long13rs_allocationPljjj",
   "parameters" :
   [
    {
     "referenced_type" : "type-750"
    },
    {
     "referenced_type" : "type-884"
    },
    {
     "referenced_type" : "type-16"
    },
    {
     "referenced_type" : "type-16"
    },
    {
     "referenced_type" : "type-16"
    }
   ],
   "return_type" : "type-8",
   "source_file" : "/frameworks/rs/driver/rsdRuntimeStubs.cpp"
  },
  {
   "function_name" : "rsGetElementAt_long",
   "linker_set_key" : "_Z19rsGetElementAt_long13rs_allocationPxj",
   "parameters" :
   [
    {
     "referenced_type" : "type-750"
    },
    {
     "referenced_type" : "type-1019"
    },
    {
     "referenced_type" : "type-16"
    }
   ],
   "return_type" : "type-8",
   "source_file" : "/frameworks/rs/driver/rsdRuntimeStubs.cpp"
  },
  {
   "function_name" : "rsGetElementAt_long",
   "linker_set_key" : "_Z19rsGetElementAt_long13rs_allocationPxjj",
   "parameters" :
   [
    {
     "referenced_type" : "type-750"
    },
    {
     "referenced_type" : "type-1019"
    },
    {
     "referenced_type" : "type-16"
    },
    {
     "referenced_type" : "type-16"
    }
   ],
   "return_type" : "type-8",
   "source_file" : "/frameworks/rs/driver/rsdRuntimeStubs.cpp"
  },
  {
   "function_name" : "rsGetElementAt_long",
   "linker_set_key" : "_Z19rsGetElementAt_long13rs_allocationPxjjj",
   "parameters" :
   [
    {
     "referenced_type" : "type-750"
    },
    {
     "referenced_type" : "type-1019"
    },
    {
     "referenced_type" : "type-16"
    },
    {
     "referenced_type" : "type-16"
    },
    {
     "referenced_type" : "type-16"
    }
   ],
   "return_type" : "type-8",
   "source_file" : "/frameworks/rs/driver/rsdRuntimeStubs.cpp"
  },
  {
   "function_name" : "rsGetElementAt_uint",
   "linker_set_key" : "_Z19rsGetElementAt_uint13rs_allocationPjj",
   "parameters" :
   [
    {
     "referenced_type" : "type-750"
    },
    {
     "referenced_type" : "type-19"
    },
    {
     "referenced_type" : "type-16"
    }
   ],
   "return_type" : "type-8",
   "source_file" : "/frameworks/rs/driver/rsdRuntimeStubs.cpp"
  },
  {
   "function_name" : "rsGetElementAt_uint",
   "linker_set_key" : "_Z19rsGetElementAt_uint13rs_allocationPjjj",
   "parameters" :
   [
    {
     "referenced_type" : "type-750"
    },
    {
     "referenced_type" : "type-19"
    },
    {
     "referenced_type" : "type-16"
    },
    {
     "referenced_type" : "type-16"
    }
   ],
   "return_type" : "type-8",
   "source_file" : "/frameworks/rs/driver/rsdRuntimeStubs.cpp"
  },
  {
   "function_name" : "rsGetElementAt_uint",
   "linker_set_key" : "_Z19rsGetElementAt_uint13rs_allocationPjjjj",
   "parameters" :
   [
    {
     "referenced_type" : "type-750"
    },
    {
     "referenced_type" : "type-19"
    },
    {
     "referenced_type" : "type-16"
    },
    {
     "referenced_type" : "type-16"
    },
    {
     "referenced_type" : "type-16"
    }
   ],
   "return_type" : "type-8",
   "source_file" : "/frameworks/rs/driver/rsdRuntimeStubs.cpp"
  },
  {
   "function_name" : "rsSetElementAt_char",
   "linker_set_key" : "_Z19rsSetElementAt_char13rs_allocationPKcj",
   "parameters" :
   [
    {
     "referenced_type" : "type-750"
    },
    {
     "referenced_type" : "type-21"
    },
    {
     "referenced_type" : "type-16"
    }
   ],
   "return_type" : "type-8",
   "source_file" : "/frameworks/rs/driver/rsdRuntimeStubs.cpp"
  },
  {
   "function_name" : "rsSetElementAt_char",
   "linker_set_key" : "_Z19rsSetElementAt_char13rs_allocationPKcjj",
   "parameters" :
   [
    {
     "referenced_type" : "type-750"
    },
    {
     "referenced_type" : "type-21"
    },
    {
     "referenced_type" : "type-16"
    },
    {
     "referenced_type" : "type-16"
    }
   ],
   "return_type" : "type-8",
   "source_file" : "/frameworks/rs/driver/rsdRuntimeStubs.cpp"
  },
  {
   "function_name" : "rsSetElementAt_char",
   "linker_set_key" : "_Z19rsSetElementAt_char13rs_allocationPKcjjj",
   "parameters" :
   [
    {
     "referenced_type" : "type-750"
    },
    {
     "referenced_type" : "type-21"
    },
    {
     "referenced_type" : "type-16"
    },
    {
     "referenced_type" : "type-16"
    },
    {
     "referenced_type" : "type-16"
    }
   ],
   "return_type" : "type-8",
   "source_file" : "/frameworks/rs/driver/rsdRuntimeStubs.cpp"
  },
  {
   "function_name" : "rsSetElementAt_half",
   "linker_set_key" : "_Z19rsSetElementAt_half13rs_allocationPKDhj",
   "parameters" :
   [
    {
     "referenced_type" : "type-750"
    },
    {
     "referenced_type" : "type-923"
    },
    {
     "referenced_type" : "type-16"
    }
   ],
   "return_type" : "type-8",
   "source_file" : "/frameworks/rs/driver/rsdRuntimeStubs.cpp"
  },
  {
   "function_name" : "rsSetElementAt_half",
   "linker_set_key" : "_Z19rsSetElementAt_half13rs_allocationPKDhjj",
   "parameters" :
   [
    {
     "referenced_type" : "type-750"
    },
    {
     "referenced_type" : "type-923"
    },
    {
     "referenced_type" : "type-16"
    },
    {
     "referenced_type" : "type-16"
    }
   ],
   "return_type" : "type-8",
   "source_file" : "/frameworks/rs/driver/rsdRuntimeStubs.cpp"
  },
  {
   "function_name" : "rsSetElementAt_half",
   "linker_set_key" : "_Z19rsSetElementAt_half13rs_allocationPKDhjjj",
   "parameters" :
   [
    {
     "referenced_type" : "type-750"
    },
    {
     "referenced_type" : "type-923"
    },
    {
     "referenced_type" : "type-16"
    },
    {
     "referenced_type" : "type-16"
    },
    {
     "referenced_type" : "type-16"
    }
   ],
   "return_type" : "type-8",
   "source_file" : "/frameworks/rs/driver/rsdRuntimeStubs.cpp"
  },
  {
   "function_name" : "rsSetElementAt_int2",
   "linker_set_key" : "_Z19rsSetElementAt_int213rs_allocationPKDv2_ij",
   "parameters" :
   [
    {
     "referenced_type" : "type-750"
    },
    {
     "referenced_type" : "type-853"
    },
    {
     "referenced_type" : "type-16"
    }
   ],
   "return_type" : "type-8",
   "source_file" : "/frameworks/rs/driver/rsdRuntimeStubs.cpp"
  },
  {
   "function_name" : "rsSetElementAt_int2",
   "linker_set_key" : "_Z19rsSetElementAt_int213rs_allocationPKDv2_ijj",
   "parameters" :
   [
    {
     "referenced_type" : "type-750"
    },
    {
     "referenced_type" : "type-853"
    },
    {
     "referenced_type" : "type-16"
    },
    {
     "referenced_type" : "type-16"
    }
   ],
   "return_type" : "type-8",
   "source_file" : "/frameworks/rs/driver/rsdRuntimeStubs.cpp"
  },
  {
   "function_name" : "rsSetElementAt_int2",
   "linker_set_key" : "_Z19rsSetElementAt_int213rs_allocationPKDv2_ijjj",
   "parameters" :
   [
    {
     "referenced_type" : "type-750"
    },
    {
     "referenced_type" : "type-853"
    },
    {
     "referenced_type" : "type-16"
    },
    {
     "referenced_type" : "type-16"
    },
    {
     "referenced_type" : "type-16"
    }
   ],
   "return_type" : "type-8",
   "source_file" : "/frameworks/rs/driver/rsdRuntimeStubs.cpp"
  },
  {
   "function_name" : "rsSetElementAt_int3",
   "linker_set_key" : "_Z19rsSetElementAt_int313rs_allocationPKDv3_ij",
   "parameters" :
   [
    {
     "referenced_type" : "type-750"
    },
    {
     "referenced_type" : "type-858"
    },
    {
     "referenced_type" : "type-16"
    }
   ],
   "return_type" : "type-8",
   "source_file" : "/frameworks/rs/driver/rsdRuntimeStubs.cpp"
  },
  {
   "function_name" : "rsSetElementAt_int3",
   "linker_set_key" : "_Z19rsSetElementAt_int313rs_allocationPKDv3_ijj",
   "parameters" :
   [
    {
     "referenced_type" : "type-750"
    },
    {
     "referenced_type" : "type-858"
    },
    {
     "referenced_type" : "type-16"
    },
    {
     "referenced_type" : "type-16"
    }
   ],
   "return_type" : "type-8",
   "source_file" : "/frameworks/rs/driver/rsdRuntimeStubs.cpp"
  },
  {
   "function_name" : "rsSetElementAt_int3",
   "linker_set_key" : "_Z19rsSetElementAt_int313rs_allocationPKDv3_ijjj",
   "parameters" :
   [
    {
     "referenced_type" : "type-750"
    },
    {
     "referenced_type" : "type-858"
    },
    {
     "referenced_type" : "type-16"
    },
    {
     "referenced_type" : "type-16"
    },
    {
     "referenced_type" : "type-16"
    }
   ],
   "return_type" : "type-8",
   "source_file" : "/frameworks/rs/driver/rsdRuntimeStubs.cpp"
  },
  {
   "function_name" : "rsSetElementAt_int4",
   "linker_set_key" : "_Z19rsSetElementAt_int413rs_allocationPKDv4_ij",
   "parameters" :
   [
    {
     "referenced_type" : "type-750"
    },
    {
     "referenced_type" : "type-864"
    },
    {
     "referenced_type" : "type-16"
    }
   ],
   "return_type" : "type-8",
   "source_file" : "/frameworks/rs/driver/rsdRuntimeStubs.cpp"
  },
  {
   "function_name" : "rsSetElementAt_int4",
   "linker_set_key" : "_Z19rsSetElementAt_int413rs_allocationPKDv4_ijj",
   "parameters" :
   [
    {
     "referenced_type" : "type-750"
    },
    {
     "referenced_type" : "type-864"
    },
    {
     "referenced_type" : "type-16"
    },
    {
     "referenced_type" : "type-16"
    }
   ],
   "return_type" : "type-8",
   "source_file" : "/frameworks/rs/driver/rsdRuntimeStubs.cpp"
  },
  {
   "function_name" : "rsSetElementAt_int4",
   "linker_set_key" : "_Z19rsSetElementAt_int413rs_allocationPKDv4_ijjj",
   "parameters" :
   [
    {
     "referenced_type" : "type-750"
    },
    {
     "referenced_type" : "type-864"
    },
    {
     "referenced_type" : "type-16"
    },
    {
     "referenced_type" : "type-16"
    },
    {
     "referenced_type" : "type-16"
    }
   ],
   "return_type" : "type-8",
   "source_file" : "/frameworks/rs/driver/rsdRuntimeStubs.cpp"
  },
  {
   "function_name" : "rsSetElementAt_long",
   "linker_set_key" : "_Z19rsSetElementAt_long13rs_allocationPKlj",
   "parameters" :
   [
    {
     "referenced_type" : "type-750"
    },
    {
     "referenced_type" : "type-1323"
    },
    {
     "referenced_type" : "type-16"
    }
   ],
   "return_type" : "type-8",
   "source_file" : "/frameworks/rs/driver/rsdRuntimeStubs.cpp"
  },
  {
   "function_name" : "rsSetElementAt_long",
   "linker_set_key" : "_Z19rsSetElementAt_long13rs_allocationPKljj",
   "parameters" :
   [
    {
     "referenced_type" : "type-750"
    },
    {
     "referenced_type" : "type-1323"
    },
    {
     "referenced_type" : "type-16"
    },
    {
     "referenced_type" : "type-16"
    }
   ],
   "return_type" : "type-8",
   "source_file" : "/frameworks/rs/driver/rsdRuntimeStubs.cpp"
  },
  {
   "function_name" : "rsSetElementAt_long",
   "linker_set_key" : "_Z19rsSetElementAt_long13rs_allocationPKljjj",
   "parameters" :
   [
    {
     "referenced_type" : "type-750"
    },
    {
     "referenced_type" : "type-1323"
    },
    {
     "referenced_type" : "type-16"
    },
    {
     "referenced_type" : "type-16"
    },
    {
     "referenced_type" : "type-16"
    }
   ],
   "return_type" : "type-8",
   "source_file" : "/frameworks/rs/driver/rsdRuntimeStubs.cpp"
  },
  {
   "function_name" : "rsSetElementAt_long",
   "linker_set_key" : "_Z19rsSetElementAt_long13rs_allocationPKxj",
   "parameters" :
   [
    {
     "referenced_type" : "type-750"
    },
    {
     "referenced_type" : "type-1017"
    },
    {
     "referenced_type" : "type-16"
    }
   ],
   "return_type" : "type-8",
   "source_file" : "/frameworks/rs/driver/rsdRuntimeStubs.cpp"
  },
  {
   "function_name" : "rsSetElementAt_long",
   "linker_set_key" : "_Z19rsSetElementAt_long13rs_allocationPKxjj",
   "parameters" :
   [
    {
     "referenced_type" : "type-750"
    },
    {
     "referenced_type" : "type-1017"
    },
    {
     "referenced_type" : "type-16"
    },
    {
     "referenced_type" : "type-16"
    }
   ],
   "return_type" : "type-8",
   "source_file" : "/frameworks/rs/driver/rsdRuntimeStubs.cpp"
  },
  {
   "function_name" : "rsSetElementAt_long",
   "linker_set_key" : "_Z19rsSetElementAt_long13rs_allocationPKxjjj",
   "parameters" :
   [
    {
     "referenced_type" : "type-750"
    },
    {
     "referenced_type" : "type-1017"
    },
    {
     "referenced_type" : "type-16"
    },
    {
     "referenced_type" : "type-16"
    },
    {
     "referenced_type" : "type-16"
    }
   ],
   "return_type" : "type-8",
   "source_file" : "/frameworks/rs/driver/rsdRuntimeStubs.cpp"
  },
  {
   "function_name" : "rsSetElementAt_uint",
   "linker_set_key" : "_Z19rsSetElementAt_uint13rs_allocationPKjj",
   "parameters" :
   [
    {
     "referenced_type" : "type-750"
    },
    {
     "referenced_type" : "type-171"
    },
    {
     "referenced_type" : "type-16"
    }
   ],
   "return_type" : "type-8",
   "source_file" : "/frameworks/rs/driver/rsdRuntimeStubs.cpp"
  },
  {
   "function_name" : "rsSetElementAt_uint",
   "linker_set_key" : "_Z19rsSetElementAt_uint13rs_allocationPKjjj",
   "parameters" :
   [
    {
     "referenced_type" : "type-750"
    },
    {
     "referenced_type" : "type-171"
    },
    {
     "referenced_type" : "type-16"
    },
    {
     "referenced_type" : "type-16"
    }
   ],
   "return_type" : "type-8",
   "source_file" : "/frameworks/rs/driver/rsdRuntimeStubs.cpp"
  },
  {
   "function_name" : "rsSetElementAt_uint",
   "linker_set_key" : "_Z19rsSetElementAt_uint13rs_allocationPKjjjj",
   "parameters" :
   [
    {
     "referenced_type" : "type-750"
    },
    {
     "referenced_type" : "type-171"
    },
    {
     "referenced_type" : "type-16"
    },
    {
     "referenced_type" : "type-16"
    },
    {
     "referenced_type" : "type-16"
    }
   ],
   "return_type" : "type-8",
   "source_file" : "/frameworks/rs/driver/rsdRuntimeStubs.cpp"
  },
  {
   "function_name" : "rsdAllocationData1D",
   "linker_set_key" : "_Z19rsdAllocationData1DPKN7android12renderscript7ContextEPKNS0_10AllocationEjjjPKvj",
   "parameters" :
   [
    {
     "referenced_type" : "type-37"
    },
    {
     "referenced_type" : "type-80"
    },
    {
     "referenced_type" : "type-16"
    },
    {
     "referenced_type" : "type-16"
    },
    {
     "referenced_type" : "type-16"
    },
    {
     "referenced_type" : "type-150"
    },
    {
     "referenced_type" : "type-16"
    }
   ],
   "return_type" : "type-8",
   "source_file" : "/frameworks/rs/driver/rsdAllocation.h"
  },
  {
   "function_name" : "rsdAllocationData2D",
   "linker_set_key" : "_Z19rsdAllocationData2DPKN7android12renderscript7ContextEPKNS0_10AllocationEjjj23RsAllocationCubemapFacejjPKvjj",
   "parameters" :
   [
    {
     "referenced_type" : "type-37"
    },
    {
     "referenced_type" : "type-80"
    },
    {
     "referenced_type" : "type-16"
    },
    {
     "referenced_type" : "type-16"
    },
    {
     "referenced_type" : "type-16"
    },
    {
     "referenced_type" : "type-210"
    },
    {
     "referenced_type" : "type-16"
    },
    {
     "referenced_type" : "type-16"
    },
    {
     "referenced_type" : "type-150"
    },
    {
     "referenced_type" : "type-16"
    },
    {
     "referenced_type" : "type-16"
    }
   ],
   "return_type" : "type-8",
   "source_file" : "/frameworks/rs/driver/rsdAllocation.h"
  },
  {
   "function_name" : "rsdAllocationData3D",
   "linker_set_key" : "_Z19rsdAllocationData3DPKN7android12renderscript7ContextEPKNS0_10AllocationEjjjjjjjPKvjj",
   "parameters" :
   [
    {
     "referenced_type" : "type-37"
    },
    {
     "referenced_type" : "type-80"
    },
    {
     "referenced_type" : "type-16"
    },
    {
     "referenced_type" : "type-16"
    },
    {
     "referenced_type" : "type-16"
    },
    {
     "referenced_type" : "type-16"
    },
    {
     "referenced_type" : "type-16"
    },
    {
     "referenced_type" : "type-16"
    },
    {
     "referenced_type" : "type-16"
    },
    {
     "referenced_type" : "type-150"
    },
    {
     "referenced_type" : "type-16"
    },
    {
     "referenced_type" : "type-16"
    }
   ],
   "return_type" : "type-8",
   "source_file" : "/frameworks/rs/driver/rsdAllocation.h"
  },
  {
   "function_name" : "rsdAllocationIoSend",
   "linker_set_key" : "_Z19rsdAllocationIoSendPKN7android12renderscript7ContextEPNS0_10AllocationE",
   "parameters" :
   [
    {
     "referenced_type" : "type-37"
    },
    {
     "referenced_type" : "type-72"
    }
   ],
   "return_type" : "type-8",
   "source_file" : "/frameworks/rs/driver/rsdAllocation.h"
  },
  {
   "function_name" : "rsdAllocationLock1D",
   "linker_set_key" : "_Z19rsdAllocationLock1DPKN7android12renderscript7ContextEPKNS0_10AllocationE",
   "parameters" :
   [
    {
     "referenced_type" : "type-37"
    },
    {
     "referenced_type" : "type-80"
    }
   ],
   "return_type" : "type-7",
   "source_file" : "/frameworks/rs/driver/rsdAllocation.h"
  },
  {
   "function_name" : "rsdAllocationRead1D",
   "linker_set_key" : "_Z19rsdAllocationRead1DPKN7android12renderscript7ContextEPKNS0_10AllocationEjjjPvj",
   "parameters" :
   [
    {
     "referenced_type" : "type-37"
    },
    {
     "referenced_type" : "type-80"
    },
    {
     "referenced_type" : "type-16"
    },
    {
     "referenced_type" : "type-16"
    },
    {
     "referenced_type" : "type-16"
    },
    {
     "referenced_type" : "type-7"
    },
    {
     "referenced_type" : "type-16"
    }
   ],
   "return_type" : "type-8",
   "source_file" : "/frameworks/rs/driver/rsdAllocation.h"
  },
  {
   "function_name" : "rsdAllocationRead2D",
   "linker_set_key" : "_Z19rsdAllocationRead2DPKN7android12renderscript7ContextEPKNS0_10AllocationEjjj23RsAllocationCubemapFacejjPvjj",
   "parameters" :
   [
    {
     "referenced_type" : "type-37"
    },
    {
     "referenced_type" : "type-80"
    },
    {
     "referenced_type" : "type-16"
    },
    {
     "referenced_type" : "type-16"
    },
    {
     "referenced_type" : "type-16"
    },
    {
     "referenced_type" : "type-210"
    },
    {
     "referenced_type" : "type-16"
    },
    {
     "referenced_type" : "type-16"
    },
    {
     "referenced_type" : "type-7"
    },
    {
     "referenced_type" : "type-16"
    },
    {
     "referenced_type" : "type-16"
    }
   ],
   "return_type" : "type-8",
   "source_file" : "/frameworks/rs/driver/rsdAllocation.h"
  },
  {
   "function_name" : "rsdAllocationRead3D",
   "linker_set_key" : "_Z19rsdAllocationRead3DPKN7android12renderscript7ContextEPKNS0_10AllocationEjjjjjjjPvjj",
   "parameters" :
   [
    {
     "referenced_type" : "type-37"
    },
    {
     "referenced_type" : "type-80"
    },
    {
     "referenced_type" : "type-16"
    },
    {
     "referenced_type" : "type-16"
    },
    {
     "referenced_type" : "type-16"
    },
    {
     "referenced_type" : "type-16"
    },
    {
     "referenced_type" : "type-16"
    },
    {
     "referenced_type" : "type-16"
    },
    {
     "referenced_type" : "type-16"
    },
    {
     "referenced_type" : "type-7"
    },
    {
     "referenced_type" : "type-16"
    },
    {
     "referenced_type" : "type-16"
    }
   ],
   "return_type" : "type-8",
   "source_file" : "/frameworks/rs/driver/rsdAllocation.h"
  },
  {
   "function_name" : "rsdAllocationResize",
   "linker_set_key" : "_Z19rsdAllocationResizePKN7android12renderscript7ContextEPKNS0_10AllocationEPKNS0_4TypeEb",
   "parameters" :
   [
    {
     "referenced_type" : "type-37"
    },
    {
     "referenced_type" : "type-80"
    },
    {
     "referenced_type" : "type-76"
    },
    {
     "referenced_type" : "type-27"
    }
   ],
   "return_type" : "type-8",
   "source_file" : "/frameworks/rs/driver/rsdAllocation.h"
  },
  {
   "function_name" : "rsdProgramStoreInit",
   "linker_set_key" : "_Z19rsdProgramStoreInitPKN7android12renderscript7ContextEPKNS0_12ProgramStoreE",
   "parameters" :
   [
    {
     "referenced_type" : "type-37"
    },
    {
     "referenced_type" : "type-240"
    }
   ],
   "return_type" : "type-27",
   "source_file" : "/frameworks/rs/driver/rsdProgramStore.h"
  },
  {
   "function_name" : "rsdScriptInvokeInit",
   "linker_set_key" : "_Z19rsdScriptInvokeInitPKN7android12renderscript7ContextEPNS0_6ScriptE",
   "parameters" :
   [
    {
     "referenced_type" : "type-37"
    },
    {
     "referenced_type" : "type-146"
    }
   ],
   "return_type" : "type-8",
   "source_file" : "/frameworks/rs/driver/rsdBcc.h"
  },
  {
   "function_name" : "rsdScriptInvokeRoot",
   "linker_set_key" : "_Z19rsdScriptInvokeRootPKN7android12renderscript7ContextEPNS0_6ScriptE",
   "parameters" :
   [
    {
     "referenced_type" : "type-37"
    },
    {
     "referenced_type" : "type-146"
    }
   ],
   "return_type" : "type-36",
   "source_file" : "/frameworks/rs/driver/rsdBcc.h"
  },
  {
   "function_name" : "rsgBindProgramStore",
   "linker_set_key" : "_Z19rsgBindProgramStore16rs_program_store",
   "parameters" :
   [
    {
     "referenced_type" : "type-755"
    }
   ],
   "return_type" : "type-8",
   "source_file" : "/frameworks/rs/driver/rsdRuntimeStubs.cpp"
  },
  {
   "function_name" : "rsgClearColorTarget",
   "linker_set_key" : "_Z19rsgClearColorTargetj",
   "parameters" :
   [
    {
     "referenced_type" : "type-16"
    }
   ],
   "return_type" : "type-8",
   "source_file" : "/frameworks/rs/driver/rsdRuntimeStubs.cpp"
  },
  {
   "function_name" : "rsgClearDepthTarget",
   "linker_set_key" : "_Z19rsgClearDepthTargetv",
   "return_type" : "type-8",
   "source_file" : "/frameworks/rs/driver/rsdRuntimeStubs.cpp"
  },
  {
   "function_name" : "rsGetElementAt_char2",
   "linker_set_key" : "_Z20rsGetElementAt_char213rs_allocationPDv2_cj",
   "parameters" :
   [
    {
     "referenced_type" : "type-750"
    },
    {
     "referenced_type" : "type-781"
    },
    {
     "referenced_type" : "type-16"
    }
   ],
   "return_type" : "type-8",
   "source_file" : "/frameworks/rs/driver/rsdRuntimeStubs.cpp"
  },
  {
   "function_name" : "rsGetElementAt_char2",
   "linker_set_key" : "_Z20rsGetElementAt_char213rs_allocationPDv2_cjj",
   "parameters" :
   [
    {
     "referenced_type" : "type-750"
    },
    {
     "referenced_type" : "type-781"
    },
    {
     "referenced_type" : "type-16"
    },
    {
     "referenced_type" : "type-16"
    }
   ],
   "return_type" : "type-8",
   "source_file" : "/frameworks/rs/driver/rsdRuntimeStubs.cpp"
  },
  {
   "function_name" : "rsGetElementAt_char2",
   "linker_set_key" : "_Z20rsGetElementAt_char213rs_allocationPDv2_cjjj",
   "parameters" :
   [
    {
     "referenced_type" : "type-750"
    },
    {
     "referenced_type" : "type-781"
    },
    {
     "referenced_type" : "type-16"
    },
    {
     "referenced_type" : "type-16"
    },
    {
     "referenced_type" : "type-16"
    }
   ],
   "return_type" : "type-8",
   "source_file" : "/frameworks/rs/driver/rsdRuntimeStubs.cpp"
  },
  {
   "function_name" : "rsGetElementAt_char3",
   "linker_set_key" : "_Z20rsGetElementAt_char313rs_allocationPDv3_cj",
   "parameters" :
   [
    {
     "referenced_type" : "type-750"
    },
    {
     "referenced_type" : "type-787"
    },
    {
     "referenced_type" : "type-16"
    }
   ],
   "return_type" : "type-8",
   "source_file" : "/frameworks/rs/driver/rsdRuntimeStubs.cpp"
  },
  {
   "function_name" : "rsGetElementAt_char3",
   "linker_set_key" : "_Z20rsGetElementAt_char313rs_allocationPDv3_cjj",
   "parameters" :
   [
    {
     "referenced_type" : "type-750"
    },
    {
     "referenced_type" : "type-787"
    },
    {
     "referenced_type" : "type-16"
    },
    {
     "referenced_type" : "type-16"
    }
   ],
   "return_type" : "type-8",
   "source_file" : "/frameworks/rs/driver/rsdRuntimeStubs.cpp"
  },
  {
   "function_name" : "rsGetElementAt_char3",
   "linker_set_key" : "_Z20rsGetElementAt_char313rs_allocationPDv3_cjjj",
   "parameters" :
   [
    {
     "referenced_type" : "type-750"
    },
    {
     "referenced_type" : "type-787"
    },
    {
     "referenced_type" : "type-16"
    },
    {
     "referenced_type" : "type-16"
    },
    {
     "referenced_type" : "type-16"
    }
   ],
   "return_type" : "type-8",
   "source_file" : "/frameworks/rs/driver/rsdRuntimeStubs.cpp"
  },
  {
   "function_name" : "rsGetElementAt_char4",
   "linker_set_key" : "_Z20rsGetElementAt_char413rs_allocationPDv4_cj",
   "parameters" :
   [
    {
     "referenced_type" : "type-750"
    },
    {
     "referenced_type" : "type-792"
    },
    {
     "referenced_type" : "type-16"
    }
   ],
   "return_type" : "type-8",
   "source_file" : "/frameworks/rs/driver/rsdRuntimeStubs.cpp"
  },
  {
   "function_name" : "rsGetElementAt_char4",
   "linker_set_key" : "_Z20rsGetElementAt_char413rs_allocationPDv4_cjj",
   "parameters" :
   [
    {
     "referenced_type" : "type-750"
    },
    {
     "referenced_type" : "type-792"
    },
    {
     "referenced_type" : "type-16"
    },
    {
     "referenced_type" : "type-16"
    }
   ],
   "return_type" : "type-8",
   "source_file" : "/frameworks/rs/driver/rsdRuntimeStubs.cpp"
  },
  {
   "function_name" : "rsGetElementAt_char4",
   "linker_set_key" : "_Z20rsGetElementAt_char413rs_allocationPDv4_cjjj",
   "parameters" :
   [
    {
     "referenced_type" : "type-750"
    },
    {
     "referenced_type" : "type-792"
    },
    {
     "referenced_type" : "type-16"
    },
    {
     "referenced_type" : "type-16"
    },
    {
     "referenced_type" : "type-16"
    }
   ],
   "return_type" : "type-8",
   "source_file" : "/frameworks/rs/driver/rsdRuntimeStubs.cpp"
  },
  {
   "function_name" : "rsGetElementAt_float",
   "linker_set_key" : "_Z20rsGetElementAt_float13rs_allocationPfj",
   "parameters" :
   [
    {
     "referenced_type" : "type-750"
    },
    {
     "referenced_type" : "type-470"
    },
    {
     "referenced_type" : "type-16"
    }
   ],
   "return_type" : "type-8",
   "source_file" : "/frameworks/rs/driver/rsdRuntimeStubs.cpp"
  },
  {
   "function_name" : "rsGetElementAt_float",
   "linker_set_key" : "_Z20rsGetElementAt_float13rs_allocationPfjj",
   "parameters" :
   [
    {
     "referenced_type" : "type-750"
    },
    {
     "referenced_type" : "type-470"
    },
    {
     "referenced_type" : "type-16"
    },
    {
     "referenced_type" : "type-16"
    }
   ],
   "return_type" : "type-8",
   "source_file" : "/frameworks/rs/driver/rsdRuntimeStubs.cpp"
  },
  {
   "function_name" : "rsGetElementAt_float",
   "linker_set_key" : "_Z20rsGetElementAt_float13rs_allocationPfjjj",
   "parameters" :
   [
    {
     "referenced_type" : "type-750"
    },
    {
     "referenced_type" : "type-470"
    },
    {
     "referenced_type" : "type-16"
    },
    {
     "referenced_type" : "type-16"
    },
    {
     "referenced_type" : "type-16"
    }
   ],
   "return_type" : "type-8",
   "source_file" : "/frameworks/rs/driver/rsdRuntimeStubs.cpp"
  },
  {
   "function_name" : "rsGetElementAt_half2",
   "linker_set_key" : "_Z20rsGetElementAt_half213rs_allocationPDv2_Dhj",
   "parameters" :
   [
    {
     "referenced_type" : "type-750"
    },
    {
     "referenced_type" : "type-929"
    },
    {
     "referenced_type" : "type-16"
    }
   ],
   "return_type" : "type-8",
   "source_file" : "/frameworks/rs/driver/rsdRuntimeStubs.cpp"
  },
  {
   "function_name" : "rsGetElementAt_half2",
   "linker_set_key" : "_Z20rsGetElementAt_half213rs_allocationPDv2_Dhjj",
   "parameters" :
   [
    {
     "referenced_type" : "type-750"
    },
    {
     "referenced_type" : "type-929"
    },
    {
     "referenced_type" : "type-16"
    },
    {
     "referenced_type" : "type-16"
    }
   ],
   "return_type" : "type-8",
   "source_file" : "/frameworks/rs/driver/rsdRuntimeStubs.cpp"
  },
  {
   "function_name" : "rsGetElementAt_half2",
   "linker_set_key" : "_Z20rsGetElementAt_half213rs_allocationPDv2_Dhjjj",
   "parameters" :
   [
    {
     "referenced_type" : "type-750"
    },
    {
     "referenced_type" : "type-929"
    },
    {
     "referenced_type" : "type-16"
    },
    {
     "referenced_type" : "type-16"
    },
    {
     "referenced_type" : "type-16"
    }
   ],
   "return_type" : "type-8",
   "source_file" : "/frameworks/rs/driver/rsdRuntimeStubs.cpp"
  },
  {
   "function_name" : "rsGetElementAt_half3",
   "linker_set_key" : "_Z20rsGetElementAt_half313rs_allocationPDv3_Dhj",
   "parameters" :
   [
    {
     "referenced_type" : "type-750"
    },
    {
     "referenced_type" : "type-934"
    },
    {
     "referenced_type" : "type-16"
    }
   ],
   "return_type" : "type-8",
   "source_file" : "/frameworks/rs/driver/rsdRuntimeStubs.cpp"
  },
  {
   "function_name" : "rsGetElementAt_half3",
   "linker_set_key" : "_Z20rsGetElementAt_half313rs_allocationPDv3_Dhjj",
   "parameters" :
   [
    {
     "referenced_type" : "type-750"
    },
    {
     "referenced_type" : "type-934"
    },
    {
     "referenced_type" : "type-16"
    },
    {
     "referenced_type" : "type-16"
    }
   ],
   "return_type" : "type-8",
   "source_file" : "/frameworks/rs/driver/rsdRuntimeStubs.cpp"
  },
  {
   "function_name" : "rsGetElementAt_half3",
   "linker_set_key" : "_Z20rsGetElementAt_half313rs_allocationPDv3_Dhjjj",
   "parameters" :
   [
    {
     "referenced_type" : "type-750"
    },
    {
     "referenced_type" : "type-934"
    },
    {
     "referenced_type" : "type-16"
    },
    {
     "referenced_type" : "type-16"
    },
    {
     "referenced_type" : "type-16"
    }
   ],
   "return_type" : "type-8",
   "source_file" : "/frameworks/rs/driver/rsdRuntimeStubs.cpp"
  },
  {
   "function_name" : "rsGetElementAt_half4",
   "linker_set_key" : "_Z20rsGetElementAt_half413rs_allocationPDv4_Dhj",
   "parameters" :
   [
    {
     "referenced_type" : "type-750"
    },
    {
     "referenced_type" : "type-940"
    },
    {
     "referenced_type" : "type-16"
    }
   ],
   "return_type" : "type-8",
   "source_file" : "/frameworks/rs/driver/rsdRuntimeStubs.cpp"
  },
  {
   "function_name" : "rsGetElementAt_half4",
   "linker_set_key" : "_Z20rsGetElementAt_half413rs_allocationPDv4_Dhjj",
   "parameters" :
   [
    {
     "referenced_type" : "type-750"
    },
    {
     "referenced_type" : "type-940"
    },
    {
     "referenced_type" : "type-16"
    },
    {
     "referenced_type" : "type-16"
    }
   ],
   "return_type" : "type-8",
   "source_file" : "/frameworks/rs/driver/rsdRuntimeStubs.cpp"
  },
  {
   "function_name" : "rsGetElementAt_half4",
   "linker_set_key" : "_Z20rsGetElementAt_half413rs_allocationPDv4_Dhjjj",
   "parameters" :
   [
    {
     "referenced_type" : "type-750"
    },
    {
     "referenced_type" : "type-940"
    },
    {
     "referenced_type" : "type-16"
    },
    {
     "referenced_type" : "type-16"
    },
    {
     "referenced_type" : "type-16"
    }
   ],
   "return_type" : "type-8",
   "source_file" : "/frameworks/rs/driver/rsdRuntimeStubs.cpp"
  },
  {
   "function_name" : "rsGetElementAt_long2",
   "linker_set_key" : "_Z20rsGetElementAt_long213rs_allocationPDv2_lj",
   "parameters" :
   [
    {
     "referenced_type" : "type-750"
    },
    {
     "referenced_type" : "type-984"
    },
    {
     "referenced_type" : "type-16"
    }
   ],
   "return_type" : "type-8",
   "source_file" : "/frameworks/rs/driver/rsdRuntimeStubs.cpp"
  },
  {
   "function_name" : "rsGetElementAt_long2",
   "linker_set_key" : "_Z20rsGetElementAt_long213rs_allocationPDv2_ljj",
   "parameters" :
   [
    {
     "referenced_type" : "type-750"
    },
    {
     "referenced_type" : "type-984"
    },
    {
     "referenced_type" : "type-16"
    },
    {
     "referenced_type" : "type-16"
    }
   ],
   "return_type" : "type-8",
   "source_file" : "/frameworks/rs/driver/rsdRuntimeStubs.cpp"
  },
  {
   "function_name" : "rsGetElementAt_long2",
   "linker_set_key" : "_Z20rsGetElementAt_long213rs_allocationPDv2_ljjj",
   "parameters" :
   [
    {
     "referenced_type" : "type-750"
    },
    {
     "referenced_type" : "type-984"
    },
    {
     "referenced_type" : "type-16"
    },
    {
     "referenced_type" : "type-16"
    },
    {
     "referenced_type" : "type-16"
    }
   ],
   "return_type" : "type-8",
   "source_file" : "/frameworks/rs/driver/rsdRuntimeStubs.cpp"
  },
  {
   "function_name" : "rsGetElementAt_long2",
   "linker_set_key" : "_Z20rsGetElementAt_long213rs_allocationPDv2_xj",
   "parameters" :
   [
    {
     "referenced_type" : "type-750"
    },
    {
     "referenced_type" : "type-888"
    },
    {
     "referenced_type" : "type-16"
    }
   ],
   "return_type" : "type-8",
   "source_file" : "/frameworks/rs/driver/rsdRuntimeStubs.cpp"
  },
  {
   "function_name" : "rsGetElementAt_long2",
   "linker_set_key" : "_Z20rsGetElementAt_long213rs_allocationPDv2_xjj",
   "parameters" :
   [
    {
     "referenced_type" : "type-750"
    },
    {
     "referenced_type" : "type-888"
    },
    {
     "referenced_type" : "type-16"
    },
    {
     "referenced_type" : "type-16"
    }
   ],
   "return_type" : "type-8",
   "source_file" : "/frameworks/rs/driver/rsdRuntimeStubs.cpp"
  },
  {
   "function_name" : "rsGetElementAt_long2",
   "linker_set_key" : "_Z20rsGetElementAt_long213rs_allocationPDv2_xjjj",
   "parameters" :
   [
    {
     "referenced_type" : "type-750"
    },
    {
     "referenced_type" : "type-888"
    },
    {
     "referenced_type" : "type-16"
    },
    {
     "referenced_type" : "type-16"
    },
    {
     "referenced_type" : "type-16"
    }
   ],
   "return_type" : "type-8",
   "source_file" : "/frameworks/rs/driver/rsdRuntimeStubs.cpp"
  },
  {
   "function_name" : "rsGetElementAt_long3",
   "linker_set_key" : "_Z20rsGetElementAt_long313rs_allocationPDv3_lj",
   "parameters" :
   [
    {
     "referenced_type" : "type-750"
    },
    {
     "referenced_type" : "type-989"
    },
    {
     "referenced_type" : "type-16"
    }
   ],
   "return_type" : "type-8",
   "source_file" : "/frameworks/rs/driver/rsdRuntimeStubs.cpp"
  },
  {
   "function_name" : "rsGetElementAt_long3",
   "linker_set_key" : "_Z20rsGetElementAt_long313rs_allocationPDv3_ljj",
   "parameters" :
   [
    {
     "referenced_type" : "type-750"
    },
    {
     "referenced_type" : "type-989"
    },
    {
     "referenced_type" : "type-16"
    },
    {
     "referenced_type" : "type-16"
    }
   ],
   "return_type" : "type-8",
   "source_file" : "/frameworks/rs/driver/rsdRuntimeStubs.cpp"
  },
  {
   "function_name" : "rsGetElementAt_long3",
   "linker_set_key" : "_Z20rsGetElementAt_long313rs_allocationPDv3_ljjj",
   "parameters" :
   [
    {
     "referenced_type" : "type-750"
    },
    {
     "referenced_type" : "type-989"
    },
    {
     "referenced_type" : "type-16"
    },
    {
     "referenced_type" : "type-16"
    },
    {
     "referenced_type" : "type-16"
    }
   ],
   "return_type" : "type-8",
   "source_file" : "/frameworks/rs/driver/rsdRuntimeStubs.cpp"
  },
  {
   "function_name" : "rsGetElementAt_long3",
   "linker_set_key" : "_Z20rsGetElementAt_long313rs_allocationPDv3_xj",
   "parameters" :
   [
    {
     "referenced_type" : "type-750"
    },
    {
     "referenced_type" : "type-894"
    },
    {
     "referenced_type" : "type-16"
    }
   ],
   "return_type" : "type-8",
   "source_file" : "/frameworks/rs/driver/rsdRuntimeStubs.cpp"
  },
  {
   "function_name" : "rsGetElementAt_long3",
   "linker_set_key" : "_Z20rsGetElementAt_long313rs_allocationPDv3_xjj",
   "parameters" :
   [
    {
     "referenced_type" : "type-750"
    },
    {
     "referenced_type" : "type-894"
    },
    {
     "referenced_type" : "type-16"
    },
    {
     "referenced_type" : "type-16"
    }
   ],
   "return_type" : "type-8",
   "source_file" : "/frameworks/rs/driver/rsdRuntimeStubs.cpp"
  },
  {
   "function_name" : "rsGetElementAt_long3",
   "linker_set_key" : "_Z20rsGetElementAt_long313rs_allocationPDv3_xjjj",
   "parameters" :
   [
    {
     "referenced_type" : "type-750"
    },
    {
     "referenced_type" : "type-894"
    },
    {
     "referenced_type" : "type-16"
    },
    {
     "referenced_type" : "type-16"
    },
    {
     "referenced_type" : "type-16"
    }
   ],
   "return_type" : "type-8",
   "source_file" : "/frameworks/rs/driver/rsdRuntimeStubs.cpp"
  },
  {
   "function_name" : "rsGetElementAt_long4",
   "linker_set_key" : "_Z20rsGetElementAt_long413rs_allocationPDv4_lj",
   "parameters" :
   [
    {
     "referenced_type" : "type-750"
    },
    {
     "referenced_type" : "type-995"
    },
    {
     "referenced_type" : "type-16"
    }
   ],
   "return_type" : "type-8",
   "source_file" : "/frameworks/rs/driver/rsdRuntimeStubs.cpp"
  },
  {
   "function_name" : "rsGetElementAt_long4",
   "linker_set_key" : "_Z20rsGetElementAt_long413rs_allocationPDv4_ljj",
   "parameters" :
   [
    {
     "referenced_type" : "type-750"
    },
    {
     "referenced_type" : "type-995"
    },
    {
     "referenced_type" : "type-16"
    },
    {
     "referenced_type" : "type-16"
    }
   ],
   "return_type" : "type-8",
   "source_file" : "/frameworks/rs/driver/rsdRuntimeStubs.cpp"
  },
  {
   "function_name" : "rsGetElementAt_long4",
   "linker_set_key" : "_Z20rsGetElementAt_long413rs_allocationPDv4_ljjj",
   "parameters" :
   [
    {
     "referenced_type" : "type-750"
    },
    {
     "referenced_type" : "type-995"
    },
    {
     "referenced_type" : "type-16"
    },
    {
     "referenced_type" : "type-16"
    },
    {
     "referenced_type" : "type-16"
    }
   ],
   "return_type" : "type-8",
   "source_file" : "/frameworks/rs/driver/rsdRuntimeStubs.cpp"
  },
  {
   "function_name" : "rsGetElementAt_long4",
   "linker_set_key" : "_Z20rsGetElementAt_long413rs_allocationPDv4_xj",
   "parameters" :
   [
    {
     "referenced_type" : "type-750"
    },
    {
     "referenced_type" : "type-899"
    },
    {
     "referenced_type" : "type-16"
    }
   ],
   "return_type" : "type-8",
   "source_file" : "/frameworks/rs/driver/rsdRuntimeStubs.cpp"
  },
  {
   "function_name" : "rsGetElementAt_long4",
   "linker_set_key" : "_Z20rsGetElementAt_long413rs_allocationPDv4_xjj",
   "parameters" :
   [
    {
     "referenced_type" : "type-750"
    },
    {
     "referenced_type" : "type-899"
    },
    {
     "referenced_type" : "type-16"
    },
    {
     "referenced_type" : "type-16"
    }
   ],
   "return_type" : "type-8",
   "source_file" : "/frameworks/rs/driver/rsdRuntimeStubs.cpp"
  },
  {
   "function_name" : "rsGetElementAt_long4",
   "linker_set_key" : "_Z20rsGetElementAt_long413rs_allocationPDv4_xjjj",
   "parameters" :
   [
    {
     "referenced_type" : "type-750"
    },
    {
     "referenced_type" : "type-899"
    },
    {
     "referenced_type" : "type-16"
    },
    {
     "referenced_type" : "type-16"
    },
    {
     "referenced_type" : "type-16"
    }
   ],
   "return_type" : "type-8",
   "source_file" : "/frameworks/rs/driver/rsdRuntimeStubs.cpp"
  },
  {
   "function_name" : "rsGetElementAt_short",
   "linker_set_key" : "_Z20rsGetElementAt_short13rs_allocationPsj",
   "parameters" :
   [
    {
     "referenced_type" : "type-750"
    },
    {
     "referenced_type" : "type-813"
    },
    {
     "referenced_type" : "type-16"
    }
   ],
   "return_type" : "type-8",
   "source_file" : "/frameworks/rs/driver/rsdRuntimeStubs.cpp"
  },
  {
   "function_name" : "rsGetElementAt_short",
   "linker_set_key" : "_Z20rsGetElementAt_short13rs_allocationPsjj",
   "parameters" :
   [
    {
     "referenced_type" : "type-750"
    },
    {
     "referenced_type" : "type-813"
    },
    {
     "referenced_type" : "type-16"
    },
    {
     "referenced_type" : "type-16"
    }
   ],
   "return_type" : "type-8",
   "source_file" : "/frameworks/rs/driver/rsdRuntimeStubs.cpp"
  },
  {
   "function_name" : "rsGetElementAt_short",
   "linker_set_key" : "_Z20rsGetElementAt_short13rs_allocationPsjjj",
   "parameters" :
   [
    {
     "referenced_type" : "type-750"
    },
    {
     "referenced_type" : "type-813"
    },
    {
     "referenced_type" : "type-16"
    },
    {
     "referenced_type" : "type-16"
    },
    {
     "referenced_type" : "type-16"
    }
   ],
   "return_type" : "type-8",
   "source_file" : "/frameworks/rs/driver/rsdRuntimeStubs.cpp"
  },
  {
   "function_name" : "rsGetElementAt_uchar",
   "linker_set_key" : "_Z20rsGetElementAt_uchar13rs_allocationPhj",
   "parameters" :
   [
    {
     "referenced_type" : "type-750"
    },
    {
     "referenced_type" : "type-469"
    },
    {
     "referenced_type" : "type-16"
    }
   ],
   "return_type" : "type-8",
   "source_file" : "/frameworks/rs/driver/rsdRuntimeStubs.cpp"
  },
  {
   "function_name" : "rsGetElementAt_uchar",
   "linker_set_key" : "_Z20rsGetElementAt_uchar13rs_allocationPhjj",
   "parameters" :
   [
    {
     "referenced_type" : "type-750"
    },
    {
     "referenced_type" : "type-469"
    },
    {
     "referenced_type" : "type-16"
    },
    {
     "referenced_type" : "type-16"
    }
   ],
   "return_type" : "type-8",
   "source_file" : "/frameworks/rs/driver/rsdRuntimeStubs.cpp"
  },
  {
   "function_name" : "rsGetElementAt_uchar",
   "linker_set_key" : "_Z20rsGetElementAt_uchar13rs_allocationPhjjj",
   "parameters" :
   [
    {
     "referenced_type" : "type-750"
    },
    {
     "referenced_type" : "type-469"
    },
    {
     "referenced_type" : "type-16"
    },
    {
     "referenced_type" : "type-16"
    },
    {
     "referenced_type" : "type-16"
    }
   ],
   "return_type" : "type-8",
   "source_file" : "/frameworks/rs/driver/rsdRuntimeStubs.cpp"
  },
  {
   "function_name" : "rsGetElementAt_uint2",
   "linker_set_key" : "_Z20rsGetElementAt_uint213rs_allocationPDv2_jj",
   "parameters" :
   [
    {
     "referenced_type" : "type-750"
    },
    {
     "referenced_type" : "type-870"
    },
    {
     "referenced_type" : "type-16"
    }
   ],
   "return_type" : "type-8",
   "source_file" : "/frameworks/rs/driver/rsdRuntimeStubs.cpp"
  },
  {
   "function_name" : "rsGetElementAt_uint2",
   "linker_set_key" : "_Z20rsGetElementAt_uint213rs_allocationPDv2_jjj",
   "parameters" :
   [
    {
     "referenced_type" : "type-750"
    },
    {
     "referenced_type" : "type-870"
    },
    {
     "referenced_type" : "type-16"
    },
    {
     "referenced_type" : "type-16"
    }
   ],
   "return_type" : "type-8",
   "source_file" : "/frameworks/rs/driver/rsdRuntimeStubs.cpp"
  },
  {
   "function_name" : "rsGetElementAt_uint2",
   "linker_set_key" : "_Z20rsGetElementAt_uint213rs_allocationPDv2_jjjj",
   "parameters" :
   [
    {
     "referenced_type" : "type-750"
    },
    {
     "referenced_type" : "type-870"
    },
    {
     "referenced_type" : "type-16"
    },
    {
     "referenced_type" : "type-16"
    },
    {
     "referenced_type" : "type-16"
    }
   ],
   "return_type" : "type-8",
   "source_file" : "/frameworks/rs/driver/rsdRuntimeStubs.cpp"
  },
  {
   "function_name" : "rsGetElementAt_uint3",
   "linker_set_key" : "_Z20rsGetElementAt_uint313rs_allocationPDv3_jj",
   "parameters" :
   [
    {
     "referenced_type" : "type-750"
    },
    {
     "referenced_type" : "type-876"
    },
    {
     "referenced_type" : "type-16"
    }
   ],
   "return_type" : "type-8",
   "source_file" : "/frameworks/rs/driver/rsdRuntimeStubs.cpp"
  },
  {
   "function_name" : "rsGetElementAt_uint3",
   "linker_set_key" : "_Z20rsGetElementAt_uint313rs_allocationPDv3_jjj",
   "parameters" :
   [
    {
     "referenced_type" : "type-750"
    },
    {
     "referenced_type" : "type-876"
    },
    {
     "referenced_type" : "type-16"
    },
    {
     "referenced_type" : "type-16"
    }
   ],
   "return_type" : "type-8",
   "source_file" : "/frameworks/rs/driver/rsdRuntimeStubs.cpp"
  },
  {
   "function_name" : "rsGetElementAt_uint3",
   "linker_set_key" : "_Z20rsGetElementAt_uint313rs_allocationPDv3_jjjj",
   "parameters" :
   [
    {
     "referenced_type" : "type-750"
    },
    {
     "referenced_type" : "type-876"
    },
    {
     "referenced_type" : "type-16"
    },
    {
     "referenced_type" : "type-16"
    },
    {
     "referenced_type" : "type-16"
    }
   ],
   "return_type" : "type-8",
   "source_file" : "/frameworks/rs/driver/rsdRuntimeStubs.cpp"
  },
  {
   "function_name" : "rsGetElementAt_uint4",
   "linker_set_key" : "_Z20rsGetElementAt_uint413rs_allocationPDv4_jj",
   "parameters" :
   [
    {
     "referenced_type" : "type-750"
    },
    {
     "referenced_type" : "type-882"
    },
    {
     "referenced_type" : "type-16"
    }
   ],
   "return_type" : "type-8",
   "source_file" : "/frameworks/rs/driver/rsdRuntimeStubs.cpp"
  },
  {
   "function_name" : "rsGetElementAt_uint4",
   "linker_set_key" : "_Z20rsGetElementAt_uint413rs_allocationPDv4_jjj",
   "parameters" :
   [
    {
     "referenced_type" : "type-750"
    },
    {
     "referenced_type" : "type-882"
    },
    {
     "referenced_type" : "type-16"
    },
    {
     "referenced_type" : "type-16"
    }
   ],
   "return_type" : "type-8",
   "source_file" : "/frameworks/rs/driver/rsdRuntimeStubs.cpp"
  },
  {
   "function_name" : "rsGetElementAt_uint4",
   "linker_set_key" : "_Z20rsGetElementAt_uint413rs_allocationPDv4_jjjj",
   "parameters" :
   [
    {
     "referenced_type" : "type-750"
    },
    {
     "referenced_type" : "type-882"
    },
    {
     "referenced_type" : "type-16"
    },
    {
     "referenced_type" : "type-16"
    },
    {
     "referenced_type" : "type-16"
    }
   ],
   "return_type" : "type-8",
   "source_file" : "/frameworks/rs/driver/rsdRuntimeStubs.cpp"
  },
  {
   "function_name" : "rsGetElementAt_ulong",
   "linker_set_key" : "_Z20rsGetElementAt_ulong13rs_allocationPmj",
   "parameters" :
   [
    {
     "referenced_type" : "type-750"
    },
    {
     "referenced_type" : "type-999"
    },
    {
     "referenced_type" : "type-16"
    }
   ],
   "return_type" : "type-8",
   "source_file" : "/frameworks/rs/driver/rsdRuntimeStubs.cpp"
  },
  {
   "function_name" : "rsGetElementAt_ulong",
   "linker_set_key" : "_Z20rsGetElementAt_ulong13rs_allocationPmjj",
   "parameters" :
   [
    {
     "referenced_type" : "type-750"
    },
    {
     "referenced_type" : "type-999"
    },
    {
     "referenced_type" : "type-16"
    },
    {
     "referenced_type" : "type-16"
    }
   ],
   "return_type" : "type-8",
   "source_file" : "/frameworks/rs/driver/rsdRuntimeStubs.cpp"
  },
  {
   "function_name" : "rsGetElementAt_ulong",
   "linker_set_key" : "_Z20rsGetElementAt_ulong13rs_allocationPmjjj",
   "parameters" :
   [
    {
     "referenced_type" : "type-750"
    },
    {
     "referenced_type" : "type-999"
    },
    {
     "referenced_type" : "type-16"
    },
    {
     "referenced_type" : "type-16"
    },
    {
     "referenced_type" : "type-16"
    }
   ],
   "return_type" : "type-8",
   "source_file" : "/frameworks/rs/driver/rsdRuntimeStubs.cpp"
  },
  {
   "function_name" : "rsGetElementAt_ulong",
   "linker_set_key" : "_Z20rsGetElementAt_ulong13rs_allocationPyj",
   "parameters" :
   [
    {
     "referenced_type" : "type-750"
    },
    {
     "referenced_type" : "type-903"
    },
    {
     "referenced_type" : "type-16"
    }
   ],
   "return_type" : "type-8",
   "source_file" : "/frameworks/rs/driver/rsdRuntimeStubs.cpp"
  },
  {
   "function_name" : "rsGetElementAt_ulong",
   "linker_set_key" : "_Z20rsGetElementAt_ulong13rs_allocationPyjj",
   "parameters" :
   [
    {
     "referenced_type" : "type-750"
    },
    {
     "referenced_type" : "type-903"
    },
    {
     "referenced_type" : "type-16"
    },
    {
     "referenced_type" : "type-16"
    }
   ],
   "return_type" : "type-8",
   "source_file" : "/frameworks/rs/driver/rsdRuntimeStubs.cpp"
  },
  {
   "function_name" : "rsGetElementAt_ulong",
   "linker_set_key" : "_Z20rsGetElementAt_ulong13rs_allocationPyjjj",
   "parameters" :
   [
    {
     "referenced_type" : "type-750"
    },
    {
     "referenced_type" : "type-903"
    },
    {
     "referenced_type" : "type-16"
    },
    {
     "referenced_type" : "type-16"
    },
    {
     "referenced_type" : "type-16"
    }
   ],
   "return_type" : "type-8",
   "source_file" : "/frameworks/rs/driver/rsdRuntimeStubs.cpp"
  },
  {
   "function_name" : "rsSetElementAt_char2",
   "linker_set_key" : "_Z20rsSetElementAt_char213rs_allocationPKDv2_cj",
   "parameters" :
   [
    {
     "referenced_type" : "type-750"
    },
    {
     "referenced_type" : "type-780"
    },
    {
     "referenced_type" : "type-16"
    }
   ],
   "return_type" : "type-8",
   "source_file" : "/frameworks/rs/driver/rsdRuntimeStubs.cpp"
  },
  {
   "function_name" : "rsSetElementAt_char2",
   "linker_set_key" : "_Z20rsSetElementAt_char213rs_allocationPKDv2_cjj",
   "parameters" :
   [
    {
     "referenced_type" : "type-750"
    },
    {
     "referenced_type" : "type-780"
    },
    {
     "referenced_type" : "type-16"
    },
    {
     "referenced_type" : "type-16"
    }
   ],
   "return_type" : "type-8",
   "source_file" : "/frameworks/rs/driver/rsdRuntimeStubs.cpp"
  },
  {
   "function_name" : "rsSetElementAt_char2",
   "linker_set_key" : "_Z20rsSetElementAt_char213rs_allocationPKDv2_cjjj",
   "parameters" :
   [
    {
     "referenced_type" : "type-750"
    },
    {
     "referenced_type" : "type-780"
    },
    {
     "referenced_type" : "type-16"
    },
    {
     "referenced_type" : "type-16"
    },
    {
     "referenced_type" : "type-16"
    }
   ],
   "return_type" : "type-8",
   "source_file" : "/frameworks/rs/driver/rsdRuntimeStubs.cpp"
  },
  {
   "function_name" : "rsSetElementAt_char3",
   "linker_set_key" : "_Z20rsSetElementAt_char313rs_allocationPKDv3_cj",
   "parameters" :
   [
    {
     "referenced_type" : "type-750"
    },
    {
     "referenced_type" : "type-786"
    },
    {
     "referenced_type" : "type-16"
    }
   ],
   "return_type" : "type-8",
   "source_file" : "/frameworks/rs/driver/rsdRuntimeStubs.cpp"
  },
  {
   "function_name" : "rsSetElementAt_char3",
   "linker_set_key" : "_Z20rsSetElementAt_char313rs_allocationPKDv3_cjj",
   "parameters" :
   [
    {
     "referenced_type" : "type-750"
    },
    {
     "referenced_type" : "type-786"
    },
    {
     "referenced_type" : "type-16"
    },
    {
     "referenced_type" : "type-16"
    }
   ],
   "return_type" : "type-8",
   "source_file" : "/frameworks/rs/driver/rsdRuntimeStubs.cpp"
  },
  {
   "function_name" : "rsSetElementAt_char3",
   "linker_set_key" : "_Z20rsSetElementAt_char313rs_allocationPKDv3_cjjj",
   "parameters" :
   [
    {
     "referenced_type" : "type-750"
    },
    {
     "referenced_type" : "type-786"
    },
    {
     "referenced_type" : "type-16"
    },
    {
     "referenced_type" : "type-16"
    },
    {
     "referenced_type" : "type-16"
    }
   ],
   "return_type" : "type-8",
   "source_file" : "/frameworks/rs/driver/rsdRuntimeStubs.cpp"
  },
  {
   "function_name" : "rsSetElementAt_char4",
   "linker_set_key" : "_Z20rsSetElementAt_char413rs_allocationPKDv4_cj",
   "parameters" :
   [
    {
     "referenced_type" : "type-750"
    },
    {
     "referenced_type" : "type-791"
    },
    {
     "referenced_type" : "type-16"
    }
   ],
   "return_type" : "type-8",
   "source_file" : "/frameworks/rs/driver/rsdRuntimeStubs.cpp"
  },
  {
   "function_name" : "rsSetElementAt_char4",
   "linker_set_key" : "_Z20rsSetElementAt_char413rs_allocationPKDv4_cjj",
   "parameters" :
   [
    {
     "referenced_type" : "type-750"
    },
    {
     "referenced_type" : "type-791"
    },
    {
     "referenced_type" : "type-16"
    },
    {
     "referenced_type" : "type-16"
    }
   ],
   "return_type" : "type-8",
   "source_file" : "/frameworks/rs/driver/rsdRuntimeStubs.cpp"
  },
  {
   "function_name" : "rsSetElementAt_char4",
   "linker_set_key" : "_Z20rsSetElementAt_char413rs_allocationPKDv4_cjjj",
   "parameters" :
   [
    {
     "referenced_type" : "type-750"
    },
    {
     "referenced_type" : "type-791"
    },
    {
     "referenced_type" : "type-16"
    },
    {
     "referenced_type" : "type-16"
    },
    {
     "referenced_type" : "type-16"
    }
   ],
   "return_type" : "type-8",
   "source_file" : "/frameworks/rs/driver/rsdRuntimeStubs.cpp"
  },
  {
   "function_name" : "rsSetElementAt_float",
   "linker_set_key" : "_Z20rsSetElementAt_float13rs_allocationPKfj",
   "parameters" :
   [
    {
     "referenced_type" : "type-750"
    },
    {
     "referenced_type" : "type-942"
    },
    {
     "referenced_type" : "type-16"
    }
   ],
   "return_type" : "type-8",
   "source_file" : "/frameworks/rs/driver/rsdRuntimeStubs.cpp"
  },
  {
   "function_name" : "rsSetElementAt_float",
   "linker_set_key" : "_Z20rsSetElementAt_float13rs_allocationPKfjj",
   "parameters" :
   [
    {
     "referenced_type" : "type-750"
    },
    {
     "referenced_type" : "type-942"
    },
    {
     "referenced_type" : "type-16"
    },
    {
     "referenced_type" : "type-16"
    }
   ],
   "return_type" : "type-8",
   "source_file" : "/frameworks/rs/driver/rsdRuntimeStubs.cpp"
  },
  {
   "function_name" : "rsSetElementAt_float",
   "linker_set_key" : "_Z20rsSetElementAt_float13rs_allocationPKfjjj",
   "parameters" :
   [
    {
     "referenced_type" : "type-750"
    },
    {
     "referenced_type" : "type-942"
    },
    {
     "referenced_type" : "type-16"
    },
    {
     "referenced_type" : "type-16"
    },
    {
     "referenced_type" : "type-16"
    }
   ],
   "return_type" : "type-8",
   "source_file" : "/frameworks/rs/driver/rsdRuntimeStubs.cpp"
  },
  {
   "function_name" : "rsSetElementAt_half2",
   "linker_set_key" : "_Z20rsSetElementAt_half213rs_allocationPKDv2_Dhj",
   "parameters" :
   [
    {
     "referenced_type" : "type-750"
    },
    {
     "referenced_type" : "type-928"
    },
    {
     "referenced_type" : "type-16"
    }
   ],
   "return_type" : "type-8",
   "source_file" : "/frameworks/rs/driver/rsdRuntimeStubs.cpp"
  },
  {
   "function_name" : "rsSetElementAt_half2",
   "linker_set_key" : "_Z20rsSetElementAt_half213rs_allocationPKDv2_Dhjj",
   "parameters" :
   [
    {
     "referenced_type" : "type-750"
    },
    {
     "referenced_type" : "type-928"
    },
    {
     "referenced_type" : "type-16"
    },
    {
     "referenced_type" : "type-16"
    }
   ],
   "return_type" : "type-8",
   "source_file" : "/frameworks/rs/driver/rsdRuntimeStubs.cpp"
  },
  {
   "function_name" : "rsSetElementAt_half2",
   "linker_set_key" : "_Z20rsSetElementAt_half213rs_allocationPKDv2_Dhjjj",
   "parameters" :
   [
    {
     "referenced_type" : "type-750"
    },
    {
     "referenced_type" : "type-928"
    },
    {
     "referenced_type" : "type-16"
    },
    {
     "referenced_type" : "type-16"
    },
    {
     "referenced_type" : "type-16"
    }
   ],
   "return_type" : "type-8",
   "source_file" : "/frameworks/rs/driver/rsdRuntimeStubs.cpp"
  },
  {
   "function_name" : "rsSetElementAt_half3",
   "linker_set_key" : "_Z20rsSetElementAt_half313rs_allocationPKDv3_Dhj",
   "parameters" :
   [
    {
     "referenced_type" : "type-750"
    },
    {
     "referenced_type" : "type-933"
    },
    {
     "referenced_type" : "type-16"
    }
   ],
   "return_type" : "type-8",
   "source_file" : "/frameworks/rs/driver/rsdRuntimeStubs.cpp"
  },
  {
   "function_name" : "rsSetElementAt_half3",
   "linker_set_key" : "_Z20rsSetElementAt_half313rs_allocationPKDv3_Dhjj",
   "parameters" :
   [
    {
     "referenced_type" : "type-750"
    },
    {
     "referenced_type" : "type-933"
    },
    {
     "referenced_type" : "type-16"
    },
    {
     "referenced_type" : "type-16"
    }
   ],
   "return_type" : "type-8",
   "source_file" : "/frameworks/rs/driver/rsdRuntimeStubs.cpp"
  },
  {
   "function_name" : "rsSetElementAt_half3",
   "linker_set_key" : "_Z20rsSetElementAt_half313rs_allocationPKDv3_Dhjjj",
   "parameters" :
   [
    {
     "referenced_type" : "type-750"
    },
    {
     "referenced_type" : "type-933"
    },
    {
     "referenced_type" : "type-16"
    },
    {
     "referenced_type" : "type-16"
    },
    {
     "referenced_type" : "type-16"
    }
   ],
   "return_type" : "type-8",
   "source_file" : "/frameworks/rs/driver/rsdRuntimeStubs.cpp"
  },
  {
   "function_name" : "rsSetElementAt_half4",
   "linker_set_key" : "_Z20rsSetElementAt_half413rs_allocationPKDv4_Dhj",
   "parameters" :
   [
    {
     "referenced_type" : "type-750"
    },
    {
     "referenced_type" : "type-939"
    },
    {
     "referenced_type" : "type-16"
    }
   ],
   "return_type" : "type-8",
   "source_file" : "/frameworks/rs/driver/rsdRuntimeStubs.cpp"
  },
  {
   "function_name" : "rsSetElementAt_half4",
   "linker_set_key" : "_Z20rsSetElementAt_half413rs_allocationPKDv4_Dhjj",
   "parameters" :
   [
    {
     "referenced_type" : "type-750"
    },
    {
     "referenced_type" : "type-939"
    },
    {
     "referenced_type" : "type-16"
    },
    {
     "referenced_type" : "type-16"
    }
   ],
   "return_type" : "type-8",
   "source_file" : "/frameworks/rs/driver/rsdRuntimeStubs.cpp"
  },
  {
   "function_name" : "rsSetElementAt_half4",
   "linker_set_key" : "_Z20rsSetElementAt_half413rs_allocationPKDv4_Dhjjj",
   "parameters" :
   [
    {
     "referenced_type" : "type-750"
    },
    {
     "referenced_type" : "type-939"
    },
    {
     "referenced_type" : "type-16"
    },
    {
     "referenced_type" : "type-16"
    },
    {
     "referenced_type" : "type-16"
    }
   ],
   "return_type" : "type-8",
   "source_file" : "/frameworks/rs/driver/rsdRuntimeStubs.cpp"
  },
  {
   "function_name" : "rsSetElementAt_long2",
   "linker_set_key" : "_Z20rsSetElementAt_long213rs_allocationPKDv2_lj",
   "parameters" :
   [
    {
     "referenced_type" : "type-750"
    },
    {
     "referenced_type" : "type-983"
    },
    {
     "referenced_type" : "type-16"
    }
   ],
   "return_type" : "type-8",
   "source_file" : "/frameworks/rs/driver/rsdRuntimeStubs.cpp"
  },
  {
   "function_name" : "rsSetElementAt_long2",
   "linker_set_key" : "_Z20rsSetElementAt_long213rs_allocationPKDv2_ljj",
   "parameters" :
   [
    {
     "referenced_type" : "type-750"
    },
    {
     "referenced_type" : "type-983"
    },
    {
     "referenced_type" : "type-16"
    },
    {
     "referenced_type" : "type-16"
    }
   ],
   "return_type" : "type-8",
   "source_file" : "/frameworks/rs/driver/rsdRuntimeStubs.cpp"
  },
  {
   "function_name" : "rsSetElementAt_long2",
   "linker_set_key" : "_Z20rsSetElementAt_long213rs_allocationPKDv2_ljjj",
   "parameters" :
   [
    {
     "referenced_type" : "type-750"
    },
    {
     "referenced_type" : "type-983"
    },
    {
     "referenced_type" : "type-16"
    },
    {
     "referenced_type" : "type-16"
    },
    {
     "referenced_type" : "type-16"
    }
   ],
   "return_type" : "type-8",
   "source_file" : "/frameworks/rs/driver/rsdRuntimeStubs.cpp"
  },
  {
   "function_name" : "rsSetElementAt_long2",
   "linker_set_key" : "_Z20rsSetElementAt_long213rs_allocationPKDv2_xj",
   "parameters" :
   [
    {
     "referenced_type" : "type-750"
    },
    {
     "referenced_type" : "type-887"
    },
    {
     "referenced_type" : "type-16"
    }
   ],
   "return_type" : "type-8",
   "source_file" : "/frameworks/rs/driver/rsdRuntimeStubs.cpp"
  },
  {
   "function_name" : "rsSetElementAt_long2",
   "linker_set_key" : "_Z20rsSetElementAt_long213rs_allocationPKDv2_xjj",
   "parameters" :
   [
    {
     "referenced_type" : "type-750"
    },
    {
     "referenced_type" : "type-887"
    },
    {
     "referenced_type" : "type-16"
    },
    {
     "referenced_type" : "type-16"
    }
   ],
   "return_type" : "type-8",
   "source_file" : "/frameworks/rs/driver/rsdRuntimeStubs.cpp"
  },
  {
   "function_name" : "rsSetElementAt_long2",
   "linker_set_key" : "_Z20rsSetElementAt_long213rs_allocationPKDv2_xjjj",
   "parameters" :
   [
    {
     "referenced_type" : "type-750"
    },
    {
     "referenced_type" : "type-887"
    },
    {
     "referenced_type" : "type-16"
    },
    {
     "referenced_type" : "type-16"
    },
    {
     "referenced_type" : "type-16"
    }
   ],
   "return_type" : "type-8",
   "source_file" : "/frameworks/rs/driver/rsdRuntimeStubs.cpp"
  },
  {
   "function_name" : "rsSetElementAt_long3",
   "linker_set_key" : "_Z20rsSetElementAt_long313rs_allocationPKDv3_lj",
   "parameters" :
   [
    {
     "referenced_type" : "type-750"
    },
    {
     "referenced_type" : "type-988"
    },
    {
     "referenced_type" : "type-16"
    }
   ],
   "return_type" : "type-8",
   "source_file" : "/frameworks/rs/driver/rsdRuntimeStubs.cpp"
  },
  {
   "function_name" : "rsSetElementAt_long3",
   "linker_set_key" : "_Z20rsSetElementAt_long313rs_allocationPKDv3_ljj",
   "parameters" :
   [
    {
     "referenced_type" : "type-750"
    },
    {
     "referenced_type" : "type-988"
    },
    {
     "referenced_type" : "type-16"
    },
    {
     "referenced_type" : "type-16"
    }
   ],
   "return_type" : "type-8",
   "source_file" : "/frameworks/rs/driver/rsdRuntimeStubs.cpp"
  },
  {
   "function_name" : "rsSetElementAt_long3",
   "linker_set_key" : "_Z20rsSetElementAt_long313rs_allocationPKDv3_ljjj",
   "parameters" :
   [
    {
     "referenced_type" : "type-750"
    },
    {
     "referenced_type" : "type-988"
    },
    {
     "referenced_type" : "type-16"
    },
    {
     "referenced_type" : "type-16"
    },
    {
     "referenced_type" : "type-16"
    }
   ],
   "return_type" : "type-8",
   "source_file" : "/frameworks/rs/driver/rsdRuntimeStubs.cpp"
  },
  {
   "function_name" : "rsSetElementAt_long3",
   "linker_set_key" : "_Z20rsSetElementAt_long313rs_allocationPKDv3_xj",
   "parameters" :
   [
    {
     "referenced_type" : "type-750"
    },
    {
     "referenced_type" : "type-893"
    },
    {
     "referenced_type" : "type-16"
    }
   ],
   "return_type" : "type-8",
   "source_file" : "/frameworks/rs/driver/rsdRuntimeStubs.cpp"
  },
  {
   "function_name" : "rsSetElementAt_long3",
   "linker_set_key" : "_Z20rsSetElementAt_long313rs_allocationPKDv3_xjj",
   "parameters" :
   [
    {
     "referenced_type" : "type-750"
    },
    {
     "referenced_type" : "type-893"
    },
    {
     "referenced_type" : "type-16"
    },
    {
     "referenced_type" : "type-16"
    }
   ],
   "return_type" : "type-8",
   "source_file" : "/frameworks/rs/driver/rsdRuntimeStubs.cpp"
  },
  {
   "function_name" : "rsSetElementAt_long3",
   "linker_set_key" : "_Z20rsSetElementAt_long313rs_allocationPKDv3_xjjj",
   "parameters" :
   [
    {
     "referenced_type" : "type-750"
    },
    {
     "referenced_type" : "type-893"
    },
    {
     "referenced_type" : "type-16"
    },
    {
     "referenced_type" : "type-16"
    },
    {
     "referenced_type" : "type-16"
    }
   ],
   "return_type" : "type-8",
   "source_file" : "/frameworks/rs/driver/rsdRuntimeStubs.cpp"
  },
  {
   "function_name" : "rsSetElementAt_long4",
   "linker_set_key" : "_Z20rsSetElementAt_long413rs_allocationPKDv4_lj",
   "parameters" :
   [
    {
     "referenced_type" : "type-750"
    },
    {
     "referenced_type" : "type-994"
    },
    {
     "referenced_type" : "type-16"
    }
   ],
   "return_type" : "type-8",
   "source_file" : "/frameworks/rs/driver/rsdRuntimeStubs.cpp"
  },
  {
   "function_name" : "rsSetElementAt_long4",
   "linker_set_key" : "_Z20rsSetElementAt_long413rs_allocationPKDv4_ljj",
   "parameters" :
   [
    {
     "referenced_type" : "type-750"
    },
    {
     "referenced_type" : "type-994"
    },
    {
     "referenced_type" : "type-16"
    },
    {
     "referenced_type" : "type-16"
    }
   ],
   "return_type" : "type-8",
   "source_file" : "/frameworks/rs/driver/rsdRuntimeStubs.cpp"
  },
  {
   "function_name" : "rsSetElementAt_long4",
   "linker_set_key" : "_Z20rsSetElementAt_long413rs_allocationPKDv4_ljjj",
   "parameters" :
   [
    {
     "referenced_type" : "type-750"
    },
    {
     "referenced_type" : "type-994"
    },
    {
     "referenced_type" : "type-16"
    },
    {
     "referenced_type" : "type-16"
    },
    {
     "referenced_type" : "type-16"
    }
   ],
   "return_type" : "type-8",
   "source_file" : "/frameworks/rs/driver/rsdRuntimeStubs.cpp"
  },
  {
   "function_name" : "rsSetElementAt_long4",
   "linker_set_key" : "_Z20rsSetElementAt_long413rs_allocationPKDv4_xj",
   "parameters" :
   [
    {
     "referenced_type" : "type-750"
    },
    {
     "referenced_type" : "type-898"
    },
    {
     "referenced_type" : "type-16"
    }
   ],
   "return_type" : "type-8",
   "source_file" : "/frameworks/rs/driver/rsdRuntimeStubs.cpp"
  },
  {
   "function_name" : "rsSetElementAt_long4",
   "linker_set_key" : "_Z20rsSetElementAt_long413rs_allocationPKDv4_xjj",
   "parameters" :
   [
    {
     "referenced_type" : "type-750"
    },
    {
     "referenced_type" : "type-898"
    },
    {
     "referenced_type" : "type-16"
    },
    {
     "referenced_type" : "type-16"
    }
   ],
   "return_type" : "type-8",
   "source_file" : "/frameworks/rs/driver/rsdRuntimeStubs.cpp"
  },
  {
   "function_name" : "rsSetElementAt_long4",
   "linker_set_key" : "_Z20rsSetElementAt_long413rs_allocationPKDv4_xjjj",
   "parameters" :
   [
    {
     "referenced_type" : "type-750"
    },
    {
     "referenced_type" : "type-898"
    },
    {
     "referenced_type" : "type-16"
    },
    {
     "referenced_type" : "type-16"
    },
    {
     "referenced_type" : "type-16"
    }
   ],
   "return_type" : "type-8",
   "source_file" : "/frameworks/rs/driver/rsdRuntimeStubs.cpp"
  },
  {
   "function_name" : "rsSetElementAt_short",
   "linker_set_key" : "_Z20rsSetElementAt_short13rs_allocationPKsj",
   "parameters" :
   [
    {
     "referenced_type" : "type-750"
    },
    {
     "referenced_type" : "type-811"
    },
    {
     "referenced_type" : "type-16"
    }
   ],
   "return_type" : "type-8",
   "source_file" : "/frameworks/rs/driver/rsdRuntimeStubs.cpp"
  },
  {
   "function_name" : "rsSetElementAt_short",
   "linker_set_key" : "_Z20rsSetElementAt_short13rs_allocationPKsjj",
   "parameters" :
   [
    {
     "referenced_type" : "type-750"
    },
    {
     "referenced_type" : "type-811"
    },
    {
     "referenced_type" : "type-16"
    },
    {
     "referenced_type" : "type-16"
    }
   ],
   "return_type" : "type-8",
   "source_file" : "/frameworks/rs/driver/rsdRuntimeStubs.cpp"
  },
  {
   "function_name" : "rsSetElementAt_short",
   "linker_set_key" : "_Z20rsSetElementAt_short13rs_allocationPKsjjj",
   "parameters" :
   [
    {
     "referenced_type" : "type-750"
    },
    {
     "referenced_type" : "type-811"
    },
    {
     "referenced_type" : "type-16"
    },
    {
     "referenced_type" : "type-16"
    },
    {
     "referenced_type" : "type-16"
    }
   ],
   "return_type" : "type-8",
   "source_file" : "/frameworks/rs/driver/rsdRuntimeStubs.cpp"
  },
  {
   "function_name" : "rsSetElementAt_uchar",
   "linker_set_key" : "_Z20rsSetElementAt_uchar13rs_allocationPKhj",
   "parameters" :
   [
    {
     "referenced_type" : "type-750"
    },
    {
     "referenced_type" : "type-141"
    },
    {
     "referenced_type" : "type-16"
    }
   ],
   "return_type" : "type-8",
   "source_file" : "/frameworks/rs/driver/rsdRuntimeStubs.cpp"
  },
  {
   "function_name" : "rsSetElementAt_uchar",
   "linker_set_key" : "_Z20rsSetElementAt_uchar13rs_allocationPKhjj",
   "parameters" :
   [
    {
     "referenced_type" : "type-750"
    },
    {
     "referenced_type" : "type-141"
    },
    {
     "referenced_type" : "type-16"
    },
    {
     "referenced_type" : "type-16"
    }
   ],
   "return_type" : "type-8",
   "source_file" : "/frameworks/rs/driver/rsdRuntimeStubs.cpp"
  },
  {
   "function_name" : "rsSetElementAt_uchar",
   "linker_set_key" : "_Z20rsSetElementAt_uchar13rs_allocationPKhjjj",
   "parameters" :
   [
    {
     "referenced_type" : "type-750"
    },
    {
     "referenced_type" : "type-141"
    },
    {
     "referenced_type" : "type-16"
    },
    {
     "referenced_type" : "type-16"
    },
    {
     "referenced_type" : "type-16"
    }
   ],
   "return_type" : "type-8",
   "source_file" : "/frameworks/rs/driver/rsdRuntimeStubs.cpp"
  },
  {
   "function_name" : "rsSetElementAt_uint2",
   "linker_set_key" : "_Z20rsSetElementAt_uint213rs_allocationPKDv2_jj",
   "parameters" :
   [
    {
     "referenced_type" : "type-750"
    },
    {
     "referenced_type" : "type-869"
    },
    {
     "referenced_type" : "type-16"
    }
   ],
   "return_type" : "type-8",
   "source_file" : "/frameworks/rs/driver/rsdRuntimeStubs.cpp"
  },
  {
   "function_name" : "rsSetElementAt_uint2",
   "linker_set_key" : "_Z20rsSetElementAt_uint213rs_allocationPKDv2_jjj",
   "parameters" :
   [
    {
     "referenced_type" : "type-750"
    },
    {
     "referenced_type" : "type-869"
    },
    {
     "referenced_type" : "type-16"
    },
    {
     "referenced_type" : "type-16"
    }
   ],
   "return_type" : "type-8",
   "source_file" : "/frameworks/rs/driver/rsdRuntimeStubs.cpp"
  },
  {
   "function_name" : "rsSetElementAt_uint2",
   "linker_set_key" : "_Z20rsSetElementAt_uint213rs_allocationPKDv2_jjjj",
   "parameters" :
   [
    {
     "referenced_type" : "type-750"
    },
    {
     "referenced_type" : "type-869"
    },
    {
     "referenced_type" : "type-16"
    },
    {
     "referenced_type" : "type-16"
    },
    {
     "referenced_type" : "type-16"
    }
   ],
   "return_type" : "type-8",
   "source_file" : "/frameworks/rs/driver/rsdRuntimeStubs.cpp"
  },
  {
   "function_name" : "rsSetElementAt_uint3",
   "linker_set_key" : "_Z20rsSetElementAt_uint313rs_allocationPKDv3_jj",
   "parameters" :
   [
    {
     "referenced_type" : "type-750"
    },
    {
     "referenced_type" : "type-875"
    },
    {
     "referenced_type" : "type-16"
    }
   ],
   "return_type" : "type-8",
   "source_file" : "/frameworks/rs/driver/rsdRuntimeStubs.cpp"
  },
  {
   "function_name" : "rsSetElementAt_uint3",
   "linker_set_key" : "_Z20rsSetElementAt_uint313rs_allocationPKDv3_jjj",
   "parameters" :
   [
    {
     "referenced_type" : "type-750"
    },
    {
     "referenced_type" : "type-875"
    },
    {
     "referenced_type" : "type-16"
    },
    {
     "referenced_type" : "type-16"
    }
   ],
   "return_type" : "type-8",
   "source_file" : "/frameworks/rs/driver/rsdRuntimeStubs.cpp"
  },
  {
   "function_name" : "rsSetElementAt_uint3",
   "linker_set_key" : "_Z20rsSetElementAt_uint313rs_allocationPKDv3_jjjj",
   "parameters" :
   [
    {
     "referenced_type" : "type-750"
    },
    {
     "referenced_type" : "type-875"
    },
    {
     "referenced_type" : "type-16"
    },
    {
     "referenced_type" : "type-16"
    },
    {
     "referenced_type" : "type-16"
    }
   ],
   "return_type" : "type-8",
   "source_file" : "/frameworks/rs/driver/rsdRuntimeStubs.cpp"
  },
  {
   "function_name" : "rsSetElementAt_uint4",
   "linker_set_key" : "_Z20rsSetElementAt_uint413rs_allocationPKDv4_jj",
   "parameters" :
   [
    {
     "referenced_type" : "type-750"
    },
    {
     "referenced_type" : "type-880"
    },
    {
     "referenced_type" : "type-16"
    }
   ],
   "return_type" : "type-8",
   "source_file" : "/frameworks/rs/driver/rsdRuntimeStubs.cpp"
  },
  {
   "function_name" : "rsSetElementAt_uint4",
   "linker_set_key" : "_Z20rsSetElementAt_uint413rs_allocationPKDv4_jjj",
   "parameters" :
   [
    {
     "referenced_type" : "type-750"
    },
    {
     "referenced_type" : "type-880"
    },
    {
     "referenced_type" : "type-16"
    },
    {
     "referenced_type" : "type-16"
    }
   ],
   "return_type" : "type-8",
   "source_file" : "/frameworks/rs/driver/rsdRuntimeStubs.cpp"
  },
  {
   "function_name" : "rsSetElementAt_uint4",
   "linker_set_key" : "_Z20rsSetElementAt_uint413rs_allocationPKDv4_jjjj",
   "parameters" :
   [
    {
     "referenced_type" : "type-750"
    },
    {
     "referenced_type" : "type-880"
    },
    {
     "referenced_type" : "type-16"
    },
    {
     "referenced_type" : "type-16"
    },
    {
     "referenced_type" : "type-16"
    }
   ],
   "return_type" : "type-8",
   "source_file" : "/frameworks/rs/driver/rsdRuntimeStubs.cpp"
  },
  {
   "function_name" : "rsSetElementAt_ulong",
   "linker_set_key" : "_Z20rsSetElementAt_ulong13rs_allocationPKmj",
   "parameters" :
   [
    {
     "referenced_type" : "type-750"
    },
    {
     "referenced_type" : "type-998"
    },
    {
     "referenced_type" : "type-16"
    }
   ],
   "return_type" : "type-8",
   "source_file" : "/frameworks/rs/driver/rsdRuntimeStubs.cpp"
  },
  {
   "function_name" : "rsSetElementAt_ulong",
   "linker_set_key" : "_Z20rsSetElementAt_ulong13rs_allocationPKmjj",
   "parameters" :
   [
    {
     "referenced_type" : "type-750"
    },
    {
     "referenced_type" : "type-998"
    },
    {
     "referenced_type" : "type-16"
    },
    {
     "referenced_type" : "type-16"
    }
   ],
   "return_type" : "type-8",
   "source_file" : "/frameworks/rs/driver/rsdRuntimeStubs.cpp"
  },
  {
   "function_name" : "rsSetElementAt_ulong",
   "linker_set_key" : "_Z20rsSetElementAt_ulong13rs_allocationPKmjjj",
   "parameters" :
   [
    {
     "referenced_type" : "type-750"
    },
    {
     "referenced_type" : "type-998"
    },
    {
     "referenced_type" : "type-16"
    },
    {
     "referenced_type" : "type-16"
    },
    {
     "referenced_type" : "type-16"
    }
   ],
   "return_type" : "type-8",
   "source_file" : "/frameworks/rs/driver/rsdRuntimeStubs.cpp"
  },
  {
   "function_name" : "rsSetElementAt_ulong",
   "linker_set_key" : "_Z20rsSetElementAt_ulong13rs_allocationPKyj",
   "parameters" :
   [
    {
     "referenced_type" : "type-750"
    },
    {
     "referenced_type" : "type-901"
    },
    {
     "referenced_type" : "type-16"
    }
   ],
   "return_type" : "type-8",
   "source_file" : "/frameworks/rs/driver/rsdRuntimeStubs.cpp"
  },
  {
   "function_name" : "rsSetElementAt_ulong",
   "linker_set_key" : "_Z20rsSetElementAt_ulong13rs_allocationPKyjj",
   "parameters" :
   [
    {
     "referenced_type" : "type-750"
    },
    {
     "referenced_type" : "type-901"
    },
    {
     "referenced_type" : "type-16"
    },
    {
     "referenced_type" : "type-16"
    }
   ],
   "return_type" : "type-8",
   "source_file" : "/frameworks/rs/driver/rsdRuntimeStubs.cpp"
  },
  {
   "function_name" : "rsSetElementAt_ulong",
   "linker_set_key" : "_Z20rsSetElementAt_ulong13rs_allocationPKyjjj",
   "parameters" :
   [
    {
     "referenced_type" : "type-750"
    },
    {
     "referenced_type" : "type-901"
    },
    {
     "referenced_type" : "type-16"
    },
    {
     "referenced_type" : "type-16"
    },
    {
     "referenced_type" : "type-16"
    }
   ],
   "return_type" : "type-8",
   "source_file" : "/frameworks/rs/driver/rsdRuntimeStubs.cpp"
  },
  {
   "function_name" : "rsdAllocationDestroy",
   "linker_set_key" : "_Z20rsdAllocationDestroyPKN7android12renderscript7ContextEPNS0_10AllocationE",
   "parameters" :
   [
    {
     "referenced_type" : "type-37"
    },
    {
     "referenced_type" : "type-72"
    }
   ],
   "return_type" : "type-8",
   "source_file" : "/frameworks/rs/driver/rsdAllocation.h"
  },
  {
   "function_name" : "rsdAllocationSyncAll",
   "linker_set_key" : "_Z20rsdAllocationSyncAllPKN7android12renderscript7ContextEPKNS0_10AllocationE21RsAllocationUsageType",
   "parameters" :
   [
    {
     "referenced_type" : "type-37"
    },
    {
     "referenced_type" : "type-80"
    },
    {
     "referenced_type" : "type-199"
    }
   ],
   "return_type" : "type-8",
   "source_file" : "/frameworks/rs/driver/rsdAllocation.h"
  },
  {
   "function_name" : "rsdLookupRuntimeStub",
   "linker_set_key" : "_Z20rsdLookupRuntimeStubPN7android12renderscript7ContextEPKc",
   "parameters" :
   [
    {
     "referenced_type" : "type-30"
    },
    {
     "referenced_type" : "type-21"
    }
   ],
   "return_type" : "type-1025",
   "source_file" : "/frameworks/rs/driver/rsdRuntimeStubs.cpp"
  },
  {
   "function_name" : "rsdProgramRasterInit",
   "linker_set_key" : "_Z20rsdProgramRasterInitPKN7android12renderscript7ContextEPKNS0_13ProgramRasterE",
   "parameters" :
   [
    {
     "referenced_type" : "type-37"
    },
    {
     "referenced_type" : "type-247"
    }
   ],
   "return_type" : "type-27",
   "source_file" : "/frameworks/rs/driver/rsdProgramRaster.cpp"
  },
  {
   "function_name" : "rsdProgramVertexInit",
   "linker_set_key" : "_Z20rsdProgramVertexInitPKN7android12renderscript7ContextEPKNS0_13ProgramVertexEPKcjPS8_jPKj",
   "parameters" :
   [
    {
     "referenced_type" : "type-37"
    },
    {
     "referenced_type" : "type-254"
    },
    {
     "referenced_type" : "type-21"
    },
    {
     "referenced_type" : "type-16"
    },
    {
     "referenced_type" : "type-20"
    },
    {
     "referenced_type" : "type-16"
    },
    {
     "referenced_type" : "type-171"
    }
   ],
   "return_type" : "type-27",
   "source_file" : "/frameworks/rs/driver/rsdProgramVertex.h"
  },
  {
   "function_name" : "rsgAllocationSyncAll",
   "linker_set_key" : "_Z20rsgAllocationSyncAll13rs_allocation",
   "parameters" :
   [
    {
     "referenced_type" : "type-750"
    }
   ],
   "return_type" : "type-8",
   "source_file" : "/frameworks/rs/driver/rsdRuntimeStubs.cpp"
  },
  {
   "function_name" : "rsgAllocationSyncAll",
   "linker_set_key" : "_Z20rsgAllocationSyncAll13rs_allocation24rs_allocation_usage_type",
   "parameters" :
   [
    {
     "referenced_type" : "type-750"
    },
    {
     "referenced_type" : "type-764"
    }
   ],
   "return_type" : "type-8",
   "source_file" : "/frameworks/rs/driver/rsdRuntimeStubs.cpp"
  },
  {
   "function_name" : "rsgAllocationSyncAll",
   "linker_set_key" : "_Z20rsgAllocationSyncAll13rs_allocationj",
   "parameters" :
   [
    {
     "referenced_type" : "type-750"
    },
    {
     "referenced_type" : "type-16"
    }
   ],
   "return_type" : "type-8",
   "source_file" : "/frameworks/rs/driver/rsdRuntimeStubs.cpp"
  },
  {
   "function_name" : "rsgBindProgramRaster",
   "linker_set_key" : "_Z20rsgBindProgramRaster17rs_program_raster",
   "parameters" :
   [
    {
     "referenced_type" : "type-757"
    }
   ],
   "return_type" : "type-8",
   "source_file" : "/frameworks/rs/driver/rsdRuntimeStubs.cpp"
  },
  {
   "function_name" : "rsgBindProgramVertex",
   "linker_set_key" : "_Z20rsgBindProgramVertex17rs_program_vertex",
   "parameters" :
   [
    {
     "referenced_type" : "type-756"
    }
   ],
   "return_type" : "type-8",
   "source_file" : "/frameworks/rs/driver/rsdRuntimeStubs.cpp"
  },
  {
   "function_name" : "rsgDrawQuadTexCoords",
   "linker_set_key" : "_Z20rsgDrawQuadTexCoordsffffffffffffffffffff",
   "parameters" :
   [
    {
     "referenced_type" : "type-108"
    },
    {
     "referenced_type" : "type-108"
    },
    {
     "referenced_type" : "type-108"
    },
    {
     "referenced_type" : "type-108"
    },
    {
     "referenced_type" : "type-108"
    },
    {
     "referenced_type" : "type-108"
    },
    {
     "referenced_type" : "type-108"
    },
    {
     "referenced_type" : "type-108"
    },
    {
     "referenced_type" : "type-108"
    },
    {
     "referenced_type" : "type-108"
    },
    {
     "referenced_type" : "type-108"
    },
    {
     "referenced_type" : "type-108"
    },
    {
     "referenced_type" : "type-108"
    },
    {
     "referenced_type" : "type-108"
    },
    {
     "referenced_type" : "type-108"
    },
    {
     "referenced_type" : "type-108"
    },
    {
     "referenced_type" : "type-108"
    },
    {
     "referenced_type" : "type-108"
    },
    {
     "referenced_type" : "type-108"
    },
    {
     "referenced_type" : "type-108"
    }
   ],
   "return_type" : "type-8",
   "source_file" : "/frameworks/rs/driver/rsdRuntimeStubs.cpp"
  },
  {
   "function_name" : "rsAllocationIoReceive",
   "linker_set_key" : "_Z21rsAllocationIoReceive13rs_allocation",
   "parameters" :
   [
    {
     "referenced_type" : "type-750"
    }
   ],
   "return_type" : "type-8",
   "source_file" : "/frameworks/rs/driver/rsdRuntimeStubs.cpp"
  },
  {
   "function_name" : "rsAllocationMarkDirty",
   "linker_set_key" : "_Z21rsAllocationMarkDirty13rs_allocation",
   "parameters" :
   [
    {
     "referenced_type" : "type-750"
    }
   ],
   "return_type" : "type-8",
   "source_file" : "/frameworks/rs/driver/rsdRuntimeStubs.cpp"
  },
  {
   "function_name" : "rsGetElementAt_double",
   "linker_set_key" : "_Z21rsGetElementAt_double13rs_allocationPdj",
   "parameters" :
   [
    {
     "referenced_type" : "type-750"
    },
    {
     "referenced_type" : "type-963"
    },
    {
     "referenced_type" : "type-16"
    }
   ],
   "return_type" : "type-8",
   "source_file" : "/frameworks/rs/driver/rsdRuntimeStubs.cpp"
  },
  {
   "function_name" : "rsGetElementAt_double",
   "linker_set_key" : "_Z21rsGetElementAt_double13rs_allocationPdjj",
   "parameters" :
   [
    {
     "referenced_type" : "type-750"
    },
    {
     "referenced_type" : "type-963"
    },
    {
     "referenced_type" : "type-16"
    },
    {
     "referenced_type" : "type-16"
    }
   ],
   "return_type" : "type-8",
   "source_file" : "/frameworks/rs/driver/rsdRuntimeStubs.cpp"
  },
  {
   "function_name" : "rsGetElementAt_double",
   "linker_set_key" : "_Z21rsGetElementAt_double13rs_allocationPdjjj",
   "parameters" :
   [
    {
     "referenced_type" : "type-750"
    },
    {
     "referenced_type" : "type-963"
    },
    {
     "referenced_type" : "type-16"
    },
    {
     "referenced_type" : "type-16"
    },
    {
     "referenced_type" : "type-16"
    }
   ],
   "return_type" : "type-8",
   "source_file" : "/frameworks/rs/driver/rsdRuntimeStubs.cpp"
  },
  {
   "function_name" : "rsGetElementAt_float2",
   "linker_set_key" : "_Z21rsGetElementAt_float213rs_allocationPDv2_fj",
   "parameters" :
   [
    {
     "referenced_type" : "type-750"
    },
    {
     "referenced_type" : "type-947"
    },
    {
     "referenced_type" : "type-16"
    }
   ],
   "return_type" : "type-8",
   "source_file" : "/frameworks/rs/driver/rsdRuntimeStubs.cpp"
  },
  {
   "function_name" : "rsGetElementAt_float2",
   "linker_set_key" : "_Z21rsGetElementAt_float213rs_allocationPDv2_fjj",
   "parameters" :
   [
    {
     "referenced_type" : "type-750"
    },
    {
     "referenced_type" : "type-947"
    },
    {
     "referenced_type" : "type-16"
    },
    {
     "referenced_type" : "type-16"
    }
   ],
   "return_type" : "type-8",
   "source_file" : "/frameworks/rs/driver/rsdRuntimeStubs.cpp"
  },
  {
   "function_name" : "rsGetElementAt_float2",
   "linker_set_key" : "_Z21rsGetElementAt_float213rs_allocationPDv2_fjjj",
   "parameters" :
   [
    {
     "referenced_type" : "type-750"
    },
    {
     "referenced_type" : "type-947"
    },
    {
     "referenced_type" : "type-16"
    },
    {
     "referenced_type" : "type-16"
    },
    {
     "referenced_type" : "type-16"
    }
   ],
   "return_type" : "type-8",
   "source_file" : "/frameworks/rs/driver/rsdRuntimeStubs.cpp"
  },
  {
   "function_name" : "rsGetElementAt_float3",
   "linker_set_key" : "_Z21rsGetElementAt_float313rs_allocationPDv3_fj",
   "parameters" :
   [
    {
     "referenced_type" : "type-750"
    },
    {
     "referenced_type" : "type-953"
    },
    {
     "referenced_type" : "type-16"
    }
   ],
   "return_type" : "type-8",
   "source_file" : "/frameworks/rs/driver/rsdRuntimeStubs.cpp"
  },
  {
   "function_name" : "rsGetElementAt_float3",
   "linker_set_key" : "_Z21rsGetElementAt_float313rs_allocationPDv3_fjj",
   "parameters" :
   [
    {
     "referenced_type" : "type-750"
    },
    {
     "referenced_type" : "type-953"
    },
    {
     "referenced_type" : "type-16"
    },
    {
     "referenced_type" : "type-16"
    }
   ],
   "return_type" : "type-8",
   "source_file" : "/frameworks/rs/driver/rsdRuntimeStubs.cpp"
  },
  {
   "function_name" : "rsGetElementAt_float3",
   "linker_set_key" : "_Z21rsGetElementAt_float313rs_allocationPDv3_fjjj",
   "parameters" :
   [
    {
     "referenced_type" : "type-750"
    },
    {
     "referenced_type" : "type-953"
    },
    {
     "referenced_type" : "type-16"
    },
    {
     "referenced_type" : "type-16"
    },
    {
     "referenced_type" : "type-16"
    }
   ],
   "return_type" : "type-8",
   "source_file" : "/frameworks/rs/driver/rsdRuntimeStubs.cpp"
  },
  {
   "function_name" : "rsGetElementAt_float4",
   "linker_set_key" : "_Z21rsGetElementAt_float413rs_allocationPDv4_fj",
   "parameters" :
   [
    {
     "referenced_type" : "type-750"
    },
    {
     "referenced_type" : "type-958"
    },
    {
     "referenced_type" : "type-16"
    }
   ],
   "return_type" : "type-8",
   "source_file" : "/frameworks/rs/driver/rsdRuntimeStubs.cpp"
  },
  {
   "function_name" : "rsGetElementAt_float4",
   "linker_set_key" : "_Z21rsGetElementAt_float413rs_allocationPDv4_fjj",
   "parameters" :
   [
    {
     "referenced_type" : "type-750"
    },
    {
     "referenced_type" : "type-958"
    },
    {
     "referenced_type" : "type-16"
    },
    {
     "referenced_type" : "type-16"
    }
   ],
   "return_type" : "type-8",
   "source_file" : "/frameworks/rs/driver/rsdRuntimeStubs.cpp"
  },
  {
   "function_name" : "rsGetElementAt_float4",
   "linker_set_key" : "_Z21rsGetElementAt_float413rs_allocationPDv4_fjjj",
   "parameters" :
   [
    {
     "referenced_type" : "type-750"
    },
    {
     "referenced_type" : "type-958"
    },
    {
     "referenced_type" : "type-16"
    },
    {
     "referenced_type" : "type-16"
    },
    {
     "referenced_type" : "type-16"
    }
   ],
   "return_type" : "type-8",
   "source_file" : "/frameworks/rs/driver/rsdRuntimeStubs.cpp"
  },
  {
   "function_name" : "rsGetElementAt_short2",
   "linker_set_key" : "_Z21rsGetElementAt_short213rs_allocationPDv2_sj",
   "parameters" :
   [
    {
     "referenced_type" : "type-750"
    },
    {
     "referenced_type" : "type-818"
    },
    {
     "referenced_type" : "type-16"
    }
   ],
   "return_type" : "type-8",
   "source_file" : "/frameworks/rs/driver/rsdRuntimeStubs.cpp"
  },
  {
   "function_name" : "rsGetElementAt_short2",
   "linker_set_key" : "_Z21rsGetElementAt_short213rs_allocationPDv2_sjj",
   "parameters" :
   [
    {
     "referenced_type" : "type-750"
    },
    {
     "referenced_type" : "type-818"
    },
    {
     "referenced_type" : "type-16"
    },
    {
     "referenced_type" : "type-16"
    }
   ],
   "return_type" : "type-8",
   "source_file" : "/frameworks/rs/driver/rsdRuntimeStubs.cpp"
  },
  {
   "function_name" : "rsGetElementAt_short2",
   "linker_set_key" : "_Z21rsGetElementAt_short213rs_allocationPDv2_sjjj",
   "parameters" :
   [
    {
     "referenced_type" : "type-750"
    },
    {
     "referenced_type" : "type-818"
    },
    {
     "referenced_type" : "type-16"
    },
    {
     "referenced_type" : "type-16"
    },
    {
     "referenced_type" : "type-16"
    }
   ],
   "return_type" : "type-8",
   "source_file" : "/frameworks/rs/driver/rsdRuntimeStubs.cpp"
  },
  {
   "function_name" : "rsGetElementAt_short3",
   "linker_set_key" : "_Z21rsGetElementAt_short313rs_allocationPDv3_sj",
   "parameters" :
   [
    {
     "referenced_type" : "type-750"
    },
    {
     "referenced_type" : "type-823"
    },
    {
     "referenced_type" : "type-16"
    }
   ],
   "return_type" : "type-8",
   "source_file" : "/frameworks/rs/driver/rsdRuntimeStubs.cpp"
  },
  {
   "function_name" : "rsGetElementAt_short3",
   "linker_set_key" : "_Z21rsGetElementAt_short313rs_allocationPDv3_sjj",
   "parameters" :
   [
    {
     "referenced_type" : "type-750"
    },
    {
     "referenced_type" : "type-823"
    },
    {
     "referenced_type" : "type-16"
    },
    {
     "referenced_type" : "type-16"
    }
   ],
   "return_type" : "type-8",
   "source_file" : "/frameworks/rs/driver/rsdRuntimeStubs.cpp"
  },
  {
   "function_name" : "rsGetElementAt_short3",
   "linker_set_key" : "_Z21rsGetElementAt_short313rs_allocationPDv3_sjjj",
   "parameters" :
   [
    {
     "referenced_type" : "type-750"
    },
    {
     "referenced_type" : "type-823"
    },
    {
     "referenced_type" : "type-16"
    },
    {
     "referenced_type" : "type-16"
    },
    {
     "referenced_type" : "type-16"
    }
   ],
   "return_type" : "type-8",
   "source_file" : "/frameworks/rs/driver/rsdRuntimeStubs.cpp"
  },
  {
   "function_name" : "rsGetElementAt_short4",
   "linker_set_key" : "_Z21rsGetElementAt_short413rs_allocationPDv4_sj",
   "parameters" :
   [
    {
     "referenced_type" : "type-750"
    },
    {
     "referenced_type" : "type-829"
    },
    {
     "referenced_type" : "type-16"
    }
   ],
   "return_type" : "type-8",
   "source_file" : "/frameworks/rs/driver/rsdRuntimeStubs.cpp"
  },
  {
   "function_name" : "rsGetElementAt_short4",
   "linker_set_key" : "_Z21rsGetElementAt_short413rs_allocationPDv4_sjj",
   "parameters" :
   [
    {
     "referenced_type" : "type-750"
    },
    {
     "referenced_type" : "type-829"
    },
    {
     "referenced_type" : "type-16"
    },
    {
     "referenced_type" : "type-16"
    }
   ],
   "return_type" : "type-8",
   "source_file" : "/frameworks/rs/driver/rsdRuntimeStubs.cpp"
  },
  {
   "function_name" : "rsGetElementAt_short4",
   "linker_set_key" : "_Z21rsGetElementAt_short413rs_allocationPDv4_sjjj",
   "parameters" :
   [
    {
     "referenced_type" : "type-750"
    },
    {
     "referenced_type" : "type-829"
    },
    {
     "referenced_type" : "type-16"
    },
    {
     "referenced_type" : "type-16"
    },
    {
     "referenced_type" : "type-16"
    }
   ],
   "return_type" : "type-8",
   "source_file" : "/frameworks/rs/driver/rsdRuntimeStubs.cpp"
  },
  {
   "function_name" : "rsGetElementAt_uchar2",
   "linker_set_key" : "_Z21rsGetElementAt_uchar213rs_allocationPDv2_hj",
   "parameters" :
   [
    {
     "referenced_type" : "type-750"
    },
    {
     "referenced_type" : "type-798"
    },
    {
     "referenced_type" : "type-16"
    }
   ],
   "return_type" : "type-8",
   "source_file" : "/frameworks/rs/driver/rsdRuntimeStubs.cpp"
  },
  {
   "function_name" : "rsGetElementAt_uchar2",
   "linker_set_key" : "_Z21rsGetElementAt_uchar213rs_allocationPDv2_hjj",
   "parameters" :
   [
    {
     "referenced_type" : "type-750"
    },
    {
     "referenced_type" : "type-798"
    },
    {
     "referenced_type" : "type-16"
    },
    {
     "referenced_type" : "type-16"
    }
   ],
   "return_type" : "type-8",
   "source_file" : "/frameworks/rs/driver/rsdRuntimeStubs.cpp"
  },
  {
   "function_name" : "rsGetElementAt_uchar2",
   "linker_set_key" : "_Z21rsGetElementAt_uchar213rs_allocationPDv2_hjjj",
   "parameters" :
   [
    {
     "referenced_type" : "type-750"
    },
    {
     "referenced_type" : "type-798"
    },
    {
     "referenced_type" : "type-16"
    },
    {
     "referenced_type" : "type-16"
    },
    {
     "referenced_type" : "type-16"
    }
   ],
   "return_type" : "type-8",
   "source_file" : "/frameworks/rs/driver/rsdRuntimeStubs.cpp"
  },
  {
   "function_name" : "rsGetElementAt_uchar3",
   "linker_set_key" : "_Z21rsGetElementAt_uchar313rs_allocationPDv3_hj",
   "parameters" :
   [
    {
     "referenced_type" : "type-750"
    },
    {
     "referenced_type" : "type-803"
    },
    {
     "referenced_type" : "type-16"
    }
   ],
   "return_type" : "type-8",
   "source_file" : "/frameworks/rs/driver/rsdRuntimeStubs.cpp"
  },
  {
   "function_name" : "rsGetElementAt_uchar3",
   "linker_set_key" : "_Z21rsGetElementAt_uchar313rs_allocationPDv3_hjj",
   "parameters" :
   [
    {
     "referenced_type" : "type-750"
    },
    {
     "referenced_type" : "type-803"
    },
    {
     "referenced_type" : "type-16"
    },
    {
     "referenced_type" : "type-16"
    }
   ],
   "return_type" : "type-8",
   "source_file" : "/frameworks/rs/driver/rsdRuntimeStubs.cpp"
  },
  {
   "function_name" : "rsGetElementAt_uchar3",
   "linker_set_key" : "_Z21rsGetElementAt_uchar313rs_allocationPDv3_hjjj",
   "parameters" :
   [
    {
     "referenced_type" : "type-750"
    },
    {
     "referenced_type" : "type-803"
    },
    {
     "referenced_type" : "type-16"
    },
    {
     "referenced_type" : "type-16"
    },
    {
     "referenced_type" : "type-16"
    }
   ],
   "return_type" : "type-8",
   "source_file" : "/frameworks/rs/driver/rsdRuntimeStubs.cpp"
  },
  {
   "function_name" : "rsGetElementAt_uchar4",
   "linker_set_key" : "_Z21rsGetElementAt_uchar413rs_allocationPDv4_hj",
   "parameters" :
   [
    {
     "referenced_type" : "type-750"
    },
    {
     "referenced_type" : "type-809"
    },
    {
     "referenced_type" : "type-16"
    }
   ],
   "return_type" : "type-8",
   "source_file" : "/frameworks/rs/driver/rsdRuntimeStubs.cpp"
  },
  {
   "function_name" : "rsGetElementAt_uchar4",
   "linker_set_key" : "_Z21rsGetElementAt_uchar413rs_allocationPDv4_hjj",
   "parameters" :
   [
    {
     "referenced_type" : "type-750"
    },
    {
     "referenced_type" : "type-809"
    },
    {
     "referenced_type" : "type-16"
    },
    {
     "referenced_type" : "type-16"
    }
   ],
   "return_type" : "type-8",
   "source_file" : "/frameworks/rs/driver/rsdRuntimeStubs.cpp"
  },
  {
   "function_name" : "rsGetElementAt_uchar4",
   "linker_set_key" : "_Z21rsGetElementAt_uchar413rs_allocationPDv4_hjjj",
   "parameters" :
   [
    {
     "referenced_type" : "type-750"
    },
    {
     "referenced_type" : "type-809"
    },
    {
     "referenced_type" : "type-16"
    },
    {
     "referenced_type" : "type-16"
    },
    {
     "referenced_type" : "type-16"
    }
   ],
   "return_type" : "type-8",
   "source_file" : "/frameworks/rs/driver/rsdRuntimeStubs.cpp"
  },
  {
   "function_name" : "rsGetElementAt_ulong2",
   "linker_set_key" : "_Z21rsGetElementAt_ulong213rs_allocationPDv2_mj",
   "parameters" :
   [
    {
     "referenced_type" : "type-750"
    },
    {
     "referenced_type" : "type-1003"
    },
    {
     "referenced_type" : "type-16"
    }
   ],
   "return_type" : "type-8",
   "source_file" : "/frameworks/rs/driver/rsdRuntimeStubs.cpp"
  },
  {
   "function_name" : "rsGetElementAt_ulong2",
   "linker_set_key" : "_Z21rsGetElementAt_ulong213rs_allocationPDv2_mjj",
   "parameters" :
   [
    {
     "referenced_type" : "type-750"
    },
    {
     "referenced_type" : "type-1003"
    },
    {
     "referenced_type" : "type-16"
    },
    {
     "referenced_type" : "type-16"
    }
   ],
   "return_type" : "type-8",
   "source_file" : "/frameworks/rs/driver/rsdRuntimeStubs.cpp"
  },
  {
   "function_name" : "rsGetElementAt_ulong2",
   "linker_set_key" : "_Z21rsGetElementAt_ulong213rs_allocationPDv2_mjjj",
   "parameters" :
   [
    {
     "referenced_type" : "type-750"
    },
    {
     "referenced_type" : "type-1003"
    },
    {
     "referenced_type" : "type-16"
    },
    {
     "referenced_type" : "type-16"
    },
    {
     "referenced_type" : "type-16"
    }
   ],
   "return_type" : "type-8",
   "source_file" : "/frameworks/rs/driver/rsdRuntimeStubs.cpp"
  },
  {
   "function_name" : "rsGetElementAt_ulong2",
   "linker_set_key" : "_Z21rsGetElementAt_ulong213rs_allocationPDv2_yj",
   "parameters" :
   [
    {
     "referenced_type" : "type-750"
    },
    {
     "referenced_type" : "type-908"
    },
    {
     "referenced_type" : "type-16"
    }
   ],
   "return_type" : "type-8",
   "source_file" : "/frameworks/rs/driver/rsdRuntimeStubs.cpp"
  },
  {
   "function_name" : "rsGetElementAt_ulong2",
   "linker_set_key" : "_Z21rsGetElementAt_ulong213rs_allocationPDv2_yjj",
   "parameters" :
   [
    {
     "referenced_type" : "type-750"
    },
    {
     "referenced_type" : "type-908"
    },
    {
     "referenced_type" : "type-16"
    },
    {
     "referenced_type" : "type-16"
    }
   ],
   "return_type" : "type-8",
   "source_file" : "/frameworks/rs/driver/rsdRuntimeStubs.cpp"
  },
  {
   "function_name" : "rsGetElementAt_ulong2",
   "linker_set_key" : "_Z21rsGetElementAt_ulong213rs_allocationPDv2_yjjj",
   "parameters" :
   [
    {
     "referenced_type" : "type-750"
    },
    {
     "referenced_type" : "type-908"
    },
    {
     "referenced_type" : "type-16"
    },
    {
     "referenced_type" : "type-16"
    },
    {
     "referenced_type" : "type-16"
    }
   ],
   "return_type" : "type-8",
   "source_file" : "/frameworks/rs/driver/rsdRuntimeStubs.cpp"
  },
  {
   "function_name" : "rsGetElementAt_ulong3",
   "linker_set_key" : "_Z21rsGetElementAt_ulong313rs_allocationPDv3_mj",
   "parameters" :
   [
    {
     "referenced_type" : "type-750"
    },
    {
     "referenced_type" : "type-1009"
    },
    {
     "referenced_type" : "type-16"
    }
   ],
   "return_type" : "type-8",
   "source_file" : "/frameworks/rs/driver/rsdRuntimeStubs.cpp"
  },
  {
   "function_name" : "rsGetElementAt_ulong3",
   "linker_set_key" : "_Z21rsGetElementAt_ulong313rs_allocationPDv3_mjj",
   "parameters" :
   [
    {
     "referenced_type" : "type-750"
    },
    {
     "referenced_type" : "type-1009"
    },
    {
     "referenced_type" : "type-16"
    },
    {
     "referenced_type" : "type-16"
    }
   ],
   "return_type" : "type-8",
   "source_file" : "/frameworks/rs/driver/rsdRuntimeStubs.cpp"
  },
  {
   "function_name" : "rsGetElementAt_ulong3",
   "linker_set_key" : "_Z21rsGetElementAt_ulong313rs_allocationPDv3_mjjj",
   "parameters" :
   [
    {
     "referenced_type" : "type-750"
    },
    {
     "referenced_type" : "type-1009"
    },
    {
     "referenced_type" : "type-16"
    },
    {
     "referenced_type" : "type-16"
    },
    {
     "referenced_type" : "type-16"
    }
   ],
   "return_type" : "type-8",
   "source_file" : "/frameworks/rs/driver/rsdRuntimeStubs.cpp"
  },
  {
   "function_name" : "rsGetElementAt_ulong3",
   "linker_set_key" : "_Z21rsGetElementAt_ulong313rs_allocationPDv3_yj",
   "parameters" :
   [
    {
     "referenced_type" : "type-750"
    },
    {
     "referenced_type" : "type-913"
    },
    {
     "referenced_type" : "type-16"
    }
   ],
   "return_type" : "type-8",
   "source_file" : "/frameworks/rs/driver/rsdRuntimeStubs.cpp"
  },
  {
   "function_name" : "rsGetElementAt_ulong3",
   "linker_set_key" : "_Z21rsGetElementAt_ulong313rs_allocationPDv3_yjj",
   "parameters" :
   [
    {
     "referenced_type" : "type-750"
    },
    {
     "referenced_type" : "type-913"
    },
    {
     "referenced_type" : "type-16"
    },
    {
     "referenced_type" : "type-16"
    }
   ],
   "return_type" : "type-8",
   "source_file" : "/frameworks/rs/driver/rsdRuntimeStubs.cpp"
  },
  {
   "function_name" : "rsGetElementAt_ulong3",
   "linker_set_key" : "_Z21rsGetElementAt_ulong313rs_allocationPDv3_yjjj",
   "parameters" :
   [
    {
     "referenced_type" : "type-750"
    },
    {
     "referenced_type" : "type-913"
    },
    {
     "referenced_type" : "type-16"
    },
    {
     "referenced_type" : "type-16"
    },
    {
     "referenced_type" : "type-16"
    }
   ],
   "return_type" : "type-8",
   "source_file" : "/frameworks/rs/driver/rsdRuntimeStubs.cpp"
  },
  {
   "function_name" : "rsGetElementAt_ulong4",
   "linker_set_key" : "_Z21rsGetElementAt_ulong413rs_allocationPDv4_mj",
   "parameters" :
   [
    {
     "referenced_type" : "type-750"
    },
    {
     "referenced_type" : "type-1014"
    },
    {
     "referenced_type" : "type-16"
    }
   ],
   "return_type" : "type-8",
   "source_file" : "/frameworks/rs/driver/rsdRuntimeStubs.cpp"
  },
  {
   "function_name" : "rsGetElementAt_ulong4",
   "linker_set_key" : "_Z21rsGetElementAt_ulong413rs_allocationPDv4_mjj",
   "parameters" :
   [
    {
     "referenced_type" : "type-750"
    },
    {
     "referenced_type" : "type-1014"
    },
    {
     "referenced_type" : "type-16"
    },
    {
     "referenced_type" : "type-16"
    }
   ],
   "return_type" : "type-8",
   "source_file" : "/frameworks/rs/driver/rsdRuntimeStubs.cpp"
  },
  {
   "function_name" : "rsGetElementAt_ulong4",
   "linker_set_key" : "_Z21rsGetElementAt_ulong413rs_allocationPDv4_mjjj",
   "parameters" :
   [
    {
     "referenced_type" : "type-750"
    },
    {
     "referenced_type" : "type-1014"
    },
    {
     "referenced_type" : "type-16"
    },
    {
     "referenced_type" : "type-16"
    },
    {
     "referenced_type" : "type-16"
    }
   ],
   "return_type" : "type-8",
   "source_file" : "/frameworks/rs/driver/rsdRuntimeStubs.cpp"
  },
  {
   "function_name" : "rsGetElementAt_ulong4",
   "linker_set_key" : "_Z21rsGetElementAt_ulong413rs_allocationPDv4_yj",
   "parameters" :
   [
    {
     "referenced_type" : "type-750"
    },
    {
     "referenced_type" : "type-919"
    },
    {
     "referenced_type" : "type-16"
    }
   ],
   "return_type" : "type-8",
   "source_file" : "/frameworks/rs/driver/rsdRuntimeStubs.cpp"
  },
  {
   "function_name" : "rsGetElementAt_ulong4",
   "linker_set_key" : "_Z21rsGetElementAt_ulong413rs_allocationPDv4_yjj",
   "parameters" :
   [
    {
     "referenced_type" : "type-750"
    },
    {
     "referenced_type" : "type-919"
    },
    {
     "referenced_type" : "type-16"
    },
    {
     "referenced_type" : "type-16"
    }
   ],
   "return_type" : "type-8",
   "source_file" : "/frameworks/rs/driver/rsdRuntimeStubs.cpp"
  },
  {
   "function_name" : "rsGetElementAt_ulong4",
   "linker_set_key" : "_Z21rsGetElementAt_ulong413rs_allocationPDv4_yjjj",
   "parameters" :
   [
    {
     "referenced_type" : "type-750"
    },
    {
     "referenced_type" : "type-919"
    },
    {
     "referenced_type" : "type-16"
    },
    {
     "referenced_type" : "type-16"
    },
    {
     "referenced_type" : "type-16"
    }
   ],
   "return_type" : "type-8",
   "source_file" : "/frameworks/rs/driver/rsdRuntimeStubs.cpp"
  },
  {
   "function_name" : "rsGetElementAt_ushort",
   "linker_set_key" : "_Z21rsGetElementAt_ushort13rs_allocationPtj",
   "parameters" :
   [
    {
     "referenced_type" : "type-750"
    },
    {
     "referenced_type" : "type-833"
    },
    {
     "referenced_type" : "type-16"
    }
   ],
   "return_type" : "type-8",
   "source_file" : "/frameworks/rs/driver/rsdRuntimeStubs.cpp"
  },
  {
   "function_name" : "rsGetElementAt_ushort",
   "linker_set_key" : "_Z21rsGetElementAt_ushort13rs_allocationPtjj",
   "parameters" :
   [
    {
     "referenced_type" : "type-750"
    },
    {
     "referenced_type" : "type-833"
    },
    {
     "referenced_type" : "type-16"
    },
    {
     "referenced_type" : "type-16"
    }
   ],
   "return_type" : "type-8",
   "source_file" : "/frameworks/rs/driver/rsdRuntimeStubs.cpp"
  },
  {
   "function_name" : "rsGetElementAt_ushort",
   "linker_set_key" : "_Z21rsGetElementAt_ushort13rs_allocationPtjjj",
   "parameters" :
   [
    {
     "referenced_type" : "type-750"
    },
    {
     "referenced_type" : "type-833"
    },
    {
     "referenced_type" : "type-16"
    },
    {
     "referenced_type" : "type-16"
    },
    {
     "referenced_type" : "type-16"
    }
   ],
   "return_type" : "type-8",
   "source_file" : "/frameworks/rs/driver/rsdRuntimeStubs.cpp"
  },
  {
   "function_name" : "rsSetElementAt_double",
   "linker_set_key" : "_Z21rsSetElementAt_double13rs_allocationPKdj",
   "parameters" :
   [
    {
     "referenced_type" : "type-750"
    },
    {
     "referenced_type" : "type-961"
    },
    {
     "referenced_type" : "type-16"
    }
   ],
   "return_type" : "type-8",
   "source_file" : "/frameworks/rs/driver/rsdRuntimeStubs.cpp"
  },
  {
   "function_name" : "rsSetElementAt_double",
   "linker_set_key" : "_Z21rsSetElementAt_double13rs_allocationPKdjj",
   "parameters" :
   [
    {
     "referenced_type" : "type-750"
    },
    {
     "referenced_type" : "type-961"
    },
    {
     "referenced_type" : "type-16"
    },
    {
     "referenced_type" : "type-16"
    }
   ],
   "return_type" : "type-8",
   "source_file" : "/frameworks/rs/driver/rsdRuntimeStubs.cpp"
  },
  {
   "function_name" : "rsSetElementAt_double",
   "linker_set_key" : "_Z21rsSetElementAt_double13rs_allocationPKdjjj",
   "parameters" :
   [
    {
     "referenced_type" : "type-750"
    },
    {
     "referenced_type" : "type-961"
    },
    {
     "referenced_type" : "type-16"
    },
    {
     "referenced_type" : "type-16"
    },
    {
     "referenced_type" : "type-16"
    }
   ],
   "return_type" : "type-8",
   "source_file" : "/frameworks/rs/driver/rsdRuntimeStubs.cpp"
  },
  {
   "function_name" : "rsSetElementAt_float2",
   "linker_set_key" : "_Z21rsSetElementAt_float213rs_allocationPKDv2_fj",
   "parameters" :
   [
    {
     "referenced_type" : "type-750"
    },
    {
     "referenced_type" : "type-946"
    },
    {
     "referenced_type" : "type-16"
    }
   ],
   "return_type" : "type-8",
   "source_file" : "/frameworks/rs/driver/rsdRuntimeStubs.cpp"
  },
  {
   "function_name" : "rsSetElementAt_float2",
   "linker_set_key" : "_Z21rsSetElementAt_float213rs_allocationPKDv2_fjj",
   "parameters" :
   [
    {
     "referenced_type" : "type-750"
    },
    {
     "referenced_type" : "type-946"
    },
    {
     "referenced_type" : "type-16"
    },
    {
     "referenced_type" : "type-16"
    }
   ],
   "return_type" : "type-8",
   "source_file" : "/frameworks/rs/driver/rsdRuntimeStubs.cpp"
  },
  {
   "function_name" : "rsSetElementAt_float2",
   "linker_set_key" : "_Z21rsSetElementAt_float213rs_allocationPKDv2_fjjj",
   "parameters" :
   [
    {
     "referenced_type" : "type-750"
    },
    {
     "referenced_type" : "type-946"
    },
    {
     "referenced_type" : "type-16"
    },
    {
     "referenced_type" : "type-16"
    },
    {
     "referenced_type" : "type-16"
    }
   ],
   "return_type" : "type-8",
   "source_file" : "/frameworks/rs/driver/rsdRuntimeStubs.cpp"
  },
  {
   "function_name" : "rsSetElementAt_float3",
   "linker_set_key" : "_Z21rsSetElementAt_float313rs_allocationPKDv3_fj",
   "parameters" :
   [
    {
     "referenced_type" : "type-750"
    },
    {
     "referenced_type" : "type-952"
    },
    {
     "referenced_type" : "type-16"
    }
   ],
   "return_type" : "type-8",
   "source_file" : "/frameworks/rs/driver/rsdRuntimeStubs.cpp"
  },
  {
   "function_name" : "rsSetElementAt_float3",
   "linker_set_key" : "_Z21rsSetElementAt_float313rs_allocationPKDv3_fjj",
   "parameters" :
   [
    {
     "referenced_type" : "type-750"
    },
    {
     "referenced_type" : "type-952"
    },
    {
     "referenced_type" : "type-16"
    },
    {
     "referenced_type" : "type-16"
    }
   ],
   "return_type" : "type-8",
   "source_file" : "/frameworks/rs/driver/rsdRuntimeStubs.cpp"
  },
  {
   "function_name" : "rsSetElementAt_float3",
   "linker_set_key" : "_Z21rsSetElementAt_float313rs_allocationPKDv3_fjjj",
   "parameters" :
   [
    {
     "referenced_type" : "type-750"
    },
    {
     "referenced_type" : "type-952"
    },
    {
     "referenced_type" : "type-16"
    },
    {
     "referenced_type" : "type-16"
    },
    {
     "referenced_type" : "type-16"
    }
   ],
   "return_type" : "type-8",
   "source_file" : "/frameworks/rs/driver/rsdRuntimeStubs.cpp"
  },
  {
   "function_name" : "rsSetElementAt_float4",
   "linker_set_key" : "_Z21rsSetElementAt_float413rs_allocationPKDv4_fj",
   "parameters" :
   [
    {
     "referenced_type" : "type-750"
    },
    {
     "referenced_type" : "type-957"
    },
    {
     "referenced_type" : "type-16"
    }
   ],
   "return_type" : "type-8",
   "source_file" : "/frameworks/rs/driver/rsdRuntimeStubs.cpp"
  },
  {
   "function_name" : "rsSetElementAt_float4",
   "linker_set_key" : "_Z21rsSetElementAt_float413rs_allocationPKDv4_fjj",
   "parameters" :
   [
    {
     "referenced_type" : "type-750"
    },
    {
     "referenced_type" : "type-957"
    },
    {
     "referenced_type" : "type-16"
    },
    {
     "referenced_type" : "type-16"
    }
   ],
   "return_type" : "type-8",
   "source_file" : "/frameworks/rs/driver/rsdRuntimeStubs.cpp"
  },
  {
   "function_name" : "rsSetElementAt_float4",
   "linker_set_key" : "_Z21rsSetElementAt_float413rs_allocationPKDv4_fjjj",
   "parameters" :
   [
    {
     "referenced_type" : "type-750"
    },
    {
     "referenced_type" : "type-957"
    },
    {
     "referenced_type" : "type-16"
    },
    {
     "referenced_type" : "type-16"
    },
    {
     "referenced_type" : "type-16"
    }
   ],
   "return_type" : "type-8",
   "source_file" : "/frameworks/rs/driver/rsdRuntimeStubs.cpp"
  },
  {
   "function_name" : "rsSetElementAt_short2",
   "linker_set_key" : "_Z21rsSetElementAt_short213rs_allocationPKDv2_sj",
   "parameters" :
   [
    {
     "referenced_type" : "type-750"
    },
    {
     "referenced_type" : "type-817"
    },
    {
     "referenced_type" : "type-16"
    }
   ],
   "return_type" : "type-8",
   "source_file" : "/frameworks/rs/driver/rsdRuntimeStubs.cpp"
  },
  {
   "function_name" : "rsSetElementAt_short2",
   "linker_set_key" : "_Z21rsSetElementAt_short213rs_allocationPKDv2_sjj",
   "parameters" :
   [
    {
     "referenced_type" : "type-750"
    },
    {
     "referenced_type" : "type-817"
    },
    {
     "referenced_type" : "type-16"
    },
    {
     "referenced_type" : "type-16"
    }
   ],
   "return_type" : "type-8",
   "source_file" : "/frameworks/rs/driver/rsdRuntimeStubs.cpp"
  },
  {
   "function_name" : "rsSetElementAt_short2",
   "linker_set_key" : "_Z21rsSetElementAt_short213rs_allocationPKDv2_sjjj",
   "parameters" :
   [
    {
     "referenced_type" : "type-750"
    },
    {
     "referenced_type" : "type-817"
    },
    {
     "referenced_type" : "type-16"
    },
    {
     "referenced_type" : "type-16"
    },
    {
     "referenced_type" : "type-16"
    }
   ],
   "return_type" : "type-8",
   "source_file" : "/frameworks/rs/driver/rsdRuntimeStubs.cpp"
  },
  {
   "function_name" : "rsSetElementAt_short3",
   "linker_set_key" : "_Z21rsSetElementAt_short313rs_allocationPKDv3_sj",
   "parameters" :
   [
    {
     "referenced_type" : "type-750"
    },
    {
     "referenced_type" : "type-822"
    },
    {
     "referenced_type" : "type-16"
    }
   ],
   "return_type" : "type-8",
   "source_file" : "/frameworks/rs/driver/rsdRuntimeStubs.cpp"
  },
  {
   "function_name" : "rsSetElementAt_short3",
   "linker_set_key" : "_Z21rsSetElementAt_short313rs_allocationPKDv3_sjj",
   "parameters" :
   [
    {
     "referenced_type" : "type-750"
    },
    {
     "referenced_type" : "type-822"
    },
    {
     "referenced_type" : "type-16"
    },
    {
     "referenced_type" : "type-16"
    }
   ],
   "return_type" : "type-8",
   "source_file" : "/frameworks/rs/driver/rsdRuntimeStubs.cpp"
  },
  {
   "function_name" : "rsSetElementAt_short3",
   "linker_set_key" : "_Z21rsSetElementAt_short313rs_allocationPKDv3_sjjj",
   "parameters" :
   [
    {
     "referenced_type" : "type-750"
    },
    {
     "referenced_type" : "type-822"
    },
    {
     "referenced_type" : "type-16"
    },
    {
     "referenced_type" : "type-16"
    },
    {
     "referenced_type" : "type-16"
    }
   ],
   "return_type" : "type-8",
   "source_file" : "/frameworks/rs/driver/rsdRuntimeStubs.cpp"
  },
  {
   "function_name" : "rsSetElementAt_short4",
   "linker_set_key" : "_Z21rsSetElementAt_short413rs_allocationPKDv4_sj",
   "parameters" :
   [
    {
     "referenced_type" : "type-750"
    },
    {
     "referenced_type" : "type-828"
    },
    {
     "referenced_type" : "type-16"
    }
   ],
   "return_type" : "type-8",
   "source_file" : "/frameworks/rs/driver/rsdRuntimeStubs.cpp"
  },
  {
   "function_name" : "rsSetElementAt_short4",
   "linker_set_key" : "_Z21rsSetElementAt_short413rs_allocationPKDv4_sjj",
   "parameters" :
   [
    {
     "referenced_type" : "type-750"
    },
    {
     "referenced_type" : "type-828"
    },
    {
     "referenced_type" : "type-16"
    },
    {
     "referenced_type" : "type-16"
    }
   ],
   "return_type" : "type-8",
   "source_file" : "/frameworks/rs/driver/rsdRuntimeStubs.cpp"
  },
  {
   "function_name" : "rsSetElementAt_short4",
   "linker_set_key" : "_Z21rsSetElementAt_short413rs_allocationPKDv4_sjjj",
   "parameters" :
   [
    {
     "referenced_type" : "type-750"
    },
    {
     "referenced_type" : "type-828"
    },
    {
     "referenced_type" : "type-16"
    },
    {
     "referenced_type" : "type-16"
    },
    {
     "referenced_type" : "type-16"
    }
   ],
   "return_type" : "type-8",
   "source_file" : "/frameworks/rs/driver/rsdRuntimeStubs.cpp"
  },
  {
   "function_name" : "rsSetElementAt_uchar2",
   "linker_set_key" : "_Z21rsSetElementAt_uchar213rs_allocationPKDv2_hj",
   "parameters" :
   [
    {
     "referenced_type" : "type-750"
    },
    {
     "referenced_type" : "type-797"
    },
    {
     "referenced_type" : "type-16"
    }
   ],
   "return_type" : "type-8",
   "source_file" : "/frameworks/rs/driver/rsdRuntimeStubs.cpp"
  },
  {
   "function_name" : "rsSetElementAt_uchar2",
   "linker_set_key" : "_Z21rsSetElementAt_uchar213rs_allocationPKDv2_hjj",
   "parameters" :
   [
    {
     "referenced_type" : "type-750"
    },
    {
     "referenced_type" : "type-797"
    },
    {
     "referenced_type" : "type-16"
    },
    {
     "referenced_type" : "type-16"
    }
   ],
   "return_type" : "type-8",
   "source_file" : "/frameworks/rs/driver/rsdRuntimeStubs.cpp"
  },
  {
   "function_name" : "rsSetElementAt_uchar2",
   "linker_set_key" : "_Z21rsSetElementAt_uchar213rs_allocationPKDv2_hjjj",
   "parameters" :
   [
    {
     "referenced_type" : "type-750"
    },
    {
     "referenced_type" : "type-797"
    },
    {
     "referenced_type" : "type-16"
    },
    {
     "referenced_type" : "type-16"
    },
    {
     "referenced_type" : "type-16"
    }
   ],
   "return_type" : "type-8",
   "source_file" : "/frameworks/rs/driver/rsdRuntimeStubs.cpp"
  },
  {
   "function_name" : "rsSetElementAt_uchar3",
   "linker_set_key" : "_Z21rsSetElementAt_uchar313rs_allocationPKDv3_hj",
   "parameters" :
   [
    {
     "referenced_type" : "type-750"
    },
    {
     "referenced_type" : "type-802"
    },
    {
     "referenced_type" : "type-16"
    }
   ],
   "return_type" : "type-8",
   "source_file" : "/frameworks/rs/driver/rsdRuntimeStubs.cpp"
  },
  {
   "function_name" : "rsSetElementAt_uchar3",
   "linker_set_key" : "_Z21rsSetElementAt_uchar313rs_allocationPKDv3_hjj",
   "parameters" :
   [
    {
     "referenced_type" : "type-750"
    },
    {
     "referenced_type" : "type-802"
    },
    {
     "referenced_type" : "type-16"
    },
    {
     "referenced_type" : "type-16"
    }
   ],
   "return_type" : "type-8",
   "source_file" : "/frameworks/rs/driver/rsdRuntimeStubs.cpp"
  },
  {
   "function_name" : "rsSetElementAt_uchar3",
   "linker_set_key" : "_Z21rsSetElementAt_uchar313rs_allocationPKDv3_hjjj",
   "parameters" :
   [
    {
     "referenced_type" : "type-750"
    },
    {
     "referenced_type" : "type-802"
    },
    {
     "referenced_type" : "type-16"
    },
    {
     "referenced_type" : "type-16"
    },
    {
     "referenced_type" : "type-16"
    }
   ],
   "return_type" : "type-8",
   "source_file" : "/frameworks/rs/driver/rsdRuntimeStubs.cpp"
  },
  {
   "function_name" : "rsSetElementAt_uchar4",
   "linker_set_key" : "_Z21rsSetElementAt_uchar413rs_allocationPKDv4_hj",
   "parameters" :
   [
    {
     "referenced_type" : "type-750"
    },
    {
     "referenced_type" : "type-808"
    },
    {
     "referenced_type" : "type-16"
    }
   ],
   "return_type" : "type-8",
   "source_file" : "/frameworks/rs/driver/rsdRuntimeStubs.cpp"
  },
  {
   "function_name" : "rsSetElementAt_uchar4",
   "linker_set_key" : "_Z21rsSetElementAt_uchar413rs_allocationPKDv4_hjj",
   "parameters" :
   [
    {
     "referenced_type" : "type-750"
    },
    {
     "referenced_type" : "type-808"
    },
    {
     "referenced_type" : "type-16"
    },
    {
     "referenced_type" : "type-16"
    }
   ],
   "return_type" : "type-8",
   "source_file" : "/frameworks/rs/driver/rsdRuntimeStubs.cpp"
  },
  {
   "function_name" : "rsSetElementAt_uchar4",
   "linker_set_key" : "_Z21rsSetElementAt_uchar413rs_allocationPKDv4_hjjj",
   "parameters" :
   [
    {
     "referenced_type" : "type-750"
    },
    {
     "referenced_type" : "type-808"
    },
    {
     "referenced_type" : "type-16"
    },
    {
     "referenced_type" : "type-16"
    },
    {
     "referenced_type" : "type-16"
    }
   ],
   "return_type" : "type-8",
   "source_file" : "/frameworks/rs/driver/rsdRuntimeStubs.cpp"
  },
  {
   "function_name" : "rsSetElementAt_ulong2",
   "linker_set_key" : "_Z21rsSetElementAt_ulong213rs_allocationPKDv2_mj",
   "parameters" :
   [
    {
     "referenced_type" : "type-750"
    },
    {
     "referenced_type" : "type-1002"
    },
    {
     "referenced_type" : "type-16"
    }
   ],
   "return_type" : "type-8",
   "source_file" : "/frameworks/rs/driver/rsdRuntimeStubs.cpp"
  },
  {
   "function_name" : "rsSetElementAt_ulong2",
   "linker_set_key" : "_Z21rsSetElementAt_ulong213rs_allocationPKDv2_mjj",
   "parameters" :
   [
    {
     "referenced_type" : "type-750"
    },
    {
     "referenced_type" : "type-1002"
    },
    {
     "referenced_type" : "type-16"
    },
    {
     "referenced_type" : "type-16"
    }
   ],
   "return_type" : "type-8",
   "source_file" : "/frameworks/rs/driver/rsdRuntimeStubs.cpp"
  },
  {
   "function_name" : "rsSetElementAt_ulong2",
   "linker_set_key" : "_Z21rsSetElementAt_ulong213rs_allocationPKDv2_mjjj",
   "parameters" :
   [
    {
     "referenced_type" : "type-750"
    },
    {
     "referenced_type" : "type-1002"
    },
    {
     "referenced_type" : "type-16"
    },
    {
     "referenced_type" : "type-16"
    },
    {
     "referenced_type" : "type-16"
    }
   ],
   "return_type" : "type-8",
   "source_file" : "/frameworks/rs/driver/rsdRuntimeStubs.cpp"
  },
  {
   "function_name" : "rsSetElementAt_ulong2",
   "linker_set_key" : "_Z21rsSetElementAt_ulong213rs_allocationPKDv2_yj",
   "parameters" :
   [
    {
     "referenced_type" : "type-750"
    },
    {
     "referenced_type" : "type-907"
    },
    {
     "referenced_type" : "type-16"
    }
   ],
   "return_type" : "type-8",
   "source_file" : "/frameworks/rs/driver/rsdRuntimeStubs.cpp"
  },
  {
   "function_name" : "rsSetElementAt_ulong2",
   "linker_set_key" : "_Z21rsSetElementAt_ulong213rs_allocationPKDv2_yjj",
   "parameters" :
   [
    {
     "referenced_type" : "type-750"
    },
    {
     "referenced_type" : "type-907"
    },
    {
     "referenced_type" : "type-16"
    },
    {
     "referenced_type" : "type-16"
    }
   ],
   "return_type" : "type-8",
   "source_file" : "/frameworks/rs/driver/rsdRuntimeStubs.cpp"
  },
  {
   "function_name" : "rsSetElementAt_ulong2",
   "linker_set_key" : "_Z21rsSetElementAt_ulong213rs_allocationPKDv2_yjjj",
   "parameters" :
   [
    {
     "referenced_type" : "type-750"
    },
    {
     "referenced_type" : "type-907"
    },
    {
     "referenced_type" : "type-16"
    },
    {
     "referenced_type" : "type-16"
    },
    {
     "referenced_type" : "type-16"
    }
   ],
   "return_type" : "type-8",
   "source_file" : "/frameworks/rs/driver/rsdRuntimeStubs.cpp"
  },
  {
   "function_name" : "rsSetElementAt_ulong3",
   "linker_set_key" : "_Z21rsSetElementAt_ulong313rs_allocationPKDv3_mj",
   "parameters" :
   [
    {
     "referenced_type" : "type-750"
    },
    {
     "referenced_type" : "type-1008"
    },
    {
     "referenced_type" : "type-16"
    }
   ],
   "return_type" : "type-8",
   "source_file" : "/frameworks/rs/driver/rsdRuntimeStubs.cpp"
  },
  {
   "function_name" : "rsSetElementAt_ulong3",
   "linker_set_key" : "_Z21rsSetElementAt_ulong313rs_allocationPKDv3_mjj",
   "parameters" :
   [
    {
     "referenced_type" : "type-750"
    },
    {
     "referenced_type" : "type-1008"
    },
    {
     "referenced_type" : "type-16"
    },
    {
     "referenced_type" : "type-16"
    }
   ],
   "return_type" : "type-8",
   "source_file" : "/frameworks/rs/driver/rsdRuntimeStubs.cpp"
  },
  {
   "function_name" : "rsSetElementAt_ulong3",
   "linker_set_key" : "_Z21rsSetElementAt_ulong313rs_allocationPKDv3_mjjj",
   "parameters" :
   [
    {
     "referenced_type" : "type-750"
    },
    {
     "referenced_type" : "type-1008"
    },
    {
     "referenced_type" : "type-16"
    },
    {
     "referenced_type" : "type-16"
    },
    {
     "referenced_type" : "type-16"
    }
   ],
   "return_type" : "type-8",
   "source_file" : "/frameworks/rs/driver/rsdRuntimeStubs.cpp"
  },
  {
   "function_name" : "rsSetElementAt_ulong3",
   "linker_set_key" : "_Z21rsSetElementAt_ulong313rs_allocationPKDv3_yj",
   "parameters" :
   [
    {
     "referenced_type" : "type-750"
    },
    {
     "referenced_type" : "type-912"
    },
    {
     "referenced_type" : "type-16"
    }
   ],
   "return_type" : "type-8",
   "source_file" : "/frameworks/rs/driver/rsdRuntimeStubs.cpp"
  },
  {
   "function_name" : "rsSetElementAt_ulong3",
   "linker_set_key" : "_Z21rsSetElementAt_ulong313rs_allocationPKDv3_yjj",
   "parameters" :
   [
    {
     "referenced_type" : "type-750"
    },
    {
     "referenced_type" : "type-912"
    },
    {
     "referenced_type" : "type-16"
    },
    {
     "referenced_type" : "type-16"
    }
   ],
   "return_type" : "type-8",
   "source_file" : "/frameworks/rs/driver/rsdRuntimeStubs.cpp"
  },
  {
   "function_name" : "rsSetElementAt_ulong3",
   "linker_set_key" : "_Z21rsSetElementAt_ulong313rs_allocationPKDv3_yjjj",
   "parameters" :
   [
    {
     "referenced_type" : "type-750"
    },
    {
     "referenced_type" : "type-912"
    },
    {
     "referenced_type" : "type-16"
    },
    {
     "referenced_type" : "type-16"
    },
    {
     "referenced_type" : "type-16"
    }
   ],
   "return_type" : "type-8",
   "source_file" : "/frameworks/rs/driver/rsdRuntimeStubs.cpp"
  },
  {
   "function_name" : "rsSetElementAt_ulong4",
   "linker_set_key" : "_Z21rsSetElementAt_ulong413rs_allocationPKDv4_mj",
   "parameters" :
   [
    {
     "referenced_type" : "type-750"
    },
    {
     "referenced_type" : "type-1013"
    },
    {
     "referenced_type" : "type-16"
    }
   ],
   "return_type" : "type-8",
   "source_file" : "/frameworks/rs/driver/rsdRuntimeStubs.cpp"
  },
  {
   "function_name" : "rsSetElementAt_ulong4",
   "linker_set_key" : "_Z21rsSetElementAt_ulong413rs_allocationPKDv4_mjj",
   "parameters" :
   [
    {
     "referenced_type" : "type-750"
    },
    {
     "referenced_type" : "type-1013"
    },
    {
     "referenced_type" : "type-16"
    },
    {
     "referenced_type" : "type-16"
    }
   ],
   "return_type" : "type-8",
   "source_file" : "/frameworks/rs/driver/rsdRuntimeStubs.cpp"
  },
  {
   "function_name" : "rsSetElementAt_ulong4",
   "linker_set_key" : "_Z21rsSetElementAt_ulong413rs_allocationPKDv4_mjjj",
   "parameters" :
   [
    {
     "referenced_type" : "type-750"
    },
    {
     "referenced_type" : "type-1013"
    },
    {
     "referenced_type" : "type-16"
    },
    {
     "referenced_type" : "type-16"
    },
    {
     "referenced_type" : "type-16"
    }
   ],
   "return_type" : "type-8",
   "source_file" : "/frameworks/rs/driver/rsdRuntimeStubs.cpp"
  },
  {
   "function_name" : "rsSetElementAt_ulong4",
   "linker_set_key" : "_Z21rsSetElementAt_ulong413rs_allocationPKDv4_yj",
   "parameters" :
   [
    {
     "referenced_type" : "type-750"
    },
    {
     "referenced_type" : "type-918"
    },
    {
     "referenced_type" : "type-16"
    }
   ],
   "return_type" : "type-8",
   "source_file" : "/frameworks/rs/driver/rsdRuntimeStubs.cpp"
  },
  {
   "function_name" : "rsSetElementAt_ulong4",
   "linker_set_key" : "_Z21rsSetElementAt_ulong413rs_allocationPKDv4_yjj",
   "parameters" :
   [
    {
     "referenced_type" : "type-750"
    },
    {
     "referenced_type" : "type-918"
    },
    {
     "referenced_type" : "type-16"
    },
    {
     "referenced_type" : "type-16"
    }
   ],
   "return_type" : "type-8",
   "source_file" : "/frameworks/rs/driver/rsdRuntimeStubs.cpp"
  },
  {
   "function_name" : "rsSetElementAt_ulong4",
   "linker_set_key" : "_Z21rsSetElementAt_ulong413rs_allocationPKDv4_yjjj",
   "parameters" :
   [
    {
     "referenced_type" : "type-750"
    },
    {
     "referenced_type" : "type-918"
    },
    {
     "referenced_type" : "type-16"
    },
    {
     "referenced_type" : "type-16"
    },
    {
     "referenced_type" : "type-16"
    }
   ],
   "return_type" : "type-8",
   "source_file" : "/frameworks/rs/driver/rsdRuntimeStubs.cpp"
  },
  {
   "function_name" : "rsSetElementAt_ushort",
   "linker_set_key" : "_Z21rsSetElementAt_ushort13rs_allocationPKtj",
   "parameters" :
   [
    {
     "referenced_type" : "type-750"
    },
    {
     "referenced_type" : "type-831"
    },
    {
     "referenced_type" : "type-16"
    }
   ],
   "return_type" : "type-8",
   "source_file" : "/frameworks/rs/driver/rsdRuntimeStubs.cpp"
  },
  {
   "function_name" : "rsSetElementAt_ushort",
   "linker_set_key" : "_Z21rsSetElementAt_ushort13rs_allocationPKtjj",
   "parameters" :
   [
    {
     "referenced_type" : "type-750"
    },
    {
     "referenced_type" : "type-831"
    },
    {
     "referenced_type" : "type-16"
    },
    {
     "referenced_type" : "type-16"
    }
   ],
   "return_type" : "type-8",
   "source_file" : "/frameworks/rs/driver/rsdRuntimeStubs.cpp"
  },
  {
   "function_name" : "rsSetElementAt_ushort",
   "linker_set_key" : "_Z21rsSetElementAt_ushort13rs_allocationPKtjjj",
   "parameters" :
   [
    {
     "referenced_type" : "type-750"
    },
    {
     "referenced_type" : "type-831"
    },
    {
     "referenced_type" : "type-16"
    },
    {
     "referenced_type" : "type-16"
    },
    {
     "referenced_type" : "type-16"
    }
   ],
   "return_type" : "type-8",
   "source_file" : "/frameworks/rs/driver/rsdRuntimeStubs.cpp"
  },
  {
   "function_name" : "rsdAllocationUnlock1D",
   "linker_set_key" : "_Z21rsdAllocationUnlock1DPKN7android12renderscript7ContextEPKNS0_10AllocationE",
   "parameters" :
   [
    {
     "referenced_type" : "type-37"
    },
    {
     "referenced_type" : "type-80"
    }
   ],
   "return_type" : "type-8",
   "source_file" : "/frameworks/rs/driver/rsdAllocation.h"
  },
  {
   "function_name" : "rsdFrameBufferDestroy",
   "linker_set_key" : "_Z21rsdFrameBufferDestroyPKN7android12renderscript7ContextEPKNS0_8FBOCacheE",
   "parameters" :
   [
    {
     "referenced_type" : "type-37"
    },
    {
     "referenced_type" : "type-289"
    }
   ],
   "return_type" : "type-8",
   "source_file" : "/frameworks/rs/driver/rsdFrameBuffer.h"
  },
  {
   "function_name" : "rsdScriptGetGlobalVar",
   "linker_set_key" : "_Z21rsdScriptGetGlobalVarPKN7android12renderscript7ContextEPKNS0_6ScriptEjPvj",
   "parameters" :
   [
    {
     "referenced_type" : "type-37"
    },
    {
     "referenced_type" : "type-167"
    },
    {
     "referenced_type" : "type-16"
    },
    {
     "referenced_type" : "type-7"
    },
    {
     "referenced_type" : "type-16"
    }
   ],
   "return_type" : "type-8",
   "source_file" : "/frameworks/rs/driver/rsdBcc.h"
  },
  {
   "function_name" : "rsdScriptGroupDestroy",
   "linker_set_key" : "_Z21rsdScriptGroupDestroyPKN7android12renderscript7ContextEPKNS0_15ScriptGroupBaseE",
   "parameters" :
   [
    {
     "referenced_type" : "type-37"
    },
    {
     "referenced_type" : "type-364"
    }
   ],
   "return_type" : "type-8",
   "source_file" : "/frameworks/rs/driver/rsdScriptGroup.h"
  },
  {
   "function_name" : "rsdScriptGroupExecute",
   "linker_set_key" : "_Z21rsdScriptGroupExecutePKN7android12renderscript7ContextEPKNS0_15ScriptGroupBaseE",
   "parameters" :
   [
    {
     "referenced_type" : "type-37"
    },
    {
     "referenced_type" : "type-364"
    }
   ],
   "return_type" : "type-8",
   "source_file" : "/frameworks/rs/driver/rsdScriptGroup.h"
  },
  {
   "function_name" : "rsdScriptInvokeReduce",
   "linker_set_key" : "_Z21rsdScriptInvokeReducePKN7android12renderscript7ContextEPNS0_6ScriptEjPPKNS0_10AllocationEjPS6_PK12RsScriptCall",
   "parameters" :
   [
    {
     "referenced_type" : "type-37"
    },
    {
     "referenced_type" : "type-146"
    },
    {
     "referenced_type" : "type-16"
    },
    {
     "referenced_type" : "type-162"
    },
    {
     "referenced_type" : "type-16"
    },
    {
     "referenced_type" : "type-72"
    },
    {
     "referenced_type" : "type-156"
    }
   ],
   "return_type" : "type-8",
   "source_file" : "/frameworks/rs/driver/rsdBcc.h"
  },
  {
   "function_name" : "rsdScriptSetGlobalObj",
   "linker_set_key" : "_Z21rsdScriptSetGlobalObjPKN7android12renderscript7ContextEPKNS0_6ScriptEjPNS0_10ObjectBaseE",
   "parameters" :
   [
    {
     "referenced_type" : "type-37"
    },
    {
     "referenced_type" : "type-167"
    },
    {
     "referenced_type" : "type-16"
    },
    {
     "referenced_type" : "type-177"
    }
   ],
   "return_type" : "type-8",
   "source_file" : "/frameworks/rs/driver/rsdBcc.h"
  },
  {
   "function_name" : "rsdScriptSetGlobalVar",
   "linker_set_key" : "_Z21rsdScriptSetGlobalVarPKN7android12renderscript7ContextEPKNS0_6ScriptEjPvj",
   "parameters" :
   [
    {
     "referenced_type" : "type-37"
    },
    {
     "referenced_type" : "type-167"
    },
    {
     "referenced_type" : "type-16"
    },
    {
     "referenced_type" : "type-7"
    },
    {
     "referenced_type" : "type-16"
    }
   ],
   "return_type" : "type-8",
   "source_file" : "/frameworks/rs/driver/rsdBcc.h"
  },
  {
   "function_name" : "rsGetElementAt_double2",
   "linker_set_key" : "_Z22rsGetElementAt_double213rs_allocationPDv2_dj",
   "parameters" :
   [
    {
     "referenced_type" : "type-750"
    },
    {
     "referenced_type" : "type-967"
    },
    {
     "referenced_type" : "type-16"
    }
   ],
   "return_type" : "type-8",
   "source_file" : "/frameworks/rs/driver/rsdRuntimeStubs.cpp"
  },
  {
   "function_name" : "rsGetElementAt_double2",
   "linker_set_key" : "_Z22rsGetElementAt_double213rs_allocationPDv2_djj",
   "parameters" :
   [
    {
     "referenced_type" : "type-750"
    },
    {
     "referenced_type" : "type-967"
    },
    {
     "referenced_type" : "type-16"
    },
    {
     "referenced_type" : "type-16"
    }
   ],
   "return_type" : "type-8",
   "source_file" : "/frameworks/rs/driver/rsdRuntimeStubs.cpp"
  },
  {
   "function_name" : "rsGetElementAt_double2",
   "linker_set_key" : "_Z22rsGetElementAt_double213rs_allocationPDv2_djjj",
   "parameters" :
   [
    {
     "referenced_type" : "type-750"
    },
    {
     "referenced_type" : "type-967"
    },
    {
     "referenced_type" : "type-16"
    },
    {
     "referenced_type" : "type-16"
    },
    {
     "referenced_type" : "type-16"
    }
   ],
   "return_type" : "type-8",
   "source_file" : "/frameworks/rs/driver/rsdRuntimeStubs.cpp"
  },
  {
   "function_name" : "rsGetElementAt_double3",
   "linker_set_key" : "_Z22rsGetElementAt_double313rs_allocationPDv3_dj",
   "parameters" :
   [
    {
     "referenced_type" : "type-750"
    },
    {
     "referenced_type" : "type-973"
    },
    {
     "referenced_type" : "type-16"
    }
   ],
   "return_type" : "type-8",
   "source_file" : "/frameworks/rs/driver/rsdRuntimeStubs.cpp"
  },
  {
   "function_name" : "rsGetElementAt_double3",
   "linker_set_key" : "_Z22rsGetElementAt_double313rs_allocationPDv3_djj",
   "parameters" :
   [
    {
     "referenced_type" : "type-750"
    },
    {
     "referenced_type" : "type-973"
    },
    {
     "referenced_type" : "type-16"
    },
    {
     "referenced_type" : "type-16"
    }
   ],
   "return_type" : "type-8",
   "source_file" : "/frameworks/rs/driver/rsdRuntimeStubs.cpp"
  },
  {
   "function_name" : "rsGetElementAt_double3",
   "linker_set_key" : "_Z22rsGetElementAt_double313rs_allocationPDv3_djjj",
   "parameters" :
   [
    {
     "referenced_type" : "type-750"
    },
    {
     "referenced_type" : "type-973"
    },
    {
     "referenced_type" : "type-16"
    },
    {
     "referenced_type" : "type-16"
    },
    {
     "referenced_type" : "type-16"
    }
   ],
   "return_type" : "type-8",
   "source_file" : "/frameworks/rs/driver/rsdRuntimeStubs.cpp"
  },
  {
   "function_name" : "rsGetElementAt_double4",
   "linker_set_key" : "_Z22rsGetElementAt_double413rs_allocationPDv4_dj",
   "parameters" :
   [
    {
     "referenced_type" : "type-750"
    },
    {
     "referenced_type" : "type-978"
    },
    {
     "referenced_type" : "type-16"
    }
   ],
   "return_type" : "type-8",
   "source_file" : "/frameworks/rs/driver/rsdRuntimeStubs.cpp"
  },
  {
   "function_name" : "rsGetElementAt_double4",
   "linker_set_key" : "_Z22rsGetElementAt_double413rs_allocationPDv4_djj",
   "parameters" :
   [
    {
     "referenced_type" : "type-750"
    },
    {
     "referenced_type" : "type-978"
    },
    {
     "referenced_type" : "type-16"
    },
    {
     "referenced_type" : "type-16"
    }
   ],
   "return_type" : "type-8",
   "source_file" : "/frameworks/rs/driver/rsdRuntimeStubs.cpp"
  },
  {
   "function_name" : "rsGetElementAt_double4",
   "linker_set_key" : "_Z22rsGetElementAt_double413rs_allocationPDv4_djjj",
   "parameters" :
   [
    {
     "referenced_type" : "type-750"
    },
    {
     "referenced_type" : "type-978"
    },
    {
     "referenced_type" : "type-16"
    },
    {
     "referenced_type" : "type-16"
    },
    {
     "referenced_type" : "type-16"
    }
   ],
   "return_type" : "type-8",
   "source_file" : "/frameworks/rs/driver/rsdRuntimeStubs.cpp"
  },
  {
   "function_name" : "rsGetElementAt_ushort2",
   "linker_set_key" : "_Z22rsGetElementAt_ushort213rs_allocationPDv2_tj",
   "parameters" :
   [
    {
     "referenced_type" : "type-750"
    },
    {
     "referenced_type" : "type-837"
    },
    {
     "referenced_type" : "type-16"
    }
   ],
   "return_type" : "type-8",
   "source_file" : "/frameworks/rs/driver/rsdRuntimeStubs.cpp"
  },
  {
   "function_name" : "rsGetElementAt_ushort2",
   "linker_set_key" : "_Z22rsGetElementAt_ushort213rs_allocationPDv2_tjj",
   "parameters" :
   [
    {
     "referenced_type" : "type-750"
    },
    {
     "referenced_type" : "type-837"
    },
    {
     "referenced_type" : "type-16"
    },
    {
     "referenced_type" : "type-16"
    }
   ],
   "return_type" : "type-8",
   "source_file" : "/frameworks/rs/driver/rsdRuntimeStubs.cpp"
  },
  {
   "function_name" : "rsGetElementAt_ushort2",
   "linker_set_key" : "_Z22rsGetElementAt_ushort213rs_allocationPDv2_tjjj",
   "parameters" :
   [
    {
     "referenced_type" : "type-750"
    },
    {
     "referenced_type" : "type-837"
    },
    {
     "referenced_type" : "type-16"
    },
    {
     "referenced_type" : "type-16"
    },
    {
     "referenced_type" : "type-16"
    }
   ],
   "return_type" : "type-8",
   "source_file" : "/frameworks/rs/driver/rsdRuntimeStubs.cpp"
  },
  {
   "function_name" : "rsGetElementAt_ushort3",
   "linker_set_key" : "_Z22rsGetElementAt_ushort313rs_allocationPDv3_tj",
   "parameters" :
   [
    {
     "referenced_type" : "type-750"
    },
    {
     "referenced_type" : "type-843"
    },
    {
     "referenced_type" : "type-16"
    }
   ],
   "return_type" : "type-8",
   "source_file" : "/frameworks/rs/driver/rsdRuntimeStubs.cpp"
  },
  {
   "function_name" : "rsGetElementAt_ushort3",
   "linker_set_key" : "_Z22rsGetElementAt_ushort313rs_allocationPDv3_tjj",
   "parameters" :
   [
    {
     "referenced_type" : "type-750"
    },
    {
     "referenced_type" : "type-843"
    },
    {
     "referenced_type" : "type-16"
    },
    {
     "referenced_type" : "type-16"
    }
   ],
   "return_type" : "type-8",
   "source_file" : "/frameworks/rs/driver/rsdRuntimeStubs.cpp"
  },
  {
   "function_name" : "rsGetElementAt_ushort3",
   "linker_set_key" : "_Z22rsGetElementAt_ushort313rs_allocationPDv3_tjjj",
   "parameters" :
   [
    {
     "referenced_type" : "type-750"
    },
    {
     "referenced_type" : "type-843"
    },
    {
     "referenced_type" : "type-16"
    },
    {
     "referenced_type" : "type-16"
    },
    {
     "referenced_type" : "type-16"
    }
   ],
   "return_type" : "type-8",
   "source_file" : "/frameworks/rs/driver/rsdRuntimeStubs.cpp"
  },
  {
   "function_name" : "rsGetElementAt_ushort4",
   "linker_set_key" : "_Z22rsGetElementAt_ushort413rs_allocationPDv4_tj",
   "parameters" :
   [
    {
     "referenced_type" : "type-750"
    },
    {
     "referenced_type" : "type-848"
    },
    {
     "referenced_type" : "type-16"
    }
   ],
   "return_type" : "type-8",
   "source_file" : "/frameworks/rs/driver/rsdRuntimeStubs.cpp"
  },
  {
   "function_name" : "rsGetElementAt_ushort4",
   "linker_set_key" : "_Z22rsGetElementAt_ushort413rs_allocationPDv4_tjj",
   "parameters" :
   [
    {
     "referenced_type" : "type-750"
    },
    {
     "referenced_type" : "type-848"
    },
    {
     "referenced_type" : "type-16"
    },
    {
     "referenced_type" : "type-16"
    }
   ],
   "return_type" : "type-8",
   "source_file" : "/frameworks/rs/driver/rsdRuntimeStubs.cpp"
  },
  {
   "function_name" : "rsGetElementAt_ushort4",
   "linker_set_key" : "_Z22rsGetElementAt_ushort413rs_allocationPDv4_tjjj",
   "parameters" :
   [
    {
     "referenced_type" : "type-750"
    },
    {
     "referenced_type" : "type-848"
    },
    {
     "referenced_type" : "type-16"
    },
    {
     "referenced_type" : "type-16"
    },
    {
     "referenced_type" : "type-16"
    }
   ],
   "return_type" : "type-8",
   "source_file" : "/frameworks/rs/driver/rsdRuntimeStubs.cpp"
  },
  {
   "function_name" : "rsSendToClientBlocking",
   "linker_set_key" : "_Z22rsSendToClientBlockingi",
   "parameters" :
   [
    {
     "referenced_type" : "type-36"
    }
   ],
   "return_type" : "type-16",
   "source_file" : "/frameworks/rs/driver/rsdRuntimeStubs.cpp"
  },
  {
   "function_name" : "rsSendToClientBlocking",
   "linker_set_key" : "_Z22rsSendToClientBlockingiPKvj",
   "parameters" :
   [
    {
     "referenced_type" : "type-36"
    },
    {
     "referenced_type" : "type-150"
    },
    {
     "referenced_type" : "type-16"
    }
   ],
   "return_type" : "type-16",
   "source_file" : "/frameworks/rs/driver/rsdRuntimeStubs.cpp"
  },
  {
   "function_name" : "rsSetElementAt_double2",
   "linker_set_key" : "_Z22rsSetElementAt_double213rs_allocationPKDv2_dj",
   "parameters" :
   [
    {
     "referenced_type" : "type-750"
    },
    {
     "referenced_type" : "type-966"
    },
    {
     "referenced_type" : "type-16"
    }
   ],
   "return_type" : "type-8",
   "source_file" : "/frameworks/rs/driver/rsdRuntimeStubs.cpp"
  },
  {
   "function_name" : "rsSetElementAt_double2",
   "linker_set_key" : "_Z22rsSetElementAt_double213rs_allocationPKDv2_djj",
   "parameters" :
   [
    {
     "referenced_type" : "type-750"
    },
    {
     "referenced_type" : "type-966"
    },
    {
     "referenced_type" : "type-16"
    },
    {
     "referenced_type" : "type-16"
    }
   ],
   "return_type" : "type-8",
   "source_file" : "/frameworks/rs/driver/rsdRuntimeStubs.cpp"
  },
  {
   "function_name" : "rsSetElementAt_double2",
   "linker_set_key" : "_Z22rsSetElementAt_double213rs_allocationPKDv2_djjj",
   "parameters" :
   [
    {
     "referenced_type" : "type-750"
    },
    {
     "referenced_type" : "type-966"
    },
    {
     "referenced_type" : "type-16"
    },
    {
     "referenced_type" : "type-16"
    },
    {
     "referenced_type" : "type-16"
    }
   ],
   "return_type" : "type-8",
   "source_file" : "/frameworks/rs/driver/rsdRuntimeStubs.cpp"
  },
  {
   "function_name" : "rsSetElementAt_double3",
   "linker_set_key" : "_Z22rsSetElementAt_double313rs_allocationPKDv3_dj",
   "parameters" :
   [
    {
     "referenced_type" : "type-750"
    },
    {
     "referenced_type" : "type-972"
    },
    {
     "referenced_type" : "type-16"
    }
   ],
   "return_type" : "type-8",
   "source_file" : "/frameworks/rs/driver/rsdRuntimeStubs.cpp"
  },
  {
   "function_name" : "rsSetElementAt_double3",
   "linker_set_key" : "_Z22rsSetElementAt_double313rs_allocationPKDv3_djj",
   "parameters" :
   [
    {
     "referenced_type" : "type-750"
    },
    {
     "referenced_type" : "type-972"
    },
    {
     "referenced_type" : "type-16"
    },
    {
     "referenced_type" : "type-16"
    }
   ],
   "return_type" : "type-8",
   "source_file" : "/frameworks/rs/driver/rsdRuntimeStubs.cpp"
  },
  {
   "function_name" : "rsSetElementAt_double3",
   "linker_set_key" : "_Z22rsSetElementAt_double313rs_allocationPKDv3_djjj",
   "parameters" :
   [
    {
     "referenced_type" : "type-750"
    },
    {
     "referenced_type" : "type-972"
    },
    {
     "referenced_type" : "type-16"
    },
    {
     "referenced_type" : "type-16"
    },
    {
     "referenced_type" : "type-16"
    }
   ],
   "return_type" : "type-8",
   "source_file" : "/frameworks/rs/driver/rsdRuntimeStubs.cpp"
  },
  {
   "function_name" : "rsSetElementAt_double4",
   "linker_set_key" : "_Z22rsSetElementAt_double413rs_allocationPKDv4_dj",
   "parameters" :
   [
    {
     "referenced_type" : "type-750"
    },
    {
     "referenced_type" : "type-977"
    },
    {
     "referenced_type" : "type-16"
    }
   ],
   "return_type" : "type-8",
   "source_file" : "/frameworks/rs/driver/rsdRuntimeStubs.cpp"
  },
  {
   "function_name" : "rsSetElementAt_double4",
   "linker_set_key" : "_Z22rsSetElementAt_double413rs_allocationPKDv4_djj",
   "parameters" :
   [
    {
     "referenced_type" : "type-750"
    },
    {
     "referenced_type" : "type-977"
    },
    {
     "referenced_type" : "type-16"
    },
    {
     "referenced_type" : "type-16"
    }
   ],
   "return_type" : "type-8",
   "source_file" : "/frameworks/rs/driver/rsdRuntimeStubs.cpp"
  },
  {
   "function_name" : "rsSetElementAt_double4",
   "linker_set_key" : "_Z22rsSetElementAt_double413rs_allocationPKDv4_djjj",
   "parameters" :
   [
    {
     "referenced_type" : "type-750"
    },
    {
     "referenced_type" : "type-977"
    },
    {
     "referenced_type" : "type-16"
    },
    {
     "referenced_type" : "type-16"
    },
    {
     "referenced_type" : "type-16"
    }
   ],
   "return_type" : "type-8",
   "source_file" : "/frameworks/rs/driver/rsdRuntimeStubs.cpp"
  },
  {
   "function_name" : "rsSetElementAt_ushort2",
   "linker_set_key" : "_Z22rsSetElementAt_ushort213rs_allocationPKDv2_tj",
   "parameters" :
   [
    {
     "referenced_type" : "type-750"
    },
    {
     "referenced_type" : "type-836"
    },
    {
     "referenced_type" : "type-16"
    }
   ],
   "return_type" : "type-8",
   "source_file" : "/frameworks/rs/driver/rsdRuntimeStubs.cpp"
  },
  {
   "function_name" : "rsSetElementAt_ushort2",
   "linker_set_key" : "_Z22rsSetElementAt_ushort213rs_allocationPKDv2_tjj",
   "parameters" :
   [
    {
     "referenced_type" : "type-750"
    },
    {
     "referenced_type" : "type-836"
    },
    {
     "referenced_type" : "type-16"
    },
    {
     "referenced_type" : "type-16"
    }
   ],
   "return_type" : "type-8",
   "source_file" : "/frameworks/rs/driver/rsdRuntimeStubs.cpp"
  },
  {
   "function_name" : "rsSetElementAt_ushort2",
   "linker_set_key" : "_Z22rsSetElementAt_ushort213rs_allocationPKDv2_tjjj",
   "parameters" :
   [
    {
     "referenced_type" : "type-750"
    },
    {
     "referenced_type" : "type-836"
    },
    {
     "referenced_type" : "type-16"
    },
    {
     "referenced_type" : "type-16"
    },
    {
     "referenced_type" : "type-16"
    }
   ],
   "return_type" : "type-8",
   "source_file" : "/frameworks/rs/driver/rsdRuntimeStubs.cpp"
  },
  {
   "function_name" : "rsSetElementAt_ushort3",
   "linker_set_key" : "_Z22rsSetElementAt_ushort313rs_allocationPKDv3_tj",
   "parameters" :
   [
    {
     "referenced_type" : "type-750"
    },
    {
     "referenced_type" : "type-842"
    },
    {
     "referenced_type" : "type-16"
    }
   ],
   "return_type" : "type-8",
   "source_file" : "/frameworks/rs/driver/rsdRuntimeStubs.cpp"
  },
  {
   "function_name" : "rsSetElementAt_ushort3",
   "linker_set_key" : "_Z22rsSetElementAt_ushort313rs_allocationPKDv3_tjj",
   "parameters" :
   [
    {
     "referenced_type" : "type-750"
    },
    {
     "referenced_type" : "type-842"
    },
    {
     "referenced_type" : "type-16"
    },
    {
     "referenced_type" : "type-16"
    }
   ],
   "return_type" : "type-8",
   "source_file" : "/frameworks/rs/driver/rsdRuntimeStubs.cpp"
  },
  {
   "function_name" : "rsSetElementAt_ushort3",
   "linker_set_key" : "_Z22rsSetElementAt_ushort313rs_allocationPKDv3_tjjj",
   "parameters" :
   [
    {
     "referenced_type" : "type-750"
    },
    {
     "referenced_type" : "type-842"
    },
    {
     "referenced_type" : "type-16"
    },
    {
     "referenced_type" : "type-16"
    },
    {
     "referenced_type" : "type-16"
    }
   ],
   "return_type" : "type-8",
   "source_file" : "/frameworks/rs/driver/rsdRuntimeStubs.cpp"
  },
  {
   "function_name" : "rsSetElementAt_ushort4",
   "linker_set_key" : "_Z22rsSetElementAt_ushort413rs_allocationPKDv4_tj",
   "parameters" :
   [
    {
     "referenced_type" : "type-750"
    },
    {
     "referenced_type" : "type-847"
    },
    {
     "referenced_type" : "type-16"
    }
   ],
   "return_type" : "type-8",
   "source_file" : "/frameworks/rs/driver/rsdRuntimeStubs.cpp"
  },
  {
   "function_name" : "rsSetElementAt_ushort4",
   "linker_set_key" : "_Z22rsSetElementAt_ushort413rs_allocationPKDv4_tjj",
   "parameters" :
   [
    {
     "referenced_type" : "type-750"
    },
    {
     "referenced_type" : "type-847"
    },
    {
     "referenced_type" : "type-16"
    },
    {
     "referenced_type" : "type-16"
    }
   ],
   "return_type" : "type-8",
   "source_file" : "/frameworks/rs/driver/rsdRuntimeStubs.cpp"
  },
  {
   "function_name" : "rsSetElementAt_ushort4",
   "linker_set_key" : "_Z22rsSetElementAt_ushort413rs_allocationPKDv4_tjjj",
   "parameters" :
   [
    {
     "referenced_type" : "type-750"
    },
    {
     "referenced_type" : "type-847"
    },
    {
     "referenced_type" : "type-16"
    },
    {
     "referenced_type" : "type-16"
    },
    {
     "referenced_type" : "type-16"
    }
   ],
   "return_type" : "type-8",
   "source_file" : "/frameworks/rs/driver/rsdRuntimeStubs.cpp"
  },
  {
   "function_name" : "rsdAllocationIoReceive",
   "linker_set_key" : "_Z22rsdAllocationIoReceivePKN7android12renderscript7ContextEPNS0_10AllocationE",
   "parameters" :
   [
    {
     "referenced_type" : "type-37"
    },
    {
     "referenced_type" : "type-72"
    }
   ],
   "return_type" : "type-8",
   "source_file" : "/frameworks/rs/driver/rsdAllocation.h"
  },
  {
   "function_name" : "rsdAllocationMarkDirty",
   "linker_set_key" : "_Z22rsdAllocationMarkDirtyPKN7android12renderscript7ContextEPKNS0_10AllocationE",
   "parameters" :
   [
    {
     "referenced_type" : "type-37"
    },
    {
     "referenced_type" : "type-80"
    }
   ],
   "return_type" : "type-8",
   "source_file" : "/frameworks/rs/driver/rsdAllocation.h"
  },
  {
   "function_name" : "rsdGLDrawQuadTexCoords",
   "linker_set_key" : "_Z22rsdGLDrawQuadTexCoordsPKN7android12renderscript7ContextEffffffffffffffffffff",
   "parameters" :
   [
    {
     "referenced_type" : "type-37"
    },
    {
     "referenced_type" : "type-108"
    },
    {
     "referenced_type" : "type-108"
    },
    {
     "referenced_type" : "type-108"
    },
    {
     "referenced_type" : "type-108"
    },
    {
     "referenced_type" : "type-108"
    },
    {
     "referenced_type" : "type-108"
    },
    {
     "referenced_type" : "type-108"
    },
    {
     "referenced_type" : "type-108"
    },
    {
     "referenced_type" : "type-108"
    },
    {
     "referenced_type" : "type-108"
    },
    {
     "referenced_type" : "type-108"
    },
    {
     "referenced_type" : "type-108"
    },
    {
     "referenced_type" : "type-108"
    },
    {
     "referenced_type" : "type-108"
    },
    {
     "referenced_type" : "type-108"
    },
    {
     "referenced_type" : "type-108"
    },
    {
     "referenced_type" : "type-108"
    },
    {
     "referenced_type" : "type-108"
    },
    {
     "referenced_type" : "type-108"
    },
    {
     "referenced_type" : "type-108"
    }
   ],
   "return_type" : "type-8",
   "source_file" : "/frameworks/rs/driver/rsdGL.h"
  },
  {
   "function_name" : "rsdProgramFragmentInit",
   "linker_set_key" : "_Z22rsdProgramFragmentInitPKN7android12renderscript7ContextEPKNS0_15ProgramFragmentEPKcjPS8_jPKj",
   "parameters" :
   [
    {
     "referenced_type" : "type-37"
    },
    {
     "referenced_type" : "type-261"
    },
    {
     "referenced_type" : "type-21"
    },
    {
     "referenced_type" : "type-16"
    },
    {
     "referenced_type" : "type-20"
    },
    {
     "referenced_type" : "type-16"
    },
    {
     "referenced_type" : "type-171"
    }
   ],
   "return_type" : "type-27",
   "source_file" : "/frameworks/rs/driver/rsdProgram.cpp"
  },
  {
   "function_name" : "rsdProgramStoreDestroy",
   "linker_set_key" : "_Z22rsdProgramStoreDestroyPKN7android12renderscript7ContextEPKNS0_12ProgramStoreE",
   "parameters" :
   [
    {
     "referenced_type" : "type-37"
    },
    {
     "referenced_type" : "type-240"
    }
   ],
   "return_type" : "type-8",
   "source_file" : "/frameworks/rs/driver/rsdProgramStore.h"
  },
  {
   "function_name" : "rsdScriptGroupSetInput",
   "linker_set_key" : "_Z22rsdScriptGroupSetInputPKN7android12renderscript7ContextEPKNS0_11ScriptGroupEPKNS0_14ScriptKernelIDEPNS0_10AllocationE",
   "parameters" :
   [
    {
     "referenced_type" : "type-37"
    },
    {
     "referenced_type" : "type-305"
    },
    {
     "referenced_type" : "type-325"
    },
    {
     "referenced_type" : "type-72"
    }
   ],
   "return_type" : "type-8",
   "source_file" : "/frameworks/rs/driver/rsdScriptGroup.h"
  },
  {
   "function_name" : "rsdScriptInvokeForEach",
   "linker_set_key" : "_Z22rsdScriptInvokeForEachPKN7android12renderscript7ContextEPNS0_6ScriptEjPKNS0_10AllocationEPS6_PKvjPK12RsScriptCall",
   "parameters" :
   [
    {
     "referenced_type" : "type-37"
    },
    {
     "referenced_type" : "type-146"
    },
    {
     "referenced_type" : "type-16"
    },
    {
     "referenced_type" : "type-80"
    },
    {
     "referenced_type" : "type-72"
    },
    {
     "referenced_type" : "type-150"
    },
    {
     "referenced_type" : "type-16"
    },
    {
     "referenced_type" : "type-156"
    }
   ],
   "return_type" : "type-8",
   "source_file" : "/frameworks/rs/driver/rsdBcc.h"
  },
  {
   "function_name" : "rsdScriptSetGlobalBind",
   "linker_set_key" : "_Z22rsdScriptSetGlobalBindPKN7android12renderscript7ContextEPKNS0_6ScriptEjPNS0_10AllocationE",
   "parameters" :
   [
    {
     "referenced_type" : "type-37"
    },
    {
     "referenced_type" : "type-167"
    },
    {
     "referenced_type" : "type-16"
    },
    {
     "referenced_type" : "type-72"
    }
   ],
   "return_type" : "type-8",
   "source_file" : "/frameworks/rs/driver/rsdBcc.h"
  },
  {
   "function_name" : "rsgBindProgramFragment",
   "linker_set_key" : "_Z22rsgBindProgramFragment19rs_program_fragment",
   "parameters" :
   [
    {
     "referenced_type" : "type-754"
    }
   ],
   "return_type" : "type-8",
   "source_file" : "/frameworks/rs/driver/rsdRuntimeStubs.cpp"
  },
  {
   "function_name" : "rsAllocationCopy1DRange",
   "linker_set_key" : "_Z23rsAllocationCopy1DRange13rs_allocationjjjS_jj",
   "parameters" :
   [
    {
     "referenced_type" : "type-750"
    },
    {
     "referenced_type" : "type-16"
    },
    {
     "referenced_type" : "type-16"
    },
    {
     "referenced_type" : "type-16"
    },
    {
     "referenced_type" : "type-750"
    },
    {
     "referenced_type" : "type-16"
    },
    {
     "referenced_type" : "type-16"
    }
   ],
   "return_type" : "type-8",
   "source_file" : "/frameworks/rs/driver/rsdRuntimeStubs.cpp"
  },
  {
   "function_name" : "rsAllocationCopy2DRange",
   "linker_set_key" : "_Z23rsAllocationCopy2DRange13rs_allocationjjj26rs_allocation_cubemap_facejjS_jjjS0_",
   "parameters" :
   [
    {
     "referenced_type" : "type-750"
    },
    {
     "referenced_type" : "type-16"
    },
    {
     "referenced_type" : "type-16"
    },
    {
     "referenced_type" : "type-16"
    },
    {
     "referenced_type" : "type-760"
    },
    {
     "referenced_type" : "type-16"
    },
    {
     "referenced_type" : "type-16"
    },
    {
     "referenced_type" : "type-750"
    },
    {
     "referenced_type" : "type-16"
    },
    {
     "referenced_type" : "type-16"
    },
    {
     "referenced_type" : "type-16"
    },
    {
     "referenced_type" : "type-760"
    }
   ],
   "return_type" : "type-8",
   "source_file" : "/frameworks/rs/driver/rsdRuntimeStubs.cpp"
  },
  {
   "function_name" : "rsdAllocationSetSurface",
   "linker_set_key" : "_Z23rsdAllocationSetSurfacePKN7android12renderscript7ContextEPNS0_10AllocationEP13ANativeWindow",
   "parameters" :
   [
    {
     "referenced_type" : "type-37"
    },
    {
     "referenced_type" : "type-72"
    },
    {
     "referenced_type" : "type-204"
    }
   ],
   "return_type" : "type-8",
   "source_file" : "/frameworks/rs/driver/rsdAllocation.h"
  },
  {
   "function_name" : "rsdFrameBufferSetActive",
   "linker_set_key" : "_Z23rsdFrameBufferSetActivePKN7android12renderscript7ContextEPKNS0_8FBOCacheE",
   "parameters" :
   [
    {
     "referenced_type" : "type-37"
    },
    {
     "referenced_type" : "type-289"
    }
   ],
   "return_type" : "type-8",
   "source_file" : "/frameworks/rs/driver/rsdFrameBuffer.h"
  },
  {
   "function_name" : "rsdGLSetInternalSurface",
   "linker_set_key" : "_Z23rsdGLSetInternalSurfacePKN7android12renderscript7ContextEPv",
   "parameters" :
   [
    {
     "referenced_type" : "type-37"
    },
    {
     "referenced_type" : "type-7"
    }
   ],
   "return_type" : "type-27",
   "source_file" : "/frameworks/rs/driver/rsdGL.h"
  },
  {
   "function_name" : "rsdProgramRasterDestroy",
   "linker_set_key" : "_Z23rsdProgramRasterDestroyPKN7android12renderscript7ContextEPKNS0_13ProgramRasterE",
   "parameters" :
   [
    {
     "referenced_type" : "type-37"
    },
    {
     "referenced_type" : "type-247"
    }
   ],
   "return_type" : "type-8",
   "source_file" : "/frameworks/rs/driver/rsdProgramRaster.cpp"
  },
  {
   "function_name" : "rsdProgramVertexDestroy",
   "linker_set_key" : "_Z23rsdProgramVertexDestroyPKN7android12renderscript7ContextEPKNS0_13ProgramVertexE",
   "parameters" :
   [
    {
     "referenced_type" : "type-37"
    },
    {
     "referenced_type" : "type-254"
    }
   ],
   "return_type" : "type-8",
   "source_file" : "/frameworks/rs/driver/rsdProgramVertex.h"
  },
  {
   "function_name" : "rsdScriptGroupSetOutput",
   "linker_set_key" : "_Z23rsdScriptGroupSetOutputPKN7android12renderscript7ContextEPKNS0_11ScriptGroupEPKNS0_14ScriptKernelIDEPNS0_10AllocationE",
   "parameters" :
   [
    {
     "referenced_type" : "type-37"
    },
    {
     "referenced_type" : "type-305"
    },
    {
     "referenced_type" : "type-325"
    },
    {
     "referenced_type" : "type-72"
    }
   ],
   "return_type" : "type-8",
   "source_file" : "/frameworks/rs/driver/rsdScriptGroup.h"
  },
  {
   "function_name" : "rsdScriptInvokeFunction",
   "linker_set_key" : "_Z23rsdScriptInvokeFunctionPKN7android12renderscript7ContextEPNS0_6ScriptEjPKvj",
   "parameters" :
   [
    {
     "referenced_type" : "type-37"
    },
    {
     "referenced_type" : "type-146"
    },
    {
     "referenced_type" : "type-16"
    },
    {
     "referenced_type" : "type-150"
    },
    {
     "referenced_type" : "type-16"
    }
   ],
   "return_type" : "type-8",
   "source_file" : "/frameworks/rs/driver/rsdBcc.h"
  },
  {
   "function_name" : "rsdAllocationAdapterInit",
   "linker_set_key" : "_Z24rsdAllocationAdapterInitPKN7android12renderscript7ContextEPNS0_10AllocationE",
   "parameters" :
   [
    {
     "referenced_type" : "type-37"
    },
    {
     "referenced_type" : "type-72"
    }
   ],
   "return_type" : "type-27",
   "source_file" : "/frameworks/rs/driver/rsdAllocation.h"
  },
  {
   "function_name" : "rsdAllocationElementData",
   "linker_set_key" : "_Z24rsdAllocationElementDataPKN7android12renderscript7ContextEPKNS0_10AllocationEjjjPKvjj",
   "parameters" :
   [
    {
     "referenced_type" : "type-37"
    },
    {
     "referenced_type" : "type-80"
    },
    {
     "referenced_type" : "type-16"
    },
    {
     "referenced_type" : "type-16"
    },
    {
     "referenced_type" : "type-16"
    },
    {
     "referenced_type" : "type-150"
    },
    {
     "referenced_type" : "type-16"
    },
    {
     "referenced_type" : "type-16"
    }
   ],
   "return_type" : "type-8",
   "source_file" : "/frameworks/rs/driver/rsdAllocation.h"
  },
  {
   "function_name" : "rsdAllocationElementRead",
   "linker_set_key" : "_Z24rsdAllocationElementReadPKN7android12renderscript7ContextEPKNS0_10AllocationEjjjPvjj",
   "parameters" :
   [
    {
     "referenced_type" : "type-37"
    },
    {
     "referenced_type" : "type-80"
    },
    {
     "referenced_type" : "type-16"
    },
    {
     "referenced_type" : "type-16"
    },
    {
     "referenced_type" : "type-16"
    },
    {
     "referenced_type" : "type-7"
    },
    {
     "referenced_type" : "type-16"
    },
    {
     "referenced_type" : "type-16"
    }
   ],
   "return_type" : "type-8",
   "source_file" : "/frameworks/rs/driver/rsdAllocation.h"
  },
  {
   "function_name" : "rsdAllocationGrallocBits",
   "linker_set_key" : "_Z24rsdAllocationGrallocBitsPKN7android12renderscript7ContextEPNS0_10AllocationE",
   "parameters" :
   [
    {
     "referenced_type" : "type-37"
    },
    {
     "referenced_type" : "type-72"
    }
   ],
   "return_type" : "type-16",
   "source_file" : "/frameworks/rs/driver/rsdAllocation.h"
  },
  {
   "function_name" : "rsdAllocationInitStrided",
   "linker_set_key" : "_Z24rsdAllocationInitStridedPKN7android12renderscript7ContextEPNS0_10AllocationEbj",
   "parameters" :
   [
    {
     "referenced_type" : "type-37"
    },
    {
     "referenced_type" : "type-72"
    },
    {
     "referenced_type" : "type-27"
    },
    {
     "referenced_type" : "type-16"
    }
   ],
   "return_type" : "type-27",
   "source_file" : "/frameworks/rs/driver/rsdAllocation.cpp"
  },
  {
   "function_name" : "rsdProgramStoreSetActive",
   "linker_set_key" : "_Z24rsdProgramStoreSetActivePKN7android12renderscript7ContextEPKNS0_12ProgramStoreE",
   "parameters" :
   [
    {
     "referenced_type" : "type-37"
    },
    {
     "referenced_type" : "type-240"
    }
   ],
   "return_type" : "type-8",
   "source_file" : "/frameworks/rs/driver/rsdProgramStore.h"
  },
  {
   "function_name" : "rsgClearAllRenderTargets",
   "linker_set_key" : "_Z24rsgClearAllRenderTargetsv",
   "return_type" : "type-8",
   "source_file" : "/frameworks/rs/driver/rsdRuntimeStubs.cpp"
  },
  {
   "function_name" : "rsgDrawSpriteScreenspace",
   "linker_set_key" : "_Z24rsgDrawSpriteScreenspacefffff",
   "parameters" :
   [
    {
     "referenced_type" : "type-108"
    },
    {
     "referenced_type" : "type-108"
    },
    {
     "referenced_type" : "type-108"
    },
    {
     "referenced_type" : "type-108"
    },
    {
     "referenced_type" : "type-108"
    }
   ],
   "return_type" : "type-8",
   "source_file" : "/frameworks/rs/driver/rsdRuntimeStubs.cpp"
  },
  {
   "function_name" : "rsdAllocationData1D_alloc",
   "linker_set_key" : "_Z25rsdAllocationData1D_allocPKN7android12renderscript7ContextEPKNS0_10AllocationEjjjS6_jj",
   "parameters" :
   [
    {
     "referenced_type" : "type-37"
    },
    {
     "referenced_type" : "type-80"
    },
    {
     "referenced_type" : "type-16"
    },
    {
     "referenced_type" : "type-16"
    },
    {
     "referenced_type" : "type-16"
    },
    {
     "referenced_type" : "type-80"
    },
    {
     "referenced_type" : "type-16"
    },
    {
     "referenced_type" : "type-16"
    }
   ],
   "return_type" : "type-8",
   "source_file" : "/frameworks/rs/driver/rsdAllocation.h"
  },
  {
   "function_name" : "rsdAllocationData2D_alloc",
   "linker_set_key" : "_Z25rsdAllocationData2D_allocPKN7android12renderscript7ContextEPKNS0_10AllocationEjjj23RsAllocationCubemapFacejjS6_jjjS7_",
   "parameters" :
   [
    {
     "referenced_type" : "type-37"
    },
    {
     "referenced_type" : "type-80"
    },
    {
     "referenced_type" : "type-16"
    },
    {
     "referenced_type" : "type-16"
    },
    {
     "referenced_type" : "type-16"
    },
    {
     "referenced_type" : "type-210"
    },
    {
     "referenced_type" : "type-16"
    },
    {
     "referenced_type" : "type-16"
    },
    {
     "referenced_type" : "type-80"
    },
    {
     "referenced_type" : "type-16"
    },
    {
     "referenced_type" : "type-16"
    },
    {
     "referenced_type" : "type-16"
    },
    {
     "referenced_type" : "type-210"
    }
   ],
   "return_type" : "type-8",
   "source_file" : "/frameworks/rs/driver/rsdAllocation.h"
  },
  {
   "function_name" : "rsdAllocationData3D_alloc",
   "linker_set_key" : "_Z25rsdAllocationData3D_allocPKN7android12renderscript7ContextEPKNS0_10AllocationEjjjjjjjS6_jjjj",
   "parameters" :
   [
    {
     "referenced_type" : "type-37"
    },
    {
     "referenced_type" : "type-80"
    },
    {
     "referenced_type" : "type-16"
    },
    {
     "referenced_type" : "type-16"
    },
    {
     "referenced_type" : "type-16"
    },
    {
     "referenced_type" : "type-16"
    },
    {
     "referenced_type" : "type-16"
    },
    {
     "referenced_type" : "type-16"
    },
    {
     "referenced_type" : "type-16"
    },
    {
     "referenced_type" : "type-80"
    },
    {
     "referenced_type" : "type-16"
    },
    {
     "referenced_type" : "type-16"
    },
    {
     "referenced_type" : "type-16"
    },
    {
     "referenced_type" : "type-16"
    }
   ],
   "return_type" : "type-8",
   "source_file" : "/frameworks/rs/driver/rsdAllocation.h"
  },
  {
   "function_name" : "rsdProgramFragmentDestroy",
   "linker_set_key" : "_Z25rsdProgramFragmentDestroyPKN7android12renderscript7ContextEPKNS0_15ProgramFragmentE",
   "parameters" :
   [
    {
     "referenced_type" : "type-37"
    },
    {
     "referenced_type" : "type-261"
    }
   ],
   "return_type" : "type-8",
   "source_file" : "/frameworks/rs/driver/rsdProgram.cpp"
  },
  {
   "function_name" : "rsdProgramRasterSetActive",
   "linker_set_key" : "_Z25rsdProgramRasterSetActivePKN7android12renderscript7ContextEPKNS0_13ProgramRasterE",
   "parameters" :
   [
    {
     "referenced_type" : "type-37"
    },
    {
     "referenced_type" : "type-247"
    }
   ],
   "return_type" : "type-8",
   "source_file" : "/frameworks/rs/driver/rsdProgramRaster.cpp"
  },
  {
   "function_name" : "rsdProgramVertexSetActive",
   "linker_set_key" : "_Z25rsdProgramVertexSetActivePKN7android12renderscript7ContextEPKNS0_13ProgramVertexE",
   "parameters" :
   [
    {
     "referenced_type" : "type-37"
    },
    {
     "referenced_type" : "type-254"
    }
   ],
   "return_type" : "type-8",
   "source_file" : "/frameworks/rs/driver/rsdProgramVertex.h"
  },
  {
   "function_name" : "rsdTypeUpdateCachedObject",
   "linker_set_key" : "_Z25rsdTypeUpdateCachedObjectPKN7android12renderscript7ContextEPKNS0_4TypeEPNS0_7rs_typeE",
   "parameters" :
   [
    {
     "referenced_type" : "type-37"
    },
    {
     "referenced_type" : "type-76"
    },
    {
     "referenced_type" : "type-377"
    }
   ],
   "return_type" : "type-8",
   "source_file" : "/frameworks/rs/driver/rsdType.cpp"
  },
  {
   "function_name" : "rsgMeshComputeBoundingBox",
   "linker_set_key" : "_Z25rsgMeshComputeBoundingBox7rs_meshPfS0_S0_S0_S0_S0_",
   "parameters" :
   [
    {
     "referenced_type" : "type-758"
    },
    {
     "referenced_type" : "type-470"
    },
    {
     "referenced_type" : "type-470"
    },
    {
     "referenced_type" : "type-470"
    },
    {
     "referenced_type" : "type-470"
    },
    {
     "referenced_type" : "type-470"
    },
    {
     "referenced_type" : "type-470"
    }
   ],
   "return_type" : "type-8",
   "source_file" : "/frameworks/rs/driver/rsdRuntimeStubs.cpp"
  },
  {
   "function_name" : "rsdAllocationAdapterOffset",
   "linker_set_key" : "_Z26rsdAllocationAdapterOffsetPKN7android12renderscript7ContextEPKNS0_10AllocationE",
   "parameters" :
   [
    {
     "referenced_type" : "type-37"
    },
    {
     "referenced_type" : "type-80"
    }
   ],
   "return_type" : "type-8",
   "source_file" : "/frameworks/rs/driver/rsdAllocation.h"
  },
  {
   "function_name" : "rsdProgramFragmentSetActive",
   "linker_set_key" : "_Z27rsdProgramFragmentSetActivePKN7android12renderscript7ContextEPKNS0_15ProgramFragmentE",
   "parameters" :
   [
    {
     "referenced_type" : "type-37"
    },
    {
     "referenced_type" : "type-261"
    }
   ],
   "return_type" : "type-8",
   "source_file" : "/frameworks/rs/driver/rsdProgram.cpp"
  },
  {
   "function_name" : "rsdScriptInvokeForEachMulti",
   "linker_set_key" : "_Z27rsdScriptInvokeForEachMultiPKN7android12renderscript7ContextEPNS0_6ScriptEjPPKNS0_10AllocationEjPS6_PKvjPK12RsScriptCall",
   "parameters" :
   [
    {
     "referenced_type" : "type-37"
    },
    {
     "referenced_type" : "type-146"
    },
    {
     "referenced_type" : "type-16"
    },
    {
     "referenced_type" : "type-162"
    },
    {
     "referenced_type" : "type-16"
    },
    {
     "referenced_type" : "type-72"
    },
    {
     "referenced_type" : "type-150"
    },
    {
     "referenced_type" : "type-16"
    },
    {
     "referenced_type" : "type-156"
    }
   ],
   "return_type" : "type-8",
   "source_file" : "/frameworks/rs/driver/rsdBcc.h"
  },
  {
   "function_name" : "rsdScriptInvokeFreeChildren",
   "linker_set_key" : "_Z27rsdScriptInvokeFreeChildrenPKN7android12renderscript7ContextEPNS0_6ScriptE",
   "parameters" :
   [
    {
     "referenced_type" : "type-37"
    },
    {
     "referenced_type" : "type-146"
    }
   ],
   "return_type" : "type-8",
   "source_file" : "/frameworks/rs/driver/rsdBcc.h"
  },
  {
   "function_name" : "rsdScriptUpdateCachedObject",
   "linker_set_key" : "_Z27rsdScriptUpdateCachedObjectPKN7android12renderscript7ContextEPKNS0_6ScriptEPNS0_9rs_scriptE",
   "parameters" :
   [
    {
     "referenced_type" : "type-37"
    },
    {
     "referenced_type" : "type-167"
    },
    {
     "referenced_type" : "type-182"
    }
   ],
   "return_type" : "type-8",
   "source_file" : "/frameworks/rs/driver/rsdBcc.h"
  },
  {
   "function_name" : "rsdAllocationGenerateMipmaps",
   "linker_set_key" : "_Z28rsdAllocationGenerateMipmapsPKN7android12renderscript7ContextEPKNS0_10AllocationE",
   "parameters" :
   [
    {
     "referenced_type" : "type-37"
    },
    {
     "referenced_type" : "type-80"
    }
   ],
   "return_type" : "type-8",
   "source_file" : "/frameworks/rs/driver/rsdAllocation.h"
  },
  {
   "function_name" : "rsdElementUpdateCachedObject",
   "linker_set_key" : "_Z28rsdElementUpdateCachedObjectPKN7android12renderscript7ContextEPKNS0_7ElementEPNS0_10rs_elementE",
   "parameters" :
   [
    {
     "referenced_type" : "type-2958"
    },
    {
     "referenced_type" : "type-10"
    },
    {
     "referenced_type" : "type-386"
    }
   ],
   "return_type" : "type-8",
   "source_file" : "/frameworks/rs/driver/rsdElement.cpp"
  },
  {
   "function_name" : "rsdSamplerUpdateCachedObject",
   "linker_set_key" : "_Z28rsdSamplerUpdateCachedObjectPKN7android12renderscript7ContextEPKNS0_7SamplerEPNS0_10rs_samplerE",
   "parameters" :
   [
    {
     "referenced_type" : "type-37"
    },
    {
     "referenced_type" : "type-278"
    },
    {
     "referenced_type" : "type-284"
    }
   ],
   "return_type" : "type-8",
   "source_file" : "/frameworks/rs/driver/rsdSampler.h"
  },
  {
   "function_name" : "rsdAllocationUpdateCachedObject",
   "linker_set_key" : "_Z31rsdAllocationUpdateCachedObjectPKN7android12renderscript7ContextEPKNS0_10AllocationEPNS0_13rs_allocationE",
   "parameters" :
   [
    {
     "referenced_type" : "type-37"
    },
    {
     "referenced_type" : "type-80"
    },
    {
     "referenced_type" : "type-233"
    }
   ],
   "return_type" : "type-8",
   "source_file" : "/frameworks/rs/driver/rsdAllocation.h"
  },
  {
   "function_name" : "rsgProgramFragmentConstantColor",
   "linker_set_key" : "_Z31rsgProgramFragmentConstantColor19rs_program_fragmentffff",
   "parameters" :
   [
    {
     "referenced_type" : "type-754"
    },
    {
     "referenced_type" : "type-108"
    },
    {
     "referenced_type" : "type-108"
    },
    {
     "referenced_type" : "type-108"
    },
    {
     "referenced_type" : "type-108"
    }
   ],
   "return_type" : "type-8",
   "source_file" : "/frameworks/rs/driver/rsdRuntimeStubs.cpp"
  },
  {
   "function_name" : "rsgProgramVertexLoadModelMatrix",
   "linker_set_key" : "_Z31rsgProgramVertexLoadModelMatrixPK12rs_matrix4x4",
   "parameters" :
   [
    {
     "referenced_type" : "type-714"
    }
   ],
   "return_type" : "type-8",
   "source_file" : "/frameworks/rs/driver/rsdRuntimeStubs.cpp"
  },
  {
   "function_name" : "rsdAllocationData2D_alloc_script",
   "linker_set_key" : "_Z32rsdAllocationData2D_alloc_scriptPKN7android12renderscript7ContextEPKNS0_10AllocationEjjj23RsAllocationCubemapFacejjS6_jjjS7_",
   "parameters" :
   [
    {
     "referenced_type" : "type-37"
    },
    {
     "referenced_type" : "type-80"
    },
    {
     "referenced_type" : "type-16"
    },
    {
     "referenced_type" : "type-16"
    },
    {
     "referenced_type" : "type-16"
    },
    {
     "referenced_type" : "type-210"
    },
    {
     "referenced_type" : "type-16"
    },
    {
     "referenced_type" : "type-16"
    },
    {
     "referenced_type" : "type-80"
    },
    {
     "referenced_type" : "type-16"
    },
    {
     "referenced_type" : "type-16"
    },
    {
     "referenced_type" : "type-16"
    },
    {
     "referenced_type" : "type-210"
    }
   ],
   "return_type" : "type-8",
   "source_file" : "/frameworks/rs/driver/rsdAllocation.cpp"
  },
  {
   "function_name" : "rsdAllocationData3D_alloc_script",
   "linker_set_key" : "_Z32rsdAllocationData3D_alloc_scriptPKN7android12renderscript7ContextEPKNS0_10AllocationEjjjjjjjS6_jjjj",
   "parameters" :
   [
    {
     "referenced_type" : "type-37"
    },
    {
     "referenced_type" : "type-80"
    },
    {
     "referenced_type" : "type-16"
    },
    {
     "referenced_type" : "type-16"
    },
    {
     "referenced_type" : "type-16"
    },
    {
     "referenced_type" : "type-16"
    },
    {
     "referenced_type" : "type-16"
    },
    {
     "referenced_type" : "type-16"
    },
    {
     "referenced_type" : "type-16"
    },
    {
     "referenced_type" : "type-80"
    },
    {
     "referenced_type" : "type-16"
    },
    {
     "referenced_type" : "type-16"
    },
    {
     "referenced_type" : "type-16"
    },
    {
     "referenced_type" : "type-16"
    }
   ],
   "return_type" : "type-8",
   "source_file" : "/frameworks/rs/driver/rsdAllocation.cpp"
  },
  {
   "function_name" : "rsdScriptGetAllocationForPointer",
   "linker_set_key" : "_Z32rsdScriptGetAllocationForPointerPKN7android12renderscript7ContextEPKNS0_6ScriptEPKv",
   "parameters" :
   [
    {
     "referenced_type" : "type-37"
    },
    {
     "referenced_type" : "type-167"
    },
    {
     "referenced_type" : "type-150"
    }
   ],
   "return_type" : "type-72",
   "source_file" : "/frameworks/rs/driver/rsdBcc.h"
  },
  {
   "function_name" : "rsdScriptGroupUpdateCachedObject",
   "linker_set_key" : "_Z32rsdScriptGroupUpdateCachedObjectPKN7android12renderscript7ContextEPKNS0_11ScriptGroupEPNS0_15rs_script_groupE",
   "parameters" :
   [
    {
     "referenced_type" : "type-37"
    },
    {
     "referenced_type" : "type-305"
    },
    {
     "referenced_type" : "type-368"
    }
   ],
   "return_type" : "type-8",
   "source_file" : "/frameworks/rs/driver/rsdScriptGroup.h"
  },
  {
   "function_name" : "rsdScriptSetGlobalVarWithElemDims",
   "linker_set_key" : "_Z33rsdScriptSetGlobalVarWithElemDimsPKN7android12renderscript7ContextEPKNS0_6ScriptEjPvjPKNS0_7ElementEPKjj",
   "parameters" :
   [
    {
     "referenced_type" : "type-37"
    },
    {
     "referenced_type" : "type-167"
    },
    {
     "referenced_type" : "type-16"
    },
    {
     "referenced_type" : "type-7"
    },
    {
     "referenced_type" : "type-16"
    },
    {
     "referenced_type" : "type-10"
    },
    {
     "referenced_type" : "type-171"
    },
    {
     "referenced_type" : "type-16"
    }
   ],
   "return_type" : "type-8",
   "source_file" : "/frameworks/rs/driver/rsdBcc.h"
  },
  {
   "function_name" : "rsgProgramVertexLoadTextureMatrix",
   "linker_set_key" : "_Z33rsgProgramVertexLoadTextureMatrixPK12rs_matrix4x4",
   "parameters" :
   [
    {
     "referenced_type" : "type-714"
    }
   ],
   "return_type" : "type-8",
   "source_file" : "/frameworks/rs/driver/rsdRuntimeStubs.cpp"
  },
  {
   "function_name" : "rsgProgramVertexGetProjectionMatrix",
   "linker_set_key" : "_Z35rsgProgramVertexGetProjectionMatrixP12rs_matrix4x4",
   "parameters" :
   [
    {
     "referenced_type" : "type-1024"
    }
   ],
   "return_type" : "type-8",
   "source_file" : "/frameworks/rs/driver/rsdRuntimeStubs.cpp"
  },
  {
   "function_name" : "rsgProgramVertexLoadProjectionMatrix",
   "linker_set_key" : "_Z36rsgProgramVertexLoadProjectionMatrixPK12rs_matrix4x4",
   "parameters" :
   [
    {
     "referenced_type" : "type-714"
    }
   ],
   "return_type" : "type-8",
   "source_file" : "/frameworks/rs/driver/rsdRuntimeStubs.cpp"
  },
  {
   "function_name" : "color",
   "linker_set_key" : "_Z5colorffff",
   "parameters" :
   [
    {
     "referenced_type" : "type-108"
    },
    {
     "referenced_type" : "type-108"
    },
    {
     "referenced_type" : "type-108"
    },
    {
     "referenced_type" : "type-108"
    }
   ],
   "return_type" : "type-8",
   "source_file" : "/frameworks/rs/driver/rsdRuntimeStubs.cpp"
  },
  {
   "function_name" : "rsTime",
   "linker_set_key" : "_Z6rsTimePi",
   "parameters" :
   [
    {
     "referenced_type" : "type-3230"
    }
   ],
   "return_type" : "type-36",
   "source_file" : "/frameworks/rs/driver/rsdRuntimeStubs.cpp"
  },
  {
   "function_name" : "rsDebug",
   "linker_set_key" : "_Z7rsDebugPKcDv2_x",
   "parameters" :
   [
    {
     "referenced_type" : "type-21"
    },
    {
     "referenced_type" : "type-885"
    }
   ],
   "return_type" : "type-8",
   "source_file" : "/frameworks/rs/driver/rsdRuntimeStubs.cpp"
  },
  {
   "function_name" : "rsDebug",
   "linker_set_key" : "_Z7rsDebugPKcDv2_y",
   "parameters" :
   [
    {
     "referenced_type" : "type-21"
    },
    {
     "referenced_type" : "type-905"
    }
   ],
   "return_type" : "type-8",
   "source_file" : "/frameworks/rs/driver/rsdRuntimeStubs.cpp"
  },
  {
   "function_name" : "rsDebug",
   "linker_set_key" : "_Z7rsDebugPKcDv3_x",
   "parameters" :
   [
    {
     "referenced_type" : "type-21"
    },
    {
     "referenced_type" : "type-890"
    }
   ],
   "return_type" : "type-8",
   "source_file" : "/frameworks/rs/driver/rsdRuntimeStubs.cpp"
  },
  {
   "function_name" : "rsDebug",
   "linker_set_key" : "_Z7rsDebugPKcDv3_y",
   "parameters" :
   [
    {
     "referenced_type" : "type-21"
    },
    {
     "referenced_type" : "type-910"
    }
   ],
   "return_type" : "type-8",
   "source_file" : "/frameworks/rs/driver/rsdRuntimeStubs.cpp"
  },
  {
   "function_name" : "rsDebug",
   "linker_set_key" : "_Z7rsDebugPKcDv4_x",
   "parameters" :
   [
    {
     "referenced_type" : "type-21"
    },
    {
     "referenced_type" : "type-896"
    }
   ],
   "return_type" : "type-8",
   "source_file" : "/frameworks/rs/driver/rsdRuntimeStubs.cpp"
  },
  {
   "function_name" : "rsDebug",
   "linker_set_key" : "_Z7rsDebugPKcDv4_y",
   "parameters" :
   [
    {
     "referenced_type" : "type-21"
    },
    {
     "referenced_type" : "type-916"
    }
   ],
   "return_type" : "type-8",
   "source_file" : "/frameworks/rs/driver/rsdRuntimeStubs.cpp"
  },
  {
   "function_name" : "rsDebug",
   "linker_set_key" : "_Z7rsDebugPKcPK12rs_matrix2x2",
   "parameters" :
   [
    {
     "referenced_type" : "type-21"
    },
    {
     "referenced_type" : "type-735"
    }
   ],
   "return_type" : "type-8",
   "source_file" : "/frameworks/rs/driver/rsdRuntimeStubs.cpp"
  },
  {
   "function_name" : "rsDebug",
   "linker_set_key" : "_Z7rsDebugPKcPK12rs_matrix3x3",
   "parameters" :
   [
    {
     "referenced_type" : "type-21"
    },
    {
     "referenced_type" : "type-725"
    }
   ],
   "return_type" : "type-8",
   "source_file" : "/frameworks/rs/driver/rsdRuntimeStubs.cpp"
  },
  {
   "function_name" : "rsDebug",
   "linker_set_key" : "_Z7rsDebugPKcPK12rs_matrix4x4",
   "parameters" :
   [
    {
     "referenced_type" : "type-21"
    },
    {
     "referenced_type" : "type-714"
    }
   ],
   "return_type" : "type-8",
   "source_file" : "/frameworks/rs/driver/rsdRuntimeStubs.cpp"
  },
  {
   "function_name" : "rsDebug",
   "linker_set_key" : "_Z7rsDebugPKcPKDv2_c",
   "parameters" :
   [
    {
     "referenced_type" : "type-21"
    },
    {
     "referenced_type" : "type-780"
    }
   ],
   "return_type" : "type-8",
   "source_file" : "/frameworks/rs/driver/rsdRuntimeStubs.cpp"
  },
  {
   "function_name" : "rsDebug",
   "linker_set_key" : "_Z7rsDebugPKcPKDv2_d",
   "parameters" :
   [
    {
     "referenced_type" : "type-21"
    },
    {
     "referenced_type" : "type-966"
    }
   ],
   "return_type" : "type-8",
   "source_file" : "/frameworks/rs/driver/rsdRuntimeStubs.cpp"
  },
  {
   "function_name" : "rsDebug",
   "linker_set_key" : "_Z7rsDebugPKcPKDv2_f",
   "parameters" :
   [
    {
     "referenced_type" : "type-21"
    },
    {
     "referenced_type" : "type-946"
    }
   ],
   "return_type" : "type-8",
   "source_file" : "/frameworks/rs/driver/rsdRuntimeStubs.cpp"
  },
  {
   "function_name" : "rsDebug",
   "linker_set_key" : "_Z7rsDebugPKcPKDv2_fPKDv2_t",
   "parameters" :
   [
    {
     "referenced_type" : "type-21"
    },
    {
     "referenced_type" : "type-946"
    },
    {
     "referenced_type" : "type-836"
    }
   ],
   "return_type" : "type-8",
   "source_file" : "/frameworks/rs/driver/rsdRuntimeStubs.cpp"
  },
  {
   "function_name" : "rsDebug",
   "linker_set_key" : "_Z7rsDebugPKcPKDv2_h",
   "parameters" :
   [
    {
     "referenced_type" : "type-21"
    },
    {
     "referenced_type" : "type-797"
    }
   ],
   "return_type" : "type-8",
   "source_file" : "/frameworks/rs/driver/rsdRuntimeStubs.cpp"
  },
  {
   "function_name" : "rsDebug",
   "linker_set_key" : "_Z7rsDebugPKcPKDv2_i",
   "parameters" :
   [
    {
     "referenced_type" : "type-21"
    },
    {
     "referenced_type" : "type-853"
    }
   ],
   "return_type" : "type-8",
   "source_file" : "/frameworks/rs/driver/rsdRuntimeStubs.cpp"
  },
  {
   "function_name" : "rsDebug",
   "linker_set_key" : "_Z7rsDebugPKcPKDv2_j",
   "parameters" :
   [
    {
     "referenced_type" : "type-21"
    },
    {
     "referenced_type" : "type-869"
    }
   ],
   "return_type" : "type-8",
   "source_file" : "/frameworks/rs/driver/rsdRuntimeStubs.cpp"
  },
  {
   "function_name" : "rsDebug",
   "linker_set_key" : "_Z7rsDebugPKcPKDv2_l",
   "parameters" :
   [
    {
     "referenced_type" : "type-21"
    },
    {
     "referenced_type" : "type-983"
    }
   ],
   "return_type" : "type-8",
   "source_file" : "/frameworks/rs/driver/rsdRuntimeStubs.cpp"
  },
  {
   "function_name" : "rsDebug",
   "linker_set_key" : "_Z7rsDebugPKcPKDv2_m",
   "parameters" :
   [
    {
     "referenced_type" : "type-21"
    },
    {
     "referenced_type" : "type-1002"
    }
   ],
   "return_type" : "type-8",
   "source_file" : "/frameworks/rs/driver/rsdRuntimeStubs.cpp"
  },
  {
   "function_name" : "rsDebug",
   "linker_set_key" : "_Z7rsDebugPKcPKDv2_s",
   "parameters" :
   [
    {
     "referenced_type" : "type-21"
    },
    {
     "referenced_type" : "type-817"
    }
   ],
   "return_type" : "type-8",
   "source_file" : "/frameworks/rs/driver/rsdRuntimeStubs.cpp"
  },
  {
   "function_name" : "rsDebug",
   "linker_set_key" : "_Z7rsDebugPKcPKDv2_t",
   "parameters" :
   [
    {
     "referenced_type" : "type-21"
    },
    {
     "referenced_type" : "type-836"
    }
   ],
   "return_type" : "type-8",
   "source_file" : "/frameworks/rs/driver/rsdRuntimeStubs.cpp"
  },
  {
   "function_name" : "rsDebug",
   "linker_set_key" : "_Z7rsDebugPKcPKDv2_x",
   "parameters" :
   [
    {
     "referenced_type" : "type-21"
    },
    {
     "referenced_type" : "type-887"
    }
   ],
   "return_type" : "type-8",
   "source_file" : "/frameworks/rs/driver/rsdRuntimeStubs.cpp"
  },
  {
   "function_name" : "rsDebug",
   "linker_set_key" : "_Z7rsDebugPKcPKDv2_y",
   "parameters" :
   [
    {
     "referenced_type" : "type-21"
    },
    {
     "referenced_type" : "type-907"
    }
   ],
   "return_type" : "type-8",
   "source_file" : "/frameworks/rs/driver/rsdRuntimeStubs.cpp"
  },
  {
   "function_name" : "rsDebug",
   "linker_set_key" : "_Z7rsDebugPKcPKDv3_c",
   "parameters" :
   [
    {
     "referenced_type" : "type-21"
    },
    {
     "referenced_type" : "type-786"
    }
   ],
   "return_type" : "type-8",
   "source_file" : "/frameworks/rs/driver/rsdRuntimeStubs.cpp"
  },
  {
   "function_name" : "rsDebug",
   "linker_set_key" : "_Z7rsDebugPKcPKDv3_d",
   "parameters" :
   [
    {
     "referenced_type" : "type-21"
    },
    {
     "referenced_type" : "type-972"
    }
   ],
   "return_type" : "type-8",
   "source_file" : "/frameworks/rs/driver/rsdRuntimeStubs.cpp"
  },
  {
   "function_name" : "rsDebug",
   "linker_set_key" : "_Z7rsDebugPKcPKDv3_f",
   "parameters" :
   [
    {
     "referenced_type" : "type-21"
    },
    {
     "referenced_type" : "type-952"
    }
   ],
   "return_type" : "type-8",
   "source_file" : "/frameworks/rs/driver/rsdRuntimeStubs.cpp"
  },
  {
   "function_name" : "rsDebug",
   "linker_set_key" : "_Z7rsDebugPKcPKDv3_fPKDv3_t",
   "parameters" :
   [
    {
     "referenced_type" : "type-21"
    },
    {
     "referenced_type" : "type-952"
    },
    {
     "referenced_type" : "type-842"
    }
   ],
   "return_type" : "type-8",
   "source_file" : "/frameworks/rs/driver/rsdRuntimeStubs.cpp"
  },
  {
   "function_name" : "rsDebug",
   "linker_set_key" : "_Z7rsDebugPKcPKDv3_h",
   "parameters" :
   [
    {
     "referenced_type" : "type-21"
    },
    {
     "referenced_type" : "type-802"
    }
   ],
   "return_type" : "type-8",
   "source_file" : "/frameworks/rs/driver/rsdRuntimeStubs.cpp"
  },
  {
   "function_name" : "rsDebug",
   "linker_set_key" : "_Z7rsDebugPKcPKDv3_i",
   "parameters" :
   [
    {
     "referenced_type" : "type-21"
    },
    {
     "referenced_type" : "type-858"
    }
   ],
   "return_type" : "type-8",
   "source_file" : "/frameworks/rs/driver/rsdRuntimeStubs.cpp"
  },
  {
   "function_name" : "rsDebug",
   "linker_set_key" : "_Z7rsDebugPKcPKDv3_j",
   "parameters" :
   [
    {
     "referenced_type" : "type-21"
    },
    {
     "referenced_type" : "type-875"
    }
   ],
   "return_type" : "type-8",
   "source_file" : "/frameworks/rs/driver/rsdRuntimeStubs.cpp"
  },
  {
   "function_name" : "rsDebug",
   "linker_set_key" : "_Z7rsDebugPKcPKDv3_l",
   "parameters" :
   [
    {
     "referenced_type" : "type-21"
    },
    {
     "referenced_type" : "type-988"
    }
   ],
   "return_type" : "type-8",
   "source_file" : "/frameworks/rs/driver/rsdRuntimeStubs.cpp"
  },
  {
   "function_name" : "rsDebug",
   "linker_set_key" : "_Z7rsDebugPKcPKDv3_m",
   "parameters" :
   [
    {
     "referenced_type" : "type-21"
    },
    {
     "referenced_type" : "type-1008"
    }
   ],
   "return_type" : "type-8",
   "source_file" : "/frameworks/rs/driver/rsdRuntimeStubs.cpp"
  },
  {
   "function_name" : "rsDebug",
   "linker_set_key" : "_Z7rsDebugPKcPKDv3_s",
   "parameters" :
   [
    {
     "referenced_type" : "type-21"
    },
    {
     "referenced_type" : "type-822"
    }
   ],
   "return_type" : "type-8",
   "source_file" : "/frameworks/rs/driver/rsdRuntimeStubs.cpp"
  },
  {
   "function_name" : "rsDebug",
   "linker_set_key" : "_Z7rsDebugPKcPKDv3_t",
   "parameters" :
   [
    {
     "referenced_type" : "type-21"
    },
    {
     "referenced_type" : "type-842"
    }
   ],
   "return_type" : "type-8",
   "source_file" : "/frameworks/rs/driver/rsdRuntimeStubs.cpp"
  },
  {
   "function_name" : "rsDebug",
   "linker_set_key" : "_Z7rsDebugPKcPKDv3_x",
   "parameters" :
   [
    {
     "referenced_type" : "type-21"
    },
    {
     "referenced_type" : "type-893"
    }
   ],
   "return_type" : "type-8",
   "source_file" : "/frameworks/rs/driver/rsdRuntimeStubs.cpp"
  },
  {
   "function_name" : "rsDebug",
   "linker_set_key" : "_Z7rsDebugPKcPKDv3_y",
   "parameters" :
   [
    {
     "referenced_type" : "type-21"
    },
    {
     "referenced_type" : "type-912"
    }
   ],
   "return_type" : "type-8",
   "source_file" : "/frameworks/rs/driver/rsdRuntimeStubs.cpp"
  },
  {
   "function_name" : "rsDebug",
   "linker_set_key" : "_Z7rsDebugPKcPKDv4_c",
   "parameters" :
   [
    {
     "referenced_type" : "type-21"
    },
    {
     "referenced_type" : "type-791"
    }
   ],
   "return_type" : "type-8",
   "source_file" : "/frameworks/rs/driver/rsdRuntimeStubs.cpp"
  },
  {
   "function_name" : "rsDebug",
   "linker_set_key" : "_Z7rsDebugPKcPKDv4_d",
   "parameters" :
   [
    {
     "referenced_type" : "type-21"
    },
    {
     "referenced_type" : "type-977"
    }
   ],
   "return_type" : "type-8",
   "source_file" : "/frameworks/rs/driver/rsdRuntimeStubs.cpp"
  },
  {
   "function_name" : "rsDebug",
   "linker_set_key" : "_Z7rsDebugPKcPKDv4_f",
   "parameters" :
   [
    {
     "referenced_type" : "type-21"
    },
    {
     "referenced_type" : "type-957"
    }
   ],
   "return_type" : "type-8",
   "source_file" : "/frameworks/rs/driver/rsdRuntimeStubs.cpp"
  },
  {
   "function_name" : "rsDebug",
   "linker_set_key" : "_Z7rsDebugPKcPKDv4_fPKDv4_t",
   "parameters" :
   [
    {
     "referenced_type" : "type-21"
    },
    {
     "referenced_type" : "type-957"
    },
    {
     "referenced_type" : "type-847"
    }
   ],
   "return_type" : "type-8",
   "source_file" : "/frameworks/rs/driver/rsdRuntimeStubs.cpp"
  },
  {
   "function_name" : "rsDebug",
   "linker_set_key" : "_Z7rsDebugPKcPKDv4_h",
   "parameters" :
   [
    {
     "referenced_type" : "type-21"
    },
    {
     "referenced_type" : "type-808"
    }
   ],
   "return_type" : "type-8",
   "source_file" : "/frameworks/rs/driver/rsdRuntimeStubs.cpp"
  },
  {
   "function_name" : "rsDebug",
   "linker_set_key" : "_Z7rsDebugPKcPKDv4_i",
   "parameters" :
   [
    {
     "referenced_type" : "type-21"
    },
    {
     "referenced_type" : "type-864"
    }
   ],
   "return_type" : "type-8",
   "source_file" : "/frameworks/rs/driver/rsdRuntimeStubs.cpp"
  },
  {
   "function_name" : "rsDebug",
   "linker_set_key" : "_Z7rsDebugPKcPKDv4_j",
   "parameters" :
   [
    {
     "referenced_type" : "type-21"
    },
    {
     "referenced_type" : "type-880"
    }
   ],
   "return_type" : "type-8",
   "source_file" : "/frameworks/rs/driver/rsdRuntimeStubs.cpp"
  },
  {
   "function_name" : "rsDebug",
   "linker_set_key" : "_Z7rsDebugPKcPKDv4_l",
   "parameters" :
   [
    {
     "referenced_type" : "type-21"
    },
    {
     "referenced_type" : "type-994"
    }
   ],
   "return_type" : "type-8",
   "source_file" : "/frameworks/rs/driver/rsdRuntimeStubs.cpp"
  },
  {
   "function_name" : "rsDebug",
   "linker_set_key" : "_Z7rsDebugPKcPKDv4_m",
   "parameters" :
   [
    {
     "referenced_type" : "type-21"
    },
    {
     "referenced_type" : "type-1013"
    }
   ],
   "return_type" : "type-8",
   "source_file" : "/frameworks/rs/driver/rsdRuntimeStubs.cpp"
  },
  {
   "function_name" : "rsDebug",
   "linker_set_key" : "_Z7rsDebugPKcPKDv4_s",
   "parameters" :
   [
    {
     "referenced_type" : "type-21"
    },
    {
     "referenced_type" : "type-828"
    }
   ],
   "return_type" : "type-8",
   "source_file" : "/frameworks/rs/driver/rsdRuntimeStubs.cpp"
  },
  {
   "function_name" : "rsDebug",
   "linker_set_key" : "_Z7rsDebugPKcPKDv4_t",
   "parameters" :
   [
    {
     "referenced_type" : "type-21"
    },
    {
     "referenced_type" : "type-847"
    }
   ],
   "return_type" : "type-8",
   "source_file" : "/frameworks/rs/driver/rsdRuntimeStubs.cpp"
  },
  {
   "function_name" : "rsDebug",
   "linker_set_key" : "_Z7rsDebugPKcPKDv4_x",
   "parameters" :
   [
    {
     "referenced_type" : "type-21"
    },
    {
     "referenced_type" : "type-898"
    }
   ],
   "return_type" : "type-8",
   "source_file" : "/frameworks/rs/driver/rsdRuntimeStubs.cpp"
  },
  {
   "function_name" : "rsDebug",
   "linker_set_key" : "_Z7rsDebugPKcPKDv4_y",
   "parameters" :
   [
    {
     "referenced_type" : "type-21"
    },
    {
     "referenced_type" : "type-918"
    }
   ],
   "return_type" : "type-8",
   "source_file" : "/frameworks/rs/driver/rsdRuntimeStubs.cpp"
  },
  {
   "function_name" : "rsDebug",
   "linker_set_key" : "_Z7rsDebugPKcPKv",
   "parameters" :
   [
    {
     "referenced_type" : "type-21"
    },
    {
     "referenced_type" : "type-150"
    }
   ],
   "return_type" : "type-8",
   "source_file" : "/frameworks/rs/driver/rsdRuntimeStubs.cpp"
  },
  {
   "function_name" : "rsDebug",
   "linker_set_key" : "_Z7rsDebugPKcc",
   "parameters" :
   [
    {
     "referenced_type" : "type-21"
    },
    {
     "referenced_type" : "type-23"
    }
   ],
   "return_type" : "type-8",
   "source_file" : "/frameworks/rs/driver/rsdRuntimeStubs.cpp"
  },
  {
   "function_name" : "rsDebug",
   "linker_set_key" : "_Z7rsDebugPKcd",
   "parameters" :
   [
    {
     "referenced_type" : "type-21"
    },
    {
     "referenced_type" : "type-687"
    }
   ],
   "return_type" : "type-8",
   "source_file" : "/frameworks/rs/driver/rsdRuntimeStubs.cpp"
  },
  {
   "function_name" : "rsDebug",
   "linker_set_key" : "_Z7rsDebugPKcf",
   "parameters" :
   [
    {
     "referenced_type" : "type-21"
    },
    {
     "referenced_type" : "type-108"
    }
   ],
   "return_type" : "type-8",
   "source_file" : "/frameworks/rs/driver/rsdRuntimeStubs.cpp"
  },
  {
   "function_name" : "rsDebug",
   "linker_set_key" : "_Z7rsDebugPKcff",
   "parameters" :
   [
    {
     "referenced_type" : "type-21"
    },
    {
     "referenced_type" : "type-108"
    },
    {
     "referenced_type" : "type-108"
    }
   ],
   "return_type" : "type-8",
   "source_file" : "/frameworks/rs/driver/rsdRuntimeStubs.cpp"
  },
  {
   "function_name" : "rsDebug",
   "linker_set_key" : "_Z7rsDebugPKcfff",
   "parameters" :
   [
    {
     "referenced_type" : "type-21"
    },
    {
     "referenced_type" : "type-108"
    },
    {
     "referenced_type" : "type-108"
    },
    {
     "referenced_type" : "type-108"
    }
   ],
   "return_type" : "type-8",
   "source_file" : "/frameworks/rs/driver/rsdRuntimeStubs.cpp"
  },
  {
   "function_name" : "rsDebug",
   "linker_set_key" : "_Z7rsDebugPKcffff",
   "parameters" :
   [
    {
     "referenced_type" : "type-21"
    },
    {
     "referenced_type" : "type-108"
    },
    {
     "referenced_type" : "type-108"
    },
    {
     "referenced_type" : "type-108"
    },
    {
     "referenced_type" : "type-108"
    }
   ],
   "return_type" : "type-8",
   "source_file" : "/frameworks/rs/driver/rsdRuntimeStubs.cpp"
  },
  {
   "function_name" : "rsDebug",
   "linker_set_key" : "_Z7rsDebugPKcft",
   "parameters" :
   [
    {
     "referenced_type" : "type-21"
    },
    {
     "referenced_type" : "type-108"
    },
    {
     "referenced_type" : "type-563"
    }
   ],
   "return_type" : "type-8",
   "source_file" : "/frameworks/rs/driver/rsdRuntimeStubs.cpp"
  },
  {
   "function_name" : "rsDebug",
   "linker_set_key" : "_Z7rsDebugPKch",
   "parameters" :
   [
    {
     "referenced_type" : "type-21"
    },
    {
     "referenced_type" : "type-143"
    }
   ],
   "return_type" : "type-8",
   "source_file" : "/frameworks/rs/driver/rsdRuntimeStubs.cpp"
  },
  {
   "function_name" : "rsDebug",
   "linker_set_key" : "_Z7rsDebugPKci",
   "parameters" :
   [
    {
     "referenced_type" : "type-21"
    },
    {
     "referenced_type" : "type-36"
    }
   ],
   "return_type" : "type-8",
   "source_file" : "/frameworks/rs/driver/rsdRuntimeStubs.cpp"
  },
  {
   "function_name" : "rsDebug",
   "linker_set_key" : "_Z7rsDebugPKcj",
   "parameters" :
   [
    {
     "referenced_type" : "type-21"
    },
    {
     "referenced_type" : "type-16"
    }
   ],
   "return_type" : "type-8",
   "source_file" : "/frameworks/rs/driver/rsdRuntimeStubs.cpp"
  },
  {
   "function_name" : "rsDebug",
   "linker_set_key" : "_Z7rsDebugPKcl",
   "parameters" :
   [
    {
     "referenced_type" : "type-21"
    },
    {
     "referenced_type" : "type-488"
    }
   ],
   "return_type" : "type-8",
   "source_file" : "/frameworks/rs/driver/rsdRuntimeStubs.cpp"
  },
  {
   "function_name" : "rsDebug",
   "linker_set_key" : "_Z7rsDebugPKcm",
   "parameters" :
   [
    {
     "referenced_type" : "type-21"
    },
    {
     "referenced_type" : "type-568"
    }
   ],
   "return_type" : "type-8",
   "source_file" : "/frameworks/rs/driver/rsdRuntimeStubs.cpp"
  },
  {
   "function_name" : "rsDebug",
   "linker_set_key" : "_Z7rsDebugPKcs",
   "parameters" :
   [
    {
     "referenced_type" : "type-21"
    },
    {
     "referenced_type" : "type-561"
    }
   ],
   "return_type" : "type-8",
   "source_file" : "/frameworks/rs/driver/rsdRuntimeStubs.cpp"
  },
  {
   "function_name" : "rsDebug",
   "linker_set_key" : "_Z7rsDebugPKct",
   "parameters" :
   [
    {
     "referenced_type" : "type-21"
    },
    {
     "referenced_type" : "type-563"
    }
   ],
   "return_type" : "type-8",
   "source_file" : "/frameworks/rs/driver/rsdRuntimeStubs.cpp"
  },
  {
   "function_name" : "rsDebug",
   "linker_set_key" : "_Z7rsDebugPKcx",
   "parameters" :
   [
    {
     "referenced_type" : "type-21"
    },
    {
     "referenced_type" : "type-2"
    }
   ],
   "return_type" : "type-8",
   "source_file" : "/frameworks/rs/driver/rsdRuntimeStubs.cpp"
  },
  {
   "function_name" : "rsDebug",
   "linker_set_key" : "_Z7rsDebugPKcy",
   "parameters" :
   [
    {
     "referenced_type" : "type-21"
    },
    {
     "referenced_type" : "type-498"
    }
   ],
   "return_type" : "type-8",
   "source_file" : "/frameworks/rs/driver/rsdRuntimeStubs.cpp"
  },
  {
   "function_name" : "rsGetDt",
   "linker_set_key" : "_Z7rsGetDtv",
   "return_type" : "type-108",
   "source_file" : "/frameworks/rs/driver/rsdRuntimeStubs.cpp"
  },
  {
   "function_name" : "rsForEach",
   "linker_set_key" : "_Z9rsForEach9rs_script13rs_allocationS0_",
   "parameters" :
   [
    {
     "referenced_type" : "type-752"
    },
    {
     "referenced_type" : "type-750"
    },
    {
     "referenced_type" : "type-750"
    }
   ],
   "return_type" : "type-8",
   "source_file" : "/frameworks/rs/driver/rsdRuntimeStubs.cpp"
  },
  {
   "function_name" : "rsForEach",
   "linker_set_key" : "_Z9rsForEach9rs_script13rs_allocationS0_PKv",
   "parameters" :
   [
    {
     "referenced_type" : "type-752"
    },
    {
     "referenced_type" : "type-750"
    },
    {
     "referenced_type" : "type-750"
    },
    {
     "referenced_type" : "type-150"
    }
   ],
   "return_type" : "type-8",
   "source_file" : "/frameworks/rs/driver/rsdRuntimeStubs.cpp"
  },
  {
   "function_name" : "rsForEach",
   "linker_set_key" : "_Z9rsForEach9rs_script13rs_allocationS0_PKvPK14rs_script_call",
   "parameters" :
   [
    {
     "referenced_type" : "type-752"
    },
    {
     "referenced_type" : "type-750"
    },
    {
     "referenced_type" : "type-750"
    },
    {
     "referenced_type" : "type-150"
    },
    {
     "referenced_type" : "type-1022"
    }
   ],
   "return_type" : "type-8",
   "source_file" : "/frameworks/rs/driver/rsdRuntimeStubs.cpp"
  },
  {
   "function_name" : "rsForEach",
   "linker_set_key" : "_Z9rsForEach9rs_script13rs_allocationS0_PKvj",
   "parameters" :
   [
    {
     "referenced_type" : "type-752"
    },
    {
     "referenced_type" : "type-750"
    },
    {
     "referenced_type" : "type-750"
    },
    {
     "referenced_type" : "type-150"
    },
    {
     "referenced_type" : "type-16"
    }
   ],
   "return_type" : "type-8",
   "source_file" : "/frameworks/rs/driver/rsdRuntimeStubs.cpp"
  },
  {
   "function_name" : "rsForEach",
   "linker_set_key" : "_Z9rsForEach9rs_script13rs_allocationS0_PKvjPK14rs_script_call",
   "parameters" :
   [
    {
     "referenced_type" : "type-752"
    },
    {
     "referenced_type" : "type-750"
    },
    {
     "referenced_type" : "type-750"
    },
    {
     "referenced_type" : "type-150"
    },
    {
     "referenced_type" : "type-16"
    },
    {
     "referenced_type" : "type-1022"
    }
   ],
   "return_type" : "type-8",
   "source_file" : "/frameworks/rs/driver/rsdRuntimeStubs.cpp"
  },
  {
   "function_name" : "rsdGLInit",
   "linker_set_key" : "_Z9rsdGLInitPKN7android12renderscript7ContextE",
   "parameters" :
   [
    {
     "referenced_type" : "type-37"
    }
   ],
   "return_type" : "type-36",
   "source_file" : "/frameworks/rs/driver/rsdGL.h"
  },
  {
   "function_name" : "rsdGLSwap",
   "linker_set_key" : "_Z9rsdGLSwapPKN7android12renderscript7ContextE",
   "parameters" :
   [
    {
     "referenced_type" : "type-37"
    }
   ],
   "return_type" : "type-8",
   "source_file" : "/frameworks/rs/driver/rsdGL.h"
  },
  {
   "function_name" : "rsgFinish",
   "linker_set_key" : "_Z9rsgFinishv",
   "return_type" : "type-8",
   "source_file" : "/frameworks/rs/driver/rsdRuntimeStubs.cpp"
  },
  {
   "access" : "protected",
   "function_name" : "RsdMeshObj::isValidGLComponent",
   "linker_set_key" : "_ZN10RsdMeshObj18isValidGLComponentEPKN7android12renderscript7ElementEj",
   "parameters" :
   [
    {
     "is_this_ptr" : true,
     "referenced_type" : "type-3637"
    },
    {
     "referenced_type" : "type-10"
    },
    {
     "referenced_type" : "type-16"
    }
   ],
   "return_type" : "type-27",
   "source_file" : "/frameworks/rs/driver/rsdMeshObj.h"
  },
  {
   "access" : "protected",
   "function_name" : "RsdMeshObj::updateGLPrimitives",
   "linker_set_key" : "_ZN10RsdMeshObj18updateGLPrimitivesEPKN7android12renderscript7ContextE",
   "parameters" :
   [
    {
     "is_this_ptr" : true,
     "referenced_type" : "type-3637"
    },
    {
     "referenced_type" : "type-37"
    }
   ],
   "return_type" : "type-8",
   "source_file" : "/frameworks/rs/driver/rsdMeshObj.h"
  },
  {
   "function_name" : "RsdMeshObj::init",
   "linker_set_key" : "_ZN10RsdMeshObj4initEPKN7android12renderscript7ContextE",
   "parameters" :
   [
    {
     "is_this_ptr" : true,
     "referenced_type" : "type-3637"
    },
    {
     "referenced_type" : "type-37"
    }
   ],
   "return_type" : "type-27",
   "source_file" : "/frameworks/rs/driver/rsdMeshObj.h"
  },
  {
   "function_name" : "RsdMeshObj::RsdMeshObj",
   "linker_set_key" : "_ZN10RsdMeshObjC1EPKN7android12renderscript7ContextEPKNS1_4MeshE",
   "parameters" :
   [
    {
     "is_this_ptr" : true,
     "referenced_type" : "type-3637"
    },
    {
     "referenced_type" : "type-37"
    },
    {
     "referenced_type" : "type-3502"
    }
   ],
   "return_type" : "type-8",
   "source_file" : "/frameworks/rs/driver/rsdMeshObj.h"
  },
  {
   "function_name" : "RsdMeshObj::RsdMeshObj",
   "linker_set_key" : "_ZN10RsdMeshObjC2EPKN7android12renderscript7ContextEPKNS1_4MeshE",
   "parameters" :
   [
    {
     "is_this_ptr" : true,
     "referenced_type" : "type-3637"
    },
    {
     "referenced_type" : "type-37"
    },
    {
     "referenced_type" : "type-3502"
    }
   ],
   "return_type" : "type-8",
   "source_file" : "/frameworks/rs/driver/rsdMeshObj.h"
  },
  {
   "function_name" : "RsdMeshObj::~RsdMeshObj",
   "linker_set_key" : "_ZN10RsdMeshObjD1Ev",
   "parameters" :
   [
    {
     "is_this_ptr" : true,
     "referenced_type" : "type-3637"
    }
   ],
   "return_type" : "type-8",
   "source_file" : "/frameworks/rs/driver/rsdMeshObj.h"
  },
  {
   "function_name" : "RsdMeshObj::~RsdMeshObj",
   "linker_set_key" : "_ZN10RsdMeshObjD2Ev",
   "parameters" :
   [
    {
     "is_this_ptr" : true,
     "referenced_type" : "type-3637"
    }
   ],
   "return_type" : "type-8",
   "source_file" : "/frameworks/rs/driver/rsdMeshObj.h"
  },
  {
   "function_name" : "RsdShaderCache::cleanupAll",
   "linker_set_key" : "_ZN14RsdShaderCache10cleanupAllEv",
   "parameters" :
   [
    {
     "is_this_ptr" : true,
     "referenced_type" : "type-3317"
    }
   ],
   "return_type" : "type-8",
   "source_file" : "/frameworks/rs/driver/rsdShaderCache.h"
  },
  {
   "function_name" : "RsdShaderCache::cleanupVertex",
   "linker_set_key" : "_ZN14RsdShaderCache13cleanupVertexEP9RsdShader",
   "parameters" :
   [
    {
     "is_this_ptr" : true,
     "referenced_type" : "type-3317"
    },
    {
     "referenced_type" : "type-3837"
    }
   ],
   "return_type" : "type-8",
   "source_file" : "/frameworks/rs/driver/rsdShaderCache.h"
  },
  {
   "function_name" : "RsdShaderCache::cleanupFragment",
   "linker_set_key" : "_ZN14RsdShaderCache15cleanupFragmentEP9RsdShader",
   "parameters" :
   [
    {
     "is_this_ptr" : true,
     "referenced_type" : "type-3317"
    },
    {
     "referenced_type" : "type-3837"
    }
   ],
   "return_type" : "type-8",
   "source_file" : "/frameworks/rs/driver/rsdShaderCache.h"
  },
  {
   "access" : "protected",
   "function_name" : "RsdShaderCache::hasArrayUniforms",
   "linker_set_key" : "_ZN14RsdShaderCache16hasArrayUniformsEP9RsdShaderS1_",
   "parameters" :
   [
    {
     "is_this_ptr" : true,
     "referenced_type" : "type-3317"
    },
    {
     "referenced_type" : "type-3837"
    },
    {
     "referenced_type" : "type-3837"
    }
   ],
   "return_type" : "type-27",
   "source_file" : "/frameworks/rs/driver/rsdShaderCache.h"
  },
  {
   "access" : "protected",
   "function_name" : "RsdShaderCache::populateUniformData",
   "linker_set_key" : "_ZN14RsdShaderCache19populateUniformDataEP9RsdShaderjPNS_11UniformDataE",
   "parameters" :
   [
    {
     "is_this_ptr" : true,
     "referenced_type" : "type-3317"
    },
    {
     "referenced_type" : "type-3837"
    },
    {
     "referenced_type" : "type-16"
    },
    {
     "referenced_type" : "type-3171"
    }
   ],
   "return_type" : "type-8",
   "source_file" : "/frameworks/rs/driver/rsdShaderCache.h"
  },
  {
   "access" : "protected",
   "function_name" : "RsdShaderCache::updateUniformArrayData",
   "linker_set_key" : "_ZN14RsdShaderCache22updateUniformArrayDataEPKN7android12renderscript7ContextEP9RsdShaderjPNS_11UniformDataEPKcPPNS_16UniformQueryDataEj",
   "parameters" :
   [
    {
     "is_this_ptr" : true,
     "referenced_type" : "type-3317"
    },
    {
     "referenced_type" : "type-37"
    },
    {
     "referenced_type" : "type-3837"
    },
    {
     "referenced_type" : "type-16"
    },
    {
     "referenced_type" : "type-3171"
    },
    {
     "referenced_type" : "type-21"
    },
    {
     "referenced_type" : "type-6068"
    },
    {
     "referenced_type" : "type-16"
    }
   ],
   "return_type" : "type-8",
   "source_file" : "/frameworks/rs/driver/rsdShaderCache.h"
  },
  {
   "access" : "protected",
   "function_name" : "RsdShaderCache::link",
   "linker_set_key" : "_ZN14RsdShaderCache4linkEPKN7android12renderscript7ContextE",
   "parameters" :
   [
    {
     "is_this_ptr" : true,
     "referenced_type" : "type-3317"
    },
    {
     "referenced_type" : "type-37"
    }
   ],
   "return_type" : "type-27",
   "source_file" : "/frameworks/rs/driver/rsdShaderCache.h"
  },
  {
   "function_name" : "RsdShaderCache::setup",
   "linker_set_key" : "_ZN14RsdShaderCache5setupEPKN7android12renderscript7ContextE",
   "parameters" :
   [
    {
     "is_this_ptr" : true,
     "referenced_type" : "type-3317"
    },
    {
     "referenced_type" : "type-37"
    }
   ],
   "return_type" : "type-27",
   "source_file" : "/frameworks/rs/driver/rsdShaderCache.h"
  },
  {
   "function_name" : "RsdShaderCache::RsdShaderCache",
   "linker_set_key" : "_ZN14RsdShaderCacheC1Ev",
   "parameters" :
   [
    {
     "is_this_ptr" : true,
     "referenced_type" : "type-3317"
    }
   ],
   "return_type" : "type-8",
   "source_file" : "/frameworks/rs/driver/rsdShaderCache.h"
  },
  {
   "function_name" : "RsdShaderCache::RsdShaderCache",
   "linker_set_key" : "_ZN14RsdShaderCacheC2Ev",
   "parameters" :
   [
    {
     "is_this_ptr" : true,
     "referenced_type" : "type-3317"
    }
   ],
   "return_type" : "type-8",
   "source_file" : "/frameworks/rs/driver/rsdShaderCache.h"
  },
  {
   "function_name" : "RsdShaderCache::~RsdShaderCache",
   "linker_set_key" : "_ZN14RsdShaderCacheD0Ev",
   "parameters" :
   [
    {
     "is_this_ptr" : true,
     "referenced_type" : "type-3317"
    }
   ],
   "return_type" : "type-8",
   "source_file" : "/frameworks/rs/driver/rsdShaderCache.h"
  },
  {
   "function_name" : "RsdShaderCache::~RsdShaderCache",
   "linker_set_key" : "_ZN14RsdShaderCacheD1Ev",
   "parameters" :
   [
    {
     "is_this_ptr" : true,
     "referenced_type" : "type-3317"
    }
   ],
   "return_type" : "type-8",
   "source_file" : "/frameworks/rs/driver/rsdShaderCache.h"
  },
  {
   "function_name" : "RsdShaderCache::~RsdShaderCache",
   "linker_set_key" : "_ZN14RsdShaderCacheD2Ev",
   "parameters" :
   [
    {
     "is_this_ptr" : true,
     "referenced_type" : "type-3317"
    }
   ],
   "return_type" : "type-8",
   "source_file" : "/frameworks/rs/driver/rsdShaderCache.h"
  },
  {
   "function_name" : "RsdVertexArray::Attrib::set",
   "linker_set_key" : "_ZN14RsdVertexArray6Attrib3setEjjjbjPKc",
   "parameters" :
   [
    {
     "is_this_ptr" : true,
     "referenced_type" : "type-3522"
    },
    {
     "referenced_type" : "type-16"
    },
    {
     "referenced_type" : "type-16"
    },
    {
     "referenced_type" : "type-16"
    },
    {
     "referenced_type" : "type-27"
    },
    {
     "referenced_type" : "type-16"
    },
    {
     "referenced_type" : "type-21"
    }
   ],
   "return_type" : "type-8",
   "source_file" : "/frameworks/rs/driver/rsdVertexArray.h"
  },
  {
   "function_name" : "RsdVertexArray::Attrib::clear",
   "linker_set_key" : "_ZN14RsdVertexArray6Attrib5clearEv",
   "parameters" :
   [
    {
     "is_this_ptr" : true,
     "referenced_type" : "type-3522"
    }
   ],
   "return_type" : "type-8",
   "source_file" : "/frameworks/rs/driver/rsdVertexArray.h"
  },
  {
   "function_name" : "RsdVertexArray::Attrib::Attrib",
   "linker_set_key" : "_ZN14RsdVertexArray6AttribC1Ev",
   "parameters" :
   [
    {
     "is_this_ptr" : true,
     "referenced_type" : "type-3522"
    }
   ],
   "return_type" : "type-8",
   "source_file" : "/frameworks/rs/driver/rsdVertexArray.h"
  },
  {
   "function_name" : "RsdVertexArray::Attrib::Attrib",
   "linker_set_key" : "_ZN14RsdVertexArray6AttribC2Ev",
   "parameters" :
   [
    {
     "is_this_ptr" : true,
     "referenced_type" : "type-3522"
    }
   ],
   "return_type" : "type-8",
   "source_file" : "/frameworks/rs/driver/rsdVertexArray.h"
  },
  {
   "function_name" : "RsdVertexArray::RsdVertexArray",
   "linker_set_key" : "_ZN14RsdVertexArrayC1EPKNS_6AttribEj",
   "parameters" :
   [
    {
     "is_this_ptr" : true,
     "referenced_type" : "type-6312"
    },
    {
     "referenced_type" : "type-3356"
    },
    {
     "referenced_type" : "type-16"
    }
   ],
   "return_type" : "type-8",
   "source_file" : "/frameworks/rs/driver/rsdVertexArray.h"
  },
  {
   "function_name" : "RsdVertexArray::RsdVertexArray",
   "linker_set_key" : "_ZN14RsdVertexArrayC2EPKNS_6AttribEj",
   "parameters" :
   [
    {
     "is_this_ptr" : true,
     "referenced_type" : "type-6312"
    },
    {
     "referenced_type" : "type-3356"
    },
    {
     "referenced_type" : "type-16"
    }
   ],
   "return_type" : "type-8",
   "source_file" : "/frameworks/rs/driver/rsdVertexArray.h"
  },
  {
   "function_name" : "RsdVertexArray::~RsdVertexArray",
   "linker_set_key" : "_ZN14RsdVertexArrayD0Ev",
   "parameters" :
   [
    {
     "is_this_ptr" : true,
     "referenced_type" : "type-6312"
    }
   ],
   "return_type" : "type-8",
   "source_file" : "/frameworks/rs/driver/rsdVertexArray.h"
  },
  {
   "function_name" : "RsdVertexArray::~RsdVertexArray",
   "linker_set_key" : "_ZN14RsdVertexArrayD1Ev",
   "parameters" :
   [
    {
     "is_this_ptr" : true,
     "referenced_type" : "type-6312"
    }
   ],
   "return_type" : "type-8",
   "source_file" : "/frameworks/rs/driver/rsdVertexArray.h"
  },
  {
   "function_name" : "RsdVertexArray::~RsdVertexArray",
   "linker_set_key" : "_ZN14RsdVertexArrayD2Ev",
   "parameters" :
   [
    {
     "is_this_ptr" : true,
     "referenced_type" : "type-6312"
    }
   ],
   "return_type" : "type-8",
   "source_file" : "/frameworks/rs/driver/rsdVertexArray.h"
  },
  {
   "access" : "protected",
   "function_name" : "RsdFrameBufferObj::checkError",
   "linker_set_key" : "_ZN17RsdFrameBufferObj10checkErrorEPKN7android12renderscript7ContextE",
   "parameters" :
   [
    {
     "is_this_ptr" : true,
     "referenced_type" : "type-2145"
    },
    {
     "referenced_type" : "type-37"
    }
   ],
   "return_type" : "type-8",
   "source_file" : "/frameworks/rs/driver/rsdFrameBufferObj.h"
  },
  {
   "access" : "protected",
   "function_name" : "RsdFrameBufferObj::setColorAttachment",
   "linker_set_key" : "_ZN17RsdFrameBufferObj18setColorAttachmentEv",
   "parameters" :
   [
    {
     "is_this_ptr" : true,
     "referenced_type" : "type-2145"
    }
   ],
   "return_type" : "type-8",
   "source_file" : "/frameworks/rs/driver/rsdFrameBufferObj.h"
  },
  {
   "access" : "protected",
   "function_name" : "RsdFrameBufferObj::setDepthAttachment",
   "linker_set_key" : "_ZN17RsdFrameBufferObj18setDepthAttachmentEv",
   "parameters" :
   [
    {
     "is_this_ptr" : true,
     "referenced_type" : "type-2145"
    }
   ],
   "return_type" : "type-8",
   "source_file" : "/frameworks/rs/driver/rsdFrameBufferObj.h"
  },
  {
   "access" : "protected",
   "function_name" : "RsdFrameBufferObj::renderToFramebuffer",
   "linker_set_key" : "_ZN17RsdFrameBufferObj19renderToFramebufferEv",
   "parameters" :
   [
    {
     "is_this_ptr" : true,
     "referenced_type" : "type-2145"
    }
   ],
   "return_type" : "type-27",
   "source_file" : "/frameworks/rs/driver/rsdFrameBufferObj.h"
  },
  {
   "function_name" : "RsdFrameBufferObj::setActive",
   "linker_set_key" : "_ZN17RsdFrameBufferObj9setActiveEPKN7android12renderscript7ContextE",
   "parameters" :
   [
    {
     "is_this_ptr" : true,
     "referenced_type" : "type-2145"
    },
    {
     "referenced_type" : "type-37"
    }
   ],
   "return_type" : "type-8",
   "source_file" : "/frameworks/rs/driver/rsdFrameBufferObj.h"
  },
  {
   "function_name" : "RsdFrameBufferObj::RsdFrameBufferObj",
   "linker_set_key" : "_ZN17RsdFrameBufferObjC1Ev",
   "parameters" :
   [
    {
     "is_this_ptr" : true,
     "referenced_type" : "type-2145"
    }
   ],
   "return_type" : "type-8",
   "source_file" : "/frameworks/rs/driver/rsdFrameBufferObj.h"
  },
  {
   "function_name" : "RsdFrameBufferObj::RsdFrameBufferObj",
   "linker_set_key" : "_ZN17RsdFrameBufferObjC2Ev",
   "parameters" :
   [
    {
     "is_this_ptr" : true,
     "referenced_type" : "type-2145"
    }
   ],
   "return_type" : "type-8",
   "source_file" : "/frameworks/rs/driver/rsdFrameBufferObj.h"
  },
  {
   "function_name" : "RsdFrameBufferObj::~RsdFrameBufferObj",
   "linker_set_key" : "_ZN17RsdFrameBufferObjD1Ev",
   "parameters" :
   [
    {
     "is_this_ptr" : true,
     "referenced_type" : "type-2145"
    }
   ],
   "return_type" : "type-8",
   "source_file" : "/frameworks/rs/driver/rsdFrameBufferObj.h"
  },
  {
   "function_name" : "RsdFrameBufferObj::~RsdFrameBufferObj",
   "linker_set_key" : "_ZN17RsdFrameBufferObjD2Ev",
   "parameters" :
   [
    {
     "is_this_ptr" : true,
     "referenced_type" : "type-2145"
    }
   ],
   "return_type" : "type-8",
   "source_file" : "/frameworks/rs/driver/rsdFrameBufferObj.h"
  },
  {
   "function_name" : "RsdVertexArrayState::init",
   "linker_set_key" : "_ZN19RsdVertexArrayState4initEj",
   "parameters" :
   [
    {
     "is_this_ptr" : true,
     "referenced_type" : "type-3319"
    },
    {
     "referenced_type" : "type-16"
    }
   ],
   "return_type" : "type-8",
   "source_file" : "/frameworks/rs/driver/rsdVertexArray.h"
  },
  {
   "function_name" : "RsdVertexArrayState::RsdVertexArrayState",
   "linker_set_key" : "_ZN19RsdVertexArrayStateC1Ev",
   "parameters" :
   [
    {
     "is_this_ptr" : true,
     "referenced_type" : "type-3319"
    }
   ],
   "return_type" : "type-8",
   "source_file" : "/frameworks/rs/driver/rsdVertexArray.h"
  },
  {
   "function_name" : "RsdVertexArrayState::RsdVertexArrayState",
   "linker_set_key" : "_ZN19RsdVertexArrayStateC2Ev",
   "parameters" :
   [
    {
     "is_this_ptr" : true,
     "referenced_type" : "type-3319"
    }
   ],
   "return_type" : "type-8",
   "source_file" : "/frameworks/rs/driver/rsdVertexArray.h"
  },
  {
   "function_name" : "RsdVertexArrayState::~RsdVertexArrayState",
   "linker_set_key" : "_ZN19RsdVertexArrayStateD1Ev",
   "parameters" :
   [
    {
     "is_this_ptr" : true,
     "referenced_type" : "type-3319"
    }
   ],
   "return_type" : "type-8",
   "source_file" : "/frameworks/rs/driver/rsdVertexArray.h"
  },
  {
   "function_name" : "RsdVertexArrayState::~RsdVertexArrayState",
   "linker_set_key" : "_ZN19RsdVertexArrayStateD2Ev",
   "parameters" :
   [
    {
     "is_this_ptr" : true,
     "referenced_type" : "type-3319"
    }
   ],
   "return_type" : "type-8",
   "source_file" : "/frameworks/rs/driver/rsdVertexArray.h"
  },
  {
   "function_name" : "RsdShader::loadShader",
   "linker_set_key" : "_ZN9RsdShader10loadShaderEPKN7android12renderscript7ContextE",
   "parameters" :
   [
    {
     "is_this_ptr" : true,
     "referenced_type" : "type-3837"
    },
    {
     "referenced_type" : "type-37"
    }
   ],
   "return_type" : "type-27",
   "source_file" : "/frameworks/rs/driver/rsdShader.h"
  },
  {
   "access" : "protected",
   "function_name" : "RsdShader::logUniform",
   "linker_set_key" : "_ZN9RsdShader10logUniformEPKN7android12renderscript7ElementEPKfj",
   "parameters" :
   [
    {
     "is_this_ptr" : true,
     "referenced_type" : "type-3837"
    },
    {
     "referenced_type" : "type-10"
    },
    {
     "referenced_type" : "type-942"
    },
    {
     "referenced_type" : "type-16"
    }
   ],
   "return_type" : "type-8",
   "source_file" : "/frameworks/rs/driver/rsdShader.h"
  },
  {
   "access" : "protected",
   "function_name" : "RsdShader::setUniform",
   "linker_set_key" : "_ZN9RsdShader10setUniformEPKN7android12renderscript7ContextEPKNS1_7ElementEPKfij",
   "parameters" :
   [
    {
     "is_this_ptr" : true,
     "referenced_type" : "type-3837"
    },
    {
     "referenced_type" : "type-37"
    },
    {
     "referenced_type" : "type-10"
    },
    {
     "referenced_type" : "type-942"
    },
    {
     "referenced_type" : "type-36"
    },
    {
     "referenced_type" : "type-16"
    }
   ],
   "return_type" : "type-8",
   "source_file" : "/frameworks/rs/driver/rsdShader.h"
  },
  {
   "access" : "protected",
   "function_name" : "RsdShader::createShader",
   "linker_set_key" : "_ZN9RsdShader12createShaderEv",
   "parameters" :
   [
    {
     "is_this_ptr" : true,
     "referenced_type" : "type-3837"
    }
   ],
   "return_type" : "type-27",
   "source_file" : "/frameworks/rs/driver/rsdShader.h"
  },
  {
   "access" : "protected",
   "function_name" : "RsdShader::setupSampler",
   "linker_set_key" : "_ZN9RsdShader12setupSamplerEPKN7android12renderscript7ContextEPKNS1_7SamplerEPKNS1_10AllocationE",
   "parameters" :
   [
    {
     "is_this_ptr" : true,
     "referenced_type" : "type-3837"
    },
    {
     "referenced_type" : "type-37"
    },
    {
     "referenced_type" : "type-278"
    },
    {
     "referenced_type" : "type-80"
    }
   ],
   "return_type" : "type-8",
   "source_file" : "/frameworks/rs/driver/rsdShader.h"
  },
  {
   "access" : "protected",
   "function_name" : "RsdShader::setupTextures",
   "linker_set_key" : "_ZN9RsdShader13setupTexturesEPKN7android12renderscript7ContextEP14RsdShaderCache",
   "parameters" :
   [
    {
     "is_this_ptr" : true,
     "referenced_type" : "type-3837"
    },
    {
     "referenced_type" : "type-37"
    },
    {
     "referenced_type" : "type-3317"
    }
   ],
   "return_type" : "type-8",
   "source_file" : "/frameworks/rs/driver/rsdShader.h"
  },
  {
   "access" : "protected",
   "function_name" : "RsdShader::appendTextures",
   "linker_set_key" : "_ZN9RsdShader14appendTexturesEv",
   "parameters" :
   [
    {
     "is_this_ptr" : true,
     "referenced_type" : "type-3837"
    }
   ],
   "return_type" : "type-8",
   "source_file" : "/frameworks/rs/driver/rsdShader.h"
  },
  {
   "access" : "protected",
   "function_name" : "RsdShader::initMemberVars",
   "linker_set_key" : "_ZN9RsdShader14initMemberVarsEv",
   "parameters" :
   [
    {
     "is_this_ptr" : true,
     "referenced_type" : "type-3837"
    }
   ],
   "return_type" : "type-8",
   "source_file" : "/frameworks/rs/driver/rsdShader.h"
  },
  {
   "access" : "protected",
   "function_name" : "RsdShader::appendAttributes",
   "linker_set_key" : "_ZN9RsdShader16appendAttributesEv",
   "parameters" :
   [
    {
     "is_this_ptr" : true,
     "referenced_type" : "type-3837"
    }
   ],
   "return_type" : "type-8",
   "source_file" : "/frameworks/rs/driver/rsdShader.h"
  },
  {
   "access" : "protected",
   "function_name" : "RsdShader::getExistingState",
   "linker_set_key" : "_ZN9RsdShader16getExistingStateEv",
   "parameters" :
   [
    {
     "is_this_ptr" : true,
     "referenced_type" : "type-3837"
    }
   ],
   "return_type" : "type-3673",
   "source_file" : "/frameworks/rs/driver/rsdShader.h"
  },
  {
   "access" : "protected",
   "function_name" : "RsdShader::initAddUserElement",
   "linker_set_key" : "_ZN9RsdShader18initAddUserElementEPKN7android12renderscript7ElementEPNSt3__112basic_stringIcNS5_11char_traitsIcEENS5_9allocatorIcEEEEPjSD_PKc",
   "parameters" :
   [
    {
     "is_this_ptr" : true,
     "referenced_type" : "type-3837"
    },
    {
     "referenced_type" : "type-10"
    },
    {
     "referenced_type" : "type-1956"
    },
    {
     "referenced_type" : "type-19"
    },
    {
     "referenced_type" : "type-19"
    },
    {
     "referenced_type" : "type-21"
    }
   ],
   "return_type" : "type-8",
   "source_file" : "/frameworks/rs/driver/rsdShader.h"
  },
  {
   "access" : "protected",
   "function_name" : "RsdShader::setupUserConstants",
   "linker_set_key" : "_ZN9RsdShader18setupUserConstantsEPKN7android12renderscript7ContextEP14RsdShaderCacheb",
   "parameters" :
   [
    {
     "is_this_ptr" : true,
     "referenced_type" : "type-3837"
    },
    {
     "referenced_type" : "type-37"
    },
    {
     "referenced_type" : "type-3317"
    },
    {
     "referenced_type" : "type-27"
    }
   ],
   "return_type" : "type-8",
   "source_file" : "/frameworks/rs/driver/rsdShader.h"
  },
  {
   "access" : "protected",
   "function_name" : "RsdShader::appendUserConstants",
   "linker_set_key" : "_ZN9RsdShader19appendUserConstantsEv",
   "parameters" :
   [
    {
     "is_this_ptr" : true,
     "referenced_type" : "type-3837"
    }
   ],
   "return_type" : "type-8",
   "source_file" : "/frameworks/rs/driver/rsdShader.h"
  },
  {
   "function_name" : "RsdShader::getStateBasedShaderID",
   "linker_set_key" : "_ZN9RsdShader21getStateBasedShaderIDEPKN7android12renderscript7ContextE",
   "parameters" :
   [
    {
     "is_this_ptr" : true,
     "referenced_type" : "type-3837"
    },
    {
     "referenced_type" : "type-37"
    }
   ],
   "return_type" : "type-16",
   "source_file" : "/frameworks/rs/driver/rsdShader.h"
  },
  {
   "access" : "protected",
   "function_name" : "RsdShader::initAttribAndUniformArray",
   "linker_set_key" : "_ZN9RsdShader25initAttribAndUniformArrayEv",
   "parameters" :
   [
    {
     "is_this_ptr" : true,
     "referenced_type" : "type-3837"
    }
   ],
   "return_type" : "type-8",
   "source_file" : "/frameworks/rs/driver/rsdShader.h"
  },
  {
   "access" : "protected",
   "function_name" : "RsdShader::init",
   "linker_set_key" : "_ZN9RsdShader4initEPPKcjPKj",
   "parameters" :
   [
    {
     "is_this_ptr" : true,
     "referenced_type" : "type-3837"
    },
    {
     "referenced_type" : "type-20"
    },
    {
     "referenced_type" : "type-16"
    },
    {
     "referenced_type" : "type-171"
    }
   ],
   "return_type" : "type-8",
   "source_file" : "/frameworks/rs/driver/rsdShader.h"
  },
  {
   "function_name" : "RsdShader::setup",
   "linker_set_key" : "_ZN9RsdShader5setupEPKN7android12renderscript7ContextEP14RsdShaderCache",
   "parameters" :
   [
    {
     "is_this_ptr" : true,
     "referenced_type" : "type-3837"
    },
    {
     "referenced_type" : "type-37"
    },
    {
     "referenced_type" : "type-3317"
    }
   ],
   "return_type" : "type-8",
   "source_file" : "/frameworks/rs/driver/rsdShader.h"
  },
  {
   "function_name" : "RsdShader::RsdShader",
   "linker_set_key" : "_ZN9RsdShaderC1EPKN7android12renderscript7ProgramEjPKcjPS6_jPKj",
   "parameters" :
   [
    {
     "is_this_ptr" : true,
     "referenced_type" : "type-3837"
    },
    {
     "referenced_type" : "type-90"
    },
    {
     "referenced_type" : "type-16"
    },
    {
     "referenced_type" : "type-21"
    },
    {
     "referenced_type" : "type-16"
    },
    {
     "referenced_type" : "type-20"
    },
    {
     "referenced_type" : "type-16"
    },
    {
     "referenced_type" : "type-171"
    }
   ],
   "return_type" : "type-8",
   "source_file" : "/frameworks/rs/driver/rsdShader.h"
  },
  {
   "function_name" : "RsdShader::RsdShader",
   "linker_set_key" : "_ZN9RsdShaderC2EPKN7android12renderscript7ProgramEjPKcjPS6_jPKj",
   "parameters" :
   [
    {
     "is_this_ptr" : true,
     "referenced_type" : "type-3837"
    },
    {
     "referenced_type" : "type-90"
    },
    {
     "referenced_type" : "type-16"
    },
    {
     "referenced_type" : "type-21"
    },
    {
     "referenced_type" : "type-16"
    },
    {
     "referenced_type" : "type-20"
    },
    {
     "referenced_type" : "type-16"
    },
    {
     "referenced_type" : "type-171"
    }
   ],
   "return_type" : "type-8",
   "source_file" : "/frameworks/rs/driver/rsdShader.h"
  },
  {
   "function_name" : "RsdShader::~RsdShader",
   "linker_set_key" : "_ZN9RsdShaderD0Ev",
   "parameters" :
   [
    {
     "is_this_ptr" : true,
     "referenced_type" : "type-3837"
    }
   ],
   "return_type" : "type-8",
   "source_file" : "/frameworks/rs/driver/rsdShader.h"
  },
  {
   "function_name" : "RsdShader::~RsdShader",
   "linker_set_key" : "_ZN9RsdShaderD1Ev",
   "parameters" :
   [
    {
     "is_this_ptr" : true,
     "referenced_type" : "type-3837"
    }
   ],
   "return_type" : "type-8",
   "source_file" : "/frameworks/rs/driver/rsdShader.h"
  },
  {
   "function_name" : "RsdShader::~RsdShader",
   "linker_set_key" : "_ZN9RsdShaderD2Ev",
   "parameters" :
   [
    {
     "is_this_ptr" : true,
     "referenced_type" : "type-3837"
    }
   ],
   "return_type" : "type-8",
   "source_file" : "/frameworks/rs/driver/rsdShader.h"
  },
  {
   "function_name" : "RsdMeshObj::renderPrimitiveRange",
   "linker_set_key" : "_ZNK10RsdMeshObj20renderPrimitiveRangeEPKN7android12renderscript7ContextEjjj",
   "parameters" :
   [
    {
     "is_this_ptr" : true,
     "referenced_type" : "type-3639"
    },
    {
     "referenced_type" : "type-37"
    },
    {
     "referenced_type" : "type-16"
    },
    {
     "referenced_type" : "type-16"
    },
    {
     "referenced_type" : "type-16"
    }
   ],
   "return_type" : "type-8",
   "source_file" : "/frameworks/rs/driver/rsdMeshObj.h"
  },
  {
   "function_name" : "RsdShaderCache::vtxAttribSlot",
   "linker_set_key" : "_ZNK14RsdShaderCache13vtxAttribSlotERKNSt3__112basic_stringIcNS0_11char_traitsIcEENS0_9allocatorIcEEEE",
   "parameters" :
   [
    {
     "is_this_ptr" : true,
     "referenced_type" : "type-3352"
    },
    {
     "referenced_type" : "type-1302"
    }
   ],
   "return_type" : "type-36",
   "source_file" : "/frameworks/rs/driver/rsdShaderCache.h"
  },
  {
   "function_name" : "RsdVertexArray::setup",
   "linker_set_key" : "_ZNK14RsdVertexArray5setupEPKN7android12renderscript7ContextE",
   "parameters" :
   [
    {
     "is_this_ptr" : true,
     "referenced_type" : "type-6314"
    },
    {
     "referenced_type" : "type-37"
    }
   ],
   "return_type" : "type-8",
   "source_file" : "/frameworks/rs/driver/rsdVertexArray.h"
  },
  {
   "function_name" : "RsdVertexArray::logAttrib",
   "linker_set_key" : "_ZNK14RsdVertexArray9logAttribEjj",
   "parameters" :
   [
    {
     "is_this_ptr" : true,
     "referenced_type" : "type-6314"
    },
    {
     "referenced_type" : "type-16"
    },
    {
     "referenced_type" : "type-16"
    }
   ],
   "return_type" : "type-8",
   "source_file" : "/frameworks/rs/driver/rsdVertexArray.h"
  },
  {
   "function_name" : "RsdShader::getGLSLInputString",
   "linker_set_key" : "_ZNK9RsdShader18getGLSLInputStringEv",
   "parameters" :
   [
    {
     "is_this_ptr" : true,
     "referenced_type" : "type-3836"
    }
   ],
   "return_type" : "type-1297",
   "source_file" : "/frameworks/rs/driver/rsdShader.h"
  },
  {
   "access" : "private",
   "function_name" : "std::__1::vector<std::__1::basic_string<char>, std::__1::allocator<std::__1::basic_string<char> > >::__push_back_slow_path",
   "linker_set_key" : "_ZNSt3__16vectorINS_12basic_stringIcNS_11char_traitsIcEENS_9allocatorIcEEEENS4_IS6_EEE21__push_back_slow_pathIS6_EEvOT_",
   "parameters" :
   [
    {
     "is_this_ptr" : true,
     "referenced_type" : "type-5488"
    },
    {
     "referenced_type" : "type-5634"
    }
   ],
   "return_type" : "type-8",
   "source_file" : "/external/libcxx/include/vector",
   "template_args" : [ "type-1297" ]
  },
  {
   "access" : "private",
   "function_name" : "std::__1::vector<RsdShaderCache::ProgramEntry *, std::__1::allocator<RsdShaderCache::ProgramEntry *> >::__push_back_slow_path",
   "linker_set_key" : "_ZNSt3__16vectorIPN14RsdShaderCache12ProgramEntryENS_9allocatorIS3_EEE21__push_back_slow_pathIRKS3_EEvOT_",
   "parameters" :
   [
    {
     "is_this_ptr" : true,
     "referenced_type" : "type-5990"
    },
    {
     "referenced_type" : "type-5838"
    }
   ],
   "return_type" : "type-8",
   "source_file" : "/external/libcxx/include/vector",
   "template_args" : [ "type-5838" ]
  },
  {
   "access" : "private",
   "function_name" : "std::__1::vector<RsdShader::StateBasedKey *, std::__1::allocator<RsdShader::StateBasedKey *> >::__push_back_slow_path",
   "linker_set_key" : "_ZNSt3__16vectorIPN9RsdShader13StateBasedKeyENS_9allocatorIS3_EEE21__push_back_slow_pathIRKS3_EEvOT_",
   "parameters" :
   [
    {
     "is_this_ptr" : true,
     "referenced_type" : "type-5497"
    },
    {
     "referenced_type" : "type-3721"
    }
   ],
   "return_type" : "type-8",
   "source_file" : "/external/libcxx/include/vector",
   "template_args" : [ "type-3721" ]
  },
  {
   "function_name" : "rsdHalAbort",
   "linker_set_key" : "rsdHalAbort",
   "parameters" :
   [
    {
     "referenced_type" : "type-7"
    }
   ],
   "return_type" : "type-8",
   "source_file" : "/frameworks/rs/rs_hal.h"
  },
  {
   "function_name" : "rsdHalInit",
   "linker_set_key" : "rsdHalInit",
   "parameters" :
   [
    {
     "referenced_type" : "type-7"
    },
    {
     "referenced_type" : "type-16"
    },
    {
     "referenced_type" : "type-16"
    }
   ],
   "return_type" : "type-27",
   "source_file" : "/frameworks/rs/rs_hal.h"
  },
  {
   "function_name" : "rsdHalQueryHal",
   "linker_set_key" : "rsdHalQueryHal",
   "parameters" :
   [
    {
     "referenced_type" : "type-2194"
    },
    {
     "referenced_type" : "type-2933"
    }
   ],
   "return_type" : "type-27",
   "source_file" : "/frameworks/rs/rs_hal.h"
  },
  {
   "function_name" : "rsdHalQueryVersion",
   "linker_set_key" : "rsdHalQueryVersion",
   "parameters" :
   [
    {
     "referenced_type" : "type-19"
    },
    {
     "referenced_type" : "type-19"
    }
   ],
   "return_type" : "type-27",
   "source_file" : "/frameworks/rs/rs_hal.h"
  }
 ],
 "global_vars" : [],
 "lvalue_reference_types" :
 [
  {
   "alignment" : 4,
   "linker_set_key" : "RsdShader::StateBasedKey *&",
   "name" : "RsdShader::StateBasedKey *&",
   "referenced_type" : "type-3673",
   "self_type" : "type-5165",
   "size" : 4,
   "source_file" : "/external/libcxx/include/type_traits"
  },
  {
   "alignment" : 4,
   "linker_set_key" : "RsdShader::StateBasedKey **&",
   "name" : "RsdShader::StateBasedKey **&",
   "referenced_type" : "type-3672",
   "self_type" : "type-4956",
   "size" : 4,
   "source_file" : "/external/libcxx/include/type_traits"
  },
  {
   "alignment" : 4,
   "linker_set_key" : "RsdShader::StateBasedKey **const &",
   "name" : "RsdShader::StateBasedKey **const &",
   "referenced_type" : "type-5523",
   "self_type" : "type-5522",
   "size" : 4,
   "source_file" : "/external/libcxx/include/memory"
  },
  {
   "alignment" : 4,
   "linker_set_key" : "RsdShader::StateBasedKey *const &",
   "name" : "RsdShader::StateBasedKey *const &",
   "referenced_type" : "type-3722",
   "self_type" : "type-3721",
   "size" : 4,
   "source_file" : "/external/libcxx/include/vector"
  },
  {
   "alignment" : 4,
   "linker_set_key" : "RsdShaderCache::ProgramEntry *&",
   "name" : "RsdShaderCache::ProgramEntry *&",
   "referenced_type" : "type-3167",
   "self_type" : "type-5835",
   "size" : 4,
   "source_file" : "/external/libcxx/include/type_traits"
  },
  {
   "alignment" : 4,
   "linker_set_key" : "RsdShaderCache::ProgramEntry **&",
   "name" : "RsdShaderCache::ProgramEntry **&",
   "referenced_type" : "type-3166",
   "self_type" : "type-5740",
   "size" : 4,
   "source_file" : "/external/libcxx/include/type_traits"
  },
  {
   "alignment" : 4,
   "linker_set_key" : "RsdShaderCache::ProgramEntry **const &",
   "name" : "RsdShaderCache::ProgramEntry **const &",
   "referenced_type" : "type-6023",
   "self_type" : "type-6022",
   "size" : 4,
   "source_file" : "/external/libcxx/include/memory"
  },
  {
   "alignment" : 4,
   "linker_set_key" : "RsdShaderCache::ProgramEntry *const &",
   "name" : "RsdShaderCache::ProgramEntry *const &",
   "referenced_type" : "type-3413",
   "self_type" : "type-5838",
   "size" : 4,
   "source_file" : "/external/libcxx/include/type_traits"
  },
  {
   "alignment" : 4,
   "linker_set_key" : "char &",
   "name" : "char &",
   "referenced_type" : "type-23",
   "self_type" : "type-2528",
   "size" : 4,
   "source_file" : "/external/libcxx/include/type_traits"
  },
  {
   "alignment" : 4,
   "linker_set_key" : "char const (&)[18]",
   "name" : "char const (&)[18]",
   "referenced_type" : "type-5420",
   "self_type" : "type-5419",
   "size" : 4,
   "source_file" : "/external/libcxx/include/type_traits"
  },
  {
   "alignment" : 4,
   "linker_set_key" : "char const (&)[19]",
   "name" : "char const (&)[19]",
   "referenced_type" : "type-2454",
   "self_type" : "type-5424",
   "size" : 4,
   "source_file" : "/external/libcxx/include/type_traits"
  },
  {
   "alignment" : 4,
   "linker_set_key" : "char const (&)[1]",
   "name" : "char const (&)[1]",
   "referenced_type" : "type-6234",
   "self_type" : "type-6233",
   "size" : 4,
   "source_file" : "/external/libcxx/include/type_traits"
  },
  {
   "alignment" : 4,
   "linker_set_key" : "char const (&)[23]",
   "name" : "char const (&)[23]",
   "referenced_type" : "type-5391",
   "self_type" : "type-5390",
   "size" : 4,
   "source_file" : "/external/libcxx/include/type_traits"
  },
  {
   "alignment" : 4,
   "linker_set_key" : "char const (&)[24]",
   "name" : "char const (&)[24]",
   "referenced_type" : "type-5386",
   "self_type" : "type-5385",
   "size" : 4,
   "source_file" : "/external/libcxx/include/type_traits"
  },
  {
   "alignment" : 4,
   "linker_set_key" : "char const (&)[25]",
   "name" : "char const (&)[25]",
   "referenced_type" : "type-5410",
   "self_type" : "type-5409",
   "size" : 4,
   "source_file" : "/external/libcxx/include/type_traits"
  },
  {
   "alignment" : 4,
   "linker_set_key" : "char const (&)[26]",
   "name" : "char const (&)[26]",
   "referenced_type" : "type-5415",
   "self_type" : "type-5414",
   "size" : 4,
   "source_file" : "/external/libcxx/include/type_traits"
  },
  {
   "alignment" : 4,
   "linker_set_key" : "char const (&)[2]",
   "name" : "char const (&)[2]",
   "referenced_type" : "type-5428",
   "self_type" : "type-5427",
   "size" : 4,
   "source_file" : "/external/libcxx/include/type_traits"
  },
  {
   "alignment" : 4,
   "linker_set_key" : "char const (&)[32]",
   "name" : "char const (&)[32]",
   "referenced_type" : "type-5406",
   "self_type" : "type-5405",
   "size" : 4,
   "source_file" : "/external/libcxx/include/type_traits"
  },
  {
   "alignment" : 4,
   "linker_set_key" : "char const (&)[3]",
   "name" : "char const (&)[3]",
   "referenced_type" : "type-5396",
   "self_type" : "type-5395",
   "size" : 4,
   "source_file" : "/external/libcxx/include/type_traits"
  },
  {
   "alignment" : 4,
   "linker_set_key" : "char const (&)[48]",
   "name" : "char const (&)[48]",
   "referenced_type" : "type-5401",
   "self_type" : "type-5400",
   "size" : 4,
   "source_file" : "/external/libcxx/include/type_traits"
  },
  {
   "alignment" : 4,
   "linker_set_key" : "char const (&)[5]",
   "name" : "char const (&)[5]",
   "referenced_type" : "type-2404",
   "self_type" : "type-5381",
   "size" : 4,
   "source_file" : "/external/libcxx/include/type_traits"
  },
  {
   "alignment" : 4,
   "linker_set_key" : "char const (&)[8]",
   "name" : "char const (&)[8]",
   "referenced_type" : "type-3555",
   "self_type" : "type-3554",
   "size" : 4,
   "source_file" : "/external/libcxx/include/type_traits"
  },
  {
   "alignment" : 4,
   "linker_set_key" : "char16_t &",
   "name" : "char16_t &",
   "referenced_type" : "type-618",
   "self_type" : "type-2530",
   "size" : 4,
   "source_file" : "/external/libcxx/include/type_traits"
  },
  {
   "alignment" : 4,
   "linker_set_key" : "char32_t &",
   "name" : "char32_t &",
   "referenced_type" : "type-636",
   "self_type" : "type-2531",
   "size" : 4,
   "source_file" : "/external/libcxx/include/type_traits"
  },
  {
   "linker_set_key" : "const __bit_iterator<_Cp, _IsConst, > &",
   "name" : "const __bit_iterator<_Cp, _IsConst, > &",
   "referenced_type" : "type-1079",
   "self_type" : "type-1081",
   "source_file" : "/external/libcxx/include/__bit_reference"
  },
  {
   "linker_set_key" : "const __bit_iterator<_Cp, _IsConst, > &",
   "name" : "const __bit_iterator<_Cp, _IsConst, > &",
   "referenced_type" : "type-1963",
   "self_type" : "type-1965",
   "source_file" : "/external/libcxx/include/__bit_reference"
  },
  {
   "linker_set_key" : "const __bit_iterator<_Cp, _IsConst, > &",
   "name" : "const __bit_iterator<_Cp, _IsConst, > &",
   "referenced_type" : "type-2848",
   "self_type" : "type-2850",
   "source_file" : "/external/libcxx/include/__bit_reference"
  },
  {
   "linker_set_key" : "const __bit_iterator<_Cp, _IsConst, > &",
   "name" : "const __bit_iterator<_Cp, _IsConst, > &",
   "referenced_type" : "type-2896",
   "self_type" : "type-2898",
   "source_file" : "/external/libcxx/include/__bit_reference"
  },
  {
   "linker_set_key" : "const __bit_iterator<_Cp, _IsConst, > &",
   "name" : "const __bit_iterator<_Cp, _IsConst, > &",
   "referenced_type" : "type-2974",
   "self_type" : "type-2976",
   "source_file" : "/external/libcxx/include/__bit_reference"
  },
  {
   "linker_set_key" : "const __bit_iterator<_Cp, _IsConst, > &",
   "name" : "const __bit_iterator<_Cp, _IsConst, > &",
   "referenced_type" : "type-3027",
   "self_type" : "type-3029",
   "source_file" : "/external/libcxx/include/__bit_reference"
  },
  {
   "linker_set_key" : "const __bit_iterator<_Cp, _IsConst, > &",
   "name" : "const __bit_iterator<_Cp, _IsConst, > &",
   "referenced_type" : "type-3092",
   "self_type" : "type-3094",
   "source_file" : "/external/libcxx/include/__bit_reference"
  },
  {
   "linker_set_key" : "const __bit_iterator<_Cp, _IsConst, > &",
   "name" : "const __bit_iterator<_Cp, _IsConst, > &",
   "referenced_type" : "type-3311",
   "self_type" : "type-3313",
   "source_file" : "/external/libcxx/include/__bit_reference"
  },
  {
   "linker_set_key" : "const __bit_iterator<_Cp, _IsConst, > &",
   "name" : "const __bit_iterator<_Cp, _IsConst, > &",
   "referenced_type" : "type-3476",
   "self_type" : "type-3478",
   "source_file" : "/external/libcxx/include/__bit_reference"
  },
  {
   "linker_set_key" : "const __bit_iterator<_Cp, _IsConst, > &",
   "name" : "const __bit_iterator<_Cp, _IsConst, > &",
   "referenced_type" : "type-3598",
   "self_type" : "type-3601",
   "source_file" : "/external/libcxx/include/__bit_reference"
  },
  {
   "linker_set_key" : "const __bit_iterator<_Cp, _IsConst, > &",
   "name" : "const __bit_iterator<_Cp, _IsConst, > &",
   "referenced_type" : "type-3790",
   "self_type" : "type-3792",
   "source_file" : "/external/libcxx/include/__bit_reference"
  },
  {
   "linker_set_key" : "const __bit_iterator<_Cp, _IsConst, > &",
   "name" : "const __bit_iterator<_Cp, _IsConst, > &",
   "referenced_type" : "type-3926",
   "self_type" : "type-3928",
   "source_file" : "/external/libcxx/include/__bit_reference"
  },
  {
   "linker_set_key" : "const __bit_iterator<_Cp, _IsConst, > &",
   "name" : "const __bit_iterator<_Cp, _IsConst, > &",
   "referenced_type" : "type-4029",
   "self_type" : "type-4031",
   "source_file" : "/external/libcxx/include/__bit_reference"
  },
  {
   "linker_set_key" : "const __bit_iterator<_Cp, _IsConst, > &",
   "name" : "const __bit_iterator<_Cp, _IsConst, > &",
   "referenced_type" : "type-4062",
   "self_type" : "type-4064",
   "source_file" : "/external/libcxx/include/__bit_reference"
  },
  {
   "linker_set_key" : "const __bit_iterator<_Cp, _IsConst, > &",
   "name" : "const __bit_iterator<_Cp, _IsConst, > &",
   "referenced_type" : "type-4113",
   "self_type" : "type-4115",
   "source_file" : "/external/libcxx/include/__bit_reference"
  },
  {
   "linker_set_key" : "const __bit_iterator<_Cp, _IsConst, > &",
   "name" : "const __bit_iterator<_Cp, _IsConst, > &",
   "referenced_type" : "type-4194",
   "self_type" : "type-4196",
   "source_file" : "/external/libcxx/include/__bit_reference"
  },
  {
   "linker_set_key" : "const __bit_iterator<_Cp, _IsConst, > &",
   "name" : "const __bit_iterator<_Cp, _IsConst, > &",
   "referenced_type" : "type-4282",
   "self_type" : "type-4284",
   "source_file" : "/external/libcxx/include/__bit_reference"
  },
  {
   "linker_set_key" : "const __bit_iterator<_Cp, _IsConst, > &",
   "name" : "const __bit_iterator<_Cp, _IsConst, > &",
   "referenced_type" : "type-4379",
   "self_type" : "type-4381",
   "source_file" : "/external/libcxx/include/__bit_reference"
  },
  {
   "linker_set_key" : "const __bit_iterator<_Cp, _IsConst, > &",
   "name" : "const __bit_iterator<_Cp, _IsConst, > &",
   "referenced_type" : "type-4447",
   "self_type" : "type-4449",
   "source_file" : "/external/libcxx/include/__bit_reference"
  },
  {
   "linker_set_key" : "const __bit_iterator<_Cp, _IsConst, > &",
   "name" : "const __bit_iterator<_Cp, _IsConst, > &",
   "referenced_type" : "type-4497",
   "self_type" : "type-4499",
   "source_file" : "/external/libcxx/include/__bit_reference"
  },
  {
   "linker_set_key" : "const __bit_iterator<_Cp, _IsConst, > &",
   "name" : "const __bit_iterator<_Cp, _IsConst, > &",
   "referenced_type" : "type-4549",
   "self_type" : "type-4551",
   "source_file" : "/external/libcxx/include/__bit_reference"
  },
  {
   "linker_set_key" : "const __bit_iterator<_Cp, _IsConst, > &",
   "name" : "const __bit_iterator<_Cp, _IsConst, > &",
   "referenced_type" : "type-4844",
   "self_type" : "type-4846",
   "source_file" : "/external/libcxx/include/__bit_reference"
  },
  {
   "linker_set_key" : "const __bit_iterator<_Cp, _IsConst, > &",
   "name" : "const __bit_iterator<_Cp, _IsConst, > &",
   "referenced_type" : "type-4894",
   "self_type" : "type-4896",
   "source_file" : "/external/libcxx/include/__bit_reference"
  },
  {
   "linker_set_key" : "const __bit_iterator<_Cp, _IsConst, > &",
   "name" : "const __bit_iterator<_Cp, _IsConst, > &",
   "referenced_type" : "type-5551",
   "self_type" : "type-5553",
   "source_file" : "/external/libcxx/include/__bit_reference"
  },
  {
   "linker_set_key" : "const __bit_iterator<_Cp, _IsConst, > &",
   "name" : "const __bit_iterator<_Cp, _IsConst, > &",
   "referenced_type" : "type-6035",
   "self_type" : "type-6037",
   "source_file" : "/external/libcxx/include/__bit_reference"
  },
  {
