{
 "array_types" :
 [
  {
   "alignment" : 2,
   "linker_set_key" : "android::hardware::wifi::V1_0::NanBandSpecificConfig [2]",
   "name" : "android::hardware::wifi::V1_0::NanBandSpecificConfig [2]",
   "referenced_type" : "type-94",
   "self_type" : "type-93",
   "size" : 16,
   "source_file" : "/system/libhidl/base/include/hidl/HidlSupport.h"
  },
  {
   "alignment" : 1,
   "linker_set_key" : "bool [2]",
   "name" : "bool [2]",
   "referenced_type" : "type-16",
   "self_type" : "type-90",
   "size" : 2,
   "source_file" : "/system/libhidl/base/include/hidl/HidlSupport.h"
  },
  {
   "alignment" : 1,
   "linker_set_key" : "char [0]",
   "name" : "char [0]",
   "referenced_type" : "type-14",
   "self_type" : "type-738",
   "source_file" : "/system/core/liblog/include/log/log_read.h"
  },
  {
   "linker_set_key" : "float []",
   "name" : "float []",
   "referenced_type" : "type-1361",
   "self_type" : "type-1658",
   "source_file" : "/system/core/libsystem/include/system/graphics.h"
  },
  {
   "alignment" : 4,
   "linker_set_key" : "int [0]",
   "name" : "int [0]",
   "referenced_type" : "type-23",
   "self_type" : "type-1171",
   "source_file" : "/system/core/libcutils/include/cutils/native_handle.h"
  },
  {
   "alignment" : 1,
   "linker_set_key" : "signed char [2]",
   "name" : "signed char [2]",
   "referenced_type" : "type-142",
   "self_type" : "type-141",
   "size" : 2,
   "source_file" : "/system/libhidl/base/include/hidl/HidlSupport.h"
  },
  {
   "alignment" : 1,
   "linker_set_key" : "unsigned char [32]",
   "name" : "unsigned char [32]",
   "referenced_type" : "type-5",
   "self_type" : "type-73",
   "size" : 32,
   "source_file" : "/system/libhidl/base/include/hidl/HidlSupport.h"
  },
  {
   "alignment" : 1,
   "linker_set_key" : "unsigned char [3]",
   "name" : "unsigned char [3]",
   "referenced_type" : "type-5",
   "self_type" : "type-756",
   "size" : 3,
   "source_file" : "/system/libhidl/base/include/hidl/HidlSupport.h"
  },
  {
   "alignment" : 1,
   "linker_set_key" : "unsigned char [5121]",
   "name" : "unsigned char [5121]",
   "referenced_type" : "type-5",
   "self_type" : "type-1034",
   "size" : 5121,
   "source_file" : "/system/core/liblog/include/log/log_read.h"
  },
  {
   "alignment" : 1,
   "linker_set_key" : "unsigned char [6]",
   "name" : "unsigned char [6]",
   "referenced_type" : "type-5",
   "self_type" : "type-4",
   "size" : 6,
   "source_file" : "/system/libhidl/base/include/hidl/HidlSupport.h"
  },
  {
   "alignment" : 4,
   "linker_set_key" : "unsigned int [2]",
   "name" : "unsigned int [2]",
   "referenced_type" : "type-2",
   "self_type" : "type-88",
   "size" : 8,
   "source_file" : "/system/libhidl/base/include/hidl/HidlSupport.h"
  },
  {
   "alignment" : 4,
   "linker_set_key" : "unsigned int [8]",
   "name" : "unsigned int [8]",
   "referenced_type" : "type-2",
   "self_type" : "type-1650",
   "size" : 32,
   "source_file" : "/system/core/libsystem/include/system/graphics.h"
  }
 ],
 "builtin_types" :
 [
  {
   "alignment" : 1,
   "is_integral" : true,
   "is_unsigned" : true,
   "linker_set_key" : "bool",
   "name" : "bool",
   "referenced_type" : "type-16",
   "self_type" : "type-16",
   "size" : 1
  },
  {
   "alignment" : 1,
   "is_integral" : true,
   "linker_set_key" : "char",
   "name" : "char",
   "referenced_type" : "type-14",
   "self_type" : "type-14",
   "size" : 1
  },
  {
   "alignment" : 2,
   "is_integral" : true,
   "is_unsigned" : true,
   "linker_set_key" : "char16_t",
   "name" : "char16_t",
   "referenced_type" : "type-1139",
   "self_type" : "type-1139",
   "size" : 2
  },
  {
   "alignment" : 8,
   "linker_set_key" : "double",
   "name" : "double",
   "referenced_type" : "type-1369",
   "self_type" : "type-1369",
   "size" : 8
  },
  {
   "alignment" : 4,
   "linker_set_key" : "float",
   "name" : "float",
   "referenced_type" : "type-1361",
   "self_type" : "type-1361",
   "size" : 4
  },
  {
   "alignment" : 4,
   "is_integral" : true,
   "linker_set_key" : "int",
   "name" : "int",
   "referenced_type" : "type-23",
   "self_type" : "type-23",
   "size" : 4
  },
  {
   "alignment" : 8,
   "is_integral" : true,
   "linker_set_key" : "long",
   "name" : "long",
   "referenced_type" : "type-138",
   "self_type" : "type-138",
   "size" : 8
  },
  {
   "alignment" : 8,
   "is_integral" : true,
   "linker_set_key" : "long long",
   "name" : "long long",
   "referenced_type" : "type-1351",
   "self_type" : "type-1351",
   "size" : 8
  },
  {
   "alignment" : 2,
   "is_integral" : true,
   "linker_set_key" : "short",
   "name" : "short",
   "referenced_type" : "type-1324",
   "self_type" : "type-1324",
   "size" : 2
  },
  {
   "alignment" : 1,
   "is_integral" : true,
   "linker_set_key" : "signed char",
   "name" : "signed char",
   "referenced_type" : "type-142",
   "self_type" : "type-142",
   "size" : 1
  },
  {
   "alignment" : 1,
   "is_integral" : true,
   "is_unsigned" : true,
   "linker_set_key" : "unsigned char",
   "name" : "unsigned char",
   "referenced_type" : "type-5",
   "self_type" : "type-5",
   "size" : 1
  },
  {
   "alignment" : 4,
   "is_integral" : true,
   "is_unsigned" : true,
   "linker_set_key" : "unsigned int",
   "name" : "unsigned int",
   "referenced_type" : "type-2",
   "self_type" : "type-2",
   "size" : 4
  },
  {
   "alignment" : 8,
   "is_integral" : true,
   "is_unsigned" : true,
   "linker_set_key" : "unsigned long",
   "name" : "unsigned long",
   "referenced_type" : "type-15",
   "self_type" : "type-15",
   "size" : 8
  },
  {
   "alignment" : 8,
   "is_integral" : true,
   "is_unsigned" : true,
   "linker_set_key" : "unsigned long long",
   "name" : "unsigned long long",
   "referenced_type" : "type-1356",
   "self_type" : "type-1356",
   "size" : 8
  },
  {
   "alignment" : 2,
   "is_integral" : true,
   "is_unsigned" : true,
   "linker_set_key" : "unsigned short",
   "name" : "unsigned short",
   "referenced_type" : "type-56",
   "self_type" : "type-56",
   "size" : 2
  },
  {
   "linker_set_key" : "void",
   "name" : "void",
   "referenced_type" : "type-311",
   "self_type" : "type-311"
  }
 ],
 "elf_functions" :
 [
  {
   "name" : "_ZN7android8hardware4wifi4V1_310BsWifiChip13addOnewayTaskENSt3__18functionIFvvEEE"
  },
  {
   "name" : "_ZN7android8hardware4wifi4V1_310BsWifiChipC1ENS_2spINS2_9IWifiChipEEE"
  },
  {
   "name" : "_ZN7android8hardware4wifi4V1_310BsWifiChipC2ENS_2spINS2_9IWifiChipEEE"
  },
  {
   "name" : "_ZN7android8hardware4wifi4V1_312BnHwWifiChip10onTransactEjRKNS0_6ParcelEPS4_jNSt3__18functionIFvRS4_EEE"
  },
  {
   "name" : "_ZN7android8hardware4wifi4V1_312BnHwWifiChip12getDebugInfoENSt3__18functionIFvRKNS_4hidl4base4V1_09DebugInfoEEEE"
  },
  {
   "name" : "_ZN7android8hardware4wifi4V1_312BnHwWifiChip20_hidl_setLatencyModeEPNS_4hidl4base4V1_08BnHwBaseERKNS0_6ParcelEPS9_NSt3__18functionIFvRS9_EEE"
  },
  {
   "name" : "_ZN7android8hardware4wifi4V1_312BnHwWifiChip25_hidl_getCapabilities_1_3EPNS_4hidl4base4V1_08BnHwBaseERKNS0_6ParcelEPS9_NSt3__18functionIFvRS9_EEE"
  },
  {
   "name" : "_ZN7android8hardware4wifi4V1_312BnHwWifiChip27_hidl_flushRingBufferToFileEPNS_4hidl4base4V1_08BnHwBaseERKNS0_6ParcelEPS9_NSt3__18functionIFvRS9_EEE"
  },
  {
   "name" : "_ZN7android8hardware4wifi4V1_312BnHwWifiChip4pingEv"
  },
  {
   "name" : "_ZN7android8hardware4wifi4V1_312BnHwWifiChipC1ERKNS_2spINS2_9IWifiChipEEE"
  },
  {
   "name" : "_ZN7android8hardware4wifi4V1_312BnHwWifiChipC2ERKNS_2spINS2_9IWifiChipEEE"
  },
  {
   "name" : "_ZN7android8hardware4wifi4V1_312BnHwWifiChipD0Ev"
  },
  {
   "name" : "_ZN7android8hardware4wifi4V1_312BnHwWifiChipD1Ev"
  },
  {
   "name" : "_ZN7android8hardware4wifi4V1_312BnHwWifiChipD2Ev"
  },
  {
   "name" : "_ZN7android8hardware4wifi4V1_312BpHwWifiChip10getApIfaceERKNS0_11hidl_stringENSt3__18functionIFvRKNS1_4V1_010WifiStatusERKNS_2spINS9_12IWifiApIfaceEEEEEE"
  },
  {
   "name" : "_ZN7android8hardware4wifi4V1_312BpHwWifiChip11getNanIfaceERKNS0_11hidl_stringENSt3__18functionIFvRKNS1_4V1_010WifiStatusERKNS_2spINS9_13IWifiNanIfaceEEEEEE"
  },
  {
   "name" : "_ZN7android8hardware4wifi4V1_312BpHwWifiChip11getP2pIfaceERKNS0_11hidl_stringENSt3__18functionIFvRKNS1_4V1_010WifiStatusERKNS_2spINS9_13IWifiP2pIfaceEEEEEE"
  },
  {
   "name" : "_ZN7android8hardware4wifi4V1_312BpHwWifiChip11getStaIfaceERKNS0_11hidl_stringENSt3__18functionIFvRKNS1_4V1_010WifiStatusERKNS_2spINS9_13IWifiStaIfaceEEEEEE"
  },
  {
   "name" : "_ZN7android8hardware4wifi4V1_312BpHwWifiChip11linkToDeathERKNS_2spINS0_20hidl_death_recipientEEEm"
  },
  {
   "name" : "_ZN7android8hardware4wifi4V1_312BpHwWifiChip12getDebugInfoENSt3__18functionIFvRKNS_4hidl4base4V1_09DebugInfoEEEE"
  },
  {
   "name" : "_ZN7android8hardware4wifi4V1_312BpHwWifiChip12getHashChainENSt3__18functionIFvRKNS0_8hidl_vecINS0_10hidl_arrayIhLm32EJEEEEEEEE"
  },
  {
   "name" : "_ZN7android8hardware4wifi4V1_312BpHwWifiChip13configureChipEjNSt3__18functionIFvRKNS1_4V1_010WifiStatusEEEE"
  },
  {
   "name" : "_ZN7android8hardware4wifi4V1_312BpHwWifiChip13createApIfaceENSt3__18functionIFvRKNS1_4V1_010WifiStatusERKNS_2spINS6_12IWifiApIfaceEEEEEE"
  },
  {
   "name" : "_ZN7android8hardware4wifi4V1_312BpHwWifiChip13removeApIfaceERKNS0_11hidl_stringENSt3__18functionIFvRKNS1_4V1_010WifiStatusEEEE"
  },
  {
   "name" : "_ZN7android8hardware4wifi4V1_312BpHwWifiChip13unlinkToDeathERKNS_2spINS0_20hidl_death_recipientEEE"
  },
  {
   "name" : "_ZN7android8hardware4wifi4V1_312BpHwWifiChip14createNanIfaceENSt3__18functionIFvRKNS1_4V1_010WifiStatusERKNS_2spINS6_13IWifiNanIfaceEEEEEE"
  },
  {
   "name" : "_ZN7android8hardware4wifi4V1_312BpHwWifiChip14createP2pIfaceENSt3__18functionIFvRKNS1_4V1_010WifiStatusERKNS_2spINS6_13IWifiP2pIfaceEEEEEE"
  },
  {
   "name" : "_ZN7android8hardware4wifi4V1_312BpHwWifiChip14createStaIfaceENSt3__18functionIFvRKNS1_4V1_010WifiStatusERKNS_2spINS6_13IWifiStaIfaceEEEEEE"
  },
  {
   "name" : "_ZN7android8hardware4wifi4V1_312BpHwWifiChip14interfaceChainENSt3__18functionIFvRKNS0_8hidl_vecINS0_11hidl_stringEEEEEE"
  },
  {
   "name" : "_ZN7android8hardware4wifi4V1_312BpHwWifiChip14removeNanIfaceERKNS0_11hidl_stringENSt3__18functionIFvRKNS1_4V1_010WifiStatusEEEE"
  },
  {
   "name" : "_ZN7android8hardware4wifi4V1_312BpHwWifiChip14removeP2pIfaceERKNS0_11hidl_stringENSt3__18functionIFvRKNS1_4V1_010WifiStatusEEEE"
  },
  {
   "name" : "_ZN7android8hardware4wifi4V1_312BpHwWifiChip14removeStaIfaceERKNS0_11hidl_stringENSt3__18functionIFvRKNS1_4V1_010WifiStatusEEEE"
  },
  {
   "name" : "_ZN7android8hardware4wifi4V1_312BpHwWifiChip14setLatencyModeENS2_9IWifiChip11LatencyModeENSt3__18functionIFvRKNS1_4V1_010WifiStatusEEEE"
  },
  {
   "name" : "_ZN7android8hardware4wifi4V1_312BpHwWifiChip15getApIfaceNamesENSt3__18functionIFvRKNS1_4V1_010WifiStatusERKNS0_8hidl_vecINS0_11hidl_stringEEEEEE"
  },
  {
   "name" : "_ZN7android8hardware4wifi4V1_312BpHwWifiChip15getCapabilitiesENSt3__18functionIFvRKNS1_4V1_010WifiStatusEjEEE"
  },
  {
   "name" : "_ZN7android8hardware4wifi4V1_312BpHwWifiChip16getNanIfaceNamesENSt3__18functionIFvRKNS1_4V1_010WifiStatusERKNS0_8hidl_vecINS0_11hidl_stringEEEEEE"
  },
  {
   "name" : "_ZN7android8hardware4wifi4V1_312BpHwWifiChip16getP2pIfaceNamesENSt3__18functionIFvRKNS1_4V1_010WifiStatusERKNS0_8hidl_vecINS0_11hidl_stringEEEEEE"
  },
  {
   "name" : "_ZN7android8hardware4wifi4V1_312BpHwWifiChip16getStaIfaceNamesENSt3__18functionIFvRKNS1_4V1_010WifiStatusERKNS0_8hidl_vecINS0_11hidl_stringEEEEEE"
  },
  {
   "name" : "_ZN7android8hardware4wifi4V1_312BpHwWifiChip17getAvailableModesENSt3__18functionIFvRKNS1_4V1_010WifiStatusERKNS0_8hidl_vecINS6_9IWifiChip8ChipModeEEEEEE"
  },
  {
   "name" : "_ZN7android8hardware4wifi4V1_312BpHwWifiChip19createRttControllerERKNS_2spINS1_4V1_010IWifiIfaceEEENSt3__18functionIFvRKNS5_10WifiStatusERKNS4_INS5_18IWifiRttControllerEEEEEE"
  },
  {
   "name" : "_ZN7android8hardware4wifi4V1_312BpHwWifiChip19getCapabilities_1_3ENSt3__18functionIFvRKNS1_4V1_010WifiStatusEjEEE"
  },
  {
   "name" : "_ZN7android8hardware4wifi4V1_312BpHwWifiChip19interfaceDescriptorENSt3__18functionIFvRKNS0_11hidl_stringEEEE"
  },
  {
   "name" : "_ZN7android8hardware4wifi4V1_312BpHwWifiChip20_hidl_setLatencyModeEPNS0_10IInterfaceEPNS0_7details16HidlInstrumentorENS2_9IWifiChip11LatencyModeENSt3__18functionIFvRKNS1_4V1_010WifiStatusEEEE"
  },
  {
   "name" : "_ZN7android8hardware4wifi4V1_312BpHwWifiChip20requestChipDebugInfoENSt3__18functionIFvRKNS1_4V1_010WifiStatusERKNS6_9IWifiChip13ChipDebugInfoEEEE"
  },
  {
   "name" : "_ZN7android8hardware4wifi4V1_312BpHwWifiChip20resetTxPowerScenarioENSt3__18functionIFvRKNS1_4V1_010WifiStatusEEEE"
  },
  {
   "name" : "_ZN7android8hardware4wifi4V1_312BpHwWifiChip21flushRingBufferToFileENSt3__18functionIFvRKNS1_4V1_010WifiStatusEEEE"
  },
  {
   "name" : "_ZN7android8hardware4wifi4V1_312BpHwWifiChip21notifySyspropsChangedEv"
  },
  {
   "name" : "_ZN7android8hardware4wifi4V1_312BpHwWifiChip21registerEventCallbackERKNS_2spINS1_4V1_022IWifiChipEventCallbackEEENSt3__18functionIFvRKNS5_10WifiStatusEEEE"
  },
  {
   "name" : "_ZN7android8hardware4wifi4V1_312BpHwWifiChip21selectTxPowerScenarioENS1_4V1_19IWifiChip15TxPowerScenarioENSt3__18functionIFvRKNS1_4V1_010WifiStatusEEEE"
  },
  {
   "name" : "_ZN7android8hardware4wifi4V1_312BpHwWifiChip21setHALInstrumentationEv"
  },
  {
   "name" : "_ZN7android8hardware4wifi4V1_312BpHwWifiChip22enableDebugErrorAlertsEbNSt3__18functionIFvRKNS1_4V1_010WifiStatusEEEE"
  },
  {
   "name" : "_ZN7android8hardware4wifi4V1_312BpHwWifiChip22requestDriverDebugDumpENSt3__18functionIFvRKNS1_4V1_010WifiStatusERKNS0_8hidl_vecIhEEEEE"
  },
  {
   "name" : "_ZN7android8hardware4wifi4V1_312BpHwWifiChip24requestFirmwareDebugDumpENSt3__18functionIFvRKNS1_4V1_010WifiStatusERKNS0_8hidl_vecIhEEEEE"
  },
  {
   "name" : "_ZN7android8hardware4wifi4V1_312BpHwWifiChip25_hidl_getCapabilities_1_3EPNS0_10IInterfaceEPNS0_7details16HidlInstrumentorENSt3__18functionIFvRKNS1_4V1_010WifiStatusEjEEE"
  },
  {
   "name" : "_ZN7android8hardware4wifi4V1_312BpHwWifiChip25getDebugRingBuffersStatusENSt3__18functionIFvRKNS1_4V1_010WifiStatusERKNS0_8hidl_vecINS6_25WifiDebugRingBufferStatusEEEEEE"
  },
  {
   "name" : "_ZN7android8hardware4wifi4V1_312BpHwWifiChip25registerEventCallback_1_2ERKNS_2spINS1_4V1_222IWifiChipEventCallbackEEENSt3__18functionIFvRKNS1_4V1_010WifiStatusEEEE"
  },
  {
   "name" : "_ZN7android8hardware4wifi4V1_312BpHwWifiChip25selectTxPowerScenario_1_2ENS1_4V1_29IWifiChip15TxPowerScenarioENSt3__18functionIFvRKNS1_4V1_010WifiStatusEEEE"
  },
  {
   "name" : "_ZN7android8hardware4wifi4V1_312BpHwWifiChip26forceDumpToDebugRingBufferERKNS0_11hidl_stringENSt3__18functionIFvRKNS1_4V1_010WifiStatusEEEE"
  },
  {
   "name" : "_ZN7android8hardware4wifi4V1_312BpHwWifiChip27_hidl_flushRingBufferToFileEPNS0_10IInterfaceEPNS0_7details16HidlInstrumentorENSt3__18functionIFvRKNS1_4V1_010WifiStatusEEEE"
  },
  {
   "name" : "_ZN7android8hardware4wifi4V1_312BpHwWifiChip27getDebugHostWakeReasonStatsENSt3__18functionIFvRKNS1_4V1_010WifiStatusERKNS6_28WifiDebugHostWakeReasonStatsEEEE"
  },
  {
   "name" : "_ZN7android8hardware4wifi4V1_312BpHwWifiChip28stopLoggingToDebugRingBufferENSt3__18functionIFvRKNS1_4V1_010WifiStatusEEEE"
  },
  {
   "name" : "_ZN7android8hardware4wifi4V1_312BpHwWifiChip29startLoggingToDebugRingBufferERKNS0_11hidl_stringENS1_4V1_031WifiDebugRingBufferVerboseLevelEjjNSt3__18functionIFvRKNS7_10WifiStatusEEEE"
  },
  {
   "name" : "_ZN7android8hardware4wifi4V1_312BpHwWifiChip4pingEv"
  },
  {
   "name" : "_ZN7android8hardware4wifi4V1_312BpHwWifiChip5debugERKNS0_11hidl_handleERKNS0_8hidl_vecINS0_11hidl_stringEEE"
  },
  {
   "name" : "_ZN7android8hardware4wifi4V1_312BpHwWifiChip5getIdENSt3__18functionIFvRKNS1_4V1_010WifiStatusEjEEE"
  },
  {
   "name" : "_ZN7android8hardware4wifi4V1_312BpHwWifiChip7getModeENSt3__18functionIFvRKNS1_4V1_010WifiStatusEjEEE"
  },
  {
   "name" : "_ZN7android8hardware4wifi4V1_312BpHwWifiChipC1ERKNS_2spINS0_7IBinderEEE"
  },
  {
   "name" : "_ZN7android8hardware4wifi4V1_312BpHwWifiChipC2ERKNS_2spINS0_7IBinderEEE"
  },
  {
   "name" : "_ZN7android8hardware4wifi4V1_313IWifiStaIface10getServiceERKNSt3__112basic_stringIcNS4_11char_traitsIcEENS4_9allocatorIcEEEEb"
  },
  {
   "name" : "_ZN7android8hardware4wifi4V1_313IWifiStaIface11linkToDeathERKNS_2spINS0_20hidl_death_recipientEEEm"
  },
  {
   "name" : "_ZN7android8hardware4wifi4V1_313IWifiStaIface12getDebugInfoENSt3__18functionIFvRKNS_4hidl4base4V1_09DebugInfoEEEE"
  },
  {
   "name" : "_ZN7android8hardware4wifi4V1_313IWifiStaIface12getHashChainENSt3__18functionIFvRKNS0_8hidl_vecINS0_10hidl_arrayIhLm32EJEEEEEEEE"
  },
  {
   "name" : "_ZN7android8hardware4wifi4V1_313IWifiStaIface13tryGetServiceERKNSt3__112basic_stringIcNS4_11char_traitsIcEENS4_9allocatorIcEEEEb"
  },
  {
   "name" : "_ZN7android8hardware4wifi4V1_313IWifiStaIface13unlinkToDeathERKNS_2spINS0_20hidl_death_recipientEEE"
  },
  {
   "name" : "_ZN7android8hardware4wifi4V1_313IWifiStaIface14interfaceChainENSt3__18functionIFvRKNS0_8hidl_vecINS0_11hidl_stringEEEEEE"
  },
  {
   "name" : "_ZN7android8hardware4wifi4V1_313IWifiStaIface17registerAsServiceERKNSt3__112basic_stringIcNS4_11char_traitsIcEENS4_9allocatorIcEEEE"
  },
  {
   "name" : "_ZN7android8hardware4wifi4V1_313IWifiStaIface19interfaceDescriptorENSt3__18functionIFvRKNS0_11hidl_stringEEEE"
  },
  {
   "name" : "_ZN7android8hardware4wifi4V1_313IWifiStaIface21notifySyspropsChangedEv"
  },
  {
   "name" : "_ZN7android8hardware4wifi4V1_313IWifiStaIface21setHALInstrumentationEv"
  },
  {
   "name" : "_ZN7android8hardware4wifi4V1_313IWifiStaIface24registerForNotificationsERKNSt3__112basic_stringIcNS4_11char_traitsIcEENS4_9allocatorIcEEEERKNS_2spINS_4hidl7manager4V1_020IServiceNotificationEEE"
  },
  {
   "name" : "_ZN7android8hardware4wifi4V1_313IWifiStaIface4pingEv"
  },
  {
   "name" : "_ZN7android8hardware4wifi4V1_313IWifiStaIface5debugERKNS0_11hidl_handleERKNS0_8hidl_vecINS0_11hidl_stringEEE"
  },
  {
   "name" : "_ZN7android8hardware4wifi4V1_313IWifiStaIface8castFromERKNS_2spINS1_4V1_010IWifiIfaceEEEb"
  },
  {
   "name" : "_ZN7android8hardware4wifi4V1_313IWifiStaIface8castFromERKNS_2spINS1_4V1_013IWifiStaIfaceEEEb"
  },
  {
   "name" : "_ZN7android8hardware4wifi4V1_313IWifiStaIface8castFromERKNS_2spINS1_4V1_213IWifiStaIfaceEEEb"
  },
  {
   "name" : "_ZN7android8hardware4wifi4V1_313IWifiStaIface8castFromERKNS_2spINS_4hidl4base4V1_05IBaseEEEb"
  },
  {
   "name" : "_ZN7android8hardware4wifi4V1_313IWifiStaIface8castFromERKNS_2spIS3_EEb"
  },
  {
   "name" : "_ZN7android8hardware4wifi4V1_314BsWifiStaIface13addOnewayTaskENSt3__18functionIFvvEEE"
  },
  {
   "name" : "_ZN7android8hardware4wifi4V1_314BsWifiStaIfaceC1ENS_2spINS2_13IWifiStaIfaceEEE"
  },
  {
   "name" : "_ZN7android8hardware4wifi4V1_314BsWifiStaIfaceC2ENS_2spINS2_13IWifiStaIfaceEEE"
  },
  {
   "name" : "_ZN7android8hardware4wifi4V1_316BnHwWifiStaIface10onTransactEjRKNS0_6ParcelEPS4_jNSt3__18functionIFvRS4_EEE"
  },
  {
   "name" : "_ZN7android8hardware4wifi4V1_316BnHwWifiStaIface12getDebugInfoENSt3__18functionIFvRKNS_4hidl4base4V1_09DebugInfoEEEE"
  },
  {
   "name" : "_ZN7android8hardware4wifi4V1_316BnHwWifiStaIface26_hidl_getFactoryMacAddressEPNS_4hidl4base4V1_08BnHwBaseERKNS0_6ParcelEPS9_NSt3__18functionIFvRS9_EEE"
  },
  {
   "name" : "_ZN7android8hardware4wifi4V1_316BnHwWifiStaIface27_hidl_getLinkLayerStats_1_3EPNS_4hidl4base4V1_08BnHwBaseERKNS0_6ParcelEPS9_NSt3__18functionIFvRS9_EEE"
  },
  {
   "name" : "_ZN7android8hardware4wifi4V1_316BnHwWifiStaIface4pingEv"
  },
  {
   "name" : "_ZN7android8hardware4wifi4V1_316BnHwWifiStaIfaceC1ERKNS_2spINS2_13IWifiStaIfaceEEE"
  },
  {
   "name" : "_ZN7android8hardware4wifi4V1_316BnHwWifiStaIfaceC2ERKNS_2spINS2_13IWifiStaIfaceEEE"
  },
  {
   "name" : "_ZN7android8hardware4wifi4V1_316BnHwWifiStaIfaceD0Ev"
  },
  {
   "name" : "_ZN7android8hardware4wifi4V1_316BnHwWifiStaIfaceD1Ev"
  },
  {
   "name" : "_ZN7android8hardware4wifi4V1_316BnHwWifiStaIfaceD2Ev"
  },
  {
   "name" : "_ZN7android8hardware4wifi4V1_316BpHwWifiStaIface11linkToDeathERKNS_2spINS0_20hidl_death_recipientEEEm"
  },
  {
   "name" : "_ZN7android8hardware4wifi4V1_316BpHwWifiStaIface12getDebugInfoENSt3__18functionIFvRKNS_4hidl4base4V1_09DebugInfoEEEE"
  },
  {
   "name" : "_ZN7android8hardware4wifi4V1_316BpHwWifiStaIface12getHashChainENSt3__18functionIFvRKNS0_8hidl_vecINS0_10hidl_arrayIhLm32EJEEEEEEEE"
  },
  {
   "name" : "_ZN7android8hardware4wifi4V1_316BpHwWifiStaIface13setMacAddressERKNS0_10hidl_arrayIhLm6EJEEENSt3__18functionIFvRKNS1_4V1_010WifiStatusEEEE"
  },
  {
   "name" : "_ZN7android8hardware4wifi4V1_316BpHwWifiStaIface13unlinkToDeathERKNS_2spINS0_20hidl_death_recipientEEE"
  },
  {
   "name" : "_ZN7android8hardware4wifi4V1_316BpHwWifiStaIface14interfaceChainENSt3__18functionIFvRKNS0_8hidl_vecINS0_11hidl_stringEEEEEE"
  },
  {
   "name" : "_ZN7android8hardware4wifi4V1_316BpHwWifiStaIface15enableNdOffloadEbNSt3__18functionIFvRKNS1_4V1_010WifiStatusEEEE"
  },
  {
   "name" : "_ZN7android8hardware4wifi4V1_316BpHwWifiStaIface15getCapabilitiesENSt3__18functionIFvRKNS1_4V1_010WifiStatusEjEEE"
  },
  {
   "name" : "_ZN7android8hardware4wifi4V1_316BpHwWifiStaIface15setRoamingStateENS1_4V1_015StaRoamingStateENSt3__18functionIFvRKNS4_10WifiStatusEEEE"
  },
  {
   "name" : "_ZN7android8hardware4wifi4V1_316BpHwWifiStaIface16configureRoamingERKNS1_4V1_016StaRoamingConfigENSt3__18functionIFvRKNS4_10WifiStatusEEEE"
  },
  {
   "name" : "_ZN7android8hardware4wifi4V1_316BpHwWifiStaIface17getLinkLayerStatsENSt3__18functionIFvRKNS1_4V1_010WifiStatusERKNS6_17StaLinkLayerStatsEEEE"
  },
  {
   "name" : "_ZN7android8hardware4wifi4V1_316BpHwWifiStaIface17setScanningMacOuiERKNS0_10hidl_arrayIhLm3EJEEENSt3__18functionIFvRKNS1_4V1_010WifiStatusEEEE"
  },
  {
   "name" : "_ZN7android8hardware4wifi4V1_316BpHwWifiStaIface18stopBackgroundScanEjNSt3__18functionIFvRKNS1_4V1_010WifiStatusEEEE"
  },
  {
   "name" : "_ZN7android8hardware4wifi4V1_316BpHwWifiStaIface18stopRssiMonitoringEjNSt3__18functionIFvRKNS1_4V1_010WifiStatusEEEE"
  },
  {
   "name" : "_ZN7android8hardware4wifi4V1_316BpHwWifiStaIface19interfaceDescriptorENSt3__18functionIFvRKNS0_11hidl_stringEEEE"
  },
  {
   "name" : "_ZN7android8hardware4wifi4V1_316BpHwWifiStaIface19startBackgroundScanEjRKNS1_4V1_027StaBackgroundScanParametersENSt3__18functionIFvRKNS4_10WifiStatusEEEE"
  },
  {
   "name" : "_ZN7android8hardware4wifi4V1_316BpHwWifiStaIface19startRssiMonitoringEjiiNSt3__18functionIFvRKNS1_4V1_010WifiStatusEEEE"
  },
  {
   "name" : "_ZN7android8hardware4wifi4V1_316BpHwWifiStaIface20getFactoryMacAddressENSt3__18functionIFvRKNS1_4V1_010WifiStatusERKNS0_10hidl_arrayIhLm6EJEEEEEE"
  },
  {
   "name" : "_ZN7android8hardware4wifi4V1_316BpHwWifiStaIface21getDebugRxPacketFatesENSt3__18functionIFvRKNS1_4V1_010WifiStatusERKNS0_8hidl_vecINS6_27WifiDebugRxPacketFateReportEEEEEE"
  },
  {
   "name" : "_ZN7android8hardware4wifi4V1_316BpHwWifiStaIface21getDebugTxPacketFatesENSt3__18functionIFvRKNS1_4V1_010WifiStatusERKNS0_8hidl_vecINS6_27WifiDebugTxPacketFateReportEEEEEE"
  },
  {
   "name" : "_ZN7android8hardware4wifi4V1_316BpHwWifiStaIface21getLinkLayerStats_1_3ENSt3__18functionIFvRKNS1_4V1_010WifiStatusERKNS2_17StaLinkLayerStatsEEEE"
  },
  {
   "name" : "_ZN7android8hardware4wifi4V1_316BpHwWifiStaIface21notifySyspropsChangedEv"
  },
  {
   "name" : "_ZN7android8hardware4wifi4V1_316BpHwWifiStaIface21registerEventCallbackERKNS_2spINS1_4V1_026IWifiStaIfaceEventCallbackEEENSt3__18functionIFvRKNS5_10WifiStatusEEEE"
  },
  {
   "name" : "_ZN7android8hardware4wifi4V1_316BpHwWifiStaIface21setHALInstrumentationEv"
  },
  {
   "name" : "_ZN7android8hardware4wifi4V1_316BpHwWifiStaIface22getRoamingCapabilitiesENSt3__18functionIFvRKNS1_4V1_010WifiStatusERKNS6_22StaRoamingCapabilitiesEEEE"
  },
  {
   "name" : "_ZN7android8hardware4wifi4V1_316BpHwWifiStaIface22installApfPacketFilterEjRKNS0_8hidl_vecIhEENSt3__18functionIFvRKNS1_4V1_010WifiStatusEEEE"
  },
  {
   "name" : "_ZN7android8hardware4wifi4V1_316BpHwWifiStaIface23readApfPacketFilterDataENSt3__18functionIFvRKNS1_4V1_010WifiStatusERKNS0_8hidl_vecIhEEEEE"
  },
  {
   "name" : "_ZN7android8hardware4wifi4V1_316BpHwWifiStaIface26_hidl_getFactoryMacAddressEPNS0_10IInterfaceEPNS0_7details16HidlInstrumentorENSt3__18functionIFvRKNS1_4V1_010WifiStatusERKNS0_10hidl_arrayIhLm6EJEEEEEE"
  },
  {
   "name" : "_ZN7android8hardware4wifi4V1_316BpHwWifiStaIface26getValidFrequenciesForBandENS1_4V1_08WifiBandENSt3__18functionIFvRKNS4_10WifiStatusERKNS0_8hidl_vecIjEEEEE"
  },
  {
   "name" : "_ZN7android8hardware4wifi4V1_316BpHwWifiStaIface27_hidl_getLinkLayerStats_1_3EPNS0_10IInterfaceEPNS0_7details16HidlInstrumentorENSt3__18functionIFvRKNS1_4V1_010WifiStatusERKNS2_17StaLinkLayerStatsEEEE"
  },
  {
   "name" : "_ZN7android8hardware4wifi4V1_316BpHwWifiStaIface27stopSendingKeepAlivePacketsEjNSt3__18functionIFvRKNS1_4V1_010WifiStatusEEEE"
  },
  {
   "name" : "_ZN7android8hardware4wifi4V1_316BpHwWifiStaIface28startSendingKeepAlivePacketsEjRKNS0_8hidl_vecIhEEtRKNS0_10hidl_arrayIhLm6EJEEESB_jNSt3__18functionIFvRKNS1_4V1_010WifiStatusEEEE"
  },
  {
   "name" : "_ZN7android8hardware4wifi4V1_316BpHwWifiStaIface29getBackgroundScanCapabilitiesENSt3__18functionIFvRKNS1_4V1_010WifiStatusERKNS6_29StaBackgroundScanCapabilitiesEEEE"
  },
  {
   "name" : "_ZN7android8hardware4wifi4V1_316BpHwWifiStaIface30enableLinkLayerStatsCollectionEbNSt3__18functionIFvRKNS1_4V1_010WifiStatusEEEE"
  },
  {
   "name" : "_ZN7android8hardware4wifi4V1_316BpHwWifiStaIface30getApfPacketFilterCapabilitiesENSt3__18functionIFvRKNS1_4V1_010WifiStatusERKNS6_30StaApfPacketFilterCapabilitiesEEEE"
  },
  {
   "name" : "_ZN7android8hardware4wifi4V1_316BpHwWifiStaIface30startDebugPacketFateMonitoringENSt3__18functionIFvRKNS1_4V1_010WifiStatusEEEE"
  },
  {
   "name" : "_ZN7android8hardware4wifi4V1_316BpHwWifiStaIface31disableLinkLayerStatsCollectionENSt3__18functionIFvRKNS1_4V1_010WifiStatusEEEE"
  },
  {
   "name" : "_ZN7android8hardware4wifi4V1_316BpHwWifiStaIface4pingEv"
  },
  {
   "name" : "_ZN7android8hardware4wifi4V1_316BpHwWifiStaIface5debugERKNS0_11hidl_handleERKNS0_8hidl_vecINS0_11hidl_stringEEE"
  },
  {
   "name" : "_ZN7android8hardware4wifi4V1_316BpHwWifiStaIface7getNameENSt3__18functionIFvRKNS1_4V1_010WifiStatusERKNS0_11hidl_stringEEEE"
  },
  {
   "name" : "_ZN7android8hardware4wifi4V1_316BpHwWifiStaIface7getTypeENSt3__18functionIFvRKNS1_4V1_010WifiStatusENS6_9IfaceTypeEEEE"
  },
  {
   "name" : "_ZN7android8hardware4wifi4V1_316BpHwWifiStaIfaceC1ERKNS_2spINS0_7IBinderEEE"
  },
  {
   "name" : "_ZN7android8hardware4wifi4V1_316BpHwWifiStaIfaceC2ERKNS_2spINS0_7IBinderEEE"
  },
  {
   "name" : "_ZN7android8hardware4wifi4V1_321writeEmbeddedToParcelERKNS2_17StaLinkLayerStatsEPNS0_6ParcelEmm"
  },
  {
   "name" : "_ZN7android8hardware4wifi4V1_321writeEmbeddedToParcelERKNS2_22StaLinkLayerRadioStatsEPNS0_6ParcelEmm"
  },
  {
   "name" : "_ZN7android8hardware4wifi4V1_322readEmbeddedFromParcelERKNS2_17StaLinkLayerStatsERKNS0_6ParcelEmm"
  },
  {
   "name" : "_ZN7android8hardware4wifi4V1_322readEmbeddedFromParcelERKNS2_22StaLinkLayerRadioStatsERKNS0_6ParcelEmm"
  },
  {
   "name" : "_ZN7android8hardware4wifi4V1_35IWifi10getServiceERKNSt3__112basic_stringIcNS4_11char_traitsIcEENS4_9allocatorIcEEEEb"
  },
  {
   "name" : "_ZN7android8hardware4wifi4V1_35IWifi11linkToDeathERKNS_2spINS0_20hidl_death_recipientEEEm"
  },
  {
   "name" : "_ZN7android8hardware4wifi4V1_35IWifi12getDebugInfoENSt3__18functionIFvRKNS_4hidl4base4V1_09DebugInfoEEEE"
  },
  {
   "name" : "_ZN7android8hardware4wifi4V1_35IWifi12getHashChainENSt3__18functionIFvRKNS0_8hidl_vecINS0_10hidl_arrayIhLm32EJEEEEEEEE"
  },
  {
   "name" : "_ZN7android8hardware4wifi4V1_35IWifi13tryGetServiceERKNSt3__112basic_stringIcNS4_11char_traitsIcEENS4_9allocatorIcEEEEb"
  },
  {
   "name" : "_ZN7android8hardware4wifi4V1_35IWifi13unlinkToDeathERKNS_2spINS0_20hidl_death_recipientEEE"
  },
  {
   "name" : "_ZN7android8hardware4wifi4V1_35IWifi14interfaceChainENSt3__18functionIFvRKNS0_8hidl_vecINS0_11hidl_stringEEEEEE"
  },
  {
   "name" : "_ZN7android8hardware4wifi4V1_35IWifi17registerAsServiceERKNSt3__112basic_stringIcNS4_11char_traitsIcEENS4_9allocatorIcEEEE"
  },
  {
   "name" : "_ZN7android8hardware4wifi4V1_35IWifi19interfaceDescriptorENSt3__18functionIFvRKNS0_11hidl_stringEEEE"
  },
  {
   "name" : "_ZN7android8hardware4wifi4V1_35IWifi21notifySyspropsChangedEv"
  },
  {
   "name" : "_ZN7android8hardware4wifi4V1_35IWifi21setHALInstrumentationEv"
  },
  {
   "name" : "_ZN7android8hardware4wifi4V1_35IWifi24registerForNotificationsERKNSt3__112basic_stringIcNS4_11char_traitsIcEENS4_9allocatorIcEEEERKNS_2spINS_4hidl7manager4V1_020IServiceNotificationEEE"
  },
  {
   "name" : "_ZN7android8hardware4wifi4V1_35IWifi4pingEv"
  },
  {
   "name" : "_ZN7android8hardware4wifi4V1_35IWifi5debugERKNS0_11hidl_handleERKNS0_8hidl_vecINS0_11hidl_stringEEE"
  },
  {
   "name" : "_ZN7android8hardware4wifi4V1_35IWifi8castFromERKNS_2spINS1_4V1_05IWifiEEEb"
  },
  {
   "name" : "_ZN7android8hardware4wifi4V1_35IWifi8castFromERKNS_2spINS1_4V1_15IWifiEEEb"
  },
  {
   "name" : "_ZN7android8hardware4wifi4V1_35IWifi8castFromERKNS_2spINS1_4V1_25IWifiEEEb"
  },
  {
   "name" : "_ZN7android8hardware4wifi4V1_35IWifi8castFromERKNS_2spINS_4hidl4base4V1_05IBaseEEEb"
  },
  {
   "name" : "_ZN7android8hardware4wifi4V1_35IWifi8castFromERKNS_2spIS3_EEb"
  },
  {
   "name" : "_ZN7android8hardware4wifi4V1_36BsWifi13addOnewayTaskENSt3__18functionIFvvEEE"
  },
  {
   "name" : "_ZN7android8hardware4wifi4V1_36BsWifiC1ENS_2spINS2_5IWifiEEE"
  },
  {
   "name" : "_ZN7android8hardware4wifi4V1_36BsWifiC2ENS_2spINS2_5IWifiEEE"
  },
  {
   "name" : "_ZN7android8hardware4wifi4V1_38BnHwWifi10onTransactEjRKNS0_6ParcelEPS4_jNSt3__18functionIFvRS4_EEE"
  },
  {
   "name" : "_ZN7android8hardware4wifi4V1_38BnHwWifi12getDebugInfoENSt3__18functionIFvRKNS_4hidl4base4V1_09DebugInfoEEEE"
  },
  {
   "name" : "_ZN7android8hardware4wifi4V1_38BnHwWifi4pingEv"
  },
  {
   "name" : "_ZN7android8hardware4wifi4V1_38BnHwWifiC1ERKNS_2spINS2_5IWifiEEE"
  },
  {
   "name" : "_ZN7android8hardware4wifi4V1_38BnHwWifiC2ERKNS_2spINS2_5IWifiEEE"
  },
  {
   "name" : "_ZN7android8hardware4wifi4V1_38BnHwWifiD0Ev"
  },
  {
   "name" : "_ZN7android8hardware4wifi4V1_38BnHwWifiD1Ev"
  },
  {
   "name" : "_ZN7android8hardware4wifi4V1_38BnHwWifiD2Ev"
  },
  {
   "name" : "_ZN7android8hardware4wifi4V1_38BpHwWifi10getChipIdsENSt3__18functionIFvRKNS1_4V1_010WifiStatusERKNS0_8hidl_vecIjEEEEE"
  },
  {
   "name" : "_ZN7android8hardware4wifi4V1_38BpHwWifi11linkToDeathERKNS_2spINS0_20hidl_death_recipientEEEm"
  },
  {
   "name" : "_ZN7android8hardware4wifi4V1_38BpHwWifi12getDebugInfoENSt3__18functionIFvRKNS_4hidl4base4V1_09DebugInfoEEEE"
  },
  {
   "name" : "_ZN7android8hardware4wifi4V1_38BpHwWifi12getHashChainENSt3__18functionIFvRKNS0_8hidl_vecINS0_10hidl_arrayIhLm32EJEEEEEEEE"
  },
  {
   "name" : "_ZN7android8hardware4wifi4V1_38BpHwWifi13unlinkToDeathERKNS_2spINS0_20hidl_death_recipientEEE"
  },
  {
   "name" : "_ZN7android8hardware4wifi4V1_38BpHwWifi14interfaceChainENSt3__18functionIFvRKNS0_8hidl_vecINS0_11hidl_stringEEEEEE"
  },
  {
   "name" : "_ZN7android8hardware4wifi4V1_38BpHwWifi19interfaceDescriptorENSt3__18functionIFvRKNS0_11hidl_stringEEEE"
  },
  {
   "name" : "_ZN7android8hardware4wifi4V1_38BpHwWifi21notifySyspropsChangedEv"
  },
  {
   "name" : "_ZN7android8hardware4wifi4V1_38BpHwWifi21registerEventCallbackERKNS_2spINS1_4V1_018IWifiEventCallbackEEENSt3__18functionIFvRKNS5_10WifiStatusEEEE"
  },
  {
   "name" : "_ZN7android8hardware4wifi4V1_38BpHwWifi21setHALInstrumentationEv"
  },
  {
   "name" : "_ZN7android8hardware4wifi4V1_38BpHwWifi4pingEv"
  },
  {
   "name" : "_ZN7android8hardware4wifi4V1_38BpHwWifi4stopENSt3__18functionIFvRKNS1_4V1_010WifiStatusEEEE"
  },
  {
   "name" : "_ZN7android8hardware4wifi4V1_38BpHwWifi5debugERKNS0_11hidl_handleERKNS0_8hidl_vecINS0_11hidl_stringEEE"
  },
  {
   "name" : "_ZN7android8hardware4wifi4V1_38BpHwWifi5startENSt3__18functionIFvRKNS1_4V1_010WifiStatusEEEE"
  },
  {
   "name" : "_ZN7android8hardware4wifi4V1_38BpHwWifi7getChipEjNSt3__18functionIFvRKNS1_4V1_010WifiStatusERKNS_2spINS6_9IWifiChipEEEEEE"
  },
  {
   "name" : "_ZN7android8hardware4wifi4V1_38BpHwWifi9isStartedEv"
  },
  {
   "name" : "_ZN7android8hardware4wifi4V1_38BpHwWifiC1ERKNS_2spINS0_7IBinderEEE"
  },
  {
   "name" : "_ZN7android8hardware4wifi4V1_38BpHwWifiC2ERKNS_2spINS0_7IBinderEEE"
  },
  {
   "name" : "_ZN7android8hardware4wifi4V1_39IWifiChip10getServiceERKNSt3__112basic_stringIcNS4_11char_traitsIcEENS4_9allocatorIcEEEEb"
  },
  {
   "name" : "_ZN7android8hardware4wifi4V1_39IWifiChip11linkToDeathERKNS_2spINS0_20hidl_death_recipientEEEm"
  },
  {
   "name" : "_ZN7android8hardware4wifi4V1_39IWifiChip12getDebugInfoENSt3__18functionIFvRKNS_4hidl4base4V1_09DebugInfoEEEE"
  },
  {
   "name" : "_ZN7android8hardware4wifi4V1_39IWifiChip12getHashChainENSt3__18functionIFvRKNS0_8hidl_vecINS0_10hidl_arrayIhLm32EJEEEEEEEE"
  },
  {
   "name" : "_ZN7android8hardware4wifi4V1_39IWifiChip13tryGetServiceERKNSt3__112basic_stringIcNS4_11char_traitsIcEENS4_9allocatorIcEEEEb"
  },
  {
   "name" : "_ZN7android8hardware4wifi4V1_39IWifiChip13unlinkToDeathERKNS_2spINS0_20hidl_death_recipientEEE"
  },
  {
   "name" : "_ZN7android8hardware4wifi4V1_39IWifiChip14interfaceChainENSt3__18functionIFvRKNS0_8hidl_vecINS0_11hidl_stringEEEEEE"
  },
  {
   "name" : "_ZN7android8hardware4wifi4V1_39IWifiChip17registerAsServiceERKNSt3__112basic_stringIcNS4_11char_traitsIcEENS4_9allocatorIcEEEE"
  },
  {
   "name" : "_ZN7android8hardware4wifi4V1_39IWifiChip19interfaceDescriptorENSt3__18functionIFvRKNS0_11hidl_stringEEEE"
  },
  {
   "name" : "_ZN7android8hardware4wifi4V1_39IWifiChip21notifySyspropsChangedEv"
  },
  {
   "name" : "_ZN7android8hardware4wifi4V1_39IWifiChip21setHALInstrumentationEv"
  },
  {
   "name" : "_ZN7android8hardware4wifi4V1_39IWifiChip24registerForNotificationsERKNSt3__112basic_stringIcNS4_11char_traitsIcEENS4_9allocatorIcEEEERKNS_2spINS_4hidl7manager4V1_020IServiceNotificationEEE"
  },
  {
   "name" : "_ZN7android8hardware4wifi4V1_39IWifiChip4pingEv"
  },
  {
   "name" : "_ZN7android8hardware4wifi4V1_39IWifiChip5debugERKNS0_11hidl_handleERKNS0_8hidl_vecINS0_11hidl_stringEEE"
  },
  {
   "name" : "_ZN7android8hardware4wifi4V1_39IWifiChip8castFromERKNS_2spINS1_4V1_09IWifiChipEEEb"
  },
  {
   "name" : "_ZN7android8hardware4wifi4V1_39IWifiChip8castFromERKNS_2spINS1_4V1_19IWifiChipEEEb"
  },
  {
   "name" : "_ZN7android8hardware4wifi4V1_39IWifiChip8castFromERKNS_2spINS1_4V1_29IWifiChipEEEb"
  },
  {
   "name" : "_ZN7android8hardware4wifi4V1_39IWifiChip8castFromERKNS_2spINS_4hidl4base4V1_05IBaseEEEb"
  },
  {
   "name" : "_ZN7android8hardware4wifi4V1_39IWifiChip8castFromERKNS_2spIS3_EEb"
  },
  {
   "binding" : "weak",
   "name" : "_ZN7android8hardware7details13castInterfaceINS0_4wifi4V1_313IWifiStaIfaceENS3_4V1_010IWifiIfaceENS4_16BpHwWifiStaIfaceEEENS0_6ReturnINS_2spIT_EEEENSA_IT0_EEPKcb"
  },
  {
   "binding" : "weak",
   "name" : "_ZN7android8hardware7details13castInterfaceINS0_4wifi4V1_313IWifiStaIfaceENS3_4V1_013IWifiStaIfaceENS4_16BpHwWifiStaIfaceEEENS0_6ReturnINS_2spIT_EEEENSA_IT0_EEPKcb"
  },
  {
   "binding" : "weak",
   "name" : "_ZN7android8hardware7details13castInterfaceINS0_4wifi4V1_313IWifiStaIfaceENS3_4V1_213IWifiStaIfaceENS4_16BpHwWifiStaIfaceEEENS0_6ReturnINS_2spIT_EEEENSA_IT0_EEPKcb"
  },
  {
   "binding" : "weak",
   "name" : "_ZN7android8hardware7details13castInterfaceINS0_4wifi4V1_313IWifiStaIfaceENS_4hidl4base4V1_05IBaseENS4_16BpHwWifiStaIfaceEEENS0_6ReturnINS_2spIT_EEEENSC_IT0_EEPKcb"
  },
  {
   "binding" : "weak",
   "name" : "_ZN7android8hardware7details13castInterfaceINS0_4wifi4V1_35IWifiENS3_4V1_05IWifiENS4_8BpHwWifiEEENS0_6ReturnINS_2spIT_EEEENSA_IT0_EEPKcb"
  },
  {
   "binding" : "weak",
   "name" : "_ZN7android8hardware7details13castInterfaceINS0_4wifi4V1_35IWifiENS3_4V1_15IWifiENS4_8BpHwWifiEEENS0_6ReturnINS_2spIT_EEEENSA_IT0_EEPKcb"
  },
  {
   "binding" : "weak",
   "name" : "_ZN7android8hardware7details13castInterfaceINS0_4wifi4V1_35IWifiENS3_4V1_25IWifiENS4_8BpHwWifiEEENS0_6ReturnINS_2spIT_EEEENSA_IT0_EEPKcb"
  },
  {
   "binding" : "weak",
   "name" : "_ZN7android8hardware7details13castInterfaceINS0_4wifi4V1_35IWifiENS_4hidl4base4V1_05IBaseENS4_8BpHwWifiEEENS0_6ReturnINS_2spIT_EEEENSC_IT0_EEPKcb"
  },
  {
   "binding" : "weak",
   "name" : "_ZN7android8hardware7details13castInterfaceINS0_4wifi4V1_39IWifiChipENS3_4V1_09IWifiChipENS4_12BpHwWifiChipEEENS0_6ReturnINS_2spIT_EEEENSA_IT0_EEPKcb"
  },
  {
   "binding" : "weak",
   "name" : "_ZN7android8hardware7details13castInterfaceINS0_4wifi4V1_39IWifiChipENS3_4V1_19IWifiChipENS4_12BpHwWifiChipEEENS0_6ReturnINS_2spIT_EEEENSA_IT0_EEPKcb"
  },
  {
   "binding" : "weak",
   "name" : "_ZN7android8hardware7details13castInterfaceINS0_4wifi4V1_39IWifiChipENS3_4V1_29IWifiChipENS4_12BpHwWifiChipEEENS0_6ReturnINS_2spIT_EEEENSA_IT0_EEPKcb"
  },
  {
   "binding" : "weak",
   "name" : "_ZN7android8hardware7details13castInterfaceINS0_4wifi4V1_39IWifiChipENS_4hidl4base4V1_05IBaseENS4_12BpHwWifiChipEEENS0_6ReturnINS_2spIT_EEEENSC_IT0_EEPKcb"
  },
  {
   "binding" : "weak",
   "name" : "_ZN7android8hardware7details15wrapPassthroughINS0_4wifi4V1_010IWifiIfaceEvEENS_2spIT_EES8_"
  },
  {
   "binding" : "weak",
   "name" : "_ZN7android8hardware7details15wrapPassthroughINS0_4wifi4V1_012IWifiApIfaceEvEENS_2spIT_EES8_"
  },
  {
   "binding" : "weak",
   "name" : "_ZN7android8hardware7details15wrapPassthroughINS0_4wifi4V1_013IWifiNanIfaceEvEENS_2spIT_EES8_"
  },
  {
   "binding" : "weak",
   "name" : "_ZN7android8hardware7details15wrapPassthroughINS0_4wifi4V1_013IWifiP2pIfaceEvEENS_2spIT_EES8_"
  },
  {
   "binding" : "weak",
   "name" : "_ZN7android8hardware7details15wrapPassthroughINS0_4wifi4V1_013IWifiStaIfaceEvEENS_2spIT_EES8_"
  },
  {
   "binding" : "weak",
   "name" : "_ZN7android8hardware7details15wrapPassthroughINS0_4wifi4V1_018IWifiEventCallbackEvEENS_2spIT_EES8_"
  },
  {
   "binding" : "weak",
   "name" : "_ZN7android8hardware7details15wrapPassthroughINS0_4wifi4V1_018IWifiRttControllerEvEENS_2spIT_EES8_"
  },
  {
   "binding" : "weak",
   "name" : "_ZN7android8hardware7details15wrapPassthroughINS0_4wifi4V1_022IWifiChipEventCallbackEvEENS_2spIT_EES8_"
  },
  {
   "binding" : "weak",
   "name" : "_ZN7android8hardware7details15wrapPassthroughINS0_4wifi4V1_026IWifiStaIfaceEventCallbackEvEENS_2spIT_EES8_"
  },
  {
   "binding" : "weak",
   "name" : "_ZN7android8hardware7details15wrapPassthroughINS0_4wifi4V1_09IWifiChipEvEENS_2spIT_EES8_"
  },
  {
   "binding" : "weak",
   "name" : "_ZN7android8hardware7details15wrapPassthroughINS0_4wifi4V1_222IWifiChipEventCallbackEvEENS_2spIT_EES8_"
  },
  {
   "binding" : "weak",
   "name" : "_ZN7android8hardware7details18getServiceInternalINS0_4wifi4V1_312BpHwWifiChipENS4_9IWifiChipEvvEENS_2spIT0_EERKNSt3__112basic_stringIcNSA_11char_traitsIcEENSA_9allocatorIcEEEEbb"
  },
  {
   "binding" : "weak",
   "name" : "_ZN7android8hardware7details18getServiceInternalINS0_4wifi4V1_316BpHwWifiStaIfaceENS4_13IWifiStaIfaceEvvEENS_2spIT0_EERKNSt3__112basic_stringIcNSA_11char_traitsIcEENSA_9allocatorIcEEEEbb"
  },
  {
   "binding" : "weak",
   "name" : "_ZN7android8hardware7details18getServiceInternalINS0_4wifi4V1_38BpHwWifiENS4_5IWifiEvvEENS_2spIT0_EERKNSt3__112basic_stringIcNSA_11char_traitsIcEENSA_9allocatorIcEEEEbb"
  },
  {
   "binding" : "weak",
   "name" : "_ZNSt3__113__tree_removeIPNS_16__tree_node_baseIPvEEEEvT_S5_"
  },
  {
   "binding" : "weak",
   "name" : "_ZNSt3__127__tree_balance_after_insertIPNS_16__tree_node_baseIPvEEEEvT_S5_"
  },
  {
   "binding" : "weak",
   "name" : "_ZNSt3__16__treeINS_12__value_typeINS_12basic_stringIcNS_11char_traitsIcEENS_9allocatorIcEEEENS_8functionIFN7android2spINS9_4hidl4base4V1_05IBaseEEEPvEEEEENS_19__map_value_compareIS7_SJ_NS_4lessIS7_EELb1EEENS5_ISJ_EEE12__find_equalIS7_EERPNS_16__tree_node_baseISG_EERPNS_15__tree_end_nodeIST_EERKT_"
  },
  {
   "binding" : "weak",
   "name" : "_ZNSt3__16__treeINS_12__value_typeINS_12basic_stringIcNS_11char_traitsIcEENS_9allocatorIcEEEENS_8functionIFN7android2spINS9_4hidl4base4V1_05IBaseEEEPvEEEEENS_19__map_value_compareIS7_SJ_NS_4lessIS7_EELb1EEENS5_ISJ_EEE4findIS7_EENS_15__tree_iteratorISJ_PNS_11__tree_nodeISJ_SG_EElEERKT_"
  },
  {
   "binding" : "weak",
   "name" : "_ZNSt3__16__treeINS_12__value_typeINS_12basic_stringIcNS_11char_traitsIcEENS_9allocatorIcEEEENS_8functionIFN7android2spINS9_4hidl4base4V1_05IBaseEEEPvEEEEENS_19__map_value_compareIS7_SJ_NS_4lessIS7_EELb1EEENS5_ISJ_EEE5eraseENS_21__tree_const_iteratorISJ_PNS_11__tree_nodeISJ_SG_EElEE"
  },
  {
   "binding" : "weak",
   "name" : "_ZNSt3__16__treeINS_12__value_typeINS_12basic_stringIcNS_11char_traitsIcEENS_9allocatorIcEEEENS_8functionIFN7android2spINS9_8hardware7IBinderEEEPvEEEEENS_19__map_value_compareIS7_SH_NS_4lessIS7_EELb1EEENS5_ISH_EEE12__find_equalIS7_EERPNS_16__tree_node_baseISE_EERPNS_15__tree_end_nodeISR_EERKT_"
  },
  {
   "binding" : "weak",
   "name" : "_ZNSt3__16__treeINS_12__value_typeINS_12basic_stringIcNS_11char_traitsIcEENS_9allocatorIcEEEENS_8functionIFN7android2spINS9_8hardware7IBinderEEEPvEEEEENS_19__map_value_compareIS7_SH_NS_4lessIS7_EELb1EEENS5_ISH_EEE4findIS7_EENS_15__tree_iteratorISH_PNS_11__tree_nodeISH_SE_EElEERKT_"
  },
  {
   "binding" : "weak",
   "name" : "_ZNSt3__16__treeINS_12__value_typeINS_12basic_stringIcNS_11char_traitsIcEENS_9allocatorIcEEEENS_8functionIFN7android2spINS9_8hardware7IBinderEEEPvEEEEENS_19__map_value_compareIS7_SH_NS_4lessIS7_EELb1EEENS5_ISH_EEE5eraseENS_21__tree_const_iteratorISH_PNS_11__tree_nodeISH_SE_EElEE"
  },
  {
   "binding" : "weak",
   "name" : "_ZNSt3__16vectorIN7android2spINS1_8hardware27hidl_binder_death_recipientEEENS_9allocatorIS5_EEE21__push_back_slow_pathIS5_EEvOT_"
  },
  {
   "binding" : "weak",
   "name" : "_ZNSt3__16vectorINS_8functionIFvN7android8hardware7details16HidlInstrumentor20InstrumentationEventEPKcS8_S8_S8_PNS0_IPvNS_9allocatorIS9_EEEEEEENSA_ISF_EEEC2ERKSH_"
  },
  {
   "binding" : "weak",
   "name" : "_ZNSt3__16vectorIPvNS_9allocatorIS1_EEE21__push_back_slow_pathIS1_EEvOT_"
  },
  {
   "name" : "_ZThn32_N7android8hardware4wifi4V1_312BnHwWifiChipD0Ev"
  },
  {
   "name" : "_ZThn32_N7android8hardware4wifi4V1_312BnHwWifiChipD1Ev"
  },
  {
   "name" : "_ZThn32_N7android8hardware4wifi4V1_316BnHwWifiStaIfaceD0Ev"
  },
  {
   "name" : "_ZThn32_N7android8hardware4wifi4V1_316BnHwWifiStaIfaceD1Ev"
  },
  {
   "name" : "_ZThn32_N7android8hardware4wifi4V1_38BnHwWifiD0Ev"
  },
  {
   "name" : "_ZThn32_N7android8hardware4wifi4V1_38BnHwWifiD1Ev"
  },
  {
   "name" : "_ZTv0_n24_N7android8hardware4wifi4V1_312BnHwWifiChipD0Ev"
  },
  {
   "name" : "_ZTv0_n24_N7android8hardware4wifi4V1_312BnHwWifiChipD1Ev"
  },
  {
   "name" : "_ZTv0_n24_N7android8hardware4wifi4V1_316BnHwWifiStaIfaceD0Ev"
  },
  {
   "name" : "_ZTv0_n24_N7android8hardware4wifi4V1_316BnHwWifiStaIfaceD1Ev"
  },
  {
   "name" : "_ZTv0_n24_N7android8hardware4wifi4V1_38BnHwWifiD0Ev"
  },
  {
   "name" : "_ZTv0_n24_N7android8hardware4wifi4V1_38BnHwWifiD1Ev"
  }
 ],
 "elf_objects" :
 [
  {
   "name" : "_ZN7android8hardware4wifi4V1_313IWifiStaIface10descriptorE"
  },
  {
   "name" : "_ZN7android8hardware4wifi4V1_35IWifi10descriptorE"
  },
  {
   "name" : "_ZN7android8hardware4wifi4V1_39IWifiChip10descriptorE"
  },
  {
   "binding" : "weak",
   "name" : "_ZTCN7android8hardware4wifi4V1_310BsWifiChipE0_NS2_9IWifiChipE"
  },
  {
   "name" : "_ZTCN7android8hardware4wifi4V1_312BnHwWifiChipE0_NS0_7IBinderE"
  },
  {
   "name" : "_ZTCN7android8hardware4wifi4V1_312BnHwWifiChipE0_NS0_9BHwBinderE"
  },
  {
   "name" : "_ZTCN7android8hardware4wifi4V1_312BnHwWifiChipE0_NS_4hidl4base4V1_08BnHwBaseE"
  },
  {
   "name" : "_ZTCN7android8hardware4wifi4V1_312BpHwWifiChipE0_NS0_11BpInterfaceINS2_9IWifiChipEEE"
  },
  {
   "name" : "_ZTCN7android8hardware4wifi4V1_312BpHwWifiChipE0_NS1_4V1_09IWifiChipE"
  },
  {
   "name" : "_ZTCN7android8hardware4wifi4V1_312BpHwWifiChipE0_NS1_4V1_19IWifiChipE"
  },
  {
   "name" : "_ZTCN7android8hardware4wifi4V1_312BpHwWifiChipE0_NS1_4V1_29IWifiChipE"
  },
  {
   "name" : "_ZTCN7android8hardware4wifi4V1_312BpHwWifiChipE0_NS2_9IWifiChipE"
  },
  {
   "name" : "_ZTCN7android8hardware4wifi4V1_312BpHwWifiChipE0_NS_4hidl4base4V1_05IBaseE"
  },
  {
   "name" : "_ZTCN7android8hardware4wifi4V1_312BpHwWifiChipE16_NS0_11BpHwRefBaseE"
  },
  {
   "name" : "_ZTCN7android8hardware4wifi4V1_312BpHwWifiChipE8_NS0_10IInterfaceE"
  },
  {
   "name" : "_ZTCN7android8hardware4wifi4V1_313IWifiStaIfaceE0_NS1_4V1_010IWifiIfaceE"
  },
  {
   "name" : "_ZTCN7android8hardware4wifi4V1_313IWifiStaIfaceE0_NS1_4V1_013IWifiStaIfaceE"
  },
  {
   "name" : "_ZTCN7android8hardware4wifi4V1_313IWifiStaIfaceE0_NS1_4V1_213IWifiStaIfaceE"
  },
  {
   "name" : "_ZTCN7android8hardware4wifi4V1_313IWifiStaIfaceE0_NS_4hidl4base4V1_05IBaseE"
  },
  {
   "binding" : "weak",
   "name" : "_ZTCN7android8hardware4wifi4V1_314BsWifiStaIfaceE0_NS2_13IWifiStaIfaceE"
  },
  {
   "name" : "_ZTCN7android8hardware4wifi4V1_316BnHwWifiStaIfaceE0_NS0_7IBinderE"
  },
  {
   "name" : "_ZTCN7android8hardware4wifi4V1_316BnHwWifiStaIfaceE0_NS0_9BHwBinderE"
  },
  {
   "name" : "_ZTCN7android8hardware4wifi4V1_316BnHwWifiStaIfaceE0_NS_4hidl4base4V1_08BnHwBaseE"
  },
  {
   "name" : "_ZTCN7android8hardware4wifi4V1_316BpHwWifiStaIfaceE0_NS0_11BpInterfaceINS2_13IWifiStaIfaceEEE"
  },
  {
   "name" : "_ZTCN7android8hardware4wifi4V1_316BpHwWifiStaIfaceE0_NS1_4V1_010IWifiIfaceE"
  },
  {
   "name" : "_ZTCN7android8hardware4wifi4V1_316BpHwWifiStaIfaceE0_NS1_4V1_013IWifiStaIfaceE"
  },
  {
   "name" : "_ZTCN7android8hardware4wifi4V1_316BpHwWifiStaIfaceE0_NS1_4V1_213IWifiStaIfaceE"
  },
  {
   "name" : "_ZTCN7android8hardware4wifi4V1_316BpHwWifiStaIfaceE0_NS2_13IWifiStaIfaceE"
  },
  {
   "name" : "_ZTCN7android8hardware4wifi4V1_316BpHwWifiStaIfaceE0_NS_4hidl4base4V1_05IBaseE"
  },
  {
   "name" : "_ZTCN7android8hardware4wifi4V1_316BpHwWifiStaIfaceE16_NS0_11BpHwRefBaseE"
  },
  {
   "name" : "_ZTCN7android8hardware4wifi4V1_316BpHwWifiStaIfaceE8_NS0_10IInterfaceE"
  },
  {
   "name" : "_ZTCN7android8hardware4wifi4V1_35IWifiE0_NS1_4V1_05IWifiE"
  },
  {
   "name" : "_ZTCN7android8hardware4wifi4V1_35IWifiE0_NS1_4V1_15IWifiE"
  },
  {
   "name" : "_ZTCN7android8hardware4wifi4V1_35IWifiE0_NS1_4V1_25IWifiE"
  },
  {
   "name" : "_ZTCN7android8hardware4wifi4V1_35IWifiE0_NS_4hidl4base4V1_05IBaseE"
  },
  {
   "binding" : "weak",
   "name" : "_ZTCN7android8hardware4wifi4V1_36BsWifiE0_NS2_5IWifiE"
  },
  {
   "name" : "_ZTCN7android8hardware4wifi4V1_38BnHwWifiE0_NS0_7IBinderE"
  },
  {
   "name" : "_ZTCN7android8hardware4wifi4V1_38BnHwWifiE0_NS0_9BHwBinderE"
  },
  {
   "name" : "_ZTCN7android8hardware4wifi4V1_38BnHwWifiE0_NS_4hidl4base4V1_08BnHwBaseE"
  },
  {
   "name" : "_ZTCN7android8hardware4wifi4V1_38BpHwWifiE0_NS0_11BpInterfaceINS2_5IWifiEEE"
  },
  {
   "name" : "_ZTCN7android8hardware4wifi4V1_38BpHwWifiE0_NS1_4V1_05IWifiE"
  },
  {
   "name" : "_ZTCN7android8hardware4wifi4V1_38BpHwWifiE0_NS1_4V1_15IWifiE"
  },
  {
   "name" : "_ZTCN7android8hardware4wifi4V1_38BpHwWifiE0_NS1_4V1_25IWifiE"
  },
  {
   "name" : "_ZTCN7android8hardware4wifi4V1_38BpHwWifiE0_NS2_5IWifiE"
  },
  {
   "name" : "_ZTCN7android8hardware4wifi4V1_38BpHwWifiE0_NS_4hidl4base4V1_05IBaseE"
  },
  {
   "name" : "_ZTCN7android8hardware4wifi4V1_38BpHwWifiE16_NS0_11BpHwRefBaseE"
  },
  {
   "name" : "_ZTCN7android8hardware4wifi4V1_38BpHwWifiE8_NS0_10IInterfaceE"
  },
  {
   "name" : "_ZTCN7android8hardware4wifi4V1_39IWifiChipE0_NS1_4V1_09IWifiChipE"
  },
  {
   "name" : "_ZTCN7android8hardware4wifi4V1_39IWifiChipE0_NS1_4V1_19IWifiChipE"
  },
  {
   "name" : "_ZTCN7android8hardware4wifi4V1_39IWifiChipE0_NS1_4V1_29IWifiChipE"
  },
  {
   "name" : "_ZTCN7android8hardware4wifi4V1_39IWifiChipE0_NS_4hidl4base4V1_05IBaseE"
  },
  {
   "name" : "_ZTTN7android8hardware4wifi4V1_312BnHwWifiChipE"
  },
  {
   "name" : "_ZTTN7android8hardware4wifi4V1_312BpHwWifiChipE"
  },
  {
   "name" : "_ZTTN7android8hardware4wifi4V1_313IWifiStaIfaceE"
  },
  {
   "name" : "_ZTTN7android8hardware4wifi4V1_316BnHwWifiStaIfaceE"
  },
  {
   "name" : "_ZTTN7android8hardware4wifi4V1_316BpHwWifiStaIfaceE"
  },
  {
   "name" : "_ZTTN7android8hardware4wifi4V1_35IWifiE"
  },
  {
   "name" : "_ZTTN7android8hardware4wifi4V1_38BnHwWifiE"
  },
  {
   "name" : "_ZTTN7android8hardware4wifi4V1_38BpHwWifiE"
  },
  {
   "name" : "_ZTTN7android8hardware4wifi4V1_39IWifiChipE"
  },
  {
   "binding" : "weak",
   "name" : "_ZTVN7android8hardware4wifi4V1_310BsWifiChipE"
  },
  {
   "name" : "_ZTVN7android8hardware4wifi4V1_312BnHwWifiChipE"
  },
  {
   "name" : "_ZTVN7android8hardware4wifi4V1_312BpHwWifiChipE"
  },
  {
   "name" : "_ZTVN7android8hardware4wifi4V1_313IWifiStaIfaceE"
  },
  {
   "binding" : "weak",
   "name" : "_ZTVN7android8hardware4wifi4V1_314BsWifiStaIfaceE"
  },
  {
   "name" : "_ZTVN7android8hardware4wifi4V1_316BnHwWifiStaIfaceE"
  },
  {
   "name" : "_ZTVN7android8hardware4wifi4V1_316BpHwWifiStaIfaceE"
  },
  {
   "name" : "_ZTVN7android8hardware4wifi4V1_35IWifiE"
  },
  {
   "binding" : "weak",
   "name" : "_ZTVN7android8hardware4wifi4V1_36BsWifiE"
  },
  {
   "name" : "_ZTVN7android8hardware4wifi4V1_38BnHwWifiE"
  },
  {
   "name" : "_ZTVN7android8hardware4wifi4V1_38BpHwWifiE"
  },
  {
   "name" : "_ZTVN7android8hardware4wifi4V1_39IWifiChipE"
  }
 ],
 "enum_types" :
 [
  {
   "alignment" : 4,
   "enum_fields" :
   [
    {
     "enum_field_value" : 0,
     "name" : "android::Condition::WAKE_UP_ONE"
    },
    {
     "enum_field_value" : 1,
     "name" : "android::Condition::WAKE_UP_ALL"
    }
   ],
   "linker_set_key" : "android::Condition::WakeUpType",
   "name" : "android::Condition::WakeUpType",
   "referenced_type" : "type-1671",
   "self_type" : "type-1671",
   "size" : 4,
   "source_file" : "/system/core/libutils/include/utils/Condition.h",
   "underlying_type" : "type-2",
   "unique_id" : "_ZTSN7android9Condition10WakeUpTypeE"
  },
  {
   "alignment" : 4,
   "enum_fields" :
   [
    {
     "enum_field_value" : 0,
     "name" : "android::String16::kEmptyString"
    }
   ],
   "linker_set_key" : "android::String16::StaticLinkage",
   "name" : "android::String16::StaticLinkage",
   "referenced_type" : "type-1562",
   "self_type" : "type-1562",
   "size" : 4,
   "source_file" : "/system/core/libutils/include/utils/String16.h",
   "underlying_type" : "type-2",
   "unique_id" : "_ZTSN7android8String1613StaticLinkageE"
  },
  {
   "alignment" : 4,
   "enum_fields" :
   [
    {
     "enum_field_value" : 0,
     "name" : "android::String8::kEmptyString"
    }
   ],
   "linker_set_key" : "android::String8::StaticLinkage",
   "name" : "android::String8::StaticLinkage",
   "referenced_type" : "type-1554",
   "self_type" : "type-1554",
   "size" : 4,
   "source_file" : "/system/core/libutils/include/utils/String8.h",
   "underlying_type" : "type-2",
   "unique_id" : "_ZTSN7android7String813StaticLinkageE"
  },
  {
   "alignment" : 4,
   "enum_fields" :
   [
    {
     "enum_field_value" : 0,
     "name" : "android::hardware::HidlReturnRestriction::NONE"
    },
    {
     "enum_field_value" : 1,
     "name" : "android::hardware::HidlReturnRestriction::ERROR_IF_UNCHECKED"
    },
    {
     "enum_field_value" : 2,
     "name" : "android::hardware::HidlReturnRestriction::FATAL_IF_UNCHECKED"
    }
   ],
   "linker_set_key" : "android::hardware::HidlReturnRestriction",
   "name" : "android::hardware::HidlReturnRestriction",
   "referenced_type" : "type-1293",
   "self_type" : "type-1293",
   "size" : 4,
   "source_file" : "/system/libhidl/base/include/hidl/Status.h",
   "underlying_type" : "type-23",
   "unique_id" : "_ZTSN7android8hardware21HidlReturnRestrictionE"
  },
  {
   "alignment" : 4,
   "enum_fields" :
   [
    {
     "enum_field_value" : 0,
     "name" : "android::hardware::MQDescriptor<char, android::hardware::kSynchronizedReadWrite>::READPTRPOS"
    },
    {
     "enum_field_value" : 1,
     "name" : "android::hardware::MQDescriptor<char, android::hardware::kSynchronizedReadWrite>::WRITEPTRPOS"
    },
    {
     "enum_field_value" : 2,
     "name" : "android::hardware::MQDescriptor<char, android::hardware::kSynchronizedReadWrite>::DATAPTRPOS"
    },
    {
     "enum_field_value" : 3,
     "name" : "android::hardware::MQDescriptor<char, android::hardware::kSynchronizedReadWrite>::EVFLAGWORDPOS"
    }
   ],
   "linker_set_key" : "android::hardware::MQDescriptor<char, android::hardware::kSynchronizedReadWrite>::GrantorType",
   "name" : "android::hardware::MQDescriptor<char, android::hardware::kSynchronizedReadWrite>::GrantorType",
   "referenced_type" : "type-1544",
   "self_type" : "type-1544",
   "size" : 4,
   "source_file" : "/system/libhidl/base/include/hidl/MQDescriptor.h",
   "underlying_type" : "type-23",
   "unique_id" : "_ZTSN7android8hardware12MQDescriptorIcLNS0_8MQFlavorE1EE11GrantorTypeE"
  },
  {
   "alignment" : 4,
   "enum_fields" :
   [
    {
     "enum_field_value" : 1,
     "name" : "android::hardware::kSynchronizedReadWrite"
    },
    {
     "enum_field_value" : 2,
     "name" : "android::hardware::kUnsynchronizedWrite"
    }
   ],
   "linker_set_key" : "android::hardware::MQFlavor",
   "name" : "android::hardware::MQFlavor",
   "referenced_type" : "type-1541",
   "self_type" : "type-1541",
   "size" : 4,
   "source_file" : "/system/libhidl/base/include/hidl/MQDescriptor.h",
   "underlying_type" : "type-2",
   "unique_id" : "_ZTSN7android8hardware8MQFlavorE"
  },
  {
   "alignment" : 4,
   "enum_fields" :
   [
    {
     "enum_field_value" : 0,
     "name" : "android::hardware::ProcessState::CallRestriction::NONE"
    },
    {
     "enum_field_value" : 1,
     "name" : "android::hardware::ProcessState::CallRestriction::ERROR_IF_NOT_ONEWAY"
    },
    {
     "enum_field_value" : 2,
     "name" : "android::hardware::ProcessState::CallRestriction::FATAL_IF_NOT_ONEWAY"
    }
   ],
   "linker_set_key" : "android::hardware::ProcessState::CallRestriction",
   "name" : "android::hardware::ProcessState::CallRestriction",
   "referenced_type" : "type-1147",
   "self_type" : "type-1147",
   "size" : 4,
   "source_file" : "/system/libhwbinder/include/hwbinder/ProcessState.h",
   "underlying_type" : "type-23",
   "unique_id" : "_ZTSN7android8hardware12ProcessState15CallRestrictionE"
  },
  {
   "alignment" : 4,
   "enum_fields" :
   [
    {
     "enum_field_value" : 0,
     "name" : "android::hardware::Status::EX_NONE"
    },
    {
     "enum_field_value" : -1,
     "name" : "android::hardware::Status::EX_SECURITY"
    },
    {
     "enum_field_value" : -2,
     "name" : "android::hardware::Status::EX_BAD_PARCELABLE"
    },
    {
     "enum_field_value" : -3,
     "name" : "android::hardware::Status::EX_ILLEGAL_ARGUMENT"
    },
    {
     "enum_field_value" : -4,
     "name" : "android::hardware::Status::EX_NULL_POINTER"
    },
    {
     "enum_field_value" : -5,
     "name" : "android::hardware::Status::EX_ILLEGAL_STATE"
    },
    {
     "enum_field_value" : -6,
     "name" : "android::hardware::Status::EX_NETWORK_MAIN_THREAD"
    },
    {
     "enum_field_value" : -7,
     "name" : "android::hardware::Status::EX_UNSUPPORTED_OPERATION"
    },
    {
     "enum_field_value" : -128,
     "name" : "android::hardware::Status::EX_HAS_REPLY_HEADER"
    },
    {
     "enum_field_value" : -129,
     "name" : "android::hardware::Status::EX_TRANSACTION_FAILED"
    }
   ],
   "linker_set_key" : "android::hardware::Status::Exception",
   "name" : "android::hardware::Status::Exception",
   "referenced_type" : "type-1262",
   "self_type" : "type-1262",
   "size" : 4,
   "source_file" : "/system/libhidl/base/include/hidl/Status.h",
   "underlying_type" : "type-23",
   "unique_id" : "_ZTSN7android8hardware6Status9ExceptionE"
  },
  {
   "alignment" : 4,
   "enum_fields" :
   [
    {
     "enum_field_value" : 0,
     "name" : "android::hardware::details::HidlInstrumentor::SERVER_API_ENTRY"
    },
    {
     "enum_field_value" : 1,
     "name" : "android::hardware::details::HidlInstrumentor::SERVER_API_EXIT"
    },
    {
     "enum_field_value" : 2,
     "name" : "android::hardware::details::HidlInstrumentor::CLIENT_API_ENTRY"
    },
    {
     "enum_field_value" : 3,
     "name" : "android::hardware::details::HidlInstrumentor::CLIENT_API_EXIT"
    },
    {
     "enum_field_value" : 4,
     "name" : "android::hardware::details::HidlInstrumentor::SYNC_CALLBACK_ENTRY"
    },
    {
     "enum_field_value" : 5,
     "name" : "android::hardware::details::HidlInstrumentor::SYNC_CALLBACK_EXIT"
    },
    {
     "enum_field_value" : 6,
     "name" : "android::hardware::details::HidlInstrumentor::ASYNC_CALLBACK_ENTRY"
    },
    {
     "enum_field_value" : 7,
     "name" : "android::hardware::details::HidlInstrumentor::ASYNC_CALLBACK_EXIT"
    },
    {
     "enum_field_value" : 8,
     "name" : "android::hardware::details::HidlInstrumentor::PASSTHROUGH_ENTRY"
    },
    {
     "enum_field_value" : 9,
     "name" : "android::hardware::details::HidlInstrumentor::PASSTHROUGH_EXIT"
    }
   ],
   "linker_set_key" : "android::hardware::details::HidlInstrumentor::InstrumentationEvent",
   "name" : "android::hardware::details::HidlInstrumentor::InstrumentationEvent",
   "referenced_type" : "type-1053",
   "self_type" : "type-1053",
   "size" : 4,
   "source_file" : "/system/libhidl/base/include/hidl/HidlInternal.h",
   "underlying_type" : "type-2",
   "unique_id" : "_ZTSN7android8hardware7details16HidlInstrumentor20InstrumentationEventE"
  },
  {
   "alignment" : 4,
   "enum_fields" :
   [
    {
     "enum_field_value" : 1,
     "name" : "android::hardware::wifi::V1_0::IWifiChip::ChipCapabilityMask::DEBUG_MEMORY_FIRMWARE_DUMP"
    },
    {
     "enum_field_value" : 2,
     "name" : "android::hardware::wifi::V1_0::IWifiChip::ChipCapabilityMask::DEBUG_MEMORY_DRIVER_DUMP"
    },
    {
     "enum_field_value" : 4,
     "name" : "android::hardware::wifi::V1_0::IWifiChip::ChipCapabilityMask::DEBUG_RING_BUFFER_CONNECT_EVENT"
    },
    {
     "enum_field_value" : 8,
     "name" : "android::hardware::wifi::V1_0::IWifiChip::ChipCapabilityMask::DEBUG_RING_BUFFER_POWER_EVENT"
    },
    {
     "enum_field_value" : 16,
     "name" : "android::hardware::wifi::V1_0::IWifiChip::ChipCapabilityMask::DEBUG_RING_BUFFER_WAKELOCK_EVENT"
    },
    {
     "enum_field_value" : 32,
     "name" : "android::hardware::wifi::V1_0::IWifiChip::ChipCapabilityMask::DEBUG_RING_BUFFER_VENDOR_DATA"
    },
    {
     "enum_field_value" : 64,
     "name" : "android::hardware::wifi::V1_0::IWifiChip::ChipCapabilityMask::DEBUG_HOST_WAKE_REASON_STATS"
    },
    {
     "enum_field_value" : 128,
     "name" : "android::hardware::wifi::V1_0::IWifiChip::ChipCapabilityMask::DEBUG_ERROR_ALERTS"
    }
   ],
   "linker_set_key" : "android::hardware::wifi::V1_0::IWifiChip::ChipCapabilityMask",
   "name" : "android::hardware::wifi::V1_0::IWifiChip::ChipCapabilityMask",
   "referenced_type" : "type-1513",
   "self_type" : "type-1513",
   "size" : 4,
   "source_file" : "/out/soong/.intermediates/hardware/interfaces/wifi/1.0/android.hardware.wifi@1.0_genc++_headers/gen/android/hardware/wifi/1.0/IWifiChip.h",
   "underlying_type" : "type-2",
   "unique_id" : "_ZTSN7android8hardware4wifi4V1_09IWifiChip18ChipCapabilityMaskE"
  },
  {
   "alignment" : 4,
   "enum_fields" :
   [
    {
     "enum_field_value" : 1,
     "name" : "android::hardware::wifi::V1_0::IWifiStaIface::StaIfaceCapabilityMask::APF"
    },
    {
     "enum_field_value" : 2,
     "name" : "android::hardware::wifi::V1_0::IWifiStaIface::StaIfaceCapabilityMask::BACKGROUND_SCAN"
    },
    {
     "enum_field_value" : 4,
     "name" : "android::hardware::wifi::V1_0::IWifiStaIface::StaIfaceCapabilityMask::LINK_LAYER_STATS"
    },
    {
     "enum_field_value" : 8,
     "name" : "android::hardware::wifi::V1_0::IWifiStaIface::StaIfaceCapabilityMask::RSSI_MONITOR"
    },
    {
     "enum_field_value" : 16,
     "name" : "android::hardware::wifi::V1_0::IWifiStaIface::StaIfaceCapabilityMask::CONTROL_ROAMING"
    },
    {
     "enum_field_value" : 32,
     "name" : "android::hardware::wifi::V1_0::IWifiStaIface::StaIfaceCapabilityMask::PROBE_IE_WHITELIST"
    },
    {
     "enum_field_value" : 64,
     "name" : "android::hardware::wifi::V1_0::IWifiStaIface::StaIfaceCapabilityMask::SCAN_RAND"
    },
    {
     "enum_field_value" : 128,
     "name" : "android::hardware::wifi::V1_0::IWifiStaIface::StaIfaceCapabilityMask::STA_5G"
    },
    {
     "enum_field_value" : 256,
     "name" : "android::hardware::wifi::V1_0::IWifiStaIface::StaIfaceCapabilityMask::HOTSPOT"
    },
    {
     "enum_field_value" : 512,
     "name" : "android::hardware::wifi::V1_0::IWifiStaIface::StaIfaceCapabilityMask::PNO"
    },
    {
     "enum_field_value" : 1024,
     "name" : "android::hardware::wifi::V1_0::IWifiStaIface::StaIfaceCapabilityMask::TDLS"
    },
    {
     "enum_field_value" : 2048,
     "name" : "android::hardware::wifi::V1_0::IWifiStaIface::StaIfaceCapabilityMask::TDLS_OFFCHANNEL"
    },
    {
     "enum_field_value" : 4096,
     "name" : "android::hardware::wifi::V1_0::IWifiStaIface::StaIfaceCapabilityMask::ND_OFFLOAD"
    },
    {
     "enum_field_value" : 8192,
     "name" : "android::hardware::wifi::V1_0::IWifiStaIface::StaIfaceCapabilityMask::KEEP_ALIVE"
    },
    {
     "enum_field_value" : 16384,
     "name" : "android::hardware::wifi::V1_0::IWifiStaIface::StaIfaceCapabilityMask::DEBUG_PACKET_FATE"
    }
   ],
   "linker_set_key" : "android::hardware::wifi::V1_0::IWifiStaIface::StaIfaceCapabilityMask",
   "name" : "android::hardware::wifi::V1_0::IWifiStaIface::StaIfaceCapabilityMask",
   "referenced_type" : "type-1226",
   "self_type" : "type-1226",
   "size" : 4,
   "source_file" : "/out/soong/.intermediates/hardware/interfaces/wifi/1.0/android.hardware.wifi@1.0_genc++_headers/gen/android/hardware/wifi/1.0/IWifiStaIface.h",
   "underlying_type" : "type-2",
   "unique_id" : "_ZTSN7android8hardware4wifi4V1_013IWifiStaIface22StaIfaceCapabilityMaskE"
  },
  {
   "alignment" : 4,
   "enum_fields" :
   [
    {
     "enum_field_value" : 0,
     "name" : "android::hardware::wifi::V1_0::IfaceType::STA"
    },
    {
     "enum_field_value" : 1,
     "name" : "android::hardware::wifi::V1_0::IfaceType::AP"
    },
    {
     "enum_field_value" : 2,
     "name" : "android::hardware::wifi::V1_0::IfaceType::P2P"
    },
    {
     "enum_field_value" : 3,
     "name" : "android::hardware::wifi::V1_0::IfaceType::NAN"
    }
   ],
   "linker_set_key" : "android::hardware::wifi::V1_0::IfaceType",
   "name" : "android::hardware::wifi::V1_0::IfaceType",
   "referenced_type" : "type-453",
   "self_type" : "type-453",
   "size" : 4,
   "source_file" : "/out/soong/.intermediates/hardware/interfaces/wifi/1.0/android.hardware.wifi@1.0_genc++_headers/gen/android/hardware/wifi/1.0/types.h",
   "underlying_type" : "type-2",
   "unique_id" : "_ZTSN7android8hardware4wifi4V1_09IfaceTypeE"
  },
  {
   "alignment" : 4,
   "enum_fields" :
   [
    {
     "enum_field_value" : 0,
     "name" : "android::hardware::wifi::V1_0::NanBandIndex::NAN_BAND_24GHZ"
    },
    {
     "enum_field_value" : 1,
     "name" : "android::hardware::wifi::V1_0::NanBandIndex::NAN_BAND_5GHZ"
    }
   ],
   "linker_set_key" : "android::hardware::wifi::V1_0::NanBandIndex",
   "name" : "android::hardware::wifi::V1_0::NanBandIndex",
   "referenced_type" : "type-77",
   "self_type" : "type-77",
   "size" : 4,
   "source_file" : "/out/soong/.intermediates/hardware/interfaces/wifi/1.0/android.hardware.wifi@1.0_genc++_headers/gen/android/hardware/wifi/1.0/types.h",
   "underlying_type" : "type-2",
   "unique_id" : "_ZTSN7android8hardware4wifi4V1_012NanBandIndexE"
  },
  {
   "alignment" : 4,
   "enum_fields" :
   [
    {
     "enum_field_value" : 0,
     "name" : "android::hardware::wifi::V1_0::NanCipherSuiteType::NONE"
    },
    {
     "enum_field_value" : 1,
     "name" : "android::hardware::wifi::V1_0::NanCipherSuiteType::SHARED_KEY_128_MASK"
    },
    {
     "enum_field_value" : 2,
     "name" : "android::hardware::wifi::V1_0::NanCipherSuiteType::SHARED_KEY_256_MASK"
    }
   ],
   "linker_set_key" : "android::hardware::wifi::V1_0::NanCipherSuiteType",
   "name" : "android::hardware::wifi::V1_0::NanCipherSuiteType",
   "referenced_type" : "type-96",
   "self_type" : "type-96",
   "size" : 4,
   "source_file" : "/out/soong/.intermediates/hardware/interfaces/wifi/1.0/android.hardware.wifi@1.0_genc++_headers/gen/android/hardware/wifi/1.0/types.h",
   "underlying_type" : "type-2",
   "unique_id" : "_ZTSN7android8hardware4wifi4V1_018NanCipherSuiteTypeE"
  },
  {
   "alignment" : 4,
   "enum_fields" :
   [
    {
     "enum_field_value" : 0,
     "name" : "android::hardware::wifi::V1_0::NanClusterEventType::DISCOVERY_MAC_ADDRESS_CHANGED"
    },
    {
     "enum_field_value" : 1,
     "name" : "android::hardware::wifi::V1_0::NanClusterEventType::STARTED_CLUSTER"
    },
    {
     "enum_field_value" : 2,
     "name" : "android::hardware::wifi::V1_0::NanClusterEventType::JOINED_CLUSTER"
    }
   ],
   "linker_set_key" : "android::hardware::wifi::V1_0::NanClusterEventType",
   "name" : "android::hardware::wifi::V1_0::NanClusterEventType",
   "referenced_type" : "type-123",
   "self_type" : "type-123",
   "size" : 4,
   "source_file" : "/out/soong/.intermediates/hardware/interfaces/wifi/1.0/android.hardware.wifi@1.0_genc++_headers/gen/android/hardware/wifi/1.0/types.h",
   "underlying_type" : "type-2",
   "unique_id" : "_ZTSN7android8hardware4wifi4V1_019NanClusterEventTypeE"
  },
  {
   "alignment" : 4,
   "enum_fields" :
   [
    {
     "enum_field_value" : 0,
     "name" : "android::hardware::wifi::V1_0::NanDataPathChannelCfg::CHANNEL_NOT_REQUESTED"
    },
    {
     "enum_field_value" : 1,
     "name" : "android::hardware::wifi::V1_0::NanDataPathChannelCfg::REQUEST_CHANNEL_SETUP"
    },
    {
     "enum_field_value" : 2,
     "name" : "android::hardware::wifi::V1_0::NanDataPathChannelCfg::FORCE_CHANNEL_SETUP"
    }
   ],
   "linker_set_key" : "android::hardware::wifi::V1_0::NanDataPathChannelCfg",
   "name" : "android::hardware::wifi::V1_0::NanDataPathChannelCfg",
   "referenced_type" : "type-84",
   "self_type" : "type-84",
   "size" : 4,
   "source_file" : "/out/soong/.intermediates/hardware/interfaces/wifi/1.0/android.hardware.wifi@1.0_genc++_headers/gen/android/hardware/wifi/1.0/types.h",
   "underlying_type" : "type-2",
   "unique_id" : "_ZTSN7android8hardware4wifi4V1_021NanDataPathChannelCfgE"
  },
  {
   "alignment" : 4,
   "enum_fields" :
   [
    {
     "enum_field_value" : 0,
     "name" : "android::hardware::wifi::V1_0::NanDataPathSecurityType::OPEN"
    },
    {
     "enum_field_value" : 1,
     "name" : "android::hardware::wifi::V1_0::NanDataPathSecurityType::PMK"
    },
    {
     "enum_field_value" : 2,
     "name" : "android::hardware::wifi::V1_0::NanDataPathSecurityType::PASSPHRASE"
    }
   ],
   "linker_set_key" : "android::hardware::wifi::V1_0::NanDataPathSecurityType",
   "name" : "android::hardware::wifi::V1_0::NanDataPathSecurityType",
   "referenced_type" : "type-85",
   "self_type" : "type-85",
   "size" : 4,
   "source_file" : "/out/soong/.intermediates/hardware/interfaces/wifi/1.0/android.hardware.wifi@1.0_genc++_headers/gen/android/hardware/wifi/1.0/types.h",
   "underlying_type" : "type-2",
   "unique_id" : "_ZTSN7android8hardware4wifi4V1_023NanDataPathSecurityTypeE"
  },
  {
   "alignment" : 4,
   "enum_fields" :
   [
    {
     "enum_field_value" : 0,
     "name" : "android::hardware::wifi::V1_0::NanMatchAlg::MATCH_ONCE"
    },
    {
     "enum_field_value" : 1,
     "name" : "android::hardware::wifi::V1_0::NanMatchAlg::MATCH_CONTINUOUS"
    },
    {
     "enum_field_value" : 2,
     "name" : "android::hardware::wifi::V1_0::NanMatchAlg::MATCH_NEVER"
    }
   ],
   "linker_set_key" : "android::hardware::wifi::V1_0::NanMatchAlg",
   "name" : "android::hardware::wifi::V1_0::NanMatchAlg",
   "referenced_type" : "type-79",
   "self_type" : "type-79",
   "size" : 4,
   "source_file" : "/out/soong/.intermediates/hardware/interfaces/wifi/1.0/android.hardware.wifi@1.0_genc++_headers/gen/android/hardware/wifi/1.0/types.h",
   "underlying_type" : "type-2",
   "unique_id" : "_ZTSN7android8hardware4wifi4V1_011NanMatchAlgE"
  },
  {
   "alignment" : 4,
   "enum_fields" :
   [
    {
     "enum_field_value" : 8,
     "name" : "android::hardware::wifi::V1_0::NanParamSizeLimits::MIN_PASSPHRASE_LENGTH"
    },
    {
     "enum_field_value" : 63,
     "name" : "android::hardware::wifi::V1_0::NanParamSizeLimits::MAX_PASSPHRASE_LENGTH"
    }
   ],
   "linker_set_key" : "android::hardware::wifi::V1_0::NanParamSizeLimits",
   "name" : "android::hardware::wifi::V1_0::NanParamSizeLimits",
   "referenced_type" : "type-75",
   "self_type" : "type-75",
   "size" : 4,
   "source_file" : "/out/soong/.intermediates/hardware/interfaces/wifi/1.0/android.hardware.wifi@1.0_genc++_headers/gen/android/hardware/wifi/1.0/types.h",
   "underlying_type" : "type-2",
   "unique_id" : "_ZTSN7android8hardware4wifi4V1_018NanParamSizeLimitsE"
  },
  {
   "alignment" : 4,
   "enum_fields" :
   [
    {
     "enum_field_value" : 0,
     "name" : "android::hardware::wifi::V1_0::NanPublishType::UNSOLICITED"
    },
    {
     "enum_field_value" : 1,
     "name" : "android::hardware::wifi::V1_0::NanPublishType::SOLICITED"
    },
    {
     "enum_field_value" : 2,
     "name" : "android::hardware::wifi::V1_0::NanPublishType::UNSOLICITED_SOLICITED"
    }
   ],
   "linker_set_key" : "android::hardware::wifi::V1_0::NanPublishType",
   "name" : "android::hardware::wifi::V1_0::NanPublishType",
   "referenced_type" : "type-80",
   "self_type" : "type-80",
   "size" : 4,
   "source_file" : "/out/soong/.intermediates/hardware/interfaces/wifi/1.0/android.hardware.wifi@1.0_genc++_headers/gen/android/hardware/wifi/1.0/types.h",
   "underlying_type" : "type-2",
   "unique_id" : "_ZTSN7android8hardware4wifi4V1_014NanPublishTypeE"
  },
  {
   "alignment" : 4,
   "enum_fields" :
   [
    {
     "enum_field_value" : 1,
     "name" : "android::hardware::wifi::V1_0::NanRangingIndication::CONTINUOUS_INDICATION_MASK"
    },
    {
     "enum_field_value" : 2,
     "name" : "android::hardware::wifi::V1_0::NanRangingIndication::INGRESS_MET_MASK"
    },
    {
     "enum_field_value" : 4,
     "name" : "android::hardware::wifi::V1_0::NanRangingIndication::EGRESS_MET_MASK"
    }
   ],
   "linker_set_key" : "android::hardware::wifi::V1_0::NanRangingIndication",
   "name" : "android::hardware::wifi::V1_0::NanRangingIndication",
   "referenced_type" : "type-100",
   "self_type" : "type-100",
   "size" : 4,
   "source_file" : "/out/soong/.intermediates/hardware/interfaces/wifi/1.0/android.hardware.wifi@1.0_genc++_headers/gen/android/hardware/wifi/1.0/types.h",
   "underlying_type" : "type-2",
   "unique_id" : "_ZTSN7android8hardware4wifi4V1_020NanRangingIndicationE"
  },
  {
   "alignment" : 4,
   "enum_fields" :
   [
    {
     "enum_field_value" : 0,
     "name" : "android::hardware::wifi::V1_0::NanSrfType::BLOOM_FILTER"
    },
    {
     "enum_field_value" : 1,
     "name" : "android::hardware::wifi::V1_0::NanSrfType::PARTIAL_MAC_ADDR"
    }
   ],
   "linker_set_key" : "android::hardware::wifi::V1_0::NanSrfType",
   "name" : "android::hardware::wifi::V1_0::NanSrfType",
   "referenced_type" : "type-83",
   "self_type" : "type-83",
   "size" : 4,
   "source_file" : "/out/soong/.intermediates/hardware/interfaces/wifi/1.0/android.hardware.wifi@1.0_genc++_headers/gen/android/hardware/wifi/1.0/types.h",
   "underlying_type" : "type-2",
   "unique_id" : "_ZTSN7android8hardware4wifi4V1_010NanSrfTypeE"
  },
  {
   "alignment" : 4,
   "enum_fields" :
   [
    {
     "enum_field_value" : 0,
     "name" : "android::hardware::wifi::V1_0::NanStatusType::SUCCESS"
    },
    {
     "enum_field_value" : 1,
     "name" : "android::hardware::wifi::V1_0::NanStatusType::INTERNAL_FAILURE"
    },
    {
     "enum_field_value" : 2,
     "name" : "android::hardware::wifi::V1_0::NanStatusType::PROTOCOL_FAILURE"
    },
    {
     "enum_field_value" : 3,
     "name" : "android::hardware::wifi::V1_0::NanStatusType::INVALID_SESSION_ID"
    },
    {
     "enum_field_value" : 4,
     "name" : "android::hardware::wifi::V1_0::NanStatusType::NO_RESOURCES_AVAILABLE"
    },
    {
     "enum_field_value" : 5,
     "name" : "android::hardware::wifi::V1_0::NanStatusType::INVALID_ARGS"
    },
    {
     "enum_field_value" : 6,
     "name" : "android::hardware::wifi::V1_0::NanStatusType::INVALID_PEER_ID"
    },
    {
     "enum_field_value" : 7,
     "name" : "android::hardware::wifi::V1_0::NanStatusType::INVALID_NDP_ID"
    },
    {
     "enum_field_value" : 8,
     "name" : "android::hardware::wifi::V1_0::NanStatusType::NAN_NOT_ALLOWED"
    },
    {
     "enum_field_value" : 9,
     "name" : "android::hardware::wifi::V1_0::NanStatusType::NO_OTA_ACK"
    },
    {
     "enum_field_value" : 10,
     "name" : "android::hardware::wifi::V1_0::NanStatusType::ALREADY_ENABLED"
    },
    {
     "enum_field_value" : 11,
     "name" : "android::hardware::wifi::V1_0::NanStatusType::FOLLOWUP_TX_QUEUE_FULL"
    },
    {
     "enum_field_value" : 12,
     "name" : "android::hardware::wifi::V1_0::NanStatusType::UNSUPPORTED_CONCURRENCY_NAN_DISABLED"
    }
   ],
   "linker_set_key" : "android::hardware::wifi::V1_0::NanStatusType",
   "name" : "android::hardware::wifi::V1_0::NanStatusType",
   "referenced_type" : "type-76",
   "self_type" : "type-76",
   "size" : 4,
   "source_file" : "/out/soong/.intermediates/hardware/interfaces/wifi/1.0/android.hardware.wifi@1.0_genc++_headers/gen/android/hardware/wifi/1.0/types.h",
   "underlying_type" : "type-2",
   "unique_id" : "_ZTSN7android8hardware4wifi4V1_013NanStatusTypeE"
  },
  {
   "alignment" : 4,
   "enum_fields" :
   [
    {
     "enum_field_value" : 0,
     "name" : "android::hardware::wifi::V1_0::NanSubscribeType::PASSIVE"
    },
    {
     "enum_field_value" : 1,
     "name" : "android::hardware::wifi::V1_0::NanSubscribeType::ACTIVE"
    }
   ],
   "linker_set_key" : "android::hardware::wifi::V1_0::NanSubscribeType",
   "name" : "android::hardware::wifi::V1_0::NanSubscribeType",
   "referenced_type" : "type-82",
   "self_type" : "type-82",
   "size" : 4,
   "source_file" : "/out/soong/.intermediates/hardware/interfaces/wifi/1.0/android.hardware.wifi@1.0_genc++_headers/gen/android/hardware/wifi/1.0/types.h",
   "underlying_type" : "type-2",
   "unique_id" : "_ZTSN7android8hardware4wifi4V1_016NanSubscribeTypeE"
  },
  {
   "alignment" : 4,
   "enum_fields" :
   [
    {
     "enum_field_value" : 0,
     "name" : "android::hardware::wifi::V1_0::NanTxType::BROADCAST"
    },
    {
     "enum_field_value" : 1,
     "name" : "android::hardware::wifi::V1_0::NanTxType::UNICAST"
    }
   ],
   "linker_set_key" : "android::hardware::wifi::V1_0::NanTxType",
   "name" : "android::hardware::wifi::V1_0::NanTxType",
   "referenced_type" : "type-81",
   "self_type" : "type-81",
   "size" : 4,
   "source_file" : "/out/soong/.intermediates/hardware/interfaces/wifi/1.0/android.hardware.wifi@1.0_genc++_headers/gen/android/hardware/wifi/1.0/types.h",
   "underlying_type" : "type-2",
   "unique_id" : "_ZTSN7android8hardware4wifi4V1_09NanTxTypeE"
  },
  {
   "alignment" : 4,
   "enum_fields" :
   [
    {
     "enum_field_value" : 1,
     "name" : "android::hardware::wifi::V1_0::RttBw::BW_5MHZ"
    },
    {
     "enum_field_value" : 2,
     "name" : "android::hardware::wifi::V1_0::RttBw::BW_10MHZ"
    },
    {
     "enum_field_value" : 4,
     "name" : "android::hardware::wifi::V1_0::RttBw::BW_20MHZ"
    },
    {
     "enum_field_value" : 8,
     "name" : "android::hardware::wifi::V1_0::RttBw::BW_40MHZ"
    },
    {
     "enum_field_value" : 16,
     "name" : "android::hardware::wifi::V1_0::RttBw::BW_80MHZ"
    },
    {
     "enum_field_value" : 32,
     "name" : "android::hardware::wifi::V1_0::RttBw::BW_160MHZ"
    }
   ],
   "linker_set_key" : "android::hardware::wifi::V1_0::RttBw",
   "name" : "android::hardware::wifi::V1_0::RttBw",
   "referenced_type" : "type-129",
   "self_type" : "type-129",
   "size" : 4,
   "source_file" : "/out/soong/.intermediates/hardware/interfaces/wifi/1.0/android.hardware.wifi@1.0_genc++_headers/gen/android/hardware/wifi/1.0/types.h",
   "underlying_type" : "type-2",
   "unique_id" : "_ZTSN7android8hardware4wifi4V1_05RttBwE"
  },
  {
   "alignment" : 4,
   "enum_fields" :
   [
    {
     "enum_field_value" : 0,
     "name" : "android::hardware::wifi::V1_0::RttMotionPattern::NOT_EXPECTED"
    },
    {
     "enum_field_value" : 1,
     "name" : "android::hardware::wifi::V1_0::RttMotionPattern::EXPECTED"
    },
    {
     "enum_field_value" : 2,
     "name" : "android::hardware::wifi::V1_0::RttMotionPattern::UNKNOWN"
    }
   ],
   "linker_set_key" : "android::hardware::wifi::V1_0::RttMotionPattern",
   "name" : "android::hardware::wifi::V1_0::RttMotionPattern",
   "referenced_type" : "type-136",
   "self_type" : "type-136",
   "size" : 4,
   "source_file" : "/out/soong/.intermediates/hardware/interfaces/wifi/1.0/android.hardware.wifi@1.0_genc++_headers/gen/android/hardware/wifi/1.0/types.h",
   "underlying_type" : "type-2",
   "unique_id" : "_ZTSN7android8hardware4wifi4V1_016RttMotionPatternE"
  },
  {
   "alignment" : 4,
   "enum_fields" :
   [
    {
     "enum_field_value" : 1,
     "name" : "android::hardware::wifi::V1_0::RttPeerType::AP"
    },
    {
     "enum_field_value" : 2,
     "name" : "android::hardware::wifi::V1_0::RttPeerType::STA"
    },
    {
     "enum_field_value" : 3,
     "name" : "android::hardware::wifi::V1_0::RttPeerType::P2P_GO"
    },
    {
     "enum_field_value" : 4,
     "name" : "android::hardware::wifi::V1_0::RttPeerType::P2P_CLIENT"
    },
    {
     "enum_field_value" : 5,
     "name" : "android::hardware::wifi::V1_0::RttPeerType::NAN"
    }
   ],
   "linker_set_key" : "android::hardware::wifi::V1_0::RttPeerType",
   "name" : "android::hardware::wifi::V1_0::RttPeerType",
   "referenced_type" : "type-128",
   "self_type" : "type-128",
   "size" : 4,
   "source_file" : "/out/soong/.intermediates/hardware/interfaces/wifi/1.0/android.hardware.wifi@1.0_genc++_headers/gen/android/hardware/wifi/1.0/types.h",
   "underlying_type" : "type-2",
   "unique_id" : "_ZTSN7android8hardware4wifi4V1_011RttPeerTypeE"
  },
  {
   "alignment" : 4,
   "enum_fields" :
   [
    {
     "enum_field_value" : 1,
     "name" : "android::hardware::wifi::V1_0::RttPreamble::LEGACY"
    },
    {
     "enum_field_value" : 2,
     "name" : "android::hardware::wifi::V1_0::RttPreamble::HT"
    },
    {
     "enum_field_value" : 4,
     "name" : "android::hardware::wifi::V1_0::RttPreamble::VHT"
    }
   ],
   "linker_set_key" : "android::hardware::wifi::V1_0::RttPreamble",
   "name" : "android::hardware::wifi::V1_0::RttPreamble",
   "referenced_type" : "type-130",
   "self_type" : "type-130",
   "size" : 4,
   "source_file" : "/out/soong/.intermediates/hardware/interfaces/wifi/1.0/android.hardware.wifi@1.0_genc++_headers/gen/android/hardware/wifi/1.0/types.h",
   "underlying_type" : "type-2",
   "unique_id" : "_ZTSN7android8hardware4wifi4V1_011RttPreambleE"
  },
  {
   "alignment" : 4,
   "enum_fields" :
   [
    {
     "enum_field_value" : 0,
     "name" : "android::hardware::wifi::V1_0::RttStatus::SUCCESS"
    },
    {
     "enum_field_value" : 1,
     "name" : "android::hardware::wifi::V1_0::RttStatus::FAILURE"
    },
    {
     "enum_field_value" : 2,
     "name" : "android::hardware::wifi::V1_0::RttStatus::FAIL_NO_RSP"
    },
    {
     "enum_field_value" : 3,
     "name" : "android::hardware::wifi::V1_0::RttStatus::FAIL_REJECTED"
    },
    {
     "enum_field_value" : 4,
     "name" : "android::hardware::wifi::V1_0::RttStatus::FAIL_NOT_SCHEDULED_YET"
    },
    {
     "enum_field_value" : 5,
     "name" : "android::hardware::wifi::V1_0::RttStatus::FAIL_TM_TIMEOUT"
    },
    {
     "enum_field_value" : 6,
     "name" : "android::hardware::wifi::V1_0::RttStatus::FAIL_AP_ON_DIFF_CHANNEL"
    },
    {
     "enum_field_value" : 7,
     "name" : "android::hardware::wifi::V1_0::RttStatus::FAIL_NO_CAPABILITY"
    },
    {
     "enum_field_value" : 8,
     "name" : "android::hardware::wifi::V1_0::RttStatus::ABORTED"
    },
    {
     "enum_field_value" : 9,
     "name" : "android::hardware::wifi::V1_0::RttStatus::FAIL_INVALID_TS"
    },
    {
     "enum_field_value" : 10,
     "name" : "android::hardware::wifi::V1_0::RttStatus::FAIL_PROTOCOL"
    },
    {
     "enum_field_value" : 11,
     "name" : "android::hardware::wifi::V1_0::RttStatus::FAIL_SCHEDULE"
    },
    {
     "enum_field_value" : 12,
     "name" : "android::hardware::wifi::V1_0::RttStatus::FAIL_BUSY_TRY_LATER"
    },
    {
     "enum_field_value" : 13,
     "name" : "android::hardware::wifi::V1_0::RttStatus::INVALID_REQ"
    },
    {
     "enum_field_value" : 14,
     "name" : "android::hardware::wifi::V1_0::RttStatus::NO_WIFI"
    },
    {
     "enum_field_value" : 15,
     "name" : "android::hardware::wifi::V1_0::RttStatus::FAIL_FTM_PARAM_OVERRIDE"
    }
   ],
   "linker_set_key" : "android::hardware::wifi::V1_0::RttStatus",
   "name" : "android::hardware::wifi::V1_0::RttStatus",
   "referenced_type" : "type-127",
   "self_type" : "type-127",
   "size" : 4,
   "source_file" : "/out/soong/.intermediates/hardware/interfaces/wifi/1.0/android.hardware.wifi@1.0_genc++_headers/gen/android/hardware/wifi/1.0/types.h",
   "underlying_type" : "type-2",
   "unique_id" : "_ZTSN7android8hardware4wifi4V1_09RttStatusE"
  },
  {
   "alignment" : 4,
   "enum_fields" :
   [
    {
     "enum_field_value" : 1,
     "name" : "android::hardware::wifi::V1_0::RttType::ONE_SIDED"
    },
    {
     "enum_field_value" : 2,
     "name" : "android::hardware::wifi::V1_0::RttType::TWO_SIDED"
    }
   ],
   "linker_set_key" : "android::hardware::wifi::V1_0::RttType",
   "name" : "android::hardware::wifi::V1_0::RttType",
   "referenced_type" : "type-131",
   "self_type" : "type-131",
   "size" : 4,
   "source_file" : "/out/soong/.intermediates/hardware/interfaces/wifi/1.0/android.hardware.wifi@1.0_genc++_headers/gen/android/hardware/wifi/1.0/types.h",
   "underlying_type" : "type-2",
   "unique_id" : "_ZTSN7android8hardware4wifi4V1_07RttTypeE"
  },
  {
   "alignment" : 4,
   "enum_fields" :
   [
    {
     "enum_field_value" : 1,
     "name" : "android::hardware::wifi::V1_0::StaBackgroundScanBucketEventReportSchemeMask::EACH_SCAN"
    },
    {
     "enum_field_value" : 2,
     "name" : "android::hardware::wifi::V1_0::StaBackgroundScanBucketEventReportSchemeMask::FULL_RESULTS"
    },
    {
     "enum_field_value" : 4,
     "name" : "android::hardware::wifi::V1_0::StaBackgroundScanBucketEventReportSchemeMask::NO_BATCH"
    }
   ],
   "linker_set_key" : "android::hardware::wifi::V1_0::StaBackgroundScanBucketEventReportSchemeMask",
   "name" : "android::hardware::wifi::V1_0::StaBackgroundScanBucketEventReportSchemeMask",
   "referenced_type" : "type-24",
   "self_type" : "type-24",
   "size" : 4,
   "source_file" : "/out/soong/.intermediates/hardware/interfaces/wifi/1.0/android.hardware.wifi@1.0_genc++_headers/gen/android/hardware/wifi/1.0/types.h",
   "underlying_type" : "type-2",
   "unique_id" : "_ZTSN7android8hardware4wifi4V1_044StaBackgroundScanBucketEventReportSchemeMaskE"
  },
  {
   "alignment" : 1,
   "enum_fields" :
   [
    {
     "enum_field_value" : 0,
     "name" : "android::hardware::wifi::V1_0::StaRoamingState::DISABLED"
    },
    {
     "enum_field_value" : 1,
     "name" : "android::hardware::wifi::V1_0::StaRoamingState::ENABLED"
    }
   ],
   "linker_set_key" : "android::hardware::wifi::V1_0::StaRoamingState",
   "name" : "android::hardware::wifi::V1_0::StaRoamingState",
   "referenced_type" : "type-74",
   "self_type" : "type-74",
   "size" : 1,
   "source_file" : "/out/soong/.intermediates/hardware/interfaces/wifi/1.0/android.hardware.wifi@1.0_genc++_headers/gen/android/hardware/wifi/1.0/types.h",
   "underlying_type" : "type-5",
   "unique_id" : "_ZTSN7android8hardware4wifi4V1_015StaRoamingStateE"
  },
  {
   "alignment" : 4,
   "enum_fields" :
   [
    {
     "enum_field_value" : 1,
     "name" : "android::hardware::wifi::V1_0::StaScanDataFlagMask::INTERRUPTED"
    }
   ],
   "linker_set_key" : "android::hardware::wifi::V1_0::StaScanDataFlagMask",
   "name" : "android::hardware::wifi::V1_0::StaScanDataFlagMask",
   "referenced_type" : "type-45",
   "self_type" : "type-45",
   "size" : 4,
   "source_file" : "/out/soong/.intermediates/hardware/interfaces/wifi/1.0/android.hardware.wifi@1.0_genc++_headers/gen/android/hardware/wifi/1.0/types.h",
   "underlying_type" : "type-23",
   "unique_id" : "_ZTSN7android8hardware4wifi4V1_019StaScanDataFlagMaskE"
  },
  {
   "alignment" : 4,
   "enum_fields" :
   [
    {
     "enum_field_value" : 16,
     "name" : "android::hardware::wifi::V1_0::StaScanLimits::MAX_CHANNELS"
    },
    {
     "enum_field_value" : 16,
     "name" : "android::hardware::wifi::V1_0::StaScanLimits::MAX_BUCKETS"
    },
    {
     "enum_field_value" : 32,
     "name" : "android::hardware::wifi::V1_0::StaScanLimits::MAX_AP_CACHE_PER_SCAN"
    }
   ],
   "linker_set_key" : "android::hardware::wifi::V1_0::StaScanLimits",
   "name" : "android::hardware::wifi::V1_0::StaScanLimits",
   "referenced_type" : "type-25",
   "self_type" : "type-25",
   "size" : 4,
   "source_file" : "/out/soong/.intermediates/hardware/interfaces/wifi/1.0/android.hardware.wifi@1.0_genc++_headers/gen/android/hardware/wifi/1.0/types.h",
   "underlying_type" : "type-2",
   "unique_id" : "_ZTSN7android8hardware4wifi4V1_013StaScanLimitsE"
  },
  {
   "alignment" : 4,
   "enum_fields" :
   [
    {
     "enum_field_value" : 0,
     "name" : "android::hardware::wifi::V1_0::WifiBand::BAND_UNSPECIFIED"
    },
    {
     "enum_field_value" : 1,
     "name" : "android::hardware::wifi::V1_0::WifiBand::BAND_24GHZ"
    },
    {
     "enum_field_value" : 2,
     "name" : "android::hardware::wifi::V1_0::WifiBand::BAND_5GHZ"
    },
    {
     "enum_field_value" : 4,
     "name" : "android::hardware::wifi::V1_0::WifiBand::BAND_5GHZ_DFS"
    },
    {
     "enum_field_value" : 6,
     "name" : "android::hardware::wifi::V1_0::WifiBand::BAND_5GHZ_WITH_DFS"
    },
    {
     "enum_field_value" : 3,
     "name" : "android::hardware::wifi::V1_0::WifiBand::BAND_24GHZ_5GHZ"
    },
    {
     "enum_field_value" : 7,
     "name" : "android::hardware::wifi::V1_0::WifiBand::BAND_24GHZ_5GHZ_WITH_DFS"
    }
   ],
   "linker_set_key" : "android::hardware::wifi::V1_0::WifiBand",
   "name" : "android::hardware::wifi::V1_0::WifiBand",
   "referenced_type" : "type-32",
   "self_type" : "type-32",
   "size" : 4,
   "source_file" : "/out/soong/.intermediates/hardware/interfaces/wifi/1.0/android.hardware.wifi@1.0_genc++_headers/gen/android/hardware/wifi/1.0/types.h",
   "underlying_type" : "type-2",
   "unique_id" : "_ZTSN7android8hardware4wifi4V1_08WifiBandE"
  },
  {
   "alignment" : 4,
   "enum_fields" :
   [
    {
     "enum_field_value" : 0,
     "name" : "android::hardware::wifi::V1_0::WifiChannelWidthInMhz::WIDTH_20"
    },
    {
     "enum_field_value" : 1,
     "name" : "android::hardware::wifi::V1_0::WifiChannelWidthInMhz::WIDTH_40"
    },
    {
     "enum_field_value" : 2,
     "name" : "android::hardware::wifi::V1_0::WifiChannelWidthInMhz::WIDTH_80"
    },
    {
     "enum_field_value" : 3,
     "name" : "android::hardware::wifi::V1_0::WifiChannelWidthInMhz::WIDTH_160"
    },
    {
     "enum_field_value" : 4,
     "name" : "android::hardware::wifi::V1_0::WifiChannelWidthInMhz::WIDTH_80P80"
    },
    {
     "enum_field_value" : 5,
     "name" : "android::hardware::wifi::V1_0::WifiChannelWidthInMhz::WIDTH_5"
    },
    {
     "enum_field_value" : 6,
     "name" : "android::hardware::wifi::V1_0::WifiChannelWidthInMhz::WIDTH_10"
    },
    {
     "enum_field_value" : -1,
     "name" : "android::hardware::wifi::V1_0::WifiChannelWidthInMhz::WIDTH_INVALID"
    }
   ],
   "linker_set_key" : "android::hardware::wifi::V1_0::WifiChannelWidthInMhz",
   "name" : "android::hardware::wifi::V1_0::WifiChannelWidthInMhz",
   "referenced_type" : "type-20",
   "self_type" : "type-20",
   "size" : 4,
   "source_file" : "/out/soong/.intermediates/hardware/interfaces/wifi/1.0/android.hardware.wifi@1.0_genc++_headers/gen/android/hardware/wifi/1.0/types.h",
   "underlying_type" : "type-2",
   "unique_id" : "_ZTSN7android8hardware4wifi4V1_021WifiChannelWidthInMhzE"
  },
  {
   "alignment" : 4,
   "enum_fields" :
   [
    {
     "enum_field_value" : 0,
     "name" : "android::hardware::wifi::V1_0::WifiDebugPacketFateFrameType::UNKNOWN"
    },
    {
     "enum_field_value" : 1,
     "name" : "android::hardware::wifi::V1_0::WifiDebugPacketFateFrameType::ETHERNET_II"
    },
    {
     "enum_field_value" : 2,
     "name" : "android::hardware::wifi::V1_0::WifiDebugPacketFateFrameType::MGMT_80211"
    }
   ],
   "linker_set_key" : "android::hardware::wifi::V1_0::WifiDebugPacketFateFrameType",
   "name" : "android::hardware::wifi::V1_0::WifiDebugPacketFateFrameType",
   "referenced_type" : "type-150",
   "self_type" : "type-150",
   "size" : 4,
   "source_file" : "/out/soong/.intermediates/hardware/interfaces/wifi/1.0/android.hardware.wifi@1.0_genc++_headers/gen/android/hardware/wifi/1.0/types.h",
   "underlying_type" : "type-2",
   "unique_id" : "_ZTSN7android8hardware4wifi4V1_028WifiDebugPacketFateFrameTypeE"
  },
  {
   "alignment" : 4,
   "enum_fields" :
   [
    {
     "enum_field_value" : 1,
     "name" : "android::hardware::wifi::V1_0::WifiDebugRingBufferFlags::HAS_BINARY_ENTRIES"
    },
    {
     "enum_field_value" : 2,
     "name" : "android::hardware::wifi::V1_0::WifiDebugRingBufferFlags::HAS_ASCII_ENTRIES"
    },
    {
     "enum_field_value" : 4,
     "name" : "android::hardware::wifi::V1_0::WifiDebugRingBufferFlags::HAS_PER_PACKET_ENTRIES"
    }
   ],
   "linker_set_key" : "android::hardware::wifi::V1_0::WifiDebugRingBufferFlags",
   "name" : "android::hardware::wifi::V1_0::WifiDebugRingBufferFlags",
   "referenced_type" : "type-144",
   "self_type" : "type-144",
   "size" : 4,
   "source_file" : "/out/soong/.intermediates/hardware/interfaces/wifi/1.0/android.hardware.wifi@1.0_genc++_headers/gen/android/hardware/wifi/1.0/types.h",
   "underlying_type" : "type-2",
   "unique_id" : "_ZTSN7android8hardware4wifi4V1_024WifiDebugRingBufferFlagsE"
  },
  {
   "alignment" : 4,
   "enum_fields" :
   [
    {
     "enum_field_value" : 0,
     "name" : "android::hardware::wifi::V1_0::WifiDebugRingBufferVerboseLevel::NONE"
    },
    {
     "enum_field_value" : 1,
     "name" : "android::hardware::wifi::V1_0::WifiDebugRingBufferVerboseLevel::DEFAULT"
    },
    {
     "enum_field_value" : 2,
     "name" : "android::hardware::wifi::V1_0::WifiDebugRingBufferVerboseLevel::VERBOSE"
    },
    {
     "enum_field_value" : 3,
     "name" : "android::hardware::wifi::V1_0::WifiDebugRingBufferVerboseLevel::EXCESSIVE"
    }
   ],
   "linker_set_key" : "android::hardware::wifi::V1_0::WifiDebugRingBufferVerboseLevel",
   "name" : "android::hardware::wifi::V1_0::WifiDebugRingBufferVerboseLevel",
   "referenced_type" : "type-147",
   "self_type" : "type-147",
   "size" : 4,
   "source_file" : "/out/soong/.intermediates/hardware/interfaces/wifi/1.0/android.hardware.wifi@1.0_genc++_headers/gen/android/hardware/wifi/1.0/types.h",
   "underlying_type" : "type-2",
   "unique_id" : "_ZTSN7android8hardware4wifi4V1_031WifiDebugRingBufferVerboseLevelE"
  },
  {
   "alignment" : 4,
   "enum_fields" :
   [
    {
     "enum_field_value" : 0,
     "name" : "android::hardware::wifi::V1_0::WifiDebugRxPacketFate::SUCCESS"
    },
    {
     "enum_field_value" : 1,
     "name" : "android::hardware::wifi::V1_0::WifiDebugRxPacketFate::FW_QUEUED"
    },
    {
     "enum_field_value" : 2,
     "name" : "android::hardware::wifi::V1_0::WifiDebugRxPacketFate::FW_DROP_FILTER"
    },
    {
     "enum_field_value" : 3,
     "name" : "android::hardware::wifi::V1_0::WifiDebugRxPacketFate::FW_DROP_INVALID"
    },
    {
     "enum_field_value" : 4,
     "name" : "android::hardware::wifi::V1_0::WifiDebugRxPacketFate::FW_DROP_NOBUFS"
    },
    {
     "enum_field_value" : 5,
     "name" : "android::hardware::wifi::V1_0::WifiDebugRxPacketFate::FW_DROP_OTHER"
    },
    {
     "enum_field_value" : 6,
     "name" : "android::hardware::wifi::V1_0::WifiDebugRxPacketFate::DRV_QUEUED"
    },
    {
     "enum_field_value" : 7,
     "name" : "android::hardware::wifi::V1_0::WifiDebugRxPacketFate::DRV_DROP_FILTER"
    },
    {
     "enum_field_value" : 8,
     "name" : "android::hardware::wifi::V1_0::WifiDebugRxPacketFate::DRV_DROP_INVALID"
    },
    {
     "enum_field_value" : 9,
     "name" : "android::hardware::wifi::V1_0::WifiDebugRxPacketFate::DRV_DROP_NOBUFS"
    },
    {
     "enum_field_value" : 10,
     "name" : "android::hardware::wifi::V1_0::WifiDebugRxPacketFate::DRV_DROP_OTHER"
    }
   ],
   "linker_set_key" : "android::hardware::wifi::V1_0::WifiDebugRxPacketFate",
   "name" : "android::hardware::wifi::V1_0::WifiDebugRxPacketFate",
   "referenced_type" : "type-149",
   "self_type" : "type-149",
   "size" : 4,
   "source_file" : "/out/soong/.intermediates/hardware/interfaces/wifi/1.0/android.hardware.wifi@1.0_genc++_headers/gen/android/hardware/wifi/1.0/types.h",
   "underlying_type" : "type-2",
   "unique_id" : "_ZTSN7android8hardware4wifi4V1_021WifiDebugRxPacketFateE"
  },
  {
   "alignment" : 4,
   "enum_fields" :
   [
    {
     "enum_field_value" : 0,
     "name" : "android::hardware::wifi::V1_0::WifiDebugTxPacketFate::ACKED"
    },
    {
     "enum_field_value" : 1,
     "name" : "android::hardware::wifi::V1_0::WifiDebugTxPacketFate::SENT"
    },
    {
     "enum_field_value" : 2,
     "name" : "android::hardware::wifi::V1_0::WifiDebugTxPacketFate::FW_QUEUED"
    },
    {
     "enum_field_value" : 3,
     "name" : "android::hardware::wifi::V1_0::WifiDebugTxPacketFate::FW_DROP_INVALID"
    },
    {
     "enum_field_value" : 4,
     "name" : "android::hardware::wifi::V1_0::WifiDebugTxPacketFate::FW_DROP_NOBUFS"
    },
    {
     "enum_field_value" : 5,
     "name" : "android::hardware::wifi::V1_0::WifiDebugTxPacketFate::FW_DROP_OTHER"
    },
    {
     "enum_field_value" : 6,
     "name" : "android::hardware::wifi::V1_0::WifiDebugTxPacketFate::DRV_QUEUED"
    },
    {
     "enum_field_value" : 7,
     "name" : "android::hardware::wifi::V1_0::WifiDebugTxPacketFate::DRV_DROP_INVALID"
    },
    {
     "enum_field_value" : 8,
     "name" : "android::hardware::wifi::V1_0::WifiDebugTxPacketFate::DRV_DROP_NOBUFS"
    },
    {
     "enum_field_value" : 9,
     "name" : "android::hardware::wifi::V1_0::WifiDebugTxPacketFate::DRV_DROP_OTHER"
    }
   ],
   "linker_set_key" : "android::hardware::wifi::V1_0::WifiDebugTxPacketFate",
   "name" : "android::hardware::wifi::V1_0::WifiDebugTxPacketFate",
   "referenced_type" : "type-148",
   "self_type" : "type-148",
   "size" : 4,
   "source_file" : "/out/soong/.intermediates/hardware/interfaces/wifi/1.0/android.hardware.wifi@1.0_genc++_headers/gen/android/hardware/wifi/1.0/types.h",
   "underlying_type" : "type-2",
   "unique_id" : "_ZTSN7android8hardware4wifi4V1_021WifiDebugTxPacketFateE"
  },
  {
   "alignment" : 4,
   "enum_fields" :
   [
    {
     "enum_field_value" : 0,
     "name" : "android::hardware::wifi::V1_0::WifiRateNss::NSS_1x1"
    },
    {
     "enum_field_value" : 1,
     "name" : "android::hardware::wifi::V1_0::WifiRateNss::NSS_2x2"
    },
    {
     "enum_field_value" : 2,
     "name" : "android::hardware::wifi::V1_0::WifiRateNss::NSS_3x3"
    },
    {
     "enum_field_value" : 3,
     "name" : "android::hardware::wifi::V1_0::WifiRateNss::NSS_4x4"
    }
   ],
   "linker_set_key" : "android::hardware::wifi::V1_0::WifiRateNss",
   "name" : "android::hardware::wifi::V1_0::WifiRateNss",
   "referenced_type" : "type-17",
   "self_type" : "type-17",
   "size" : 4,
   "source_file" : "/out/soong/.intermediates/hardware/interfaces/wifi/1.0/android.hardware.wifi@1.0_genc++_headers/gen/android/hardware/wifi/1.0/types.h",
   "underlying_type" : "type-2",
   "unique_id" : "_ZTSN7android8hardware4wifi4V1_011WifiRateNssE"
  },
  {
   "alignment" : 4,
   "enum_fields" :
   [
    {
     "enum_field_value" : 0,
     "name" : "android::hardware::wifi::V1_0::WifiRatePreamble::OFDM"
    },
    {
     "enum_field_value" : 1,
     "name" : "android::hardware::wifi::V1_0::WifiRatePreamble::CCK"
    },
    {
     "enum_field_value" : 2,
     "name" : "android::hardware::wifi::V1_0::WifiRatePreamble::HT"
    },
    {
     "enum_field_value" : 3,
     "name" : "android::hardware::wifi::V1_0::WifiRatePreamble::VHT"
    },
    {
     "enum_field_value" : 4,
     "name" : "android::hardware::wifi::V1_0::WifiRatePreamble::RESERVED"
    }
   ],
   "linker_set_key" : "android::hardware::wifi::V1_0::WifiRatePreamble",
   "name" : "android::hardware::wifi::V1_0::WifiRatePreamble",
   "referenced_type" : "type-19",
   "self_type" : "type-19",
   "size" : 4,
   "source_file" : "/out/soong/.intermediates/hardware/interfaces/wifi/1.0/android.hardware.wifi@1.0_genc++_headers/gen/android/hardware/wifi/1.0/types.h",
   "underlying_type" : "type-2",
   "unique_id" : "_ZTSN7android8hardware4wifi4V1_016WifiRatePreambleE"
  },
  {
   "alignment" : 4,
   "enum_fields" :
   [
    {
     "enum_field_value" : 0,
     "name" : "android::hardware::wifi::V1_0::WifiStatusCode::SUCCESS"
    },
    {
     "enum_field_value" : 1,
     "name" : "android::hardware::wifi::V1_0::WifiStatusCode::ERROR_WIFI_CHIP_INVALID"
    },
    {
     "enum_field_value" : 2,
     "name" : "android::hardware::wifi::V1_0::WifiStatusCode::ERROR_WIFI_IFACE_INVALID"
    },
    {
     "enum_field_value" : 3,
     "name" : "android::hardware::wifi::V1_0::WifiStatusCode::ERROR_WIFI_RTT_CONTROLLER_INVALID"
    },
    {
     "enum_field_value" : 4,
     "name" : "android::hardware::wifi::V1_0::WifiStatusCode::ERROR_NOT_SUPPORTED"
    },
    {
     "enum_field_value" : 5,
     "name" : "android::hardware::wifi::V1_0::WifiStatusCode::ERROR_NOT_AVAILABLE"
    },
    {
     "enum_field_value" : 6,
     "name" : "android::hardware::wifi::V1_0::WifiStatusCode::ERROR_NOT_STARTED"
    },
    {
     "enum_field_value" : 7,
     "name" : "android::hardware::wifi::V1_0::WifiStatusCode::ERROR_INVALID_ARGS"
    },
    {
     "enum_field_value" : 8,
     "name" : "android::hardware::wifi::V1_0::WifiStatusCode::ERROR_BUSY"
    },
    {
     "enum_field_value" : 9,
     "name" : "android::hardware::wifi::V1_0::WifiStatusCode::ERROR_UNKNOWN"
    }
   ],
   "linker_set_key" : "android::hardware::wifi::V1_0::WifiStatusCode",
   "name" : "android::hardware::wifi::V1_0::WifiStatusCode",
   "referenced_type" : "type-160",
   "self_type" : "type-160",
   "size" : 4,
   "source_file" : "/out/soong/.intermediates/hardware/interfaces/wifi/1.0/android.hardware.wifi@1.0_genc++_headers/gen/android/hardware/wifi/1.0/types.h",
   "underlying_type" : "type-2",
   "unique_id" : "_ZTSN7android8hardware4wifi4V1_014WifiStatusCodeE"
  },
  {
   "alignment" : 4,
   "enum_fields" :
   [
    {
     "enum_field_value" : 1,
     "name" : "android::hardware::wifi::V1_1::IWifiChip::ChipCapabilityMask::DEBUG_MEMORY_FIRMWARE_DUMP"
    },
    {
     "enum_field_value" : 2,
     "name" : "android::hardware::wifi::V1_1::IWifiChip::ChipCapabilityMask::DEBUG_MEMORY_DRIVER_DUMP"
    },
    {
     "enum_field_value" : 4,
     "name" : "android::hardware::wifi::V1_1::IWifiChip::ChipCapabilityMask::DEBUG_RING_BUFFER_CONNECT_EVENT"
    },
    {
     "enum_field_value" : 8,
     "name" : "android::hardware::wifi::V1_1::IWifiChip::ChipCapabilityMask::DEBUG_RING_BUFFER_POWER_EVENT"
    },
    {
     "enum_field_value" : 16,
     "name" : "android::hardware::wifi::V1_1::IWifiChip::ChipCapabilityMask::DEBUG_RING_BUFFER_WAKELOCK_EVENT"
    },
    {
     "enum_field_value" : 32,
     "name" : "android::hardware::wifi::V1_1::IWifiChip::ChipCapabilityMask::DEBUG_RING_BUFFER_VENDOR_DATA"
    },
    {
     "enum_field_value" : 64,
     "name" : "android::hardware::wifi::V1_1::IWifiChip::ChipCapabilityMask::DEBUG_HOST_WAKE_REASON_STATS"
    },
    {
     "enum_field_value" : 128,
     "name" : "android::hardware::wifi::V1_1::IWifiChip::ChipCapabilityMask::DEBUG_ERROR_ALERTS"
    },
    {
     "enum_field_value" : 256,
     "name" : "android::hardware::wifi::V1_1::IWifiChip::ChipCapabilityMask::SET_TX_POWER_LIMIT"
    },
    {
     "enum_field_value" : 512,
     "name" : "android::hardware::wifi::V1_1::IWifiChip::ChipCapabilityMask::D2D_RTT"
    },
    {
     "enum_field_value" : 1024,
     "name" : "android::hardware::wifi::V1_1::IWifiChip::ChipCapabilityMask::D2AP_RTT"
    }
   ],
   "linker_set_key" : "android::hardware::wifi::V1_1::IWifiChip::ChipCapabilityMask",
   "name" : "android::hardware::wifi::V1_1::IWifiChip::ChipCapabilityMask",
   "referenced_type" : "type-340",
   "self_type" : "type-340",
   "size" : 4,
   "source_file" : "/out/soong/.intermediates/hardware/interfaces/wifi/1.1/android.hardware.wifi@1.1_genc++_headers/gen/android/hardware/wifi/1.1/IWifiChip.h",
   "underlying_type" : "type-2",
   "unique_id" : "_ZTSN7android8hardware4wifi4V1_19IWifiChip18ChipCapabilityMaskE"
  },
  {
   "alignment" : 4,
   "enum_fields" :
   [
    {
     "enum_field_value" : 0,
     "name" : "android::hardware::wifi::V1_1::IWifiChip::TxPowerScenario::VOICE_CALL"
    }
   ],
   "linker_set_key" : "android::hardware::wifi::V1_1::IWifiChip::TxPowerScenario",
   "name" : "android::hardware::wifi::V1_1::IWifiChip::TxPowerScenario",
   "referenced_type" : "type-341",
   "self_type" : "type-341",
   "size" : 4,
   "source_file" : "/out/soong/.intermediates/hardware/interfaces/wifi/1.1/android.hardware.wifi@1.1_genc++_headers/gen/android/hardware/wifi/1.1/IWifiChip.h",
   "underlying_type" : "type-2",
   "unique_id" : "_ZTSN7android8hardware4wifi4V1_19IWifiChip15TxPowerScenarioE"
  },
  {
   "alignment" : 4,
   "enum_fields" :
   [
    {
     "enum_field_value" : 1,
     "name" : "android::hardware::wifi::V1_2::IWifiChip::ChipCapabilityMask::DEBUG_MEMORY_FIRMWARE_DUMP"
    },
    {
     "enum_field_value" : 2,
     "name" : "android::hardware::wifi::V1_2::IWifiChip::ChipCapabilityMask::DEBUG_MEMORY_DRIVER_DUMP"
    },
    {
     "enum_field_value" : 4,
     "name" : "android::hardware::wifi::V1_2::IWifiChip::ChipCapabilityMask::DEBUG_RING_BUFFER_CONNECT_EVENT"
    },
    {
     "enum_field_value" : 8,
     "name" : "android::hardware::wifi::V1_2::IWifiChip::ChipCapabilityMask::DEBUG_RING_BUFFER_POWER_EVENT"
    },
    {
     "enum_field_value" : 16,
     "name" : "android::hardware::wifi::V1_2::IWifiChip::ChipCapabilityMask::DEBUG_RING_BUFFER_WAKELOCK_EVENT"
    },
    {
     "enum_field_value" : 32,
     "name" : "android::hardware::wifi::V1_2::IWifiChip::ChipCapabilityMask::DEBUG_RING_BUFFER_VENDOR_DATA"
    },
    {
     "enum_field_value" : 64,
     "name" : "android::hardware::wifi::V1_2::IWifiChip::ChipCapabilityMask::DEBUG_HOST_WAKE_REASON_STATS"
    },
    {
     "enum_field_value" : 128,
     "name" : "android::hardware::wifi::V1_2::IWifiChip::ChipCapabilityMask::DEBUG_ERROR_ALERTS"
    },
    {
     "enum_field_value" : 256,
     "name" : "android::hardware::wifi::V1_2::IWifiChip::ChipCapabilityMask::SET_TX_POWER_LIMIT"
    },
    {
     "enum_field_value" : 512,
     "name" : "android::hardware::wifi::V1_2::IWifiChip::ChipCapabilityMask::D2D_RTT"
    },
    {
     "enum_field_value" : 1024,
     "name" : "android::hardware::wifi::V1_2::IWifiChip::ChipCapabilityMask::D2AP_RTT"
    },
    {
     "enum_field_value" : 2048,
     "name" : "android::hardware::wifi::V1_2::IWifiChip::ChipCapabilityMask::USE_BODY_HEAD_SAR"
    }
   ],
   "linker_set_key" : "android::hardware::wifi::V1_2::IWifiChip::ChipCapabilityMask",
   "name" : "android::hardware::wifi::V1_2::IWifiChip::ChipCapabilityMask",
   "referenced_type" : "type-358",
   "self_type" : "type-358",
   "size" : 4,
   "source_file" : "/out/soong/.intermediates/hardware/interfaces/wifi/1.2/android.hardware.wifi@1.2_genc++_headers/gen/android/hardware/wifi/1.2/IWifiChip.h",
   "underlying_type" : "type-2",
   "unique_id" : "_ZTSN7android8hardware4wifi4V1_29IWifiChip18ChipCapabilityMaskE"
  },
  {
   "alignment" : 4,
   "enum_fields" :
   [
    {
     "enum_field_value" : 0,
     "name" : "android::hardware::wifi::V1_2::IWifiChip::TxPowerScenario::VOICE_CALL"
    },
    {
     "enum_field_value" : 1,
     "name" : "android::hardware::wifi::V1_2::IWifiChip::TxPowerScenario::ON_HEAD_CELL_OFF"
    },
    {
     "enum_field_value" : 2,
     "name" : "android::hardware::wifi::V1_2::IWifiChip::TxPowerScenario::ON_HEAD_CELL_ON"
    },
    {
     "enum_field_value" : 3,
     "name" : "android::hardware::wifi::V1_2::IWifiChip::TxPowerScenario::ON_BODY_CELL_OFF"
    },
    {
     "enum_field_value" : 4,
     "name" : "android::hardware::wifi::V1_2::IWifiChip::TxPowerScenario::ON_BODY_CELL_ON"
    }
   ],
   "linker_set_key" : "android::hardware::wifi::V1_2::IWifiChip::TxPowerScenario",
   "name" : "android::hardware::wifi::V1_2::IWifiChip::TxPowerScenario",
   "referenced_type" : "type-359",
   "self_type" : "type-359",
   "size" : 4,
   "source_file" : "/out/soong/.intermediates/hardware/interfaces/wifi/1.2/android.hardware.wifi@1.2_genc++_headers/gen/android/hardware/wifi/1.2/IWifiChip.h",
   "underlying_type" : "type-2",
   "unique_id" : "_ZTSN7android8hardware4wifi4V1_29IWifiChip15TxPowerScenarioE"
  },
  {
   "alignment" : 4,
   "enum_fields" :
   [
    {
     "enum_field_value" : 1,
     "name" : "android::hardware::wifi::V1_3::IWifiChip::ChipCapabilityMask::DEBUG_MEMORY_FIRMWARE_DUMP"
    },
    {
     "enum_field_value" : 2,
     "name" : "android::hardware::wifi::V1_3::IWifiChip::ChipCapabilityMask::DEBUG_MEMORY_DRIVER_DUMP"
    },
    {
     "enum_field_value" : 4,
     "name" : "android::hardware::wifi::V1_3::IWifiChip::ChipCapabilityMask::DEBUG_RING_BUFFER_CONNECT_EVENT"
    },
    {
     "enum_field_value" : 8,
     "name" : "android::hardware::wifi::V1_3::IWifiChip::ChipCapabilityMask::DEBUG_RING_BUFFER_POWER_EVENT"
    },
    {
     "enum_field_value" : 16,
     "name" : "android::hardware::wifi::V1_3::IWifiChip::ChipCapabilityMask::DEBUG_RING_BUFFER_WAKELOCK_EVENT"
    },
    {
     "enum_field_value" : 32,
     "name" : "android::hardware::wifi::V1_3::IWifiChip::ChipCapabilityMask::DEBUG_RING_BUFFER_VENDOR_DATA"
    },
    {
     "enum_field_value" : 64,
     "name" : "android::hardware::wifi::V1_3::IWifiChip::ChipCapabilityMask::DEBUG_HOST_WAKE_REASON_STATS"
    },
    {
     "enum_field_value" : 128,
     "name" : "android::hardware::wifi::V1_3::IWifiChip::ChipCapabilityMask::DEBUG_ERROR_ALERTS"
    },
    {
     "enum_field_value" : 256,
     "name" : "android::hardware::wifi::V1_3::IWifiChip::ChipCapabilityMask::SET_TX_POWER_LIMIT"
    },
    {
     "enum_field_value" : 512,
     "name" : "android::hardware::wifi::V1_3::IWifiChip::ChipCapabilityMask::D2D_RTT"
    },
    {
     "enum_field_value" : 1024,
     "name" : "android::hardware::wifi::V1_3::IWifiChip::ChipCapabilityMask::D2AP_RTT"
    },
    {
     "enum_field_value" : 2048,
     "name" : "android::hardware::wifi::V1_3::IWifiChip::ChipCapabilityMask::USE_BODY_HEAD_SAR"
    },
    {
     "enum_field_value" : 4096,
     "name" : "android::hardware::wifi::V1_3::IWifiChip::ChipCapabilityMask::SET_LATENCY_MODE"
    },
    {
     "enum_field_value" : 8192,
     "name" : "android::hardware::wifi::V1_3::IWifiChip::ChipCapabilityMask::P2P_RAND_MAC"
    }
   ],
   "linker_set_key" : "android::hardware::wifi::V1_3::IWifiChip::ChipCapabilityMask",
   "name" : "android::hardware::wifi::V1_3::IWifiChip::ChipCapabilityMask",
   "referenced_type" : "type-369",
   "self_type" : "type-369",
   "size" : 4,
   "source_file" : "/out/soong/.intermediates/hardware/interfaces/wifi/1.3/android.hardware.wifi@1.3_genc++_headers/gen/android/hardware/wifi/1.3/IWifiChip.h",
   "underlying_type" : "type-2",
   "unique_id" : "_ZTSN7android8hardware4wifi4V1_39IWifiChip18ChipCapabilityMaskE"
  },
  {
   "alignment" : 4,
   "enum_fields" :
   [
    {
     "enum_field_value" : 0,
     "name" : "android::hardware::wifi::V1_3::IWifiChip::LatencyMode::NORMAL"
    },
    {
     "enum_field_value" : 1,
     "name" : "android::hardware::wifi::V1_3::IWifiChip::LatencyMode::LOW"
    }
   ],
   "linker_set_key" : "android::hardware::wifi::V1_3::IWifiChip::LatencyMode",
   "name" : "android::hardware::wifi::V1_3::IWifiChip::LatencyMode",
   "referenced_type" : "type-370",
   "self_type" : "type-370",
   "size" : 4,
   "source_file" : "/out/soong/.intermediates/hardware/interfaces/wifi/1.3/android.hardware.wifi@1.3_genc++_headers/gen/android/hardware/wifi/1.3/IWifiChip.h",
   "underlying_type" : "type-2",
   "unique_id" : "_ZTSN7android8hardware4wifi4V1_39IWifiChip11LatencyModeE"
  },
  {
   "alignment" : 4,
   "enum_fields" :
   [
    {
     "enum_field_value" : 0,
     "name" : "android::hidl::base::V1_0::DebugInfo::Architecture::UNKNOWN"
    },
    {
     "enum_field_value" : 1,
     "name" : "android::hidl::base::V1_0::DebugInfo::Architecture::IS_64BIT"
    },
    {
     "enum_field_value" : 2,
     "name" : "android::hidl::base::V1_0::DebugInfo::Architecture::IS_32BIT"
    }
   ],
   "linker_set_key" : "android::hidl::base::V1_0::DebugInfo::Architecture",
   "name" : "android::hidl::base::V1_0::DebugInfo::Architecture",
   "referenced_type" : "type-1548",
   "self_type" : "type-1548",
   "size" : 4,
   "source_file" : "/out/soong/.intermediates/system/libhidl/transport/base/1.0/android.hidl.base@1.0_genc++_headers/gen/android/hidl/base/1.0/types.h",
   "underlying_type" : "type-23",
   "unique_id" : "_ZTSN7android4hidl4base4V1_09DebugInfo12ArchitectureE"
  },
  {
   "alignment" : 4,
   "enum_fields" :
   [
    {
     "enum_field_value" : -1,
     "name" : "android::hidl::manager::V1_0::IServiceManager::PidConstant::NO_PID"
    }
   ],
   "linker_set_key" : "android::hidl::manager::V1_0::IServiceManager::PidConstant",
   "name" : "android::hidl::manager::V1_0::IServiceManager::PidConstant",
   "referenced_type" : "type-1688",
   "self_type" : "type-1688",
   "size" : 4,
   "source_file" : "/out/soong/.intermediates/system/libhidl/transport/manager/1.0/android.hidl.manager@1.0_genc++_headers/gen/android/hidl/manager/1.0/IServiceManager.h",
   "underlying_type" : "type-23",
   "unique_id" : "_ZTSN7android4hidl7manager4V1_015IServiceManager11PidConstantE"
  },
  {
   "alignment" : 1,
   "enum_fields" :
   [
    {
     "enum_field_value" : 0,
     "name" : "android::hidl::manager::V1_0::IServiceManager::Transport::EMPTY"
    },
    {
     "enum_field_value" : 1,
     "name" : "android::hidl::manager::V1_0::IServiceManager::Transport::HWBINDER"
    },
    {
     "enum_field_value" : 2,
     "name" : "android::hidl::manager::V1_0::IServiceManager::Transport::PASSTHROUGH"
    }
   ],
   "linker_set_key" : "android::hidl::manager::V1_0::IServiceManager::Transport",
   "name" : "android::hidl::manager::V1_0::IServiceManager::Transport",
   "referenced_type" : "type-1687",
   "self_type" : "type-1687",
   "size" : 1,
   "source_file" : "/out/soong/.intermediates/system/libhidl/transport/manager/1.0/android.hidl.manager@1.0_genc++_headers/gen/android/hidl/manager/1.0/IServiceManager.h",
   "underlying_type" : "type-5",
   "unique_id" : "_ZTSN7android4hidl7manager4V1_015IServiceManager9TransportE"
  },
  {
   "alignment" : 4,
   "enum_fields" :
   [
    {
     "enum_field_value" : 0,
     "name" : "ANDROID_LOG_UNKNOWN"
    },
    {
     "enum_field_value" : 1,
     "name" : "ANDROID_LOG_DEFAULT"
    },
    {
     "enum_field_value" : 2,
     "name" : "ANDROID_LOG_VERBOSE"
    },
    {
     "enum_field_value" : 3,
     "name" : "ANDROID_LOG_DEBUG"
    },
    {
     "enum_field_value" : 4,
     "name" : "ANDROID_LOG_INFO"
    },
    {
     "enum_field_value" : 5,
     "name" : "ANDROID_LOG_WARN"
    },
    {
     "enum_field_value" : 6,
     "name" : "ANDROID_LOG_ERROR"
    },
    {
     "enum_field_value" : 7,
     "name" : "ANDROID_LOG_FATAL"
    },
    {
     "enum_field_value" : 8,
     "name" : "ANDROID_LOG_SILENT"
    }
   ],
   "linker_set_key" : "android_LogPriority",
   "name" : "android_LogPriority",
   "referenced_type" : "type-1",
   "self_type" : "type-1",
   "size" : 4,
   "source_file" : "/system/core/liblog/include/android/log.h",
   "underlying_type" : "type-2",
   "unique_id" : "android_LogPriority"
  },
  {
   "alignment" : 4,
   "enum_fields" :
   [
    {
     "enum_field_value" : 0,
     "name" : "HAL_COLOR_MODE_NATIVE"
    },
    {
     "enum_field_value" : 1,
     "name" : "HAL_COLOR_MODE_STANDARD_BT601_625"
    },
    {
     "enum_field_value" : 2,
     "name" : "HAL_COLOR_MODE_STANDARD_BT601_625_UNADJUSTED"
    },
    {
     "enum_field_value" : 3,
     "name" : "HAL_COLOR_MODE_STANDARD_BT601_525"
    },
    {
     "enum_field_value" : 4,
     "name" : "HAL_COLOR_MODE_STANDARD_BT601_525_UNADJUSTED"
    },
    {
     "enum_field_value" : 5,
     "name" : "HAL_COLOR_MODE_STANDARD_BT709"
    },
    {
     "enum_field_value" : 6,
     "name" : "HAL_COLOR_MODE_DCI_P3"
    },
    {
     "enum_field_value" : 7,
     "name" : "HAL_COLOR_MODE_SRGB"
    },
    {
     "enum_field_value" : 8,
     "name" : "HAL_COLOR_MODE_ADOBE_RGB"
    },
    {
     "enum_field_value" : 9,
     "name" : "HAL_COLOR_MODE_DISPLAY_P3"
    }
   ],
   "linker_set_key" : "android_color_mode_t",
   "name" : "android_color_mode_t",
   "referenced_type" : "type-1637",
   "self_type" : "type-1637",
   "size" : 4,
   "source_file" : "/system/core/libsystem/include/system/graphics-base-v1.0.h",
   "underlying_type" : "type-2",
   "unique_id" : "android_color_mode_t"
  },
  {
   "alignment" : 4,
   "enum_fields" :
   [
    {
     "enum_field_value" : 10,
     "name" : "HAL_COLOR_MODE_BT2020"
    },
    {
     "enum_field_value" : 11,
     "name" : "HAL_COLOR_MODE_BT2100_PQ"
    },
    {
     "enum_field_value" : 12,
     "name" : "HAL_COLOR_MODE_BT2100_HLG"
    }
   ],
   "linker_set_key" : "android_color_mode_v1_1_t",
   "name" : "android_color_mode_v1_1_t",
   "referenced_type" : "type-1643",
   "self_type" : "type-1643",
   "size" : 4,
   "source_file" : "/system/core/libsystem/include/system/graphics-base-v1.1.h",
   "underlying_type" : "type-2",
   "unique_id" : "android_color_mode_v1_1_t"
  },
  {
   "alignment" : 4,
   "enum_fields" :
   [
    {
     "enum_field_value" : 0,
     "name" : "HAL_COLOR_TRANSFORM_IDENTITY"
    },
    {
     "enum_field_value" : 1,
     "name" : "HAL_COLOR_TRANSFORM_ARBITRARY_MATRIX"
    },
    {
     "enum_field_value" : 2,
     "name" : "HAL_COLOR_TRANSFORM_VALUE_INVERSE"
    },
    {
     "enum_field_value" : 3,
     "name" : "HAL_COLOR_TRANSFORM_GRAYSCALE"
    },
    {
     "enum_field_value" : 4,
     "name" : "HAL_COLOR_TRANSFORM_CORRECT_PROTANOPIA"
    },
    {
     "enum_field_value" : 5,
     "name" : "HAL_COLOR_TRANSFORM_CORRECT_DEUTERANOPIA"
    },
    {
     "enum_field_value" : 6,
     "name" : "HAL_COLOR_TRANSFORM_CORRECT_TRITANOPIA"
    }
   ],
   "linker_set_key" : "android_color_transform_t",
   "name" : "android_color_transform_t",
   "referenced_type" : "type-1638",
   "self_type" : "type-1638",
   "size" : 4,
   "source_file" : "/system/core/libsystem/include/system/graphics-base-v1.0.h",
   "underlying_type" : "type-2",
   "unique_id" : "android_color_transform_t"
  },
  {
   "alignment" : 4,
   "enum_fields" :
   [
    {
     "enum_field_value" : 0,
     "name" : "HAL_DATASPACE_UNKNOWN"
    },
    {
     "enum_field_value" : 1,
     "name" : "HAL_DATASPACE_ARBITRARY"
    },
    {
     "enum_field_value" : 16,
     "name" : "HAL_DATASPACE_STANDARD_SHIFT"
    },
    {
     "enum_field_value" : 4128768,
     "name" : "HAL_DATASPACE_STANDARD_MASK"
    },
    {
     "enum_field_value" : 0,
     "name" : "HAL_DATASPACE_STANDARD_UNSPECIFIED"
    },
    {
     "enum_field_value" : 65536,
     "name" : "HAL_DATASPACE_STANDARD_BT709"
    },
    {
     "enum_field_value" : 131072,
     "name" : "HAL_DATASPACE_STANDARD_BT601_625"
    },
    {
     "enum_field_value" : 196608,
     "name" : "HAL_DATASPACE_STANDARD_BT601_625_UNADJUSTED"
    },
    {
     "enum_field_value" : 262144,
     "name" : "HAL_DATASPACE_STANDARD_BT601_525"
    },
    {
     "enum_field_value" : 327680,
     "name" : "HAL_DATASPACE_STANDARD_BT601_525_UNADJUSTED"
    },
    {
     "enum_field_value" : 393216,
     "name" : "HAL_DATASPACE_STANDARD_BT2020"
    },
    {
     "enum_field_value" : 458752,
     "name" : "HAL_DATASPACE_STANDARD_BT2020_CONSTANT_LUMINANCE"
    },
    {
     "enum_field_value" : 524288,
     "name" : "HAL_DATASPACE_STANDARD_BT470M"
    },
    {
     "enum_field_value" : 589824,
     "name" : "HAL_DATASPACE_STANDARD_FILM"
    },
    {
     "enum_field_value" : 655360,
     "name" : "HAL_DATASPACE_STANDARD_DCI_P3"
    },
    {
     "enum_field_value" : 720896,
     "name" : "HAL_DATASPACE_STANDARD_ADOBE_RGB"
    },
    {
     "enum_field_value" : 22,
     "name" : "HAL_DATASPACE_TRANSFER_SHIFT"
    },
    {
     "enum_field_value" : 130023424,
     "name" : "HAL_DATASPACE_TRANSFER_MASK"
    },
    {
     "enum_field_value" : 0,
     "name" : "HAL_DATASPACE_TRANSFER_UNSPECIFIED"
    },
    {
     "enum_field_value" : 4194304,
     "name" : "HAL_DATASPACE_TRANSFER_LINEAR"
    },
    {
     "enum_field_value" : 8388608,
     "name" : "HAL_DATASPACE_TRANSFER_SRGB"
    },
    {
     "enum_field_value" : 12582912,
     "name" : "HAL_DATASPACE_TRANSFER_SMPTE_170M"
    },
    {
     "enum_field_value" : 16777216,
     "name" : "HAL_DATASPACE_TRANSFER_GAMMA2_2"
    },
    {
     "enum_field_value" : 20971520,
     "name" : "HAL_DATASPACE_TRANSFER_GAMMA2_6"
    },
    {
     "enum_field_value" : 25165824,
     "name" : "HAL_DATASPACE_TRANSFER_GAMMA2_8"
    },
    {
     "enum_field_value" : 29360128,
     "name" : "HAL_DATASPACE_TRANSFER_ST2084"
    },
    {
     "enum_field_value" : 33554432,
     "name" : "HAL_DATASPACE_TRANSFER_HLG"
    },
    {
     "enum_field_value" : 27,
     "name" : "HAL_DATASPACE_RANGE_SHIFT"
    },
    {
     "enum_field_value" : 939524096,
     "name" : "HAL_DATASPACE_RANGE_MASK"
    },
    {
     "enum_field_value" : 0,
     "name" : "HAL_DATASPACE_RANGE_UNSPECIFIED"
    },
    {
     "enum_field_value" : 134217728,
     "name" : "HAL_DATASPACE_RANGE_FULL"
    },
    {
     "enum_field_value" : 268435456,
     "name" : "HAL_DATASPACE_RANGE_LIMITED"
    },
    {
     "enum_field_value" : 402653184,
     "name" : "HAL_DATASPACE_RANGE_EXTENDED"
    },
    {
     "enum_field_value" : 512,
     "name" : "HAL_DATASPACE_SRGB_LINEAR"
    },
    {
     "enum_field_value" : 138477568,
     "name" : "HAL_DATASPACE_V0_SRGB_LINEAR"
    },
    {
     "enum_field_value" : 406913024,
     "name" : "HAL_DATASPACE_V0_SCRGB_LINEAR"
    },
    {
     "enum_field_value" : 513,
     "name" : "HAL_DATASPACE_SRGB"
    },
    {
     "enum_field_value" : 142671872,
     "name" : "HAL_DATASPACE_V0_SRGB"
    },
    {
     "enum_field_value" : 411107328,
     "name" : "HAL_DATASPACE_V0_SCRGB"
    },
    {
     "enum_field_value" : 257,
     "name" : "HAL_DATASPACE_JFIF"
    },
    {
     "enum_field_value" : 146931712,
     "name" : "HAL_DATASPACE_V0_JFIF"
    },
    {
     "enum_field_value" : 258,
     "name" : "HAL_DATASPACE_BT601_625"
    },
    {
     "enum_field_value" : 281149440,
     "name" : "HAL_DATASPACE_V0_BT601_625"
    },
    {
     "enum_field_value" : 259,
     "name" : "HAL_DATASPACE_BT601_525"
    },
    {
     "enum_field_value" : 281280512,
     "name" : "HAL_DATASPACE_V0_BT601_525"
    },
    {
     "enum_field_value" : 260,
     "name" : "HAL_DATASPACE_BT709"
    },
    {
     "enum_field_value" : 281083904,
     "name" : "HAL_DATASPACE_V0_BT709"
    },
    {
     "enum_field_value" : 139067392,
     "name" : "HAL_DATASPACE_DCI_P3_LINEAR"
    },
    {
     "enum_field_value" : 155844608,
     "name" : "HAL_DATASPACE_DCI_P3"
    },
    {
     "enum_field_value" : 139067392,
     "name" : "HAL_DATASPACE_DISPLAY_P3_LINEAR"
    },
    {
     "enum_field_value" : 143261696,
     "name" : "HAL_DATASPACE_DISPLAY_P3"
    },
    {
     "enum_field_value" : 151715840,
     "name" : "HAL_DATASPACE_ADOBE_RGB"
    },
    {
     "enum_field_value" : 138805248,
     "name" : "HAL_DATASPACE_BT2020_LINEAR"
    },
    {
     "enum_field_value" : 147193856,
     "name" : "HAL_DATASPACE_BT2020"
    },
    {
     "enum_field_value" : 163971072,
     "name" : "HAL_DATASPACE_BT2020_PQ"
    },
    {
     "enum_field_value" : 4096,
     "name" : "HAL_DATASPACE_DEPTH"
    },
    {
     "enum_field_value" : 4097,
     "name" : "HAL_DATASPACE_SENSOR"
    }
   ],
   "linker_set_key" : "android_dataspace_t",
   "name" : "android_dataspace_t",
   "referenced_type" : "type-1636",
   "self_type" : "type-1636",
   "size" : 4,
   "source_file" : "/system/core/libsystem/include/system/graphics-base-v1.0.h",
   "underlying_type" : "type-2",
   "unique_id" : "android_dataspace_t"
  },
  {
   "alignment" : 4,
   "enum_fields" :
   [
    {
     "enum_field_value" : 281411584,
     "name" : "HAL_DATASPACE_BT2020_ITU"
    },
    {
     "enum_field_value" : 298188800,
     "name" : "HAL_DATASPACE_BT2020_ITU_PQ"
    },
    {
     "enum_field_value" : 302383104,
     "name" : "HAL_DATASPACE_BT2020_ITU_HLG"
    },
    {
     "enum_field_value" : 168165376,
     "name" : "HAL_DATASPACE_BT2020_HLG"
    }
   ],
   "linker_set_key" : "android_dataspace_v1_1_t",
   "name" : "android_dataspace_v1_1_t",
   "referenced_type" : "type-1642",
   "self_type" : "type-1642",
   "size" : 4,
   "source_file" : "/system/core/libsystem/include/system/graphics-base-v1.1.h",
   "underlying_type" : "type-2",
   "unique_id" : "android_dataspace_v1_1_t"
  },
  {
   "alignment" : 4,
   "enum_fields" :
   [
    {
     "enum_field_value" : 142999552,
     "name" : "HAL_DATASPACE_DISPLAY_BT2020"
    },
    {
     "enum_field_value" : 4098,
     "name" : "HAL_DATASPACE_DYNAMIC_DEPTH"
    },
    {
     "enum_field_value" : 4099,
     "name" : "HAL_DATASPACE_JPEG_APP_SEGMENTS"
    },
    {
     "enum_field_value" : 4100,
     "name" : "HAL_DATASPACE_HEIF"
    }
   ],
   "linker_set_key" : "android_dataspace_v1_2_t",
   "name" : "android_dataspace_v1_2_t",
   "referenced_type" : "type-1646",
   "self_type" : "type-1646",
   "size" : 4,
   "source_file" : "/system/core/libsystem/include/system/graphics-base-v1.2.h",
   "underlying_type" : "type-2",
   "unique_id" : "android_dataspace_v1_2_t"
  },
  {
   "alignment" : 4,
   "enum_fields" :
   [
    {
     "enum_field_value" : 1,
     "name" : "FLEX_COMPONENT_Y"
    },
    {
     "enum_field_value" : 2,
     "name" : "FLEX_COMPONENT_Cb"
    },
    {
     "enum_field_value" : 4,
     "name" : "FLEX_COMPONENT_Cr"
    },
    {
     "enum_field_value" : 1024,
     "name" : "FLEX_COMPONENT_R"
    },
    {
     "enum_field_value" : 2048,
     "name" : "FLEX_COMPONENT_G"
    },
    {
     "enum_field_value" : 4096,
     "name" : "FLEX_COMPONENT_B"
    },
    {
     "enum_field_value" : 1073741824,
     "name" : "FLEX_COMPONENT_A"
    }
   ],
   "linker_set_key" : "android_flex_component",
   "name" : "android_flex_component",
   "referenced_type" : "type-1652",
   "self_type" : "type-1652",
   "size" : 4,
   "source_file" : "/system/core/libsystem/include/system/graphics.h",
   "underlying_type" : "type-2",
   "unique_id" : "android_flex_component"
  },
  {
   "alignment" : 4,
   "enum_fields" :
   [
    {
     "enum_field_value" : 0,
     "name" : "FLEX_FORMAT_INVALID"
    },
    {
     "enum_field_value" : 1,
     "name" : "FLEX_FORMAT_Y"
    },
    {
     "enum_field_value" : 7,
     "name" : "FLEX_FORMAT_YCbCr"
    },
    {
     "enum_field_value" : 1073741831,
     "name" : "FLEX_FORMAT_YCbCrA"
    },
    {
     "enum_field_value" : 7168,
     "name" : "FLEX_FORMAT_RGB"
    },
    {
     "enum_field_value" : 1073748992,
     "name" : "FLEX_FORMAT_RGBA"
    }
   ],
   "linker_set_key" : "android_flex_format",
   "name" : "android_flex_format",
   "referenced_type" : "type-1654",
   "self_type" : "type-1654",
   "size" : 4,
   "source_file" : "/system/core/libsystem/include/system/graphics.h",
   "underlying_type" : "type-2",
   "unique_id" : "android_flex_format"
  },
  {
   "alignment" : 4,
   "enum_fields" :
   [
    {
     "enum_field_value" : 1,
     "name" : "HAL_HDR_DOLBY_VISION"
    },
    {
     "enum_field_value" : 2,
     "name" : "HAL_HDR_HDR10"
    },
    {
     "enum_field_value" : 3,
     "name" : "HAL_HDR_HLG"
    }
   ],
   "linker_set_key" : "android_hdr_t",
   "name" : "android_hdr_t",
   "referenced_type" : "type-1639",
   "self_type" : "type-1639",
   "size" : 4,
   "source_file" : "/system/core/libsystem/include/system/graphics-base-v1.0.h",
   "underlying_type" : "type-2",
   "unique_id" : "android_hdr_t"
  },
  {
   "alignment" : 4,
   "enum_fields" :
   [
    {
     "enum_field_value" : 4,
     "name" : "HAL_HDR_HDR10_PLUS"
    }
   ],
   "linker_set_key" : "android_hdr_v1_2_t",
   "name" : "android_hdr_v1_2_t",
   "referenced_type" : "type-1645",
   "self_type" : "type-1645",
   "size" : 4,
   "source_file" : "/system/core/libsystem/include/system/graphics-base-v1.2.h",
   "underlying_type" : "type-2",
   "unique_id" : "android_hdr_v1_2_t"
  },
  {
   "alignment" : 4,
   "enum_fields" :
   [
    {
     "enum_field_value" : 39,
     "name" : "HAL_PIXEL_FORMAT_YCBCR_422_888"
    },
    {
     "enum_field_value" : 40,
     "name" : "HAL_PIXEL_FORMAT_YCBCR_444_888"
    },
    {
     "enum_field_value" : 41,
     "name" : "HAL_PIXEL_FORMAT_FLEX_RGB_888"
    },
    {
     "enum_field_value" : 42,
     "name" : "HAL_PIXEL_FORMAT_FLEX_RGBA_8888"
    }
   ],
   "linker_set_key" : "android_pixel_format_sw_t",
   "name" : "android_pixel_format_sw_t",
   "referenced_type" : "type-1648",
   "self_type" : "type-1648",
   "size" : 4,
   "source_file" : "/system/core/libsystem/include/system/graphics-sw.h",
   "underlying_type" : "type-2",
   "unique_id" : "_ZTS25android_pixel_format_sw_t"
  },
  {
   "alignment" : 4,
   "enum_fields" :
   [
    {
     "enum_field_value" : 1,
     "name" : "HAL_PIXEL_FORMAT_RGBA_8888"
    },
    {
     "enum_field_value" : 2,
     "name" : "HAL_PIXEL_FORMAT_RGBX_8888"
    },
    {
     "enum_field_value" : 3,
     "name" : "HAL_PIXEL_FORMAT_RGB_888"
    },
    {
     "enum_field_value" : 4,
     "name" : "HAL_PIXEL_FORMAT_RGB_565"
    },
    {
     "enum_field_value" : 5,
     "name" : "HAL_PIXEL_FORMAT_BGRA_8888"
    },
    {
     "enum_field_value" : 16,
     "name" : "HAL_PIXEL_FORMAT_YCBCR_422_SP"
    },
    {
     "enum_field_value" : 17,
     "name" : "HAL_PIXEL_FORMAT_YCRCB_420_SP"
    },
    {
     "enum_field_value" : 20,
     "name" : "HAL_PIXEL_FORMAT_YCBCR_422_I"
    },
    {
     "enum_field_value" : 22,
     "name" : "HAL_PIXEL_FORMAT_RGBA_FP16"
    },
    {
     "enum_field_value" : 32,
     "name" : "HAL_PIXEL_FORMAT_RAW16"
    },
    {
     "enum_field_value" : 33,
     "name" : "HAL_PIXEL_FORMAT_BLOB"
    },
    {
     "enum_field_value" : 34,
     "name" : "HAL_PIXEL_FORMAT_IMPLEMENTATION_DEFINED"
    },
    {
     "enum_field_value" : 35,
     "name" : "HAL_PIXEL_FORMAT_YCBCR_420_888"
    },
    {
     "enum_field_value" : 36,
     "name" : "HAL_PIXEL_FORMAT_RAW_OPAQUE"
    },
    {
     "enum_field_value" : 37,
     "name" : "HAL_PIXEL_FORMAT_RAW10"
    },
    {
     "enum_field_value" : 38,
     "name" : "HAL_PIXEL_FORMAT_RAW12"
    },
    {
     "enum_field_value" : 43,
     "name" : "HAL_PIXEL_FORMAT_RGBA_1010102"
    },
    {
     "enum_field_value" : 538982489,
     "name" : "HAL_PIXEL_FORMAT_Y8"
    },
    {
     "enum_field_value" : 540422489,
     "name" : "HAL_PIXEL_FORMAT_Y16"
    },
    {
     "enum_field_value" : 842094169,
     "name" : "HAL_PIXEL_FORMAT_YV12"
    }
   ],
   "linker_set_key" : "android_pixel_format_t",
   "name" : "android_pixel_format_t",
   "referenced_type" : "type-1634",
   "self_type" : "type-1634",
   "size" : 4,
   "source_file" : "/system/core/libsystem/include/system/graphics-base-v1.0.h",
   "underlying_type" : "type-2",
   "unique_id" : "android_pixel_format_t"
  },
  {
   "alignment" : 4,
   "enum_fields" :
   [
    {
     "enum_field_value" : 48,
     "name" : "HAL_PIXEL_FORMAT_DEPTH_16"
    },
    {
     "enum_field_value" : 49,
     "name" : "HAL_PIXEL_FORMAT_DEPTH_24"
    },
    {
     "enum_field_value" : 50,
     "name" : "HAL_PIXEL_FORMAT_DEPTH_24_STENCIL_8"
    },
    {
     "enum_field_value" : 51,
     "name" : "HAL_PIXEL_FORMAT_DEPTH_32F"
    },
    {
     "enum_field_value" : 52,
     "name" : "HAL_PIXEL_FORMAT_DEPTH_32F_STENCIL_8"
    },
    {
     "enum_field_value" : 53,
     "name" : "HAL_PIXEL_FORMAT_STENCIL_8"
    },
    {
     "enum_field_value" : 54,
     "name" : "HAL_PIXEL_FORMAT_YCBCR_P010"
    }
   ],
   "linker_set_key" : "android_pixel_format_v1_1_t",
   "name" : "android_pixel_format_v1_1_t",
   "referenced_type" : "type-1641",
   "self_type" : "type-1641",
   "size" : 4,
   "source_file" : "/system/core/libsystem/include/system/graphics-base-v1.1.h",
   "underlying_type" : "type-2",
   "unique_id" : "android_pixel_format_v1_1_t"
  },
  {
   "alignment" : 4,
   "enum_fields" :
   [
    {
     "enum_field_value" : 55,
     "name" : "HAL_PIXEL_FORMAT_HSV_888"
    }
   ],
   "linker_set_key" : "android_pixel_format_v1_2_t",
   "name" : "android_pixel_format_v1_2_t",
   "referenced_type" : "type-1647",
   "self_type" : "type-1647",
   "size" : 4,
   "source_file" : "/system/core/libsystem/include/system/graphics-base-v1.2.h",
   "underlying_type" : "type-2",
   "unique_id" : "android_pixel_format_v1_2_t"
  },
  {
   "alignment" : 4,
   "enum_fields" :
   [
    {
     "enum_field_value" : 0,
     "name" : "HAL_RENDER_INTENT_COLORIMETRIC"
    },
    {
     "enum_field_value" : 1,
     "name" : "HAL_RENDER_INTENT_ENHANCE"
    },
    {
     "enum_field_value" : 2,
     "name" : "HAL_RENDER_INTENT_TONE_MAP_COLORIMETRIC"
    },
    {
     "enum_field_value" : 3,
     "name" : "HAL_RENDER_INTENT_TONE_MAP_ENHANCE"
    }
   ],
   "linker_set_key" : "android_render_intent_v1_1_t",
   "name" : "android_render_intent_v1_1_t",
   "referenced_type" : "type-1644",
   "self_type" : "type-1644",
   "size" : 4,
   "source_file" : "/system/core/libsystem/include/system/graphics-base-v1.1.h",
   "underlying_type" : "type-2",
   "unique_id" : "android_render_intent_v1_1_t"
  },
  {
   "alignment" : 4,
   "enum_fields" :
   [
    {
     "enum_field_value" : 1,
     "name" : "HAL_TRANSFORM_FLIP_H"
    },
    {
     "enum_field_value" : 2,
     "name" : "HAL_TRANSFORM_FLIP_V"
    },
    {
     "enum_field_value" : 4,
     "name" : "HAL_TRANSFORM_ROT_90"
    },
    {
     "enum_field_value" : 3,
     "name" : "HAL_TRANSFORM_ROT_180"
    },
    {
     "enum_field_value" : 7,
     "name" : "HAL_TRANSFORM_ROT_270"
    }
   ],
   "linker_set_key" : "android_transform_t",
   "name" : "android_transform_t",
   "referenced_type" : "type-1635",
   "self_type" : "type-1635",
   "size" : 4,
   "source_file" : "/system/core/libsystem/include/system/graphics-base-v1.0.h",
   "underlying_type" : "type-2",
   "unique_id" : "android_transform_t"
  },
  {
   "alignment" : 4,
   "enum_fields" :
   [
    {
     "enum_field_value" : 0,
     "name" : "LOG_ID_MIN"
    },
    {
     "enum_field_value" : 0,
     "name" : "LOG_ID_MAIN"
    },
    {
     "enum_field_value" : 1,
     "name" : "LOG_ID_RADIO"
    },
    {
     "enum_field_value" : 2,
     "name" : "LOG_ID_EVENTS"
    },
    {
     "enum_field_value" : 3,
     "name" : "LOG_ID_SYSTEM"
    },
    {
     "enum_field_value" : 4,
     "name" : "LOG_ID_CRASH"
    },
    {
     "enum_field_value" : 5,
     "name" : "LOG_ID_STATS"
    },
    {
     "enum_field_value" : 6,
     "name" : "LOG_ID_SECURITY"
    },
    {
     "enum_field_value" : 7,
     "name" : "LOG_ID_KERNEL"
    },
    {
     "enum_field_value" : 8,
     "name" : "LOG_ID_MAX"
    }
   ],
   "linker_set_key" : "log_id",
   "name" : "log_id",
   "referenced_type" : "type-1205",
   "self_type" : "type-1205",
   "size" : 4,
   "source_file" : "/system/core/liblog/include/android/log.h",
   "underlying_type" : "type-2",
   "unique_id" : "log_id"
  }
 ],
 "function_types" :
 [
  {
   "alignment" : 4,
   "linker_set_key" : "bool (const android::String16 &, const android::sp<android::hardware::IBinder> &, void *)",
   "name" : "bool (const android::String16 &, const android::sp<android::hardware::IBinder> &, void *)",
   "parameters" :
   [
    {
     "referenced_type" : "type-1134"
    },
    {
     "referenced_type" : "type-1140"
    },
    {
     "referenced_type" : "type-310"
    }
   ],
   "referenced_type" : "type-1133",
   "return_type" : "type-16",
   "self_type" : "type-1133",
   "source_file" : "/system/libhwbinder/include/hwbinder/ProcessState.h"
  },
  {
   "alignment" : 4,
   "linker_set_key" : "int (void *)",
   "name" : "int (void *)",
   "parameters" :
   [
    {
     "referenced_type" : "type-310"
    }
   ],
   "referenced_type" : "type-1662",
   "return_type" : "type-23",
   "self_type" : "type-1662",
   "source_file" : "/system/core/libutils/include/utils/AndroidThreads.h"
  },
  {
   "alignment" : 4,
   "linker_set_key" : "void (android::hardware::Parcel *, const unsigned char *, unsigned long, const unsigned long long *, unsigned long, void *)",
   "name" : "void (android::hardware::Parcel *, const unsigned char *, unsigned long, const unsigned long long *, unsigned long, void *)",
   "parameters" :
   [
    {
     "referenced_type" : "type-1575"
    },
    {
     "referenced_type" : "type-1469"
    },
    {
     "referenced_type" : "type-15"
    },
    {
     "referenced_type" : "type-1576"
    },
    {
     "referenced_type" : "type-15"
    },
    {
     "referenced_type" : "type-310"
    }
   ],
   "referenced_type" : "type-1574",
   "return_type" : "type-311",
   "self_type" : "type-1574",
   "source_file" : "/system/libhwbinder/include/hwbinder/Parcel.h"
  }
 ],
 "functions" :
 [
  {
   "access" : "private",
   "function_name" : "android::hardware::wifi::V1_3::BsWifiChip::addOnewayTask",
   "linker_set_key" : "_ZN7android8hardware4wifi4V1_310BsWifiChip13addOnewayTaskENSt3__18functionIFvvEEE",
   "parameters" :
   [
    {
     "is_this_ptr" : true,
     "referenced_type" : "type-475"
    },
    {
     "referenced_type" : "type-1707"
    }
   ],
   "return_type" : "type-1294",
   "source_file" : "/out/soong/.intermediates/hardware/interfaces/wifi/1.3/android.hardware.wifi@1.3_genc++_headers/gen/android/hardware/wifi/1.3/BsWifiChip.h"
  },
  {
   "function_name" : "android::hardware::wifi::V1_3::BsWifiChip::BsWifiChip",
   "linker_set_key" : "_ZN7android8hardware4wifi4V1_310BsWifiChipC1ENS_2spINS2_9IWifiChipEEE",
   "parameters" :
   [
    {
     "is_this_ptr" : true,
     "referenced_type" : "type-475"
    },
    {
     "referenced_type" : "type-461"
    }
   ],
   "return_type" : "type-311",
   "source_file" : "/out/soong/.intermediates/hardware/interfaces/wifi/1.3/android.hardware.wifi@1.3_genc++_headers/gen/android/hardware/wifi/1.3/BsWifiChip.h"
  },
  {
   "function_name" : "android::hardware::wifi::V1_3::BsWifiChip::BsWifiChip",
   "linker_set_key" : "_ZN7android8hardware4wifi4V1_310BsWifiChipC2ENS_2spINS2_9IWifiChipEEE",
   "parameters" :
   [
    {
     "is_this_ptr" : true,
     "referenced_type" : "type-475"
    },
    {
     "referenced_type" : "type-461"
    }
   ],
   "return_type" : "type-311",
   "source_file" : "/out/soong/.intermediates/hardware/interfaces/wifi/1.3/android.hardware.wifi@1.3_genc++_headers/gen/android/hardware/wifi/1.3/BsWifiChip.h"
  },
  {
   "function_name" : "android::hardware::wifi::V1_3::BnHwWifiChip::onTransact",
   "linker_set_key" : "_ZN7android8hardware4wifi4V1_312BnHwWifiChip10onTransactEjRKNS0_6ParcelEPS4_jNSt3__18functionIFvRS4_EEE",
   "parameters" :
   [
    {
     "is_this_ptr" : true,
     "referenced_type" : "type-471"
    },
    {
     "referenced_type" : "type-2"
    },
    {
     "referenced_type" : "type-1585"
    },
    {
     "referenced_type" : "type-1575"
    },
    {
     "default_arg" : true,
     "referenced_type" : "type-2"
    },
    {
     "default_arg" : true,
     "referenced_type" : "type-1745"
    }
   ],
   "return_type" : "type-23",
   "source_file" : "/out/soong/.intermediates/hardware/interfaces/wifi/1.3/android.hardware.wifi@1.3_genc++_headers/gen/android/hardware/wifi/1.3/BnHwWifiChip.h"
  },
  {
   "access" : "private",
   "function_name" : "android::hardware::wifi::V1_3::BnHwWifiChip::getDebugInfo",
   "linker_set_key" : "_ZN7android8hardware4wifi4V1_312BnHwWifiChip12getDebugInfoENSt3__18functionIFvRKNS_4hidl4base4V1_09DebugInfoEEEE",
   "parameters" :
   [
    {
     "is_this_ptr" : true,
     "referenced_type" : "type-471"
    },
    {
     "referenced_type" : "type-1746"
    }
   ],
   "return_type" : "type-1294",
   "source_file" : "/out/soong/.intermediates/hardware/interfaces/wifi/1.3/android.hardware.wifi@1.3_genc++_headers/gen/android/hardware/wifi/1.3/BnHwWifiChip.h"
  },
  {
   "function_name" : "android::hardware::wifi::V1_3::BnHwWifiChip::_hidl_setLatencyMode",
   "linker_set_key" : "_ZN7android8hardware4wifi4V1_312BnHwWifiChip20_hidl_setLatencyModeEPNS_4hidl4base4V1_08BnHwBaseERKNS0_6ParcelEPS9_NSt3__18functionIFvRS9_EEE",
   "parameters" :
   [
    {
     "referenced_type" : "type-1586"
    },
    {
     "referenced_type" : "type-1585"
    },
    {
     "referenced_type" : "type-1575"
    },
    {
     "referenced_type" : "type-1747"
    }
   ],
   "return_type" : "type-23",
   "source_file" : "/out/soong/.intermediates/hardware/interfaces/wifi/1.3/android.hardware.wifi@1.3_genc++_headers/gen/android/hardware/wifi/1.3/BnHwWifiChip.h"
  },
  {
   "function_name" : "android::hardware::wifi::V1_3::BnHwWifiChip::_hidl_getCapabilities_1_3",
   "linker_set_key" : "_ZN7android8hardware4wifi4V1_312BnHwWifiChip25_hidl_getCapabilities_1_3EPNS_4hidl4base4V1_08BnHwBaseERKNS0_6ParcelEPS9_NSt3__18functionIFvRS9_EEE",
   "parameters" :
   [
    {
     "referenced_type" : "type-1586"
    },
    {
     "referenced_type" : "type-1585"
    },
    {
     "referenced_type" : "type-1575"
    },
    {
     "referenced_type" : "type-1748"
    }
   ],
   "return_type" : "type-23",
   "source_file" : "/out/soong/.intermediates/hardware/interfaces/wifi/1.3/android.hardware.wifi@1.3_genc++_headers/gen/android/hardware/wifi/1.3/BnHwWifiChip.h"
  },
  {
   "function_name" : "android::hardware::wifi::V1_3::BnHwWifiChip::_hidl_flushRingBufferToFile",
   "linker_set_key" : "_ZN7android8hardware4wifi4V1_312BnHwWifiChip27_hidl_flushRingBufferToFileEPNS_4hidl4base4V1_08BnHwBaseERKNS0_6ParcelEPS9_NSt3__18functionIFvRS9_EEE",
   "parameters" :
   [
    {
     "referenced_type" : "type-1586"
    },
    {
     "referenced_type" : "type-1585"
    },
    {
     "referenced_type" : "type-1575"
    },
    {
     "referenced_type" : "type-1749"
    }
   ],
   "return_type" : "type-23",
   "source_file" : "/out/soong/.intermediates/hardware/interfaces/wifi/1.3/android.hardware.wifi@1.3_genc++_headers/gen/android/hardware/wifi/1.3/BnHwWifiChip.h"
  },
  {
   "access" : "private",
   "function_name" : "android::hardware::wifi::V1_3::BnHwWifiChip::ping",
   "linker_set_key" : "_ZN7android8hardware4wifi4V1_312BnHwWifiChip4pingEv",
   "parameters" :
   [
    {
     "is_this_ptr" : true,
     "referenced_type" : "type-471"
    }
   ],
   "return_type" : "type-1294",
   "source_file" : "/out/soong/.intermediates/hardware/interfaces/wifi/1.3/android.hardware.wifi@1.3_genc++_headers/gen/android/hardware/wifi/1.3/BnHwWifiChip.h"
  },
  {
   "function_name" : "android::hardware::wifi::V1_3::BnHwWifiChip::BnHwWifiChip",
   "linker_set_key" : "_ZN7android8hardware4wifi4V1_312BnHwWifiChipC1ERKNS_2spINS2_9IWifiChipEEE",
   "parameters" :
   [
    {
     "is_this_ptr" : true,
     "referenced_type" : "type-471"
    },
    {
     "referenced_type" : "type-464"
    }
   ],
   "return_type" : "type-311",
   "source_file" : "/out/soong/.intermediates/hardware/interfaces/wifi/1.3/android.hardware.wifi@1.3_genc++_headers/gen/android/hardware/wifi/1.3/BnHwWifiChip.h"
  },
  {
   "function_name" : "android::hardware::wifi::V1_3::BnHwWifiChip::BnHwWifiChip",
   "linker_set_key" : "_ZN7android8hardware4wifi4V1_312BnHwWifiChipC2ERKNS_2spINS2_9IWifiChipEEE",
   "parameters" :
   [
    {
     "is_this_ptr" : true,
     "referenced_type" : "type-471"
    },
    {
     "referenced_type" : "type-464"
    }
   ],
   "return_type" : "type-311",
   "source_file" : "/out/soong/.intermediates/hardware/interfaces/wifi/1.3/android.hardware.wifi@1.3_genc++_headers/gen/android/hardware/wifi/1.3/BnHwWifiChip.h"
  },
  {
   "function_name" : "android::hardware::wifi::V1_3::BnHwWifiChip::~BnHwWifiChip",
   "linker_set_key" : "_ZN7android8hardware4wifi4V1_312BnHwWifiChipD0Ev",
   "parameters" :
   [
    {
     "is_this_ptr" : true,
     "referenced_type" : "type-471"
    }
   ],
   "return_type" : "type-311",
   "source_file" : "/out/soong/.intermediates/hardware/interfaces/wifi/1.3/android.hardware.wifi@1.3_genc++_headers/gen/android/hardware/wifi/1.3/BnHwWifiChip.h"
  },
  {
   "function_name" : "android::hardware::wifi::V1_3::BnHwWifiChip::~BnHwWifiChip",
   "linker_set_key" : "_ZN7android8hardware4wifi4V1_312BnHwWifiChipD1Ev",
   "parameters" :
   [
    {
     "is_this_ptr" : true,
     "referenced_type" : "type-471"
    }
   ],
   "return_type" : "type-311",
   "source_file" : "/out/soong/.intermediates/hardware/interfaces/wifi/1.3/android.hardware.wifi@1.3_genc++_headers/gen/android/hardware/wifi/1.3/BnHwWifiChip.h"
  },
  {
   "function_name" : "android::hardware::wifi::V1_3::BnHwWifiChip::~BnHwWifiChip",
   "linker_set_key" : "_ZN7android8hardware4wifi4V1_312BnHwWifiChipD2Ev",
   "parameters" :
   [
    {
     "is_this_ptr" : true,
     "referenced_type" : "type-471"
    }
   ],
   "return_type" : "type-311",
   "source_file" : "/out/soong/.intermediates/hardware/interfaces/wifi/1.3/android.hardware.wifi@1.3_genc++_headers/gen/android/hardware/wifi/1.3/BnHwWifiChip.h"
  },
  {
   "function_name" : "android::hardware::wifi::V1_3::BpHwWifiChip::getApIface",
   "linker_set_key" : "_ZN7android8hardware4wifi4V1_312BpHwWifiChip10getApIfaceERKNS0_11hidl_stringENSt3__18functionIFvRKNS1_4V1_010WifiStatusERKNS_2spINS9_12IWifiApIfaceEEEEEE",
   "parameters" :
   [
    {
     "is_this_ptr" : true,
     "referenced_type" : "type-476"
    },
    {
     "referenced_type" : "type-1397"
    },
    {
     "referenced_type" : "type-1750"
    }
   ],
   "return_type" : "type-1294",
   "source_file" : "/out/soong/.intermediates/hardware/interfaces/wifi/1.3/android.hardware.wifi@1.3_genc++_headers/gen/android/hardware/wifi/1.3/BpHwWifiChip.h"
  },
  {
   "function_name" : "android::hardware::wifi::V1_3::BpHwWifiChip::getNanIface",
   "linker_set_key" : "_ZN7android8hardware4wifi4V1_312BpHwWifiChip11getNanIfaceERKNS0_11hidl_stringENSt3__18functionIFvRKNS1_4V1_010WifiStatusERKNS_2spINS9_13IWifiNanIfaceEEEEEE",
   "parameters" :
   [
    {
     "is_this_ptr" : true,
     "referenced_type" : "type-476"
    },
    {
     "referenced_type" : "type-1397"
    },
    {
     "referenced_type" : "type-1751"
    }
   ],
   "return_type" : "type-1294",
   "source_file" : "/out/soong/.intermediates/hardware/interfaces/wifi/1.3/android.hardware.wifi@1.3_genc++_headers/gen/android/hardware/wifi/1.3/BpHwWifiChip.h"
  },
  {
   "function_name" : "android::hardware::wifi::V1_3::BpHwWifiChip::getP2pIface",
   "linker_set_key" : "_ZN7android8hardware4wifi4V1_312BpHwWifiChip11getP2pIfaceERKNS0_11hidl_stringENSt3__18functionIFvRKNS1_4V1_010WifiStatusERKNS_2spINS9_13IWifiP2pIfaceEEEEEE",
   "parameters" :
   [
    {
     "is_this_ptr" : true,
     "referenced_type" : "type-476"
    },
    {
     "referenced_type" : "type-1397"
    },
    {
     "referenced_type" : "type-1752"
    }
   ],
   "return_type" : "type-1294",
   "source_file" : "/out/soong/.intermediates/hardware/interfaces/wifi/1.3/android.hardware.wifi@1.3_genc++_headers/gen/android/hardware/wifi/1.3/BpHwWifiChip.h"
  },
  {
   "function_name" : "android::hardware::wifi::V1_3::BpHwWifiChip::getStaIface",
   "linker_set_key" : "_ZN7android8hardware4wifi4V1_312BpHwWifiChip11getStaIfaceERKNS0_11hidl_stringENSt3__18functionIFvRKNS1_4V1_010WifiStatusERKNS_2spINS9_13IWifiStaIfaceEEEEEE",
   "parameters" :
   [
    {
     "is_this_ptr" : true,
     "referenced_type" : "type-476"
    },
    {
     "referenced_type" : "type-1397"
    },
    {
     "referenced_type" : "type-1753"
    }
   ],
   "return_type" : "type-1294",
   "source_file" : "/out/soong/.intermediates/hardware/interfaces/wifi/1.3/android.hardware.wifi@1.3_genc++_headers/gen/android/hardware/wifi/1.3/BpHwWifiChip.h"
  },
  {
   "function_name" : "android::hardware::wifi::V1_3::BpHwWifiChip::linkToDeath",
   "linker_set_key" : "_ZN7android8hardware4wifi4V1_312BpHwWifiChip11linkToDeathERKNS_2spINS0_20hidl_death_recipientEEEm",
   "parameters" :
   [
    {
     "is_this_ptr" : true,
     "referenced_type" : "type-476"
    },
    {
     "referenced_type" : "type-1087"
    },
    {
     "referenced_type" : "type-15"
    }
   ],
   "return_type" : "type-1270",
   "source_file" : "/out/soong/.intermediates/hardware/interfaces/wifi/1.3/android.hardware.wifi@1.3_genc++_headers/gen/android/hardware/wifi/1.3/BpHwWifiChip.h"
  },
  {
   "function_name" : "android::hardware::wifi::V1_3::BpHwWifiChip::getDebugInfo",
   "linker_set_key" : "_ZN7android8hardware4wifi4V1_312BpHwWifiChip12getDebugInfoENSt3__18functionIFvRKNS_4hidl4base4V1_09DebugInfoEEEE",
   "parameters" :
   [
    {
     "is_this_ptr" : true,
     "referenced_type" : "type-476"
    },
    {
     "referenced_type" : "type-1754"
    }
   ],
   "return_type" : "type-1294",
   "source_file" : "/out/soong/.intermediates/hardware/interfaces/wifi/1.3/android.hardware.wifi@1.3_genc++_headers/gen/android/hardware/wifi/1.3/BpHwWifiChip.h"
  },
  {
   "function_name" : "android::hardware::wifi::V1_3::BpHwWifiChip::getHashChain",
   "linker_set_key" : "_ZN7android8hardware4wifi4V1_312BpHwWifiChip12getHashChainENSt3__18functionIFvRKNS0_8hidl_vecINS0_10hidl_arrayIhLm32EJEEEEEEEE",
   "parameters" :
   [
    {
     "is_this_ptr" : true,
     "referenced_type" : "type-476"
    },
    {
     "referenced_type" : "type-1755"
    }
   ],
   "return_type" : "type-1294",
   "source_file" : "/out/soong/.intermediates/hardware/interfaces/wifi/1.3/android.hardware.wifi@1.3_genc++_headers/gen/android/hardware/wifi/1.3/BpHwWifiChip.h"
  },
  {
   "function_name" : "android::hardware::wifi::V1_3::BpHwWifiChip::configureChip",
   "linker_set_key" : "_ZN7android8hardware4wifi4V1_312BpHwWifiChip13configureChipEjNSt3__18functionIFvRKNS1_4V1_010WifiStatusEEEE",
   "parameters" :
   [
    {
     "is_this_ptr" : true,
     "referenced_type" : "type-476"
    },
    {
     "referenced_type" : "type-2"
    },
    {
     "referenced_type" : "type-1756"
    }
   ],
   "return_type" : "type-1294",
   "source_file" : "/out/soong/.intermediates/hardware/interfaces/wifi/1.3/android.hardware.wifi@1.3_genc++_headers/gen/android/hardware/wifi/1.3/BpHwWifiChip.h"
  },
  {
   "function_name" : "android::hardware::wifi::V1_3::BpHwWifiChip::createApIface",
   "linker_set_key" : "_ZN7android8hardware4wifi4V1_312BpHwWifiChip13createApIfaceENSt3__18functionIFvRKNS1_4V1_010WifiStatusERKNS_2spINS6_12IWifiApIfaceEEEEEE",
   "parameters" :
   [
    {
     "is_this_ptr" : true,
     "referenced_type" : "type-476"
    },
    {
     "referenced_type" : "type-1757"
    }
   ],
   "return_type" : "type-1294",
   "source_file" : "/out/soong/.intermediates/hardware/interfaces/wifi/1.3/android.hardware.wifi@1.3_genc++_headers/gen/android/hardware/wifi/1.3/BpHwWifiChip.h"
  },
  {
   "function_name" : "android::hardware::wifi::V1_3::BpHwWifiChip::removeApIface",
   "linker_set_key" : "_ZN7android8hardware4wifi4V1_312BpHwWifiChip13removeApIfaceERKNS0_11hidl_stringENSt3__18functionIFvRKNS1_4V1_010WifiStatusEEEE",
   "parameters" :
   [
    {
     "is_this_ptr" : true,
     "referenced_type" : "type-476"
    },
    {
     "referenced_type" : "type-1397"
    },
    {
     "referenced_type" : "type-1758"
    }
   ],
   "return_type" : "type-1294",
   "source_file" : "/out/soong/.intermediates/hardware/interfaces/wifi/1.3/android.hardware.wifi@1.3_genc++_headers/gen/android/hardware/wifi/1.3/BpHwWifiChip.h"
  },
  {
   "function_name" : "android::hardware::wifi::V1_3::BpHwWifiChip::unlinkToDeath",
   "linker_set_key" : "_ZN7android8hardware4wifi4V1_312BpHwWifiChip13unlinkToDeathERKNS_2spINS0_20hidl_death_recipientEEE",
   "parameters" :
   [
    {
     "is_this_ptr" : true,
     "referenced_type" : "type-476"
    },
    {
     "referenced_type" : "type-1087"
    }
   ],
   "return_type" : "type-1270",
   "source_file" : "/out/soong/.intermediates/hardware/interfaces/wifi/1.3/android.hardware.wifi@1.3_genc++_headers/gen/android/hardware/wifi/1.3/BpHwWifiChip.h"
  },
  {
   "function_name" : "android::hardware::wifi::V1_3::BpHwWifiChip::createNanIface",
   "linker_set_key" : "_ZN7android8hardware4wifi4V1_312BpHwWifiChip14createNanIfaceENSt3__18functionIFvRKNS1_4V1_010WifiStatusERKNS_2spINS6_13IWifiNanIfaceEEEEEE",
   "parameters" :
   [
    {
     "is_this_ptr" : true,
     "referenced_type" : "type-476"
    },
    {
     "referenced_type" : "type-1759"
    }
   ],
   "return_type" : "type-1294",
   "source_file" : "/out/soong/.intermediates/hardware/interfaces/wifi/1.3/android.hardware.wifi@1.3_genc++_headers/gen/android/hardware/wifi/1.3/BpHwWifiChip.h"
  },
  {
   "function_name" : "android::hardware::wifi::V1_3::BpHwWifiChip::createP2pIface",
   "linker_set_key" : "_ZN7android8hardware4wifi4V1_312BpHwWifiChip14createP2pIfaceENSt3__18functionIFvRKNS1_4V1_010WifiStatusERKNS_2spINS6_13IWifiP2pIfaceEEEEEE",
   "parameters" :
   [
    {
     "is_this_ptr" : true,
     "referenced_type" : "type-476"
    },
    {
     "referenced_type" : "type-1760"
    }
   ],
   "return_type" : "type-1294",
   "source_file" : "/out/soong/.intermediates/hardware/interfaces/wifi/1.3/android.hardware.wifi@1.3_genc++_headers/gen/android/hardware/wifi/1.3/BpHwWifiChip.h"
  },
  {
   "function_name" : "android::hardware::wifi::V1_3::BpHwWifiChip::createStaIface",
   "linker_set_key" : "_ZN7android8hardware4wifi4V1_312BpHwWifiChip14createStaIfaceENSt3__18functionIFvRKNS1_4V1_010WifiStatusERKNS_2spINS6_13IWifiStaIfaceEEEEEE",
   "parameters" :
   [
    {
     "is_this_ptr" : true,
     "referenced_type" : "type-476"
    },
    {
     "referenced_type" : "type-1761"
    }
   ],
   "return_type" : "type-1294",
   "source_file" : "/out/soong/.intermediates/hardware/interfaces/wifi/1.3/android.hardware.wifi@1.3_genc++_headers/gen/android/hardware/wifi/1.3/BpHwWifiChip.h"
  },
  {
   "function_name" : "android::hardware::wifi::V1_3::BpHwWifiChip::interfaceChain",
   "linker_set_key" : "_ZN7android8hardware4wifi4V1_312BpHwWifiChip14interfaceChainENSt3__18functionIFvRKNS0_8hidl_vecINS0_11hidl_stringEEEEEE",
   "parameters" :
   [
    {
     "is_this_ptr" : true,
     "referenced_type" : "type-476"
    },
    {
     "referenced_type" : "type-1762"
    }
   ],
   "return_type" : "type-1294",
   "source_file" : "/out/soong/.intermediates/hardware/interfaces/wifi/1.3/android.hardware.wifi@1.3_genc++_headers/gen/android/hardware/wifi/1.3/BpHwWifiChip.h"
  },
  {
   "function_name" : "android::hardware::wifi::V1_3::BpHwWifiChip::removeNanIface",
   "linker_set_key" : "_ZN7android8hardware4wifi4V1_312BpHwWifiChip14removeNanIfaceERKNS0_11hidl_stringENSt3__18functionIFvRKNS1_4V1_010WifiStatusEEEE",
   "parameters" :
   [
    {
     "is_this_ptr" : true,
     "referenced_type" : "type-476"
    },
    {
     "referenced_type" : "type-1397"
    },
    {
     "referenced_type" : "type-1763"
    }
   ],
   "return_type" : "type-1294",
   "source_file" : "/out/soong/.intermediates/hardware/interfaces/wifi/1.3/android.hardware.wifi@1.3_genc++_headers/gen/android/hardware/wifi/1.3/BpHwWifiChip.h"
  },
  {
   "function_name" : "android::hardware::wifi::V1_3::BpHwWifiChip::removeP2pIface",
   "linker_set_key" : "_ZN7android8hardware4wifi4V1_312BpHwWifiChip14removeP2pIfaceERKNS0_11hidl_stringENSt3__18functionIFvRKNS1_4V1_010WifiStatusEEEE",
   "parameters" :
   [
    {
     "is_this_ptr" : true,
     "referenced_type" : "type-476"
    },
    {
     "referenced_type" : "type-1397"
    },
    {
     "referenced_type" : "type-1764"
    }
   ],
   "return_type" : "type-1294",
   "source_file" : "/out/soong/.intermediates/hardware/interfaces/wifi/1.3/android.hardware.wifi@1.3_genc++_headers/gen/android/hardware/wifi/1.3/BpHwWifiChip.h"
  },
  {
   "function_name" : "android::hardware::wifi::V1_3::BpHwWifiChip::removeStaIface",
   "linker_set_key" : "_ZN7android8hardware4wifi4V1_312BpHwWifiChip14removeStaIfaceERKNS0_11hidl_stringENSt3__18functionIFvRKNS1_4V1_010WifiStatusEEEE",
   "parameters" :
   [
    {
     "is_this_ptr" : true,
     "referenced_type" : "type-476"
    },
    {
     "referenced_type" : "type-1397"
    },
    {
     "referenced_type" : "type-1765"
    }
   ],
   "return_type" : "type-1294",
   "source_file" : "/out/soong/.intermediates/hardware/interfaces/wifi/1.3/android.hardware.wifi@1.3_genc++_headers/gen/android/hardware/wifi/1.3/BpHwWifiChip.h"
  },
  {
   "function_name" : "android::hardware::wifi::V1_3::BpHwWifiChip::setLatencyMode",
   "linker_set_key" : "_ZN7android8hardware4wifi4V1_312BpHwWifiChip14setLatencyModeENS2_9IWifiChip11LatencyModeENSt3__18functionIFvRKNS1_4V1_010WifiStatusEEEE",
   "parameters" :
   [
    {
     "is_this_ptr" : true,
     "referenced_type" : "type-476"
    },
    {
     "referenced_type" : "type-370"
    },
    {
     "referenced_type" : "type-1766"
    }
   ],
   "return_type" : "type-1294",
   "source_file" : "/out/soong/.intermediates/hardware/interfaces/wifi/1.3/android.hardware.wifi@1.3_genc++_headers/gen/android/hardware/wifi/1.3/BpHwWifiChip.h"
  },
  {
   "function_name" : "android::hardware::wifi::V1_3::BpHwWifiChip::getApIfaceNames",
   "linker_set_key" : "_ZN7android8hardware4wifi4V1_312BpHwWifiChip15getApIfaceNamesENSt3__18functionIFvRKNS1_4V1_010WifiStatusERKNS0_8hidl_vecINS0_11hidl_stringEEEEEE",
   "parameters" :
   [
    {
     "is_this_ptr" : true,
     "referenced_type" : "type-476"
    },
    {
     "referenced_type" : "type-1767"
    }
   ],
   "return_type" : "type-1294",
   "source_file" : "/out/soong/.intermediates/hardware/interfaces/wifi/1.3/android.hardware.wifi@1.3_genc++_headers/gen/android/hardware/wifi/1.3/BpHwWifiChip.h"
  },
  {
   "function_name" : "android::hardware::wifi::V1_3::BpHwWifiChip::getCapabilities",
   "linker_set_key" : "_ZN7android8hardware4wifi4V1_312BpHwWifiChip15getCapabilitiesENSt3__18functionIFvRKNS1_4V1_010WifiStatusEjEEE",
   "parameters" :
   [
    {
     "is_this_ptr" : true,
     "referenced_type" : "type-476"
    },
    {
     "referenced_type" : "type-1768"
    }
   ],
   "return_type" : "type-1294",
   "source_file" : "/out/soong/.intermediates/hardware/interfaces/wifi/1.3/android.hardware.wifi@1.3_genc++_headers/gen/android/hardware/wifi/1.3/BpHwWifiChip.h"
  },
  {
   "function_name" : "android::hardware::wifi::V1_3::BpHwWifiChip::getNanIfaceNames",
   "linker_set_key" : "_ZN7android8hardware4wifi4V1_312BpHwWifiChip16getNanIfaceNamesENSt3__18functionIFvRKNS1_4V1_010WifiStatusERKNS0_8hidl_vecINS0_11hidl_stringEEEEEE",
   "parameters" :
   [
    {
     "is_this_ptr" : true,
     "referenced_type" : "type-476"
    },
    {
     "referenced_type" : "type-1769"
    }
   ],
   "return_type" : "type-1294",
   "source_file" : "/out/soong/.intermediates/hardware/interfaces/wifi/1.3/android.hardware.wifi@1.3_genc++_headers/gen/android/hardware/wifi/1.3/BpHwWifiChip.h"
  },
  {
   "function_name" : "android::hardware::wifi::V1_3::BpHwWifiChip::getP2pIfaceNames",
   "linker_set_key" : "_ZN7android8hardware4wifi4V1_312BpHwWifiChip16getP2pIfaceNamesENSt3__18functionIFvRKNS1_4V1_010WifiStatusERKNS0_8hidl_vecINS0_11hidl_stringEEEEEE",
   "parameters" :
   [
    {
     "is_this_ptr" : true,
     "referenced_type" : "type-476"
    },
    {
     "referenced_type" : "type-1770"
    }
   ],
   "return_type" : "type-1294",
   "source_file" : "/out/soong/.intermediates/hardware/interfaces/wifi/1.3/android.hardware.wifi@1.3_genc++_headers/gen/android/hardware/wifi/1.3/BpHwWifiChip.h"
  },
  {
   "function_name" : "android::hardware::wifi::V1_3::BpHwWifiChip::getStaIfaceNames",
   "linker_set_key" : "_ZN7android8hardware4wifi4V1_312BpHwWifiChip16getStaIfaceNamesENSt3__18functionIFvRKNS1_4V1_010WifiStatusERKNS0_8hidl_vecINS0_11hidl_stringEEEEEE",
   "parameters" :
   [
    {
     "is_this_ptr" : true,
     "referenced_type" : "type-476"
    },
    {
     "referenced_type" : "type-1771"
    }
   ],
   "return_type" : "type-1294",
   "source_file" : "/out/soong/.intermediates/hardware/interfaces/wifi/1.3/android.hardware.wifi@1.3_genc++_headers/gen/android/hardware/wifi/1.3/BpHwWifiChip.h"
  },
  {
   "function_name" : "android::hardware::wifi::V1_3::BpHwWifiChip::getAvailableModes",
   "linker_set_key" : "_ZN7android8hardware4wifi4V1_312BpHwWifiChip17getAvailableModesENSt3__18functionIFvRKNS1_4V1_010WifiStatusERKNS0_8hidl_vecINS6_9IWifiChip8ChipModeEEEEEE",
   "parameters" :
   [
    {
     "is_this_ptr" : true,
     "referenced_type" : "type-476"
    },
    {
     "referenced_type" : "type-1772"
    }
   ],
   "return_type" : "type-1294",
   "source_file" : "/out/soong/.intermediates/hardware/interfaces/wifi/1.3/android.hardware.wifi@1.3_genc++_headers/gen/android/hardware/wifi/1.3/BpHwWifiChip.h"
  },
  {
   "function_name" : "android::hardware::wifi::V1_3::BpHwWifiChip::createRttController",
   "linker_set_key" : "_ZN7android8hardware4wifi4V1_312BpHwWifiChip19createRttControllerERKNS_2spINS1_4V1_010IWifiIfaceEEENSt3__18functionIFvRKNS5_10WifiStatusERKNS4_INS5_18IWifiRttControllerEEEEEE",
   "parameters" :
   [
    {
     "is_this_ptr" : true,
     "referenced_type" : "type-476"
    },
    {
     "referenced_type" : "type-1176"
    },
    {
     "referenced_type" : "type-1773"
    }
   ],
   "return_type" : "type-1294",
   "source_file" : "/out/soong/.intermediates/hardware/interfaces/wifi/1.3/android.hardware.wifi@1.3_genc++_headers/gen/android/hardware/wifi/1.3/BpHwWifiChip.h"
  },
  {
   "function_name" : "android::hardware::wifi::V1_3::BpHwWifiChip::getCapabilities_1_3",
   "linker_set_key" : "_ZN7android8hardware4wifi4V1_312BpHwWifiChip19getCapabilities_1_3ENSt3__18functionIFvRKNS1_4V1_010WifiStatusEjEEE",
   "parameters" :
   [
    {
     "is_this_ptr" : true,
     "referenced_type" : "type-476"
    },
    {
     "referenced_type" : "type-1774"
    }
   ],
   "return_type" : "type-1294",
   "source_file" : "/out/soong/.intermediates/hardware/interfaces/wifi/1.3/android.hardware.wifi@1.3_genc++_headers/gen/android/hardware/wifi/1.3/BpHwWifiChip.h"
  },
  {
   "function_name" : "android::hardware::wifi::V1_3::BpHwWifiChip::interfaceDescriptor",
   "linker_set_key" : "_ZN7android8hardware4wifi4V1_312BpHwWifiChip19interfaceDescriptorENSt3__18functionIFvRKNS0_11hidl_stringEEEE",
   "parameters" :
   [
    {
     "is_this_ptr" : true,
     "referenced_type" : "type-476"
    },
    {
     "referenced_type" : "type-1775"
    }
   ],
   "return_type" : "type-1294",
   "source_file" : "/out/soong/.intermediates/hardware/interfaces/wifi/1.3/android.hardware.wifi@1.3_genc++_headers/gen/android/hardware/wifi/1.3/BpHwWifiChip.h"
  },
  {
   "function_name" : "android::hardware::wifi::V1_3::BpHwWifiChip::_hidl_setLatencyMode",
   "linker_set_key" : "_ZN7android8hardware4wifi4V1_312BpHwWifiChip20_hidl_setLatencyModeEPNS0_10IInterfaceEPNS0_7details16HidlInstrumentorENS2_9IWifiChip11LatencyModeENSt3__18functionIFvRKNS1_4V1_010WifiStatusEEEE",
   "parameters" :
   [
    {
     "referenced_type" : "type-484"
    },
    {
     "referenced_type" : "type-1057"
    },
    {
     "referenced_type" : "type-370"
    },
    {
     "referenced_type" : "type-1776"
    }
   ],
   "return_type" : "type-1294",
   "source_file" : "/out/soong/.intermediates/hardware/interfaces/wifi/1.3/android.hardware.wifi@1.3_genc++_headers/gen/android/hardware/wifi/1.3/BpHwWifiChip.h"
  },
  {
   "function_name" : "android::hardware::wifi::V1_3::BpHwWifiChip::requestChipDebugInfo",
   "linker_set_key" : "_ZN7android8hardware4wifi4V1_312BpHwWifiChip20requestChipDebugInfoENSt3__18functionIFvRKNS1_4V1_010WifiStatusERKNS6_9IWifiChip13ChipDebugInfoEEEE",
   "parameters" :
   [
    {
     "is_this_ptr" : true,
     "referenced_type" : "type-476"
    },
    {
     "referenced_type" : "type-1777"
    }
   ],
   "return_type" : "type-1294",
   "source_file" : "/out/soong/.intermediates/hardware/interfaces/wifi/1.3/android.hardware.wifi@1.3_genc++_headers/gen/android/hardware/wifi/1.3/BpHwWifiChip.h"
  },
  {
   "function_name" : "android::hardware::wifi::V1_3::BpHwWifiChip::resetTxPowerScenario",
   "linker_set_key" : "_ZN7android8hardware4wifi4V1_312BpHwWifiChip20resetTxPowerScenarioENSt3__18functionIFvRKNS1_4V1_010WifiStatusEEEE",
   "parameters" :
   [
    {
     "is_this_ptr" : true,
     "referenced_type" : "type-476"
    },
    {
     "referenced_type" : "type-1778"
    }
   ],
   "return_type" : "type-1294",
   "source_file" : "/out/soong/.intermediates/hardware/interfaces/wifi/1.3/android.hardware.wifi@1.3_genc++_headers/gen/android/hardware/wifi/1.3/BpHwWifiChip.h"
  },
  {
   "function_name" : "android::hardware::wifi::V1_3::BpHwWifiChip::flushRingBufferToFile",
   "linker_set_key" : "_ZN7android8hardware4wifi4V1_312BpHwWifiChip21flushRingBufferToFileENSt3__18functionIFvRKNS1_4V1_010WifiStatusEEEE",
   "parameters" :
   [
    {
     "is_this_ptr" : true,
     "referenced_type" : "type-476"
    },
    {
     "referenced_type" : "type-1779"
    }
   ],
   "return_type" : "type-1294",
   "source_file" : "/out/soong/.intermediates/hardware/interfaces/wifi/1.3/android.hardware.wifi@1.3_genc++_headers/gen/android/hardware/wifi/1.3/BpHwWifiChip.h"
  },
  {
   "function_name" : "android::hardware::wifi::V1_3::BpHwWifiChip::notifySyspropsChanged",
   "linker_set_key" : "_ZN7android8hardware4wifi4V1_312BpHwWifiChip21notifySyspropsChangedEv",
   "parameters" :
   [
    {
     "is_this_ptr" : true,
     "referenced_type" : "type-476"
    }
   ],
   "return_type" : "type-1294",
   "source_file" : "/out/soong/.intermediates/hardware/interfaces/wifi/1.3/android.hardware.wifi@1.3_genc++_headers/gen/android/hardware/wifi/1.3/BpHwWifiChip.h"
  },
  {
   "function_name" : "android::hardware::wifi::V1_3::BpHwWifiChip::registerEventCallback",
   "linker_set_key" : "_ZN7android8hardware4wifi4V1_312BpHwWifiChip21registerEventCallbackERKNS_2spINS1_4V1_022IWifiChipEventCallbackEEENSt3__18functionIFvRKNS5_10WifiStatusEEEE",
   "parameters" :
   [
    {
     "is_this_ptr" : true,
     "referenced_type" : "type-476"
    },
    {
     "referenced_type" : "type-1186"
    },
    {
     "referenced_type" : "type-1780"
    }
   ],
   "return_type" : "type-1294",
   "source_file" : "/out/soong/.intermediates/hardware/interfaces/wifi/1.3/android.hardware.wifi@1.3_genc++_headers/gen/android/hardware/wifi/1.3/BpHwWifiChip.h"
  },
  {
   "function_name" : "android::hardware::wifi::V1_3::BpHwWifiChip::selectTxPowerScenario",
   "linker_set_key" : "_ZN7android8hardware4wifi4V1_312BpHwWifiChip21selectTxPowerScenarioENS1_4V1_19IWifiChip15TxPowerScenarioENSt3__18functionIFvRKNS1_4V1_010WifiStatusEEEE",
   "parameters" :
   [
    {
     "is_this_ptr" : true,
     "referenced_type" : "type-476"
    },
    {
     "referenced_type" : "type-341"
    },
    {
     "referenced_type" : "type-1781"
    }
   ],
   "return_type" : "type-1294",
   "source_file" : "/out/soong/.intermediates/hardware/interfaces/wifi/1.3/android.hardware.wifi@1.3_genc++_headers/gen/android/hardware/wifi/1.3/BpHwWifiChip.h"
  },
  {
   "function_name" : "android::hardware::wifi::V1_3::BpHwWifiChip::setHALInstrumentation",
   "linker_set_key" : "_ZN7android8hardware4wifi4V1_312BpHwWifiChip21setHALInstrumentationEv",
   "parameters" :
   [
    {
     "is_this_ptr" : true,
     "referenced_type" : "type-476"
    }
   ],
   "return_type" : "type-1294",
   "source_file" : "/out/soong/.intermediates/hardware/interfaces/wifi/1.3/android.hardware.wifi@1.3_genc++_headers/gen/android/hardware/wifi/1.3/BpHwWifiChip.h"
  },
  {
   "function_name" : "android::hardware::wifi::V1_3::BpHwWifiChip::enableDebugErrorAlerts",
   "linker_set_key" : "_ZN7android8hardware4wifi4V1_312BpHwWifiChip22enableDebugErrorAlertsEbNSt3__18functionIFvRKNS1_4V1_010WifiStatusEEEE",
   "parameters" :
   [
    {
     "is_this_ptr" : true,
     "referenced_type" : "type-476"
    },
    {
     "referenced_type" : "type-16"
    },
    {
     "referenced_type" : "type-1782"
    }
   ],
   "return_type" : "type-1294",
   "source_file" : "/out/soong/.intermediates/hardware/interfaces/wifi/1.3/android.hardware.wifi@1.3_genc++_headers/gen/android/hardware/wifi/1.3/BpHwWifiChip.h"
  },
  {
   "function_name" : "android::hardware::wifi::V1_3::BpHwWifiChip::requestDriverDebugDump",
   "linker_set_key" : "_ZN7android8hardware4wifi4V1_312BpHwWifiChip22requestDriverDebugDumpENSt3__18functionIFvRKNS1_4V1_010WifiStatusERKNS0_8hidl_vecIhEEEEE",
   "parameters" :
   [
    {
     "is_this_ptr" : true,
     "referenced_type" : "type-476"
    },
    {
     "referenced_type" : "type-1783"
    }
   ],
   "return_type" : "type-1294",
   "source_file" : "/out/soong/.intermediates/hardware/interfaces/wifi/1.3/android.hardware.wifi@1.3_genc++_headers/gen/android/hardware/wifi/1.3/BpHwWifiChip.h"
  },
  {
   "function_name" : "android::hardware::wifi::V1_3::BpHwWifiChip::requestFirmwareDebugDump",
   "linker_set_key" : "_ZN7android8hardware4wifi4V1_312BpHwWifiChip24requestFirmwareDebugDumpENSt3__18functionIFvRKNS1_4V1_010WifiStatusERKNS0_8hidl_vecIhEEEEE",
   "parameters" :
   [
    {
     "is_this_ptr" : true,
     "referenced_type" : "type-476"
    },
    {
     "referenced_type" : "type-1784"
    }
   ],
   "return_type" : "type-1294",
   "source_file" : "/out/soong/.intermediates/hardware/interfaces/wifi/1.3/android.hardware.wifi@1.3_genc++_headers/gen/android/hardware/wifi/1.3/BpHwWifiChip.h"
  },
  {
   "function_name" : "android::hardware::wifi::V1_3::BpHwWifiChip::_hidl_getCapabilities_1_3",
   "linker_set_key" : "_ZN7android8hardware4wifi4V1_312BpHwWifiChip25_hidl_getCapabilities_1_3EPNS0_10IInterfaceEPNS0_7details16HidlInstrumentorENSt3__18functionIFvRKNS1_4V1_010WifiStatusEjEEE",
   "parameters" :
   [
    {
     "referenced_type" : "type-484"
    },
    {
     "referenced_type" : "type-1057"
    },
    {
     "referenced_type" : "type-1785"
    }
   ],
   "return_type" : "type-1294",
   "source_file" : "/out/soong/.intermediates/hardware/interfaces/wifi/1.3/android.hardware.wifi@1.3_genc++_headers/gen/android/hardware/wifi/1.3/BpHwWifiChip.h"
  },
  {
   "function_name" : "android::hardware::wifi::V1_3::BpHwWifiChip::getDebugRingBuffersStatus",
   "linker_set_key" : "_ZN7android8hardware4wifi4V1_312BpHwWifiChip25getDebugRingBuffersStatusENSt3__18functionIFvRKNS1_4V1_010WifiStatusERKNS0_8hidl_vecINS6_25WifiDebugRingBufferStatusEEEEEE",
   "parameters" :
   [
    {
     "is_this_ptr" : true,
     "referenced_type" : "type-476"
    },
    {
     "referenced_type" : "type-1786"
    }
   ],
   "return_type" : "type-1294",
   "source_file" : "/out/soong/.intermediates/hardware/interfaces/wifi/1.3/android.hardware.wifi@1.3_genc++_headers/gen/android/hardware/wifi/1.3/BpHwWifiChip.h"
  },
  {
   "function_name" : "android::hardware::wifi::V1_3::BpHwWifiChip::registerEventCallback_1_2",
   "linker_set_key" : "_ZN7android8hardware4wifi4V1_312BpHwWifiChip25registerEventCallback_1_2ERKNS_2spINS1_4V1_222IWifiChipEventCallbackEEENSt3__18functionIFvRKNS1_4V1_010WifiStatusEEEE",
   "parameters" :
   [
    {
     "is_this_ptr" : true,
     "referenced_type" : "type-476"
    },
    {
     "referenced_type" : "type-478"
    },
    {
     "referenced_type" : "type-1787"
    }
   ],
   "return_type" : "type-1294",
   "source_file" : "/out/soong/.intermediates/hardware/interfaces/wifi/1.3/android.hardware.wifi@1.3_genc++_headers/gen/android/hardware/wifi/1.3/BpHwWifiChip.h"
  },
  {
   "function_name" : "android::hardware::wifi::V1_3::BpHwWifiChip::selectTxPowerScenario_1_2",
   "linker_set_key" : "_ZN7android8hardware4wifi4V1_312BpHwWifiChip25selectTxPowerScenario_1_2ENS1_4V1_29IWifiChip15TxPowerScenarioENSt3__18functionIFvRKNS1_4V1_010WifiStatusEEEE",
   "parameters" :
   [
    {
     "is_this_ptr" : true,
     "referenced_type" : "type-476"
    },
    {
     "referenced_type" : "type-359"
    },
    {
     "referenced_type" : "type-1788"
    }
   ],
   "return_type" : "type-1294",
   "source_file" : "/out/soong/.intermediates/hardware/interfaces/wifi/1.3/android.hardware.wifi@1.3_genc++_headers/gen/android/hardware/wifi/1.3/BpHwWifiChip.h"
  },
  {
   "function_name" : "android::hardware::wifi::V1_3::BpHwWifiChip::forceDumpToDebugRingBuffer",
   "linker_set_key" : "_ZN7android8hardware4wifi4V1_312BpHwWifiChip26forceDumpToDebugRingBufferERKNS0_11hidl_stringENSt3__18functionIFvRKNS1_4V1_010WifiStatusEEEE",
   "parameters" :
   [
    {
     "is_this_ptr" : true,
     "referenced_type" : "type-476"
    },
    {
     "referenced_type" : "type-1397"
    },
    {
     "referenced_type" : "type-1789"
    }
   ],
   "return_type" : "type-1294",
   "source_file" : "/out/soong/.intermediates/hardware/interfaces/wifi/1.3/android.hardware.wifi@1.3_genc++_headers/gen/android/hardware/wifi/1.3/BpHwWifiChip.h"
  },
  {
   "function_name" : "android::hardware::wifi::V1_3::BpHwWifiChip::_hidl_flushRingBufferToFile",
   "linker_set_key" : "_ZN7android8hardware4wifi4V1_312BpHwWifiChip27_hidl_flushRingBufferToFileEPNS0_10IInterfaceEPNS0_7details16HidlInstrumentorENSt3__18functionIFvRKNS1_4V1_010WifiStatusEEEE",
   "parameters" :
   [
    {
     "referenced_type" : "type-484"
    },
    {
     "referenced_type" : "type-1057"
    },
    {
     "referenced_type" : "type-1790"
    }
   ],
   "return_type" : "type-1294",
   "source_file" : "/out/soong/.intermediates/hardware/interfaces/wifi/1.3/android.hardware.wifi@1.3_genc++_headers/gen/android/hardware/wifi/1.3/BpHwWifiChip.h"
  },
  {
   "function_name" : "android::hardware::wifi::V1_3::BpHwWifiChip::getDebugHostWakeReasonStats",
   "linker_set_key" : "_ZN7android8hardware4wifi4V1_312BpHwWifiChip27getDebugHostWakeReasonStatsENSt3__18functionIFvRKNS1_4V1_010WifiStatusERKNS6_28WifiDebugHostWakeReasonStatsEEEE",
   "parameters" :
   [
    {
     "is_this_ptr" : true,
     "referenced_type" : "type-476"
    },
    {
     "referenced_type" : "type-1791"
    }
   ],
   "return_type" : "type-1294",
   "source_file" : "/out/soong/.intermediates/hardware/interfaces/wifi/1.3/android.hardware.wifi@1.3_genc++_headers/gen/android/hardware/wifi/1.3/BpHwWifiChip.h"
  },
  {
   "function_name" : "android::hardware::wifi::V1_3::BpHwWifiChip::stopLoggingToDebugRingBuffer",
   "linker_set_key" : "_ZN7android8hardware4wifi4V1_312BpHwWifiChip28stopLoggingToDebugRingBufferENSt3__18functionIFvRKNS1_4V1_010WifiStatusEEEE",
   "parameters" :
   [
    {
     "is_this_ptr" : true,
     "referenced_type" : "type-476"
    },
    {
     "referenced_type" : "type-1792"
    }
   ],
   "return_type" : "type-1294",
   "source_file" : "/out/soong/.intermediates/hardware/interfaces/wifi/1.3/android.hardware.wifi@1.3_genc++_headers/gen/android/hardware/wifi/1.3/BpHwWifiChip.h"
  },
  {
   "function_name" : "android::hardware::wifi::V1_3::BpHwWifiChip::startLoggingToDebugRingBuffer",
   "linker_set_key" : "_ZN7android8hardware4wifi4V1_312BpHwWifiChip29startLoggingToDebugRingBufferERKNS0_11hidl_stringENS1_4V1_031WifiDebugRingBufferVerboseLevelEjjNSt3__18functionIFvRKNS7_10WifiStatusEEEE",
   "parameters" :
   [
    {
     "is_this_ptr" : true,
     "referenced_type" : "type-476"
    },
    {
     "referenced_type" : "type-1397"
    },
    {
     "referenced_type" : "type-147"
    },
    {
     "referenced_type" : "type-2"
    },
    {
     "referenced_type" : "type-2"
    },
    {
     "referenced_type" : "type-1793"
    }
   ],
   "return_type" : "type-1294",
   "source_file" : "/out/soong/.intermediates/hardware/interfaces/wifi/1.3/android.hardware.wifi@1.3_genc++_headers/gen/android/hardware/wifi/1.3/BpHwWifiChip.h"
  },
  {
   "function_name" : "android::hardware::wifi::V1_3::BpHwWifiChip::ping",
   "linker_set_key" : "_ZN7android8hardware4wifi4V1_312BpHwWifiChip4pingEv",
   "parameters" :
   [
    {
     "is_this_ptr" : true,
     "referenced_type" : "type-476"
    }
   ],
   "return_type" : "type-1294",
   "source_file" : "/out/soong/.intermediates/hardware/interfaces/wifi/1.3/android.hardware.wifi@1.3_genc++_headers/gen/android/hardware/wifi/1.3/BpHwWifiChip.h"
  },
  {
   "function_name" : "android::hardware::wifi::V1_3::BpHwWifiChip::debug",
   "linker_set_key" : "_ZN7android8hardware4wifi4V1_312BpHwWifiChip5debugERKNS0_11hidl_handleERKNS0_8hidl_vecINS0_11hidl_stringEEE",
   "parameters" :
   [
    {
     "is_this_ptr" : true,
     "referenced_type" : "type-476"
    },
    {
     "referenced_type" : "type-1540"
    },
    {
     "referenced_type" : "type-97"
    }
   ],
   "return_type" : "type-1294",
   "source_file" : "/out/soong/.intermediates/hardware/interfaces/wifi/1.3/android.hardware.wifi@1.3_genc++_headers/gen/android/hardware/wifi/1.3/BpHwWifiChip.h"
  },
  {
   "function_name" : "android::hardware::wifi::V1_3::BpHwWifiChip::getId",
   "linker_set_key" : "_ZN7android8hardware4wifi4V1_312BpHwWifiChip5getIdENSt3__18functionIFvRKNS1_4V1_010WifiStatusEjEEE",
   "parameters" :
   [
    {
     "is_this_ptr" : true,
     "referenced_type" : "type-476"
    },
    {
     "referenced_type" : "type-1794"
    }
   ],
   "return_type" : "type-1294",
   "source_file" : "/out/soong/.intermediates/hardware/interfaces/wifi/1.3/android.hardware.wifi@1.3_genc++_headers/gen/android/hardware/wifi/1.3/BpHwWifiChip.h"
  },
  {
   "function_name" : "android::hardware::wifi::V1_3::BpHwWifiChip::getMode",
   "linker_set_key" : "_ZN7android8hardware4wifi4V1_312BpHwWifiChip7getModeENSt3__18functionIFvRKNS1_4V1_010WifiStatusEjEEE",
   "parameters" :
   [
    {
     "is_this_ptr" : true,
     "referenced_type" : "type-476"
    },
    {
     "referenced_type" : "type-1795"
    }
   ],
   "return_type" : "type-1294",
   "source_file" : "/out/soong/.intermediates/hardware/interfaces/wifi/1.3/android.hardware.wifi@1.3_genc++_headers/gen/android/hardware/wifi/1.3/BpHwWifiChip.h"
  },
  {
   "function_name" : "android::hardware::wifi::V1_3::BpHwWifiChip::BpHwWifiChip",
   "linker_set_key" : "_ZN7android8hardware4wifi4V1_312BpHwWifiChipC1ERKNS_2spINS0_7IBinderEEE",
   "parameters" :
   [
    {
     "is_this_ptr" : true,
     "referenced_type" : "type-476"
    },
    {
     "referenced_type" : "type-1140"
    }
   ],
   "return_type" : "type-311",
   "source_file" : "/out/soong/.intermediates/hardware/interfaces/wifi/1.3/android.hardware.wifi@1.3_genc++_headers/gen/android/hardware/wifi/1.3/BpHwWifiChip.h"
  },
  {
   "function_name" : "android::hardware::wifi::V1_3::BpHwWifiChip::BpHwWifiChip",
   "linker_set_key" : "_ZN7android8hardware4wifi4V1_312BpHwWifiChipC2ERKNS_2spINS0_7IBinderEEE",
   "parameters" :
   [
    {
     "is_this_ptr" : true,
     "referenced_type" : "type-476"
    },
    {
     "referenced_type" : "type-1140"
    }
   ],
   "return_type" : "type-311",
   "source_file" : "/out/soong/.intermediates/hardware/interfaces/wifi/1.3/android.hardware.wifi@1.3_genc++_headers/gen/android/hardware/wifi/1.3/BpHwWifiChip.h"
  },
  {
   "function_name" : "android::hardware::wifi::V1_3::IWifiStaIface::getService",
   "linker_set_key" : "_ZN7android8hardware4wifi4V1_313IWifiStaIface10getServiceERKNSt3__112basic_stringIcNS4_11char_traitsIcEENS4_9allocatorIcEEEEb",
   "parameters" :
   [
    {
     "default_arg" : true,
     "referenced_type" : "type-774"
    },
    {
     "default_arg" : true,
     "referenced_type" : "type-16"
    }
   ],
   "return_type" : "type-676",
   "source_file" : "/out/soong/.intermediates/hardware/interfaces/wifi/1.3/android.hardware.wifi@1.3_genc++_headers/gen/android/hardware/wifi/1.3/IWifiStaIface.h"
  },
  {
   "function_name" : "android::hardware::wifi::V1_3::IWifiStaIface::linkToDeath",
   "linker_set_key" : "_ZN7android8hardware4wifi4V1_313IWifiStaIface11linkToDeathERKNS_2spINS0_20hidl_death_recipientEEEm",
   "parameters" :
   [
    {
     "is_this_ptr" : true,
     "referenced_type" : "type-677"
    },
    {
     "referenced_type" : "type-1087"
    },
    {
     "referenced_type" : "type-15"
    }
   ],
   "return_type" : "type-1270",
   "source_file" : "/out/soong/.intermediates/hardware/interfaces/wifi/1.3/android.hardware.wifi@1.3_genc++_headers/gen/android/hardware/wifi/1.3/IWifiStaIface.h"
  },
  {
   "function_name" : "android::hardware::wifi::V1_3::IWifiStaIface::getDebugInfo",
   "linker_set_key" : "_ZN7android8hardware4wifi4V1_313IWifiStaIface12getDebugInfoENSt3__18functionIFvRKNS_4hidl4base4V1_09DebugInfoEEEE",
   "parameters" :
   [
    {
     "is_this_ptr" : true,
     "referenced_type" : "type-677"
    },
    {
     "referenced_type" : "type-1796"
    }
   ],
   "return_type" : "type-1294",
   "source_file" : "/out/soong/.intermediates/hardware/interfaces/wifi/1.3/android.hardware.wifi@1.3_genc++_headers/gen/android/hardware/wifi/1.3/IWifiStaIface.h"
  },
  {
   "function_name" : "android::hardware::wifi::V1_3::IWifiStaIface::getHashChain",
   "linker_set_key" : "_ZN7android8hardware4wifi4V1_313IWifiStaIface12getHashChainENSt3__18functionIFvRKNS0_8hidl_vecINS0_10hidl_arrayIhLm32EJEEEEEEEE",
   "parameters" :
   [
    {
     "is_this_ptr" : true,
     "referenced_type" : "type-677"
    },
    {
     "referenced_type" : "type-1797"
    }
   ],
   "return_type" : "type-1294",
   "source_file" : "/out/soong/.intermediates/hardware/interfaces/wifi/1.3/android.hardware.wifi@1.3_genc++_headers/gen/android/hardware/wifi/1.3/IWifiStaIface.h"
  },
  {
   "function_name" : "android::hardware::wifi::V1_3::IWifiStaIface::tryGetService",
   "linker_set_key" : "_ZN7android8hardware4wifi4V1_313IWifiStaIface13tryGetServiceERKNSt3__112basic_stringIcNS4_11char_traitsIcEENS4_9allocatorIcEEEEb",
   "parameters" :
   [
    {
     "default_arg" : true,
     "referenced_type" : "type-774"
    },
    {
     "default_arg" : true,
     "referenced_type" : "type-16"
    }
   ],
   "return_type" : "type-676",
   "source_file" : "/out/soong/.intermediates/hardware/interfaces/wifi/1.3/android.hardware.wifi@1.3_genc++_headers/gen/android/hardware/wifi/1.3/IWifiStaIface.h"
  },
  {
   "function_name" : "android::hardware::wifi::V1_3::IWifiStaIface::unlinkToDeath",
   "linker_set_key" : "_ZN7android8hardware4wifi4V1_313IWifiStaIface13unlinkToDeathERKNS_2spINS0_20hidl_death_recipientEEE",
   "parameters" :
   [
    {
     "is_this_ptr" : true,
     "referenced_type" : "type-677"
    },
    {
     "referenced_type" : "type-1087"
    }
   ],
   "return_type" : "type-1270",
   "source_file" : "/out/soong/.intermediates/hardware/interfaces/wifi/1.3/android.hardware.wifi@1.3_genc++_headers/gen/android/hardware/wifi/1.3/IWifiStaIface.h"
  },
  {
   "function_name" : "android::hardware::wifi::V1_3::IWifiStaIface::interfaceChain",
   "linker_set_key" : "_ZN7android8hardware4wifi4V1_313IWifiStaIface14interfaceChainENSt3__18functionIFvRKNS0_8hidl_vecINS0_11hidl_stringEEEEEE",
   "parameters" :
   [
    {
     "is_this_ptr" : true,
     "referenced_type" : "type-677"
    },
    {
     "referenced_type" : "type-1798"
    }
   ],
   "return_type" : "type-1294",
   "source_file" : "/out/soong/.intermediates/hardware/interfaces/wifi/1.3/android.hardware.wifi@1.3_genc++_headers/gen/android/hardware/wifi/1.3/IWifiStaIface.h"
  },
  {
   "function_name" : "android::hardware::wifi::V1_3::IWifiStaIface::registerAsService",
   "linker_set_key" : "_ZN7android8hardware4wifi4V1_313IWifiStaIface17registerAsServiceERKNSt3__112basic_stringIcNS4_11char_traitsIcEENS4_9allocatorIcEEEE",
   "parameters" :
   [
    {
     "is_this_ptr" : true,
     "referenced_type" : "type-677"
    },
    {
     "default_arg" : true,
     "referenced_type" : "type-774"
    }
   ],
   "return_type" : "type-23",
   "source_file" : "/out/soong/.intermediates/hardware/interfaces/wifi/1.3/android.hardware.wifi@1.3_genc++_headers/gen/android/hardware/wifi/1.3/IWifiStaIface.h"
  },
  {
   "function_name" : "android::hardware::wifi::V1_3::IWifiStaIface::interfaceDescriptor",
   "linker_set_key" : "_ZN7android8hardware4wifi4V1_313IWifiStaIface19interfaceDescriptorENSt3__18functionIFvRKNS0_11hidl_stringEEEE",
   "parameters" :
   [
    {
     "is_this_ptr" : true,
     "referenced_type" : "type-677"
    },
    {
     "referenced_type" : "type-1799"
    }
   ],
   "return_type" : "type-1294",
   "source_file" : "/out/soong/.intermediates/hardware/interfaces/wifi/1.3/android.hardware.wifi@1.3_genc++_headers/gen/android/hardware/wifi/1.3/IWifiStaIface.h"
  },
  {
   "function_name" : "android::hardware::wifi::V1_3::IWifiStaIface::notifySyspropsChanged",
   "linker_set_key" : "_ZN7android8hardware4wifi4V1_313IWifiStaIface21notifySyspropsChangedEv",
   "parameters" :
   [
    {
     "is_this_ptr" : true,
     "referenced_type" : "type-677"
    }
   ],
   "return_type" : "type-1294",
   "source_file" : "/out/soong/.intermediates/hardware/interfaces/wifi/1.3/android.hardware.wifi@1.3_genc++_headers/gen/android/hardware/wifi/1.3/IWifiStaIface.h"
  },
  {
   "function_name" : "android::hardware::wifi::V1_3::IWifiStaIface::setHALInstrumentation",
   "linker_set_key" : "_ZN7android8hardware4wifi4V1_313IWifiStaIface21setHALInstrumentationEv",
   "parameters" :
   [
    {
     "is_this_ptr" : true,
     "referenced_type" : "type-677"
    }
   ],
   "return_type" : "type-1294",
   "source_file" : "/out/soong/.intermediates/hardware/interfaces/wifi/1.3/android.hardware.wifi@1.3_genc++_headers/gen/android/hardware/wifi/1.3/IWifiStaIface.h"
  },
  {
   "function_name" : "android::hardware::wifi::V1_3::IWifiStaIface::registerForNotifications",
   "linker_set_key" : "_ZN7android8hardware4wifi4V1_313IWifiStaIface24registerForNotificationsERKNSt3__112basic_stringIcNS4_11char_traitsIcEENS4_9allocatorIcEEEERKNS_2spINS_4hidl7manager4V1_020IServiceNotificationEEE",
   "parameters" :
   [
    {
     "referenced_type" : "type-774"
    },
    {
     "referenced_type" : "type-110"
    }
   ],
   "return_type" : "type-16",
   "source_file" : "/out/soong/.intermediates/hardware/interfaces/wifi/1.3/android.hardware.wifi@1.3_genc++_headers/gen/android/hardware/wifi/1.3/IWifiStaIface.h"
  },
  {
   "function_name" : "android::hardware::wifi::V1_3::IWifiStaIface::ping",
   "linker_set_key" : "_ZN7android8hardware4wifi4V1_313IWifiStaIface4pingEv",
   "parameters" :
   [
    {
     "is_this_ptr" : true,
     "referenced_type" : "type-677"
    }
   ],
   "return_type" : "type-1294",
   "source_file" : "/out/soong/.intermediates/hardware/interfaces/wifi/1.3/android.hardware.wifi@1.3_genc++_headers/gen/android/hardware/wifi/1.3/IWifiStaIface.h"
  },
  {
   "function_name" : "android::hardware::wifi::V1_3::IWifiStaIface::debug",
   "linker_set_key" : "_ZN7android8hardware4wifi4V1_313IWifiStaIface5debugERKNS0_11hidl_handleERKNS0_8hidl_vecINS0_11hidl_stringEEE",
   "parameters" :
   [
    {
     "is_this_ptr" : true,
     "referenced_type" : "type-677"
    },
    {
     "referenced_type" : "type-1540"
    },
    {
     "referenced_type" : "type-97"
    }
   ],
   "return_type" : "type-1294",
   "source_file" : "/out/soong/.intermediates/hardware/interfaces/wifi/1.3/android.hardware.wifi@1.3_genc++_headers/gen/android/hardware/wifi/1.3/IWifiStaIface.h"
  },
  {
   "function_name" : "android::hardware::wifi::V1_3::IWifiStaIface::castFrom",
   "linker_set_key" : "_ZN7android8hardware4wifi4V1_313IWifiStaIface8castFromERKNS_2spINS1_4V1_010IWifiIfaceEEEb",
   "parameters" :
   [
    {
     "referenced_type" : "type-1176"
    },
    {
     "default_arg" : true,
     "referenced_type" : "type-16"
    }
   ],
   "return_type" : "type-717",
   "source_file" : "/out/soong/.intermediates/hardware/interfaces/wifi/1.3/android.hardware.wifi@1.3_genc++_headers/gen/android/hardware/wifi/1.3/IWifiStaIface.h"
  },
  {
   "function_name" : "android::hardware::wifi::V1_3::IWifiStaIface::castFrom",
   "linker_set_key" : "_ZN7android8hardware4wifi4V1_313IWifiStaIface8castFromERKNS_2spINS1_4V1_013IWifiStaIfaceEEEb",
   "parameters" :
   [
    {
     "referenced_type" : "type-1224"
    },
    {
     "default_arg" : true,
     "referenced_type" : "type-16"
    }
   ],
   "return_type" : "type-717",
   "source_file" : "/out/soong/.intermediates/hardware/interfaces/wifi/1.3/android.hardware.wifi@1.3_genc++_headers/gen/android/hardware/wifi/1.3/IWifiStaIface.h"
  },
  {
   "function_name" : "android::hardware::wifi::V1_3::IWifiStaIface::castFrom",
   "linker_set_key" : "_ZN7android8hardware4wifi4V1_313IWifiStaIface8castFromERKNS_2spINS1_4V1_213IWifiStaIfaceEEEb",
   "parameters" :
   [
    {
     "referenced_type" : "type-706"
    },
    {
     "default_arg" : true,
     "referenced_type" : "type-16"
    }
   ],
   "return_type" : "type-717",
   "source_file" : "/out/soong/.intermediates/hardware/interfaces/wifi/1.3/android.hardware.wifi@1.3_genc++_headers/gen/android/hardware/wifi/1.3/IWifiStaIface.h"
  },
  {
   "function_name" : "android::hardware::wifi::V1_3::IWifiStaIface::castFrom",
   "linker_set_key" : "_ZN7android8hardware4wifi4V1_313IWifiStaIface8castFromERKNS_2spINS_4hidl4base4V1_05IBaseEEEb",
   "parameters" :
   [
    {
     "referenced_type" : "type-1105"
    },
    {
     "default_arg" : true,
     "referenced_type" : "type-16"
    }
   ],
   "return_type" : "type-717",
   "source_file" : "/out/soong/.intermediates/hardware/interfaces/wifi/1.3/android.hardware.wifi@1.3_genc++_headers/gen/android/hardware/wifi/1.3/IWifiStaIface.h"
  },
  {
   "function_name" : "android::hardware::wifi::V1_3::IWifiStaIface::castFrom",
   "linker_set_key" : "_ZN7android8hardware4wifi4V1_313IWifiStaIface8castFromERKNS_2spIS3_EEb",
   "parameters" :
   [
    {
     "referenced_type" : "type-684"
    },
    {
     "default_arg" : true,
     "referenced_type" : "type-16"
    }
   ],
   "return_type" : "type-717",
   "source_file" : "/out/soong/.intermediates/hardware/interfaces/wifi/1.3/android.hardware.wifi@1.3_genc++_headers/gen/android/hardware/wifi/1.3/IWifiStaIface.h"
  },
  {
   "access" : "private",
   "function_name" : "android::hardware::wifi::V1_3::BsWifiStaIface::addOnewayTask",
   "linker_set_key" : "_ZN7android8hardware4wifi4V1_314BsWifiStaIface13addOnewayTaskENSt3__18functionIFvvEEE",
   "parameters" :
   [
    {
     "is_this_ptr" : true,
     "referenced_type" : "type-688"
    },
    {
     "referenced_type" : "type-1802"
    }
   ],
   "return_type" : "type-1294",
   "source_file" : "/out/soong/.intermediates/hardware/interfaces/wifi/1.3/android.hardware.wifi@1.3_genc++_headers/gen/android/hardware/wifi/1.3/BsWifiStaIface.h"
  },
  {
   "function_name" : "android::hardware::wifi::V1_3::BsWifiStaIface::BsWifiStaIface",
   "linker_set_key" : "_ZN7android8hardware4wifi4V1_314BsWifiStaIfaceC1ENS_2spINS2_13IWifiStaIfaceEEE",
   "parameters" :
   [
    {
     "is_this_ptr" : true,
     "referenced_type" : "type-688"
    },
    {
     "referenced_type" : "type-675"
    }
   ],
   "return_type" : "type-311",
   "source_file" : "/out/soong/.intermediates/hardware/interfaces/wifi/1.3/android.hardware.wifi@1.3_genc++_headers/gen/android/hardware/wifi/1.3/BsWifiStaIface.h"
  },
  {
   "function_name" : "android::hardware::wifi::V1_3::BsWifiStaIface::BsWifiStaIface",
   "linker_set_key" : "_ZN7android8hardware4wifi4V1_314BsWifiStaIfaceC2ENS_2spINS2_13IWifiStaIfaceEEE",
   "parameters" :
   [
    {
     "is_this_ptr" : true,
     "referenced_type" : "type-688"
    },
    {
     "referenced_type" : "type-675"
    }
   ],
   "return_type" : "type-311",
   "source_file" : "/out/soong/.intermediates/hardware/interfaces/wifi/1.3/android.hardware.wifi@1.3_genc++_headers/gen/android/hardware/wifi/1.3/BsWifiStaIface.h"
  },
  {
   "function_name" : "android::hardware::wifi::V1_3::BnHwWifiStaIface::onTransact",
   "linker_set_key" : "_ZN7android8hardware4wifi4V1_316BnHwWifiStaIface10onTransactEjRKNS0_6ParcelEPS4_jNSt3__18functionIFvRS4_EEE",
   "parameters" :
   [
    {
     "is_this_ptr" : true,
     "referenced_type" : "type-686"
    },
    {
     "referenced_type" : "type-2"
    },
    {
     "referenced_type" : "type-1585"
    },
    {
     "referenced_type" : "type-1575"
    },
    {
     "default_arg" : true,
     "referenced_type" : "type-2"
    },
    {
     "default_arg" : true,
     "referenced_type" : "type-1834"
    }
   ],
   "return_type" : "type-23",
   "source_file" : "/out/soong/.intermediates/hardware/interfaces/wifi/1.3/android.hardware.wifi@1.3_genc++_headers/gen/android/hardware/wifi/1.3/BnHwWifiStaIface.h"
  },
  {
   "access" : "private",
   "function_name" : "android::hardware::wifi::V1_3::BnHwWifiStaIface::getDebugInfo",
   "linker_set_key" : "_ZN7android8hardware4wifi4V1_316BnHwWifiStaIface12getDebugInfoENSt3__18functionIFvRKNS_4hidl4base4V1_09DebugInfoEEEE",
   "parameters" :
   [
    {
     "is_this_ptr" : true,
     "referenced_type" : "type-686"
    },
    {
     "referenced_type" : "type-1835"
    }
   ],
   "return_type" : "type-1294",
   "source_file" : "/out/soong/.intermediates/hardware/interfaces/wifi/1.3/android.hardware.wifi@1.3_genc++_headers/gen/android/hardware/wifi/1.3/BnHwWifiStaIface.h"
  },
  {
   "function_name" : "android::hardware::wifi::V1_3::BnHwWifiStaIface::_hidl_getFactoryMacAddress",
   "linker_set_key" : "_ZN7android8hardware4wifi4V1_316BnHwWifiStaIface26_hidl_getFactoryMacAddressEPNS_4hidl4base4V1_08BnHwBaseERKNS0_6ParcelEPS9_NSt3__18functionIFvRS9_EEE",
   "parameters" :
   [
    {
     "referenced_type" : "type-1586"
    },
    {
     "referenced_type" : "type-1585"
    },
    {
     "referenced_type" : "type-1575"
    },
    {
     "referenced_type" : "type-1836"
    }
   ],
   "return_type" : "type-23",
   "source_file" : "/out/soong/.intermediates/hardware/interfaces/wifi/1.3/android.hardware.wifi@1.3_genc++_headers/gen/android/hardware/wifi/1.3/BnHwWifiStaIface.h"
  },
  {
   "function_name" : "android::hardware::wifi::V1_3::BnHwWifiStaIface::_hidl_getLinkLayerStats_1_3",
   "linker_set_key" : "_ZN7android8hardware4wifi4V1_316BnHwWifiStaIface27_hidl_getLinkLayerStats_1_3EPNS_4hidl4base4V1_08BnHwBaseERKNS0_6ParcelEPS9_NSt3__18functionIFvRS9_EEE",
   "parameters" :
   [
    {
     "referenced_type" : "type-1586"
    },
    {
     "referenced_type" : "type-1585"
    },
    {
     "referenced_type" : "type-1575"
    },
    {
     "referenced_type" : "type-1837"
    }
   ],
   "return_type" : "type-23",
   "source_file" : "/out/soong/.intermediates/hardware/interfaces/wifi/1.3/android.hardware.wifi@1.3_genc++_headers/gen/android/hardware/wifi/1.3/BnHwWifiStaIface.h"
  },
  {
   "access" : "private",
   "function_name" : "android::hardware::wifi::V1_3::BnHwWifiStaIface::ping",
   "linker_set_key" : "_ZN7android8hardware4wifi4V1_316BnHwWifiStaIface4pingEv",
   "parameters" :
   [
    {
     "is_this_ptr" : true,
     "referenced_type" : "type-686"
    }
   ],
   "return_type" : "type-1294",
   "source_file" : "/out/soong/.intermediates/hardware/interfaces/wifi/1.3/android.hardware.wifi@1.3_genc++_headers/gen/android/hardware/wifi/1.3/BnHwWifiStaIface.h"
  },
  {
   "function_name" : "android::hardware::wifi::V1_3::BnHwWifiStaIface::BnHwWifiStaIface",
   "linker_set_key" : "_ZN7android8hardware4wifi4V1_316BnHwWifiStaIfaceC1ERKNS_2spINS2_13IWifiStaIfaceEEE",
   "parameters" :
   [
    {
     "is_this_ptr" : true,
     "referenced_type" : "type-686"
    },
    {
     "referenced_type" : "type-684"
    }
   ],
   "return_type" : "type-311",
   "source_file" : "/out/soong/.intermediates/hardware/interfaces/wifi/1.3/android.hardware.wifi@1.3_genc++_headers/gen/android/hardware/wifi/1.3/BnHwWifiStaIface.h"
  },
  {
   "function_name" : "android::hardware::wifi::V1_3::BnHwWifiStaIface::BnHwWifiStaIface",
   "linker_set_key" : "_ZN7android8hardware4wifi4V1_316BnHwWifiStaIfaceC2ERKNS_2spINS2_13IWifiStaIfaceEEE",
   "parameters" :
   [
    {
     "is_this_ptr" : true,
     "referenced_type" : "type-686"
    },
    {
     "referenced_type" : "type-684"
    }
   ],
   "return_type" : "type-311",
   "source_file" : "/out/soong/.intermediates/hardware/interfaces/wifi/1.3/android.hardware.wifi@1.3_genc++_headers/gen/android/hardware/wifi/1.3/BnHwWifiStaIface.h"
  },
  {
   "function_name" : "android::hardware::wifi::V1_3::BnHwWifiStaIface::~BnHwWifiStaIface",
   "linker_set_key" : "_ZN7android8hardware4wifi4V1_316BnHwWifiStaIfaceD0Ev",
   "parameters" :
   [
    {
     "is_this_ptr" : true,
     "referenced_type" : "type-686"
    }
   ],
   "return_type" : "type-311",
   "source_file" : "/out/soong/.intermediates/hardware/interfaces/wifi/1.3/android.hardware.wifi@1.3_genc++_headers/gen/android/hardware/wifi/1.3/BnHwWifiStaIface.h"
  },
  {
   "function_name" : "android::hardware::wifi::V1_3::BnHwWifiStaIface::~BnHwWifiStaIface",
   "linker_set_key" : "_ZN7android8hardware4wifi4V1_316BnHwWifiStaIfaceD1Ev",
   "parameters" :
   [
    {
     "is_this_ptr" : true,
     "referenced_type" : "type-686"
    }
   ],
   "return_type" : "type-311",
   "source_file" : "/out/soong/.intermediates/hardware/interfaces/wifi/1.3/android.hardware.wifi@1.3_genc++_headers/gen/android/hardware/wifi/1.3/BnHwWifiStaIface.h"
  },
  {
   "function_name" : "android::hardware::wifi::V1_3::BnHwWifiStaIface::~BnHwWifiStaIface",
   "linker_set_key" : "_ZN7android8hardware4wifi4V1_316BnHwWifiStaIfaceD2Ev",
   "parameters" :
   [
    {
     "is_this_ptr" : true,
     "referenced_type" : "type-686"
    }
   ],
   "return_type" : "type-311",
   "source_file" : "/out/soong/.intermediates/hardware/interfaces/wifi/1.3/android.hardware.wifi@1.3_genc++_headers/gen/android/hardware/wifi/1.3/BnHwWifiStaIface.h"
  },
  {
   "function_name" : "android::hardware::wifi::V1_3::BpHwWifiStaIface::linkToDeath",
   "linker_set_key" : "_ZN7android8hardware4wifi4V1_316BpHwWifiStaIface11linkToDeathERKNS_2spINS0_20hidl_death_recipientEEEm",
   "parameters" :
   [
    {
     "is_this_ptr" : true,
     "referenced_type" : "type-693"
    },
    {
     "referenced_type" : "type-1087"
    },
    {
     "referenced_type" : "type-15"
    }
   ],
   "return_type" : "type-1270",
   "source_file" : "/out/soong/.intermediates/hardware/interfaces/wifi/1.3/android.hardware.wifi@1.3_genc++_headers/gen/android/hardware/wifi/1.3/BpHwWifiStaIface.h"
  },
  {
   "function_name" : "android::hardware::wifi::V1_3::BpHwWifiStaIface::getDebugInfo",
   "linker_set_key" : "_ZN7android8hardware4wifi4V1_316BpHwWifiStaIface12getDebugInfoENSt3__18functionIFvRKNS_4hidl4base4V1_09DebugInfoEEEE",
   "parameters" :
   [
    {
     "is_this_ptr" : true,
     "referenced_type" : "type-693"
    },
    {
     "referenced_type" : "type-1838"
    }
   ],
   "return_type" : "type-1294",
   "source_file" : "/out/soong/.intermediates/hardware/interfaces/wifi/1.3/android.hardware.wifi@1.3_genc++_headers/gen/android/hardware/wifi/1.3/BpHwWifiStaIface.h"
  },
  {
   "function_name" : "android::hardware::wifi::V1_3::BpHwWifiStaIface::getHashChain",
   "linker_set_key" : "_ZN7android8hardware4wifi4V1_316BpHwWifiStaIface12getHashChainENSt3__18functionIFvRKNS0_8hidl_vecINS0_10hidl_arrayIhLm32EJEEEEEEEE",
   "parameters" :
   [
    {
     "is_this_ptr" : true,
     "referenced_type" : "type-693"
    },
    {
     "referenced_type" : "type-1839"
    }
   ],
   "return_type" : "type-1294",
   "source_file" : "/out/soong/.intermediates/hardware/interfaces/wifi/1.3/android.hardware.wifi@1.3_genc++_headers/gen/android/hardware/wifi/1.3/BpHwWifiStaIface.h"
  },
  {
   "function_name" : "android::hardware::wifi::V1_3::BpHwWifiStaIface::setMacAddress",
   "linker_set_key" : "_ZN7android8hardware4wifi4V1_316BpHwWifiStaIface13setMacAddressERKNS0_10hidl_arrayIhLm6EJEEENSt3__18functionIFvRKNS1_4V1_010WifiStatusEEEE",
   "parameters" :
   [
    {
     "is_this_ptr" : true,
     "referenced_type" : "type-693"
    },
    {
     "referenced_type" : "type-1498"
    },
    {
     "referenced_type" : "type-1840"
    }
   ],
   "return_type" : "type-1294",
   "source_file" : "/out/soong/.intermediates/hardware/interfaces/wifi/1.3/android.hardware.wifi@1.3_genc++_headers/gen/android/hardware/wifi/1.3/BpHwWifiStaIface.h"
  },
  {
   "function_name" : "android::hardware::wifi::V1_3::BpHwWifiStaIface::unlinkToDeath",
   "linker_set_key" : "_ZN7android8hardware4wifi4V1_316BpHwWifiStaIface13unlinkToDeathERKNS_2spINS0_20hidl_death_recipientEEE",
   "parameters" :
   [
    {
     "is_this_ptr" : true,
     "referenced_type" : "type-693"
    },
    {
     "referenced_type" : "type-1087"
    }
   ],
   "return_type" : "type-1270",
   "source_file" : "/out/soong/.intermediates/hardware/interfaces/wifi/1.3/android.hardware.wifi@1.3_genc++_headers/gen/android/hardware/wifi/1.3/BpHwWifiStaIface.h"
  },
  {
   "function_name" : "android::hardware::wifi::V1_3::BpHwWifiStaIface::interfaceChain",
   "linker_set_key" : "_ZN7android8hardware4wifi4V1_316BpHwWifiStaIface14interfaceChainENSt3__18functionIFvRKNS0_8hidl_vecINS0_11hidl_stringEEEEEE",
   "parameters" :
   [
    {
     "is_this_ptr" : true,
     "referenced_type" : "type-693"
    },
    {
     "referenced_type" : "type-1841"
    }
   ],
   "return_type" : "type-1294",
   "source_file" : "/out/soong/.intermediates/hardware/interfaces/wifi/1.3/android.hardware.wifi@1.3_genc++_headers/gen/android/hardware/wifi/1.3/BpHwWifiStaIface.h"
  },
  {
   "function_name" : "android::hardware::wifi::V1_3::BpHwWifiStaIface::enableNdOffload",
   "linker_set_key" : "_ZN7android8hardware4wifi4V1_316BpHwWifiStaIface15enableNdOffloadEbNSt3__18functionIFvRKNS1_4V1_010WifiStatusEEEE",
   "parameters" :
   [
    {
     "is_this_ptr" : true,
     "referenced_type" : "type-693"
    },
    {
     "referenced_type" : "type-16"
    },
    {
     "referenced_type" : "type-1842"
    }
   ],
   "return_type" : "type-1294",
   "source_file" : "/out/soong/.intermediates/hardware/interfaces/wifi/1.3/android.hardware.wifi@1.3_genc++_headers/gen/android/hardware/wifi/1.3/BpHwWifiStaIface.h"
  },
  {
   "function_name" : "android::hardware::wifi::V1_3::BpHwWifiStaIface::getCapabilities",
   "linker_set_key" : "_ZN7android8hardware4wifi4V1_316BpHwWifiStaIface15getCapabilitiesENSt3__18functionIFvRKNS1_4V1_010WifiStatusEjEEE",
   "parameters" :
   [
    {
     "is_this_ptr" : true,
     "referenced_type" : "type-693"
    },
    {
     "referenced_type" : "type-1843"
    }
   ],
   "return_type" : "type-1294",
   "source_file" : "/out/soong/.intermediates/hardware/interfaces/wifi/1.3/android.hardware.wifi@1.3_genc++_headers/gen/android/hardware/wifi/1.3/BpHwWifiStaIface.h"
  },
  {
   "function_name" : "android::hardware::wifi::V1_3::BpHwWifiStaIface::setRoamingState",
   "linker_set_key" : "_ZN7android8hardware4wifi4V1_316BpHwWifiStaIface15setRoamingStateENS1_4V1_015StaRoamingStateENSt3__18functionIFvRKNS4_10WifiStatusEEEE",
   "parameters" :
   [
    {
     "is_this_ptr" : true,
     "referenced_type" : "type-693"
    },
    {
     "referenced_type" : "type-74"
    },
    {
     "referenced_type" : "type-1844"
    }
   ],
   "return_type" : "type-1294",
   "source_file" : "/out/soong/.intermediates/hardware/interfaces/wifi/1.3/android.hardware.wifi@1.3_genc++_headers/gen/android/hardware/wifi/1.3/BpHwWifiStaIface.h"
  },
  {
   "function_name" : "android::hardware::wifi::V1_3::BpHwWifiStaIface::configureRoaming",
   "linker_set_key" : "_ZN7android8hardware4wifi4V1_316BpHwWifiStaIface16configureRoamingERKNS1_4V1_016StaRoamingConfigENSt3__18functionIFvRKNS4_10WifiStatusEEEE",
   "parameters" :
   [
    {
     "is_this_ptr" : true,
     "referenced_type" : "type-693"
    },
    {
     "referenced_type" : "type-892"
    },
    {
     "referenced_type" : "type-1845"
    }
   ],
   "return_type" : "type-1294",
   "source_file" : "/out/soong/.intermediates/hardware/interfaces/wifi/1.3/android.hardware.wifi@1.3_genc++_headers/gen/android/hardware/wifi/1.3/BpHwWifiStaIface.h"
  },
  {
   "function_name" : "android::hardware::wifi::V1_3::BpHwWifiStaIface::getLinkLayerStats",
   "linker_set_key" : "_ZN7android8hardware4wifi4V1_316BpHwWifiStaIface17getLinkLayerStatsENSt3__18functionIFvRKNS1_4V1_010WifiStatusERKNS6_17StaLinkLayerStatsEEEE",
   "parameters" :
   [
    {
     "is_this_ptr" : true,
     "referenced_type" : "type-693"
    },
    {
     "referenced_type" : "type-1846"
    }
   ],
   "return_type" : "type-1294",
   "source_file" : "/out/soong/.intermediates/hardware/interfaces/wifi/1.3/android.hardware.wifi@1.3_genc++_headers/gen/android/hardware/wifi/1.3/BpHwWifiStaIface.h"
  },
  {
   "function_name" : "android::hardware::wifi::V1_3::BpHwWifiStaIface::setScanningMacOui",
   "linker_set_key" : "_ZN7android8hardware4wifi4V1_316BpHwWifiStaIface17setScanningMacOuiERKNS0_10hidl_arrayIhLm3EJEEENSt3__18functionIFvRKNS1_4V1_010WifiStatusEEEE",
   "parameters" :
   [
    {
     "is_this_ptr" : true,
     "referenced_type" : "type-693"
    },
    {
     "referenced_type" : "type-898"
    },
    {
     "referenced_type" : "type-1847"
    }
   ],
   "return_type" : "type-1294",
   "source_file" : "/out/soong/.intermediates/hardware/interfaces/wifi/1.3/android.hardware.wifi@1.3_genc++_headers/gen/android/hardware/wifi/1.3/BpHwWifiStaIface.h"
  },
  {
   "function_name" : "android::hardware::wifi::V1_3::BpHwWifiStaIface::stopBackgroundScan",
   "linker_set_key" : "_ZN7android8hardware4wifi4V1_316BpHwWifiStaIface18stopBackgroundScanEjNSt3__18functionIFvRKNS1_4V1_010WifiStatusEEEE",
   "parameters" :
   [
    {
     "is_this_ptr" : true,
     "referenced_type" : "type-693"
    },
    {
     "referenced_type" : "type-2"
    },
    {
     "referenced_type" : "type-1848"
    }
   ],
   "return_type" : "type-1294",
   "source_file" : "/out/soong/.intermediates/hardware/interfaces/wifi/1.3/android.hardware.wifi@1.3_genc++_headers/gen/android/hardware/wifi/1.3/BpHwWifiStaIface.h"
  },
  {
   "function_name" : "android::hardware::wifi::V1_3::BpHwWifiStaIface::stopRssiMonitoring",
   "linker_set_key" : "_ZN7android8hardware4wifi4V1_316BpHwWifiStaIface18stopRssiMonitoringEjNSt3__18functionIFvRKNS1_4V1_010WifiStatusEEEE",
   "parameters" :
   [
    {
     "is_this_ptr" : true,
     "referenced_type" : "type-693"
    },
    {
     "referenced_type" : "type-2"
    },
    {
     "referenced_type" : "type-1849"
    }
   ],
   "return_type" : "type-1294",
   "source_file" : "/out/soong/.intermediates/hardware/interfaces/wifi/1.3/android.hardware.wifi@1.3_genc++_headers/gen/android/hardware/wifi/1.3/BpHwWifiStaIface.h"
  },
  {
   "function_name" : "android::hardware::wifi::V1_3::BpHwWifiStaIface::interfaceDescriptor",
   "linker_set_key" : "_ZN7android8hardware4wifi4V1_316BpHwWifiStaIface19interfaceDescriptorENSt3__18functionIFvRKNS0_11hidl_stringEEEE",
   "parameters" :
   [
    {
     "is_this_ptr" : true,
     "referenced_type" : "type-693"
    },
    {
     "referenced_type" : "type-1850"
    }
   ],
   "return_type" : "type-1294",
   "source_file" : "/out/soong/.intermediates/hardware/interfaces/wifi/1.3/android.hardware.wifi@1.3_genc++_headers/gen/android/hardware/wifi/1.3/BpHwWifiStaIface.h"
  },
  {
   "function_name" : "android::hardware::wifi::V1_3::BpHwWifiStaIface::startBackgroundScan",
   "linker_set_key" : "_ZN7android8hardware4wifi4V1_316BpHwWifiStaIface19startBackgroundScanEjRKNS1_4V1_027StaBackgroundScanParametersENSt3__18functionIFvRKNS4_10WifiStatusEEEE",
   "parameters" :
   [
    {
     "is_this_ptr" : true,
     "referenced_type" : "type-693"
    },
    {
     "referenced_type" : "type-2"
    },
    {
     "referenced_type" : "type-890"
    },
    {
     "referenced_type" : "type-1851"
    }
   ],
   "return_type" : "type-1294",
   "source_file" : "/out/soong/.intermediates/hardware/interfaces/wifi/1.3/android.hardware.wifi@1.3_genc++_headers/gen/android/hardware/wifi/1.3/BpHwWifiStaIface.h"
  },
  {
   "function_name" : "android::hardware::wifi::V1_3::BpHwWifiStaIface::startRssiMonitoring",
   "linker_set_key" : "_ZN7android8hardware4wifi4V1_316BpHwWifiStaIface19startRssiMonitoringEjiiNSt3__18functionIFvRKNS1_4V1_010WifiStatusEEEE",
   "parameters" :
   [
    {
     "is_this_ptr" : true,
     "referenced_type" : "type-693"
    },
    {
     "referenced_type" : "type-2"
    },
    {
     "referenced_type" : "type-23"
    },
    {
     "referenced_type" : "type-23"
    },
    {
     "referenced_type" : "type-1852"
    }
   ],
   "return_type" : "type-1294",
   "source_file" : "/out/soong/.intermediates/hardware/interfaces/wifi/1.3/android.hardware.wifi@1.3_genc++_headers/gen/android/hardware/wifi/1.3/BpHwWifiStaIface.h"
  },
  {
   "function_name" : "android::hardware::wifi::V1_3::BpHwWifiStaIface::getFactoryMacAddress",
   "linker_set_key" : "_ZN7android8hardware4wifi4V1_316BpHwWifiStaIface20getFactoryMacAddressENSt3__18functionIFvRKNS1_4V1_010WifiStatusERKNS0_10hidl_arrayIhLm6EJEEEEEE",
   "parameters" :
   [
    {
     "is_this_ptr" : true,
     "referenced_type" : "type-693"
    },
    {
     "referenced_type" : "type-1853"
    }
   ],
   "return_type" : "type-1294",
   "source_file" : "/out/soong/.intermediates/hardware/interfaces/wifi/1.3/android.hardware.wifi@1.3_genc++_headers/gen/android/hardware/wifi/1.3/BpHwWifiStaIface.h"
  },
  {
   "function_name" : "android::hardware::wifi::V1_3::BpHwWifiStaIface::getDebugRxPacketFates",
   "linker_set_key" : "_ZN7android8hardware4wifi4V1_316BpHwWifiStaIface21getDebugRxPacketFatesENSt3__18functionIFvRKNS1_4V1_010WifiStatusERKNS0_8hidl_vecINS6_27WifiDebugRxPacketFateReportEEEEEE",
   "parameters" :
   [
    {
     "is_this_ptr" : true,
     "referenced_type" : "type-693"
    },
    {
     "referenced_type" : "type-1854"
    }
   ],
   "return_type" : "type-1294",
   "source_file" : "/out/soong/.intermediates/hardware/interfaces/wifi/1.3/android.hardware.wifi@1.3_genc++_headers/gen/android/hardware/wifi/1.3/BpHwWifiStaIface.h"
  },
  {
   "function_name" : "android::hardware::wifi::V1_3::BpHwWifiStaIface::getDebugTxPacketFates",
   "linker_set_key" : "_ZN7android8hardware4wifi4V1_316BpHwWifiStaIface21getDebugTxPacketFatesENSt3__18functionIFvRKNS1_4V1_010WifiStatusERKNS0_8hidl_vecINS6_27WifiDebugTxPacketFateReportEEEEEE",
   "parameters" :
   [
    {
     "is_this_ptr" : true,
     "referenced_type" : "type-693"
    },
    {
     "referenced_type" : "type-1855"
    }
   ],
   "return_type" : "type-1294",
   "source_file" : "/out/soong/.intermediates/hardware/interfaces/wifi/1.3/android.hardware.wifi@1.3_genc++_headers/gen/android/hardware/wifi/1.3/BpHwWifiStaIface.h"
  },
  {
   "function_name" : "android::hardware::wifi::V1_3::BpHwWifiStaIface::getLinkLayerStats_1_3",
   "linker_set_key" : "_ZN7android8hardware4wifi4V1_316BpHwWifiStaIface21getLinkLayerStats_1_3ENSt3__18functionIFvRKNS1_4V1_010WifiStatusERKNS2_17StaLinkLayerStatsEEEE",
   "parameters" :
   [
    {
     "is_this_ptr" : true,
     "referenced_type" : "type-693"
    },
    {
     "referenced_type" : "type-1856"
    }
   ],
   "return_type" : "type-1294",
   "source_file" : "/out/soong/.intermediates/hardware/interfaces/wifi/1.3/android.hardware.wifi@1.3_genc++_headers/gen/android/hardware/wifi/1.3/BpHwWifiStaIface.h"
  },
  {
   "function_name" : "android::hardware::wifi::V1_3::BpHwWifiStaIface::notifySyspropsChanged",
   "linker_set_key" : "_ZN7android8hardware4wifi4V1_316BpHwWifiStaIface21notifySyspropsChangedEv",
   "parameters" :
   [
    {
     "is_this_ptr" : true,
     "referenced_type" : "type-693"
    }
   ],
   "return_type" : "type-1294",
   "source_file" : "/out/soong/.intermediates/hardware/interfaces/wifi/1.3/android.hardware.wifi@1.3_genc++_headers/gen/android/hardware/wifi/1.3/BpHwWifiStaIface.h"
  },
  {
   "function_name" : "android::hardware::wifi::V1_3::BpHwWifiStaIface::registerEventCallback",
   "linker_set_key" : "_ZN7android8hardware4wifi4V1_316BpHwWifiStaIface21registerEventCallbackERKNS_2spINS1_4V1_026IWifiStaIfaceEventCallbackEEENSt3__18functionIFvRKNS5_10WifiStatusEEEE",
   "parameters" :
   [
    {
     "is_this_ptr" : true,
     "referenced_type" : "type-693"
    },
    {
     "referenced_type" : "type-1220"
    },
    {
     "referenced_type" : "type-1857"
    }
   ],
   "return_type" : "type-1294",
   "source_file" : "/out/soong/.intermediates/hardware/interfaces/wifi/1.3/android.hardware.wifi@1.3_genc++_headers/gen/android/hardware/wifi/1.3/BpHwWifiStaIface.h"
  },
  {
   "function_name" : "android::hardware::wifi::V1_3::BpHwWifiStaIface::setHALInstrumentation",
   "linker_set_key" : "_ZN7android8hardware4wifi4V1_316BpHwWifiStaIface21setHALInstrumentationEv",
   "parameters" :
   [
    {
     "is_this_ptr" : true,
     "referenced_type" : "type-693"
    }
   ],
   "return_type" : "type-1294",
   "source_file" : "/out/soong/.intermediates/hardware/interfaces/wifi/1.3/android.hardware.wifi@1.3_genc++_headers/gen/android/hardware/wifi/1.3/BpHwWifiStaIface.h"
  },
  {
   "function_name" : "android::hardware::wifi::V1_3::BpHwWifiStaIface::getRoamingCapabilities",
   "linker_set_key" : "_ZN7android8hardware4wifi4V1_316BpHwWifiStaIface22getRoamingCapabilitiesENSt3__18functionIFvRKNS1_4V1_010WifiStatusERKNS6_22StaRoamingCapabilitiesEEEE",
   "parameters" :
   [
    {
     "is_this_ptr" : true,
     "referenced_type" : "type-693"
    },
    {
     "referenced_type" : "type-1858"
    }
   ],
   "return_type" : "type-1294",
   "source_file" : "/out/soong/.intermediates/hardware/interfaces/wifi/1.3/android.hardware.wifi@1.3_genc++_headers/gen/android/hardware/wifi/1.3/BpHwWifiStaIface.h"
  },
  {
   "function_name" : "android::hardware::wifi::V1_3::BpHwWifiStaIface::installApfPacketFilter",
   "linker_set_key" : "_ZN7android8hardware4wifi4V1_316BpHwWifiStaIface22installApfPacketFilterEjRKNS0_8hidl_vecIhEENSt3__18functionIFvRKNS1_4V1_010WifiStatusEEEE",
   "parameters" :
   [
    {
     "is_this_ptr" : true,
     "referenced_type" : "type-693"
    },
    {
     "referenced_type" : "type-2"
    },
    {
     "referenced_type" : "type-1430"
    },
    {
     "referenced_type" : "type-1859"
    }
   ],
   "return_type" : "type-1294",
   "source_file" : "/out/soong/.intermediates/hardware/interfaces/wifi/1.3/android.hardware.wifi@1.3_genc++_headers/gen/android/hardware/wifi/1.3/BpHwWifiStaIface.h"
  },
  {
   "function_name" : "android::hardware::wifi::V1_3::BpHwWifiStaIface::readApfPacketFilterData",
   "linker_set_key" : "_ZN7android8hardware4wifi4V1_316BpHwWifiStaIface23readApfPacketFilterDataENSt3__18functionIFvRKNS1_4V1_010WifiStatusERKNS0_8hidl_vecIhEEEEE",
   "parameters" :
   [
    {
     "is_this_ptr" : true,
     "referenced_type" : "type-693"
    },
    {
     "referenced_type" : "type-1860"
    }
   ],
   "return_type" : "type-1294",
   "source_file" : "/out/soong/.intermediates/hardware/interfaces/wifi/1.3/android.hardware.wifi@1.3_genc++_headers/gen/android/hardware/wifi/1.3/BpHwWifiStaIface.h"
  },
  {
   "function_name" : "android::hardware::wifi::V1_3::BpHwWifiStaIface::_hidl_getFactoryMacAddress",
   "linker_set_key" : "_ZN7android8hardware4wifi4V1_316BpHwWifiStaIface26_hidl_getFactoryMacAddressEPNS0_10IInterfaceEPNS0_7details16HidlInstrumentorENSt3__18functionIFvRKNS1_4V1_010WifiStatusERKNS0_10hidl_arrayIhLm6EJEEEEEE",
   "parameters" :
   [
    {
     "referenced_type" : "type-484"
    },
    {
     "referenced_type" : "type-1057"
    },
    {
     "referenced_type" : "type-1861"
    }
   ],
   "return_type" : "type-1294",
   "source_file" : "/out/soong/.intermediates/hardware/interfaces/wifi/1.3/android.hardware.wifi@1.3_genc++_headers/gen/android/hardware/wifi/1.3/BpHwWifiStaIface.h"
  },
  {
   "function_name" : "android::hardware::wifi::V1_3::BpHwWifiStaIface::getValidFrequenciesForBand",
   "linker_set_key" : "_ZN7android8hardware4wifi4V1_316BpHwWifiStaIface26getValidFrequenciesForBandENS1_4V1_08WifiBandENSt3__18functionIFvRKNS4_10WifiStatusERKNS0_8hidl_vecIjEEEEE",
   "parameters" :
   [
    {
     "is_this_ptr" : true,
     "referenced_type" : "type-693"
    },
    {
     "referenced_type" : "type-32"
    },
    {
     "referenced_type" : "type-1862"
    }
   ],
   "return_type" : "type-1294",
   "source_file" : "/out/soong/.intermediates/hardware/interfaces/wifi/1.3/android.hardware.wifi@1.3_genc++_headers/gen/android/hardware/wifi/1.3/BpHwWifiStaIface.h"
  },
  {
   "function_name" : "android::hardware::wifi::V1_3::BpHwWifiStaIface::_hidl_getLinkLayerStats_1_3",
   "linker_set_key" : "_ZN7android8hardware4wifi4V1_316BpHwWifiStaIface27_hidl_getLinkLayerStats_1_3EPNS0_10IInterfaceEPNS0_7details16HidlInstrumentorENSt3__18functionIFvRKNS1_4V1_010WifiStatusERKNS2_17StaLinkLayerStatsEEEE",
   "parameters" :
   [
    {
     "referenced_type" : "type-484"
    },
    {
     "referenced_type" : "type-1057"
    },
    {
     "referenced_type" : "type-1863"
    }
   ],
   "return_type" : "type-1294",
   "source_file" : "/out/soong/.intermediates/hardware/interfaces/wifi/1.3/android.hardware.wifi@1.3_genc++_headers/gen/android/hardware/wifi/1.3/BpHwWifiStaIface.h"
  },
  {
   "function_name" : "android::hardware::wifi::V1_3::BpHwWifiStaIface::stopSendingKeepAlivePackets",
   "linker_set_key" : "_ZN7android8hardware4wifi4V1_316BpHwWifiStaIface27stopSendingKeepAlivePacketsEjNSt3__18functionIFvRKNS1_4V1_010WifiStatusEEEE",
   "parameters" :
   [
    {
     "is_this_ptr" : true,
     "referenced_type" : "type-693"
    },
    {
     "referenced_type" : "type-2"
    },
    {
     "referenced_type" : "type-1864"
    }
   ],
   "return_type" : "type-1294",
   "source_file" : "/out/soong/.intermediates/hardware/interfaces/wifi/1.3/android.hardware.wifi@1.3_genc++_headers/gen/android/hardware/wifi/1.3/BpHwWifiStaIface.h"
  },
  {
   "function_name" : "android::hardware::wifi::V1_3::BpHwWifiStaIface::startSendingKeepAlivePackets",
   "linker_set_key" : "_ZN7android8hardware4wifi4V1_316BpHwWifiStaIface28startSendingKeepAlivePacketsEjRKNS0_8hidl_vecIhEEtRKNS0_10hidl_arrayIhLm6EJEEESB_jNSt3__18functionIFvRKNS1_4V1_010WifiStatusEEEE",
   "parameters" :
   [
    {
     "is_this_ptr" : true,
     "referenced_type" : "type-693"
    },
    {
     "referenced_type" : "type-2"
    },
    {
     "referenced_type" : "type-1430"
    },
    {
     "referenced_type" : "type-56"
    },
    {
     "referenced_type" : "type-1498"
    },
    {
     "referenced_type" : "type-1498"
    },
    {
     "referenced_type" : "type-2"
    },
    {
     "referenced_type" : "type-1865"
    }
   ],
   "return_type" : "type-1294",
   "source_file" : "/out/soong/.intermediates/hardware/interfaces/wifi/1.3/android.hardware.wifi@1.3_genc++_headers/gen/android/hardware/wifi/1.3/BpHwWifiStaIface.h"
  },
  {
   "function_name" : "android::hardware::wifi::V1_3::BpHwWifiStaIface::getBackgroundScanCapabilities",
   "linker_set_key" : "_ZN7android8hardware4wifi4V1_316BpHwWifiStaIface29getBackgroundScanCapabilitiesENSt3__18functionIFvRKNS1_4V1_010WifiStatusERKNS6_29StaBackgroundScanCapabilitiesEEEE",
   "parameters" :
   [
    {
     "is_this_ptr" : true,
     "referenced_type" : "type-693"
    },
    {
     "referenced_type" : "type-1866"
    }
   ],
   "return_type" : "type-1294",
   "source_file" : "/out/soong/.intermediates/hardware/interfaces/wifi/1.3/android.hardware.wifi@1.3_genc++_headers/gen/android/hardware/wifi/1.3/BpHwWifiStaIface.h"
  },
  {
   "function_name" : "android::hardware::wifi::V1_3::BpHwWifiStaIface::enableLinkLayerStatsCollection",
   "linker_set_key" : "_ZN7android8hardware4wifi4V1_316BpHwWifiStaIface30enableLinkLayerStatsCollectionEbNSt3__18functionIFvRKNS1_4V1_010WifiStatusEEEE",
   "parameters" :
   [
    {
     "is_this_ptr" : true,
     "referenced_type" : "type-693"
    },
    {
     "referenced_type" : "type-16"
    },
    {
     "referenced_type" : "type-1867"
    }
   ],
   "return_type" : "type-1294",
   "source_file" : "/out/soong/.intermediates/hardware/interfaces/wifi/1.3/android.hardware.wifi@1.3_genc++_headers/gen/android/hardware/wifi/1.3/BpHwWifiStaIface.h"
  },
  {
   "function_name" : "android::hardware::wifi::V1_3::BpHwWifiStaIface::getApfPacketFilterCapabilities",
   "linker_set_key" : "_ZN7android8hardware4wifi4V1_316BpHwWifiStaIface30getApfPacketFilterCapabilitiesENSt3__18functionIFvRKNS1_4V1_010WifiStatusERKNS6_30StaApfPacketFilterCapabilitiesEEEE",
   "parameters" :
   [
    {
     "is_this_ptr" : true,
     "referenced_type" : "type-693"
    },
    {
     "referenced_type" : "type-1868"
    }
   ],
   "return_type" : "type-1294",
   "source_file" : "/out/soong/.intermediates/hardware/interfaces/wifi/1.3/android.hardware.wifi@1.3_genc++_headers/gen/android/hardware/wifi/1.3/BpHwWifiStaIface.h"
  },
  {
   "function_name" : "android::hardware::wifi::V1_3::BpHwWifiStaIface::startDebugPacketFateMonitoring",
   "linker_set_key" : "_ZN7android8hardware4wifi4V1_316BpHwWifiStaIface30startDebugPacketFateMonitoringENSt3__18functionIFvRKNS1_4V1_010WifiStatusEEEE",
   "parameters" :
   [
    {
     "is_this_ptr" : true,
     "referenced_type" : "type-693"
    },
    {
     "referenced_type" : "type-1869"
    }
   ],
   "return_type" : "type-1294",
   "source_file" : "/out/soong/.intermediates/hardware/interfaces/wifi/1.3/android.hardware.wifi@1.3_genc++_headers/gen/android/hardware/wifi/1.3/BpHwWifiStaIface.h"
  },
  {
   "function_name" : "android::hardware::wifi::V1_3::BpHwWifiStaIface::disableLinkLayerStatsCollection",
   "linker_set_key" : "_ZN7android8hardware4wifi4V1_316BpHwWifiStaIface31disableLinkLayerStatsCollectionENSt3__18functionIFvRKNS1_4V1_010WifiStatusEEEE",
   "parameters" :
   [
    {
     "is_this_ptr" : true,
     "referenced_type" : "type-693"
    },
    {
     "referenced_type" : "type-1870"
    }
   ],
   "return_type" : "type-1294",
   "source_file" : "/out/soong/.intermediates/hardware/interfaces/wifi/1.3/android.hardware.wifi@1.3_genc++_headers/gen/android/hardware/wifi/1.3/BpHwWifiStaIface.h"
  },
  {
   "function_name" : "android::hardware::wifi::V1_3::BpHwWifiStaIface::ping",
   "linker_set_key" : "_ZN7android8hardware4wifi4V1_316BpHwWifiStaIface4pingEv",
   "parameters" :
   [
    {
     "is_this_ptr" : true,
     "referenced_type" : "type-693"
    }
   ],
   "return_type" : "type-1294",
   "source_file" : "/out/soong/.intermediates/hardware/interfaces/wifi/1.3/android.hardware.wifi@1.3_genc++_headers/gen/android/hardware/wifi/1.3/BpHwWifiStaIface.h"
  },
  {
   "function_name" : "android::hardware::wifi::V1_3::BpHwWifiStaIface::debug",
   "linker_set_key" : "_ZN7android8hardware4wifi4V1_316BpHwWifiStaIface5debugERKNS0_11hidl_handleERKNS0_8hidl_vecINS0_11hidl_stringEEE",
   "parameters" :
   [
    {
     "is_this_ptr" : true,
     "referenced_type" : "type-693"
    },
    {
     "referenced_type" : "type-1540"
    },
    {
     "referenced_type" : "type-97"
    }
   ],
   "return_type" : "type-1294",
   "source_file" : "/out/soong/.intermediates/hardware/interfaces/wifi/1.3/android.hardware.wifi@1.3_genc++_headers/gen/android/hardware/wifi/1.3/BpHwWifiStaIface.h"
  },
  {
   "function_name" : "android::hardware::wifi::V1_3::BpHwWifiStaIface::getName",
   "linker_set_key" : "_ZN7android8hardware4wifi4V1_316BpHwWifiStaIface7getNameENSt3__18functionIFvRKNS1_4V1_010WifiStatusERKNS0_11hidl_stringEEEE",
   "parameters" :
   [
    {
     "is_this_ptr" : true,
     "referenced_type" : "type-693"
    },
    {
     "referenced_type" : "type-1871"
    }
   ],
   "return_type" : "type-1294",
   "source_file" : "/out/soong/.intermediates/hardware/interfaces/wifi/1.3/android.hardware.wifi@1.3_genc++_headers/gen/android/hardware/wifi/1.3/BpHwWifiStaIface.h"
  },
  {
   "function_name" : "android::hardware::wifi::V1_3::BpHwWifiStaIface::getType",
   "linker_set_key" : "_ZN7android8hardware4wifi4V1_316BpHwWifiStaIface7getTypeENSt3__18functionIFvRKNS1_4V1_010WifiStatusENS6_9IfaceTypeEEEE",
   "parameters" :
   [
    {
     "is_this_ptr" : true,
     "referenced_type" : "type-693"
    },
    {
     "referenced_type" : "type-1872"
    }
   ],
   "return_type" : "type-1294",
   "source_file" : "/out/soong/.intermediates/hardware/interfaces/wifi/1.3/android.hardware.wifi@1.3_genc++_headers/gen/android/hardware/wifi/1.3/BpHwWifiStaIface.h"
  },
  {
   "function_name" : "android::hardware::wifi::V1_3::BpHwWifiStaIface::BpHwWifiStaIface",
   "linker_set_key" : "_ZN7android8hardware4wifi4V1_316BpHwWifiStaIfaceC1ERKNS_2spINS0_7IBinderEEE",
   "parameters" :
   [
    {
     "is_this_ptr" : true,
     "referenced_type" : "type-693"
    },
    {
     "referenced_type" : "type-1140"
    }
   ],
   "return_type" : "type-311",
   "source_file" : "/out/soong/.intermediates/hardware/interfaces/wifi/1.3/android.hardware.wifi@1.3_genc++_headers/gen/android/hardware/wifi/1.3/BpHwWifiStaIface.h"
  },
  {
   "function_name" : "android::hardware::wifi::V1_3::BpHwWifiStaIface::BpHwWifiStaIface",
   "linker_set_key" : "_ZN7android8hardware4wifi4V1_316BpHwWifiStaIfaceC2ERKNS_2spINS0_7IBinderEEE",
   "parameters" :
   [
    {
     "is_this_ptr" : true,
     "referenced_type" : "type-693"
    },
    {
     "referenced_type" : "type-1140"
    }
   ],
   "return_type" : "type-311",
   "source_file" : "/out/soong/.intermediates/hardware/interfaces/wifi/1.3/android.hardware.wifi@1.3_genc++_headers/gen/android/hardware/wifi/1.3/BpHwWifiStaIface.h"
  },
  {
   "function_name" : "android::hardware::wifi::V1_3::writeEmbeddedToParcel",
   "linker_set_key" : "_ZN7android8hardware4wifi4V1_321writeEmbeddedToParcelERKNS2_17StaLinkLayerStatsEPNS0_6ParcelEmm",
   "parameters" :
   [
    {
     "referenced_type" : "type-1030"
    },
    {
     "referenced_type" : "type-1575"
    },
    {
     "referenced_type" : "type-15"
    },
    {
     "referenced_type" : "type-15"
    }
   ],
   "return_type" : "type-23",
   "source_file" : "/out/soong/.intermediates/hardware/interfaces/wifi/1.3/android.hardware.wifi@1.3_genc++_headers/gen/android/hardware/wifi/1.3/hwtypes.h"
  },
  {
   "function_name" : "android::hardware::wifi::V1_3::writeEmbeddedToParcel",
   "linker_set_key" : "_ZN7android8hardware4wifi4V1_321writeEmbeddedToParcelERKNS2_22StaLinkLayerRadioStatsEPNS0_6ParcelEmm",
   "parameters" :
   [
    {
     "referenced_type" : "type-661"
    },
    {
     "referenced_type" : "type-1575"
    },
    {
     "referenced_type" : "type-15"
    },
    {
     "referenced_type" : "type-15"
    }
   ],
   "return_type" : "type-23",
   "source_file" : "/out/soong/.intermediates/hardware/interfaces/wifi/1.3/android.hardware.wifi@1.3_genc++_headers/gen/android/hardware/wifi/1.3/hwtypes.h"
  },
  {
   "function_name" : "android::hardware::wifi::V1_3::readEmbeddedFromParcel",
   "linker_set_key" : "_ZN7android8hardware4wifi4V1_322readEmbeddedFromParcelERKNS2_17StaLinkLayerStatsERKNS0_6ParcelEmm",
   "parameters" :
   [
    {
     "referenced_type" : "type-1030"
    },
    {
     "referenced_type" : "type-1585"
    },
    {
     "referenced_type" : "type-15"
    },
    {
     "referenced_type" : "type-15"
    }
   ],
   "return_type" : "type-23",
   "source_file" : "/out/soong/.intermediates/hardware/interfaces/wifi/1.3/android.hardware.wifi@1.3_genc++_headers/gen/android/hardware/wifi/1.3/hwtypes.h"
  },
  {
   "function_name" : "android::hardware::wifi::V1_3::readEmbeddedFromParcel",
   "linker_set_key" : "_ZN7android8hardware4wifi4V1_322readEmbeddedFromParcelERKNS2_22StaLinkLayerRadioStatsERKNS0_6ParcelEmm",
   "parameters" :
   [
    {
     "referenced_type" : "type-661"
    },
    {
     "referenced_type" : "type-1585"
    },
    {
     "referenced_type" : "type-15"
    },
    {
     "referenced_type" : "type-15"
    }
   ],
   "return_type" : "type-23",
   "source_file" : "/out/soong/.intermediates/hardware/interfaces/wifi/1.3/android.hardware.wifi@1.3_genc++_headers/gen/android/hardware/wifi/1.3/hwtypes.h"
  },
  {
   "function_name" : "android::hardware::wifi::V1_3::IWifi::getService",
   "linker_set_key" : "_ZN7android8hardware4wifi4V1_35IWifi10getServiceERKNSt3__112basic_stringIcNS4_11char_traitsIcEENS4_9allocatorIcEEEEb",
   "parameters" :
   [
    {
     "default_arg" : true,
     "referenced_type" : "type-1590"
    },
    {
     "default_arg" : true,
     "referenced_type" : "type-16"
    }
   ],
   "return_type" : "type-1062",
   "source_file" : "/out/soong/.intermediates/hardware/interfaces/wifi/1.3/android.hardware.wifi@1.3_genc++_headers/gen/android/hardware/wifi/1.3/IWifi.h"
  },
  {
   "function_name" : "android::hardware::wifi::V1_3::IWifi::linkToDeath",
   "linker_set_key" : "_ZN7android8hardware4wifi4V1_35IWifi11linkToDeathERKNS_2spINS0_20hidl_death_recipientEEEm",
   "parameters" :
   [
    {
     "is_this_ptr" : true,
     "referenced_type" : "type-1063"
    },
    {
     "referenced_type" : "type-1087"
    },
    {
     "referenced_type" : "type-15"
    }
   ],
   "return_type" : "type-1270",
   "source_file" : "/out/soong/.intermediates/hardware/interfaces/wifi/1.3/android.hardware.wifi@1.3_genc++_headers/gen/android/hardware/wifi/1.3/IWifi.h"
  },
  {
   "function_name" : "android::hardware::wifi::V1_3::IWifi::getDebugInfo",
   "linker_set_key" : "_ZN7android8hardware4wifi4V1_35IWifi12getDebugInfoENSt3__18functionIFvRKNS_4hidl4base4V1_09DebugInfoEEEE",
   "parameters" :
   [
    {
     "is_this_ptr" : true,
     "referenced_type" : "type-1063"
    },
    {
     "referenced_type" : "type-1873"
    }
   ],
   "return_type" : "type-1294",
   "source_file" : "/out/soong/.intermediates/hardware/interfaces/wifi/1.3/android.hardware.wifi@1.3_genc++_headers/gen/android/hardware/wifi/1.3/IWifi.h"
  },
  {
   "function_name" : "android::hardware::wifi::V1_3::IWifi::getHashChain",
   "linker_set_key" : "_ZN7android8hardware4wifi4V1_35IWifi12getHashChainENSt3__18functionIFvRKNS0_8hidl_vecINS0_10hidl_arrayIhLm32EJEEEEEEEE",
   "parameters" :
   [
    {
     "is_this_ptr" : true,
     "referenced_type" : "type-1063"
    },
    {
     "referenced_type" : "type-1874"
    }
   ],
   "return_type" : "type-1294",
   "source_file" : "/out/soong/.intermediates/hardware/interfaces/wifi/1.3/android.hardware.wifi@1.3_genc++_headers/gen/android/hardware/wifi/1.3/IWifi.h"
  },
  {
   "function_name" : "android::hardware::wifi::V1_3::IWifi::tryGetService",
   "linker_set_key" : "_ZN7android8hardware4wifi4V1_35IWifi13tryGetServiceERKNSt3__112basic_stringIcNS4_11char_traitsIcEENS4_9allocatorIcEEEEb",
   "parameters" :
   [
    {
     "default_arg" : true,
     "referenced_type" : "type-1590"
    },
    {
     "default_arg" : true,
     "referenced_type" : "type-16"
    }
   ],
   "return_type" : "type-1062",
   "source_file" : "/out/soong/.intermediates/hardware/interfaces/wifi/1.3/android.hardware.wifi@1.3_genc++_headers/gen/android/hardware/wifi/1.3/IWifi.h"
  },
  {
   "function_name" : "android::hardware::wifi::V1_3::IWifi::unlinkToDeath",
   "linker_set_key" : "_ZN7android8hardware4wifi4V1_35IWifi13unlinkToDeathERKNS_2spINS0_20hidl_death_recipientEEE",
   "parameters" :
   [
    {
     "is_this_ptr" : true,
     "referenced_type" : "type-1063"
    },
    {
     "referenced_type" : "type-1087"
    }
   ],
   "return_type" : "type-1270",
   "source_file" : "/out/soong/.intermediates/hardware/interfaces/wifi/1.3/android.hardware.wifi@1.3_genc++_headers/gen/android/hardware/wifi/1.3/IWifi.h"
  },
  {
   "function_name" : "android::hardware::wifi::V1_3::IWifi::interfaceChain",
   "linker_set_key" : "_ZN7android8hardware4wifi4V1_35IWifi14interfaceChainENSt3__18functionIFvRKNS0_8hidl_vecINS0_11hidl_stringEEEEEE",
   "parameters" :
   [
    {
     "is_this_ptr" : true,
     "referenced_type" : "type-1063"
    },
    {
     "referenced_type" : "type-1875"
    }
   ],
   "return_type" : "type-1294",
   "source_file" : "/out/soong/.intermediates/hardware/interfaces/wifi/1.3/android.hardware.wifi@1.3_genc++_headers/gen/android/hardware/wifi/1.3/IWifi.h"
  },
  {
   "function_name" : "android::hardware::wifi::V1_3::IWifi::registerAsService",
   "linker_set_key" : "_ZN7android8hardware4wifi4V1_35IWifi17registerAsServiceERKNSt3__112basic_stringIcNS4_11char_traitsIcEENS4_9allocatorIcEEEE",
   "parameters" :
   [
    {
     "is_this_ptr" : true,
     "referenced_type" : "type-1063"
    },
    {
     "default_arg" : true,
     "referenced_type" : "type-1590"
    }
   ],
   "return_type" : "type-23",
   "source_file" : "/out/soong/.intermediates/hardware/interfaces/wifi/1.3/android.hardware.wifi@1.3_genc++_headers/gen/android/hardware/wifi/1.3/IWifi.h"
  },
  {
   "function_name" : "android::hardware::wifi::V1_3::IWifi::interfaceDescriptor",
   "linker_set_key" : "_ZN7android8hardware4wifi4V1_35IWifi19interfaceDescriptorENSt3__18functionIFvRKNS0_11hidl_stringEEEE",
   "parameters" :
   [
    {
     "is_this_ptr" : true,
     "referenced_type" : "type-1063"
    },
    {
     "referenced_type" : "type-1876"
    }
   ],
   "return_type" : "type-1294",
   "source_file" : "/out/soong/.intermediates/hardware/interfaces/wifi/1.3/android.hardware.wifi@1.3_genc++_headers/gen/android/hardware/wifi/1.3/IWifi.h"
  },
  {
   "function_name" : "android::hardware::wifi::V1_3::IWifi::notifySyspropsChanged",
   "linker_set_key" : "_ZN7android8hardware4wifi4V1_35IWifi21notifySyspropsChangedEv",
   "parameters" :
   [
    {
     "is_this_ptr" : true,
     "referenced_type" : "type-1063"
    }
   ],
   "return_type" : "type-1294",
   "source_file" : "/out/soong/.intermediates/hardware/interfaces/wifi/1.3/android.hardware.wifi@1.3_genc++_headers/gen/android/hardware/wifi/1.3/IWifi.h"
  },
  {
   "function_name" : "android::hardware::wifi::V1_3::IWifi::setHALInstrumentation",
   "linker_set_key" : "_ZN7android8hardware4wifi4V1_35IWifi21setHALInstrumentationEv",
   "parameters" :
   [
    {
     "is_this_ptr" : true,
     "referenced_type" : "type-1063"
    }
   ],
   "return_type" : "type-1294",
   "source_file" : "/out/soong/.intermediates/hardware/interfaces/wifi/1.3/android.hardware.wifi@1.3_genc++_headers/gen/android/hardware/wifi/1.3/IWifi.h"
  },
  {
   "function_name" : "android::hardware::wifi::V1_3::IWifi::registerForNotifications",
   "linker_set_key" : "_ZN7android8hardware4wifi4V1_35IWifi24registerForNotificationsERKNSt3__112basic_stringIcNS4_11char_traitsIcEENS4_9allocatorIcEEEERKNS_2spINS_4hidl7manager4V1_020IServiceNotificationEEE",
   "parameters" :
   [
    {
     "referenced_type" : "type-1590"
    },
    {
     "referenced_type" : "type-110"
    }
   ],
   "return_type" : "type-16",
   "source_file" : "/out/soong/.intermediates/hardware/interfaces/wifi/1.3/android.hardware.wifi@1.3_genc++_headers/gen/android/hardware/wifi/1.3/IWifi.h"
  },
  {
   "function_name" : "android::hardware::wifi::V1_3::IWifi::ping",
   "linker_set_key" : "_ZN7android8hardware4wifi4V1_35IWifi4pingEv",
   "parameters" :
   [
    {
     "is_this_ptr" : true,
     "referenced_type" : "type-1063"
    }
   ],
   "return_type" : "type-1294",
   "source_file" : "/out/soong/.intermediates/hardware/interfaces/wifi/1.3/android.hardware.wifi@1.3_genc++_headers/gen/android/hardware/wifi/1.3/IWifi.h"
  },
  {
   "function_name" : "android::hardware::wifi::V1_3::IWifi::debug",
   "linker_set_key" : "_ZN7android8hardware4wifi4V1_35IWifi5debugERKNS0_11hidl_handleERKNS0_8hidl_vecINS0_11hidl_stringEEE",
   "parameters" :
   [
    {
     "is_this_ptr" : true,
     "referenced_type" : "type-1063"
    },
    {
     "referenced_type" : "type-1540"
    },
    {
     "referenced_type" : "type-97"
    }
   ],
   "return_type" : "type-1294",
   "source_file" : "/out/soong/.intermediates/hardware/interfaces/wifi/1.3/android.hardware.wifi@1.3_genc++_headers/gen/android/hardware/wifi/1.3/IWifi.h"
  },
  {
   "function_name" : "android::hardware::wifi::V1_3::IWifi::castFrom",
   "linker_set_key" : "_ZN7android8hardware4wifi4V1_35IWifi8castFromERKNS_2spINS1_4V1_05IWifiEEEb",
   "parameters" :
   [
    {
     "referenced_type" : "type-1242"
    },
    {
     "default_arg" : true,
     "referenced_type" : "type-16"
    }
   ],
   "return_type" : "type-1276",
   "source_file" : "/out/soong/.intermediates/hardware/interfaces/wifi/1.3/android.hardware.wifi@1.3_genc++_headers/gen/android/hardware/wifi/1.3/IWifi.h"
  },
  {
   "function_name" : "android::hardware::wifi::V1_3::IWifi::castFrom",
   "linker_set_key" : "_ZN7android8hardware4wifi4V1_35IWifi8castFromERKNS_2spINS1_4V1_15IWifiEEEb",
   "parameters" :
   [
    {
     "referenced_type" : "type-1246"
    },
    {
     "default_arg" : true,
     "referenced_type" : "type-16"
    }
   ],
   "return_type" : "type-1276",
   "source_file" : "/out/soong/.intermediates/hardware/interfaces/wifi/1.3/android.hardware.wifi@1.3_genc++_headers/gen/android/hardware/wifi/1.3/IWifi.h"
  },
  {
   "function_name" : "android::hardware::wifi::V1_3::IWifi::castFrom",
   "linker_set_key" : "_ZN7android8hardware4wifi4V1_35IWifi8castFromERKNS_2spINS1_4V1_25IWifiEEEb",
   "parameters" :
   [
    {
     "referenced_type" : "type-1250"
    },
    {
     "default_arg" : true,
     "referenced_type" : "type-16"
    }
   ],
   "return_type" : "type-1276",
   "source_file" : "/out/soong/.intermediates/hardware/interfaces/wifi/1.3/android.hardware.wifi@1.3_genc++_headers/gen/android/hardware/wifi/1.3/IWifi.h"
  },
  {
   "function_name" : "android::hardware::wifi::V1_3::IWifi::castFrom",
   "linker_set_key" : "_ZN7android8hardware4wifi4V1_35IWifi8castFromERKNS_2spINS_4hidl4base4V1_05IBaseEEEb",
   "parameters" :
   [
    {
     "referenced_type" : "type-1105"
    },
    {
     "default_arg" : true,
     "referenced_type" : "type-16"
    }
   ],
   "return_type" : "type-1276",
   "source_file" : "/out/soong/.intermediates/hardware/interfaces/wifi/1.3/android.hardware.wifi@1.3_genc++_headers/gen/android/hardware/wifi/1.3/IWifi.h"
  },
  {
   "function_name" : "android::hardware::wifi::V1_3::IWifi::castFrom",
   "linker_set_key" : "_ZN7android8hardware4wifi4V1_35IWifi8castFromERKNS_2spIS3_EEb",
   "parameters" :
   [
    {
     "referenced_type" : "type-1064"
    },
    {
     "default_arg" : true,
     "referenced_type" : "type-16"
    }
   ],
   "return_type" : "type-1276",
   "source_file" : "/out/soong/.intermediates/hardware/interfaces/wifi/1.3/android.hardware.wifi@1.3_genc++_headers/gen/android/hardware/wifi/1.3/IWifi.h"
  },
  {
   "access" : "private",
   "function_name" : "android::hardware::wifi::V1_3::BsWifi::addOnewayTask",
   "linker_set_key" : "_ZN7android8hardware4wifi4V1_36BsWifi13addOnewayTaskENSt3__18functionIFvvEEE",
   "parameters" :
   [
    {
     "is_this_ptr" : true,
     "referenced_type" : "type-1107"
    },
    {
     "referenced_type" : "type-1880"
    }
   ],
   "return_type" : "type-1294",
   "source_file" : "/out/soong/.intermediates/hardware/interfaces/wifi/1.3/android.hardware.wifi@1.3_genc++_headers/gen/android/hardware/wifi/1.3/BsWifi.h"
  },
  {
   "function_name" : "android::hardware::wifi::V1_3::BsWifi::BsWifi",
   "linker_set_key" : "_ZN7android8hardware4wifi4V1_36BsWifiC1ENS_2spINS2_5IWifiEEE",
   "parameters" :
   [
    {
     "is_this_ptr" : true,
     "referenced_type" : "type-1107"
    },
    {
     "referenced_type" : "type-1061"
    }
   ],
   "return_type" : "type-311",
   "source_file" : "/out/soong/.intermediates/hardware/interfaces/wifi/1.3/android.hardware.wifi@1.3_genc++_headers/gen/android/hardware/wifi/1.3/BsWifi.h"
  },
  {
   "function_name" : "android::hardware::wifi::V1_3::BsWifi::BsWifi",
   "linker_set_key" : "_ZN7android8hardware4wifi4V1_36BsWifiC2ENS_2spINS2_5IWifiEEE",
   "parameters" :
   [
    {
     "is_this_ptr" : true,
     "referenced_type" : "type-1107"
    },
    {
     "referenced_type" : "type-1061"
    }
   ],
   "return_type" : "type-311",
   "source_file" : "/out/soong/.intermediates/hardware/interfaces/wifi/1.3/android.hardware.wifi@1.3_genc++_headers/gen/android/hardware/wifi/1.3/BsWifi.h"
  },
  {
   "function_name" : "android::hardware::wifi::V1_3::BnHwWifi::onTransact",
   "linker_set_key" : "_ZN7android8hardware4wifi4V1_38BnHwWifi10onTransactEjRKNS0_6ParcelEPS4_jNSt3__18functionIFvRS4_EEE",
   "parameters" :
   [
    {
     "is_this_ptr" : true,
     "referenced_type" : "type-1094"
    },
    {
     "referenced_type" : "type-2"
    },
    {
     "referenced_type" : "type-1585"
    },
    {
     "referenced_type" : "type-1575"
    },
    {
     "default_arg" : true,
     "referenced_type" : "type-2"
    },
    {
     "default_arg" : true,
     "referenced_type" : "type-1887"
    }
   ],
   "return_type" : "type-23",
   "source_file" : "/out/soong/.intermediates/hardware/interfaces/wifi/1.3/android.hardware.wifi@1.3_genc++_headers/gen/android/hardware/wifi/1.3/BnHwWifi.h"
  },
  {
   "access" : "private",
   "function_name" : "android::hardware::wifi::V1_3::BnHwWifi::getDebugInfo",
   "linker_set_key" : "_ZN7android8hardware4wifi4V1_38BnHwWifi12getDebugInfoENSt3__18functionIFvRKNS_4hidl4base4V1_09DebugInfoEEEE",
   "parameters" :
   [
    {
     "is_this_ptr" : true,
     "referenced_type" : "type-1094"
    },
    {
     "referenced_type" : "type-1888"
    }
   ],
   "return_type" : "type-1294",
   "source_file" : "/out/soong/.intermediates/hardware/interfaces/wifi/1.3/android.hardware.wifi@1.3_genc++_headers/gen/android/hardware/wifi/1.3/BnHwWifi.h"
  },
  {
   "access" : "private",
   "function_name" : "android::hardware::wifi::V1_3::BnHwWifi::ping",
   "linker_set_key" : "_ZN7android8hardware4wifi4V1_38BnHwWifi4pingEv",
   "parameters" :
   [
    {
     "is_this_ptr" : true,
     "referenced_type" : "type-1094"
    }
   ],
   "return_type" : "type-1294",
   "source_file" : "/out/soong/.intermediates/hardware/interfaces/wifi/1.3/android.hardware.wifi@1.3_genc++_headers/gen/android/hardware/wifi/1.3/BnHwWifi.h"
  },
  {
   "function_name" : "android::hardware::wifi::V1_3::BnHwWifi::BnHwWifi",
   "linker_set_key" : "_ZN7android8hardware4wifi4V1_38BnHwWifiC1ERKNS_2spINS2_5IWifiEEE",
   "parameters" :
   [
    {
     "is_this_ptr" : true,
     "referenced_type" : "type-1094"
    },
    {
     "referenced_type" : "type-1064"
    }
   ],
   "return_type" : "type-311",
   "source_file" : "/out/soong/.intermediates/hardware/interfaces/wifi/1.3/android.hardware.wifi@1.3_genc++_headers/gen/android/hardware/wifi/1.3/BnHwWifi.h"
  },
  {
   "function_name" : "android::hardware::wifi::V1_3::BnHwWifi::BnHwWifi",
   "linker_set_key" : "_ZN7android8hardware4wifi4V1_38BnHwWifiC2ERKNS_2spINS2_5IWifiEEE",
   "parameters" :
   [
    {
     "is_this_ptr" : true,
     "referenced_type" : "type-1094"
    },
    {
     "referenced_type" : "type-1064"
    }
   ],
   "return_type" : "type-311",
   "source_file" : "/out/soong/.intermediates/hardware/interfaces/wifi/1.3/android.hardware.wifi@1.3_genc++_headers/gen/android/hardware/wifi/1.3/BnHwWifi.h"
  },
  {
   "function_name" : "android::hardware::wifi::V1_3::BnHwWifi::~BnHwWifi",
   "linker_set_key" : "_ZN7android8hardware4wifi4V1_38BnHwWifiD0Ev",
   "parameters" :
   [
    {
     "is_this_ptr" : true,
     "referenced_type" : "type-1094"
    }
   ],
   "return_type" : "type-311",
   "source_file" : "/out/soong/.intermediates/hardware/interfaces/wifi/1.3/android.hardware.wifi@1.3_genc++_headers/gen/android/hardware/wifi/1.3/BnHwWifi.h"
  },
  {
   "function_name" : "android::hardware::wifi::V1_3::BnHwWifi::~BnHwWifi",
   "linker_set_key" : "_ZN7android8hardware4wifi4V1_38BnHwWifiD1Ev",
   "parameters" :
   [
    {
     "is_this_ptr" : true,
     "referenced_type" : "type-1094"
    }
   ],
   "return_type" : "type-311",
   "source_file" : "/out/soong/.intermediates/hardware/interfaces/wifi/1.3/android.hardware.wifi@1.3_genc++_headers/gen/android/hardware/wifi/1.3/BnHwWifi.h"
  },
  {
   "function_name" : "android::hardware::wifi::V1_3::BnHwWifi::~BnHwWifi",
   "linker_set_key" : "_ZN7android8hardware4wifi4V1_38BnHwWifiD2Ev",
   "parameters" :
   [
    {
     "is_this_ptr" : true,
     "referenced_type" : "type-1094"
    }
   ],
   "return_type" : "type-311",
   "source_file" : "/out/soong/.intermediates/hardware/interfaces/wifi/1.3/android.hardware.wifi@1.3_genc++_headers/gen/android/hardware/wifi/1.3/BnHwWifi.h"
  },
  {
   "function_name" : "android::hardware::wifi::V1_3::BpHwWifi::getChipIds",
   "linker_set_key" : "_ZN7android8hardware4wifi4V1_38BpHwWifi10getChipIdsENSt3__18functionIFvRKNS1_4V1_010WifiStatusERKNS0_8hidl_vecIjEEEEE",
   "parameters" :
   [
    {
     "is_this_ptr" : true,
     "referenced_type" : "type-1108"
    },
    {
     "referenced_type" : "type-1889"
    }
   ],
   "return_type" : "type-1294",
   "source_file" : "/out/soong/.intermediates/hardware/interfaces/wifi/1.3/android.hardware.wifi@1.3_genc++_headers/gen/android/hardware/wifi/1.3/BpHwWifi.h"
  },
  {
   "function_name" : "android::hardware::wifi::V1_3::BpHwWifi::linkToDeath",
   "linker_set_key" : "_ZN7android8hardware4wifi4V1_38BpHwWifi11linkToDeathERKNS_2spINS0_20hidl_death_recipientEEEm",
   "parameters" :
   [
    {
     "is_this_ptr" : true,
     "referenced_type" : "type-1108"
    },
    {
     "referenced_type" : "type-1087"
    },
    {
     "referenced_type" : "type-15"
    }
   ],
   "return_type" : "type-1270",
   "source_file" : "/out/soong/.intermediates/hardware/interfaces/wifi/1.3/android.hardware.wifi@1.3_genc++_headers/gen/android/hardware/wifi/1.3/BpHwWifi.h"
  },
  {
   "function_name" : "android::hardware::wifi::V1_3::BpHwWifi::getDebugInfo",
   "linker_set_key" : "_ZN7android8hardware4wifi4V1_38BpHwWifi12getDebugInfoENSt3__18functionIFvRKNS_4hidl4base4V1_09DebugInfoEEEE",
   "parameters" :
   [
    {
     "is_this_ptr" : true,
     "referenced_type" : "type-1108"
    },
    {
     "referenced_type" : "type-1890"
    }
   ],
   "return_type" : "type-1294",
   "source_file" : "/out/soong/.intermediates/hardware/interfaces/wifi/1.3/android.hardware.wifi@1.3_genc++_headers/gen/android/hardware/wifi/1.3/BpHwWifi.h"
  },
  {
   "function_name" : "android::hardware::wifi::V1_3::BpHwWifi::getHashChain",
   "linker_set_key" : "_ZN7android8hardware4wifi4V1_38BpHwWifi12getHashChainENSt3__18functionIFvRKNS0_8hidl_vecINS0_10hidl_arrayIhLm32EJEEEEEEEE",
   "parameters" :
   [
    {
     "is_this_ptr" : true,
     "referenced_type" : "type-1108"
    },
    {
     "referenced_type" : "type-1891"
    }
   ],
   "return_type" : "type-1294",
   "source_file" : "/out/soong/.intermediates/hardware/interfaces/wifi/1.3/android.hardware.wifi@1.3_genc++_headers/gen/android/hardware/wifi/1.3/BpHwWifi.h"
  },
  {
   "function_name" : "android::hardware::wifi::V1_3::BpHwWifi::unlinkToDeath",
   "linker_set_key" : "_ZN7android8hardware4wifi4V1_38BpHwWifi13unlinkToDeathERKNS_2spINS0_20hidl_death_recipientEEE",
   "parameters" :
   [
    {
     "is_this_ptr" : true,
     "referenced_type" : "type-1108"
    },
    {
     "referenced_type" : "type-1087"
    }
   ],
   "return_type" : "type-1270",
   "source_file" : "/out/soong/.intermediates/hardware/interfaces/wifi/1.3/android.hardware.wifi@1.3_genc++_headers/gen/android/hardware/wifi/1.3/BpHwWifi.h"
  },
  {
   "function_name" : "android::hardware::wifi::V1_3::BpHwWifi::interfaceChain",
   "linker_set_key" : "_ZN7android8hardware4wifi4V1_38BpHwWifi14interfaceChainENSt3__18functionIFvRKNS0_8hidl_vecINS0_11hidl_stringEEEEEE",
   "parameters" :
   [
    {
     "is_this_ptr" : true,
     "referenced_type" : "type-1108"
    },
    {
     "referenced_type" : "type-1892"
    }
   ],
   "return_type" : "type-1294",
   "source_file" : "/out/soong/.intermediates/hardware/interfaces/wifi/1.3/android.hardware.wifi@1.3_genc++_headers/gen/android/hardware/wifi/1.3/BpHwWifi.h"
  },
  {
   "function_name" : "android::hardware::wifi::V1_3::BpHwWifi::interfaceDescriptor",
   "linker_set_key" : "_ZN7android8hardware4wifi4V1_38BpHwWifi19interfaceDescriptorENSt3__18functionIFvRKNS0_11hidl_stringEEEE",
   "parameters" :
   [
    {
     "is_this_ptr" : true,
     "referenced_type" : "type-1108"
    },
    {
     "referenced_type" : "type-1893"
    }
   ],
   "return_type" : "type-1294",
   "source_file" : "/out/soong/.intermediates/hardware/interfaces/wifi/1.3/android.hardware.wifi@1.3_genc++_headers/gen/android/hardware/wifi/1.3/BpHwWifi.h"
  },
  {
   "function_name" : "android::hardware::wifi::V1_3::BpHwWifi::notifySyspropsChanged",
   "linker_set_key" : "_ZN7android8hardware4wifi4V1_38BpHwWifi21notifySyspropsChangedEv",
   "parameters" :
   [
    {
     "is_this_ptr" : true,
     "referenced_type" : "type-1108"
    }
   ],
   "return_type" : "type-1294",
   "source_file" : "/out/soong/.intermediates/hardware/interfaces/wifi/1.3/android.hardware.wifi@1.3_genc++_headers/gen/android/hardware/wifi/1.3/BpHwWifi.h"
  },
  {
   "function_name" : "android::hardware::wifi::V1_3::BpHwWifi::registerEventCallback",
   "linker_set_key" : "_ZN7android8hardware4wifi4V1_38BpHwWifi21registerEventCallbackERKNS_2spINS1_4V1_018IWifiEventCallbackEEENSt3__18functionIFvRKNS5_10WifiStatusEEEE",
   "parameters" :
   [
    {
     "is_this_ptr" : true,
     "referenced_type" : "type-1108"
    },
    {
     "referenced_type" : "type-1110"
    },
    {
     "referenced_type" : "type-1894"
    }
   ],
   "return_type" : "type-1294",
   "source_file" : "/out/soong/.intermediates/hardware/interfaces/wifi/1.3/android.hardware.wifi@1.3_genc++_headers/gen/android/hardware/wifi/1.3/BpHwWifi.h"
  },
  {
   "function_name" : "android::hardware::wifi::V1_3::BpHwWifi::setHALInstrumentation",
   "linker_set_key" : "_ZN7android8hardware4wifi4V1_38BpHwWifi21setHALInstrumentationEv",
   "parameters" :
   [
    {
     "is_this_ptr" : true,
     "referenced_type" : "type-1108"
    }
   ],
   "return_type" : "type-1294",
   "source_file" : "/out/soong/.intermediates/hardware/interfaces/wifi/1.3/android.hardware.wifi@1.3_genc++_headers/gen/android/hardware/wifi/1.3/BpHwWifi.h"
  },
  {
   "function_name" : "android::hardware::wifi::V1_3::BpHwWifi::ping",
   "linker_set_key" : "_ZN7android8hardware4wifi4V1_38BpHwWifi4pingEv",
   "parameters" :
   [
    {
     "is_this_ptr" : true,
     "referenced_type" : "type-1108"
    }
   ],
   "return_type" : "type-1294",
   "source_file" : "/out/soong/.intermediates/hardware/interfaces/wifi/1.3/android.hardware.wifi@1.3_genc++_headers/gen/android/hardware/wifi/1.3/BpHwWifi.h"
  },
  {
   "function_name" : "android::hardware::wifi::V1_3::BpHwWifi::stop",
   "linker_set_key" : "_ZN7android8hardware4wifi4V1_38BpHwWifi4stopENSt3__18functionIFvRKNS1_4V1_010WifiStatusEEEE",
   "parameters" :
   [
    {
     "is_this_ptr" : true,
     "referenced_type" : "type-1108"
    },
    {
     "referenced_type" : "type-1895"
    }
   ],
   "return_type" : "type-1294",
   "source_file" : "/out/soong/.intermediates/hardware/interfaces/wifi/1.3/android.hardware.wifi@1.3_genc++_headers/gen/android/hardware/wifi/1.3/BpHwWifi.h"
  },
  {
   "function_name" : "android::hardware::wifi::V1_3::BpHwWifi::debug",
   "linker_set_key" : "_ZN7android8hardware4wifi4V1_38BpHwWifi5debugERKNS0_11hidl_handleERKNS0_8hidl_vecINS0_11hidl_stringEEE",
   "parameters" :
   [
    {
     "is_this_ptr" : true,
     "referenced_type" : "type-1108"
    },
    {
     "referenced_type" : "type-1540"
    },
    {
     "referenced_type" : "type-97"
    }
   ],
   "return_type" : "type-1294",
   "source_file" : "/out/soong/.intermediates/hardware/interfaces/wifi/1.3/android.hardware.wifi@1.3_genc++_headers/gen/android/hardware/wifi/1.3/BpHwWifi.h"
  },
  {
   "function_name" : "android::hardware::wifi::V1_3::BpHwWifi::start",
   "linker_set_key" : "_ZN7android8hardware4wifi4V1_38BpHwWifi5startENSt3__18functionIFvRKNS1_4V1_010WifiStatusEEEE",
   "parameters" :
   [
    {
     "is_this_ptr" : true,
     "referenced_type" : "type-1108"
    },
    {
     "referenced_type" : "type-1896"
    }
   ],
   "return_type" : "type-1294",
   "source_file" : "/out/soong/.intermediates/hardware/interfaces/wifi/1.3/android.hardware.wifi@1.3_genc++_headers/gen/android/hardware/wifi/1.3/BpHwWifi.h"
  },
  {
   "function_name" : "android::hardware::wifi::V1_3::BpHwWifi::getChip",
   "linker_set_key" : "_ZN7android8hardware4wifi4V1_38BpHwWifi7getChipEjNSt3__18functionIFvRKNS1_4V1_010WifiStatusERKNS_2spINS6_9IWifiChipEEEEEE",
   "parameters" :
   [
    {
     "is_this_ptr" : true,
     "referenced_type" : "type-1108"
    },
    {
     "referenced_type" : "type-2"
    },
    {
     "referenced_type" : "type-1897"
    }
   ],
   "return_type" : "type-1294",
   "source_file" : "/out/soong/.intermediates/hardware/interfaces/wifi/1.3/android.hardware.wifi@1.3_genc++_headers/gen/android/hardware/wifi/1.3/BpHwWifi.h"
  },
  {
   "function_name" : "android::hardware::wifi::V1_3::BpHwWifi::isStarted",
   "linker_set_key" : "_ZN7android8hardware4wifi4V1_38BpHwWifi9isStartedEv",
   "parameters" :
   [
    {
     "is_this_ptr" : true,
     "referenced_type" : "type-1108"
    }
   ],
   "return_type" : "type-1270",
   "source_file" : "/out/soong/.intermediates/hardware/interfaces/wifi/1.3/android.hardware.wifi@1.3_genc++_headers/gen/android/hardware/wifi/1.3/BpHwWifi.h"
  },
  {
   "function_name" : "android::hardware::wifi::V1_3::BpHwWifi::BpHwWifi",
   "linker_set_key" : "_ZN7android8hardware4wifi4V1_38BpHwWifiC1ERKNS_2spINS0_7IBinderEEE",
   "parameters" :
   [
    {
     "is_this_ptr" : true,
     "referenced_type" : "type-1108"
    },
    {
     "referenced_type" : "type-1140"
    }
   ],
   "return_type" : "type-311",
   "source_file" : "/out/soong/.intermediates/hardware/interfaces/wifi/1.3/android.hardware.wifi@1.3_genc++_headers/gen/android/hardware/wifi/1.3/BpHwWifi.h"
  },
  {
   "function_name" : "android::hardware::wifi::V1_3::BpHwWifi::BpHwWifi",
   "linker_set_key" : "_ZN7android8hardware4wifi4V1_38BpHwWifiC2ERKNS_2spINS0_7IBinderEEE",
   "parameters" :
   [
    {
     "is_this_ptr" : true,
     "referenced_type" : "type-1108"
    },
    {
     "referenced_type" : "type-1140"
    }
   ],
   "return_type" : "type-311",
   "source_file" : "/out/soong/.intermediates/hardware/interfaces/wifi/1.3/android.hardware.wifi@1.3_genc++_headers/gen/android/hardware/wifi/1.3/BpHwWifi.h"
  },
  {
   "function_name" : "android::hardware::wifi::V1_3::IWifiChip::getService",
   "linker_set_key" : "_ZN7android8hardware4wifi4V1_39IWifiChip10getServiceERKNSt3__112basic_stringIcNS4_11char_traitsIcEENS4_9allocatorIcEEEEb",
   "parameters" :
   [
    {
     "default_arg" : true,
     "referenced_type" : "type-591"
    },
    {
     "default_arg" : true,
     "referenced_type" : "type-16"
    }
   ],
   "return_type" : "type-462",
   "source_file" : "/out/soong/.intermediates/hardware/interfaces/wifi/1.3/android.hardware.wifi@1.3_genc++_headers/gen/android/hardware/wifi/1.3/IWifiChip.h"
  },
  {
   "function_name" : "android::hardware::wifi::V1_3::IWifiChip::linkToDeath",
   "linker_set_key" : "_ZN7android8hardware4wifi4V1_39IWifiChip11linkToDeathERKNS_2spINS0_20hidl_death_recipientEEEm",
   "parameters" :
   [
    {
     "is_this_ptr" : true,
     "referenced_type" : "type-463"
    },
    {
     "referenced_type" : "type-1087"
    },
    {
     "referenced_type" : "type-15"
    }
   ],
   "return_type" : "type-1270",
   "source_file" : "/out/soong/.intermediates/hardware/interfaces/wifi/1.3/android.hardware.wifi@1.3_genc++_headers/gen/android/hardware/wifi/1.3/IWifiChip.h"
  },
  {
   "function_name" : "android::hardware::wifi::V1_3::IWifiChip::getDebugInfo",
   "linker_set_key" : "_ZN7android8hardware4wifi4V1_39IWifiChip12getDebugInfoENSt3__18functionIFvRKNS_4hidl4base4V1_09DebugInfoEEEE",
   "parameters" :
   [
    {
     "is_this_ptr" : true,
     "referenced_type" : "type-463"
    },
    {
     "referenced_type" : "type-1898"
    }
   ],
   "return_type" : "type-1294",
   "source_file" : "/out/soong/.intermediates/hardware/interfaces/wifi/1.3/android.hardware.wifi@1.3_genc++_headers/gen/android/hardware/wifi/1.3/IWifiChip.h"
  },
  {
   "function_name" : "android::hardware::wifi::V1_3::IWifiChip::getHashChain",
   "linker_set_key" : "_ZN7android8hardware4wifi4V1_39IWifiChip12getHashChainENSt3__18functionIFvRKNS0_8hidl_vecINS0_10hidl_arrayIhLm32EJEEEEEEEE",
   "parameters" :
   [
    {
     "is_this_ptr" : true,
     "referenced_type" : "type-463"
    },
    {
     "referenced_type" : "type-1899"
    }
   ],
   "return_type" : "type-1294",
   "source_file" : "/out/soong/.intermediates/hardware/interfaces/wifi/1.3/android.hardware.wifi@1.3_genc++_headers/gen/android/hardware/wifi/1.3/IWifiChip.h"
  },
  {
   "function_name" : "android::hardware::wifi::V1_3::IWifiChip::tryGetService",
   "linker_set_key" : "_ZN7android8hardware4wifi4V1_39IWifiChip13tryGetServiceERKNSt3__112basic_stringIcNS4_11char_traitsIcEENS4_9allocatorIcEEEEb",
   "parameters" :
   [
    {
     "default_arg" : true,
     "referenced_type" : "type-591"
    },
    {
     "default_arg" : true,
     "referenced_type" : "type-16"
    }
   ],
   "return_type" : "type-462",
   "source_file" : "/out/soong/.intermediates/hardware/interfaces/wifi/1.3/android.hardware.wifi@1.3_genc++_headers/gen/android/hardware/wifi/1.3/IWifiChip.h"
  },
  {
   "function_name" : "android::hardware::wifi::V1_3::IWifiChip::unlinkToDeath",
   "linker_set_key" : "_ZN7android8hardware4wifi4V1_39IWifiChip13unlinkToDeathERKNS_2spINS0_20hidl_death_recipientEEE",
   "parameters" :
   [
    {
     "is_this_ptr" : true,
     "referenced_type" : "type-463"
    },
    {
     "referenced_type" : "type-1087"
    }
   ],
   "return_type" : "type-1270",
   "source_file" : "/out/soong/.intermediates/hardware/interfaces/wifi/1.3/android.hardware.wifi@1.3_genc++_headers/gen/android/hardware/wifi/1.3/IWifiChip.h"
  },
  {
   "function_name" : "android::hardware::wifi::V1_3::IWifiChip::interfaceChain",
   "linker_set_key" : "_ZN7android8hardware4wifi4V1_39IWifiChip14interfaceChainENSt3__18functionIFvRKNS0_8hidl_vecINS0_11hidl_stringEEEEEE",
   "parameters" :
   [
    {
     "is_this_ptr" : true,
     "referenced_type" : "type-463"
    },
    {
     "referenced_type" : "type-1900"
    }
   ],
   "return_type" : "type-1294",
   "source_file" : "/out/soong/.intermediates/hardware/interfaces/wifi/1.3/android.hardware.wifi@1.3_genc++_headers/gen/android/hardware/wifi/1.3/IWifiChip.h"
  },
  {
   "function_name" : "android::hardware::wifi::V1_3::IWifiChip::registerAsService",
   "linker_set_key" : "_ZN7android8hardware4wifi4V1_39IWifiChip17registerAsServiceERKNSt3__112basic_stringIcNS4_11char_traitsIcEENS4_9allocatorIcEEEE",
   "parameters" :
   [
    {
     "is_this_ptr" : true,
     "referenced_type" : "type-463"
    },
    {
     "default_arg" : true,
     "referenced_type" : "type-591"
    }
   ],
   "return_type" : "type-23",
   "source_file" : "/out/soong/.intermediates/hardware/interfaces/wifi/1.3/android.hardware.wifi@1.3_genc++_headers/gen/android/hardware/wifi/1.3/IWifiChip.h"
  },
  {
   "function_name" : "android::hardware::wifi::V1_3::IWifiChip::interfaceDescriptor",
   "linker_set_key" : "_ZN7android8hardware4wifi4V1_39IWifiChip19interfaceDescriptorENSt3__18functionIFvRKNS0_11hidl_stringEEEE",
   "parameters" :
   [
    {
     "is_this_ptr" : true,
     "referenced_type" : "type-463"
    },
    {
     "referenced_type" : "type-1901"
    }
   ],
   "return_type" : "type-1294",
   "source_file" : "/out/soong/.intermediates/hardware/interfaces/wifi/1.3/android.hardware.wifi@1.3_genc++_headers/gen/android/hardware/wifi/1.3/IWifiChip.h"
  },
  {
   "function_name" : "android::hardware::wifi::V1_3::IWifiChip::notifySyspropsChanged",
   "linker_set_key" : "_ZN7android8hardware4wifi4V1_39IWifiChip21notifySyspropsChangedEv",
   "parameters" :
   [
    {
     "is_this_ptr" : true,
     "referenced_type" : "type-463"
    }
   ],
   "return_type" : "type-1294",
   "source_file" : "/out/soong/.intermediates/hardware/interfaces/wifi/1.3/android.hardware.wifi@1.3_genc++_headers/gen/android/hardware/wifi/1.3/IWifiChip.h"
  },
  {
   "function_name" : "android::hardware::wifi::V1_3::IWifiChip::setHALInstrumentation",
   "linker_set_key" : "_ZN7android8hardware4wifi4V1_39IWifiChip21setHALInstrumentationEv",
   "parameters" :
   [
    {
     "is_this_ptr" : true,
     "referenced_type" : "type-463"
    }
   ],
   "return_type" : "type-1294",
   "source_file" : "/out/soong/.intermediates/hardware/interfaces/wifi/1.3/android.hardware.wifi@1.3_genc++_headers/gen/android/hardware/wifi/1.3/IWifiChip.h"
  },
  {
   "function_name" : "android::hardware::wifi::V1_3::IWifiChip::registerForNotifications",
   "linker_set_key" : "_ZN7android8hardware4wifi4V1_39IWifiChip24registerForNotificationsERKNSt3__112basic_stringIcNS4_11char_traitsIcEENS4_9allocatorIcEEEERKNS_2spINS_4hidl7manager4V1_020IServiceNotificationEEE",
   "parameters" :
   [
    {
     "referenced_type" : "type-591"
    },
    {
     "referenced_type" : "type-110"
    }
   ],
   "return_type" : "type-16",
   "source_file" : "/out/soong/.intermediates/hardware/interfaces/wifi/1.3/android.hardware.wifi@1.3_genc++_headers/gen/android/hardware/wifi/1.3/IWifiChip.h"
  },
  {
   "function_name" : "android::hardware::wifi::V1_3::IWifiChip::ping",
   "linker_set_key" : "_ZN7android8hardware4wifi4V1_39IWifiChip4pingEv",
   "parameters" :
   [
    {
     "is_this_ptr" : true,
     "referenced_type" : "type-463"
    }
   ],
   "return_type" : "type-1294",
   "source_file" : "/out/soong/.intermediates/hardware/interfaces/wifi/1.3/android.hardware.wifi@1.3_genc++_headers/gen/android/hardware/wifi/1.3/IWifiChip.h"
  },
  {
   "function_name" : "android::hardware::wifi::V1_3::IWifiChip::debug",
   "linker_set_key" : "_ZN7android8hardware4wifi4V1_39IWifiChip5debugERKNS0_11hidl_handleERKNS0_8hidl_vecINS0_11hidl_stringEEE",
   "parameters" :
   [
    {
     "is_this_ptr" : true,
     "referenced_type" : "type-463"
    },
    {
     "referenced_type" : "type-1540"
    },
    {
     "referenced_type" : "type-97"
    }
   ],
   "return_type" : "type-1294",
   "source_file" : "/out/soong/.intermediates/hardware/interfaces/wifi/1.3/android.hardware.wifi@1.3_genc++_headers/gen/android/hardware/wifi/1.3/IWifiChip.h"
  },
  {
   "function_name" : "android::hardware::wifi::V1_3::IWifiChip::castFrom",
   "linker_set_key" : "_ZN7android8hardware4wifi4V1_39IWifiChip8castFromERKNS_2spINS1_4V1_09IWifiChipEEEb",
   "parameters" :
   [
    {
     "referenced_type" : "type-1112"
    },
    {
     "default_arg" : true,
     "referenced_type" : "type-16"
    }
   ],
   "return_type" : "type-546",
   "source_file" : "/out/soong/.intermediates/hardware/interfaces/wifi/1.3/android.hardware.wifi@1.3_genc++_headers/gen/android/hardware/wifi/1.3/IWifiChip.h"
  },
  {
   "function_name" : "android::hardware::wifi::V1_3::IWifiChip::castFrom",
   "linker_set_key" : "_ZN7android8hardware4wifi4V1_39IWifiChip8castFromERKNS_2spINS1_4V1_19IWifiChipEEEb",
   "parameters" :
   [
    {
     "referenced_type" : "type-524"
    },
    {
     "default_arg" : true,
     "referenced_type" : "type-16"
    }
   ],
   "return_type" : "type-546",
   "source_file" : "/out/soong/.intermediates/hardware/interfaces/wifi/1.3/android.hardware.wifi@1.3_genc++_headers/gen/android/hardware/wifi/1.3/IWifiChip.h"
  },
  {
   "function_name" : "android::hardware::wifi::V1_3::IWifiChip::castFrom",
   "linker_set_key" : "_ZN7android8hardware4wifi4V1_39IWifiChip8castFromERKNS_2spINS1_4V1_29IWifiChipEEEb",
   "parameters" :
   [
    {
     "referenced_type" : "type-535"
    },
    {
     "default_arg" : true,
     "referenced_type" : "type-16"
    }
   ],
   "return_type" : "type-546",
   "source_file" : "/out/soong/.intermediates/hardware/interfaces/wifi/1.3/android.hardware.wifi@1.3_genc++_headers/gen/android/hardware/wifi/1.3/IWifiChip.h"
  },
  {
   "function_name" : "android::hardware::wifi::V1_3::IWifiChip::castFrom",
   "linker_set_key" : "_ZN7android8hardware4wifi4V1_39IWifiChip8castFromERKNS_2spINS_4hidl4base4V1_05IBaseEEEb",
   "parameters" :
   [
    {
     "referenced_type" : "type-1105"
    },
    {
     "default_arg" : true,
     "referenced_type" : "type-16"
    }
   ],
   "return_type" : "type-546",
   "source_file" : "/out/soong/.intermediates/hardware/interfaces/wifi/1.3/android.hardware.wifi@1.3_genc++_headers/gen/android/hardware/wifi/1.3/IWifiChip.h"
  },
  {
   "function_name" : "android::hardware::wifi::V1_3::IWifiChip::castFrom",
   "linker_set_key" : "_ZN7android8hardware4wifi4V1_39IWifiChip8castFromERKNS_2spIS3_EEb",
   "parameters" :
   [
    {
     "referenced_type" : "type-464"
    },
    {
     "default_arg" : true,
     "referenced_type" : "type-16"
    }
   ],
   "return_type" : "type-546",
   "source_file" : "/out/soong/.intermediates/hardware/interfaces/wifi/1.3/android.hardware.wifi@1.3_genc++_headers/gen/android/hardware/wifi/1.3/IWifiChip.h"
  },
  {
   "function_name" : "android::hardware::details::castInterface",
   "linker_set_key" : "_ZN7android8hardware7details13castInterfaceINS0_4wifi4V1_313IWifiStaIfaceENS3_4V1_010IWifiIfaceENS4_16BpHwWifiStaIfaceEEENS0_6ReturnINS_2spIT_EEEENSA_IT0_EEPKcb",
   "parameters" :
   [
    {
     "referenced_type" : "type-302"
    },
    {
     "referenced_type" : "type-12"
    },
    {
     "referenced_type" : "type-16"
    }
   ],
   "return_type" : "type-717",
   "source_file" : "/system/libhidl/transport/include/hidl/HidlTransportSupport.h",
   "template_args" : [ "type-678", "type-304", "type-689" ]
  },
  {
   "function_name" : "android::hardware::details::castInterface",
   "linker_set_key" : "_ZN7android8hardware7details13castInterfaceINS0_4wifi4V1_313IWifiStaIfaceENS3_4V1_013IWifiStaIfaceENS4_16BpHwWifiStaIfaceEEENS0_6ReturnINS_2spIT_EEEENSA_IT0_EEPKcb",
   "parameters" :
   [
    {
     "referenced_type" : "type-518"
    },
    {
     "referenced_type" : "type-12"
    },
    {
     "referenced_type" : "type-16"
    }
   ],
   "return_type" : "type-717",
   "source_file" : "/system/libhidl/transport/include/hidl/HidlTransportSupport.h",
   "template_args" : [ "type-678", "type-520", "type-689" ]
  },
  {
   "function_name" : "android::hardware::details::castInterface",
   "linker_set_key" : "_ZN7android8hardware7details13castInterfaceINS0_4wifi4V1_313IWifiStaIfaceENS3_4V1_213IWifiStaIfaceENS4_16BpHwWifiStaIfaceEEENS0_6ReturnINS_2spIT_EEEENSA_IT0_EEPKcb",
   "parameters" :
   [
    {
     "referenced_type" : "type-702"
    },
    {
     "referenced_type" : "type-12"
    },
    {
     "referenced_type" : "type-16"
    }
   ],
   "return_type" : "type-717",
   "source_file" : "/system/libhidl/transport/include/hidl/HidlTransportSupport.h",
   "template_args" : [ "type-678", "type-679", "type-689" ]
  },
  {
   "function_name" : "android::hardware::details::castInterface",
   "linker_set_key" : "_ZN7android8hardware7details13castInterfaceINS0_4wifi4V1_313IWifiStaIfaceENS_4hidl4base4V1_05IBaseENS4_16BpHwWifiStaIfaceEEENS0_6ReturnINS_2spIT_EEEENSC_IT0_EEPKcb",
   "parameters" :
   [
    {
     "referenced_type" : "type-306"
    },
    {
     "referenced_type" : "type-12"
    },
    {
     "referenced_type" : "type-16"
    }
   ],
   "return_type" : "type-717",
   "source_file" : "/system/libhidl/transport/include/hidl/HidlTransportSupport.h",
   "template_args" : [ "type-678", "type-115", "type-689" ]
  },
  {
   "function_name" : "android::hardware::details::castInterface",
   "linker_set_key" : "_ZN7android8hardware7details13castInterfaceINS0_4wifi4V1_35IWifiENS3_4V1_05IWifiENS4_8BpHwWifiEEENS0_6ReturnINS_2spIT_EEEENSA_IT0_EEPKcb",
   "parameters" :
   [
    {
     "referenced_type" : "type-869"
    },
    {
     "referenced_type" : "type-12"
    },
    {
     "referenced_type" : "type-16"
    }
   ],
   "return_type" : "type-1276",
   "source_file" : "/system/libhidl/transport/include/hidl/HidlTransportSupport.h",
   "template_args" : [ "type-942", "type-871", "type-938" ]
  },
  {
   "function_name" : "android::hardware::details::castInterface",
   "linker_set_key" : "_ZN7android8hardware7details13castInterfaceINS0_4wifi4V1_35IWifiENS3_4V1_15IWifiENS4_8BpHwWifiEEENS0_6ReturnINS_2spIT_EEEENSA_IT0_EEPKcb",
   "parameters" :
   [
    {
     "referenced_type" : "type-902"
    },
    {
     "referenced_type" : "type-12"
    },
    {
     "referenced_type" : "type-16"
    }
   ],
   "return_type" : "type-1276",
   "source_file" : "/system/libhidl/transport/include/hidl/HidlTransportSupport.h",
   "template_args" : [ "type-942", "type-904", "type-938" ]
  },
  {
   "function_name" : "android::hardware::details::castInterface",
   "linker_set_key" : "_ZN7android8hardware7details13castInterfaceINS0_4wifi4V1_35IWifiENS3_4V1_25IWifiENS4_8BpHwWifiEEENS0_6ReturnINS_2spIT_EEEENSA_IT0_EEPKcb",
   "parameters" :
   [
    {
     "referenced_type" : "type-923"
    },
    {
     "referenced_type" : "type-12"
    },
    {
     "referenced_type" : "type-16"
    }
   ],
   "return_type" : "type-1276",
   "source_file" : "/system/libhidl/transport/include/hidl/HidlTransportSupport.h",
   "template_args" : [ "type-942", "type-925", "type-938" ]
  },
  {
   "function_name" : "android::hardware::details::castInterface",
   "linker_set_key" : "_ZN7android8hardware7details13castInterfaceINS0_4wifi4V1_35IWifiENS_4hidl4base4V1_05IBaseENS4_8BpHwWifiEEENS0_6ReturnINS_2spIT_EEEENSC_IT0_EEPKcb",
   "parameters" :
   [
    {
     "referenced_type" : "type-306"
    },
    {
     "referenced_type" : "type-12"
    },
    {
     "referenced_type" : "type-16"
    }
   ],
   "return_type" : "type-1276",
   "source_file" : "/system/libhidl/transport/include/hidl/HidlTransportSupport.h",
   "template_args" : [ "type-942", "type-115", "type-938" ]
  },
  {
   "function_name" : "android::hardware::details::castInterface",
   "linker_set_key" : "_ZN7android8hardware7details13castInterfaceINS0_4wifi4V1_39IWifiChipENS3_4V1_09IWifiChipENS4_12BpHwWifiChipEEENS0_6ReturnINS_2spIT_EEEENSA_IT0_EEPKcb",
   "parameters" :
   [
    {
     "referenced_type" : "type-759"
    },
    {
     "referenced_type" : "type-12"
    },
    {
     "referenced_type" : "type-16"
    }
   ],
   "return_type" : "type-546",
   "source_file" : "/system/libhidl/transport/include/hidl/HidlTransportSupport.h",
   "template_args" : [ "type-372", "type-344", "type-421" ]
  },
  {
   "function_name" : "android::hardware::details::castInterface",
   "linker_set_key" : "_ZN7android8hardware7details13castInterfaceINS0_4wifi4V1_39IWifiChipENS3_4V1_19IWifiChipENS4_12BpHwWifiChipEEENS0_6ReturnINS_2spIT_EEEENSA_IT0_EEPKcb",
   "parameters" :
   [
    {
     "referenced_type" : "type-388"
    },
    {
     "referenced_type" : "type-12"
    },
    {
     "referenced_type" : "type-16"
    }
   ],
   "return_type" : "type-546",
   "source_file" : "/system/libhidl/transport/include/hidl/HidlTransportSupport.h",
   "template_args" : [ "type-372", "type-343", "type-421" ]
  },
  {
   "function_name" : "android::hardware::details::castInterface",
   "linker_set_key" : "_ZN7android8hardware7details13castInterfaceINS0_4wifi4V1_39IWifiChipENS3_4V1_29IWifiChipENS4_12BpHwWifiChipEEENS0_6ReturnINS_2spIT_EEEENSA_IT0_EEPKcb",
   "parameters" :
   [
    {
     "referenced_type" : "type-410"
    },
    {
     "referenced_type" : "type-12"
    },
    {
     "referenced_type" : "type-16"
    }
   ],
   "return_type" : "type-546",
   "source_file" : "/system/libhidl/transport/include/hidl/HidlTransportSupport.h",
   "template_args" : [ "type-372", "type-361", "type-421" ]
  },
  {
   "function_name" : "android::hardware::details::castInterface",
   "linker_set_key" : "_ZN7android8hardware7details13castInterfaceINS0_4wifi4V1_39IWifiChipENS_4hidl4base4V1_05IBaseENS4_12BpHwWifiChipEEENS0_6ReturnINS_2spIT_EEEENSC_IT0_EEPKcb",
   "parameters" :
   [
    {
     "referenced_type" : "type-306"
    },
    {
     "referenced_type" : "type-12"
    },
    {
     "referenced_type" : "type-16"
    }
   ],
   "return_type" : "type-546",
   "source_file" : "/system/libhidl/transport/include/hidl/HidlTransportSupport.h",
   "template_args" : [ "type-372", "type-115", "type-421" ]
  },
  {
   "function_name" : "android::hardware::details::wrapPassthrough",
   "linker_set_key" : "_ZN7android8hardware7details15wrapPassthroughINS0_4wifi4V1_010IWifiIfaceEvEENS_2spIT_EES8_",
   "parameters" :
   [
    {
     "referenced_type" : "type-302"
    }
   ],
   "return_type" : "type-302",
   "source_file" : "/system/libhidl/transport/include/hidl/HidlPassthroughSupport.h",
   "template_args" : [ "type-304", "type-311" ]
  },
  {
   "function_name" : "android::hardware::details::wrapPassthrough",
   "linker_set_key" : "_ZN7android8hardware7details15wrapPassthroughINS0_4wifi4V1_012IWifiApIfaceEvEENS_2spIT_EES8_",
   "parameters" :
   [
    {
     "referenced_type" : "type-428"
    }
   ],
   "return_type" : "type-428",
   "source_file" : "/system/libhidl/transport/include/hidl/HidlPassthroughSupport.h",
   "template_args" : [ "type-430", "type-311" ]
  },
  {
   "function_name" : "android::hardware::details::wrapPassthrough",
   "linker_set_key" : "_ZN7android8hardware7details15wrapPassthroughINS0_4wifi4V1_013IWifiNanIfaceEvEENS_2spIT_EES8_",
   "parameters" :
   [
    {
     "referenced_type" : "type-496"
    }
   ],
   "return_type" : "type-496",
   "source_file" : "/system/libhidl/transport/include/hidl/HidlPassthroughSupport.h",
   "template_args" : [ "type-498", "type-311" ]
  },
  {
   "function_name" : "android::hardware::details::wrapPassthrough",
   "linker_set_key" : "_ZN7android8hardware7details15wrapPassthroughINS0_4wifi4V1_013IWifiP2pIfaceEvEENS_2spIT_EES8_",
   "parameters" :
   [
    {
     "referenced_type" : "type-504"
    }
   ],
   "return_type" : "type-504",
   "source_file" : "/system/libhidl/transport/include/hidl/HidlPassthroughSupport.h",
   "template_args" : [ "type-506", "type-311" ]
  },
  {
   "function_name" : "android::hardware::details::wrapPassthrough",
   "linker_set_key" : "_ZN7android8hardware7details15wrapPassthroughINS0_4wifi4V1_013IWifiStaIfaceEvEENS_2spIT_EES8_",
   "parameters" :
   [
    {
     "referenced_type" : "type-518"
    }
   ],
   "return_type" : "type-518",
   "source_file" : "/system/libhidl/transport/include/hidl/HidlPassthroughSupport.h",
   "template_args" : [ "type-520", "type-311" ]
  },
  {
   "function_name" : "android::hardware::details::wrapPassthrough",
   "linker_set_key" : "_ZN7android8hardware7details15wrapPassthroughINS0_4wifi4V1_018IWifiEventCallbackEvEENS_2spIT_EES8_",
   "parameters" :
   [
    {
     "referenced_type" : "type-789"
    }
   ],
   "return_type" : "type-789",
   "source_file" : "/system/libhidl/transport/include/hidl/HidlPassthroughSupport.h",
   "template_args" : [ "type-791", "type-311" ]
  },
  {
   "function_name" : "android::hardware::details::wrapPassthrough",
   "linker_set_key" : "_ZN7android8hardware7details15wrapPassthroughINS0_4wifi4V1_018IWifiRttControllerEvEENS_2spIT_EES8_",
   "parameters" :
   [
    {
     "referenced_type" : "type-513"
    }
   ],
   "return_type" : "type-513",
   "source_file" : "/system/libhidl/transport/include/hidl/HidlPassthroughSupport.h",
   "template_args" : [ "type-515", "type-311" ]
  },
  {
   "function_name" : "android::hardware::details::wrapPassthrough",
   "linker_set_key" : "_ZN7android8hardware7details15wrapPassthroughINS0_4wifi4V1_022IWifiChipEventCallbackEvEENS_2spIT_EES8_",
   "parameters" :
   [
    {
     "referenced_type" : "type-487"
    }
   ],
   "return_type" : "type-487",
   "source_file" : "/system/libhidl/transport/include/hidl/HidlPassthroughSupport.h",
   "template_args" : [ "type-401", "type-311" ]
  },
  {
   "function_name" : "android::hardware::details::wrapPassthrough",
   "linker_set_key" : "_ZN7android8hardware7details15wrapPassthroughINS0_4wifi4V1_026IWifiStaIfaceEventCallbackEvEENS_2spIT_EES8_",
   "parameters" :
   [
    {
     "referenced_type" : "type-697"
    }
   ],
   "return_type" : "type-697",
   "source_file" : "/system/libhidl/transport/include/hidl/HidlPassthroughSupport.h",
   "template_args" : [ "type-699", "type-311" ]
  },
  {
   "function_name" : "android::hardware::details::wrapPassthrough",
   "linker_set_key" : "_ZN7android8hardware7details15wrapPassthroughINS0_4wifi4V1_09IWifiChipEvEENS_2spIT_EES8_",
   "parameters" :
   [
    {
     "referenced_type" : "type-759"
    }
   ],
   "return_type" : "type-759",
   "source_file" : "/system/libhidl/transport/include/hidl/HidlPassthroughSupport.h",
   "template_args" : [ "type-344", "type-311" ]
  },
  {
   "function_name" : "android::hardware::details::wrapPassthrough",
   "linker_set_key" : "_ZN7android8hardware7details15wrapPassthroughINS0_4wifi4V1_222IWifiChipEventCallbackEvEENS_2spIT_EES8_",
   "parameters" :
   [
    {
     "referenced_type" : "type-398"
    }
   ],
   "return_type" : "type-398",
   "source_file" : "/system/libhidl/transport/include/hidl/HidlPassthroughSupport.h",
   "template_args" : [ "type-400", "type-311" ]
  },
  {
   "function_name" : "android::hardware::details::getServiceInternal",
   "linker_set_key" : "_ZN7android8hardware7details18getServiceInternalINS0_4wifi4V1_312BpHwWifiChipENS4_9IWifiChipEvvEENS_2spIT0_EERKNSt3__112basic_stringIcNSA_11char_traitsIcEENSA_9allocatorIcEEEEbb",
   "parameters" :
   [
    {
     "referenced_type" : "type-591"
    },
    {
     "referenced_type" : "type-16"
    },
    {
     "referenced_type" : "type-16"
    }
   ],
   "return_type" : "type-462",
   "source_file" : "/system/libhidl/transport/include/hidl/HidlTransportSupport.h",
   "template_args" : [ "type-421", "type-372", "type-311", "type-311" ]
  },
  {
   "function_name" : "android::hardware::details::getServiceInternal",
   "linker_set_key" : "_ZN7android8hardware7details18getServiceInternalINS0_4wifi4V1_316BpHwWifiStaIfaceENS4_13IWifiStaIfaceEvvEENS_2spIT0_EERKNSt3__112basic_stringIcNSA_11char_traitsIcEENSA_9allocatorIcEEEEbb",
   "parameters" :
   [
    {
     "referenced_type" : "type-774"
    },
    {
     "referenced_type" : "type-16"
    },
    {
     "referenced_type" : "type-16"
    }
   ],
   "return_type" : "type-676",
   "source_file" : "/system/libhidl/transport/include/hidl/HidlTransportSupport.h",
   "template_args" : [ "type-689", "type-678", "type-311", "type-311" ]
  },
  {
   "function_name" : "android::hardware::details::getServiceInternal",
   "linker_set_key" : "_ZN7android8hardware7details18getServiceInternalINS0_4wifi4V1_38BpHwWifiENS4_5IWifiEvvEENS_2spIT0_EERKNSt3__112basic_stringIcNSA_11char_traitsIcEENSA_9allocatorIcEEEEbb",
   "parameters" :
   [
    {
     "referenced_type" : "type-1590"
    },
    {
     "referenced_type" : "type-16"
    },
    {
     "referenced_type" : "type-16"
    }
   ],
   "return_type" : "type-1062",
   "source_file" : "/system/libhidl/transport/include/hidl/HidlTransportSupport.h",
   "template_args" : [ "type-938", "type-942", "type-311", "type-311" ]
  }
 ],
 "global_vars" :
 [
  {
   "linker_set_key" : "_ZN7android8hardware4wifi4V1_313IWifiStaIface10descriptorE",
   "name" : "android::hardware::wifi::V1_3::IWifiStaIface::descriptor",
   "referenced_type" : "type-12",
   "source_file" : "/out/soong/.intermediates/hardware/interfaces/wifi/1.3/android.hardware.wifi@1.3_genc++_headers/gen/android/hardware/wifi/1.3/IWifiStaIface.h"
  },
  {
   "linker_set_key" : "_ZN7android8hardware4wifi4V1_35IWifi10descriptorE",
   "name" : "android::hardware::wifi::V1_3::IWifi::descriptor",
   "referenced_type" : "type-12",
   "source_file" : "/out/soong/.intermediates/hardware/interfaces/wifi/1.3/android.hardware.wifi@1.3_genc++_headers/gen/android/hardware/wifi/1.3/IWifi.h"
  },
  {
   "linker_set_key" : "_ZN7android8hardware4wifi4V1_39IWifiChip10descriptorE",
   "name" : "android::hardware::wifi::V1_3::IWifiChip::descriptor",
   "referenced_type" : "type-12",
   "source_file" : "/out/soong/.intermediates/hardware/interfaces/wifi/1.3/android.hardware.wifi@1.3_genc++_headers/gen/android/hardware/wifi/1.3/IWifiChip.h"
  }
 ],
 "lvalue_reference_types" :
 [
  {
   "alignment" : 8,
   "linker_set_key" : "android::Mutex &",
   "name" : "android::Mutex &",
   "referenced_type" : "type-1125",
   "self_type" : "type-1669",
   "size" : 8,
   "source_file" : "/system/core/libutils/include/utils/Mutex.h"
  },
  {
   "alignment" : 8,
   "linker_set_key" : "android::RWLock &",
   "name" : "android::RWLock &",
   "referenced_type" : "type-1674",
   "self_type" : "type-1678",
   "size" : 8,
   "source_file" : "/system/core/libutils/include/utils/RWLock.h"
  },
  {
   "alignment" : 8,
   "linker_set_key" : "android::String16 &",
   "name" : "android::String16 &",
   "referenced_type" : "type-1136",
   "self_type" : "type-1564",
   "size" : 8,
   "source_file" : "/system/core/libutils/include/utils/String16.h"
  },
  {
   "alignment" : 8,
   "linker_set_key" : "android::String8 &",
   "name" : "android::String8 &",
   "referenced_type" : "type-1145",
   "self_type" : "type-1559",
   "size" : 8,
   "source_file" : "/system/core/libutils/include/utils/String8.h"
  },
  {
   "alignment" : 8,
   "linker_set_key" : "android::hardware::Return<android::sp<android::hardware::wifi::V1_3::IWifi> > &",
   "name" : "android::hardware::Return<android::sp<android::hardware::wifi::V1_3::IWifi> > &",
   "referenced_type" : "type-1276",
   "self_type" : "type-1281",
   "size" : 8,
   "source_file" : "/system/libhidl/base/include/hidl/Status.h"
  },
  {
   "alignment" : 8,
   "linker_set_key" : "android::hardware::Return<android::sp<android::hardware::wifi::V1_3::IWifiChip> > &",
   "name" : "android::hardware::Return<android::sp<android::hardware::wifi::V1_3::IWifiChip> > &",
   "referenced_type" : "type-546",
   "self_type" : "type-552",
   "size" : 8,
   "source_file" : "/system/libhidl/base/include/hidl/Status.h"
  },
  {
   "alignment" : 8,
   "linker_set_key" : "android::hardware::Return<android::sp<android::hardware::wifi::V1_3::IWifiStaIface> > &",
   "name" : "android::hardware::Return<android::sp<android::hardware::wifi::V1_3::IWifiStaIface> > &",
   "referenced_type" : "type-717",
   "self_type" : "type-720",
   "size" : 8,
   "source_file" : "/system/libhidl/base/include/hidl/Status.h"
  },
  {
   "alignment" : 8,
   "linker_set_key" : "android::hardware::Return<bool> &",
   "name" : "android::hardware::Return<bool> &",
   "referenced_type" : "type-1270",
   "self_type" : "type-1273",
   "size" : 8,
   "source_file" : "/system/libhidl/base/include/hidl/Status.h"
  },
  {
   "alignment" : 8,
   "linker_set_key" : "android::hardware::Return<void> &",
   "name" : "android::hardware::Return<void> &",
   "referenced_type" : "type-1294",
   "self_type" : "type-1297",
   "size" : 8,
   "source_file" : "/system/libhidl/base/include/hidl/Status.h"
  },
  {
   "alignment" : 8,
   "linker_set_key" : "android::hardware::Status &",
   "name" : "android::hardware::Status &",
   "referenced_type" : "type-548",
   "self_type" : "type-1268",
   "size" : 8,
   "source_file" : "/system/libhidl/base/include/hidl/Status.h"
  },
  {
   "alignment" : 8,
   "linker_set_key" : "android::hardware::TextOutput &",
   "name" : "android::hardware::TextOutput &",
   "referenced_type" : "type-1583",
   "self_type" : "type-1582",
   "size" : 8,
   "source_file" : "/system/libhwbinder/include/hwbinder/Parcel.h"
  },
  {
   "alignment" : 8,
   "linker_set_key" : "android::hardware::TextOutput &",
   "name" : "android::hardware::TextOutput &",
   "referenced_type" : "type-588",
   "self_type" : "type-587",
   "size" : 8,
   "source_file" : "/system/libhwbinder/include/hwbinder/Parcel.h"
  },
  {
   "alignment" : 8,
   "linker_set_key" : "android::hardware::TextOutput &",
   "name" : "android::hardware::TextOutput &",
   "referenced_type" : "type-767",
   "self_type" : "type-766",
   "size" : 8,
   "source_file" : "/system/libhwbinder/include/hwbinder/Parcel.h"
  },
  {
   "alignment" : 8,
   "linker_set_key" : "android::hardware::TextOutput &",
   "name" : "android::hardware::TextOutput &",
   "referenced_type" : "type-946",
   "self_type" : "type-945",
   "size" : 8,
   "source_file" : "/system/libhwbinder/include/hwbinder/Parcel.h"
  },
  {
   "alignment" : 8,
   "linker_set_key" : "android::hardware::details::hidl_pointer<android::hardware::hidl_array<unsigned char, 32> > &",
   "name" : "android::hardware::details::hidl_pointer<android::hardware::hidl_array<unsigned char, 32> > &",
   "referenced_type" : "type-69",
   "self_type" : "type-950",
   "size" : 8,
   "source_file" : "/system/libhidl/base/include/hidl/HidlInternal.h"
  },
  {
   "alignment" : 8,
   "linker_set_key" : "android::hardware::details::hidl_pointer<android::hardware::hidl_string> &",
   "name" : "android::hardware::details::hidl_pointer<android::hardware::hidl_string> &",
   "referenced_type" : "type-6",
   "self_type" : "type-1046",
   "size" : 8,
   "source_file" : "/system/libhidl/base/include/hidl/HidlInternal.h"
  },
  {
   "alignment" : 8,
   "linker_set_key" : "android::hardware::hidl_array<unsigned char, 32> &",
   "name" : "android::hardware::hidl_array<unsigned char, 32> &",
   "referenced_type" : "type-72",
   "self_type" : "type-957",
   "size" : 8,
   "source_file" : "/system/libhidl/base/include/hidl/HidlInternal.h"
  },
  {
   "alignment" : 8,
   "linker_set_key" : "android::hardware::hidl_memory &",
   "name" : "android::hardware::hidl_memory &",
   "referenced_type" : "type-1398",
   "self_type" : "type-1403",
   "size" : 8,
   "source_file" : "/system/libhidl/base/include/hidl/HidlSupport.h"
  },
  {
   "alignment" : 8,
   "linker_set_key" : "android::hardware::hidl_string &",
   "name" : "android::hardware::hidl_string &",
   "referenced_type" : "type-9",
   "self_type" : "type-1049",
   "size" : 8,
   "source_file" : "/system/libhidl/base/include/hidl/HidlInternal.h"
  },
  {
   "alignment" : 8,
   "linker_set_key" : "android::hardware::hidl_vec<android::hardware::hidl_array<unsigned char, 32> > &",
   "name" : "android::hardware::hidl_vec<android::hardware::hidl_array<unsigned char, 32> > &",
   "referenced_type" : "type-68",
   "self_type" : "type-1419",
   "size" : 8,
   "source_file" : "/system/libhidl/base/include/hidl/HidlSupport.h"
  },
  {
   "alignment" : 8,
   "linker_set_key" : "android::hardware::hidl_vec<android::hardware::hidl_string> &",
   "name" : "android::hardware::hidl_vec<android::hardware::hidl_string> &",
   "referenced_type" : "type-99",
   "self_type" : "type-1415",
   "size" : 8,
   "source_file" : "/system/libhidl/base/include/hidl/HidlSupport.h"
  },
  {
   "alignment" : 8,
   "linker_set_key" : "android::sp<android::hardware::hidl_binder_death_recipient> &",
   "name" : "android::sp<android::hardware::hidl_binder_death_recipient> &",
   "referenced_type" : "type-1074",
   "self_type" : "type-1259",
   "size" : 8,
   "source_file" : "/system/core/libutils/include/utils/StrongPointer.h"
  },
  {
   "alignment" : 8,
   "linker_set_key" : "android::sp<android::hardware::wifi::V1_0::IWifiApIface> &",
   "name" : "android::sp<android::hardware::wifi::V1_0::IWifiApIface> &",
   "referenced_type" : "type-428",
   "self_type" : "type-491",
   "size" : 8,
   "source_file" : "/system/core/libutils/include/utils/StrongPointer.h"
  },
  {
   "alignment" : 8,
   "linker_set_key" : "android::sp<android::hardware::wifi::V1_0::IWifiChip> &",
   "name" : "android::sp<android::hardware::wifi::V1_0::IWifiChip> &",
   "referenced_type" : "type-759",
   "self_type" : "type-1228",
   "size" : 8,
   "source_file" : "/system/core/libutils/include/utils/StrongPointer.h"
  },
  {
   "alignment" : 8,
   "linker_set_key" : "android::sp<android::hardware::wifi::V1_0::IWifiChipEventCallback> &",
   "name" : "android::sp<android::hardware::wifi::V1_0::IWifiChipEventCallback> &",
   "referenced_type" : "type-487",
   "self_type" : "type-493",
   "size" : 8,
   "source_file" : "/system/core/libutils/include/utils/StrongPointer.h"
  },
  {
   "alignment" : 8,
   "linker_set_key" : "android::sp<android::hardware::wifi::V1_0::IWifiEventCallback> &",
   "name" : "android::sp<android::hardware::wifi::V1_0::IWifiEventCallback> &",
   "referenced_type" : "type-789",
   "self_type" : "type-1234",
   "size" : 8,
   "source_file" : "/system/core/libutils/include/utils/StrongPointer.h"
  },
  {
   "alignment" : 8,
   "linker_set_key" : "android::sp<android::hardware::wifi::V1_0::IWifiIface> &",
   "name" : "android::sp<android::hardware::wifi::V1_0::IWifiIface> &",
   "referenced_type" : "type-302",
   "self_type" : "type-489",
   "size" : 8,
   "source_file" : "/system/core/libutils/include/utils/StrongPointer.h"
  },
  {
   "alignment" : 8,
   "linker_set_key" : "android::sp<android::hardware::wifi::V1_0::IWifiNanIface> &",
   "name" : "android::sp<android::hardware::wifi::V1_0::IWifiNanIface> &",
   "referenced_type" : "type-496",
   "self_type" : "type-495",
   "size" : 8,
   "source_file" : "/system/core/libutils/include/utils/StrongPointer.h"
  },
  {
   "alignment" : 8,
   "linker_set_key" : "android::sp<android::hardware::wifi::V1_0::IWifiP2pIface> &",
   "name" : "android::sp<android::hardware::wifi::V1_0::IWifiP2pIface> &",
   "referenced_type" : "type-504",
   "self_type" : "type-503",
   "size" : 8,
   "source_file" : "/system/core/libutils/include/utils/StrongPointer.h"
  },
  {
   "alignment" : 8,
   "linker_set_key" : "android::sp<android::hardware::wifi::V1_0::IWifiRttController> &",
   "name" : "android::sp<android::hardware::wifi::V1_0::IWifiRttController> &",
   "referenced_type" : "type-513",
   "self_type" : "type-512",
   "size" : 8,
   "source_file" : "/system/core/libutils/include/utils/StrongPointer.h"
  },
  {
   "alignment" : 8,
   "linker_set_key" : "android::sp<android::hardware::wifi::V1_0::IWifiStaIface> &",
   "name" : "android::sp<android::hardware::wifi::V1_0::IWifiStaIface> &",
   "referenced_type" : "type-518",
   "self_type" : "type-517",
   "size" : 8,
   "source_file" : "/system/core/libutils/include/utils/StrongPointer.h"
  },
  {
   "alignment" : 8,
   "linker_set_key" : "android::sp<android::hardware::wifi::V1_0::IWifiStaIfaceEventCallback> &",
   "name" : "android::sp<android::hardware::wifi::V1_0::IWifiStaIfaceEventCallback> &",
   "referenced_type" : "type-697",
   "self_type" : "type-700",
   "size" : 8,
   "source_file" : "/system/core/libutils/include/utils/StrongPointer.h"
  },
  {
   "alignment" : 8,
   "linker_set_key" : "android::sp<android::hardware::wifi::V1_2::IWifiChipEventCallback> &",
   "name" : "android::sp<android::hardware::wifi::V1_2::IWifiChipEventCallback> &",
   "referenced_type" : "type-398",
   "self_type" : "type-527",
   "size" : 8,
   "source_file" : "/system/core/libutils/include/utils/StrongPointer.h"
  },
  {
   "alignment" : 8,
   "linker_set_key" : "android::sp<android::hardware::wifi::V1_3::IWifi> &",
   "name" : "android::sp<android::hardware::wifi::V1_3::IWifi> &",
   "referenced_type" : "type-1062",
   "self_type" : "type-1254",
   "size" : 8,
   "source_file" : "/system/core/libutils/include/utils/StrongPointer.h"
  },
  {
   "alignment" : 8,
   "linker_set_key" : "android::sp<android::hardware::wifi::V1_3::IWifiChip> &",
   "name" : "android::sp<android::hardware::wifi::V1_3::IWifiChip> &",
   "referenced_type" : "type-462",
   "self_type" : "type-539",
   "size" : 8,
   "source_file" : "/system/core/libutils/include/utils/StrongPointer.h"
  },
  {
   "alignment" : 8,
   "linker_set_key" : "android::sp<android::hardware::wifi::V1_3::IWifiStaIface> &",
   "name" : "android::sp<android::hardware::wifi::V1_3::IWifiStaIface> &",
   "referenced_type" : "type-676",
   "self_type" : "type-711",
   "size" : 8,
   "source_file" : "/system/core/libutils/include/utils/StrongPointer.h"
  },
  {
   "alignment" : 8,
   "linker_set_key" : "const android::String16 &",
   "name" : "const android::String16 &",
   "referenced_type" : "type-1135",
   "self_type" : "type-1134",
   "size" : 8,
   "source_file" : "/system/core/libutils/include/utils/String16.h"
  },
  {
   "alignment" : 8,
   "linker_set_key" : "const android::String8 &",
   "name" : "const android::String8 &",
   "referenced_type" : "type-1556",
   "self_type" : "type-1558",
   "size" : 8,
   "source_file" : "/system/core/libutils/include/utils/String8.h"
  },
  {
   "alignment" : 8,
   "linker_set_key" : "const android::hardware::Parcel &",
   "name" : "const android::hardware::Parcel &",
   "referenced_type" : "type-1584",
   "self_type" : "type-1585",
   "size" : 8,
   "source_file" : "/system/libhwbinder/include/hwbinder/Parcel.h"
  },
  {
   "alignment" : 8,
   "linker_set_key" : "const android::hardware::Return<bool> &",
   "name" : "const android::hardware::Return<bool> &",
   "referenced_type" : "type-1274",
   "self_type" : "type-1284",
   "size" : 8,
   "source_file" : "/system/libhidl/base/include/hidl/Status.h"
  },
  {
   "alignment" : 8,
   "linker_set_key" : "const android::hardware::Status &",
   "name" : "const android::hardware::Status &",
   "referenced_type" : "type-1264",
   "self_type" : "type-1265",
   "size" : 8,
   "source_file" : "/system/libhidl/base/include/hidl/Status.h"
  },
  {
   "alignment" : 8,
   "linker_set_key" : "const android::hardware::details::SchedPrio &",
   "name" : "const android::hardware::details::SchedPrio &",
   "referenced_type" : "type-1596",
   "self_type" : "type-1595",
   "size" : 8,
   "source_file" : "/system/libhidl/transport/include/hidl/ConcurrentMap.h"
  },
  {
   "alignment" : 8,
   "linker_set_key" : "const android::hardware::details::const_accessor<android::hardware::wifi::V1_0::NanBandSpecificConfig, 2> &",
   "name" : "const android::hardware::details::const_accessor<android::hardware::wifi::V1_0::NanBandSpecificConfig, 2> &",
   "referenced_type" : "type-1490",
   "self_type" : "type-1536",
   "size" : 8,
   "source_file" : "/system/libhidl/base/include/hidl/HidlSupport.h"
  },
  {
   "alignment" : 8,
   "linker_set_key" : "const android::hardware::details::const_accessor<bool, 2> &",
   "name" : "const android::hardware::details::const_accessor<bool, 2> &",
   "referenced_type" : "type-1482",
   "self_type" : "type-1535",
   "size" : 8,
   "source_file" : "/system/libhidl/base/include/hidl/HidlSupport.h"
  },
  {
   "alignment" : 8,
   "linker_set_key" : "const android::hardware::details::const_accessor<signed char, 2> &",
   "name" : "const android::hardware::details::const_accessor<signed char, 2> &",
   "referenced_type" : "type-1501",
   "self_type" : "type-1538",
   "size" : 8,
   "source_file" : "/system/libhidl/base/include/hidl/HidlSupport.h"
  },
  {
   "alignment" : 8,
   "linker_set_key" : "const android::hardware::details::const_accessor<unsigned char, 32> &",
   "name" : "const android::hardware::details::const_accessor<unsigned char, 32> &",
   "referenced_type" : "type-1494",
   "self_type" : "type-1537",
   "size" : 8,
   "source_file" : "/system/libhidl/base/include/hidl/HidlSupport.h"
  },
  {
   "alignment" : 8,
   "linker_set_key" : "const android::hardware::details::const_accessor<unsigned char, 6> &",
   "name" : "const android::hardware::details::const_accessor<unsigned char, 6> &",
   "referenced_type" : "type-1471",
   "self_type" : "type-1531",
   "size" : 8,
   "source_file" : "/system/libhidl/base/include/hidl/HidlSupport.h"
  },
  {
   "alignment" : 8,
   "linker_set_key" : "const android::hardware::details::const_accessor<unsigned int, 2> &",
   "name" : "const android::hardware::details::const_accessor<unsigned int, 2> &",
   "referenced_type" : "type-1477",
   "self_type" : "type-1532",
   "size" : 8,
   "source_file" : "/system/libhidl/base/include/hidl/HidlSupport.h"
  },
  {
   "alignment" : 8,
   "linker_set_key" : "const android::hardware::hidl_array<android::hardware::wifi::V1_0::NanBandSpecificConfig, 2> &",
   "name" : "const android::hardware::hidl_array<android::hardware::wifi::V1_0::NanBandSpecificConfig, 2> &",
   "referenced_type" : "type-1515",
   "self_type" : "type-1517",
   "size" : 8,
   "source_file" : "/system/libhidl/base/include/hidl/HidlSupport.h"
  },
  {
   "alignment" : 8,
   "linker_set_key" : "const android::hardware::hidl_array<bool, 2> &",
   "name" : "const android::hardware::hidl_array<bool, 2> &",
   "referenced_type" : "type-1510",
   "self_type" : "type-1512",
   "size" : 8,
   "source_file" : "/system/libhidl/base/include/hidl/HidlSupport.h"
  },
  {
   "alignment" : 8,
   "linker_set_key" : "const android::hardware::hidl_array<signed char, 2> &",
   "name" : "const android::hardware::hidl_array<signed char, 2> &",
   "referenced_type" : "type-1520",
   "self_type" : "type-1523",
   "size" : 8,
   "source_file" : "/system/libhidl/base/include/hidl/HidlSupport.h"
  },
  {
   "alignment" : 8,
   "linker_set_key" : "const android::hardware::hidl_array<unsigned char, 32> &",
   "name" : "const android::hardware::hidl_array<unsigned char, 32> &",
   "referenced_type" : "type-969",
   "self_type" : "type-968",
   "size" : 8,
   "source_file" : "/system/libhidl/base/include/hidl/HidlInternal.h"
  },
  {
   "alignment" : 8,
   "linker_set_key" : "const android::hardware::hidl_array<unsigned char, 3> &",
   "name" : "const android::hardware::hidl_array<unsigned char, 3> &",
   "referenced_type" : "type-893",
   "self_type" : "type-898",
   "size" : 8,
   "source_file" : "/out/soong/.intermediates/hardware/interfaces/wifi/1.3/android.hardware.wifi@1.3_genc++_headers/gen/android/hardware/wifi/1.3/BpHwWifiStaIface.h"
  },
  {
   "alignment" : 8,
   "linker_set_key" : "const android::hardware::hidl_array<unsigned char, 6> &",
   "name" : "const android::hardware::hidl_array<unsigned char, 6> &",
   "referenced_type" : "type-1499",
   "self_type" : "type-1498",
   "size" : 8,
   "source_file" : "/system/libhidl/base/include/hidl/HidlInternal.h"
  },
  {
   "alignment" : 8,
   "linker_set_key" : "const android::hardware::hidl_array<unsigned int, 2> &",
   "name" : "const android::hardware::hidl_array<unsigned int, 2> &",
   "referenced_type" : "type-1506",
   "self_type" : "type-1508",
   "size" : 8,
   "source_file" : "/system/libhidl/base/include/hidl/HidlSupport.h"
  },
  {
   "alignment" : 8,
   "linker_set_key" : "const android::hardware::hidl_handle &",
   "name" : "const android::hardware::hidl_handle &",
   "referenced_type" : "type-1539",
   "self_type" : "type-1540",
   "size" : 8,
   "source_file" : "/system/libhidl/base/include/hidl/HidlSupport.h"
  },
  {
   "alignment" : 8,
   "linker_set_key" : "const android::hardware::hidl_memory &",
   "name" : "const android::hardware::hidl_memory &",
   "referenced_type" : "type-1401",
   "self_type" : "type-1402",
   "size" : 8,
   "source_file" : "/system/libhidl/base/include/hidl/HidlSupport.h"
  },
  {
   "alignment" : 8,
   "linker_set_key" : "const android::hardware::hidl_string &",
   "name" : "const android::hardware::hidl_string &",
   "referenced_type" : "type-1396",
   "self_type" : "type-1397",
   "size" : 8,
   "source_file" : "/system/libhidl/base/include/hidl/HidlSupport.h"
  },
  {
   "alignment" : 8,
   "linker_set_key" : "const android::hardware::hidl_vec<android::hardware::hidl_array<unsigned char, 32> > &",
   "name" : "const android::hardware::hidl_vec<android::hardware::hidl_array<unsigned char, 32> > &",
   "referenced_type" : "type-1421",
   "self_type" : "type-1423",
   "size" : 8,
   "source_file" : "/system/libhidl/base/include/hidl/HidlSupport.h"
  },
  {
   "alignment" : 8,
   "linker_set_key" : "const android::hardware::hidl_vec<android::hardware::hidl_array<unsigned char, 6> > &",
   "name" : "const android::hardware::hidl_vec<android::hardware::hidl_array<unsigned char, 6> > &",
   "referenced_type" : "type-1447",
   "self_type" : "type-1449",
   "size" : 8,
   "source_file" : "/system/libhidl/base/include/hidl/HidlSupport.h"
  },
  {
   "alignment" : 8,
   "linker_set_key" : "const android::hardware::hidl_vec<android::hardware::hidl_string> &",
   "name" : "const android::hardware::hidl_vec<android::hardware::hidl_string> &",
   "referenced_type" : "type-98",
   "self_type" : "type-97",
   "size" : 8,
   "source_file" : "/out/soong/.intermediates/hardware/interfaces/wifi/1.3/android.hardware.wifi@1.3_genc++_headers/gen/android/hardware/wifi/1.3/IWifi.h"
  },
  {
   "alignment" : 8,
   "linker_set_key" : "const android::hardware::hidl_vec<android::hardware::wifi::V1_0::IWifiChip::ChipIfaceCombination> &",
   "name" : "const android::hardware::hidl_vec<android::hardware::wifi::V1_0::IWifiChip::ChipIfaceCombination> &",
   "referenced_type" : "type-1458",
   "self_type" : "type-1460",
   "size" : 8,
   "source_file" : "/system/libhidl/base/include/hidl/HidlSupport.h"
  },
  {
   "alignment" : 8,
   "linker_set_key" : "const android::hardware::hidl_vec<android::hardware::wifi::V1_0::IWifiChip::ChipIfaceCombinationLimit> &",
   "name" : "const android::hardware::hidl_vec<android::hardware::wifi::V1_0::IWifiChip::ChipIfaceCombinationLimit> &",
   "referenced_type" : "type-1455",
   "self_type" : "type-1457",
   "size" : 8,
   "source_file" : "/system/libhidl/base/include/hidl/HidlSupport.h"
  },
  {
   "alignment" : 8,
   "linker_set_key" : "const android::hardware::hidl_vec<android::hardware::wifi::V1_0::IfaceType> &",
   "name" : "const android::hardware::hidl_vec<android::hardware::wifi::V1_0::IfaceType> &",
   "referenced_type" : "type-1450",
   "self_type" : "type-1452",
   "size" : 8,
   "source_file" : "/system/libhidl/base/include/hidl/HidlSupport.h"
  },
  {
   "alignment" : 8,
   "linker_set_key" : "const android::hardware::hidl_vec<android::hardware::wifi::V1_0::StaBackgroundScanBucketParameters> &",
   "name" : "const android::hardware::hidl_vec<android::hardware::wifi::V1_0::StaBackgroundScanBucketParameters> &",
   "referenced_type" : "type-1434",
   "self_type" : "type-1436",
   "size" : 8,
   "source_file" : "/system/libhidl/base/include/hidl/HidlSupport.h"
  },
  {
   "alignment" : 8,
   "linker_set_key" : "const android::hardware::hidl_vec<android::hardware::wifi::V1_0::StaLinkLayerRadioStats> &",
   "name" : "const android::hardware::hidl_vec<android::hardware::wifi::V1_0::StaLinkLayerRadioStats> &",
   "referenced_type" : "type-1437",
   "self_type" : "type-1439",
   "size" : 8,
   "source_file" : "/system/libhidl/base/include/hidl/HidlSupport.h"
  },
  {
   "alignment" : 8,
   "linker_set_key" : "const android::hardware::hidl_vec<android::hardware::wifi::V1_0::StaScanResult> &",
   "name" : "const android::hardware::hidl_vec<android::hardware::wifi::V1_0::StaScanResult> &",
   "referenced_type" : "type-1444",
   "self_type" : "type-1446",
   "size" : 8,
   "source_file" : "/system/libhidl/base/include/hidl/HidlSupport.h"
  },
  {
   "alignment" : 8,
   "linker_set_key" : "const android::hardware::hidl_vec<android::hardware::wifi::V1_0::WifiInformationElement> &",
   "name" : "const android::hardware::hidl_vec<android::hardware::wifi::V1_0::WifiInformationElement> &",
   "referenced_type" : "type-1440",
   "self_type" : "type-1442",
   "size" : 8,
   "source_file" : "/system/libhidl/base/include/hidl/HidlSupport.h"
  },
  {
   "alignment" : 8,
   "linker_set_key" : "const android::hardware::hidl_vec<android::hardware::wifi::V1_2::IWifiChipEventCallback::IfaceInfo> &",
   "name" : "const android::hardware::hidl_vec<android::hardware::wifi::V1_2::IWifiChipEventCallback::IfaceInfo> &",
   "referenced_type" : "type-572",
   "self_type" : "type-574",
   "size" : 8,
   "source_file" : "/system/libhidl/base/include/hidl/HidlSupport.h"
  },
  {
   "alignment" : 8,
   "linker_set_key" : "const android::hardware::hidl_vec<android::hardware::wifi::V1_3::StaLinkLayerRadioStats> &",
   "name" : "const android::hardware::hidl_vec<android::hardware::wifi::V1_3::StaLinkLayerRadioStats> &",
   "referenced_type" : "type-745",
   "self_type" : "type-751",
   "size" : 8,
   "source_file" : "/system/libhidl/base/include/hidl/HidlSupport.h"
  },
  {
   "alignment" : 8,
   "linker_set_key" : "const android::hardware::hidl_vec<android::hardware::wifi::V1_3::WifiChannelStats> &",
   "name" : "const android::hardware::hidl_vec<android::hardware::wifi::V1_3::WifiChannelStats> &",
   "referenced_type" : "type-741",
   "self_type" : "type-743",
   "size" : 8,
   "source_file" : "/system/libhidl/base/include/hidl/HidlSupport.h"
  },
  {
   "alignment" : 8,
   "linker_set_key" : "const android::hardware::hidl_vec<int> &",
   "name" : "const android::hardware::hidl_vec<int> &",
   "referenced_type" : "type-1425",
   "self_type" : "type-1427",
   "size" : 8,
   "source_file" : "/system/libhidl/base/include/hidl/HidlSupport.h"
  },
  {
   "alignment" : 8,
   "linker_set_key" : "const android::hardware::hidl_vec<unsigned char> &",
   "name" : "const android::hardware::hidl_vec<unsigned char> &",
   "referenced_type" : "type-1428",
   "self_type" : "type-1430",
   "size" : 8,
   "source_file" : "/system/libhidl/base/include/hidl/HidlSupport.h"
  },
  {
   "alignment" : 8,
   "linker_set_key" : "const android::hardware::hidl_vec<unsigned int> &",
   "name" : "const android::hardware::hidl_vec<unsigned int> &",
   "referenced_type" : "type-1431",
   "self_type" : "type-1433",
   "size" : 8,
   "source_file" : "/system/libhidl/base/include/hidl/HidlSupport.h"
  },
  {
   "alignment" : 8,
   "linker_set_key" : "const android::hardware::hidl_version &",
   "name" : "const android::hardware::hidl_version &",
   "referenced_type" : "type-1526",
   "self_type" : "type-1528",
   "size" : 8,
   "source_file" : "/system/libhidl/base/include/hidl/HidlSupport.h"
  },
  {
   "alignment" : 8,
   "linker_set_key" : "const android::hardware::wifi::V1_0::IWifiChip::ChipIfaceCombination &",
   "name" : "const android::hardware::wifi::V1_0::IWifiChip::ChipIfaceCombination &",
   "referenced_type" : "type-1042",
   "self_type" : "type-1041",
   "size" : 8,
   "source_file" : "/system/libhidl/base/include/hidl/HidlInternal.h"
  },
  {
   "alignment" : 8,
   "linker_set_key" : "const android::hardware::wifi::V1_0::IWifiChip::ChipIfaceCombinationLimit &",
   "name" : "const android::hardware::wifi::V1_0::IWifiChip::ChipIfaceCombinationLimit &",
   "referenced_type" : "type-1037",
   "self_type" : "type-1036",
   "size" : 8,
   "source_file" : "/system/libhidl/base/include/hidl/HidlInternal.h"
  },
  {
   "alignment" : 8,
   "linker_set_key" : "const android::hardware::wifi::V1_0::IfaceType &",
   "name" : "const android::hardware::wifi::V1_0::IfaceType &",
   "referenced_type" : "type-1003",
   "self_type" : "type-1002",
   "size" : 8,
   "source_file" : "/system/libhidl/base/include/hidl/HidlInternal.h"
  },
  {
   "alignment" : 8,
   "linker_set_key" : "const android::hardware::wifi::V1_0::NanBandSpecificConfig &",
   "name" : "const android::hardware::wifi::V1_0::NanBandSpecificConfig &",
   "referenced_type" : "type-1487",
   "self_type" : "type-1489",
   "size" : 8,
   "source_file" : "/system/libhidl/base/include/hidl/HidlSupport.h"
  },
  {
   "alignment" : 8,
   "linker_set_key" : "const android::hardware::wifi::V1_0::StaBackgroundScanBucketParameters &",
   "name" : "const android::hardware::wifi::V1_0::StaBackgroundScanBucketParameters &",
   "referenced_type" : "type-1580",
   "self_type" : "type-1579",
   "size" : 8,
   "source_file" : "/system/libhidl/base/include/hidl/HidlInternal.h"
  },
  {
   "alignment" : 8,
   "linker_set_key" : "const android::hardware::wifi::V1_0::StaBackgroundScanParameters &",
   "name" : "const android::hardware::wifi::V1_0::StaBackgroundScanParameters &",
   "referenced_type" : "type-889",
   "self_type" : "type-890",
   "size" : 8,
   "source_file" : "/out/soong/.intermediates/hardware/interfaces/wifi/1.3/android.hardware.wifi@1.3_genc++_headers/gen/android/hardware/wifi/1.3/BpHwWifiStaIface.h"
  },
  {
   "alignment" : 8,
   "linker_set_key" : "const android::hardware::wifi::V1_0::StaLinkLayerRadioStats &",
   "name" : "const android::hardware::wifi::V1_0::StaLinkLayerRadioStats &",
   "referenced_type" : "type-1666",
   "self_type" : "type-1665",
   "size" : 8,
   "source_file" : "/system/libhidl/base/include/hidl/HidlInternal.h"
  },
  {
   "alignment" : 8,
   "linker_set_key" : "const android::hardware::wifi::V1_0::StaRoamingConfig &",
   "name" : "const android::hardware::wifi::V1_0::StaRoamingConfig &",
   "referenced_type" : "type-891",
   "self_type" : "type-892",
   "size" : 8,
   "source_file" : "/out/soong/.intermediates/hardware/interfaces/wifi/1.3/android.hardware.wifi@1.3_genc++_headers/gen/android/hardware/wifi/1.3/BpHwWifiStaIface.h"
  },
  {
   "alignment" : 8,
   "linker_set_key" : "const android::hardware::wifi::V1_0::StaScanResult &",
   "name" : "const android::hardware::wifi::V1_0::StaScanResult &",
   "referenced_type" : "type-225",
   "self_type" : "type-224",
   "size" : 8,
   "source_file" : "/system/libhidl/base/include/hidl/HidlInternal.h"
  },
  {
   "alignment" : 8,
   "linker_set_key" : "const android::hardware::wifi::V1_0::WifiInformationElement &",
   "name" : "const android::hardware::wifi::V1_0::WifiInformationElement &",
   "referenced_type" : "type-109",
   "self_type" : "type-108",
   "size" : 8,
   "source_file" : "/system/libhidl/base/include/hidl/HidlInternal.h"
  },
  {
   "alignment" : 8,
   "linker_set_key" : "const android::hardware::wifi::V1_2::IWifiChipEventCallback::IfaceInfo &",
   "name" : "const android::hardware::wifi::V1_2::IWifiChipEventCallback::IfaceInfo &",
   "referenced_type" : "type-432",
   "self_type" : "type-431",
   "size" : 8,
   "source_file" : "/system/libhidl/base/include/hidl/HidlInternal.h"
  },
  {
   "alignment" : 8,
   "linker_set_key" : "const android::hardware::wifi::V1_3::StaLinkLayerRadioStats &",
   "name" : "const android::hardware::wifi::V1_3::StaLinkLayerRadioStats &",
   "referenced_type" : "type-662",
   "self_type" : "type-661",
   "size" : 8,
   "source_file" : "/system/libhidl/base/include/hidl/HidlInternal.h"
  },
  {
   "alignment" : 8,
   "linker_set_key" : "const android::hardware::wifi::V1_3::StaLinkLayerStats &",
   "name" : "const android::hardware::wifi::V1_3::StaLinkLayerStats &",
   "referenced_type" : "type-1029",
   "self_type" : "type-1030",
   "size" : 8,
   "source_file" : "/out/soong/.intermediates/hardware/interfaces/wifi/1.3/android.hardware.wifi@1.3_genc++_headers/gen/android/hardware/wifi/1.3/hwtypes.h"
  },
  {
   "alignment" : 8,
   "linker_set_key" : "const android::hardware::wifi::V1_3::WifiChannelStats &",
   "name" : "const android::hardware::wifi::V1_3::WifiChannelStats &",
   "referenced_type" : "type-653",
   "self_type" : "type-652",
   "size" : 8,
   "source_file" : "/system/libhidl/base/include/hidl/HidlInternal.h"
  },
  {
   "alignment" : 8,
   "linker_set_key" : "const android::hidl::base::V1_0::IBase *const &",
   "name" : "const android::hidl::base::V1_0::IBase *const &",
   "referenced_type" : "type-1610",
   "self_type" : "type-1611",
   "size" : 8,
   "source_file" : "/system/libhidl/transport/include/hidl/ConcurrentMap.h"
  },
  {
   "alignment" : 8,
   "linker_set_key" : "const android::sp<android::hardware::IBinder> &",
   "name" : "const android::sp<android::hardware::IBinder> &",
   "referenced_type" : "type-481",
   "self_type" : "type-1140",
   "size" : 8,
   "source_file" : "/system/libhwbinder/include/hwbinder/IInterface.h"
  },
  {
   "alignment" : 8,
   "linker_set_key" : "const android::sp<android::hardware::hidl_binder_death_recipient> &",
   "name" : "const android::sp<android::hardware::hidl_binder_death_recipient> &",
   "referenced_type" : "type-1073",
   "self_type" : "type-1080",
   "size" : 8,
   "source_file" : "/system/core/libutils/include/utils/RefBase.h"
  },
  {
   "alignment" : 8,
   "linker_set_key" : "const android::sp<android::hardware::hidl_death_recipient> &",
   "name" : "const android::sp<android::hardware::hidl_death_recipient> &",
   "referenced_type" : "type-1085",
   "self_type" : "type-1087",
   "size" : 8,
   "source_file" : "/system/core/libutils/include/utils/RefBase.h"
  },
  {
   "alignment" : 8,
   "linker_set_key" : "const android::sp<android::hardware::wifi::V1_0::IWifi> &",
   "name" : "const android::sp<android::hardware::wifi::V1_0::IWifi> &",
   "referenced_type" : "type-1241",
   "self_type" : "type-1242",
   "size" : 8,
   "source_file" : "/system/core/libutils/include/utils/StrongPointer.h"
  },
  {
   "alignment" : 8,
   "linker_set_key" : "const android::sp<android::hardware::wifi::V1_0::IWifiApIface> &",
   "name" : "const android::sp<android::hardware::wifi::V1_0::IWifiApIface> &",
   "referenced_type" : "type-1179",
   "self_type" : "type-1180",
   "size" : 8,
   "source_file" : "/system/core/libutils/include/utils/StrongPointer.h"
  },
  {
   "alignment" : 8,
   "linker_set_key" : "const android::sp<android::hardware::wifi::V1_0::IWifiChip> &",
   "name" : "const android::sp<android::hardware::wifi::V1_0::IWifiChip> &",
   "referenced_type" : "type-1111",
   "self_type" : "type-1112",
   "size" : 8,
   "source_file" : "/system/core/libutils/include/utils/StrongPointer.h"
  },
  {
   "alignment" : 8,
   "linker_set_key" : "const android::sp<android::hardware::wifi::V1_0::IWifiChipEventCallback> &",
   "name" : "const android::sp<android::hardware::wifi::V1_0::IWifiChipEventCallback> &",
   "referenced_type" : "type-1185",
   "self_type" : "type-1186",
   "size" : 8,
   "source_file" : "/system/core/libutils/include/utils/StrongPointer.h"
  },
  {
   "alignment" : 8,
   "linker_set_key" : "const android::sp<android::hardware::wifi::V1_0::IWifiEventCallback> &",
   "name" : "const android::sp<android::hardware::wifi::V1_0::IWifiEventCallback> &",
   "referenced_type" : "type-1109",
   "self_type" : "type-1110",
   "size" : 8,
   "source_file" : "/system/core/libutils/include/utils/StrongPointer.h"
  },
  {
   "alignment" : 8,
   "linker_set_key" : "const android::sp<android::hardware::wifi::V1_0::IWifiIface> &",
   "name" : "const android::sp<android::hardware::wifi::V1_0::IWifiIface> &",
   "referenced_type" : "type-1175",
   "self_type" : "type-1176",
   "size" : 8,
   "source_file" : "/system/core/libutils/include/utils/StrongPointer.h"
  },
  {
   "alignment" : 8,
   "linker_set_key" : "const android::sp<android::hardware::wifi::V1_0::IWifiNanIface> &",
   "name" : "const android::sp<android::hardware::wifi::V1_0::IWifiNanIface> &",
   "referenced_type" : "type-1195",
   "self_type" : "type-1196",
   "size" : 8,
   "source_file" : "/system/core/libutils/include/utils/StrongPointer.h"
  },
  {
   "alignment" : 8,
   "linker_set_key" : "const android::sp<android::hardware::wifi::V1_0::IWifiNanIfaceEventCallback> &",
   "name" : "const android::sp<android::hardware::wifi::V1_0::IWifiNanIfaceEventCallback> &",
   "referenced_type" : "type-1189",
   "self_type" : "type-1190",
   "size" : 8,
   "source_file" : "/system/core/libutils/include/utils/StrongPointer.h"
  },
  {
   "alignment" : 8,
   "linker_set_key" : "const android::sp<android::hardware::wifi::V1_0::IWifiP2pIface> &",
   "name" : "const android::sp<android::hardware::wifi::V1_0::IWifiP2pIface> &",
   "referenced_type" : "type-1200",
   "self_type" : "type-1201",
   "size" : 8,
   "source_file" : "/system/core/libutils/include/utils/StrongPointer.h"
  },
  {
   "alignment" : 8,
   "linker_set_key" : "const android::sp<android::hardware::wifi::V1_0::IWifiRttController> &",
   "name" : "const android::sp<android::hardware::wifi::V1_0::IWifiRttController> &",
   "referenced_type" : "type-1210",
   "self_type" : "type-1211",
   "size" : 8,
   "source_file" : "/system/core/libutils/include/utils/StrongPointer.h"
  },
  {
   "alignment" : 8,
   "linker_set_key" : "const android::sp<android::hardware::wifi::V1_0::IWifiRttControllerEventCallback> &",
   "name" : "const android::sp<android::hardware::wifi::V1_0::IWifiRttControllerEventCallback> &",
   "referenced_type" : "type-1204",
   "self_type" : "type-1207",
   "size" : 8,
   "source_file" : "/system/core/libutils/include/utils/StrongPointer.h"
  },
  {
   "alignment" : 8,
   "linker_set_key" : "const android::sp<android::hardware::wifi::V1_0::IWifiStaIface> &",
   "name" : "const android::sp<android::hardware::wifi::V1_0::IWifiStaIface> &",
   "referenced_type" : "type-1223",
   "self_type" : "type-1224",
   "size" : 8,
   "source_file" : "/system/core/libutils/include/utils/StrongPointer.h"
  },
  {
   "alignment" : 8,
   "linker_set_key" : "const android::sp<android::hardware::wifi::V1_0::IWifiStaIfaceEventCallback> &",
   "name" : "const android::sp<android::hardware::wifi::V1_0::IWifiStaIfaceEventCallback> &",
   "referenced_type" : "type-1219",
   "self_type" : "type-1220",
   "size" : 8,
   "source_file" : "/system/core/libutils/include/utils/StrongPointer.h"
  },
  {
   "alignment" : 8,
   "linker_set_key" : "const android::sp<android::hardware::wifi::V1_1::IWifi> &",
   "name" : "const android::sp<android::hardware::wifi::V1_1::IWifi> &",
   "referenced_type" : "type-1245",
   "self_type" : "type-1246",
   "size" : 8,
   "source_file" : "/system/core/libutils/include/utils/StrongPointer.h"
  },
  {
   "alignment" : 8,
   "linker_set_key" : "const android::sp<android::hardware::wifi::V1_1::IWifiChip> &",
   "name" : "const android::sp<android::hardware::wifi::V1_1::IWifiChip> &",
   "referenced_type" : "type-523",
   "self_type" : "type-524",
   "size" : 8,
   "source_file" : "/system/core/libutils/include/utils/StrongPointer.h"
  },
  {
   "alignment" : 8,
   "linker_set_key" : "const android::sp<android::hardware::wifi::V1_2::IWifi> &",
   "name" : "const android::sp<android::hardware::wifi::V1_2::IWifi> &",
   "referenced_type" : "type-1249",
   "self_type" : "type-1250",
   "size" : 8,
   "source_file" : "/system/core/libutils/include/utils/StrongPointer.h"
  },
  {
   "alignment" : 8,
   "linker_set_key" : "const android::sp<android::hardware::wifi::V1_2::IWifiChip> &",
   "name" : "const android::sp<android::hardware::wifi::V1_2::IWifiChip> &",
   "referenced_type" : "type-534",
   "self_type" : "type-535",
   "size" : 8,
   "source_file" : "/system/core/libutils/include/utils/StrongPointer.h"
  },
  {
   "alignment" : 8,
   "linker_set_key" : "const android::sp<android::hardware::wifi::V1_2::IWifiChipEventCallback> &",
   "name" : "const android::sp<android::hardware::wifi::V1_2::IWifiChipEventCallback> &",
   "referenced_type" : "type-477",
   "self_type" : "type-478",
   "size" : 8,
   "source_file" : "/system/core/libutils/include/utils/StrongPointer.h"
  },
  {
   "alignment" : 8,
   "linker_set_key" : "const android::sp<android::hardware::wifi::V1_2::IWifiStaIface> &",
   "name" : "const android::sp<android::hardware::wifi::V1_2::IWifiStaIface> &",
   "referenced_type" : "type-705",
   "self_type" : "type-706",
   "size" : 8,
   "source_file" : "/system/core/libutils/include/utils/StrongPointer.h"
  },
  {
   "alignment" : 8,
   "linker_set_key" : "const android::sp<android::hardware::wifi::V1_3::IWifi> &",
   "name" : "const android::sp<android::hardware::wifi::V1_3::IWifi> &",
   "referenced_type" : "type-1061",
   "self_type" : "type-1064",
   "size" : 8,
   "source_file" : "/system/core/libutils/include/utils/RefBase.h"
  },
  {
   "alignment" : 8,
   "linker_set_key" : "const android::sp<android::hardware::wifi::V1_3::IWifiChip> &",
   "name" : "const android::sp<android::hardware::wifi::V1_3::IWifiChip> &",
   "referenced_type" : "type-461",
   "self_type" : "type-464",
   "size" : 8,
   "source_file" : "/system/core/libutils/include/utils/RefBase.h"
  },
  {
   "alignment" : 8,
   "linker_set_key" : "const android::sp<android::hardware::wifi::V1_3::IWifiStaIface> &",
   "name" : "const android::sp<android::hardware::wifi::V1_3::IWifiStaIface> &",
   "referenced_type" : "type-675",
   "self_type" : "type-684",
   "size" : 8,
   "source_file" : "/system/core/libutils/include/utils/RefBase.h"
  },
  {
   "alignment" : 8,
   "linker_set_key" : "const android::sp<android::hidl::base::V1_0::IBase> &",
   "name" : "const android::sp<android::hidl::base::V1_0::IBase> &",
   "referenced_type" : "type-1104",
   "self_type" : "type-1105",
   "size" : 8,
   "source_file" : "/system/core/libutils/include/utils/StrongPointer.h"
  },
  {
   "alignment" : 8,
   "linker_set_key" : "const android::sp<android::hidl::manager::V1_0::IServiceNotification> &",
   "name" : "const android::sp<android::hidl::manager::V1_0::IServiceNotification> &",
   "referenced_type" : "type-111",
   "self_type" : "type-110",
   "size" : 8,
   "source_file" : "/out/soong/.intermediates/hardware/interfaces/wifi/1.3/android.hardware.wifi@1.3_genc++_headers/gen/android/hardware/wifi/1.3/IWifi.h"
  },
  {
   "alignment" : 8,
   "linker_set_key" : "const android::wp<android::hardware::BHwBinder> &",
   "name" : "const android::wp<android::hardware::BHwBinder> &",
   "referenced_type" : "type-1095",
   "self_type" : "type-1097",
   "size" : 8,
   "source_file" : "/system/core/libutils/include/utils/RefBase.h"
  },
  {
   "alignment" : 8,
   "linker_set_key" : "const android::wp<android::hidl::base::V1_0::IBase> &",
   "name" : "const android::wp<android::hidl::base::V1_0::IBase> &",
   "referenced_type" : "type-1065",
   "self_type" : "type-1067",
   "size" : 8,
   "source_file" : "/system/core/libutils/include/utils/RefBase.h"
  },
  {
   "alignment" : 8,
   "linker_set_key" : "const bool &",
   "name" : "const bool &",
   "referenced_type" : "type-1166",
   "self_type" : "type-1373",
   "size" : 8,
   "source_file" : "/system/core/libutils/include/utils/TypeHelpers.h"
  },
  {
   "alignment" : 8,
   "linker_set_key" : "const double &",
   "name" : "const double &",
   "referenced_type" : "type-1385",
   "self_type" : "type-1386",
   "size" : 8,
   "source_file" : "/system/core/libutils/include/utils/TypeHelpers.h"
  },
  {
   "alignment" : 8,
   "linker_set_key" : "const float &",
   "name" : "const float &",
   "referenced_type" : "type-1383",
   "self_type" : "type-1384",
   "size" : 8,
   "source_file" : "/system/core/libutils/include/utils/TypeHelpers.h"
  },
  {
   "alignment" : 8,
   "linker_set_key" : "const int &",
   "name" : "const int &",
   "referenced_type" : "type-1391",
   "self_type" : "type-1390",
   "size" : 8,
   "source_file" : "/system/libhidl/base/include/hidl/HidlInternal.h"
  },
  {
   "linker_set_key" : "const iter<is_const> &",
   "name" : "const iter<is_const> &",
   "referenced_type" : "type-1407",
   "self_type" : "type-1409",
   "source_file" : "/system/libhidl/base/include/hidl/HidlSupport.h"
  },
  {
   "linker_set_key" : "const iter<is_const> &",
   "name" : "const iter<is_const> &",
   "referenced_type" : "type-559",
   "self_type" : "type-561",
   "source_file" : "/system/libhidl/base/include/hidl/HidlSupport.h"
  },
  {
   "linker_set_key" : "const iter<is_const> &",
   "name" : "const iter<is_const> &",
   "referenced_type" : "type-729",
   "self_type" : "type-731",
   "source_file" : "/system/libhidl/base/include/hidl/HidlSupport.h"
  },
  {
   "linker_set_key" : "const iter<is_const> &",
   "name" : "const iter<is_const> &",
   "referenced_type" : "type-920",
   "self_type" : "type-926",
   "source_file" : "/system/libhidl/base/include/hidl/HidlSupport.h"
  },
  {
   "alignment" : 8,
   "linker_set_key" : "const log_msg &",
   "name" : "const log_msg &",
   "referenced_type" : "type-1081",
   "self_type" : "type-1098",
   "size" : 8,
   "source_file" : "/system/core/liblog/include/log/log_read.h"
  },
  {
   "alignment" : 8,
   "linker_set_key" : "const long &",
   "name" : "const long &",
   "referenced_type" : "type-1380",
   "self_type" : "type-1381",
   "size" : 8,
   "source_file" : "/system/core/libutils/include/utils/TypeHelpers.h"
  },
  {
   "alignment" : 8,
   "linker_set_key" : "const short &",
   "name" : "const short &",
   "referenced_type" : "type-1376",
   "self_type" : "type-1377",
   "size" : 8,
   "source_file" : "/system/core/libutils/include/utils/TypeHelpers.h"
  },
  {
   "alignment" : 8,
   "linker_set_key" : "const signed char &",
   "name" : "const signed char &",
   "referenced_type" : "type-1374",
   "self_type" : "type-1375",
   "size" : 8,
   "source_file" : "/system/core/libutils/include/utils/TypeHelpers.h"
  },
  {
   "alignment" : 8,
   "linker_set_key" : "const std::basic_string<char, std::char_traits<char>, std::allocator<char> > &",
   "name" : "const std::basic_string<char, std::char_traits<char>, std::allocator<char> > &",
   "referenced_type" : "type-1588",
   "self_type" : "type-1590",
   "size" : 8,
   "source_file" : "/system/libhidl/transport/include/hidl/HidlTransportSupport.h"
  },
  {
   "alignment" : 8,
   "linker_set_key" : "const std::basic_string<char, std::char_traits<char>, std::allocator<char> > &",
   "name" : "const std::basic_string<char, std::char_traits<char>, std::allocator<char> > &",
   "referenced_type" : "type-589",
   "self_type" : "type-591",
   "size" : 8,
   "source_file" : "/system/libhidl/transport/include/hidl/HidlTransportSupport.h"
  },
  {
   "alignment" : 8,
   "linker_set_key" : "const std::basic_string<char, std::char_traits<char>, std::allocator<char> > &",
   "name" : "const std::basic_string<char, std::char_traits<char>, std::allocator<char> > &",
   "referenced_type" : "type-772",
   "self_type" : "type-774",
   "size" : 8,
   "source_file" : "/system/libhidl/transport/include/hidl/HidlTransportSupport.h"
  },
  {
   "alignment" : 8,
   "linker_set_key" : "const std::vector<std::function<void (InstrumentationEvent, const char *, const char *, const char *, const char *, vector<void *, allocator<void *> > *)>, std::allocator<std::function<void (InstrumentationEvent, const char *, const char *, const char *, const char *, vector<void *, allocator<void *> > *)> > > &",
   "name" : "const std::vector<std::function<void (InstrumentationEvent, const char *, const char *, const char *, const char *, vector<void *, allocator<void *> > *)>, std::allocator<std::function<void (InstrumentationEvent, const char *, const char *, const char *, const char *, vector<void *, allocator<void *> > *)> > > &",
   "referenced_type" : "type-1055",
   "self_type" : "type-1054",
   "size" : 8,
   "source_file" : "/system/libhidl/base/include/hidl/HidlInternal.h"
  },
  {
   "alignment" : 8,
   "linker_set_key" : "const std::vector<std::function<void (InstrumentationEvent, const char *, const char *, const char *, const char *, vector<void *, allocator<void *> > *)>, std::allocator<std::function<void (InstrumentationEvent, const char *, const char *, const char *, const char *, vector<void *, allocator<void *> > *)> > > &",
   "name" : "const std::vector<std::function<void (InstrumentationEvent, const char *, const char *, const char *, const char *, vector<void *, allocator<void *> > *)>, std::allocator<std::function<void (InstrumentationEvent, const char *, const char *, const char *, const char *, vector<void *, allocator<void *> > *)> > > &",
   "referenced_type" : "type-458",
   "self_type" : "type-457",
   "size" : 8,
   "source_file" : "/system/libhidl/base/include/hidl/HidlInternal.h"
  },
  {
   "alignment" : 8,
   "linker_set_key" : "const std::vector<std::function<void (InstrumentationEvent, const char *, const char *, const char *, const char *, vector<void *, allocator<void *> > *)>, std::allocator<std::function<void (InstrumentationEvent, const char *, const char *, const char *, const char *, vector<void *, allocator<void *> > *)> > > &",
   "name" : "const std::vector<std::function<void (InstrumentationEvent, const char *, const char *, const char *, const char *, vector<void *, allocator<void *> > *)>, std::allocator<std::function<void (InstrumentationEvent, const char *, const char *, const char *, const char *, vector<void *, allocator<void *> > *)> > > &",
   "referenced_type" : "type-672",
   "self_type" : "type-671",
   "size" : 8,
   "source_file" : "/system/libhidl/base/include/hidl/HidlInternal.h"
  },
  {
   "alignment" : 8,
   "linker_set_key" : "const std::vector<std::function<void (InstrumentationEvent, const char *, const char *, const char *, const char *, vector<void *, allocator<void *> > *)>, std::allocator<std::function<void (InstrumentationEvent, const char *, const char *, const char *, const char *, vector<void *, allocator<void *> > *)> > > &",
   "name" : "const std::vector<std::function<void (InstrumentationEvent, const char *, const char *, const char *, const char *, vector<void *, allocator<void *> > *)>, std::allocator<std::function<void (InstrumentationEvent, const char *, const char *, const char *, const char *, vector<void *, allocator<void *> > *)> > > &",
   "referenced_type" : "type-907",
   "self_type" : "type-906",
   "size" : 8,
   "source_file" : "/system/libhidl/base/include/hidl/HidlInternal.h"
  },
  {
   "alignment" : 8,
   "linker_set_key" : "const unsigned char &",
   "name" : "const unsigned char &",
   "referenced_type" : "type-1454",
   "self_type" : "type-1453",
   "size" : 8,
   "source_file" : "/system/libhidl/base/include/hidl/HidlInternal.h"
  },
  {
   "alignment" : 8,
   "linker_set_key" : "const unsigned int &",
   "name" : "const unsigned int &",
   "referenced_type" : "type-1129",
   "self_type" : "type-1518",
   "size" : 8,
   "source_file" : "/system/libhidl/base/include/hidl/HidlInternal.h"
  },
  {
   "alignment" : 8,
   "linker_set_key" : "const unsigned long &",
   "name" : "const unsigned long &",
   "referenced_type" : "type-1130",
   "self_type" : "type-1382",
   "size" : 8,
   "source_file" : "/system/core/libutils/include/utils/TypeHelpers.h"
  },
  {
   "alignment" : 8,
   "linker_set_key" : "const unsigned short &",
   "name" : "const unsigned short &",
   "referenced_type" : "type-1378",
   "self_type" : "type-1379",
   "size" : 8,
   "source_file" : "/system/core/libutils/include/utils/TypeHelpers.h"
  },
  {
   "alignment" : 8,
   "linker_set_key" : "int &",
   "name" : "int &",
   "referenced_type" : "type-23",
   "self_type" : "type-1550",
   "size" : 8,
   "source_file" : "/out/soong/.intermediates/system/libhidl/transport/base/1.0/android.hidl.base@1.0_genc++_headers/gen/android/hidl/base/1.0/types.h"
  },
  {
   "alignment" : 8,
   "linker_set_key" : "unsigned char &",
   "name" : "unsigned char &",
   "referenced_type" : "type-5",
   "self_type" : "type-1692",
   "size" : 8,
   "source_file" : "/out/soong/.intermediates/system/libhidl/transport/manager/1.0/android.hidl.manager@1.0_genc++_headers/gen/android/hidl/manager/1.0/IServiceManager.h"
  },
  {
   "alignment" : 8,
   "linker_set_key" : "unsigned int &",
   "name" : "unsigned int &",
   "referenced_type" : "type-2",
   "self_type" : "type-161",
   "size" : 8,
   "source_file" : "/out/soong/.intermediates/hardware/interfaces/wifi/1.0/android.hardware.wifi@1.0_genc++_headers/gen/android/hardware/wifi/1.0/types.h"
  }
 ],
 "pointer_types" :
 [
  {
   "alignment" : 8,
   "linker_set_key" : "android::Condition *",
   "name" : "android::Condition *",
   "referenced_type" : "type-1167",
   "self_type" : "type-1673",
   "size" : 8,
   "source_file" : "/system/core/libutils/include/utils/Condition.h"
  },
  {
   "alignment" : 8,
   "linker_set_key" : "android::Mutex *",
   "name" : "android::Mutex *",
   "referenced_type" : "type-1125",
   "self_type" : "type-1667",
   "size" : 8,
   "source_file" : "/system/core/libutils/include/utils/Mutex.h"
  },
  {
   "alignment" : 8,
   "linker_set_key" : "android::Mutex::Autolock *",
   "name" : "android::Mutex::Autolock *",
   "referenced_type" : "type-1668",
   "self_type" : "type-1670",
   "size" : 8,
   "source_file" : "/system/core/libutils/include/utils/Mutex.h"
  },
  {
   "alignment" : 8,
   "linker_set_key" : "android::RWLock *",
   "name" : "android::RWLock *",
   "referenced_type" : "type-1674",
   "self_type" : "type-1676",
   "size" : 8,
   "source_file" : "/system/core/libutils/include/utils/RWLock.h"
  },
  {
   "alignment" : 8,
   "linker_set_key" : "android::RWLock::AutoRLock *",
   "name" : "android::RWLock::AutoRLock *",
   "referenced_type" : "type-1677",
   "self_type" : "type-1679",
   "size" : 8,
   "source_file" : "/system/core/libutils/include/utils/RWLock.h"
  },
  {
   "alignment" : 8,
   "linker_set_key" : "android::RWLock::AutoWLock *",
   "name" : "android::RWLock::AutoWLock *",
   "referenced_type" : "type-1680",
   "self_type" : "type-1681",
   "size" : 8,
   "source_file" : "/system/core/libutils/include/utils/RWLock.h"
  },
  {
   "alignment" : 8,
   "linker_set_key" : "android::RefBase *",
   "name" : "android::RefBase *",
   "referenced_type" : "type-116",
   "self_type" : "type-1393",
   "size" : 8,
   "source_file" : "/system/core/libutils/include/utils/RefBase.h"
  },
  {
   "alignment" : 8,
   "linker_set_key" : "android::RefBase::weakref_impl *",
   "name" : "android::RefBase::weakref_impl *",
   "referenced_type" : "type-119",
   "self_type" : "type-118",
   "size" : 8,
   "source_file" : "/system/core/libutils/include/utils/RefBase.h"
  },
  {
   "alignment" : 8,
   "linker_set_key" : "android::RefBase::weakref_impl *",
   "name" : "android::RefBase::weakref_impl *",
   "referenced_type" : "type-557",
   "self_type" : "type-556",
   "size" : 8,
   "source_file" : "/system/core/libutils/include/utils/RefBase.h"
  },
  {
   "alignment" : 8,
   "linker_set_key" : "android::RefBase::weakref_impl *",
   "name" : "android::RefBase::weakref_impl *",
   "referenced_type" : "type-725",
   "self_type" : "type-724",
   "size" : 8,
   "source_file" : "/system/core/libutils/include/utils/RefBase.h"
  },
  {
   "alignment" : 8,
   "linker_set_key" : "android::RefBase::weakref_impl *",
   "name" : "android::RefBase::weakref_impl *",
   "referenced_type" : "type-917",
   "self_type" : "type-916",
   "size" : 8,
   "source_file" : "/system/core/libutils/include/utils/RefBase.h"
  },
  {
   "alignment" : 8,
   "linker_set_key" : "android::RefBase::weakref_type *",
   "name" : "android::RefBase::weakref_type *",
   "referenced_type" : "type-186",
   "self_type" : "type-185",
   "size" : 8,
   "source_file" : "/system/core/libutils/include/utils/RefBase.h"
  },
  {
   "alignment" : 8,
   "linker_set_key" : "android::ReferenceRenamer *",
   "name" : "android::ReferenceRenamer *",
   "referenced_type" : "type-1387",
   "self_type" : "type-1388",
   "size" : 8,
   "source_file" : "/system/core/libutils/include/utils/RefBase.h"
  },
  {
   "alignment" : 8,
   "linker_set_key" : "android::ScopedTrace *",
   "name" : "android::ScopedTrace *",
   "referenced_type" : "type-1683",
   "self_type" : "type-1684",
   "size" : 8,
   "source_file" : "/system/core/libutils/include/utils/Trace.h"
  },
  {
   "alignment" : 8,
   "linker_set_key" : "android::String16 *",
   "name" : "android::String16 *",
   "referenced_type" : "type-1136",
   "self_type" : "type-1565",
   "size" : 8,
   "source_file" : "/system/core/libutils/include/utils/String16.h"
  },
  {
   "alignment" : 8,
   "linker_set_key" : "android::String8 *",
   "name" : "android::String8 *",
   "referenced_type" : "type-1145",
   "self_type" : "type-1560",
   "size" : 8,
   "source_file" : "/system/core/libutils/include/utils/String8.h"
  },
  {
   "alignment" : 8,
   "linker_set_key" : "android::Thread *",
   "name" : "android::Thread *",
   "referenced_type" : "type-1165",
   "self_type" : "type-1164",
   "size" : 8,
   "source_file" : "/system/core/libutils/include/utils/StrongPointer.h"
  },
  {
   "alignment" : 8,
   "linker_set_key" : "android::VirtualLightRefBase *",
   "name" : "android::VirtualLightRefBase *",
   "referenced_type" : "type-1300",
   "self_type" : "type-1306",
   "size" : 8,
   "source_file" : "/system/core/libutils/include/utils/LightRefBase.h"
  },
  {
   "alignment" : 8,
   "linker_set_key" : "android::hardware::BHwBinder *",
   "name" : "android::hardware::BHwBinder *",
   "referenced_type" : "type-308",
   "self_type" : "type-1090",
   "size" : 8,
   "source_file" : "/system/core/libutils/include/utils/RefBase.h"
  },
  {
   "alignment" : 8,
   "linker_set_key" : "android::hardware::BpInterface<android::hardware::wifi::V1_3::IWifi> *",
   "name" : "android::hardware::BpInterface<android::hardware::wifi::V1_3::IWifi> *",
   "referenced_type" : "type-941",
   "self_type" : "type-1569",
   "size" : 8,
   "source_file" : "/system/libhwbinder/include/hwbinder/IInterface.h"
  },
  {
   "alignment" : 8,
   "linker_set_key" : "android::hardware::BpInterface<android::hardware::wifi::V1_3::IWifiChip> *",
   "name" : "android::hardware::BpInterface<android::hardware::wifi::V1_3::IWifiChip> *",
   "referenced_type" : "type-424",
   "self_type" : "type-586",
   "size" : 8,
   "source_file" : "/system/libhwbinder/include/hwbinder/IInterface.h"
  },
  {
   "alignment" : 8,
   "linker_set_key" : "android::hardware::BpInterface<android::hardware::wifi::V1_3::IWifiStaIface> *",
   "name" : "android::hardware::BpInterface<android::hardware::wifi::V1_3::IWifiStaIface> *",
   "referenced_type" : "type-692",
   "self_type" : "type-764",
   "size" : 8,
   "source_file" : "/system/libhwbinder/include/hwbinder/IInterface.h"
  },
  {
   "alignment" : 8,
   "linker_set_key" : "android::hardware::ConcurrentMap<const android::hidl::base::V1_0::IBase *, android::wp<android::hardware::BHwBinder> > *",
   "name" : "android::hardware::ConcurrentMap<const android::hidl::base::V1_0::IBase *, android::wp<android::hardware::BHwBinder> > *",
   "referenced_type" : "type-1605",
   "self_type" : "type-1609",
   "size" : 8,
   "source_file" : "/system/libhidl/transport/include/hidl/ConcurrentMap.h"
  },
  {
   "alignment" : 8,
   "linker_set_key" : "android::hardware::ConcurrentMap<std::basic_string<char, std::char_traits<char>, std::allocator<char> >, std::function<sp<IBase> (void *)> > *",
   "name" : "android::hardware::ConcurrentMap<std::basic_string<char, std::char_traits<char>, std::allocator<char> >, std::function<sp<IBase> (void *)> > *",
   "referenced_type" : "type-1624",
   "self_type" : "type-1629",
   "size" : 8,
   "source_file" : "/system/libhidl/transport/include/hidl/ConcurrentMap.h"
  },
  {
   "alignment" : 8,
   "linker_set_key" : "android::hardware::ConcurrentMap<std::basic_string<char, std::char_traits<char>, std::allocator<char> >, std::function<sp<IBinder> (void *)> > *",
   "name" : "android::hardware::ConcurrentMap<std::basic_string<char, std::char_traits<char>, std::allocator<char> >, std::function<sp<IBinder> (void *)> > *",
   "referenced_type" : "type-1613",
   "self_type" : "type-1618",
   "size" : 8,
   "source_file" : "/system/libhidl/transport/include/hidl/ConcurrentMap.h"
  },
  {
   "alignment" : 8,
   "linker_set_key" : "android::hardware::GrantorDescriptor *",
   "name" : "android::hardware::GrantorDescriptor *",
   "referenced_type" : "type-1289",
   "self_type" : "type-1288",
   "size" : 8,
   "source_file" : "/system/libhidl/base/include/hidl/HidlInternal.h"
  },
  {
   "alignment" : 8,
   "linker_set_key" : "android::hardware::IBinder *",
   "name" : "android::hardware::IBinder *",
   "referenced_type" : "type-184",
   "self_type" : "type-183",
   "size" : 8,
   "source_file" : "/system/core/libutils/include/utils/StrongPointer.h"
  },
  {
   "alignment" : 8,
   "linker_set_key" : "android::hardware::IBinder::DeathRecipient *",
   "name" : "android::hardware::IBinder::DeathRecipient *",
   "referenced_type" : "type-1070",
   "self_type" : "type-1069",
   "size" : 8,
   "source_file" : "/system/core/libutils/include/utils/RefBase.h"
  },
  {
   "alignment" : 8,
   "linker_set_key" : "android::hardware::IInterface *",
   "name" : "android::hardware::IInterface *",
   "referenced_type" : "type-180",
   "self_type" : "type-484",
   "size" : 8,
   "source_file" : "/system/core/libutils/include/utils/StrongPointer.h"
  },
  {
   "alignment" : 8,
   "linker_set_key" : "android::hardware::Parcel *",
   "name" : "android::hardware::Parcel *",
   "referenced_type" : "type-1570",
   "self_type" : "type-1575",
   "size" : 8,
   "source_file" : "/system/libhwbinder/include/hwbinder/Parcel.h"
  },
  {
   "alignment" : 8,
   "linker_set_key" : "android::hardware::ProcessState *",
   "name" : "android::hardware::ProcessState *",
   "referenced_type" : "type-1122",
   "self_type" : "type-1121",
   "size" : 8,
   "source_file" : "/system/core/libutils/include/utils/StrongPointer.h"
  },
  {
   "alignment" : 8,
   "linker_set_key" : "android::hardware::Return<android::sp<android::hardware::wifi::V1_3::IWifi> > *",
   "name" : "android::hardware::Return<android::sp<android::hardware::wifi::V1_3::IWifi> > *",
   "referenced_type" : "type-1276",
   "self_type" : "type-1279",
   "size" : 8,
   "source_file" : "/system/libhidl/base/include/hidl/Status.h"
  },
  {
   "alignment" : 8,
   "linker_set_key" : "android::hardware::Return<android::sp<android::hardware::wifi::V1_3::IWifiChip> > *",
   "name" : "android::hardware::Return<android::sp<android::hardware::wifi::V1_3::IWifiChip> > *",
   "referenced_type" : "type-546",
   "self_type" : "type-550",
   "size" : 8,
   "source_file" : "/system/libhidl/base/include/hidl/Status.h"
  },
  {
   "alignment" : 8,
   "linker_set_key" : "android::hardware::Return<android::sp<android::hardware::wifi::V1_3::IWifiStaIface> > *",
   "name" : "android::hardware::Return<android::sp<android::hardware::wifi::V1_3::IWifiStaIface> > *",
   "referenced_type" : "type-717",
   "self_type" : "type-718",
   "size" : 8,
   "source_file" : "/system/libhidl/base/include/hidl/Status.h"
  },
  {
   "alignment" : 8,
   "linker_set_key" : "android::hardware::Return<bool> *",
   "name" : "android::hardware::Return<bool> *",
   "referenced_type" : "type-1270",
   "self_type" : "type-1271",
   "size" : 8,
   "source_file" : "/system/libhidl/base/include/hidl/Status.h"
  },
  {
   "alignment" : 8,
   "linker_set_key" : "android::hardware::Return<void> *",
   "name" : "android::hardware::Return<void> *",
   "referenced_type" : "type-1294",
   "self_type" : "type-1295",
   "size" : 8,
   "source_file" : "/system/libhidl/base/include/hidl/Status.h"
  },
  {
   "alignment" : 8,
   "linker_set_key" : "android::hardware::Status *",
   "name" : "android::hardware::Status *",
   "referenced_type" : "type-548",
   "self_type" : "type-1263",
   "size" : 8,
   "source_file" : "/system/libhidl/base/include/hidl/Status.h"
  },
  {
   "alignment" : 8,
   "linker_set_key" : "android::hardware::details::HidlInstrumentor *",
   "name" : "android::hardware::details::HidlInstrumentor *",
   "referenced_type" : "type-188",
   "self_type" : "type-1057",
   "size" : 8,
   "source_file" : "/system/libhidl/base/include/hidl/HidlInternal.h"
  },
  {
   "alignment" : 8,
   "linker_set_key" : "android::hardware::details::const_accessor<android::hardware::wifi::V1_0::NanBandSpecificConfig, 2> *",
   "name" : "android::hardware::details::const_accessor<android::hardware::wifi::V1_0::NanBandSpecificConfig, 2> *",
   "referenced_type" : "type-1485",
   "self_type" : "type-1488",
   "size" : 8,
   "source_file" : "/system/libhidl/base/include/hidl/HidlSupport.h"
  },
  {
   "alignment" : 8,
   "linker_set_key" : "android::hardware::details::const_accessor<bool, 2> *",
   "name" : "android::hardware::details::const_accessor<bool, 2> *",
   "referenced_type" : "type-1479",
   "self_type" : "type-1481",
   "size" : 8,
   "source_file" : "/system/libhidl/base/include/hidl/HidlSupport.h"
  },
  {
   "alignment" : 8,
   "linker_set_key" : "android::hardware::details::const_accessor<signed char, 2> *",
   "name" : "android::hardware::details::const_accessor<signed char, 2> *",
   "referenced_type" : "type-1496",
   "self_type" : "type-1500",
   "size" : 8,
   "source_file" : "/system/libhidl/base/include/hidl/HidlSupport.h"
  },
  {
   "alignment" : 8,
   "linker_set_key" : "android::hardware::details::const_accessor<unsigned char, 32> *",
   "name" : "android::hardware::details::const_accessor<unsigned char, 32> *",
   "referenced_type" : "type-1492",
   "self_type" : "type-1493",
   "size" : 8,
   "source_file" : "/system/libhidl/base/include/hidl/HidlSupport.h"
  },
  {
   "alignment" : 8,
   "linker_set_key" : "android::hardware::details::const_accessor<unsigned char, 6> *",
   "name" : "android::hardware::details::const_accessor<unsigned char, 6> *",
   "referenced_type" : "type-1468",
   "self_type" : "type-1470",
   "size" : 8,
   "source_file" : "/system/libhidl/base/include/hidl/HidlSupport.h"
  },
  {
   "alignment" : 8,
   "linker_set_key" : "android::hardware::details::const_accessor<unsigned int, 2> *",
   "name" : "android::hardware::details::const_accessor<unsigned int, 2> *",
   "referenced_type" : "type-1474",
   "self_type" : "type-1476",
   "size" : 8,
   "source_file" : "/system/libhidl/base/include/hidl/HidlSupport.h"
  },
  {
   "alignment" : 8,
   "linker_set_key" : "android::hardware::details::hidl_pointer<android::hardware::hidl_array<unsigned char, 32> > *",
   "name" : "android::hardware::details::hidl_pointer<android::hardware::hidl_array<unsigned char, 32> > *",
   "referenced_type" : "type-69",
   "self_type" : "type-909",
   "size" : 8,
   "source_file" : "/system/libhidl/base/include/hidl/HidlInternal.h"
  },
  {
   "alignment" : 8,
   "linker_set_key" : "android::hardware::details::hidl_pointer<android::hardware::hidl_string> *",
   "name" : "android::hardware::details::hidl_pointer<android::hardware::hidl_string> *",
   "referenced_type" : "type-6",
   "self_type" : "type-1045",
   "size" : 8,
   "source_file" : "/system/libhidl/base/include/hidl/HidlInternal.h"
  },
  {
   "alignment" : 8,
   "linker_set_key" : "android::hardware::details::return_status *",
   "name" : "android::hardware::details::return_status *",
   "referenced_type" : "type-547",
   "self_type" : "type-1285",
   "size" : 8,
   "source_file" : "/system/libhidl/base/include/hidl/Status.h"
  },
  {
   "alignment" : 8,
   "linker_set_key" : "android::hardware::hidl_array<android::hardware::wifi::V1_0::NanBandSpecificConfig, 2> *",
   "name" : "android::hardware::hidl_array<android::hardware::wifi::V1_0::NanBandSpecificConfig, 2> *",
   "referenced_type" : "type-92",
   "self_type" : "type-1514",
   "size" : 8,
   "source_file" : "/system/libhidl/base/include/hidl/HidlSupport.h"
  },
  {
   "alignment" : 8,
   "linker_set_key" : "android::hardware::hidl_array<bool, 2> *",
   "name" : "android::hardware::hidl_array<bool, 2> *",
   "referenced_type" : "type-89",
   "self_type" : "type-1509",
   "size" : 8,
   "source_file" : "/system/libhidl/base/include/hidl/HidlSupport.h"
  },
  {
   "alignment" : 8,
   "linker_set_key" : "android::hardware::hidl_array<signed char, 2> *",
   "name" : "android::hardware::hidl_array<signed char, 2> *",
   "referenced_type" : "type-140",
   "self_type" : "type-1519",
   "size" : 8,
   "source_file" : "/system/libhidl/base/include/hidl/HidlSupport.h"
  },
  {
   "alignment" : 8,
   "linker_set_key" : "android::hardware::hidl_array<unsigned char, 32> *",
   "name" : "android::hardware::hidl_array<unsigned char, 32> *",
   "referenced_type" : "type-72",
   "self_type" : "type-71",
   "size" : 8,
   "source_file" : "/system/libhidl/base/include/hidl/HidlInternal.h"
  },
  {
   "alignment" : 8,
   "linker_set_key" : "android::hardware::hidl_array<unsigned char, 3> *",
   "name" : "android::hardware::hidl_array<unsigned char, 3> *",
   "referenced_type" : "type-755",
   "self_type" : "type-757",
   "size" : 8,
   "source_file" : "/system/libhidl/base/include/hidl/HidlSupport.h"
  },
  {
   "alignment" : 8,
   "linker_set_key" : "android::hardware::hidl_array<unsigned char, 6> *",
   "name" : "android::hardware::hidl_array<unsigned char, 6> *",
   "referenced_type" : "type-3",
   "self_type" : "type-67",
   "size" : 8,
   "source_file" : "/system/libhidl/base/include/hidl/HidlInternal.h"
  },
  {
   "alignment" : 8,
   "linker_set_key" : "android::hardware::hidl_array<unsigned int, 2> *",
   "name" : "android::hardware::hidl_array<unsigned int, 2> *",
   "referenced_type" : "type-87",
   "self_type" : "type-1505",
   "size" : 8,
   "source_file" : "/system/libhidl/base/include/hidl/HidlSupport.h"
  },
  {
   "alignment" : 8,
   "linker_set_key" : "android::hardware::hidl_binder_death_recipient *",
   "name" : "android::hardware::hidl_binder_death_recipient *",
   "referenced_type" : "type-1076",
   "self_type" : "type-1075",
   "size" : 8,
   "source_file" : "/system/core/libutils/include/utils/StrongPointer.h"
  },
  {
   "alignment" : 8,
   "linker_set_key" : "android::hardware::hidl_death_recipient *",
   "name" : "android::hardware::hidl_death_recipient *",
   "referenced_type" : "type-1079",
   "self_type" : "type-1078",
   "size" : 8,
   "source_file" : "/system/core/libutils/include/utils/RefBase.h"
  },
  {
   "alignment" : 8,
   "linker_set_key" : "android::hardware::hidl_memory *",
   "name" : "android::hardware::hidl_memory *",
   "referenced_type" : "type-1398",
   "self_type" : "type-1399",
   "size" : 8,
   "source_file" : "/system/libhidl/base/include/hidl/HidlSupport.h"
  },
  {
   "alignment" : 8,
   "linker_set_key" : "android::hardware::hidl_string *",
   "name" : "android::hardware::hidl_string *",
   "referenced_type" : "type-9",
   "self_type" : "type-8",
   "size" : 8,
   "source_file" : "/system/libhidl/base/include/hidl/HidlInternal.h"
  },
  {
   "alignment" : 8,
   "linker_set_key" : "android::hardware::hidl_vec<android::hardware::hidl_array<unsigned char, 32> > *",
   "name" : "android::hardware::hidl_vec<android::hardware::hidl_array<unsigned char, 32> > *",
   "referenced_type" : "type-68",
   "self_type" : "type-1416",
   "size" : 8,
   "source_file" : "/system/libhidl/base/include/hidl/HidlSupport.h"
  },
  {
   "alignment" : 8,
   "linker_set_key" : "android::hardware::hidl_vec<android::hardware::hidl_string> *",
   "name" : "android::hardware::hidl_vec<android::hardware::hidl_string> *",
   "referenced_type" : "type-99",
   "self_type" : "type-1412",
   "size" : 8,
   "source_file" : "/system/libhidl/base/include/hidl/HidlSupport.h"
  },
  {
   "alignment" : 8,
   "linker_set_key" : "android::hardware::hidl_version *",
   "name" : "android::hardware::hidl_version *",
   "referenced_type" : "type-1524",
   "self_type" : "type-1525",
   "size" : 8,
   "source_file" : "/system/libhidl/base/include/hidl/HidlSupport.h"
  },
  {
   "alignment" : 8,
   "linker_set_key" : "android::hardware::wifi::V1_0::BnHwWifi *",
   "name" : "android::hardware::wifi::V1_0::BnHwWifi *",
   "referenced_type" : "type-868",
   "self_type" : "type-884",
   "size" : 8,
   "source_file" : "/out/soong/.intermediates/hardware/interfaces/wifi/1.0/android.hardware.wifi@1.0_genc++_headers/gen/android/hardware/wifi/1.0/BnHwWifi.h"
  },
  {
   "alignment" : 8,
   "linker_set_key" : "android::hardware::wifi::V1_0::BnHwWifiApIface *",
   "name" : "android::hardware::wifi::V1_0::BnHwWifiApIface *",
   "referenced_type" : "type-427",
   "self_type" : "type-460",
   "size" : 8,
   "source_file" : "/out/soong/.intermediates/hardware/interfaces/wifi/1.0/android.hardware.wifi@1.0_genc++_headers/gen/android/hardware/wifi/1.0/BnHwWifiApIface.h"
  },
  {
   "alignment" : 8,
   "linker_set_key" : "android::hardware::wifi::V1_0::BnHwWifiChip *",
   "name" : "android::hardware::wifi::V1_0::BnHwWifiChip *",
   "referenced_type" : "type-758",
   "self_type" : "type-765",
   "size" : 8,
   "source_file" : "/out/soong/.intermediates/hardware/interfaces/wifi/1.0/android.hardware.wifi@1.0_genc++_headers/gen/android/hardware/wifi/1.0/BnHwWifiChip.h"
  },
  {
   "alignment" : 8,
   "linker_set_key" : "android::hardware::wifi::V1_0::BnHwWifiChipEventCallback *",
   "name" : "android::hardware::wifi::V1_0::BnHwWifiChipEventCallback *",
   "referenced_type" : "type-486",
   "self_type" : "type-502",
   "size" : 8,
   "source_file" : "/out/soong/.intermediates/hardware/interfaces/wifi/1.0/android.hardware.wifi@1.0_genc++_headers/gen/android/hardware/wifi/1.0/BnHwWifiChipEventCallback.h"
  },
  {
   "alignment" : 8,
   "linker_set_key" : "android::hardware::wifi::V1_0::BnHwWifiEventCallback *",
   "name" : "android::hardware::wifi::V1_0::BnHwWifiEventCallback *",
   "referenced_type" : "type-788",
   "self_type" : "type-798",
   "size" : 8,
   "source_file" : "/out/soong/.intermediates/hardware/interfaces/wifi/1.0/android.hardware.wifi@1.0_genc++_headers/gen/android/hardware/wifi/1.0/BnHwWifiEventCallback.h"
  },
  {
   "alignment" : 8,
   "linker_set_key" : "android::hardware::wifi::V1_0::BnHwWifiIface *",
   "name" : "android::hardware::wifi::V1_0::BnHwWifiIface *",
   "referenced_type" : "type-301",
   "self_type" : "type-380",
   "size" : 8,
   "source_file" : "/out/soong/.intermediates/hardware/interfaces/wifi/1.0/android.hardware.wifi@1.0_genc++_headers/gen/android/hardware/wifi/1.0/BnHwWifiIface.h"
  },
  {
   "alignment" : 8,
   "linker_set_key" : "android::hardware::wifi::V1_0::BnHwWifiNanIface *",
   "name" : "android::hardware::wifi::V1_0::BnHwWifiNanIface *",
   "referenced_type" : "type-578",
   "self_type" : "type-579",
   "size" : 8,
   "source_file" : "/out/soong/.intermediates/hardware/interfaces/wifi/1.0/android.hardware.wifi@1.0_genc++_headers/gen/android/hardware/wifi/1.0/BnHwWifiNanIface.h"
  },
  {
   "alignment" : 8,
   "linker_set_key" : "android::hardware::wifi::V1_0::BnHwWifiNanIfaceEventCallback *",
   "name" : "android::hardware::wifi::V1_0::BnHwWifiNanIfaceEventCallback *",
   "referenced_type" : "type-542",
   "self_type" : "type-555",
   "size" : 8,
   "source_file" : "/out/soong/.intermediates/hardware/interfaces/wifi/1.0/android.hardware.wifi@1.0_genc++_headers/gen/android/hardware/wifi/1.0/BnHwWifiNanIfaceEventCallback.h"
  },
  {
   "alignment" : 8,
   "linker_set_key" : "android::hardware::wifi::V1_0::BnHwWifiP2pIface *",
   "name" : "android::hardware::wifi::V1_0::BnHwWifiP2pIface *",
   "referenced_type" : "type-600",
   "self_type" : "type-605",
   "size" : 8,
   "source_file" : "/out/soong/.intermediates/hardware/interfaces/wifi/1.0/android.hardware.wifi@1.0_genc++_headers/gen/android/hardware/wifi/1.0/BnHwWifiP2pIface.h"
  },
  {
   "alignment" : 8,
   "linker_set_key" : "android::hardware::wifi::V1_0::BnHwWifiRttController *",
   "name" : "android::hardware::wifi::V1_0::BnHwWifiRttController *",
   "referenced_type" : "type-651",
   "self_type" : "type-674",
   "size" : 8,
   "source_file" : "/out/soong/.intermediates/hardware/interfaces/wifi/1.0/android.hardware.wifi@1.0_genc++_headers/gen/android/hardware/wifi/1.0/BnHwWifiRttController.h"
  },
  {
   "alignment" : 8,
   "linker_set_key" : "android::hardware::wifi::V1_0::BnHwWifiRttControllerEventCallback *",
   "name" : "android::hardware::wifi::V1_0::BnHwWifiRttControllerEventCallback *",
   "referenced_type" : "type-636",
   "self_type" : "type-640",
   "size" : 8,
   "source_file" : "/out/soong/.intermediates/hardware/interfaces/wifi/1.0/android.hardware.wifi@1.0_genc++_headers/gen/android/hardware/wifi/1.0/BnHwWifiRttControllerEventCallback.h"
  },
  {
   "alignment" : 8,
   "linker_set_key" : "android::hardware::wifi::V1_0::BnHwWifiStaIface *",
   "name" : "android::hardware::wifi::V1_0::BnHwWifiStaIface *",
   "referenced_type" : "type-728",
   "self_type" : "type-736",
   "size" : 8,
   "source_file" : "/out/soong/.intermediates/hardware/interfaces/wifi/1.0/android.hardware.wifi@1.0_genc++_headers/gen/android/hardware/wifi/1.0/BnHwWifiStaIface.h"
  },
  {
   "alignment" : 8,
   "linker_set_key" : "android::hardware::wifi::V1_0::BnHwWifiStaIfaceEventCallback *",
   "name" : "android::hardware::wifi::V1_0::BnHwWifiStaIfaceEventCallback *",
   "referenced_type" : "type-696",
   "self_type" : "type-707",
   "size" : 8,
   "source_file" : "/out/soong/.intermediates/hardware/interfaces/wifi/1.0/android.hardware.wifi@1.0_genc++_headers/gen/android/hardware/wifi/1.0/BnHwWifiStaIfaceEventCallback.h"
  },
  {
   "alignment" : 8,
   "linker_set_key" : "android::hardware::wifi::V1_0::IWifi *",
   "name" : "android::hardware::wifi::V1_0::IWifi *",
   "referenced_type" : "type-871",
   "self_type" : "type-870",
   "size" : 8,
   "source_file" : "/system/core/libutils/include/utils/StrongPointer.h"
  },
  {
   "alignment" : 8,
   "linker_set_key" : "android::hardware::wifi::V1_0::IWifiApIface *",
   "name" : "android::hardware::wifi::V1_0::IWifiApIface *",
   "referenced_type" : "type-430",
   "self_type" : "type-429",
   "size" : 8,
   "source_file" : "/system/core/libutils/include/utils/StrongPointer.h"
  },
  {
   "alignment" : 8,
   "linker_set_key" : "android::hardware::wifi::V1_0::IWifiChip *",
   "name" : "android::hardware::wifi::V1_0::IWifiChip *",
   "referenced_type" : "type-344",
   "self_type" : "type-760",
   "size" : 8,
   "source_file" : "/system/core/libutils/include/utils/StrongPointer.h"
  },
  {
   "alignment" : 8,
   "linker_set_key" : "android::hardware::wifi::V1_0::IWifiChip::ChipIfaceCombination *",
   "name" : "android::hardware::wifi::V1_0::IWifiChip::ChipIfaceCombination *",
   "referenced_type" : "type-443",
   "self_type" : "type-442",
   "size" : 8,
   "source_file" : "/system/libhidl/base/include/hidl/HidlInternal.h"
  },
  {
   "alignment" : 8,
   "linker_set_key" : "android::hardware::wifi::V1_0::IWifiChip::ChipIfaceCombinationLimit *",
   "name" : "android::hardware::wifi::V1_0::IWifiChip::ChipIfaceCombinationLimit *",
   "referenced_type" : "type-448",
   "self_type" : "type-447",
   "size" : 8,
   "source_file" : "/system/libhidl/base/include/hidl/HidlInternal.h"
  },
  {
   "alignment" : 8,
   "linker_set_key" : "android::hardware::wifi::V1_0::IWifiChip::ChipMode *",
   "name" : "android::hardware::wifi::V1_0::IWifiChip::ChipMode *",
   "referenced_type" : "type-438",
   "self_type" : "type-437",
   "size" : 8,
   "source_file" : "/system/libhidl/base/include/hidl/HidlInternal.h"
  },
  {
   "alignment" : 8,
   "linker_set_key" : "android::hardware::wifi::V1_0::IWifiChipEventCallback *",
   "name" : "android::hardware::wifi::V1_0::IWifiChipEventCallback *",
   "referenced_type" : "type-401",
   "self_type" : "type-488",
   "size" : 8,
   "source_file" : "/system/core/libutils/include/utils/StrongPointer.h"
  },
  {
   "alignment" : 8,
   "linker_set_key" : "android::hardware::wifi::V1_0::IWifiEventCallback *",
   "name" : "android::hardware::wifi::V1_0::IWifiEventCallback *",
   "referenced_type" : "type-791",
   "self_type" : "type-790",
   "size" : 8,
   "source_file" : "/system/core/libutils/include/utils/StrongPointer.h"
  },
  {
   "alignment" : 8,
   "linker_set_key" : "android::hardware::wifi::V1_0::IWifiIface *",
   "name" : "android::hardware::wifi::V1_0::IWifiIface *",
   "referenced_type" : "type-304",
   "self_type" : "type-303",
   "size" : 8,
   "source_file" : "/system/core/libutils/include/utils/StrongPointer.h"
  },
  {
   "alignment" : 8,
   "linker_set_key" : "android::hardware::wifi::V1_0::IWifiNanIface *",
   "name" : "android::hardware::wifi::V1_0::IWifiNanIface *",
   "referenced_type" : "type-498",
   "self_type" : "type-497",
   "size" : 8,
   "source_file" : "/system/core/libutils/include/utils/StrongPointer.h"
  },
  {
   "alignment" : 8,
   "linker_set_key" : "android::hardware::wifi::V1_0::IWifiNanIfaceEventCallback *",
   "name" : "android::hardware::wifi::V1_0::IWifiNanIfaceEventCallback *",
   "referenced_type" : "type-545",
   "self_type" : "type-544",
   "size" : 8,
   "source_file" : "/system/core/libutils/include/utils/StrongPointer.h"
  },
  {
   "alignment" : 8,
   "linker_set_key" : "android::hardware::wifi::V1_0::IWifiP2pIface *",
   "name" : "android::hardware::wifi::V1_0::IWifiP2pIface *",
   "referenced_type" : "type-506",
   "self_type" : "type-505",
   "size" : 8,
   "source_file" : "/system/core/libutils/include/utils/StrongPointer.h"
  },
  {
   "alignment" : 8,
   "linker_set_key" : "android::hardware::wifi::V1_0::IWifiRttController *",
   "name" : "android::hardware::wifi::V1_0::IWifiRttController *",
   "referenced_type" : "type-515",
   "self_type" : "type-514",
   "size" : 8,
   "source_file" : "/system/core/libutils/include/utils/StrongPointer.h"
  },
  {
   "alignment" : 8,
   "linker_set_key" : "android::hardware::wifi::V1_0::IWifiRttControllerEventCallback *",
   "name" : "android::hardware::wifi::V1_0::IWifiRttControllerEventCallback *",
   "referenced_type" : "type-639",
   "self_type" : "type-638",
   "size" : 8,
   "source_file" : "/system/core/libutils/include/utils/StrongPointer.h"
  },
  {
   "alignment" : 8,
   "linker_set_key" : "android::hardware::wifi::V1_0::IWifiStaIface *",
   "name" : "android::hardware::wifi::V1_0::IWifiStaIface *",
   "referenced_type" : "type-520",
   "self_type" : "type-519",
   "size" : 8,
   "source_file" : "/system/core/libutils/include/utils/StrongPointer.h"
  },
  {
   "alignment" : 8,
   "linker_set_key" : "android::hardware::wifi::V1_0::IWifiStaIfaceEventCallback *",
   "name" : "android::hardware::wifi::V1_0::IWifiStaIfaceEventCallback *",
   "referenced_type" : "type-699",
   "self_type" : "type-698",
   "size" : 8,
   "source_file" : "/system/core/libutils/include/utils/StrongPointer.h"
  },
  {
   "alignment" : 8,
   "linker_set_key" : "android::hardware::wifi::V1_0::IfaceType *",
   "name" : "android::hardware::wifi::V1_0::IfaceType *",
   "referenced_type" : "type-453",
   "self_type" : "type-452",
   "size" : 8,
   "source_file" : "/system/libhidl/base/include/hidl/HidlInternal.h"
  },
  {
   "alignment" : 8,
   "linker_set_key" : "android::hardware::wifi::V1_0::StaBackgroundScanBucketParameters *",
   "name" : "android::hardware::wifi::V1_0::StaBackgroundScanBucketParameters *",
   "referenced_type" : "type-31",
   "self_type" : "type-30",
   "size" : 8,
   "source_file" : "/system/libhidl/base/include/hidl/HidlInternal.h"
  },
  {
   "alignment" : 8,
   "linker_set_key" : "android::hardware::wifi::V1_0::StaLinkLayerRadioStats *",
   "name" : "android::hardware::wifi::V1_0::StaLinkLayerRadioStats *",
   "referenced_type" : "type-44",
   "self_type" : "type-43",
   "size" : 8,
   "source_file" : "/system/libhidl/base/include/hidl/HidlInternal.h"
  },
  {
   "alignment" : 8,
   "linker_set_key" : "android::hardware::wifi::V1_0::StaScanResult *",
   "name" : "android::hardware::wifi::V1_0::StaScanResult *",
   "referenced_type" : "type-51",
   "self_type" : "type-50",
   "size" : 8,
   "source_file" : "/system/libhidl/base/include/hidl/HidlInternal.h"
  },
  {
   "alignment" : 8,
   "linker_set_key" : "android::hardware::wifi::V1_0::WifiDebugRingBufferStatus *",
   "name" : "android::hardware::wifi::V1_0::WifiDebugRingBufferStatus *",
   "referenced_type" : "type-146",
   "self_type" : "type-456",
   "size" : 8,
   "source_file" : "/system/libhidl/base/include/hidl/HidlInternal.h"
  },
  {
   "alignment" : 8,
   "linker_set_key" : "android::hardware::wifi::V1_0::WifiDebugRxPacketFateReport *",
   "name" : "android::hardware::wifi::V1_0::WifiDebugRxPacketFateReport *",
   "referenced_type" : "type-153",
   "self_type" : "type-670",
   "size" : 8,
   "source_file" : "/system/libhidl/base/include/hidl/HidlInternal.h"
  },
  {
   "alignment" : 8,
   "linker_set_key" : "android::hardware::wifi::V1_0::WifiDebugTxPacketFateReport *",
   "name" : "android::hardware::wifi::V1_0::WifiDebugTxPacketFateReport *",
   "referenced_type" : "type-152",
   "self_type" : "type-667",
   "size" : 8,
   "source_file" : "/system/libhidl/base/include/hidl/HidlInternal.h"
  },
  {
   "alignment" : 8,
   "linker_set_key" : "android::hardware::wifi::V1_0::WifiInformationElement *",
   "name" : "android::hardware::wifi::V1_0::WifiInformationElement *",
   "referenced_type" : "type-61",
   "self_type" : "type-60",
   "size" : 8,
   "source_file" : "/system/libhidl/base/include/hidl/HidlInternal.h"
  },
  {
   "alignment" : 8,
   "linker_set_key" : "android::hardware::wifi::V1_1::BnHwWifi *",
   "name" : "android::hardware::wifi::V1_1::BnHwWifi *",
   "referenced_type" : "type-901",
   "self_type" : "type-905",
   "size" : 8,
   "source_file" : "/out/soong/.intermediates/hardware/interfaces/wifi/1.1/android.hardware.wifi@1.1_genc++_headers/gen/android/hardware/wifi/1.1/BnHwWifi.h"
  },
  {
   "alignment" : 8,
   "linker_set_key" : "android::hardware::wifi::V1_1::BnHwWifiChip *",
   "name" : "android::hardware::wifi::V1_1::BnHwWifiChip *",
   "referenced_type" : "type-387",
   "self_type" : "type-390",
   "size" : 8,
   "source_file" : "/out/soong/.intermediates/hardware/interfaces/wifi/1.1/android.hardware.wifi@1.1_genc++_headers/gen/android/hardware/wifi/1.1/BnHwWifiChip.h"
  },
  {
   "alignment" : 8,
   "linker_set_key" : "android::hardware::wifi::V1_1::IWifi *",
   "name" : "android::hardware::wifi::V1_1::IWifi *",
   "referenced_type" : "type-904",
   "self_type" : "type-903",
   "size" : 8,
   "source_file" : "/system/core/libutils/include/utils/StrongPointer.h"
  },
  {
   "alignment" : 8,
   "linker_set_key" : "android::hardware::wifi::V1_1::IWifiChip *",
   "name" : "android::hardware::wifi::V1_1::IWifiChip *",
   "referenced_type" : "type-343",
   "self_type" : "type-389",
   "size" : 8,
   "source_file" : "/system/core/libutils/include/utils/StrongPointer.h"
  },
  {
   "alignment" : 8,
   "linker_set_key" : "android::hardware::wifi::V1_2::BnHwWifi *",
   "name" : "android::hardware::wifi::V1_2::BnHwWifi *",
   "referenced_type" : "type-922",
   "self_type" : "type-928",
   "size" : 8,
   "source_file" : "/out/soong/.intermediates/hardware/interfaces/wifi/1.2/android.hardware.wifi@1.2_genc++_headers/gen/android/hardware/wifi/1.2/BnHwWifi.h"
  },
  {
   "alignment" : 8,
   "linker_set_key" : "android::hardware::wifi::V1_2::BnHwWifiChip *",
   "name" : "android::hardware::wifi::V1_2::BnHwWifiChip *",
   "referenced_type" : "type-409",
   "self_type" : "type-412",
   "size" : 8,
   "source_file" : "/out/soong/.intermediates/hardware/interfaces/wifi/1.2/android.hardware.wifi@1.2_genc++_headers/gen/android/hardware/wifi/1.2/BnHwWifiChip.h"
  },
  {
   "alignment" : 8,
   "linker_set_key" : "android::hardware::wifi::V1_2::BnHwWifiChipEventCallback *",
   "name" : "android::hardware::wifi::V1_2::BnHwWifiChipEventCallback *",
   "referenced_type" : "type-397",
   "self_type" : "type-402",
   "size" : 8,
   "source_file" : "/out/soong/.intermediates/hardware/interfaces/wifi/1.2/android.hardware.wifi@1.2_genc++_headers/gen/android/hardware/wifi/1.2/BnHwWifiChipEventCallback.h"
  },
  {
   "alignment" : 8,
   "linker_set_key" : "android::hardware::wifi::V1_2::BnHwWifiStaIface *",
   "name" : "android::hardware::wifi::V1_2::BnHwWifiStaIface *",
   "referenced_type" : "type-879",
   "self_type" : "type-880",
   "size" : 8,
   "source_file" : "/out/soong/.intermediates/hardware/interfaces/wifi/1.2/android.hardware.wifi@1.2_genc++_headers/gen/android/hardware/wifi/1.2/BnHwWifiStaIface.h"
  },
  {
   "alignment" : 8,
   "linker_set_key" : "android::hardware::wifi::V1_2::IWifi *",
   "name" : "android::hardware::wifi::V1_2::IWifi *",
   "referenced_type" : "type-925",
   "self_type" : "type-924",
   "size" : 8,
   "source_file" : "/system/core/libutils/include/utils/StrongPointer.h"
  },
  {
   "alignment" : 8,
   "linker_set_key" : "android::hardware::wifi::V1_2::IWifiChip *",
   "name" : "android::hardware::wifi::V1_2::IWifiChip *",
   "referenced_type" : "type-361",
   "self_type" : "type-411",
   "size" : 8,
   "source_file" : "/system/core/libutils/include/utils/StrongPointer.h"
  },
  {
   "alignment" : 8,
   "linker_set_key" : "android::hardware::wifi::V1_2::IWifiChipEventCallback *",
   "name" : "android::hardware::wifi::V1_2::IWifiChipEventCallback *",
   "referenced_type" : "type-400",
   "self_type" : "type-399",
   "size" : 8,
   "source_file" : "/system/core/libutils/include/utils/StrongPointer.h"
  },
  {
   "alignment" : 8,
   "linker_set_key" : "android::hardware::wifi::V1_2::IWifiChipEventCallback::IfaceInfo *",
   "name" : "android::hardware::wifi::V1_2::IWifiChipEventCallback::IfaceInfo *",
   "referenced_type" : "type-357",
   "self_type" : "type-356",
   "size" : 8,
   "source_file" : "/system/libhidl/base/include/hidl/HidlInternal.h"
  },
  {
   "alignment" : 8,
   "linker_set_key" : "android::hardware::wifi::V1_2::IWifiStaIface *",
   "name" : "android::hardware::wifi::V1_2::IWifiStaIface *",
   "referenced_type" : "type-679",
   "self_type" : "type-703",
   "size" : 8,
   "source_file" : "/system/core/libutils/include/utils/StrongPointer.h"
  },
  {
   "alignment" : 8,
   "linker_set_key" : "android::hardware::wifi::V1_3::BnHwWifi *",
   "name" : "android::hardware::wifi::V1_3::BnHwWifi *",
   "referenced_type" : "type-1093",
   "self_type" : "type-1094",
   "size" : 8,
   "source_file" : "/system/core/libutils/include/utils/RefBase.h"
  },
  {
   "alignment" : 8,
   "linker_set_key" : "android::hardware::wifi::V1_3::BnHwWifiChip *",
   "name" : "android::hardware::wifi::V1_3::BnHwWifiChip *",
   "referenced_type" : "type-470",
   "self_type" : "type-471",
   "size" : 8,
   "source_file" : "/system/core/libutils/include/utils/RefBase.h"
  },
  {
   "alignment" : 8,
   "linker_set_key" : "android::hardware::wifi::V1_3::BnHwWifiStaIface *",
   "name" : "android::hardware::wifi::V1_3::BnHwWifiStaIface *",
   "referenced_type" : "type-685",
   "self_type" : "type-686",
   "size" : 8,
   "source_file" : "/system/core/libutils/include/utils/RefBase.h"
  },
  {
   "alignment" : 8,
   "linker_set_key" : "android::hardware::wifi::V1_3::BpHwWifi *",
   "name" : "android::hardware::wifi::V1_3::BpHwWifi *",
   "referenced_type" : "type-938",
   "self_type" : "type-1108",
   "size" : 8,
   "source_file" : "/system/core/libutils/include/utils/StrongPointer.h"
  },
  {
   "alignment" : 8,
   "linker_set_key" : "android::hardware::wifi::V1_3::BpHwWifiChip *",
   "name" : "android::hardware::wifi::V1_3::BpHwWifiChip *",
   "referenced_type" : "type-421",
   "self_type" : "type-476",
   "size" : 8,
   "source_file" : "/system/core/libutils/include/utils/StrongPointer.h"
  },
  {
   "alignment" : 8,
   "linker_set_key" : "android::hardware::wifi::V1_3::BpHwWifiStaIface *",
   "name" : "android::hardware::wifi::V1_3::BpHwWifiStaIface *",
   "referenced_type" : "type-689",
   "self_type" : "type-693",
   "size" : 8,
   "source_file" : "/system/core/libutils/include/utils/StrongPointer.h"
  },
  {
   "alignment" : 8,
   "linker_set_key" : "android::hardware::wifi::V1_3::BsWifi *",
   "name" : "android::hardware::wifi::V1_3::BsWifi *",
   "referenced_type" : "type-1106",
   "self_type" : "type-1107",
   "size" : 8,
   "source_file" : "/system/core/libutils/include/utils/StrongPointer.h"
  },
  {
   "alignment" : 8,
   "linker_set_key" : "android::hardware::wifi::V1_3::BsWifiChip *",
   "name" : "android::hardware::wifi::V1_3::BsWifiChip *",
   "referenced_type" : "type-472",
   "self_type" : "type-475",
   "size" : 8,
   "source_file" : "/system/core/libutils/include/utils/StrongPointer.h"
  },
  {
   "alignment" : 8,
   "linker_set_key" : "android::hardware::wifi::V1_3::BsWifiStaIface *",
   "name" : "android::hardware::wifi::V1_3::BsWifiStaIface *",
   "referenced_type" : "type-687",
   "self_type" : "type-688",
   "size" : 8,
   "source_file" : "/system/core/libutils/include/utils/StrongPointer.h"
  },
  {
   "alignment" : 8,
   "linker_set_key" : "android::hardware::wifi::V1_3::IWifi *",
   "name" : "android::hardware::wifi::V1_3::IWifi *",
   "referenced_type" : "type-942",
   "self_type" : "type-1063",
   "size" : 8,
   "source_file" : "/system/core/libutils/include/utils/StrongPointer.h"
  },
  {
   "alignment" : 8,
   "linker_set_key" : "android::hardware::wifi::V1_3::IWifiChip *",
   "name" : "android::hardware::wifi::V1_3::IWifiChip *",
   "referenced_type" : "type-372",
   "self_type" : "type-463",
   "size" : 8,
   "source_file" : "/system/core/libutils/include/utils/StrongPointer.h"
  },
  {
   "alignment" : 8,
   "linker_set_key" : "android::hardware::wifi::V1_3::IWifiStaIface *",
   "name" : "android::hardware::wifi::V1_3::IWifiStaIface *",
   "referenced_type" : "type-678",
   "self_type" : "type-677",
   "size" : 8,
   "source_file" : "/system/core/libutils/include/utils/StrongPointer.h"
  },
  {
   "alignment" : 8,
   "linker_set_key" : "android::hardware::wifi::V1_3::StaLinkLayerRadioStats *",
   "name" : "android::hardware::wifi::V1_3::StaLinkLayerRadioStats *",
   "referenced_type" : "type-659",
   "self_type" : "type-658",
   "size" : 8,
   "source_file" : "/system/libhidl/base/include/hidl/HidlInternal.h"
  },
  {
   "alignment" : 8,
   "linker_set_key" : "android::hardware::wifi::V1_3::WifiChannelStats *",
   "name" : "android::hardware::wifi::V1_3::WifiChannelStats *",
   "referenced_type" : "type-650",
   "self_type" : "type-649",
   "size" : 8,
   "source_file" : "/system/libhidl/base/include/hidl/HidlInternal.h"
  },
  {
   "alignment" : 8,
   "linker_set_key" : "android::hidl::base::V1_0::BnHwBase *",
   "name" : "android::hidl::base::V1_0::BnHwBase *",
   "referenced_type" : "type-305",
   "self_type" : "type-1586",
   "size" : 8,
   "source_file" : "/out/soong/.intermediates/system/libhidl/transport/base/1.0/android.hidl.base@1.0_genc++_headers/gen/android/hidl/base/1.0/BnHwBase.h"
  },
  {
   "alignment" : 8,
   "linker_set_key" : "android::hidl::base::V1_0::IBase *",
   "name" : "android::hidl::base::V1_0::IBase *",
   "referenced_type" : "type-115",
   "self_type" : "type-307",
   "size" : 8,
   "source_file" : "/system/core/libutils/include/utils/RefBase.h"
  },
  {
   "alignment" : 8,
   "linker_set_key" : "android::hidl::manager::V1_0::IServiceManager *",
   "name" : "android::hidl::manager::V1_0::IServiceManager *",
   "referenced_type" : "type-1156",
   "self_type" : "type-1155",
   "size" : 8,
   "source_file" : "/system/core/libutils/include/utils/StrongPointer.h"
  },
  {
   "alignment" : 8,
   "linker_set_key" : "android::hidl::manager::V1_0::IServiceNotification *",
   "name" : "android::hidl::manager::V1_0::IServiceNotification *",
   "referenced_type" : "type-114",
   "self_type" : "type-113",
   "size" : 8,
   "source_file" : "/system/core/libutils/include/utils/StrongPointer.h"
  },
  {
   "alignment" : 8,
   "linker_set_key" : "android::sp<android::hardware::IBinder::DeathRecipient> *",
   "name" : "android::sp<android::hardware::IBinder::DeathRecipient> *",
   "referenced_type" : "type-1117",
   "self_type" : "type-1118",
   "size" : 8,
   "source_file" : "/system/core/libutils/include/utils/StrongPointer.h"
  },
  {
   "alignment" : 8,
   "linker_set_key" : "android::sp<android::hardware::IBinder> *",
   "name" : "android::sp<android::hardware::IBinder> *",
   "referenced_type" : "type-482",
   "self_type" : "type-1119",
   "size" : 8,
   "source_file" : "/system/core/libutils/include/utils/StrongPointer.h"
  },
  {
   "alignment" : 8,
   "linker_set_key" : "android::sp<android::hardware::ProcessState> *",
   "name" : "android::sp<android::hardware::ProcessState> *",
   "referenced_type" : "type-1120",
   "self_type" : "type-1150",
   "size" : 8,
   "source_file" : "/system/core/libutils/include/utils/StrongPointer.h"
  },
  {
   "alignment" : 8,
   "linker_set_key" : "android::sp<android::hardware::hidl_binder_death_recipient> *",
   "name" : "android::sp<android::hardware::hidl_binder_death_recipient> *",
   "referenced_type" : "type-1074",
   "self_type" : "type-1256",
   "size" : 8,
   "source_file" : "/system/core/libutils/include/utils/StrongPointer.h"
  },
  {
   "alignment" : 8,
   "linker_set_key" : "android::sp<android::hardware::wifi::V1_0::IWifi> *",
   "name" : "android::sp<android::hardware::wifi::V1_0::IWifi> *",
   "referenced_type" : "type-869",
   "self_type" : "type-1240",
   "size" : 8,
   "source_file" : "/system/core/libutils/include/utils/StrongPointer.h"
  },
  {
   "alignment" : 8,
   "linker_set_key" : "android::sp<android::hardware::wifi::V1_0::IWifiApIface> *",
   "name" : "android::sp<android::hardware::wifi::V1_0::IWifiApIface> *",
   "referenced_type" : "type-428",
   "self_type" : "type-1178",
   "size" : 8,
   "source_file" : "/system/core/libutils/include/utils/StrongPointer.h"
  },
  {
   "alignment" : 8,
   "linker_set_key" : "android::sp<android::hardware::wifi::V1_0::IWifiChip> *",
   "name" : "android::sp<android::hardware::wifi::V1_0::IWifiChip> *",
   "referenced_type" : "type-759",
   "self_type" : "type-1227",
   "size" : 8,
   "source_file" : "/system/core/libutils/include/utils/StrongPointer.h"
  },
  {
   "alignment" : 8,
   "linker_set_key" : "android::sp<android::hardware::wifi::V1_0::IWifiChipEventCallback> *",
   "name" : "android::sp<android::hardware::wifi::V1_0::IWifiChipEventCallback> *",
   "referenced_type" : "type-487",
   "self_type" : "type-1184",
   "size" : 8,
   "source_file" : "/system/core/libutils/include/utils/StrongPointer.h"
  },
  {
   "alignment" : 8,
   "linker_set_key" : "android::sp<android::hardware::wifi::V1_0::IWifiEventCallback> *",
   "name" : "android::sp<android::hardware::wifi::V1_0::IWifiEventCallback> *",
   "referenced_type" : "type-789",
   "self_type" : "type-1233",
   "size" : 8,
   "source_file" : "/system/core/libutils/include/utils/StrongPointer.h"
  },
  {
   "alignment" : 8,
   "linker_set_key" : "android::sp<android::hardware::wifi::V1_0::IWifiIface> *",
   "name" : "android::sp<android::hardware::wifi::V1_0::IWifiIface> *",
   "referenced_type" : "type-302",
   "self_type" : "type-1174",
   "size" : 8,
   "source_file" : "/system/core/libutils/include/utils/StrongPointer.h"
  },
  {
   "alignment" : 8,
   "linker_set_key" : "android::sp<android::hardware::wifi::V1_0::IWifiNanIface> *",
   "name" : "android::sp<android::hardware::wifi::V1_0::IWifiNanIface> *",
   "referenced_type" : "type-496",
   "self_type" : "type-1193",
   "size" : 8,
   "source_file" : "/system/core/libutils/include/utils/StrongPointer.h"
  },
  {
   "alignment" : 8,
   "linker_set_key" : "android::sp<android::hardware::wifi::V1_0::IWifiNanIfaceEventCallback> *",
   "name" : "android::sp<android::hardware::wifi::V1_0::IWifiNanIfaceEventCallback> *",
   "referenced_type" : "type-543",
   "self_type" : "type-1188",
   "size" : 8,
   "source_file" : "/system/core/libutils/include/utils/StrongPointer.h"
  },
  {
   "alignment" : 8,
   "linker_set_key" : "android::sp<android::hardware::wifi::V1_0::IWifiP2pIface> *",
   "name" : "android::sp<android::hardware::wifi::V1_0::IWifiP2pIface> *",
   "referenced_type" : "type-504",
   "self_type" : "type-1199",
   "size" : 8,
   "source_file" : "/system/core/libutils/include/utils/StrongPointer.h"
  },
  {
   "alignment" : 8,
   "linker_set_key" : "android::sp<android::hardware::wifi::V1_0::IWifiRttController> *",
   "name" : "android::sp<android::hardware::wifi::V1_0::IWifiRttController> *",
   "referenced_type" : "type-513",
   "self_type" : "type-1209",
   "size" : 8,
   "source_file" : "/system/core/libutils/include/utils/StrongPointer.h"
  },
  {
   "alignment" : 8,
   "linker_set_key" : "android::sp<android::hardware::wifi::V1_0::IWifiRttControllerEventCallback> *",
   "name" : "android::sp<android::hardware::wifi::V1_0::IWifiRttControllerEventCallback> *",
   "referenced_type" : "type-637",
   "self_type" : "type-1203",
   "size" : 8,
   "source_file" : "/system/core/libutils/include/utils/StrongPointer.h"
  },
  {
   "alignment" : 8,
   "linker_set_key" : "android::sp<android::hardware::wifi::V1_0::IWifiStaIface> *",
   "name" : "android::sp<android::hardware::wifi::V1_0::IWifiStaIface> *",
   "referenced_type" : "type-518",
   "self_type" : "type-1222",
   "size" : 8,
   "source_file" : "/system/core/libutils/include/utils/StrongPointer.h"
  },
  {
   "alignment" : 8,
   "linker_set_key" : "android::sp<android::hardware::wifi::V1_0::IWifiStaIfaceEventCallback> *",
   "name" : "android::sp<android::hardware::wifi::V1_0::IWifiStaIfaceEventCallback> *",
   "referenced_type" : "type-697",
   "self_type" : "type-1218",
   "size" : 8,
   "source_file" : "/system/core/libutils/include/utils/StrongPointer.h"
  },
  {
   "alignment" : 8,
   "linker_set_key" : "android::sp<android::hardware::wifi::V1_1::IWifi> *",
   "name" : "android::sp<android::hardware::wifi::V1_1::IWifi> *",
   "referenced_type" : "type-902",
   "self_type" : "type-1244",
   "size" : 8,
   "source_file" : "/system/core/libutils/include/utils/StrongPointer.h"
  },
  {
   "alignment" : 8,
   "linker_set_key" : "android::sp<android::hardware::wifi::V1_1::IWifiChip> *",
   "name" : "android::sp<android::hardware::wifi::V1_1::IWifiChip> *",
   "referenced_type" : "type-388",
   "self_type" : "type-522",
   "size" : 8,
   "source_file" : "/system/core/libutils/include/utils/StrongPointer.h"
  },
  {
   "alignment" : 8,
   "linker_set_key" : "android::sp<android::hardware::wifi::V1_2::IWifi> *",
   "name" : "android::sp<android::hardware::wifi::V1_2::IWifi> *",
   "referenced_type" : "type-923",
   "self_type" : "type-1248",
   "size" : 8,
   "source_file" : "/system/core/libutils/include/utils/StrongPointer.h"
  },
  {
   "alignment" : 8,
   "linker_set_key" : "android::sp<android::hardware::wifi::V1_2::IWifiChip> *",
   "name" : "android::sp<android::hardware::wifi::V1_2::IWifiChip> *",
   "referenced_type" : "type-410",
   "self_type" : "type-533",
   "size" : 8,
   "source_file" : "/system/core/libutils/include/utils/StrongPointer.h"
  },
  {
   "alignment" : 8,
   "linker_set_key" : "android::sp<android::hardware::wifi::V1_2::IWifiChipEventCallback> *",
   "name" : "android::sp<android::hardware::wifi::V1_2::IWifiChipEventCallback> *",
   "referenced_type" : "type-398",
   "self_type" : "type-526",
   "size" : 8,
   "source_file" : "/system/core/libutils/include/utils/StrongPointer.h"
  },
  {
   "alignment" : 8,
   "linker_set_key" : "android::sp<android::hardware::wifi::V1_2::IWifiStaIface> *",
   "name" : "android::sp<android::hardware::wifi::V1_2::IWifiStaIface> *",
   "referenced_type" : "type-702",
   "self_type" : "type-704",
   "size" : 8,
   "source_file" : "/system/core/libutils/include/utils/StrongPointer.h"
  },
  {
   "alignment" : 8,
   "linker_set_key" : "android::sp<android::hardware::wifi::V1_3::IWifi> *",
   "name" : "android::sp<android::hardware::wifi::V1_3::IWifi> *",
   "referenced_type" : "type-1062",
   "self_type" : "type-1252",
   "size" : 8,
   "source_file" : "/system/core/libutils/include/utils/StrongPointer.h"
  },
  {
   "alignment" : 8,
   "linker_set_key" : "android::sp<android::hardware::wifi::V1_3::IWifiChip> *",
   "name" : "android::sp<android::hardware::wifi::V1_3::IWifiChip> *",
   "referenced_type" : "type-462",
   "self_type" : "type-537",
   "size" : 8,
   "source_file" : "/system/core/libutils/include/utils/StrongPointer.h"
  },
  {
   "alignment" : 8,
   "linker_set_key" : "android::sp<android::hardware::wifi::V1_3::IWifiStaIface> *",
   "name" : "android::sp<android::hardware::wifi::V1_3::IWifiStaIface> *",
   "referenced_type" : "type-676",
   "self_type" : "type-709",
   "size" : 8,
   "source_file" : "/system/core/libutils/include/utils/StrongPointer.h"
  },
  {
   "alignment" : 8,
   "linker_set_key" : "android::sp<android::hidl::base::V1_0::IBase> *",
   "name" : "android::sp<android::hidl::base::V1_0::IBase> *",
   "referenced_type" : "type-306",
   "self_type" : "type-1103",
   "size" : 8,
   "source_file" : "/system/core/libutils/include/utils/StrongPointer.h"
  },
  {
   "alignment" : 8,
   "linker_set_key" : "android::sp<android::hidl::manager::V1_0::IServiceManager> *",
   "name" : "android::sp<android::hidl::manager::V1_0::IServiceManager> *",
   "referenced_type" : "type-1154",
   "self_type" : "type-1157",
   "size" : 8,
   "source_file" : "/system/core/libutils/include/utils/StrongPointer.h"
  },
  {
   "alignment" : 8,
   "linker_set_key" : "android::sp<android::hidl::manager::V1_0::IServiceNotification> *",
   "name" : "android::sp<android::hidl::manager::V1_0::IServiceNotification> *",
   "referenced_type" : "type-112",
   "self_type" : "type-1172",
   "size" : 8,
   "source_file" : "/system/core/libutils/include/utils/StrongPointer.h"
  },
  {
   "alignment" : 8,
   "linker_set_key" : "android::wp<android::hardware::BHwBinder> *",
   "name" : "android::wp<android::hardware::BHwBinder> *",
   "referenced_type" : "type-1089",
   "self_type" : "type-1092",
   "size" : 8,
   "source_file" : "/system/core/libutils/include/utils/RefBase.h"
  },
  {
   "alignment" : 8,
   "linker_set_key" : "android::wp<android::hardware::IBinder::DeathRecipient> *",
   "name" : "android::wp<android::hardware::IBinder::DeathRecipient> *",
   "referenced_type" : "type-1068",
   "self_type" : "type-1072",
   "size" : 8,
   "source_file" : "/system/core/libutils/include/utils/RefBase.h"
  },
  {
   "alignment" : 8,
   "linker_set_key" : "android::wp<android::hardware::hidl_death_recipient> *",
   "name" : "android::wp<android::hardware::hidl_death_recipient> *",
   "referenced_type" : "type-1077",
   "self_type" : "type-1082",
   "size" : 8,
   "source_file" : "/system/core/libutils/include/utils/RefBase.h"
  },
  {
   "alignment" : 8,
   "linker_set_key" : "android::wp<android::hidl::base::V1_0::IBase> *",
   "name" : "android::wp<android::hidl::base::V1_0::IBase> *",
   "referenced_type" : "type-1059",
   "self_type" : "type-1060",
   "size" : 8,
   "source_file" : "/system/core/libutils/include/utils/RefBase.h"
  },
  {
   "alignment" : 8,
   "linker_set_key" : "android_flex_plane *",
   "name" : "android_flex_plane *",
   "referenced_type" : "type-1653",
   "self_type" : "type-1656",
   "size" : 8,
   "source_file" : "/system/core/libsystem/include/system/graphics.h"
  },
  {
   "alignment" : 8,
   "linker_set_key" : "bool (*)(const android::String16 &, const android::sp<android::hardware::IBinder> &, void *)",
   "name" : "bool (*)(const android::String16 &, const android::sp<android::hardware::IBinder> &, void *)",
   "referenced_type" : "type-1133",
   "self_type" : "type-1132",
   "size" : 8,
   "source_file" : "/system/libhwbinder/include/hwbinder/ProcessState.h"
  },
  {
   "alignment" : 8,
   "linker_set_key" : "char *",
   "name" : "char *",
   "referenced_type" : "type-14",
   "self_type" : "type-1052",
   "size" : 8,
   "source_file" : "/system/core/liblog/include/log/log_read.h"
  },
  {
   "alignment" : 8,
   "linker_set_key" : "const android::NativeHandle *",
   "name" : "const android::NativeHandle *",
   "referenced_type" : "type-1545",
   "self_type" : "type-1546",
   "size" : 8,
   "source_file" : "/system/core/libutils/include/utils/NativeHandle.h"
  },
  {
   "alignment" : 8,
   "linker_set_key" : "const android::RefBase *",
   "name" : "const android::RefBase *",
   "referenced_type" : "type-1389",
   "self_type" : "type-1392",
   "size" : 8,
   "source_file" : "/system/core/libutils/include/utils/RefBase.h"
  },
  {
   "alignment" : 8,
   "linker_set_key" : "const android::String16 *",
   "name" : "const android::String16 *",
   "referenced_type" : "type-1135",
   "self_type" : "type-1563",
   "size" : 8,
   "source_file" : "/system/core/libutils/include/utils/String16.h"
  },
  {
   "alignment" : 8,
   "linker_set_key" : "const android::String8 *",
   "name" : "const android::String8 *",
   "referenced_type" : "type-1556",
   "self_type" : "type-1557",
   "size" : 8,
   "source_file" : "/system/core/libutils/include/utils/String8.h"
  },
  {
   "alignment" : 8,
   "linker_set_key" : "const android::VectorImpl *",
   "name" : "const android::VectorImpl *",
   "referenced_type" : "type-1632",
   "self_type" : "type-1633",
   "size" : 8,
   "source_file" : "/system/core/libutils/include/utils/VectorImpl.h"
  },
  {
   "alignment" : 8,
   "linker_set_key" : "const android::hardware::BpHwRefBase *",
   "name" : "const android::hardware::BpHwRefBase *",
   "referenced_type" : "type-1567",
   "self_type" : "type-1568",
   "size" : 8,
   "source_file" : "/system/libhwbinder/include/hwbinder/Binder.h"
  },
  {
   "alignment" : 8,
   "linker_set_key" : "const android::hardware::ConcurrentMap<android::wp<android::hidl::base::V1_0::IBase>, android::hardware::details::SchedPrio> *",
   "name" : "const android::hardware::ConcurrentMap<android::wp<android::hidl::base::V1_0::IBase>, android::hardware::details::SchedPrio> *",
   "referenced_type" : "type-1597",
   "self_type" : "type-1599",
   "size" : 8,
   "source_file" : "/system/libhidl/transport/include/hidl/ConcurrentMap.h"
  },
  {
   "alignment" : 8,
   "linker_set_key" : "const android::hardware::ConcurrentMap<android::wp<android::hidl::base::V1_0::IBase>, bool> *",
   "name" : "const android::hardware::ConcurrentMap<android::wp<android::hidl::base::V1_0::IBase>, bool> *",
   "referenced_type" : "type-1603",
   "self_type" : "type-1604",
   "size" : 8,
   "source_file" : "/system/libhidl/transport/include/hidl/ConcurrentMap.h"
  },
  {
   "alignment" : 8,
   "linker_set_key" : "const android::hardware::Return<android::sp<android::hardware::wifi::V1_3::IWifi> > *",
   "name" : "const android::hardware::Return<android::sp<android::hardware::wifi::V1_3::IWifi> > *",
   "referenced_type" : "type-1282",
   "self_type" : "type-1283",
   "size" : 8,
   "source_file" : "/system/libhidl/base/include/hidl/Status.h"
  },
  {
   "alignment" : 8,
   "linker_set_key" : "const android::hardware::Return<android::sp<android::hardware::wifi::V1_3::IWifiChip> > *",
   "name" : "const android::hardware::Return<android::sp<android::hardware::wifi::V1_3::IWifiChip> > *",
   "referenced_type" : "type-553",
   "self_type" : "type-554",
   "size" : 8,
   "source_file" : "/system/libhidl/base/include/hidl/Status.h"
  },
  {
   "alignment" : 8,
   "linker_set_key" : "const android::hardware::Return<android::sp<android::hardware::wifi::V1_3::IWifiStaIface> > *",
   "name" : "const android::hardware::Return<android::sp<android::hardware::wifi::V1_3::IWifiStaIface> > *",
   "referenced_type" : "type-721",
   "self_type" : "type-722",
   "size" : 8,
   "source_file" : "/system/libhidl/base/include/hidl/Status.h"
  },
  {
   "alignment" : 8,
   "linker_set_key" : "const android::hardware::Return<bool> *",
   "name" : "const android::hardware::Return<bool> *",
   "referenced_type" : "type-1274",
   "self_type" : "type-1275",
   "size" : 8,
   "source_file" : "/system/libhidl/base/include/hidl/Status.h"
  },
  {
   "alignment" : 8,
   "linker_set_key" : "const android::hardware::Status *",
   "name" : "const android::hardware::Status *",
   "referenced_type" : "type-1264",
   "self_type" : "type-1269",
   "size" : 8,
   "source_file" : "/system/libhidl/base/include/hidl/Status.h"
  },
  {
   "alignment" : 8,
   "linker_set_key" : "const android::hardware::details::const_accessor<android::hardware::wifi::V1_0::NanBandSpecificConfig, 2> *",
   "name" : "const android::hardware::details::const_accessor<android::hardware::wifi::V1_0::NanBandSpecificConfig, 2> *",
   "referenced_type" : "type-1490",
   "self_type" : "type-1491",
   "size" : 8,
   "source_file" : "/system/libhidl/base/include/hidl/HidlSupport.h"
  },
  {
   "alignment" : 8,
   "linker_set_key" : "const android::hardware::details::const_accessor<bool, 2> *",
   "name" : "const android::hardware::details::const_accessor<bool, 2> *",
   "referenced_type" : "type-1482",
   "self_type" : "type-1483",
   "size" : 8,
   "source_file" : "/system/libhidl/base/include/hidl/HidlSupport.h"
  },
  {
   "alignment" : 8,
   "linker_set_key" : "const android::hardware::details::const_accessor<signed char, 2> *",
   "name" : "const android::hardware::details::const_accessor<signed char, 2> *",
   "referenced_type" : "type-1501",
   "self_type" : "type-1502",
   "size" : 8,
   "source_file" : "/system/libhidl/base/include/hidl/HidlSupport.h"
  },
  {
   "alignment" : 8,
   "linker_set_key" : "const android::hardware::details::const_accessor<unsigned char, 32> *",
   "name" : "const android::hardware::details::const_accessor<unsigned char, 32> *",
   "referenced_type" : "type-1494",
   "self_type" : "type-1495",
   "size" : 8,
   "source_file" : "/system/libhidl/base/include/hidl/HidlSupport.h"
  },
  {
   "alignment" : 8,
   "linker_set_key" : "const android::hardware::details::const_accessor<unsigned char, 6> *",
   "name" : "const android::hardware::details::const_accessor<unsigned char, 6> *",
   "referenced_type" : "type-1471",
   "self_type" : "type-1472",
   "size" : 8,
   "source_file" : "/system/libhidl/base/include/hidl/HidlSupport.h"
  },
  {
   "alignment" : 8,
   "linker_set_key" : "const android::hardware::details::const_accessor<unsigned int, 2> *",
   "name" : "const android::hardware::details::const_accessor<unsigned int, 2> *",
   "referenced_type" : "type-1477",
   "self_type" : "type-1478",
   "size" : 8,
   "source_file" : "/system/libhidl/base/include/hidl/HidlSupport.h"
  },
  {
   "alignment" : 8,
   "linker_set_key" : "const android::hardware::details::hidl_pointer<android::hardware::hidl_array<unsigned char, 32> > *",
   "name" : "const android::hardware::details::hidl_pointer<android::hardware::hidl_array<unsigned char, 32> > *",
   "referenced_type" : "type-951",
   "self_type" : "type-952",
   "size" : 8,
   "source_file" : "/system/libhidl/base/include/hidl/HidlInternal.h"
  },
  {
   "alignment" : 8,
   "linker_set_key" : "const android::hardware::details::hidl_pointer<android::hardware::hidl_array<unsigned char, 6> > *",
   "name" : "const android::hardware::details::hidl_pointer<android::hardware::hidl_array<unsigned char, 6> > *",
   "referenced_type" : "type-278",
   "self_type" : "type-465",
   "size" : 8,
   "source_file" : "/system/libhidl/base/include/hidl/HidlInternal.h"
  },
  {
   "alignment" : 8,
   "linker_set_key" : "const android::hardware::details::hidl_pointer<android::hardware::hidl_string> *",
   "name" : "const android::hardware::details::hidl_pointer<android::hardware::hidl_string> *",
   "referenced_type" : "type-1047",
   "self_type" : "type-1048",
   "size" : 8,
   "source_file" : "/system/libhidl/base/include/hidl/HidlInternal.h"
  },
  {
   "alignment" : 8,
   "linker_set_key" : "const android::hardware::details::hidl_pointer<android::hardware::wifi::V1_0::IWifiChip::ChipIfaceCombination> *",
   "name" : "const android::hardware::details::hidl_pointer<android::hardware::wifi::V1_0::IWifiChip::ChipIfaceCombination> *",
   "referenced_type" : "type-1043",
   "self_type" : "type-1044",
   "size" : 8,
   "source_file" : "/system/libhidl/base/include/hidl/HidlInternal.h"
  },
  {
   "alignment" : 8,
   "linker_set_key" : "const android::hardware::details::hidl_pointer<android::hardware::wifi::V1_0::IWifiChip::ChipIfaceCombinationLimit> *",
   "name" : "const android::hardware::details::hidl_pointer<android::hardware::wifi::V1_0::IWifiChip::ChipIfaceCombinationLimit> *",
   "referenced_type" : "type-1039",
   "self_type" : "type-1040",
   "size" : 8,
   "source_file" : "/system/libhidl/base/include/hidl/HidlInternal.h"
  },
  {
   "alignment" : 8,
   "linker_set_key" : "const android::hardware::details::hidl_pointer<android::hardware::wifi::V1_0::IfaceType> *",
   "name" : "const android::hardware::details::hidl_pointer<android::hardware::wifi::V1_0::IfaceType> *",
   "referenced_type" : "type-1022",
   "self_type" : "type-1031",
   "size" : 8,
   "source_file" : "/system/libhidl/base/include/hidl/HidlInternal.h"
  },
  {
   "alignment" : 8,
   "linker_set_key" : "const android::hardware::details::hidl_pointer<android::hardware::wifi::V1_0::StaBackgroundScanBucketParameters> *",
   "name" : "const android::hardware::details::hidl_pointer<android::hardware::wifi::V1_0::StaBackgroundScanBucketParameters> *",
   "referenced_type" : "type-1598",
   "self_type" : "type-1612",
   "size" : 8,
   "source_file" : "/system/libhidl/base/include/hidl/HidlInternal.h"
  },
  {
   "alignment" : 8,
   "linker_set_key" : "const android::hardware::details::hidl_pointer<android::hardware::wifi::V1_0::StaLinkLayerRadioStats> *",
   "name" : "const android::hardware::details::hidl_pointer<android::hardware::wifi::V1_0::StaLinkLayerRadioStats> *",
   "referenced_type" : "type-1682",
   "self_type" : "type-1691",
   "size" : 8,
   "source_file" : "/system/libhidl/base/include/hidl/HidlInternal.h"
  },
  {
   "alignment" : 8,
   "linker_set_key" : "const android::hardware::details::hidl_pointer<android::hardware::wifi::V1_0::StaScanResult> *",
   "name" : "const android::hardware::details::hidl_pointer<android::hardware::wifi::V1_0::StaScanResult> *",
   "referenced_type" : "type-246",
   "self_type" : "type-257",
   "size" : 8,
   "source_file" : "/system/libhidl/base/include/hidl/HidlInternal.h"
  },
  {
   "alignment" : 8,
   "linker_set_key" : "const android::hardware::details::hidl_pointer<android::hardware::wifi::V1_0::WifiInformationElement> *",
   "name" : "const android::hardware::details::hidl_pointer<android::hardware::wifi::V1_0::WifiInformationElement> *",
   "referenced_type" : "type-145",
   "self_type" : "type-156",
   "size" : 8,
   "source_file" : "/system/libhidl/base/include/hidl/HidlInternal.h"
  },
  {
   "alignment" : 8,
   "linker_set_key" : "const android::hardware::details::hidl_pointer<android::hardware::wifi::V1_2::IWifiChipEventCallback::IfaceInfo> *",
   "name" : "const android::hardware::details::hidl_pointer<android::hardware::wifi::V1_2::IWifiChipEventCallback::IfaceInfo> *",
   "referenced_type" : "type-433",
   "self_type" : "type-434",
   "size" : 8,
   "source_file" : "/system/libhidl/base/include/hidl/HidlInternal.h"
  },
  {
   "alignment" : 8,
   "linker_set_key" : "const android::hardware::details::hidl_pointer<android::hardware::wifi::V1_3::StaLinkLayerRadioStats> *",
   "name" : "const android::hardware::details::hidl_pointer<android::hardware::wifi::V1_3::StaLinkLayerRadioStats> *",
   "referenced_type" : "type-663",
   "self_type" : "type-664",
   "size" : 8,
   "source_file" : "/system/libhidl/base/include/hidl/HidlInternal.h"
  },
  {
   "alignment" : 8,
   "linker_set_key" : "const android::hardware::details::hidl_pointer<android::hardware::wifi::V1_3::WifiChannelStats> *",
   "name" : "const android::hardware::details::hidl_pointer<android::hardware::wifi::V1_3::WifiChannelStats> *",
   "referenced_type" : "type-654",
   "self_type" : "type-655",
   "size" : 8,
   "source_file" : "/system/libhidl/base/include/hidl/HidlInternal.h"
  },
  {
   "alignment" : 8,
   "linker_set_key" : "const android::hardware::details::hidl_pointer<int> *",
   "name" : "const android::hardware::details::hidl_pointer<int> *",
   "referenced_type" : "type-1411",
   "self_type" : "type-1420",
   "size" : 8,
   "source_file" : "/system/libhidl/base/include/hidl/HidlInternal.h"
  },
  {
   "alignment" : 8,
   "linker_set_key" : "const android::hardware::details::hidl_pointer<unsigned char> *",
   "name" : "const android::hardware::details::hidl_pointer<unsigned char> *",
   "referenced_type" : "type-1473",
   "self_type" : "type-1484",
   "size" : 8,
   "source_file" : "/system/libhidl/base/include/hidl/HidlInternal.h"
  },
  {
   "alignment" : 8,
   "linker_set_key" : "const android::hardware::details::hidl_pointer<unsigned int> *",
   "name" : "const android::hardware::details::hidl_pointer<unsigned int> *",
   "referenced_type" : "type-1542",
   "self_type" : "type-1553",
   "size" : 8,
   "source_file" : "/system/libhidl/base/include/hidl/HidlInternal.h"
  },
  {
   "alignment" : 8,
   "linker_set_key" : "const android::hardware::details::return_status *",
   "name" : "const android::hardware::details::return_status *",
   "referenced_type" : "type-1291",
   "self_type" : "type-1292",
   "size" : 8,
   "source_file" : "/system/libhidl/base/include/hidl/Status.h"
  },
  {
   "alignment" : 8,
   "linker_set_key" : "const android::hardware::hidl_array<android::hardware::wifi::V1_0::NanBandSpecificConfig, 2> *",
   "name" : "const android::hardware::hidl_array<android::hardware::wifi::V1_0::NanBandSpecificConfig, 2> *",
   "referenced_type" : "type-1515",
   "self_type" : "type-1516",
   "size" : 8,
   "source_file" : "/system/libhidl/base/include/hidl/HidlSupport.h"
  },
  {
   "alignment" : 8,
   "linker_set_key" : "const android::hardware::hidl_array<bool, 2> *",
   "name" : "const android::hardware::hidl_array<bool, 2> *",
   "referenced_type" : "type-1510",
   "self_type" : "type-1511",
   "size" : 8,
   "source_file" : "/system/libhidl/base/include/hidl/HidlSupport.h"
  },
  {
   "alignment" : 8,
   "linker_set_key" : "const android::hardware::hidl_array<signed char, 2> *",
   "name" : "const android::hardware::hidl_array<signed char, 2> *",
   "referenced_type" : "type-1520",
   "self_type" : "type-1521",
   "size" : 8,
   "source_file" : "/system/libhidl/base/include/hidl/HidlSupport.h"
  },
  {
   "alignment" : 8,
   "linker_set_key" : "const android::hardware::hidl_array<unsigned char, 32> *",
   "name" : "const android::hardware::hidl_array<unsigned char, 32> *",
   "referenced_type" : "type-969",
   "self_type" : "type-1503",
   "size" : 8,
   "source_file" : "/system/libhidl/base/include/hidl/HidlSupport.h"
  },
  {
   "alignment" : 8,
   "linker_set_key" : "const android::hardware::hidl_array<unsigned char, 6> *",
   "name" : "const android::hardware::hidl_array<unsigned char, 6> *",
   "referenced_type" : "type-1499",
   "self_type" : "type-1504",
   "size" : 8,
   "source_file" : "/system/libhidl/base/include/hidl/HidlSupport.h"
  },
  {
   "alignment" : 8,
   "linker_set_key" : "const android::hardware::hidl_array<unsigned int, 2> *",
   "name" : "const android::hardware::hidl_array<unsigned int, 2> *",
   "referenced_type" : "type-1506",
   "self_type" : "type-1507",
   "size" : 8,
   "source_file" : "/system/libhidl/base/include/hidl/HidlSupport.h"
  },
  {
   "alignment" : 8,
   "linker_set_key" : "const android::hardware::hidl_death_recipient *",
   "name" : "const android::hardware::hidl_death_recipient *",
   "referenced_type" : "type-1100",
   "self_type" : "type-1102",
   "size" : 8,
   "source_file" : "/system/core/libutils/include/utils/StrongPointer.h"
  },
  {
   "alignment" : 8,
   "linker_set_key" : "const android::hardware::hidl_memory *",
   "name" : "const android::hardware::hidl_memory *",
   "referenced_type" : "type-1401",
   "self_type" : "type-1405",
   "size" : 8,
   "source_file" : "/system/libhidl/base/include/hidl/HidlSupport.h"
  },
  {
   "alignment" : 8,
   "linker_set_key" : "const android::hardware::hidl_vec<android::hardware::hidl_array<unsigned char, 32> > *",
   "name" : "const android::hardware::hidl_vec<android::hardware::hidl_array<unsigned char, 32> > *",
   "referenced_type" : "type-1421",
   "self_type" : "type-1422",
   "size" : 8,
   "source_file" : "/system/libhidl/base/include/hidl/HidlSupport.h"
  },
  {
   "alignment" : 8,
   "linker_set_key" : "const android::hardware::hidl_vec<android::hardware::hidl_array<unsigned char, 6> > *",
   "name" : "const android::hardware::hidl_vec<android::hardware::hidl_array<unsigned char, 6> > *",
   "referenced_type" : "type-1447",
   "self_type" : "type-1448",
   "size" : 8,
   "source_file" : "/system/libhidl/base/include/hidl/HidlSupport.h"
  },
  {
   "alignment" : 8,
   "linker_set_key" : "const android::hardware::hidl_vec<android::hardware::wifi::V1_0::IWifiChip::ChipIfaceCombination> *",
   "name" : "const android::hardware::hidl_vec<android::hardware::wifi::V1_0::IWifiChip::ChipIfaceCombination> *",
   "referenced_type" : "type-1458",
   "self_type" : "type-1459",
   "size" : 8,
   "source_file" : "/system/libhidl/base/include/hidl/HidlSupport.h"
  },
  {
   "alignment" : 8,
   "linker_set_key" : "const android::hardware::hidl_vec<android::hardware::wifi::V1_0::IWifiChip::ChipIfaceCombinationLimit> *",
   "name" : "const android::hardware::hidl_vec<android::hardware::wifi::V1_0::IWifiChip::ChipIfaceCombinationLimit> *",
   "referenced_type" : "type-1455",
   "self_type" : "type-1456",
   "size" : 8,
   "source_file" : "/system/libhidl/base/include/hidl/HidlSupport.h"
  },
  {
   "alignment" : 8,
   "linker_set_key" : "const android::hardware::hidl_vec<android::hardware::wifi::V1_0::IfaceType> *",
   "name" : "const android::hardware::hidl_vec<android::hardware::wifi::V1_0::IfaceType> *",
   "referenced_type" : "type-1450",
   "self_type" : "type-1451",
   "size" : 8,
   "source_file" : "/system/libhidl/base/include/hidl/HidlSupport.h"
  },
  {
   "alignment" : 8,
   "linker_set_key" : "const android::hardware::hidl_vec<android::hardware::wifi::V1_0::StaBackgroundScanBucketParameters> *",
   "name" : "const android::hardware::hidl_vec<android::hardware::wifi::V1_0::StaBackgroundScanBucketParameters> *",
   "referenced_type" : "type-1434",
   "self_type" : "type-1435",
   "size" : 8,
   "source_file" : "/system/libhidl/base/include/hidl/HidlSupport.h"
  },
  {
   "alignment" : 8,
   "linker_set_key" : "const android::hardware::hidl_vec<android::hardware::wifi::V1_0::StaLinkLayerRadioStats> *",
   "name" : "const android::hardware::hidl_vec<android::hardware::wifi::V1_0::StaLinkLayerRadioStats> *",
   "referenced_type" : "type-1437",
   "self_type" : "type-1438",
   "size" : 8,
   "source_file" : "/system/libhidl/base/include/hidl/HidlSupport.h"
  },
  {
   "alignment" : 8,
   "linker_set_key" : "const android::hardware::hidl_vec<android::hardware::wifi::V1_0::StaScanResult> *",
   "name" : "const android::hardware::hidl_vec<android::hardware::wifi::V1_0::StaScanResult> *",
   "referenced_type" : "type-1444",
   "self_type" : "type-1445",
   "size" : 8,
   "source_file" : "/system/libhidl/base/include/hidl/HidlSupport.h"
  },
  {
   "alignment" : 8,
   "linker_set_key" : "const android::hardware::hidl_vec<android::hardware::wifi::V1_0::WifiInformationElement> *",
   "name" : "const android::hardware::hidl_vec<android::hardware::wifi::V1_0::WifiInformationElement> *",
   "referenced_type" : "type-1440",
   "self_type" : "type-1441",
   "size" : 8,
   "source_file" : "/system/libhidl/base/include/hidl/HidlSupport.h"
  },
  {
   "alignment" : 8,
   "linker_set_key" : "const android::hardware::hidl_vec<android::hardware::wifi::V1_2::IWifiChipEventCallback::IfaceInfo> *",
   "name" : "const android::hardware::hidl_vec<android::hardware::wifi::V1_2::IWifiChipEventCallback::IfaceInfo> *",
   "referenced_type" : "type-572",
   "self_type" : "type-573",
   "size" : 8,
   "source_file" : "/system/libhidl/base/include/hidl/HidlSupport.h"
  },
  {
   "alignment" : 8,
   "linker_set_key" : "const android::hardware::hidl_vec<android::hardware::wifi::V1_3::StaLinkLayerRadioStats> *",
   "name" : "const android::hardware::hidl_vec<android::hardware::wifi::V1_3::StaLinkLayerRadioStats> *",
   "referenced_type" : "type-745",
   "self_type" : "type-746",
   "size" : 8,
   "source_file" : "/system/libhidl/base/include/hidl/HidlSupport.h"
  },
  {
   "alignment" : 8,
   "linker_set_key" : "const android::hardware::hidl_vec<android::hardware::wifi::V1_3::WifiChannelStats> *",
   "name" : "const android::hardware::hidl_vec<android::hardware::wifi::V1_3::WifiChannelStats> *",
   "referenced_type" : "type-741",
   "self_type" : "type-742",
   "size" : 8,
   "source_file" : "/system/libhidl/base/include/hidl/HidlSupport.h"
  },
  {
   "alignment" : 8,
   "linker_set_key" : "const android::hardware::hidl_vec<int> *",
   "name" : "const android::hardware::hidl_vec<int> *",
   "referenced_type" : "type-1425",
   "self_type" : "type-1426",
   "size" : 8,
   "source_file" : "/system/libhidl/base/include/hidl/HidlSupport.h"
  },
  {
   "alignment" : 8,
   "linker_set_key" : "const android::hardware::hidl_vec<unsigned char> *",
   "name" : "const android::hardware::hidl_vec<unsigned char> *",
   "referenced_type" : "type-1428",
   "self_type" : "type-1429",
   "size" : 8,
   "source_file" : "/system/libhidl/base/include/hidl/HidlSupport.h"
  },
  {
   "alignment" : 8,
   "linker_set_key" : "const android::hardware::hidl_vec<unsigned int> *",
   "name" : "const android::hardware::hidl_vec<unsigned int> *",
   "referenced_type" : "type-1431",
   "self_type" : "type-1432",
   "size" : 8,
   "source_file" : "/system/libhidl/base/include/hidl/HidlSupport.h"
  },
  {
   "alignment" : 8,
   "linker_set_key" : "const android::hardware::hidl_version *",
   "name" : "const android::hardware::hidl_version *",
   "referenced_type" : "type-1526",
   "self_type" : "type-1527",
   "size" : 8,
   "source_file" : "/system/libhidl/base/include/hidl/HidlSupport.h"
  },
  {
   "alignment" : 8,
   "linker_set_key" : "const android::hardware::wifi::V1_0::BpHwWifi *",
   "name" : "const android::hardware::wifi::V1_0::BpHwWifi *",
   "referenced_type" : "type-899",
   "self_type" : "type-900",
   "size" : 8,
   "source_file" : "/out/soong/.intermediates/hardware/interfaces/wifi/1.0/android.hardware.wifi@1.0_genc++_headers/gen/android/hardware/wifi/1.0/BpHwWifi.h"
  },
  {
   "alignment" : 8,
   "linker_set_key" : "const android::hardware::wifi::V1_0::BpHwWifiApIface *",
   "name" : "const android::hardware::wifi::V1_0::BpHwWifiApIface *",
   "referenced_type" : "type-479",
   "self_type" : "type-485",
   "size" : 8,
   "source_file" : "/out/soong/.intermediates/hardware/interfaces/wifi/1.0/android.hardware.wifi@1.0_genc++_headers/gen/android/hardware/wifi/1.0/BpHwWifiApIface.h"
  },
  {
   "alignment" : 8,
   "linker_set_key" : "const android::hardware::wifi::V1_0::BpHwWifiChip *",
   "name" : "const android::hardware::wifi::V1_0::BpHwWifiChip *",
   "referenced_type" : "type-782",
   "self_type" : "type-783",
   "size" : 8,
   "source_file" : "/out/soong/.intermediates/hardware/interfaces/wifi/1.0/android.hardware.wifi@1.0_genc++_headers/gen/android/hardware/wifi/1.0/BpHwWifiChip.h"
  },
  {
   "alignment" : 8,
   "linker_set_key" : "const android::hardware::wifi::V1_0::BpHwWifiChipEventCallback *",
   "name" : "const android::hardware::wifi::V1_0::BpHwWifiChipEventCallback *",
   "referenced_type" : "type-530",
   "self_type" : "type-541",
   "size" : 8,
   "source_file" : "/out/soong/.intermediates/hardware/interfaces/wifi/1.0/android.hardware.wifi@1.0_genc++_headers/gen/android/hardware/wifi/1.0/BpHwWifiChipEventCallback.h"
  },
  {
   "alignment" : 8,
   "linker_set_key" : "const android::hardware::wifi::V1_0::BpHwWifiEventCallback *",
   "name" : "const android::hardware::wifi::V1_0::BpHwWifiEventCallback *",
   "referenced_type" : "type-850",
   "self_type" : "type-861",
   "size" : 8,
   "source_file" : "/out/soong/.intermediates/hardware/interfaces/wifi/1.0/android.hardware.wifi@1.0_genc++_headers/gen/android/hardware/wifi/1.0/BpHwWifiEventCallback.h"
  },
  {
   "alignment" : 8,
   "linker_set_key" : "const android::hardware::wifi::V1_0::BpHwWifiIface *",
   "name" : "const android::hardware::wifi::V1_0::BpHwWifiIface *",
   "referenced_type" : "type-413",
   "self_type" : "type-425",
   "size" : 8,
   "source_file" : "/out/soong/.intermediates/hardware/interfaces/wifi/1.0/android.hardware.wifi@1.0_genc++_headers/gen/android/hardware/wifi/1.0/BpHwWifiIface.h"
  },
  {
   "alignment" : 8,
   "linker_set_key" : "const android::hardware::wifi::V1_0::BpHwWifiNanIface *",
   "name" : "const android::hardware::wifi::V1_0::BpHwWifiNanIface *",
   "referenced_type" : "type-592",
   "self_type" : "type-599",
   "size" : 8,
   "source_file" : "/out/soong/.intermediates/hardware/interfaces/wifi/1.0/android.hardware.wifi@1.0_genc++_headers/gen/android/hardware/wifi/1.0/BpHwWifiNanIface.h"
  },
  {
   "alignment" : 8,
   "linker_set_key" : "const android::hardware::wifi::V1_0::BpHwWifiNanIfaceEventCallback *",
   "name" : "const android::hardware::wifi::V1_0::BpHwWifiNanIfaceEventCallback *",
   "referenced_type" : "type-576",
   "self_type" : "type-577",
   "size" : 8,
   "source_file" : "/out/soong/.intermediates/hardware/interfaces/wifi/1.0/android.hardware.wifi@1.0_genc++_headers/gen/android/hardware/wifi/1.0/BpHwWifiNanIfaceEventCallback.h"
  },
  {
   "alignment" : 8,
   "linker_set_key" : "const android::hardware::wifi::V1_0::BpHwWifiP2pIface *",
   "name" : "const android::hardware::wifi::V1_0::BpHwWifiP2pIface *",
   "referenced_type" : "type-628",
   "self_type" : "type-635",
   "size" : 8,
   "source_file" : "/out/soong/.intermediates/hardware/interfaces/wifi/1.0/android.hardware.wifi@1.0_genc++_headers/gen/android/hardware/wifi/1.0/BpHwWifiP2pIface.h"
  },
  {
   "alignment" : 8,
   "linker_set_key" : "const android::hardware::wifi::V1_0::BpHwWifiRttController *",
   "name" : "const android::hardware::wifi::V1_0::BpHwWifiRttController *",
   "referenced_type" : "type-694",
   "self_type" : "type-695",
   "size" : 8,
   "source_file" : "/out/soong/.intermediates/hardware/interfaces/wifi/1.0/android.hardware.wifi@1.0_genc++_headers/gen/android/hardware/wifi/1.0/BpHwWifiRttController.h"
  },
  {
   "alignment" : 8,
   "linker_set_key" : "const android::hardware::wifi::V1_0::BpHwWifiRttControllerEventCallback *",
   "name" : "const android::hardware::wifi::V1_0::BpHwWifiRttControllerEventCallback *",
   "referenced_type" : "type-645",
   "self_type" : "type-646",
   "size" : 8,
   "source_file" : "/out/soong/.intermediates/hardware/interfaces/wifi/1.0/android.hardware.wifi@1.0_genc++_headers/gen/android/hardware/wifi/1.0/BpHwWifiRttControllerEventCallback.h"
  },
  {
   "alignment" : 8,
   "linker_set_key" : "const android::hardware::wifi::V1_0::BpHwWifiStaIface *",
   "name" : "const android::hardware::wifi::V1_0::BpHwWifiStaIface *",
   "referenced_type" : "type-753",
   "self_type" : "type-754",
   "size" : 8,
   "source_file" : "/out/soong/.intermediates/hardware/interfaces/wifi/1.0/android.hardware.wifi@1.0_genc++_headers/gen/android/hardware/wifi/1.0/BpHwWifiStaIface.h"
  },
  {
   "alignment" : 8,
   "linker_set_key" : "const android::hardware::wifi::V1_0::BpHwWifiStaIfaceEventCallback *",
   "name" : "const android::hardware::wifi::V1_0::BpHwWifiStaIfaceEventCallback *",
   "referenced_type" : "type-723",
   "self_type" : "type-727",
   "size" : 8,
   "source_file" : "/out/soong/.intermediates/hardware/interfaces/wifi/1.0/android.hardware.wifi@1.0_genc++_headers/gen/android/hardware/wifi/1.0/BpHwWifiStaIfaceEventCallback.h"
  },
  {
   "alignment" : 8,
   "linker_set_key" : "const android::hardware::wifi::V1_0::IWifi *",
   "name" : "const android::hardware::wifi::V1_0::IWifi *",
   "referenced_type" : "type-1555",
   "self_type" : "type-1578",
   "size" : 8,
   "source_file" : "/out/soong/.intermediates/hardware/interfaces/wifi/1.0/android.hardware.wifi@1.0_genc++_headers/gen/android/hardware/wifi/1.0/IWifi.h"
  },
  {
   "alignment" : 8,
   "linker_set_key" : "const android::hardware::wifi::V1_0::IWifiApIface *",
   "name" : "const android::hardware::wifi::V1_0::IWifiApIface *",
   "referenced_type" : "type-821",
   "self_type" : "type-910",
   "size" : 8,
   "source_file" : "/out/soong/.intermediates/hardware/interfaces/wifi/1.0/android.hardware.wifi@1.0_genc++_headers/gen/android/hardware/wifi/1.0/IWifiApIface.h"
  },
  {
   "alignment" : 8,
   "linker_set_key" : "const android::hardware::wifi::V1_0::IWifiChip *",
   "name" : "const android::hardware::wifi::V1_0::IWifiChip *",
   "referenced_type" : "type-1231",
   "self_type" : "type-1232",
   "size" : 8,
   "source_file" : "/system/core/libutils/include/utils/StrongPointer.h"
  },
  {
   "alignment" : 8,
   "linker_set_key" : "const android::hardware::wifi::V1_0::IWifiChipEventCallback *",
   "name" : "const android::hardware::wifi::V1_0::IWifiChipEventCallback *",
   "referenced_type" : "type-930",
   "self_type" : "type-990",
   "size" : 8,
   "source_file" : "/out/soong/.intermediates/hardware/interfaces/wifi/1.0/android.hardware.wifi@1.0_genc++_headers/gen/android/hardware/wifi/1.0/IWifiChipEventCallback.h"
  },
  {
   "alignment" : 8,
   "linker_set_key" : "const android::hardware::wifi::V1_0::IWifiEventCallback *",
   "name" : "const android::hardware::wifi::V1_0::IWifiEventCallback *",
   "referenced_type" : "type-1238",
   "self_type" : "type-1239",
   "size" : 8,
   "source_file" : "/system/core/libutils/include/utils/StrongPointer.h"
  },
  {
   "alignment" : 8,
   "linker_set_key" : "const android::hardware::wifi::V1_0::IWifiIface *",
   "name" : "const android::hardware::wifi::V1_0::IWifiIface *",
   "referenced_type" : "type-575",
   "self_type" : "type-779",
   "size" : 8,
   "source_file" : "/out/soong/.intermediates/hardware/interfaces/wifi/1.0/android.hardware.wifi@1.0_genc++_headers/gen/android/hardware/wifi/1.0/IWifiIface.h"
  },
  {
   "alignment" : 8,
   "linker_set_key" : "const android::hardware::wifi::V1_0::IWifiNanIface *",
   "name" : "const android::hardware::wifi::V1_0::IWifiNanIface *",
   "referenced_type" : "type-1071",
   "self_type" : "type-1091",
   "size" : 8,
   "source_file" : "/out/soong/.intermediates/hardware/interfaces/wifi/1.0/android.hardware.wifi@1.0_genc++_headers/gen/android/hardware/wifi/1.0/IWifiNanIface.h"
  },
  {
   "alignment" : 8,
   "linker_set_key" : "const android::hardware::wifi::V1_0::IWifiNanIfaceEventCallback *",
   "name" : "const android::hardware::wifi::V1_0::IWifiNanIfaceEventCallback *",
   "referenced_type" : "type-1038",
   "self_type" : "type-1058",
   "size" : 8,
   "source_file" : "/out/soong/.intermediates/hardware/interfaces/wifi/1.0/android.hardware.wifi@1.0_genc++_headers/gen/android/hardware/wifi/1.0/IWifiNanIfaceEventCallback.h"
  },
  {
   "alignment" : 8,
   "linker_set_key" : "const android::hardware::wifi::V1_0::IWifiP2pIface *",
   "name" : "const android::hardware::wifi::V1_0::IWifiP2pIface *",
   "referenced_type" : "type-1101",
   "self_type" : "type-1148",
   "size" : 8,
   "source_file" : "/out/soong/.intermediates/hardware/interfaces/wifi/1.0/android.hardware.wifi@1.0_genc++_headers/gen/android/hardware/wifi/1.0/IWifiP2pIface.h"
  },
  {
   "alignment" : 8,
   "linker_set_key" : "const android::hardware::wifi::V1_0::IWifiRttController *",
   "name" : "const android::hardware::wifi::V1_0::IWifiRttController *",
   "referenced_type" : "type-1162",
   "self_type" : "type-1183",
   "size" : 8,
   "source_file" : "/out/soong/.intermediates/hardware/interfaces/wifi/1.0/android.hardware.wifi@1.0_genc++_headers/gen/android/hardware/wifi/1.0/IWifiRttController.h"
  },
  {
   "alignment" : 8,
   "linker_set_key" : "const android::hardware::wifi::V1_0::IWifiRttControllerEventCallback *",
   "name" : "const android::hardware::wifi::V1_0::IWifiRttControllerEventCallback *",
   "referenced_type" : "type-1149",
   "self_type" : "type-1151",
   "size" : 8,
   "source_file" : "/out/soong/.intermediates/hardware/interfaces/wifi/1.0/android.hardware.wifi@1.0_genc++_headers/gen/android/hardware/wifi/1.0/IWifiRttControllerEventCallback.h"
  },
  {
   "alignment" : 8,
   "linker_set_key" : "const android::hardware::wifi::V1_0::IWifiStaIface *",
   "name" : "const android::hardware::wifi::V1_0::IWifiStaIface *",
   "referenced_type" : "type-1237",
   "self_type" : "type-1258",
   "size" : 8,
   "source_file" : "/out/soong/.intermediates/hardware/interfaces/wifi/1.0/android.hardware.wifi@1.0_genc++_headers/gen/android/hardware/wifi/1.0/IWifiStaIface.h"
  },
  {
   "alignment" : 8,
   "linker_set_key" : "const android::hardware::wifi::V1_0::IWifiStaIfaceEventCallback *",
   "name" : "const android::hardware::wifi::V1_0::IWifiStaIfaceEventCallback *",
   "referenced_type" : "type-1194",
   "self_type" : "type-1217",
   "size" : 8,
   "source_file" : "/out/soong/.intermediates/hardware/interfaces/wifi/1.0/android.hardware.wifi@1.0_genc++_headers/gen/android/hardware/wifi/1.0/IWifiStaIfaceEventCallback.h"
  },
  {
   "alignment" : 8,
   "linker_set_key" : "const android::hardware::wifi::V1_0::NanBandSpecificConfig *",
   "name" : "const android::hardware::wifi::V1_0::NanBandSpecificConfig *",
   "referenced_type" : "type-1487",
   "self_type" : "type-1486",
   "size" : 8,
   "source_file" : "/system/libhidl/base/include/hidl/HidlSupport.h"
  },
  {
   "alignment" : 8,
   "linker_set_key" : "const android::hardware::wifi::V1_1::BpHwWifi *",
   "name" : "const android::hardware::wifi::V1_1::BpHwWifi *",
   "referenced_type" : "type-915",
   "self_type" : "type-919",
   "size" : 8,
   "source_file" : "/out/soong/.intermediates/hardware/interfaces/wifi/1.1/android.hardware.wifi@1.1_genc++_headers/gen/android/hardware/wifi/1.1/BpHwWifi.h"
  },
  {
   "alignment" : 8,
   "linker_set_key" : "const android::hardware::wifi::V1_1::BpHwWifiChip *",
   "name" : "const android::hardware::wifi::V1_1::BpHwWifiChip *",
   "referenced_type" : "type-395",
   "self_type" : "type-396",
   "size" : 8,
   "source_file" : "/out/soong/.intermediates/hardware/interfaces/wifi/1.1/android.hardware.wifi@1.1_genc++_headers/gen/android/hardware/wifi/1.1/BpHwWifiChip.h"
  },
  {
   "alignment" : 8,
   "linker_set_key" : "const android::hardware::wifi::V1_1::IWifi *",
   "name" : "const android::hardware::wifi::V1_1::IWifi *",
   "referenced_type" : "type-1587",
   "self_type" : "type-1608",
   "size" : 8,
   "source_file" : "/out/soong/.intermediates/hardware/interfaces/wifi/1.1/android.hardware.wifi@1.1_genc++_headers/gen/android/hardware/wifi/1.1/IWifi.h"
  },
  {
   "alignment" : 8,
   "linker_set_key" : "const android::hardware::wifi::V1_1::IWifiChip *",
   "name" : "const android::hardware::wifi::V1_1::IWifiChip *",
   "referenced_type" : "type-342",
   "self_type" : "type-345",
   "size" : 8,
   "source_file" : "/out/soong/.intermediates/hardware/interfaces/wifi/1.1/android.hardware.wifi@1.1_genc++_headers/gen/android/hardware/wifi/1.1/IWifiChip.h"
  },
  {
   "alignment" : 8,
   "linker_set_key" : "const android::hardware::wifi::V1_2::BpHwWifi *",
   "name" : "const android::hardware::wifi::V1_2::BpHwWifi *",
   "referenced_type" : "type-935",
   "self_type" : "type-936",
   "size" : 8,
   "source_file" : "/out/soong/.intermediates/hardware/interfaces/wifi/1.2/android.hardware.wifi@1.2_genc++_headers/gen/android/hardware/wifi/1.2/BpHwWifi.h"
  },
  {
   "alignment" : 8,
   "linker_set_key" : "const android::hardware::wifi::V1_2::BpHwWifiChip *",
   "name" : "const android::hardware::wifi::V1_2::BpHwWifiChip *",
   "referenced_type" : "type-418",
   "self_type" : "type-419",
   "size" : 8,
   "source_file" : "/out/soong/.intermediates/hardware/interfaces/wifi/1.2/android.hardware.wifi@1.2_genc++_headers/gen/android/hardware/wifi/1.2/BpHwWifiChip.h"
  },
  {
   "alignment" : 8,
   "linker_set_key" : "const android::hardware::wifi::V1_2::BpHwWifiChipEventCallback *",
   "name" : "const android::hardware::wifi::V1_2::BpHwWifiChipEventCallback *",
   "referenced_type" : "type-407",
   "self_type" : "type-408",
   "size" : 8,
   "source_file" : "/out/soong/.intermediates/hardware/interfaces/wifi/1.2/android.hardware.wifi@1.2_genc++_headers/gen/android/hardware/wifi/1.2/BpHwWifiChipEventCallback.h"
  },
  {
   "alignment" : 8,
   "linker_set_key" : "const android::hardware::wifi::V1_2::BpHwWifiStaIface *",
   "name" : "const android::hardware::wifi::V1_2::BpHwWifiStaIface *",
   "referenced_type" : "type-885",
   "self_type" : "type-886",
   "size" : 8,
   "source_file" : "/out/soong/.intermediates/hardware/interfaces/wifi/1.2/android.hardware.wifi@1.2_genc++_headers/gen/android/hardware/wifi/1.2/BpHwWifiStaIface.h"
  },
  {
   "alignment" : 8,
   "linker_set_key" : "const android::hardware::wifi::V1_2::IWifi *",
   "name" : "const android::hardware::wifi::V1_2::IWifi *",
   "referenced_type" : "type-1619",
   "self_type" : "type-1640",
   "size" : 8,
   "source_file" : "/out/soong/.intermediates/hardware/interfaces/wifi/1.2/android.hardware.wifi@1.2_genc++_headers/gen/android/hardware/wifi/1.2/IWifi.h"
  },
  {
   "alignment" : 8,
   "linker_set_key" : "const android::hardware::wifi::V1_2::IWifiChip *",
   "name" : "const android::hardware::wifi::V1_2::IWifiChip *",
   "referenced_type" : "type-360",
   "self_type" : "type-362",
   "size" : 8,
   "source_file" : "/out/soong/.intermediates/hardware/interfaces/wifi/1.2/android.hardware.wifi@1.2_genc++_headers/gen/android/hardware/wifi/1.2/IWifiChip.h"
  },
  {
   "alignment" : 8,
   "linker_set_key" : "const android::hardware::wifi::V1_2::IWifiChipEventCallback *",
   "name" : "const android::hardware::wifi::V1_2::IWifiChipEventCallback *",
   "referenced_type" : "type-531",
   "self_type" : "type-532",
   "size" : 8,
   "source_file" : "/system/core/libutils/include/utils/StrongPointer.h"
  },
  {
   "alignment" : 8,
   "linker_set_key" : "const android::hardware::wifi::V1_2::IWifiStaIface *",
   "name" : "const android::hardware::wifi::V1_2::IWifiStaIface *",
   "referenced_type" : "type-874",
   "self_type" : "type-875",
   "size" : 8,
   "source_file" : "/out/soong/.intermediates/hardware/interfaces/wifi/1.2/android.hardware.wifi@1.2_genc++_headers/gen/android/hardware/wifi/1.2/IWifiStaIface.h"
  },
  {
   "alignment" : 8,
   "linker_set_key" : "const android::hardware::wifi::V1_3::BpHwWifi *",
   "name" : "const android::hardware::wifi::V1_3::BpHwWifi *",
   "referenced_type" : "type-937",
   "self_type" : "type-949",
   "size" : 8,
   "source_file" : "/out/soong/.intermediates/hardware/interfaces/wifi/1.3/android.hardware.wifi@1.3_genc++_headers/gen/android/hardware/wifi/1.3/BpHwWifi.h"
  },
  {
   "alignment" : 8,
   "linker_set_key" : "const android::hardware::wifi::V1_3::BpHwWifiChip *",
   "name" : "const android::hardware::wifi::V1_3::BpHwWifiChip *",
   "referenced_type" : "type-420",
   "self_type" : "type-426",
   "size" : 8,
   "source_file" : "/out/soong/.intermediates/hardware/interfaces/wifi/1.3/android.hardware.wifi@1.3_genc++_headers/gen/android/hardware/wifi/1.3/BpHwWifiChip.h"
  },
  {
   "alignment" : 8,
   "linker_set_key" : "const android::hardware::wifi::V1_3::BpHwWifiStaIface *",
   "name" : "const android::hardware::wifi::V1_3::BpHwWifiStaIface *",
   "referenced_type" : "type-887",
   "self_type" : "type-888",
   "size" : 8,
   "source_file" : "/out/soong/.intermediates/hardware/interfaces/wifi/1.3/android.hardware.wifi@1.3_genc++_headers/gen/android/hardware/wifi/1.3/BpHwWifiStaIface.h"
  },
  {
   "alignment" : 8,
   "linker_set_key" : "const android::hardware::wifi::V1_3::IWifi *",
   "name" : "const android::hardware::wifi::V1_3::IWifi *",
   "referenced_type" : "type-1651",
   "self_type" : "type-1672",
   "size" : 8,
   "source_file" : "/out/soong/.intermediates/hardware/interfaces/wifi/1.3/android.hardware.wifi@1.3_genc++_headers/gen/android/hardware/wifi/1.3/IWifi.h"
  },
  {
   "alignment" : 8,
   "linker_set_key" : "const android::hardware::wifi::V1_3::IWifiChip *",
   "name" : "const android::hardware::wifi::V1_3::IWifiChip *",
   "referenced_type" : "type-371",
   "self_type" : "type-373",
   "size" : 8,
   "source_file" : "/out/soong/.intermediates/hardware/interfaces/wifi/1.3/android.hardware.wifi@1.3_genc++_headers/gen/android/hardware/wifi/1.3/IWifiChip.h"
  },
  {
   "alignment" : 8,
   "linker_set_key" : "const android::hardware::wifi::V1_3::IWifiStaIface *",
   "name" : "const android::hardware::wifi::V1_3::IWifiStaIface *",
   "referenced_type" : "type-877",
   "self_type" : "type-878",
   "size" : 8,
   "source_file" : "/out/soong/.intermediates/hardware/interfaces/wifi/1.3/android.hardware.wifi@1.3_genc++_headers/gen/android/hardware/wifi/1.3/IWifiStaIface.h"
  },
  {
   "alignment" : 8,
   "linker_set_key" : "const android::hardware::wifi::V1_3::StaLinkLayerRadioStats *",
   "name" : "const android::hardware::wifi::V1_3::StaLinkLayerRadioStats *",
   "referenced_type" : "type-662",
   "self_type" : "type-929",
   "size" : 8,
   "source_file" : "/system/libhidl/base/include/hidl/HidlSupport.h"
  },
  {
   "alignment" : 8,
   "linker_set_key" : "const android::hardware::wifi::V1_3::WifiChannelStats *",
   "name" : "const android::hardware::wifi::V1_3::WifiChannelStats *",
   "referenced_type" : "type-653",
   "self_type" : "type-927",
   "size" : 8,
   "source_file" : "/system/libhidl/base/include/hidl/HidlSupport.h"
  },
  {
   "alignment" : 8,
   "linker_set_key" : "const android::hidl::base::V1_0::BpHwBase *",
   "name" : "const android::hidl::base::V1_0::BpHwBase *",
   "referenced_type" : "type-279",
   "self_type" : "type-290",
   "size" : 8,
   "source_file" : "/out/soong/.intermediates/system/libhidl/transport/base/1.0/android.hidl.base@1.0_genc++_headers/gen/android/hidl/base/1.0/BpHwBase.h"
  },
  {
   "alignment" : 8,
   "linker_set_key" : "const android::hidl::base::V1_0::IBase *",
   "name" : "const android::hidl::base::V1_0::IBase *",
   "referenced_type" : "type-1115",
   "self_type" : "type-1116",
   "size" : 8,
   "source_file" : "/system/core/libutils/include/utils/StrongPointer.h"
  },
  {
   "alignment" : 8,
   "linker_set_key" : "const android::hidl::manager::V1_0::IServiceManager *",
   "name" : "const android::hidl::manager::V1_0::IServiceManager *",
   "referenced_type" : "type-1160",
   "self_type" : "type-1161",
   "size" : 8,
   "source_file" : "/system/core/libutils/include/utils/StrongPointer.h"
  },
  {
   "alignment" : 8,
   "linker_set_key" : "const android::hidl::manager::V1_0::IServiceNotification *",
   "name" : "const android::hidl::manager::V1_0::IServiceNotification *",
   "referenced_type" : "type-1685",
   "self_type" : "type-1686",
   "size" : 8,
   "source_file" : "/out/soong/.intermediates/system/libhidl/transport/manager/1.0/android.hidl.manager@1.0_genc++_headers/gen/android/hidl/manager/1.0/IServiceNotification.h"
  },
  {
   "alignment" : 8,
   "linker_set_key" : "const android::sp<android::hardware::IBinder> *",
   "name" : "const android::sp<android::hardware::IBinder> *",
   "referenced_type" : "type-481",
   "self_type" : "type-480",
   "size" : 8,
   "source_file" : "/system/core/libutils/include/utils/StrongPointer.h"
  },
  {
   "alignment" : 8,
   "linker_set_key" : "const android::sp<android::hardware::ProcessState> *",
   "name" : "const android::sp<android::hardware::ProcessState> *",
   "referenced_type" : "type-1152",
   "self_type" : "type-1153",
   "size" : 8,
   "source_file" : "/system/core/libutils/include/utils/StrongPointer.h"
  },
  {
   "alignment" : 8,
   "linker_set_key" : "const android::sp<android::hardware::hidl_binder_death_recipient> *",
   "name" : "const android::sp<android::hardware::hidl_binder_death_recipient> *",
   "referenced_type" : "type-1073",
   "self_type" : "type-1260",
   "size" : 8,
   "source_file" : "/system/core/libutils/include/utils/StrongPointer.h"
  },
  {
   "alignment" : 8,
   "linker_set_key" : "const android::sp<android::hardware::hidl_death_recipient> *",
   "name" : "const android::sp<android::hardware::hidl_death_recipient> *",
   "referenced_type" : "type-1085",
   "self_type" : "type-1099",
   "size" : 8,
   "source_file" : "/system/core/libutils/include/utils/StrongPointer.h"
  },
  {
   "alignment" : 8,
   "linker_set_key" : "const android::sp<android::hardware::wifi::V1_0::IWifi> *",
   "name" : "const android::sp<android::hardware::wifi::V1_0::IWifi> *",
   "referenced_type" : "type-1241",
   "self_type" : "type-1243",
   "size" : 8,
   "source_file" : "/system/core/libutils/include/utils/StrongPointer.h"
  },
  {
   "alignment" : 8,
   "linker_set_key" : "const android::sp<android::hardware::wifi::V1_0::IWifiApIface> *",
   "name" : "const android::sp<android::hardware::wifi::V1_0::IWifiApIface> *",
   "referenced_type" : "type-1179",
   "self_type" : "type-1181",
   "size" : 8,
   "source_file" : "/system/core/libutils/include/utils/StrongPointer.h"
  },
  {
   "alignment" : 8,
   "linker_set_key" : "const android::sp<android::hardware::wifi::V1_0::IWifiChip> *",
   "name" : "const android::sp<android::hardware::wifi::V1_0::IWifiChip> *",
   "referenced_type" : "type-1111",
   "self_type" : "type-1230",
   "size" : 8,
   "source_file" : "/system/core/libutils/include/utils/StrongPointer.h"
  },
  {
   "alignment" : 8,
   "linker_set_key" : "const android::sp<android::hardware::wifi::V1_0::IWifiChipEventCallback> *",
   "name" : "const android::sp<android::hardware::wifi::V1_0::IWifiChipEventCallback> *",
   "referenced_type" : "type-1185",
   "self_type" : "type-1187",
   "size" : 8,
   "source_file" : "/system/core/libutils/include/utils/StrongPointer.h"
  },
  {
   "alignment" : 8,
   "linker_set_key" : "const android::sp<android::hardware::wifi::V1_0::IWifiEventCallback> *",
   "name" : "const android::sp<android::hardware::wifi::V1_0::IWifiEventCallback> *",
   "referenced_type" : "type-1109",
   "self_type" : "type-1236",
   "size" : 8,
   "source_file" : "/system/core/libutils/include/utils/StrongPointer.h"
  },
  {
   "alignment" : 8,
   "linker_set_key" : "const android::sp<android::hardware::wifi::V1_0::IWifiIface> *",
   "name" : "const android::sp<android::hardware::wifi::V1_0::IWifiIface> *",
   "referenced_type" : "type-1175",
   "self_type" : "type-1177",
   "size" : 8,
   "source_file" : "/system/core/libutils/include/utils/StrongPointer.h"
  },
  {
   "alignment" : 8,
   "linker_set_key" : "const android::sp<android::hardware::wifi::V1_0::IWifiNanIface> *",
   "name" : "const android::sp<android::hardware::wifi::V1_0::IWifiNanIface> *",
   "referenced_type" : "type-1195",
   "self_type" : "type-1197",
   "size" : 8,
   "source_file" : "/system/core/libutils/include/utils/StrongPointer.h"
  },
  {
   "alignment" : 8,
   "linker_set_key" : "const android::sp<android::hardware::wifi::V1_0::IWifiNanIfaceEventCallback> *",
   "name" : "const android::sp<android::hardware::wifi::V1_0::IWifiNanIfaceEventCallback> *",
   "referenced_type" : "type-1189",
   "self_type" : "type-1192",
   "size" : 8,
   "source_file" : "/system/core/libutils/include/utils/StrongPointer.h"
  },
  {
   "alignment" : 8,
   "linker_set_key" : "const android::sp<android::hardware::wifi::V1_0::IWifiP2pIface> *",
   "name" : "const android::sp<android::hardware::wifi::V1_0::IWifiP2pIface> *",
   "referenced_type" : "type-1200",
   "self_type" : "type-1202",
   "size" : 8,
   "source_file" : "/system/core/libutils/include/utils/StrongPointer.h"
  },
  {
   "alignment" : 8,
   "linker_set_key" : "const android::sp<android::hardware::wifi::V1_0::IWifiRttController> *",
   "name" : "const android::sp<android::hardware::wifi::V1_0::IWifiRttController> *",
   "referenced_type" : "type-1210",
   "self_type" : "type-1212",
   "size" : 8,
   "source_file" : "/system/core/libutils/include/utils/StrongPointer.h"
  },
  {
   "alignment" : 8,
   "linker_set_key" : "const android::sp<android::hardware::wifi::V1_0::IWifiRttControllerEventCallback> *",
   "name" : "const android::sp<android::hardware::wifi::V1_0::IWifiRttControllerEventCallback> *",
   "referenced_type" : "type-1204",
   "self_type" : "type-1208",
   "size" : 8,
   "source_file" : "/system/core/libutils/include/utils/StrongPointer.h"
  },
  {
   "alignment" : 8,
   "linker_set_key" : "const android::sp<android::hardware::wifi::V1_0::IWifiStaIface> *",
   "name" : "const android::sp<android::hardware::wifi::V1_0::IWifiStaIface> *",
   "referenced_type" : "type-1223",
   "self_type" : "type-1225",
   "size" : 8,
   "source_file" : "/system/core/libutils/include/utils/StrongPointer.h"
  },
  {
   "alignment" : 8,
   "linker_set_key" : "const android::sp<android::hardware::wifi::V1_0::IWifiStaIfaceEventCallback> *",
   "name" : "const android::sp<android::hardware::wifi::V1_0::IWifiStaIfaceEventCallback> *",
   "referenced_type" : "type-1219",
   "self_type" : "type-1221",
   "size" : 8,
   "source_file" : "/system/core/libutils/include/utils/StrongPointer.h"
  },
  {
   "alignment" : 8,
   "linker_set_key" : "const android::sp<android::hardware::wifi::V1_1::IWifi> *",
   "name" : "const android::sp<android::hardware::wifi::V1_1::IWifi> *",
   "referenced_type" : "type-1245",
   "self_type" : "type-1247",
   "size" : 8,
   "source_file" : "/system/core/libutils/include/utils/StrongPointer.h"
  },
  {
   "alignment" : 8,
   "linker_set_key" : "const android::sp<android::hardware::wifi::V1_1::IWifiChip> *",
   "name" : "const android::sp<android::hardware::wifi::V1_1::IWifiChip> *",
   "referenced_type" : "type-523",
   "self_type" : "type-525",
   "size" : 8,
   "source_file" : "/system/core/libutils/include/utils/StrongPointer.h"
  },
  {
   "alignment" : 8,
   "linker_set_key" : "const android::sp<android::hardware::wifi::V1_2::IWifi> *",
   "name" : "const android::sp<android::hardware::wifi::V1_2::IWifi> *",
   "referenced_type" : "type-1249",
   "self_type" : "type-1251",
   "size" : 8,
   "source_file" : "/system/core/libutils/include/utils/StrongPointer.h"
  },
  {
   "alignment" : 8,
   "linker_set_key" : "const android::sp<android::hardware::wifi::V1_2::IWifiChip> *",
   "name" : "const android::sp<android::hardware::wifi::V1_2::IWifiChip> *",
   "referenced_type" : "type-534",
   "self_type" : "type-536",
   "size" : 8,
   "source_file" : "/system/core/libutils/include/utils/StrongPointer.h"
  },
  {
   "alignment" : 8,
   "linker_set_key" : "const android::sp<android::hardware::wifi::V1_2::IWifiChipEventCallback> *",
   "name" : "const android::sp<android::hardware::wifi::V1_2::IWifiChipEventCallback> *",
   "referenced_type" : "type-477",
   "self_type" : "type-529",
   "size" : 8,
   "source_file" : "/system/core/libutils/include/utils/StrongPointer.h"
  },
  {
   "alignment" : 8,
   "linker_set_key" : "const android::sp<android::hardware::wifi::V1_2::IWifiStaIface> *",
   "name" : "const android::sp<android::hardware::wifi::V1_2::IWifiStaIface> *",
   "referenced_type" : "type-705",
   "self_type" : "type-708",
   "size" : 8,
   "source_file" : "/system/core/libutils/include/utils/StrongPointer.h"
  },
  {
   "alignment" : 8,
   "linker_set_key" : "const android::sp<android::hardware::wifi::V1_3::IWifi> *",
   "name" : "const android::sp<android::hardware::wifi::V1_3::IWifi> *",
   "referenced_type" : "type-1061",
   "self_type" : "type-1255",
   "size" : 8,
   "source_file" : "/system/core/libutils/include/utils/StrongPointer.h"
  },
  {
   "alignment" : 8,
   "linker_set_key" : "const android::sp<android::hardware::wifi::V1_3::IWifiChip> *",
   "name" : "const android::sp<android::hardware::wifi::V1_3::IWifiChip> *",
   "referenced_type" : "type-461",
   "self_type" : "type-540",
   "size" : 8,
   "source_file" : "/system/core/libutils/include/utils/StrongPointer.h"
  },
  {
   "alignment" : 8,
   "linker_set_key" : "const android::sp<android::hardware::wifi::V1_3::IWifiStaIface> *",
   "name" : "const android::sp<android::hardware::wifi::V1_3::IWifiStaIface> *",
   "referenced_type" : "type-675",
   "self_type" : "type-712",
   "size" : 8,
   "source_file" : "/system/core/libutils/include/utils/StrongPointer.h"
  },
  {
   "alignment" : 8,
   "linker_set_key" : "const android::sp<android::hidl::base::V1_0::IBase> *",
   "name" : "const android::sp<android::hidl::base::V1_0::IBase> *",
   "referenced_type" : "type-1104",
   "self_type" : "type-1114",
   "size" : 8,
   "source_file" : "/system/core/libutils/include/utils/StrongPointer.h"
  },
  {
   "alignment" : 8,
   "linker_set_key" : "const android::sp<android::hidl::manager::V1_0::IServiceManager> *",
   "name" : "const android::sp<android::hidl::manager::V1_0::IServiceManager> *",
   "referenced_type" : "type-1158",
   "self_type" : "type-1159",
   "size" : 8,
   "source_file" : "/system/core/libutils/include/utils/StrongPointer.h"
  },
  {
   "alignment" : 8,
   "linker_set_key" : "const android::sp<android::hidl::manager::V1_0::IServiceNotification> *",
   "name" : "const android::sp<android::hidl::manager::V1_0::IServiceNotification> *",
   "referenced_type" : "type-111",
   "self_type" : "type-1173",
   "size" : 8,
   "source_file" : "/system/core/libutils/include/utils/StrongPointer.h"
  },
  {
   "alignment" : 8,
   "linker_set_key" : "const android::wp<android::hardware::BHwBinder> *",
   "name" : "const android::wp<android::hardware::BHwBinder> *",
   "referenced_type" : "type-1095",
   "self_type" : "type-1096",
   "size" : 8,
   "source_file" : "/system/core/libutils/include/utils/RefBase.h"
  },
  {
   "alignment" : 8,
   "linker_set_key" : "const android::wp<android::hardware::hidl_death_recipient> *",
   "name" : "const android::wp<android::hardware::hidl_death_recipient> *",
   "referenced_type" : "type-1083",
   "self_type" : "type-1084",
   "size" : 8,
   "source_file" : "/system/core/libutils/include/utils/RefBase.h"
  },
  {
   "alignment" : 8,
   "linker_set_key" : "const android::wp<android::hidl::base::V1_0::IBase> *",
   "name" : "const android::wp<android::hidl::base::V1_0::IBase> *",
   "referenced_type" : "type-1065",
   "self_type" : "type-1066",
   "size" : 8,
   "source_file" : "/system/core/libutils/include/utils/RefBase.h"
  },
  {
   "alignment" : 8,
   "linker_set_key" : "const bool *",
   "name" : "const bool *",
   "referenced_type" : "type-1166",
   "self_type" : "type-1480",
   "size" : 8,
   "source_file" : "/system/libhidl/base/include/hidl/HidlSupport.h"
  },
  {
   "alignment" : 8,
   "linker_set_key" : "const char *",
   "name" : "const char *",
   "referenced_type" : "type-13",
   "self_type" : "type-12",
   "size" : 8,
   "source_file" : "/system/libhidl/base/include/hidl/HidlInternal.h"
  },
  {
   "alignment" : 8,
   "linker_set_key" : "const char16_t *",
   "name" : "const char16_t *",
   "referenced_type" : "type-1138",
   "self_type" : "type-1137",
   "size" : 8,
   "source_file" : "/system/core/libutils/include/utils/String16.h"
  },
  {
   "alignment" : 8,
   "linker_set_key" : "const log_msg *",
   "name" : "const log_msg *",
   "referenced_type" : "type-1081",
   "self_type" : "type-1088",
   "size" : 8,
   "source_file" : "/system/core/liblog/include/log/log_read.h"
  },
  {
   "alignment" : 8,
   "linker_set_key" : "const native_handle *",
   "name" : "const native_handle *",
   "referenced_type" : "type-1216",
   "self_type" : "type-1215",
   "size" : 8,
   "source_file" : "/system/libhidl/base/include/hidl/HidlInternal.h"
  },
  {
   "alignment" : 8,
   "linker_set_key" : "const signed char *",
   "name" : "const signed char *",
   "referenced_type" : "type-1374",
   "self_type" : "type-1497",
   "size" : 8,
   "source_file" : "/system/libhidl/base/include/hidl/HidlSupport.h"
  },
  {
   "alignment" : 8,
   "linker_set_key" : "const unsigned char *",
   "name" : "const unsigned char *",
   "referenced_type" : "type-1454",
   "self_type" : "type-1469",
   "size" : 8,
   "source_file" : "/system/libhidl/base/include/hidl/HidlSupport.h"
  },
  {
   "alignment" : 8,
   "linker_set_key" : "const unsigned int *",
   "name" : "const unsigned int *",
   "referenced_type" : "type-1129",
   "self_type" : "type-1475",
   "size" : 8,
   "source_file" : "/system/libhidl/base/include/hidl/HidlSupport.h"
  },
  {
   "alignment" : 8,
   "linker_set_key" : "const unsigned long long *",
   "name" : "const unsigned long long *",
   "referenced_type" : "type-1577",
   "self_type" : "type-1576",
   "size" : 8,
   "source_file" : "/system/libhwbinder/include/hwbinder/Parcel.h"
  },
  {
   "alignment" : 8,
   "linker_set_key" : "const void *",
   "name" : "const void *",
   "referenced_type" : "type-1529",
   "self_type" : "type-1530",
   "size" : 8,
   "source_file" : "/system/libhidl/base/include/hidl/HidlSupport.h"
  },
  {
   "alignment" : 8,
   "linker_set_key" : "int (*)(void *)",
   "name" : "int (*)(void *)",
   "referenced_type" : "type-1662",
   "self_type" : "type-1663",
   "size" : 8,
   "source_file" : "/system/core/libutils/include/utils/AndroidThreads.h"
  },
  {
   "alignment" : 8,
   "linker_set_key" : "int *",
   "name" : "int *",
   "referenced_type" : "type-23",
   "self_type" : "type-1366",
   "size" : 8,
   "source_file" : "/system/libhidl/base/include/hidl/HidlInternal.h"
  },
  {
   "alignment" : 8,
   "linker_set_key" : "log_msg *",
   "name" : "log_msg *",
   "referenced_type" : "type-1032",
   "self_type" : "type-1113",
   "size" : 8,
   "source_file" : "/system/core/liblog/include/log/log_read.h"
  },
  {
   "alignment" : 8,
   "linker_set_key" : "native_handle *",
   "name" : "native_handle *",
   "referenced_type" : "type-1170",
   "self_type" : "type-1305",
   "size" : 8,
   "source_file" : "/system/libhidl/base/include/hidl/HidlInternal.h"
  },
  {
   "alignment" : 8,
   "linker_set_key" : "unsigned char *",
   "name" : "unsigned char *",
   "referenced_type" : "type-5",
   "self_type" : "type-55",
   "size" : 8,
   "source_file" : "/system/libhidl/base/include/hidl/HidlInternal.h"
  },
  {
   "alignment" : 8,
   "linker_set_key" : "unsigned int *",
   "name" : "unsigned int *",
   "referenced_type" : "type-2",
   "self_type" : "type-36",
   "size" : 8,
   "source_file" : "/system/libhidl/base/include/hidl/HidlInternal.h"
  },
  {
   "alignment" : 8,
   "linker_set_key" : "unsigned long *",
   "name" : "unsigned long *",
   "referenced_type" : "type-15",
   "self_type" : "type-947",
   "size" : 8,
   "source_file" : "/system/libhidl/transport/include/hidl/HidlBinderSupport.h"
  },
  {
   "alignment" : 8,
   "linker_set_key" : "unsigned long long *",
   "name" : "unsigned long long *",
   "referenced_type" : "type-1356",
   "self_type" : "type-1572",
   "size" : 8,
   "source_file" : "/system/libhwbinder/include/hwbinder/Parcel.h"
  },
  {
   "alignment" : 8,
   "linker_set_key" : "void (*)(android::hardware::Parcel *, const unsigned char *, unsigned long, const unsigned long long *, unsigned long, void *)",
   "name" : "void (*)(android::hardware::Parcel *, const unsigned char *, unsigned long, const unsigned long long *, unsigned long, void *)",
   "referenced_type" : "type-1574",
   "self_type" : "type-1573",
   "size" : 8,
   "source_file" : "/system/libhwbinder/include/hwbinder/Parcel.h"
  },
  {
   "alignment" : 8,
   "linker_set_key" : "void *",
   "name" : "void *",
   "referenced_type" : "type-311",
   "self_type" : "type-310",
   "size" : 8,
   "source_file" : "/system/libhwbinder/include/hwbinder/Binder.h"
  },
  {
   "alignment" : 8,
   "linker_set_key" : "void **",
   "name" : "void **",
   "referenced_type" : "type-310",
   "self_type" : "type-1664",
   "size" : 8,
   "source_file" : "/system/core/libutils/include/utils/AndroidThreads.h"
  }
 ],
 "qualified_types" :
 [
  {
   "alignment" : 8,
   "is_const" : true,
   "linker_set_key" : "android::RefBase::weakref_impl *const",
   "name" : "android::RefBase::weakref_impl *const",
   "referenced_type" : "type-118",
   "self_type" : "type-117",
   "size" : 8,
   "source_file" : "/system/core/libutils/include/utils/RefBase.h"
  },
  {
   "alignment" : 8,
   "is_const" : true,
   "linker_set_key" : "android::RefBase::weakref_impl *const",
   "name" : "android::RefBase::weakref_impl *const",
   "referenced_type" : "type-556",
   "self_type" : "type-558",
   "size" : 8,
   "source_file" : "/system/core/libutils/include/utils/RefBase.h"
  },
  {
   "alignment" : 8,
   "is_const" : true,
   "linker_set_key" : "android::RefBase::weakref_impl *const",
   "name" : "android::RefBase::weakref_impl *const",
   "referenced_type" : "type-724",
   "self_type" : "type-726",
   "size" : 8,
   "source_file" : "/system/core/libutils/include/utils/RefBase.h"
  },
  {
   "alignment" : 8,
   "is_const" : true,
   "linker_set_key" : "android::RefBase::weakref_impl *const",
   "name" : "android::RefBase::weakref_impl *const",
   "referenced_type" : "type-916",
   "self_type" : "type-918",
   "size" : 8,
   "source_file" : "/system/core/libutils/include/utils/RefBase.h"
  },
  {
   "alignment" : 8,
   "is_const" : true,
   "linker_set_key" : "android::hardware::IBinder *const",
   "name" : "android::hardware::IBinder *const",
   "referenced_type" : "type-183",
   "self_type" : "type-182",
   "size" : 8,
   "source_file" : "/system/libhwbinder/include/hwbinder/Binder.h"
  },
  {
   "alignment" : 8,
   "is_const" : true,
   "linker_set_key" : "const android::NativeHandle",
   "name" : "const android::NativeHandle",
   "referenced_type" : "type-1304",
   "self_type" : "type-1545",
   "size" : 24,
   "source_file" : "/system/core/libutils/include/utils/NativeHandle.h"
  },
  {
   "alignment" : 8,
   "is_const" : true,
   "linker_set_key" : "const android::RefBase",
   "name" : "const android::RefBase",
   "referenced_type" : "type-116",
   "self_type" : "type-1389",
   "size" : 16,
   "source_file" : "/system/core/libutils/include/utils/RefBase.h"
  },
  {
   "alignment" : 8,
   "is_const" : true,
   "linker_set_key" : "const android::String16",
   "name" : "const android::String16",
   "referenced_type" : "type-1136",
   "self_type" : "type-1135",
   "size" : 8,
   "source_file" : "/system/core/libutils/include/utils/String16.h"
  },
  {
   "alignment" : 8,
   "is_const" : true,
   "linker_set_key" : "const android::String8",
   "name" : "const android::String8",
   "referenced_type" : "type-1145",
   "self_type" : "type-1556",
   "size" : 8,
   "source_file" : "/system/core/libutils/include/utils/String8.h"
  },
  {
   "alignment" : 8,
   "is_const" : true,
   "linker_set_key" : "const android::VectorImpl",
   "name" : "const android::VectorImpl",
   "referenced_type" : "type-1128",
   "self_type" : "type-1632",
   "size" : 40,
   "source_file" : "/system/core/libutils/include/utils/VectorImpl.h"
  },
  {
   "alignment" : 8,
   "is_const" : true,
   "linker_set_key" : "const android::hardware::BpHwRefBase",
   "name" : "const android::hardware::BpHwRefBase",
   "referenced_type" : "type-181",
   "self_type" : "type-1567",
   "size" : 48,
   "source_file" : "/system/libhwbinder/include/hwbinder/Binder.h"
  },
  {
   "alignment" : 8,
   "is_const" : true,
   "linker_set_key" : "const android::hardware::ConcurrentMap<android::wp<android::hidl::base::V1_0::IBase>, android::hardware::details::SchedPrio>",
   "name" : "const android::hardware::ConcurrentMap<android::wp<android::hidl::base::V1_0::IBase>, android::hardware::details::SchedPrio>",
   "referenced_type" : "type-1591",
   "self_type" : "type-1597",
   "size" : 64,
   "source_file" : "/system/libhidl/transport/include/hidl/ConcurrentMap.h"
  },
  {
   "alignment" : 8,
   "is_const" : true,
   "linker_set_key" : "const android::hardware::ConcurrentMap<android::wp<android::hidl::base::V1_0::IBase>, bool>",
   "name" : "const android::hardware::ConcurrentMap<android::wp<android::hidl::base::V1_0::IBase>, bool>",
   "referenced_type" : "type-1600",
   "self_type" : "type-1603",
   "size" : 64,
   "source_file" : "/system/libhidl/transport/include/hidl/ConcurrentMap.h"
  },
  {
   "alignment" : 8,
   "is_const" : true,
   "linker_set_key" : "const android::hardware::Parcel",
   "name" : "const android::hardware::Parcel",
   "referenced_type" : "type-1570",
   "self_type" : "type-1584",
   "size" : 136,
   "source_file" : "/system/libhwbinder/include/hwbinder/Parcel.h"
  },
  {
   "alignment" : 8,
   "is_const" : true,
   "linker_set_key" : "const android::hardware::Return<android::sp<android::hardware::wifi::V1_3::IWifi> >",
   "name" : "const android::hardware::Return<android::sp<android::hardware::wifi::V1_3::IWifi> >",
   "referenced_type" : "type-1276",
   "self_type" : "type-1282",
   "size" : 48,
   "source_file" : "/system/libhidl/base/include/hidl/Status.h"
  },
  {
   "alignment" : 8,
   "is_const" : true,
   "linker_set_key" : "const android::hardware::Return<android::sp<android::hardware::wifi::V1_3::IWifiChip> >",
   "name" : "const android::hardware::Return<android::sp<android::hardware::wifi::V1_3::IWifiChip> >",
   "referenced_type" : "type-546",
   "self_type" : "type-553",
   "size" : 48,
   "source_file" : "/system/libhidl/base/include/hidl/Status.h"
  },
  {
   "alignment" : 8,
   "is_const" : true,
   "linker_set_key" : "const android::hardware::Return<android::sp<android::hardware::wifi::V1_3::IWifiStaIface> >",
   "name" : "const android::hardware::Return<android::sp<android::hardware::wifi::V1_3::IWifiStaIface> >",
   "referenced_type" : "type-717",
   "self_type" : "type-721",
   "size" : 48,
   "source_file" : "/system/libhidl/base/include/hidl/Status.h"
  },
  {
   "alignment" : 8,
   "is_const" : true,
   "linker_set_key" : "const android::hardware::Return<bool>",
   "name" : "const android::hardware::Return<bool>",
   "referenced_type" : "type-1270",
   "self_type" : "type-1274",
   "size" : 40,
   "source_file" : "/system/libhidl/base/include/hidl/Status.h"
  },
  {
   "alignment" : 8,
   "is_const" : true,
   "linker_set_key" : "const android::hardware::Status",
   "name" : "const android::hardware::Status",
   "referenced_type" : "type-548",
   "self_type" : "type-1264",
   "size" : 32,
   "source_file" : "/system/libhidl/base/include/hidl/Status.h"
  },
  {
   "alignment" : 4,
   "is_const" : true,
   "linker_set_key" : "const android::hardware::details::SchedPrio",
   "name" : "const android::hardware::details::SchedPrio",
   "referenced_type" : "type-1594",
   "self_type" : "type-1596",
   "size" : 8,
   "source_file" : "/system/libhidl/transport/include/hidl/ConcurrentMap.h"
  },
  {
   "alignment" : 8,
   "is_const" : true,
   "linker_set_key" : "const android::hardware::details::const_accessor<android::hardware::wifi::V1_0::NanBandSpecificConfig, 2>",
   "name" : "const android::hardware::details::const_accessor<android::hardware::wifi::V1_0::NanBandSpecificConfig, 2>",
   "referenced_type" : "type-1485",
   "self_type" : "type-1490",
   "size" : 8,
   "source_file" : "/system/libhidl/base/include/hidl/HidlSupport.h"
  },
  {
   "alignment" : 8,
   "is_const" : true,
   "linker_set_key" : "const android::hardware::details::const_accessor<bool, 2>",
   "name" : "const android::hardware::details::const_accessor<bool, 2>",
   "referenced_type" : "type-1479",
   "self_type" : "type-1482",
   "size" : 8,
   "source_file" : "/system/libhidl/base/include/hidl/HidlSupport.h"
  },
  {
   "alignment" : 8,
   "is_const" : true,
   "linker_set_key" : "const android::hardware::details::const_accessor<signed char, 2>",
   "name" : "const android::hardware::details::const_accessor<signed char, 2>",
   "referenced_type" : "type-1496",
   "self_type" : "type-1501",
   "size" : 8,
   "source_file" : "/system/libhidl/base/include/hidl/HidlSupport.h"
  },
  {
   "alignment" : 8,
   "is_const" : true,
   "linker_set_key" : "const android::hardware::details::const_accessor<unsigned char, 32>",
   "name" : "const android::hardware::details::const_accessor<unsigned char, 32>",
   "referenced_type" : "type-1492",
   "self_type" : "type-1494",
   "size" : 8,
   "source_file" : "/system/libhidl/base/include/hidl/HidlSupport.h"
  },
  {
   "alignment" : 8,
   "is_const" : true,
   "linker_set_key" : "const android::hardware::details::const_accessor<unsigned char, 6>",
   "name" : "const android::hardware::details::const_accessor<unsigned char, 6>",
   "referenced_type" : "type-1468",
   "self_type" : "type-1471",
   "size" : 8,
   "source_file" : "/system/libhidl/base/include/hidl/HidlSupport.h"
  },
  {
   "alignment" : 8,
   "is_const" : true,
   "linker_set_key" : "const android::hardware::details::const_accessor<unsigned int, 2>",
   "name" : "const android::hardware::details::const_accessor<unsigned int, 2>",
   "referenced_type" : "type-1474",
   "self_type" : "type-1477",
   "size" : 8,
   "source_file" : "/system/libhidl/base/include/hidl/HidlSupport.h"
  },
  {
   "alignment" : 8,
   "is_const" : true,
   "linker_set_key" : "const android::hardware::details::hidl_pointer<android::hardware::hidl_array<unsigned char, 32> >",
   "name" : "const android::hardware::details::hidl_pointer<android::hardware::hidl_array<unsigned char, 32> >",
   "referenced_type" : "type-69",
   "self_type" : "type-951",
   "size" : 8,
   "source_file" : "/system/libhidl/base/include/hidl/HidlInternal.h"
  },
  {
   "alignment" : 8,
   "is_const" : true,
   "linker_set_key" : "const android::hardware::details::hidl_pointer<android::hardware::hidl_array<unsigned char, 6> >",
   "name" : "const android::hardware::details::hidl_pointer<android::hardware::hidl_array<unsigned char, 6> >",
   "referenced_type" : "type-65",
   "self_type" : "type-278",
   "size" : 8,
   "source_file" : "/system/libhidl/base/include/hidl/HidlInternal.h"
  },
  {
   "alignment" : 8,
   "is_const" : true,
   "linker_set_key" : "const android::hardware::details::hidl_pointer<android::hardware::hidl_string>",
   "name" : "const android::hardware::details::hidl_pointer<android::hardware::hidl_string>",
   "referenced_type" : "type-6",
   "self_type" : "type-1047",
   "size" : 8,
   "source_file" : "/system/libhidl/base/include/hidl/HidlInternal.h"
  },
  {
   "alignment" : 8,
   "is_const" : true,
   "linker_set_key" : "const android::hardware::details::hidl_pointer<android::hardware::wifi::V1_0::IWifiChip::ChipIfaceCombination>",
   "name" : "const android::hardware::details::hidl_pointer<android::hardware::wifi::V1_0::IWifiChip::ChipIfaceCombination>",
   "referenced_type" : "type-440",
   "self_type" : "type-1043",
   "size" : 8,
   "source_file" : "/system/libhidl/base/include/hidl/HidlInternal.h"
  },
  {
   "alignment" : 8,
   "is_const" : true,
   "linker_set_key" : "const android::hardware::details::hidl_pointer<android::hardware::wifi::V1_0::IWifiChip::ChipIfaceCombinationLimit>",
   "name" : "const android::hardware::details::hidl_pointer<android::hardware::wifi::V1_0::IWifiChip::ChipIfaceCombinationLimit>",
   "referenced_type" : "type-445",
   "self_type" : "type-1039",
   "size" : 8,
   "source_file" : "/system/libhidl/base/include/hidl/HidlInternal.h"
  },
  {
   "alignment" : 8,
   "is_const" : true,
   "linker_set_key" : "const android::hardware::details::hidl_pointer<android::hardware::wifi::V1_0::IfaceType>",
   "name" : "const android::hardware::details::hidl_pointer<android::hardware::wifi::V1_0::IfaceType>",
   "referenced_type" : "type-450",
   "self_type" : "type-1022",
   "size" : 8,
   "source_file" : "/system/libhidl/base/include/hidl/HidlInternal.h"
  },
  {
   "alignment" : 8,
   "is_const" : true,
   "linker_set_key" : "const android::hardware::details::hidl_pointer<android::hardware::wifi::V1_0::StaBackgroundScanBucketParameters>",
   "name" : "const android::hardware::details::hidl_pointer<android::hardware::wifi::V1_0::StaBackgroundScanBucketParameters>",
   "referenced_type" : "type-28",
   "self_type" : "type-1598",
   "size" : 8,
   "source_file" : "/system/libhidl/base/include/hidl/HidlInternal.h"
  },
  {
   "alignment" : 8,
   "is_const" : true,
   "linker_set_key" : "const android::hardware::details::hidl_pointer<android::hardware::wifi::V1_0::StaLinkLayerRadioStats>",
   "name" : "const android::hardware::details::hidl_pointer<android::hardware::wifi::V1_0::StaLinkLayerRadioStats>",
   "referenced_type" : "type-41",
   "self_type" : "type-1682",
   "size" : 8,
   "source_file" : "/system/libhidl/base/include/hidl/HidlInternal.h"
  },
  {
   "alignment" : 8,
   "is_const" : true,
   "linker_set_key" : "const android::hardware::details::hidl_pointer<android::hardware::wifi::V1_0::StaScanResult>",
   "name" : "const android::hardware::details::hidl_pointer<android::hardware::wifi::V1_0::StaScanResult>",
   "referenced_type" : "type-48",
   "self_type" : "type-246",
   "size" : 8,
   "source_file" : "/system/libhidl/base/include/hidl/HidlInternal.h"
  },
  {
   "alignment" : 8,
   "is_const" : true,
   "linker_set_key" : "const android::hardware::details::hidl_pointer<android::hardware::wifi::V1_0::WifiInformationElement>",
   "name" : "const android::hardware::details::hidl_pointer<android::hardware::wifi::V1_0::WifiInformationElement>",
   "referenced_type" : "type-58",
   "self_type" : "type-145",
   "size" : 8,
   "source_file" : "/system/libhidl/base/include/hidl/HidlInternal.h"
  },
  {
   "alignment" : 8,
   "is_const" : true,
   "linker_set_key" : "const android::hardware::details::hidl_pointer<android::hardware::wifi::V1_2::IWifiChipEventCallback::IfaceInfo>",
   "name" : "const android::hardware::details::hidl_pointer<android::hardware::wifi::V1_2::IWifiChipEventCallback::IfaceInfo>",
   "referenced_type" : "type-354",
   "self_type" : "type-433",
   "size" : 8,
   "source_file" : "/system/libhidl/base/include/hidl/HidlInternal.h"
  },
  {
   "alignment" : 8,
   "is_const" : true,
   "linker_set_key" : "const android::hardware::details::hidl_pointer<android::hardware::wifi::V1_3::StaLinkLayerRadioStats>",
   "name" : "const android::hardware::details::hidl_pointer<android::hardware::wifi::V1_3::StaLinkLayerRadioStats>",
   "referenced_type" : "type-656",
   "self_type" : "type-663",
   "size" : 8,
   "source_file" : "/system/libhidl/base/include/hidl/HidlInternal.h"
  },
  {
   "alignment" : 8,
   "is_const" : true,
   "linker_set_key" : "const android::hardware::details::hidl_pointer<android::hardware::wifi::V1_3::WifiChannelStats>",
   "name" : "const android::hardware::details::hidl_pointer<android::hardware::wifi::V1_3::WifiChannelStats>",
   "referenced_type" : "type-647",
   "self_type" : "type-654",
   "size" : 8,
   "source_file" : "/system/libhidl/base/include/hidl/HidlInternal.h"
  },
  {
   "alignment" : 8,
   "is_const" : true,
   "linker_set_key" : "const android::hardware::details::hidl_pointer<int>",
   "name" : "const android::hardware::details::hidl_pointer<int>",
   "referenced_type" : "type-1364",
   "self_type" : "type-1411",
   "size" : 8,
   "source_file" : "/system/libhidl/base/include/hidl/HidlInternal.h"
  },
  {
   "alignment" : 8,
   "is_const" : true,
   "linker_set_key" : "const android::hardware::details::hidl_pointer<unsigned char>",
   "name" : "const android::hardware::details::hidl_pointer<unsigned char>",
   "referenced_type" : "type-53",
   "self_type" : "type-1473",
   "size" : 8,
   "source_file" : "/system/libhidl/base/include/hidl/HidlInternal.h"
  },
  {
   "alignment" : 8,
   "is_const" : true,
   "linker_set_key" : "const android::hardware::details::hidl_pointer<unsigned int>",
   "name" : "const android::hardware::details::hidl_pointer<unsigned int>",
   "referenced_type" : "type-34",
   "self_type" : "type-1542",
   "size" : 8,
   "source_file" : "/system/libhidl/base/include/hidl/HidlInternal.h"
  },
  {
   "alignment" : 8,
   "is_const" : true,
   "linker_set_key" : "const android::hardware::details::return_status",
   "name" : "const android::hardware::details::return_status",
   "referenced_type" : "type-547",
   "self_type" : "type-1291",
   "size" : 40,
   "source_file" : "/system/libhidl/base/include/hidl/Status.h"
  },
  {
   "alignment" : 2,
   "is_const" : true,
   "linker_set_key" : "const android::hardware::hidl_array<android::hardware::wifi::V1_0::NanBandSpecificConfig, 2>",
   "name" : "const android::hardware::hidl_array<android::hardware::wifi::V1_0::NanBandSpecificConfig, 2>",
   "referenced_type" : "type-92",
   "self_type" : "type-1515",
   "size" : 16,
   "source_file" : "/system/libhidl/base/include/hidl/HidlSupport.h"
  },
  {
   "alignment" : 1,
   "is_const" : true,
   "linker_set_key" : "const android::hardware::hidl_array<bool, 2>",
   "name" : "const android::hardware::hidl_array<bool, 2>",
   "referenced_type" : "type-89",
   "self_type" : "type-1510",
   "size" : 2,
   "source_file" : "/system/libhidl/base/include/hidl/HidlSupport.h"
  },
  {
   "alignment" : 1,
   "is_const" : true,
   "linker_set_key" : "const android::hardware::hidl_array<signed char, 2>",
   "name" : "const android::hardware::hidl_array<signed char, 2>",
   "referenced_type" : "type-140",
   "self_type" : "type-1520",
   "size" : 2,
   "source_file" : "/system/libhidl/base/include/hidl/HidlSupport.h"
  },
  {
   "alignment" : 1,
   "is_const" : true,
   "linker_set_key" : "const android::hardware::hidl_array<unsigned char, 32>",
   "name" : "const android::hardware::hidl_array<unsigned char, 32>",
   "referenced_type" : "type-72",
   "self_type" : "type-969",
   "size" : 32,
   "source_file" : "/system/libhidl/base/include/hidl/HidlInternal.h"
  },
  {
   "alignment" : 1,
   "is_const" : true,
   "linker_set_key" : "const android::hardware::hidl_array<unsigned char, 3>",
   "name" : "const android::hardware::hidl_array<unsigned char, 3>",
   "referenced_type" : "type-755",
   "self_type" : "type-893",
   "size" : 3,
   "source_file" : "/out/soong/.intermediates/hardware/interfaces/wifi/1.3/android.hardware.wifi@1.3_genc++_headers/gen/android/hardware/wifi/1.3/BpHwWifiStaIface.h"
  },
  {
   "alignment" : 1,
   "is_const" : true,
   "linker_set_key" : "const android::hardware::hidl_array<unsigned char, 6>",
   "name" : "const android::hardware::hidl_array<unsigned char, 6>",
   "referenced_type" : "type-3",
   "self_type" : "type-1499",
   "size" : 6,
   "source_file" : "/system/libhidl/base/include/hidl/HidlInternal.h"
  },
  {
   "alignment" : 4,
   "is_const" : true,
   "linker_set_key" : "const android::hardware::hidl_array<unsigned int, 2>",
   "name" : "const android::hardware::hidl_array<unsigned int, 2>",
   "referenced_type" : "type-87",
   "self_type" : "type-1506",
   "size" : 8,
   "source_file" : "/system/libhidl/base/include/hidl/HidlSupport.h"
  },
  {
   "alignment" : 8,
   "is_const" : true,
   "linker_set_key" : "const android::hardware::hidl_death_recipient",
   "name" : "const android::hardware::hidl_death_recipient",
   "referenced_type" : "type-1079",
   "self_type" : "type-1100",
   "size" : 24,
   "source_file" : "/system/core/libutils/include/utils/StrongPointer.h"
  },
  {
   "alignment" : 8,
   "is_const" : true,
   "linker_set_key" : "const android::hardware::hidl_handle",
   "name" : "const android::hardware::hidl_handle",
   "referenced_type" : "type-1395",
   "self_type" : "type-1539",
   "size" : 16,
   "source_file" : "/system/libhidl/base/include/hidl/HidlSupport.h"
  },
  {
   "alignment" : 8,
   "is_const" : true,
   "linker_set_key" : "const android::hardware::hidl_memory",
   "name" : "const android::hardware::hidl_memory",
   "referenced_type" : "type-1398",
   "self_type" : "type-1401",
   "size" : 40,
   "source_file" : "/system/libhidl/base/include/hidl/HidlSupport.h"
  },
  {
   "alignment" : 8,
   "is_const" : true,
   "linker_set_key" : "const android::hardware::hidl_string",
   "name" : "const android::hardware::hidl_string",
   "referenced_type" : "type-9",
   "self_type" : "type-1396",
   "size" : 16,
   "source_file" : "/system/libhidl/base/include/hidl/HidlSupport.h"
  },
  {
   "alignment" : 8,
   "is_const" : true,
   "linker_set_key" : "const android::hardware::hidl_vec<android::hardware::hidl_array<unsigned char, 32> >",
   "name" : "const android::hardware::hidl_vec<android::hardware::hidl_array<unsigned char, 32> >",
   "referenced_type" : "type-68",
   "self_type" : "type-1421",
   "size" : 16,
   "source_file" : "/system/libhidl/base/include/hidl/HidlSupport.h"
  },
  {
   "alignment" : 8,
   "is_const" : true,
   "linker_set_key" : "const android::hardware::hidl_vec<android::hardware::hidl_array<unsigned char, 6> >",
   "name" : "const android::hardware::hidl_vec<android::hardware::hidl_array<unsigned char, 6> >",
   "referenced_type" : "type-64",
   "self_type" : "type-1447",
   "size" : 16,
   "source_file" : "/system/libhidl/base/include/hidl/HidlSupport.h"
  },
  {
   "alignment" : 8,
   "is_const" : true,
   "linker_set_key" : "const android::hardware::hidl_vec<android::hardware::hidl_string>",
   "name" : "const android::hardware::hidl_vec<android::hardware::hidl_string>",
   "referenced_type" : "type-99",
   "self_type" : "type-98",
   "size" : 16,
   "source_file" : "/out/soong/.intermediates/hardware/interfaces/wifi/1.3/android.hardware.wifi@1.3_genc++_headers/gen/android/hardware/wifi/1.3/IWifi.h"
  },
  {
   "alignment" : 8,
   "is_const" : true,
   "linker_set_key" : "const android::hardware::hidl_vec<android::hardware::wifi::V1_0::IWifiChip::ChipIfaceCombination>",
   "name" : "const android::hardware::hidl_vec<android::hardware::wifi::V1_0::IWifiChip::ChipIfaceCombination>",
   "referenced_type" : "type-439",
   "self_type" : "type-1458",
   "size" : 16,
   "source_file" : "/system/libhidl/base/include/hidl/HidlSupport.h"
  },
  {
   "alignment" : 8,
   "is_const" : true,
   "linker_set_key" : "const android::hardware::hidl_vec<android::hardware::wifi::V1_0::IWifiChip::ChipIfaceCombinationLimit>",
   "name" : "const android::hardware::hidl_vec<android::hardware::wifi::V1_0::IWifiChip::ChipIfaceCombinationLimit>",
   "referenced_type" : "type-444",
   "self_type" : "type-1455",
   "size" : 16,
   "source_file" : "/system/libhidl/base/include/hidl/HidlSupport.h"
  },
  {
   "alignment" : 8,
   "is_const" : true,
   "linker_set_key" : "const android::hardware::hidl_vec<android::hardware::wifi::V1_0::IfaceType>",
   "name" : "const android::hardware::hidl_vec<android::hardware::wifi::V1_0::IfaceType>",
   "referenced_type" : "type-449",
   "self_type" : "type-1450",
   "size" : 16,
   "source_file" : "/system/libhidl/base/include/hidl/HidlSupport.h"
  },
  {
   "alignment" : 8,
   "is_const" : true,
   "linker_set_key" : "const android::hardware::hidl_vec<android::hardware::wifi::V1_0::StaBackgroundScanBucketParameters>",
   "name" : "const android::hardware::hidl_vec<android::hardware::wifi::V1_0::StaBackgroundScanBucketParameters>",
   "referenced_type" : "type-27",
   "self_type" : "type-1434",
   "size" : 16,
   "source_file" : "/system/libhidl/base/include/hidl/HidlSupport.h"
  },
  {
   "alignment" : 8,
   "is_const" : true,
   "linker_set_key" : "const android::hardware::hidl_vec<android::hardware::wifi::V1_0::StaLinkLayerRadioStats>",
   "name" : "const android::hardware::hidl_vec<android::hardware::wifi::V1_0::StaLinkLayerRadioStats>",
   "referenced_type" : "type-40",
   "self_type" : "type-1437",
   "size" : 16,
   "source_file" : "/system/libhidl/base/include/hidl/HidlSupport.h"
  },
  {
   "alignment" : 8,
   "is_const" : true,
   "linker_set_key" : "const android::hardware::hidl_vec<android::hardware::wifi::V1_0::StaScanResult>",
   "name" : "const android::hardware::hidl_vec<android::hardware::wifi::V1_0::StaScanResult>",
   "referenced_type" : "type-47",
   "self_type" : "type-1444",
   "size" : 16,
   "source_file" : "/system/libhidl/base/include/hidl/HidlSupport.h"
  },
  {
   "alignment" : 8,
   "is_const" : true,
   "linker_set_key" : "const android::hardware::hidl_vec<android::hardware::wifi::V1_0::WifiInformationElement>",
   "name" : "const android::hardware::hidl_vec<android::hardware::wifi::V1_0::WifiInformationElement>",
   "referenced_type" : "type-57",
   "self_type" : "type-1440",
   "size" : 16,
   "source_file" : "/system/libhidl/base/include/hidl/HidlSupport.h"
  },
  {
   "alignment" : 8,
   "is_const" : true,
   "linker_set_key" : "const android::hardware::hidl_vec<android::hardware::wifi::V1_2::IWifiChipEventCallback::IfaceInfo>",
   "name" : "const android::hardware::hidl_vec<android::hardware::wifi::V1_2::IWifiChipEventCallback::IfaceInfo>",
   "referenced_type" : "type-353",
   "self_type" : "type-572",
   "size" : 16,
   "source_file" : "/system/libhidl/base/include/hidl/HidlSupport.h"
  },
  {
   "alignment" : 8,
   "is_const" : true,
   "linker_set_key" : "const android::hardware::hidl_vec<android::hardware::wifi::V1_3::StaLinkLayerRadioStats>",
   "name" : "const android::hardware::hidl_vec<android::hardware::wifi::V1_3::StaLinkLayerRadioStats>",
   "referenced_type" : "type-744",
   "self_type" : "type-745",
   "size" : 16,
   "source_file" : "/system/libhidl/base/include/hidl/HidlSupport.h"
  },
  {
   "alignment" : 8,
   "is_const" : true,
   "linker_set_key" : "const android::hardware::hidl_vec<android::hardware::wifi::V1_3::WifiChannelStats>",
   "name" : "const android::hardware::hidl_vec<android::hardware::wifi::V1_3::WifiChannelStats>",
   "referenced_type" : "type-660",
   "self_type" : "type-741",
   "size" : 16,
   "source_file" : "/system/libhidl/base/include/hidl/HidlSupport.h"
  },
  {
   "alignment" : 8,
   "is_const" : true,
   "linker_set_key" : "const android::hardware::hidl_vec<int>",
   "name" : "const android::hardware::hidl_vec<int>",
   "referenced_type" : "type-1424",
   "self_type" : "type-1425",
   "size" : 16,
   "source_file" : "/system/libhidl/base/include/hidl/HidlSupport.h"
  },
  {
   "alignment" : 8,
   "is_const" : true,
   "linker_set_key" : "const android::hardware::hidl_vec<unsigned char>",
   "name" : "const android::hardware::hidl_vec<unsigned char>",
   "referenced_type" : "type-52",
   "self_type" : "type-1428",
   "size" : 16,
   "source_file" : "/system/libhidl/base/include/hidl/HidlSupport.h"
  },
  {
   "alignment" : 8,
   "is_const" : true,
   "linker_set_key" : "const android::hardware::hidl_vec<unsigned int>",
   "name" : "const android::hardware::hidl_vec<unsigned int>",
   "referenced_type" : "type-33",
   "self_type" : "type-1431",
   "size" : 16,
   "source_file" : "/system/libhidl/base/include/hidl/HidlSupport.h"
  },
  {
   "alignment" : 2,
   "is_const" : true,
   "linker_set_key" : "const android::hardware::hidl_version",
   "name" : "const android::hardware::hidl_version",
   "referenced_type" : "type-1524",
   "self_type" : "type-1526",
   "size" : 4,
   "source_file" : "/system/libhidl/base/include/hidl/HidlSupport.h"
  },
  {
   "alignment" : 8,
   "is_const" : true,
   "linker_set_key" : "const android::hardware::wifi::V1_0::BpHwWifi",
   "name" : "const android::hardware::wifi::V1_0::BpHwWifi",
   "referenced_type" : "type-894",
   "self_type" : "type-899",
   "size" : 216,
   "source_file" : "/out/soong/.intermediates/hardware/interfaces/wifi/1.0/android.hardware.wifi@1.0_genc++_headers/gen/android/hardware/wifi/1.0/BpHwWifi.h"
  },
  {
   "alignment" : 8,
   "is_const" : true,
   "linker_set_key" : "const android::hardware::wifi::V1_0::BpHwWifiApIface",
   "name" : "const android::hardware::wifi::V1_0::BpHwWifiApIface",
   "referenced_type" : "type-466",
   "self_type" : "type-479",
   "size" : 216,
   "source_file" : "/out/soong/.intermediates/hardware/interfaces/wifi/1.0/android.hardware.wifi@1.0_genc++_headers/gen/android/hardware/wifi/1.0/BpHwWifiApIface.h"
  },
  {
   "alignment" : 8,
   "is_const" : true,
   "linker_set_key" : "const android::hardware::wifi::V1_0::BpHwWifiChip",
   "name" : "const android::hardware::wifi::V1_0::BpHwWifiChip",
   "referenced_type" : "type-768",
   "self_type" : "type-782",
   "size" : 216,
   "source_file" : "/out/soong/.intermediates/hardware/interfaces/wifi/1.0/android.hardware.wifi@1.0_genc++_headers/gen/android/hardware/wifi/1.0/BpHwWifiChip.h"
  },
  {
   "alignment" : 8,
   "is_const" : true,
   "linker_set_key" : "const android::hardware::wifi::V1_0::BpHwWifiChipEventCallback",
   "name" : "const android::hardware::wifi::V1_0::BpHwWifiChipEventCallback",
   "referenced_type" : "type-508",
   "self_type" : "type-530",
   "size" : 216,
   "source_file" : "/out/soong/.intermediates/hardware/interfaces/wifi/1.0/android.hardware.wifi@1.0_genc++_headers/gen/android/hardware/wifi/1.0/BpHwWifiChipEventCallback.h"
  },
  {
   "alignment" : 8,
   "is_const" : true,
   "linker_set_key" : "const android::hardware::wifi::V1_0::BpHwWifiEventCallback",
   "name" : "const android::hardware::wifi::V1_0::BpHwWifiEventCallback",
   "referenced_type" : "type-809",
   "self_type" : "type-850",
   "size" : 216,
   "source_file" : "/out/soong/.intermediates/hardware/interfaces/wifi/1.0/android.hardware.wifi@1.0_genc++_headers/gen/android/hardware/wifi/1.0/BpHwWifiEventCallback.h"
  },
  {
   "alignment" : 8,
   "is_const" : true,
   "linker_set_key" : "const android::hardware::wifi::V1_0::BpHwWifiIface",
   "name" : "const android::hardware::wifi::V1_0::BpHwWifiIface",
   "referenced_type" : "type-383",
   "self_type" : "type-413",
   "size" : 216,
   "source_file" : "/out/soong/.intermediates/hardware/interfaces/wifi/1.0/android.hardware.wifi@1.0_genc++_headers/gen/android/hardware/wifi/1.0/BpHwWifiIface.h"
  },
  {
   "alignment" : 8,
   "is_const" : true,
   "linker_set_key" : "const android::hardware::wifi::V1_0::BpHwWifiNanIface",
   "name" : "const android::hardware::wifi::V1_0::BpHwWifiNanIface",
   "referenced_type" : "type-582",
   "self_type" : "type-592",
   "size" : 216,
   "source_file" : "/out/soong/.intermediates/hardware/interfaces/wifi/1.0/android.hardware.wifi@1.0_genc++_headers/gen/android/hardware/wifi/1.0/BpHwWifiNanIface.h"
  },
  {
   "alignment" : 8,
   "is_const" : true,
   "linker_set_key" : "const android::hardware::wifi::V1_0::BpHwWifiNanIfaceEventCallback",
   "name" : "const android::hardware::wifi::V1_0::BpHwWifiNanIfaceEventCallback",
   "referenced_type" : "type-566",
   "self_type" : "type-576",
   "size" : 216,
   "source_file" : "/out/soong/.intermediates/hardware/interfaces/wifi/1.0/android.hardware.wifi@1.0_genc++_headers/gen/android/hardware/wifi/1.0/BpHwWifiNanIfaceEventCallback.h"
  },
  {
   "alignment" : 8,
   "is_const" : true,
   "linker_set_key" : "const android::hardware::wifi::V1_0::BpHwWifiP2pIface",
   "name" : "const android::hardware::wifi::V1_0::BpHwWifiP2pIface",
   "referenced_type" : "type-606",
   "self_type" : "type-628",
   "size" : 216,
   "source_file" : "/out/soong/.intermediates/hardware/interfaces/wifi/1.0/android.hardware.wifi@1.0_genc++_headers/gen/android/hardware/wifi/1.0/BpHwWifiP2pIface.h"
  },
  {
   "alignment" : 8,
   "is_const" : true,
   "linker_set_key" : "const android::hardware::wifi::V1_0::BpHwWifiRttController",
   "name" : "const android::hardware::wifi::V1_0::BpHwWifiRttController",
   "referenced_type" : "type-680",
   "self_type" : "type-694",
   "size" : 216,
   "source_file" : "/out/soong/.intermediates/hardware/interfaces/wifi/1.0/android.hardware.wifi@1.0_genc++_headers/gen/android/hardware/wifi/1.0/BpHwWifiRttController.h"
  },
  {
   "alignment" : 8,
   "is_const" : true,
   "linker_set_key" : "const android::hardware::wifi::V1_0::BpHwWifiRttControllerEventCallback",
   "name" : "const android::hardware::wifi::V1_0::BpHwWifiRttControllerEventCallback",
   "referenced_type" : "type-641",
   "self_type" : "type-645",
   "size" : 216,
   "source_file" : "/out/soong/.intermediates/hardware/interfaces/wifi/1.0/android.hardware.wifi@1.0_genc++_headers/gen/android/hardware/wifi/1.0/BpHwWifiRttControllerEventCallback.h"
  },
  {
   "alignment" : 8,
   "is_const" : true,
   "linker_set_key" : "const android::hardware::wifi::V1_0::BpHwWifiStaIface",
   "name" : "const android::hardware::wifi::V1_0::BpHwWifiStaIface",
   "referenced_type" : "type-747",
   "self_type" : "type-753",
   "size" : 216,
   "source_file" : "/out/soong/.intermediates/hardware/interfaces/wifi/1.0/android.hardware.wifi@1.0_genc++_headers/gen/android/hardware/wifi/1.0/BpHwWifiStaIface.h"
  },
  {
   "alignment" : 8,
   "is_const" : true,
   "linker_set_key" : "const android::hardware::wifi::V1_0::BpHwWifiStaIfaceEventCallback",
   "name" : "const android::hardware::wifi::V1_0::BpHwWifiStaIfaceEventCallback",
   "referenced_type" : "type-713",
   "self_type" : "type-723",
   "size" : 216,
   "source_file" : "/out/soong/.intermediates/hardware/interfaces/wifi/1.0/android.hardware.wifi@1.0_genc++_headers/gen/android/hardware/wifi/1.0/BpHwWifiStaIfaceEventCallback.h"
  },
  {
   "alignment" : 8,
   "is_const" : true,
   "linker_set_key" : "const android::hardware::wifi::V1_0::IWifi",
   "name" : "const android::hardware::wifi::V1_0::IWifi",
   "referenced_type" : "type-871",
   "self_type" : "type-1555",
   "size" : 24,
   "source_file" : "/out/soong/.intermediates/hardware/interfaces/wifi/1.0/android.hardware.wifi@1.0_genc++_headers/gen/android/hardware/wifi/1.0/IWifi.h"
  },
  {
   "alignment" : 8,
   "is_const" : true,
   "linker_set_key" : "const android::hardware::wifi::V1_0::IWifiApIface",
   "name" : "const android::hardware::wifi::V1_0::IWifiApIface",
   "referenced_type" : "type-430",
   "self_type" : "type-821",
   "size" : 24,
   "source_file" : "/out/soong/.intermediates/hardware/interfaces/wifi/1.0/android.hardware.wifi@1.0_genc++_headers/gen/android/hardware/wifi/1.0/IWifiApIface.h"
  },
  {
   "alignment" : 8,
   "is_const" : true,
   "linker_set_key" : "const android::hardware::wifi::V1_0::IWifiChip",
   "name" : "const android::hardware::wifi::V1_0::IWifiChip",
   "referenced_type" : "type-344",
   "self_type" : "type-1231",
   "size" : 24,
   "source_file" : "/system/core/libutils/include/utils/StrongPointer.h"
  },
  {
   "alignment" : 4,
   "is_const" : true,
   "linker_set_key" : "const android::hardware::wifi::V1_0::IWifiChip::ChipCapabilityMask",
   "name" : "const android::hardware::wifi::V1_0::IWifiChip::ChipCapabilityMask",
   "referenced_type" : "type-1513",
   "self_type" : "type-1522",
   "size" : 4,
   "source_file" : "/out/soong/.intermediates/hardware/interfaces/wifi/1.0/android.hardware.wifi@1.0_genc++_headers/gen/android/hardware/wifi/1.0/IWifiChip.h"
  },
  {
   "alignment" : 8,
   "is_const" : true,
   "linker_set_key" : "const android::hardware::wifi::V1_0::IWifiChip::ChipIfaceCombination",
   "name" : "const android::hardware::wifi::V1_0::IWifiChip::ChipIfaceCombination",
   "referenced_type" : "type-443",
   "self_type" : "type-1042",
   "size" : 16,
   "source_file" : "/system/libhidl/base/include/hidl/HidlInternal.h"
  },
  {
   "alignment" : 8,
   "is_const" : true,
   "linker_set_key" : "const android::hardware::wifi::V1_0::IWifiChip::ChipIfaceCombinationLimit",
   "name" : "const android::hardware::wifi::V1_0::IWifiChip::ChipIfaceCombinationLimit",
   "referenced_type" : "type-448",
   "self_type" : "type-1037",
   "size" : 24,
   "source_file" : "/system/libhidl/base/include/hidl/HidlInternal.h"
  },
  {
   "alignment" : 8,
   "is_const" : true,
   "linker_set_key" : "const android::hardware::wifi::V1_0::IWifiChipEventCallback",
   "name" : "const android::hardware::wifi::V1_0::IWifiChipEventCallback",
   "referenced_type" : "type-401",
   "self_type" : "type-930",
   "size" : 24,
   "source_file" : "/out/soong/.intermediates/hardware/interfaces/wifi/1.0/android.hardware.wifi@1.0_genc++_headers/gen/android/hardware/wifi/1.0/IWifiChipEventCallback.h"
  },
  {
   "alignment" : 8,
   "is_const" : true,
   "linker_set_key" : "const android::hardware::wifi::V1_0::IWifiEventCallback",
   "name" : "const android::hardware::wifi::V1_0::IWifiEventCallback",
   "referenced_type" : "type-791",
   "self_type" : "type-1238",
   "size" : 24,
   "source_file" : "/system/core/libutils/include/utils/StrongPointer.h"
  },
  {
   "alignment" : 8,
   "is_const" : true,
   "linker_set_key" : "const android::hardware::wifi::V1_0::IWifiIface",
   "name" : "const android::hardware::wifi::V1_0::IWifiIface",
   "referenced_type" : "type-304",
   "self_type" : "type-575",
   "size" : 24,
   "source_file" : "/out/soong/.intermediates/hardware/interfaces/wifi/1.0/android.hardware.wifi@1.0_genc++_headers/gen/android/hardware/wifi/1.0/IWifiIface.h"
  },
  {
   "alignment" : 8,
   "is_const" : true,
   "linker_set_key" : "const android::hardware::wifi::V1_0::IWifiNanIface",
   "name" : "const android::hardware::wifi::V1_0::IWifiNanIface",
   "referenced_type" : "type-498",
   "self_type" : "type-1071",
   "size" : 24,
   "source_file" : "/out/soong/.intermediates/hardware/interfaces/wifi/1.0/android.hardware.wifi@1.0_genc++_headers/gen/android/hardware/wifi/1.0/IWifiNanIface.h"
  },
  {
   "alignment" : 8,
   "is_const" : true,
   "linker_set_key" : "const android::hardware::wifi::V1_0::IWifiNanIfaceEventCallback",
   "name" : "const android::hardware::wifi::V1_0::IWifiNanIfaceEventCallback",
   "referenced_type" : "type-545",
   "self_type" : "type-1038",
   "size" : 24,
   "source_file" : "/out/soong/.intermediates/hardware/interfaces/wifi/1.0/android.hardware.wifi@1.0_genc++_headers/gen/android/hardware/wifi/1.0/IWifiNanIfaceEventCallback.h"
  },
  {
   "alignment" : 8,
   "is_const" : true,
   "linker_set_key" : "const android::hardware::wifi::V1_0::IWifiP2pIface",
   "name" : "const android::hardware::wifi::V1_0::IWifiP2pIface",
   "referenced_type" : "type-506",
   "self_type" : "type-1101",
   "size" : 24,
   "source_file" : "/out/soong/.intermediates/hardware/interfaces/wifi/1.0/android.hardware.wifi@1.0_genc++_headers/gen/android/hardware/wifi/1.0/IWifiP2pIface.h"
  },
  {
   "alignment" : 8,
   "is_const" : true,
   "linker_set_key" : "const android::hardware::wifi::V1_0::IWifiRttController",
   "name" : "const android::hardware::wifi::V1_0::IWifiRttController",
   "referenced_type" : "type-515",
   "self_type" : "type-1162",
   "size" : 24,
   "source_file" : "/out/soong/.intermediates/hardware/interfaces/wifi/1.0/android.hardware.wifi@1.0_genc++_headers/gen/android/hardware/wifi/1.0/IWifiRttController.h"
  },
  {
   "alignment" : 8,
   "is_const" : true,
   "linker_set_key" : "const android::hardware::wifi::V1_0::IWifiRttControllerEventCallback",
   "name" : "const android::hardware::wifi::V1_0::IWifiRttControllerEventCallback",
   "referenced_type" : "type-639",
   "self_type" : "type-1149",
   "size" : 24,
   "source_file" : "/out/soong/.intermediates/hardware/interfaces/wifi/1.0/android.hardware.wifi@1.0_genc++_headers/gen/android/hardware/wifi/1.0/IWifiRttControllerEventCallback.h"
  },
  {
   "alignment" : 8,
   "is_const" : true,
   "linker_set_key" : "const android::hardware::wifi::V1_0::IWifiStaIface",
   "name" : "const android::hardware::wifi::V1_0::IWifiStaIface",
   "referenced_type" : "type-520",
   "self_type" : "type-1237",
   "size" : 24,
   "source_file" : "/out/soong/.intermediates/hardware/interfaces/wifi/1.0/android.hardware.wifi@1.0_genc++_headers/gen/android/hardware/wifi/1.0/IWifiStaIface.h"
  },
  {
   "alignment" : 4,
   "is_const" : true,
   "linker_set_key" : "const android::hardware::wifi::V1_0::IWifiStaIface::StaIfaceCapabilityMask",
   "name" : "const android::hardware::wifi::V1_0::IWifiStaIface::StaIfaceCapabilityMask",
   "referenced_type" : "type-1226",
   "self_type" : "type-1267",
   "size" : 4,
   "source_file" : "/out/soong/.intermediates/hardware/interfaces/wifi/1.0/android.hardware.wifi@1.0_genc++_headers/gen/android/hardware/wifi/1.0/IWifiStaIface.h"
  },
  {
   "alignment" : 8,
   "is_const" : true,
   "linker_set_key" : "const android::hardware::wifi::V1_0::IWifiStaIfaceEventCallback",
   "name" : "const android::hardware::wifi::V1_0::IWifiStaIfaceEventCallback",
   "referenced_type" : "type-699",
   "self_type" : "type-1194",
   "size" : 24,
   "source_file" : "/out/soong/.intermediates/hardware/interfaces/wifi/1.0/android.hardware.wifi@1.0_genc++_headers/gen/android/hardware/wifi/1.0/IWifiStaIfaceEventCallback.h"
  },
  {
   "alignment" : 4,
   "is_const" : true,
   "linker_set_key" : "const android::hardware::wifi::V1_0::IfaceType",
   "name" : "const android::hardware::wifi::V1_0::IfaceType",
   "referenced_type" : "type-453",
   "self_type" : "type-1003",
   "size" : 4,
   "source_file" : "/system/libhidl/base/include/hidl/HidlInternal.h"
  },
  {
   "alignment" : 4,
   "is_const" : true,
   "linker_set_key" : "const android::hardware::wifi::V1_0::NanBandIndex",
   "name" : "const android::hardware::wifi::V1_0::NanBandIndex",
   "referenced_type" : "type-77",
   "self_type" : "type-172",
   "size" : 4,
   "source_file" : "/out/soong/.intermediates/hardware/interfaces/wifi/1.0/android.hardware.wifi@1.0_genc++_headers/gen/android/hardware/wifi/1.0/types.h"
  },
  {
   "alignment" : 2,
   "is_const" : true,
   "linker_set_key" : "const android::hardware::wifi::V1_0::NanBandSpecificConfig",
   "name" : "const android::hardware::wifi::V1_0::NanBandSpecificConfig",
   "referenced_type" : "type-94",
   "self_type" : "type-1487",
   "size" : 8,
   "source_file" : "/system/libhidl/base/include/hidl/HidlSupport.h"
  },
  {
   "alignment" : 4,
   "is_const" : true,
   "linker_set_key" : "const android::hardware::wifi::V1_0::NanCipherSuiteType",
   "name" : "const android::hardware::wifi::V1_0::NanCipherSuiteType",
   "referenced_type" : "type-96",
   "self_type" : "type-196",
   "size" : 4,
   "source_file" : "/out/soong/.intermediates/hardware/interfaces/wifi/1.0/android.hardware.wifi@1.0_genc++_headers/gen/android/hardware/wifi/1.0/types.h"
  },
  {
   "alignment" : 4,
   "is_const" : true,
   "linker_set_key" : "const android::hardware::wifi::V1_0::NanClusterEventType",
   "name" : "const android::hardware::wifi::V1_0::NanClusterEventType",
   "referenced_type" : "type-123",
   "self_type" : "type-198",
   "size" : 4,
   "source_file" : "/out/soong/.intermediates/hardware/interfaces/wifi/1.0/android.hardware.wifi@1.0_genc++_headers/gen/android/hardware/wifi/1.0/types.h"
  },
  {
   "alignment" : 4,
   "is_const" : true,
   "linker_set_key" : "const android::hardware::wifi::V1_0::NanDataPathChannelCfg",
   "name" : "const android::hardware::wifi::V1_0::NanDataPathChannelCfg",
   "referenced_type" : "type-84",
   "self_type" : "type-194",
   "size" : 4,
   "source_file" : "/out/soong/.intermediates/hardware/interfaces/wifi/1.0/android.hardware.wifi@1.0_genc++_headers/gen/android/hardware/wifi/1.0/types.h"
  },
  {
   "alignment" : 4,
   "is_const" : true,
   "linker_set_key" : "const android::hardware::wifi::V1_0::NanDataPathSecurityType",
   "name" : "const android::hardware::wifi::V1_0::NanDataPathSecurityType",
   "referenced_type" : "type-85",
   "self_type" : "type-195",
   "size" : 4,
   "source_file" : "/out/soong/.intermediates/hardware/interfaces/wifi/1.0/android.hardware.wifi@1.0_genc++_headers/gen/android/hardware/wifi/1.0/types.h"
  },
  {
   "alignment" : 4,
   "is_const" : true,
   "linker_set_key" : "const android::hardware::wifi::V1_0::NanMatchAlg",
   "name" : "const android::hardware::wifi::V1_0::NanMatchAlg",
   "referenced_type" : "type-79",
   "self_type" : "type-173",
   "size" : 4,
   "source_file" : "/out/soong/.intermediates/hardware/interfaces/wifi/1.0/android.hardware.wifi@1.0_genc++_headers/gen/android/hardware/wifi/1.0/types.h"
  },
  {
   "alignment" : 4,
   "is_const" : true,
   "linker_set_key" : "const android::hardware::wifi::V1_0::NanParamSizeLimits",
   "name" : "const android::hardware::wifi::V1_0::NanParamSizeLimits",
   "referenced_type" : "type-75",
   "self_type" : "type-170",
   "size" : 4,
   "source_file" : "/out/soong/.intermediates/hardware/interfaces/wifi/1.0/android.hardware.wifi@1.0_genc++_headers/gen/android/hardware/wifi/1.0/types.h"
  },
  {
   "alignment" : 4,
   "is_const" : true,
   "linker_set_key" : "const android::hardware::wifi::V1_0::NanPublishType",
   "name" : "const android::hardware::wifi::V1_0::NanPublishType",
   "referenced_type" : "type-80",
   "self_type" : "type-174",
   "size" : 4,
   "source_file" : "/out/soong/.intermediates/hardware/interfaces/wifi/1.0/android.hardware.wifi@1.0_genc++_headers/gen/android/hardware/wifi/1.0/types.h"
  },
  {
   "alignment" : 4,
   "is_const" : true,
   "linker_set_key" : "const android::hardware::wifi::V1_0::NanRangingIndication",
   "name" : "const android::hardware::wifi::V1_0::NanRangingIndication",
   "referenced_type" : "type-100",
   "self_type" : "type-197",
   "size" : 4,
   "source_file" : "/out/soong/.intermediates/hardware/interfaces/wifi/1.0/android.hardware.wifi@1.0_genc++_headers/gen/android/hardware/wifi/1.0/types.h"
  },
  {
   "alignment" : 4,
   "is_const" : true,
   "linker_set_key" : "const android::hardware::wifi::V1_0::NanSrfType",
   "name" : "const android::hardware::wifi::V1_0::NanSrfType",
   "referenced_type" : "type-83",
   "self_type" : "type-193",
   "size" : 4,
   "source_file" : "/out/soong/.intermediates/hardware/interfaces/wifi/1.0/android.hardware.wifi@1.0_genc++_headers/gen/android/hardware/wifi/1.0/types.h"
  },
  {
   "alignment" : 4,
   "is_const" : true,
   "linker_set_key" : "const android::hardware::wifi::V1_0::NanStatusType",
   "name" : "const android::hardware::wifi::V1_0::NanStatusType",
   "referenced_type" : "type-76",
   "self_type" : "type-171",
   "size" : 4,
   "source_file" : "/out/soong/.intermediates/hardware/interfaces/wifi/1.0/android.hardware.wifi@1.0_genc++_headers/gen/android/hardware/wifi/1.0/types.h"
  },
  {
   "alignment" : 4,
   "is_const" : true,
   "linker_set_key" : "const android::hardware::wifi::V1_0::NanSubscribeType",
   "name" : "const android::hardware::wifi::V1_0::NanSubscribeType",
   "referenced_type" : "type-82",
   "self_type" : "type-192",
   "size" : 4,
   "source_file" : "/out/soong/.intermediates/hardware/interfaces/wifi/1.0/android.hardware.wifi@1.0_genc++_headers/gen/android/hardware/wifi/1.0/types.h"
  },
  {
   "alignment" : 4,
   "is_const" : true,
   "linker_set_key" : "const android::hardware::wifi::V1_0::NanTxType",
   "name" : "const android::hardware::wifi::V1_0::NanTxType",
   "referenced_type" : "type-81",
   "self_type" : "type-175",
   "size" : 4,
   "source_file" : "/out/soong/.intermediates/hardware/interfaces/wifi/1.0/android.hardware.wifi@1.0_genc++_headers/gen/android/hardware/wifi/1.0/types.h"
  },
  {
   "alignment" : 4,
   "is_const" : true,
   "linker_set_key" : "const android::hardware::wifi::V1_0::RttBw",
   "name" : "const android::hardware::wifi::V1_0::RttBw",
   "referenced_type" : "type-129",
   "self_type" : "type-201",
   "size" : 4,
   "source_file" : "/out/soong/.intermediates/hardware/interfaces/wifi/1.0/android.hardware.wifi@1.0_genc++_headers/gen/android/hardware/wifi/1.0/types.h"
  },
  {
   "alignment" : 4,
   "is_const" : true,
   "linker_set_key" : "const android::hardware::wifi::V1_0::RttMotionPattern",
   "name" : "const android::hardware::wifi::V1_0::RttMotionPattern",
   "referenced_type" : "type-136",
   "self_type" : "type-204",
   "size" : 4,
   "source_file" : "/out/soong/.intermediates/hardware/interfaces/wifi/1.0/android.hardware.wifi@1.0_genc++_headers/gen/android/hardware/wifi/1.0/types.h"
  },
  {
   "alignment" : 4,
   "is_const" : true,
   "linker_set_key" : "const android::hardware::wifi::V1_0::RttPeerType",
   "name" : "const android::hardware::wifi::V1_0::RttPeerType",
   "referenced_type" : "type-128",
   "self_type" : "type-200",
   "size" : 4,
   "source_file" : "/out/soong/.intermediates/hardware/interfaces/wifi/1.0/android.hardware.wifi@1.0_genc++_headers/gen/android/hardware/wifi/1.0/types.h"
  },
  {
   "alignment" : 4,
   "is_const" : true,
   "linker_set_key" : "const android::hardware::wifi::V1_0::RttPreamble",
   "name" : "const android::hardware::wifi::V1_0::RttPreamble",
   "referenced_type" : "type-130",
   "self_type" : "type-202",
   "size" : 4,
   "source_file" : "/out/soong/.intermediates/hardware/interfaces/wifi/1.0/android.hardware.wifi@1.0_genc++_headers/gen/android/hardware/wifi/1.0/types.h"
  },
  {
   "alignment" : 4,
   "is_const" : true,
   "linker_set_key" : "const android::hardware::wifi::V1_0::RttStatus",
   "name" : "const android::hardware::wifi::V1_0::RttStatus",
   "referenced_type" : "type-127",
   "self_type" : "type-199",
   "size" : 4,
   "source_file" : "/out/soong/.intermediates/hardware/interfaces/wifi/1.0/android.hardware.wifi@1.0_genc++_headers/gen/android/hardware/wifi/1.0/types.h"
  },
  {
   "alignment" : 4,
   "is_const" : true,
   "linker_set_key" : "const android::hardware::wifi::V1_0::RttType",
   "name" : "const android::hardware::wifi::V1_0::RttType",
   "referenced_type" : "type-131",
   "self_type" : "type-203",
   "size" : 4,
   "source_file" : "/out/soong/.intermediates/hardware/interfaces/wifi/1.0/android.hardware.wifi@1.0_genc++_headers/gen/android/hardware/wifi/1.0/types.h"
  },
  {
   "alignment" : 4,
   "is_const" : true,
   "linker_set_key" : "const android::hardware::wifi::V1_0::StaBackgroundScanBucketEventReportSchemeMask",
   "name" : "const android::hardware::wifi::V1_0::StaBackgroundScanBucketEventReportSchemeMask",
   "referenced_type" : "type-24",
   "self_type" : "type-166",
   "size" : 4,
   "source_file" : "/out/soong/.intermediates/hardware/interfaces/wifi/1.0/android.hardware.wifi@1.0_genc++_headers/gen/android/hardware/wifi/1.0/types.h"
  },
  {
   "alignment" : 8,
   "is_const" : true,
   "linker_set_key" : "const android::hardware::wifi::V1_0::StaBackgroundScanBucketParameters",
   "name" : "const android::hardware::wifi::V1_0::StaBackgroundScanBucketParameters",
   "referenced_type" : "type-31",
   "self_type" : "type-1580",
   "size" : 48,
   "source_file" : "/system/libhidl/base/include/hidl/HidlInternal.h"
  },
  {
   "alignment" : 8,
   "is_const" : true,
   "linker_set_key" : "const android::hardware::wifi::V1_0::StaBackgroundScanParameters",
   "name" : "const android::hardware::wifi::V1_0::StaBackgroundScanParameters",
   "referenced_type" : "type-26",
   "self_type" : "type-889",
   "size" : 32,
   "source_file" : "/out/soong/.intermediates/hardware/interfaces/wifi/1.3/android.hardware.wifi@1.3_genc++_headers/gen/android/hardware/wifi/1.3/BpHwWifiStaIface.h"
  },
  {
   "alignment" : 8,
   "is_const" : true,
   "linker_set_key" : "const android::hardware::wifi::V1_0::StaLinkLayerRadioStats",
   "name" : "const android::hardware::wifi::V1_0::StaLinkLayerRadioStats",
   "referenced_type" : "type-44",
   "self_type" : "type-1666",
   "size" : 32,
   "source_file" : "/system/libhidl/base/include/hidl/HidlInternal.h"
  },
  {
   "alignment" : 8,
   "is_const" : true,
   "linker_set_key" : "const android::hardware::wifi::V1_0::StaRoamingConfig",
   "name" : "const android::hardware::wifi::V1_0::StaRoamingConfig",
   "referenced_type" : "type-63",
   "self_type" : "type-891",
   "size" : 32,
   "source_file" : "/out/soong/.intermediates/hardware/interfaces/wifi/1.3/android.hardware.wifi@1.3_genc++_headers/gen/android/hardware/wifi/1.3/BpHwWifiStaIface.h"
  },
  {
   "alignment" : 1,
   "is_const" : true,
   "linker_set_key" : "const android::hardware::wifi::V1_0::StaRoamingState",
   "name" : "const android::hardware::wifi::V1_0::StaRoamingState",
   "referenced_type" : "type-74",
   "self_type" : "type-169",
   "size" : 1,
   "source_file" : "/out/soong/.intermediates/hardware/interfaces/wifi/1.0/android.hardware.wifi@1.0_genc++_headers/gen/android/hardware/wifi/1.0/types.h"
  },
  {
   "alignment" : 4,
   "is_const" : true,
   "linker_set_key" : "const android::hardware::wifi::V1_0::StaScanDataFlagMask",
   "name" : "const android::hardware::wifi::V1_0::StaScanDataFlagMask",
   "referenced_type" : "type-45",
   "self_type" : "type-168",
   "size" : 4,
   "source_file" : "/out/soong/.intermediates/hardware/interfaces/wifi/1.0/android.hardware.wifi@1.0_genc++_headers/gen/android/hardware/wifi/1.0/types.h"
  },
  {
   "alignment" : 4,
   "is_const" : true,
   "linker_set_key" : "const android::hardware::wifi::V1_0::StaScanLimits",
   "name" : "const android::hardware::wifi::V1_0::StaScanLimits",
   "referenced_type" : "type-25",
   "self_type" : "type-167",
   "size" : 4,
   "source_file" : "/out/soong/.intermediates/hardware/interfaces/wifi/1.0/android.hardware.wifi@1.0_genc++_headers/gen/android/hardware/wifi/1.0/types.h"
  },
  {
   "alignment" : 8,
   "is_const" : true,
   "linker_set_key" : "const android::hardware::wifi::V1_0::StaScanResult",
   "name" : "const android::hardware::wifi::V1_0::StaScanResult",
   "referenced_type" : "type-51",
   "self_type" : "type-225",
   "size" : 64,
   "source_file" : "/system/libhidl/base/include/hidl/HidlInternal.h"
  },
  {
   "alignment" : 4,
   "is_const" : true,
   "linker_set_key" : "const android::hardware::wifi::V1_0::WifiBand",
   "name" : "const android::hardware::wifi::V1_0::WifiBand",
   "referenced_type" : "type-32",
   "self_type" : "type-165",
   "size" : 4,
   "source_file" : "/out/soong/.intermediates/hardware/interfaces/wifi/1.0/android.hardware.wifi@1.0_genc++_headers/gen/android/hardware/wifi/1.0/types.h"
  },
  {
   "alignment" : 4,
   "is_const" : true,
   "linker_set_key" : "const android::hardware::wifi::V1_0::WifiChannelWidthInMhz",
   "name" : "const android::hardware::wifi::V1_0::WifiChannelWidthInMhz",
   "referenced_type" : "type-20",
   "self_type" : "type-162",
   "size" : 4,
   "source_file" : "/out/soong/.intermediates/hardware/interfaces/wifi/1.0/android.hardware.wifi@1.0_genc++_headers/gen/android/hardware/wifi/1.0/types.h"
  },
  {
   "alignment" : 4,
   "is_const" : true,
   "linker_set_key" : "const android::hardware::wifi::V1_0::WifiDebugPacketFateFrameType",
   "name" : "const android::hardware::wifi::V1_0::WifiDebugPacketFateFrameType",
   "referenced_type" : "type-150",
   "self_type" : "type-209",
   "size" : 4,
   "source_file" : "/out/soong/.intermediates/hardware/interfaces/wifi/1.0/android.hardware.wifi@1.0_genc++_headers/gen/android/hardware/wifi/1.0/types.h"
  },
  {
   "alignment" : 4,
   "is_const" : true,
   "linker_set_key" : "const android::hardware::wifi::V1_0::WifiDebugRingBufferFlags",
   "name" : "const android::hardware::wifi::V1_0::WifiDebugRingBufferFlags",
   "referenced_type" : "type-144",
   "self_type" : "type-205",
   "size" : 4,
   "source_file" : "/out/soong/.intermediates/hardware/interfaces/wifi/1.0/android.hardware.wifi@1.0_genc++_headers/gen/android/hardware/wifi/1.0/types.h"
  },
  {
   "alignment" : 4,
   "is_const" : true,
   "linker_set_key" : "const android::hardware::wifi::V1_0::WifiDebugRingBufferVerboseLevel",
   "name" : "const android::hardware::wifi::V1_0::WifiDebugRingBufferVerboseLevel",
   "referenced_type" : "type-147",
   "self_type" : "type-206",
   "size" : 4,
   "source_file" : "/out/soong/.intermediates/hardware/interfaces/wifi/1.0/android.hardware.wifi@1.0_genc++_headers/gen/android/hardware/wifi/1.0/types.h"
  },
  {
   "alignment" : 4,
   "is_const" : true,
   "linker_set_key" : "const android::hardware::wifi::V1_0::WifiDebugRxPacketFate",
   "name" : "const android::hardware::wifi::V1_0::WifiDebugRxPacketFate",
   "referenced_type" : "type-149",
   "self_type" : "type-208",
   "size" : 4,
   "source_file" : "/out/soong/.intermediates/hardware/interfaces/wifi/1.0/android.hardware.wifi@1.0_genc++_headers/gen/android/hardware/wifi/1.0/types.h"
  },
  {
   "alignment" : 4,
   "is_const" : true,
   "linker_set_key" : "const android::hardware::wifi::V1_0::WifiDebugTxPacketFate",
   "name" : "const android::hardware::wifi::V1_0::WifiDebugTxPacketFate",
   "referenced_type" : "type-148",
   "self_type" : "type-207",
   "size" : 4,
   "source_file" : "/out/soong/.intermediates/hardware/interfaces/wifi/1.0/android.hardware.wifi@1.0_genc++_headers/gen/android/hardware/wifi/1.0/types.h"
  },
  {
   "alignment" : 8,
   "is_const" : true,
   "linker_set_key" : "const android::hardware::wifi::V1_0::WifiInformationElement",
   "name" : "const android::hardware::wifi::V1_0::WifiInformationElement",
   "referenced_type" : "type-61",
   "self_type" : "type-109",
   "size" : 24,
   "source_file" : "/system/libhidl/base/include/hidl/HidlInternal.h"
  },
  {
   "alignment" : 4,
   "is_const" : true,
   "linker_set_key" : "const android::hardware::wifi::V1_0::WifiRateNss",
   "name" : "const android::hardware::wifi::V1_0::WifiRateNss",
   "referenced_type" : "type-17",
   "self_type" : "type-164",
   "size" : 4,
   "source_file" : "/out/soong/.intermediates/hardware/interfaces/wifi/1.0/android.hardware.wifi@1.0_genc++_headers/gen/android/hardware/wifi/1.0/types.h"
  },
  {
   "alignment" : 4,
   "is_const" : true,
   "linker_set_key" : "const android::hardware::wifi::V1_0::WifiRatePreamble",
   "name" : "const android::hardware::wifi::V1_0::WifiRatePreamble",
   "referenced_type" : "type-19",
   "self_type" : "type-163",
   "size" : 4,
   "source_file" : "/out/soong/.intermediates/hardware/interfaces/wifi/1.0/android.hardware.wifi@1.0_genc++_headers/gen/android/hardware/wifi/1.0/types.h"
  },
  {
   "alignment" : 4,
   "is_const" : true,
   "linker_set_key" : "const android::hardware::wifi::V1_0::WifiStatusCode",
   "name" : "const android::hardware::wifi::V1_0::WifiStatusCode",
   "referenced_type" : "type-160",
   "self_type" : "type-159",
   "size" : 4,
   "source_file" : "/out/soong/.intermediates/hardware/interfaces/wifi/1.0/android.hardware.wifi@1.0_genc++_headers/gen/android/hardware/wifi/1.0/types.h"
  },
  {
   "alignment" : 8,
   "is_const" : true,
   "linker_set_key" : "const android::hardware::wifi::V1_1::BpHwWifi",
   "name" : "const android::hardware::wifi::V1_1::BpHwWifi",
   "referenced_type" : "type-911",
   "self_type" : "type-915",
   "size" : 216,
   "source_file" : "/out/soong/.intermediates/hardware/interfaces/wifi/1.1/android.hardware.wifi@1.1_genc++_headers/gen/android/hardware/wifi/1.1/BpHwWifi.h"
  },
  {
   "alignment" : 8,
   "is_const" : true,
   "linker_set_key" : "const android::hardware::wifi::V1_1::BpHwWifiChip",
   "name" : "const android::hardware::wifi::V1_1::BpHwWifiChip",
   "referenced_type" : "type-391",
   "self_type" : "type-395",
   "size" : 216,
   "source_file" : "/out/soong/.intermediates/hardware/interfaces/wifi/1.1/android.hardware.wifi@1.1_genc++_headers/gen/android/hardware/wifi/1.1/BpHwWifiChip.h"
  },
  {
   "alignment" : 8,
   "is_const" : true,
   "linker_set_key" : "const android::hardware::wifi::V1_1::IWifi",
   "name" : "const android::hardware::wifi::V1_1::IWifi",
   "referenced_type" : "type-904",
   "self_type" : "type-1587",
   "size" : 24,
   "source_file" : "/out/soong/.intermediates/hardware/interfaces/wifi/1.1/android.hardware.wifi@1.1_genc++_headers/gen/android/hardware/wifi/1.1/IWifi.h"
  },
  {
   "alignment" : 8,
   "is_const" : true,
   "linker_set_key" : "const android::hardware::wifi::V1_1::IWifiChip",
   "name" : "const android::hardware::wifi::V1_1::IWifiChip",
   "referenced_type" : "type-343",
   "self_type" : "type-342",
   "size" : 24,
   "source_file" : "/out/soong/.intermediates/hardware/interfaces/wifi/1.1/android.hardware.wifi@1.1_genc++_headers/gen/android/hardware/wifi/1.1/IWifiChip.h"
  },
  {
   "alignment" : 4,
   "is_const" : true,
   "linker_set_key" : "const android::hardware::wifi::V1_1::IWifiChip::ChipCapabilityMask",
