{
 "array_types" :
 [
  {
   "alignment" : 1,
   "linker_set_key" : "char [0]",
   "name" : "char [0]",
   "referenced_type" : "type-11",
   "self_type" : "type-154",
   "source_file" : "/system/core/liblog/include/log/log_read.h"
  },
  {
   "linker_set_key" : "float []",
   "name" : "float []",
   "referenced_type" : "type-670",
   "self_type" : "type-969",
   "source_file" : "/system/core/libsystem/include/system/graphics.h"
  },
  {
   "alignment" : 4,
   "linker_set_key" : "int [0]",
   "name" : "int [0]",
   "referenced_type" : "type-19",
   "self_type" : "type-107",
   "source_file" : "/system/core/libcutils/include/cutils/native_handle.h"
  },
  {
   "alignment" : 4,
   "linker_set_key" : "int [32]",
   "name" : "int [32]",
   "referenced_type" : "type-19",
   "self_type" : "type-834",
   "size" : 128,
   "source_file" : "/system/libhidl/base/include/hidl/HidlSupport.h"
  },
  {
   "alignment" : 1,
   "linker_set_key" : "unsigned char [32]",
   "name" : "unsigned char [32]",
   "referenced_type" : "type-108",
   "self_type" : "type-535",
   "size" : 32,
   "source_file" : "/system/libhidl/base/include/hidl/HidlSupport.h"
  },
  {
   "alignment" : 1,
   "linker_set_key" : "unsigned char [4]",
   "name" : "unsigned char [4]",
   "referenced_type" : "type-108",
   "self_type" : "type-769",
   "size" : 4,
   "source_file" : "/system/libhidl/base/include/hidl/HidlSupport.h"
  },
  {
   "alignment" : 1,
   "linker_set_key" : "unsigned char [5121]",
   "name" : "unsigned char [5121]",
   "referenced_type" : "type-108",
   "self_type" : "type-151",
   "size" : 5121,
   "source_file" : "/system/core/liblog/include/log/log_read.h"
  },
  {
   "alignment" : 1,
   "linker_set_key" : "unsigned char [6]",
   "name" : "unsigned char [6]",
   "referenced_type" : "type-108",
   "self_type" : "type-767",
   "size" : 6,
   "source_file" : "/system/libhidl/base/include/hidl/HidlSupport.h"
  },
  {
   "alignment" : 4,
   "linker_set_key" : "unsigned int [8]",
   "name" : "unsigned int [8]",
   "referenced_type" : "type-2",
   "self_type" : "type-960",
   "size" : 32,
   "source_file" : "/system/core/libsystem/include/system/graphics.h"
  }
 ],
 "builtin_types" :
 [
  {
   "alignment" : 1,
   "is_integral" : true,
   "is_unsigned" : true,
   "linker_set_key" : "bool",
   "name" : "bool",
   "referenced_type" : "type-13",
   "self_type" : "type-13",
   "size" : 1
  },
  {
   "alignment" : 1,
   "is_integral" : true,
   "linker_set_key" : "char",
   "name" : "char",
   "referenced_type" : "type-11",
   "self_type" : "type-11",
   "size" : 1
  },
  {
   "alignment" : 2,
   "is_integral" : true,
   "is_unsigned" : true,
   "linker_set_key" : "char16_t",
   "name" : "char16_t",
   "referenced_type" : "type-219",
   "self_type" : "type-219",
   "size" : 2
  },
  {
   "alignment" : 8,
   "linker_set_key" : "double",
   "name" : "double",
   "referenced_type" : "type-680",
   "self_type" : "type-680",
   "size" : 8
  },
  {
   "alignment" : 4,
   "linker_set_key" : "float",
   "name" : "float",
   "referenced_type" : "type-670",
   "self_type" : "type-670",
   "size" : 4
  },
  {
   "alignment" : 4,
   "is_integral" : true,
   "linker_set_key" : "int",
   "name" : "int",
   "referenced_type" : "type-19",
   "self_type" : "type-19",
   "size" : 4
  },
  {
   "alignment" : 8,
   "is_integral" : true,
   "linker_set_key" : "long",
   "name" : "long",
   "referenced_type" : "type-204",
   "self_type" : "type-204",
   "size" : 8
  },
  {
   "alignment" : 8,
   "is_integral" : true,
   "linker_set_key" : "long long",
   "name" : "long long",
   "referenced_type" : "type-657",
   "self_type" : "type-657",
   "size" : 8
  },
  {
   "alignment" : 2,
   "is_integral" : true,
   "linker_set_key" : "short",
   "name" : "short",
   "referenced_type" : "type-628",
   "self_type" : "type-628",
   "size" : 2
  },
  {
   "alignment" : 1,
   "is_integral" : true,
   "linker_set_key" : "signed char",
   "name" : "signed char",
   "referenced_type" : "type-686",
   "self_type" : "type-686",
   "size" : 1
  },
  {
   "alignment" : 1,
   "is_integral" : true,
   "is_unsigned" : true,
   "linker_set_key" : "unsigned char",
   "name" : "unsigned char",
   "referenced_type" : "type-108",
   "self_type" : "type-108",
   "size" : 1
  },
  {
   "alignment" : 4,
   "is_integral" : true,
   "is_unsigned" : true,
   "linker_set_key" : "unsigned int",
   "name" : "unsigned int",
   "referenced_type" : "type-2",
   "self_type" : "type-2",
   "size" : 4
  },
  {
   "alignment" : 8,
   "is_integral" : true,
   "is_unsigned" : true,
   "linker_set_key" : "unsigned long",
   "name" : "unsigned long",
   "referenced_type" : "type-12",
   "self_type" : "type-12",
   "size" : 8
  },
  {
   "alignment" : 8,
   "is_integral" : true,
   "is_unsigned" : true,
   "linker_set_key" : "unsigned long long",
   "name" : "unsigned long long",
   "referenced_type" : "type-665",
   "self_type" : "type-665",
   "size" : 8
  },
  {
   "alignment" : 2,
   "is_integral" : true,
   "is_unsigned" : true,
   "linker_set_key" : "unsigned short",
   "name" : "unsigned short",
   "referenced_type" : "type-153",
   "self_type" : "type-153",
   "size" : 2
  },
  {
   "linker_set_key" : "void",
   "name" : "void",
   "referenced_type" : "type-22",
   "self_type" : "type-22"
  }
 ],
 "elf_functions" :
 [
  {
   "binding" : "weak",
   "name" : "_ZN7android8hardware10fromBinderINS0_9bluetooth5audio4V2_019IBluetoothAudioPortENS4_22BpHwBluetoothAudioPortENS4_22BnHwBluetoothAudioPortEEENS_2spIT_EERKNS8_INS0_7IBinderEEE"
  },
  {
   "binding" : "weak",
   "name" : "_ZN7android8hardware10fromBinderINS0_9bluetooth5audio4V2_023IBluetoothAudioProviderENS4_26BpHwBluetoothAudioProviderENS4_26BnHwBluetoothAudioProviderEEENS_2spIT_EERKNS8_INS0_7IBinderEEE"
  },
  {
   "binding" : "weak",
   "name" : "_ZN7android8hardware7details13castInterfaceINS0_9bluetooth5audio4V2_019IBluetoothAudioPortENS_4hidl4base4V1_05IBaseENS5_22BpHwBluetoothAudioPortEEENS0_6ReturnINS_2spIT_EEEENSD_IT0_EEPKcb"
  },
  {
   "binding" : "weak",
   "name" : "_ZN7android8hardware7details13castInterfaceINS0_9bluetooth5audio4V2_023IBluetoothAudioProviderENS_4hidl4base4V1_05IBaseENS5_26BpHwBluetoothAudioProviderEEENS0_6ReturnINS_2spIT_EEEENSD_IT0_EEPKcb"
  },
  {
   "binding" : "weak",
   "name" : "_ZN7android8hardware7details13castInterfaceINS0_9bluetooth5audio4V2_031IBluetoothAudioProvidersFactoryENS_4hidl4base4V1_05IBaseENS5_34BpHwBluetoothAudioProvidersFactoryEEENS0_6ReturnINS_2spIT_EEEENSD_IT0_EEPKcb"
  },
  {
   "binding" : "weak",
   "name" : "_ZN7android8hardware7details15wrapPassthroughINS0_9bluetooth5audio4V2_019IBluetoothAudioPortEvEENS_2spIT_EES9_"
  },
  {
   "binding" : "weak",
   "name" : "_ZN7android8hardware7details15wrapPassthroughINS0_9bluetooth5audio4V2_023IBluetoothAudioProviderEvEENS_2spIT_EES9_"
  },
  {
   "binding" : "weak",
   "name" : "_ZN7android8hardware7details18getServiceInternalINS0_9bluetooth5audio4V2_022BpHwBluetoothAudioPortENS5_19IBluetoothAudioPortEvvEENS_2spIT0_EERKNSt3__112basic_stringIcNSB_11char_traitsIcEENSB_9allocatorIcEEEEbb"
  },
  {
   "binding" : "weak",
   "name" : "_ZN7android8hardware7details18getServiceInternalINS0_9bluetooth5audio4V2_026BpHwBluetoothAudioProviderENS5_23IBluetoothAudioProviderEvvEENS_2spIT0_EERKNSt3__112basic_stringIcNSB_11char_traitsIcEENSB_9allocatorIcEEEEbb"
  },
  {
   "binding" : "weak",
   "name" : "_ZN7android8hardware7details18getServiceInternalINS0_9bluetooth5audio4V2_034BpHwBluetoothAudioProvidersFactoryENS5_31IBluetoothAudioProvidersFactoryEvvEENS_2spIT0_EERKNSt3__112basic_stringIcNSB_11char_traitsIcEENSB_9allocatorIcEEEEbb"
  },
  {
   "name" : "_ZN7android8hardware9bluetooth5audio4V2_017AudioCapabilities10hidl_unionC1Ev"
  },
  {
   "name" : "_ZN7android8hardware9bluetooth5audio4V2_017AudioCapabilities10hidl_unionC2Ev"
  },
  {
   "name" : "_ZN7android8hardware9bluetooth5audio4V2_017AudioCapabilities10hidl_unionD1Ev"
  },
  {
   "name" : "_ZN7android8hardware9bluetooth5audio4V2_017AudioCapabilities10hidl_unionD2Ev"
  },
  {
   "name" : "_ZN7android8hardware9bluetooth5audio4V2_017AudioCapabilities15pcmCapabilitiesEONS3_13PcmParametersE"
  },
  {
   "name" : "_ZN7android8hardware9bluetooth5audio4V2_017AudioCapabilities15pcmCapabilitiesERKNS3_13PcmParametersE"
  },
  {
   "name" : "_ZN7android8hardware9bluetooth5audio4V2_017AudioCapabilities15pcmCapabilitiesEv"
  },
  {
   "name" : "_ZN7android8hardware9bluetooth5audio4V2_017AudioCapabilities17codecCapabilitiesEONS3_17CodecCapabilitiesE"
  },
  {
   "name" : "_ZN7android8hardware9bluetooth5audio4V2_017AudioCapabilities17codecCapabilitiesERKNS3_17CodecCapabilitiesE"
  },
  {
   "name" : "_ZN7android8hardware9bluetooth5audio4V2_017AudioCapabilities17codecCapabilitiesEv"
  },
  {
   "name" : "_ZN7android8hardware9bluetooth5audio4V2_017AudioCapabilities18hidl_destructUnionEv"
  },
  {
   "name" : "_ZN7android8hardware9bluetooth5audio4V2_017AudioCapabilitiesC1EOS4_"
  },
  {
   "name" : "_ZN7android8hardware9bluetooth5audio4V2_017AudioCapabilitiesC1ERKS4_"
  },
  {
   "name" : "_ZN7android8hardware9bluetooth5audio4V2_017AudioCapabilitiesC1Ev"
  },
  {
   "name" : "_ZN7android8hardware9bluetooth5audio4V2_017AudioCapabilitiesC2EOS4_"
  },
  {
   "name" : "_ZN7android8hardware9bluetooth5audio4V2_017AudioCapabilitiesC2ERKS4_"
  },
  {
   "name" : "_ZN7android8hardware9bluetooth5audio4V2_017AudioCapabilitiesC2Ev"
  },
  {
   "name" : "_ZN7android8hardware9bluetooth5audio4V2_017AudioCapabilitiesD1Ev"
  },
  {
   "name" : "_ZN7android8hardware9bluetooth5audio4V2_017AudioCapabilitiesD2Ev"
  },
  {
   "name" : "_ZN7android8hardware9bluetooth5audio4V2_017AudioCapabilitiesaSEOS4_"
  },
  {
   "name" : "_ZN7android8hardware9bluetooth5audio4V2_017AudioCapabilitiesaSERKS4_"
  },
  {
   "name" : "_ZN7android8hardware9bluetooth5audio4V2_017CodecCapabilities12Capabilities10hidl_unionC1Ev"
  },
  {
   "name" : "_ZN7android8hardware9bluetooth5audio4V2_017CodecCapabilities12Capabilities10hidl_unionC2Ev"
  },
  {
   "name" : "_ZN7android8hardware9bluetooth5audio4V2_017CodecCapabilities12Capabilities10hidl_unionD1Ev"
  },
  {
   "name" : "_ZN7android8hardware9bluetooth5audio4V2_017CodecCapabilities12Capabilities10hidl_unionD2Ev"
  },
  {
   "name" : "_ZN7android8hardware9bluetooth5audio4V2_017CodecCapabilities12Capabilities15aacCapabilitiesEONS3_13AacParametersE"
  },
  {
   "name" : "_ZN7android8hardware9bluetooth5audio4V2_017CodecCapabilities12Capabilities15aacCapabilitiesERKNS3_13AacParametersE"
  },
  {
   "name" : "_ZN7android8hardware9bluetooth5audio4V2_017CodecCapabilities12Capabilities15aacCapabilitiesEv"
  },
  {
   "name" : "_ZN7android8hardware9bluetooth5audio4V2_017CodecCapabilities12Capabilities15sbcCapabilitiesEONS3_13SbcParametersE"
  },
  {
   "name" : "_ZN7android8hardware9bluetooth5audio4V2_017CodecCapabilities12Capabilities15sbcCapabilitiesERKNS3_13SbcParametersE"
  },
  {
   "name" : "_ZN7android8hardware9bluetooth5audio4V2_017CodecCapabilities12Capabilities15sbcCapabilitiesEv"
  },
  {
   "name" : "_ZN7android8hardware9bluetooth5audio4V2_017CodecCapabilities12Capabilities16aptxCapabilitiesEONS3_14AptxParametersE"
  },
  {
   "name" : "_ZN7android8hardware9bluetooth5audio4V2_017CodecCapabilities12Capabilities16aptxCapabilitiesERKNS3_14AptxParametersE"
  },
  {
   "name" : "_ZN7android8hardware9bluetooth5audio4V2_017CodecCapabilities12Capabilities16aptxCapabilitiesEv"
  },
  {
   "name" : "_ZN7android8hardware9bluetooth5audio4V2_017CodecCapabilities12Capabilities16ldacCapabilitiesEONS3_14LdacParametersE"
  },
  {
   "name" : "_ZN7android8hardware9bluetooth5audio4V2_017CodecCapabilities12Capabilities16ldacCapabilitiesERKNS3_14LdacParametersE"
  },
  {
   "name" : "_ZN7android8hardware9bluetooth5audio4V2_017CodecCapabilities12Capabilities16ldacCapabilitiesEv"
  },
  {
   "name" : "_ZN7android8hardware9bluetooth5audio4V2_017CodecCapabilities12Capabilities18hidl_destructUnionEv"
  },
  {
   "name" : "_ZN7android8hardware9bluetooth5audio4V2_017CodecCapabilities12CapabilitiesC1EOS5_"
  },
  {
   "name" : "_ZN7android8hardware9bluetooth5audio4V2_017CodecCapabilities12CapabilitiesC1ERKS5_"
  },
  {
   "name" : "_ZN7android8hardware9bluetooth5audio4V2_017CodecCapabilities12CapabilitiesC1Ev"
  },
  {
   "name" : "_ZN7android8hardware9bluetooth5audio4V2_017CodecCapabilities12CapabilitiesC2EOS5_"
  },
  {
   "name" : "_ZN7android8hardware9bluetooth5audio4V2_017CodecCapabilities12CapabilitiesC2ERKS5_"
  },
  {
   "name" : "_ZN7android8hardware9bluetooth5audio4V2_017CodecCapabilities12CapabilitiesC2Ev"
  },
  {
   "name" : "_ZN7android8hardware9bluetooth5audio4V2_017CodecCapabilities12CapabilitiesD1Ev"
  },
  {
   "name" : "_ZN7android8hardware9bluetooth5audio4V2_017CodecCapabilities12CapabilitiesD2Ev"
  },
  {
   "name" : "_ZN7android8hardware9bluetooth5audio4V2_017CodecCapabilities12CapabilitiesaSEOS5_"
  },
  {
   "name" : "_ZN7android8hardware9bluetooth5audio4V2_017CodecCapabilities12CapabilitiesaSERKS5_"
  },
  {
   "name" : "_ZN7android8hardware9bluetooth5audio4V2_018AudioConfiguration10hidl_unionC1Ev"
  },
  {
   "name" : "_ZN7android8hardware9bluetooth5audio4V2_018AudioConfiguration10hidl_unionC2Ev"
  },
  {
   "name" : "_ZN7android8hardware9bluetooth5audio4V2_018AudioConfiguration10hidl_unionD1Ev"
  },
  {
   "name" : "_ZN7android8hardware9bluetooth5audio4V2_018AudioConfiguration10hidl_unionD2Ev"
  },
  {
   "name" : "_ZN7android8hardware9bluetooth5audio4V2_018AudioConfiguration11codecConfigEONS3_18CodecConfigurationE"
  },
  {
   "name" : "_ZN7android8hardware9bluetooth5audio4V2_018AudioConfiguration11codecConfigERKNS3_18CodecConfigurationE"
  },
  {
   "name" : "_ZN7android8hardware9bluetooth5audio4V2_018AudioConfiguration11codecConfigEv"
  },
  {
   "name" : "_ZN7android8hardware9bluetooth5audio4V2_018AudioConfiguration18hidl_destructUnionEv"
  },
  {
   "name" : "_ZN7android8hardware9bluetooth5audio4V2_018AudioConfiguration9pcmConfigEONS3_13PcmParametersE"
  },
  {
   "name" : "_ZN7android8hardware9bluetooth5audio4V2_018AudioConfiguration9pcmConfigERKNS3_13PcmParametersE"
  },
  {
   "name" : "_ZN7android8hardware9bluetooth5audio4V2_018AudioConfiguration9pcmConfigEv"
  },
  {
   "name" : "_ZN7android8hardware9bluetooth5audio4V2_018AudioConfigurationC1EOS4_"
  },
  {
   "name" : "_ZN7android8hardware9bluetooth5audio4V2_018AudioConfigurationC1ERKS4_"
  },
  {
   "name" : "_ZN7android8hardware9bluetooth5audio4V2_018AudioConfigurationC1Ev"
  },
  {
   "name" : "_ZN7android8hardware9bluetooth5audio4V2_018AudioConfigurationC2EOS4_"
  },
  {
   "name" : "_ZN7android8hardware9bluetooth5audio4V2_018AudioConfigurationC2ERKS4_"
  },
  {
   "name" : "_ZN7android8hardware9bluetooth5audio4V2_018AudioConfigurationC2Ev"
  },
  {
   "name" : "_ZN7android8hardware9bluetooth5audio4V2_018AudioConfigurationD1Ev"
  },
  {
   "name" : "_ZN7android8hardware9bluetooth5audio4V2_018AudioConfigurationD2Ev"
  },
  {
   "name" : "_ZN7android8hardware9bluetooth5audio4V2_018AudioConfigurationaSEOS4_"
  },
  {
   "name" : "_ZN7android8hardware9bluetooth5audio4V2_018AudioConfigurationaSERKS4_"
  },
  {
   "name" : "_ZN7android8hardware9bluetooth5audio4V2_018CodecConfiguration13CodecSpecific10aptxConfigEONS3_14AptxParametersE"
  },
  {
   "name" : "_ZN7android8hardware9bluetooth5audio4V2_018CodecConfiguration13CodecSpecific10aptxConfigERKNS3_14AptxParametersE"
  },
  {
   "name" : "_ZN7android8hardware9bluetooth5audio4V2_018CodecConfiguration13CodecSpecific10aptxConfigEv"
  },
  {
   "name" : "_ZN7android8hardware9bluetooth5audio4V2_018CodecConfiguration13CodecSpecific10hidl_unionC1Ev"
  },
  {
   "name" : "_ZN7android8hardware9bluetooth5audio4V2_018CodecConfiguration13CodecSpecific10hidl_unionC2Ev"
  },
  {
   "name" : "_ZN7android8hardware9bluetooth5audio4V2_018CodecConfiguration13CodecSpecific10hidl_unionD1Ev"
  },
  {
   "name" : "_ZN7android8hardware9bluetooth5audio4V2_018CodecConfiguration13CodecSpecific10hidl_unionD2Ev"
  },
  {
   "name" : "_ZN7android8hardware9bluetooth5audio4V2_018CodecConfiguration13CodecSpecific10ldacConfigEONS3_14LdacParametersE"
  },
  {
   "name" : "_ZN7android8hardware9bluetooth5audio4V2_018CodecConfiguration13CodecSpecific10ldacConfigERKNS3_14LdacParametersE"
  },
  {
   "name" : "_ZN7android8hardware9bluetooth5audio4V2_018CodecConfiguration13CodecSpecific10ldacConfigEv"
  },
  {
   "name" : "_ZN7android8hardware9bluetooth5audio4V2_018CodecConfiguration13CodecSpecific18hidl_destructUnionEv"
  },
  {
   "name" : "_ZN7android8hardware9bluetooth5audio4V2_018CodecConfiguration13CodecSpecific9aacConfigEONS3_13AacParametersE"
  },
  {
   "name" : "_ZN7android8hardware9bluetooth5audio4V2_018CodecConfiguration13CodecSpecific9aacConfigERKNS3_13AacParametersE"
  },
  {
   "name" : "_ZN7android8hardware9bluetooth5audio4V2_018CodecConfiguration13CodecSpecific9aacConfigEv"
  },
  {
   "name" : "_ZN7android8hardware9bluetooth5audio4V2_018CodecConfiguration13CodecSpecific9sbcConfigEONS3_13SbcParametersE"
  },
  {
   "name" : "_ZN7android8hardware9bluetooth5audio4V2_018CodecConfiguration13CodecSpecific9sbcConfigERKNS3_13SbcParametersE"
  },
  {
   "name" : "_ZN7android8hardware9bluetooth5audio4V2_018CodecConfiguration13CodecSpecific9sbcConfigEv"
  },
  {
   "name" : "_ZN7android8hardware9bluetooth5audio4V2_018CodecConfiguration13CodecSpecificC1EOS5_"
  },
  {
   "name" : "_ZN7android8hardware9bluetooth5audio4V2_018CodecConfiguration13CodecSpecificC1ERKS5_"
  },
  {
   "name" : "_ZN7android8hardware9bluetooth5audio4V2_018CodecConfiguration13CodecSpecificC1Ev"
  },
  {
   "name" : "_ZN7android8hardware9bluetooth5audio4V2_018CodecConfiguration13CodecSpecificC2EOS5_"
  },
  {
   "name" : "_ZN7android8hardware9bluetooth5audio4V2_018CodecConfiguration13CodecSpecificC2ERKS5_"
  },
  {
   "name" : "_ZN7android8hardware9bluetooth5audio4V2_018CodecConfiguration13CodecSpecificC2Ev"
  },
  {
   "name" : "_ZN7android8hardware9bluetooth5audio4V2_018CodecConfiguration13CodecSpecificD1Ev"
  },
  {
   "name" : "_ZN7android8hardware9bluetooth5audio4V2_018CodecConfiguration13CodecSpecificD2Ev"
  },
  {
   "name" : "_ZN7android8hardware9bluetooth5audio4V2_018CodecConfiguration13CodecSpecificaSEOS5_"
  },
  {
   "name" : "_ZN7android8hardware9bluetooth5audio4V2_018CodecConfiguration13CodecSpecificaSERKS5_"
  },
  {
   "name" : "_ZN7android8hardware9bluetooth5audio4V2_019IBluetoothAudioPort10getServiceERKNSt3__112basic_stringIcNS5_11char_traitsIcEENS5_9allocatorIcEEEEb"
  },
  {
   "name" : "_ZN7android8hardware9bluetooth5audio4V2_019IBluetoothAudioPort11linkToDeathERKNS_2spINS0_20hidl_death_recipientEEEm"
  },
  {
   "name" : "_ZN7android8hardware9bluetooth5audio4V2_019IBluetoothAudioPort12getDebugInfoENSt3__18functionIFvRKNS_4hidl4base4V1_09DebugInfoEEEE"
  },
  {
   "name" : "_ZN7android8hardware9bluetooth5audio4V2_019IBluetoothAudioPort12getHashChainENSt3__18functionIFvRKNS0_8hidl_vecINS0_10hidl_arrayIhLm32EJEEEEEEEE"
  },
  {
   "name" : "_ZN7android8hardware9bluetooth5audio4V2_019IBluetoothAudioPort13tryGetServiceERKNSt3__112basic_stringIcNS5_11char_traitsIcEENS5_9allocatorIcEEEEb"
  },
  {
   "name" : "_ZN7android8hardware9bluetooth5audio4V2_019IBluetoothAudioPort13unlinkToDeathERKNS_2spINS0_20hidl_death_recipientEEE"
  },
  {
   "name" : "_ZN7android8hardware9bluetooth5audio4V2_019IBluetoothAudioPort14interfaceChainENSt3__18functionIFvRKNS0_8hidl_vecINS0_11hidl_stringEEEEEE"
  },
  {
   "name" : "_ZN7android8hardware9bluetooth5audio4V2_019IBluetoothAudioPort17registerAsServiceERKNSt3__112basic_stringIcNS5_11char_traitsIcEENS5_9allocatorIcEEEE"
  },
  {
   "name" : "_ZN7android8hardware9bluetooth5audio4V2_019IBluetoothAudioPort19interfaceDescriptorENSt3__18functionIFvRKNS0_11hidl_stringEEEE"
  },
  {
   "name" : "_ZN7android8hardware9bluetooth5audio4V2_019IBluetoothAudioPort21notifySyspropsChangedEv"
  },
  {
   "name" : "_ZN7android8hardware9bluetooth5audio4V2_019IBluetoothAudioPort21setHALInstrumentationEv"
  },
  {
   "name" : "_ZN7android8hardware9bluetooth5audio4V2_019IBluetoothAudioPort24registerForNotificationsERKNSt3__112basic_stringIcNS5_11char_traitsIcEENS5_9allocatorIcEEEERKNS_2spINS_4hidl7manager4V1_020IServiceNotificationEEE"
  },
  {
   "name" : "_ZN7android8hardware9bluetooth5audio4V2_019IBluetoothAudioPort4pingEv"
  },
  {
   "name" : "_ZN7android8hardware9bluetooth5audio4V2_019IBluetoothAudioPort5debugERKNS0_11hidl_handleERKNS0_8hidl_vecINS0_11hidl_stringEEE"
  },
  {
   "name" : "_ZN7android8hardware9bluetooth5audio4V2_019IBluetoothAudioPort8castFromERKNS_2spINS_4hidl4base4V1_05IBaseEEEb"
  },
  {
   "name" : "_ZN7android8hardware9bluetooth5audio4V2_019IBluetoothAudioPort8castFromERKNS_2spIS4_EEb"
  },
  {
   "name" : "_ZN7android8hardware9bluetooth5audio4V2_020BsBluetoothAudioPort13addOnewayTaskENSt3__18functionIFvvEEE"
  },
  {
   "name" : "_ZN7android8hardware9bluetooth5audio4V2_020BsBluetoothAudioPortC1ENS_2spINS3_19IBluetoothAudioPortEEE"
  },
  {
   "name" : "_ZN7android8hardware9bluetooth5audio4V2_020BsBluetoothAudioPortC2ENS_2spINS3_19IBluetoothAudioPortEEE"
  },
  {
   "name" : "_ZN7android8hardware9bluetooth5audio4V2_022BnHwBluetoothAudioPort10onTransactEjRKNS0_6ParcelEPS5_jNSt3__18functionIFvRS5_EEE"
  },
  {
   "name" : "_ZN7android8hardware9bluetooth5audio4V2_022BnHwBluetoothAudioPort12getDebugInfoENSt3__18functionIFvRKNS_4hidl4base4V1_09DebugInfoEEEE"
  },
  {
   "name" : "_ZN7android8hardware9bluetooth5audio4V2_022BnHwBluetoothAudioPort16_hidl_stopStreamEPNS_4hidl4base4V1_08BnHwBaseERKNS0_6ParcelEPSA_NSt3__18functionIFvRSA_EEE"
  },
  {
   "name" : "_ZN7android8hardware9bluetooth5audio4V2_022BnHwBluetoothAudioPort17_hidl_startStreamEPNS_4hidl4base4V1_08BnHwBaseERKNS0_6ParcelEPSA_NSt3__18functionIFvRSA_EEE"
  },
  {
   "name" : "_ZN7android8hardware9bluetooth5audio4V2_022BnHwBluetoothAudioPort19_hidl_suspendStreamEPNS_4hidl4base4V1_08BnHwBaseERKNS0_6ParcelEPSA_NSt3__18functionIFvRSA_EEE"
  },
  {
   "name" : "_ZN7android8hardware9bluetooth5audio4V2_022BnHwBluetoothAudioPort20_hidl_updateMetadataEPNS_4hidl4base4V1_08BnHwBaseERKNS0_6ParcelEPSA_NSt3__18functionIFvRSA_EEE"
  },
  {
   "name" : "_ZN7android8hardware9bluetooth5audio4V2_022BnHwBluetoothAudioPort29_hidl_getPresentationPositionEPNS_4hidl4base4V1_08BnHwBaseERKNS0_6ParcelEPSA_NSt3__18functionIFvRSA_EEE"
  },
  {
   "name" : "_ZN7android8hardware9bluetooth5audio4V2_022BnHwBluetoothAudioPort4pingEv"
  },
  {
   "name" : "_ZN7android8hardware9bluetooth5audio4V2_022BnHwBluetoothAudioPortC1ERKNS_2spINS3_19IBluetoothAudioPortEEE"
  },
  {
   "name" : "_ZN7android8hardware9bluetooth5audio4V2_022BnHwBluetoothAudioPortC2ERKNS_2spINS3_19IBluetoothAudioPortEEE"
  },
  {
   "name" : "_ZN7android8hardware9bluetooth5audio4V2_022BnHwBluetoothAudioPortD0Ev"
  },
  {
   "name" : "_ZN7android8hardware9bluetooth5audio4V2_022BnHwBluetoothAudioPortD1Ev"
  },
  {
   "name" : "_ZN7android8hardware9bluetooth5audio4V2_022BnHwBluetoothAudioPortD2Ev"
  },
  {
   "name" : "_ZN7android8hardware9bluetooth5audio4V2_022BpHwBluetoothAudioPort10stopStreamEv"
  },
  {
   "name" : "_ZN7android8hardware9bluetooth5audio4V2_022BpHwBluetoothAudioPort11linkToDeathERKNS_2spINS0_20hidl_death_recipientEEEm"
  },
  {
   "name" : "_ZN7android8hardware9bluetooth5audio4V2_022BpHwBluetoothAudioPort11startStreamEv"
  },
  {
   "name" : "_ZN7android8hardware9bluetooth5audio4V2_022BpHwBluetoothAudioPort12getDebugInfoENSt3__18functionIFvRKNS_4hidl4base4V1_09DebugInfoEEEE"
  },
  {
   "name" : "_ZN7android8hardware9bluetooth5audio4V2_022BpHwBluetoothAudioPort12getHashChainENSt3__18functionIFvRKNS0_8hidl_vecINS0_10hidl_arrayIhLm32EJEEEEEEEE"
  },
  {
   "name" : "_ZN7android8hardware9bluetooth5audio4V2_022BpHwBluetoothAudioPort13suspendStreamEv"
  },
  {
   "name" : "_ZN7android8hardware9bluetooth5audio4V2_022BpHwBluetoothAudioPort13unlinkToDeathERKNS_2spINS0_20hidl_death_recipientEEE"
  },
  {
   "name" : "_ZN7android8hardware9bluetooth5audio4V2_022BpHwBluetoothAudioPort14interfaceChainENSt3__18functionIFvRKNS0_8hidl_vecINS0_11hidl_stringEEEEEE"
  },
  {
   "name" : "_ZN7android8hardware9bluetooth5audio4V2_022BpHwBluetoothAudioPort14updateMetadataERKNS0_5audio6common4V5_014SourceMetadataE"
  },
  {
   "name" : "_ZN7android8hardware9bluetooth5audio4V2_022BpHwBluetoothAudioPort16_hidl_stopStreamEPNS0_10IInterfaceEPNS0_7details16HidlInstrumentorE"
  },
  {
   "name" : "_ZN7android8hardware9bluetooth5audio4V2_022BpHwBluetoothAudioPort17_hidl_startStreamEPNS0_10IInterfaceEPNS0_7details16HidlInstrumentorE"
  },
  {
   "name" : "_ZN7android8hardware9bluetooth5audio4V2_022BpHwBluetoothAudioPort19_hidl_suspendStreamEPNS0_10IInterfaceEPNS0_7details16HidlInstrumentorE"
  },
  {
   "name" : "_ZN7android8hardware9bluetooth5audio4V2_022BpHwBluetoothAudioPort19interfaceDescriptorENSt3__18functionIFvRKNS0_11hidl_stringEEEE"
  },
  {
   "name" : "_ZN7android8hardware9bluetooth5audio4V2_022BpHwBluetoothAudioPort20_hidl_updateMetadataEPNS0_10IInterfaceEPNS0_7details16HidlInstrumentorERKNS0_5audio6common4V5_014SourceMetadataE"
  },
  {
   "name" : "_ZN7android8hardware9bluetooth5audio4V2_022BpHwBluetoothAudioPort21notifySyspropsChangedEv"
  },
  {
   "name" : "_ZN7android8hardware9bluetooth5audio4V2_022BpHwBluetoothAudioPort21setHALInstrumentationEv"
  },
  {
   "name" : "_ZN7android8hardware9bluetooth5audio4V2_022BpHwBluetoothAudioPort23getPresentationPositionENSt3__18functionIFvNS3_6StatusEmmRKNS3_8TimeSpecEEEE"
  },
  {
   "name" : "_ZN7android8hardware9bluetooth5audio4V2_022BpHwBluetoothAudioPort29_hidl_getPresentationPositionEPNS0_10IInterfaceEPNS0_7details16HidlInstrumentorENSt3__18functionIFvNS3_6StatusEmmRKNS3_8TimeSpecEEEE"
  },
  {
   "name" : "_ZN7android8hardware9bluetooth5audio4V2_022BpHwBluetoothAudioPort4pingEv"
  },
  {
   "name" : "_ZN7android8hardware9bluetooth5audio4V2_022BpHwBluetoothAudioPort5debugERKNS0_11hidl_handleERKNS0_8hidl_vecINS0_11hidl_stringEEE"
  },
  {
   "name" : "_ZN7android8hardware9bluetooth5audio4V2_022BpHwBluetoothAudioPortC1ERKNS_2spINS0_7IBinderEEE"
  },
  {
   "name" : "_ZN7android8hardware9bluetooth5audio4V2_022BpHwBluetoothAudioPortC2ERKNS_2spINS0_7IBinderEEE"
  },
  {
   "name" : "_ZN7android8hardware9bluetooth5audio4V2_023IBluetoothAudioProvider10getServiceERKNSt3__112basic_stringIcNS5_11char_traitsIcEENS5_9allocatorIcEEEEb"
  },
  {
   "name" : "_ZN7android8hardware9bluetooth5audio4V2_023IBluetoothAudioProvider11linkToDeathERKNS_2spINS0_20hidl_death_recipientEEEm"
  },
  {
   "name" : "_ZN7android8hardware9bluetooth5audio4V2_023IBluetoothAudioProvider12getDebugInfoENSt3__18functionIFvRKNS_4hidl4base4V1_09DebugInfoEEEE"
  },
  {
   "name" : "_ZN7android8hardware9bluetooth5audio4V2_023IBluetoothAudioProvider12getHashChainENSt3__18functionIFvRKNS0_8hidl_vecINS0_10hidl_arrayIhLm32EJEEEEEEEE"
  },
  {
   "name" : "_ZN7android8hardware9bluetooth5audio4V2_023IBluetoothAudioProvider13tryGetServiceERKNSt3__112basic_stringIcNS5_11char_traitsIcEENS5_9allocatorIcEEEEb"
  },
  {
   "name" : "_ZN7android8hardware9bluetooth5audio4V2_023IBluetoothAudioProvider13unlinkToDeathERKNS_2spINS0_20hidl_death_recipientEEE"
  },
  {
   "name" : "_ZN7android8hardware9bluetooth5audio4V2_023IBluetoothAudioProvider14interfaceChainENSt3__18functionIFvRKNS0_8hidl_vecINS0_11hidl_stringEEEEEE"
  },
  {
   "name" : "_ZN7android8hardware9bluetooth5audio4V2_023IBluetoothAudioProvider17registerAsServiceERKNSt3__112basic_stringIcNS5_11char_traitsIcEENS5_9allocatorIcEEEE"
  },
  {
   "name" : "_ZN7android8hardware9bluetooth5audio4V2_023IBluetoothAudioProvider19interfaceDescriptorENSt3__18functionIFvRKNS0_11hidl_stringEEEE"
  },
  {
   "name" : "_ZN7android8hardware9bluetooth5audio4V2_023IBluetoothAudioProvider21notifySyspropsChangedEv"
  },
  {
   "name" : "_ZN7android8hardware9bluetooth5audio4V2_023IBluetoothAudioProvider21setHALInstrumentationEv"
  },
  {
   "name" : "_ZN7android8hardware9bluetooth5audio4V2_023IBluetoothAudioProvider24registerForNotificationsERKNSt3__112basic_stringIcNS5_11char_traitsIcEENS5_9allocatorIcEEEERKNS_2spINS_4hidl7manager4V1_020IServiceNotificationEEE"
  },
  {
   "name" : "_ZN7android8hardware9bluetooth5audio4V2_023IBluetoothAudioProvider4pingEv"
  },
  {
   "name" : "_ZN7android8hardware9bluetooth5audio4V2_023IBluetoothAudioProvider5debugERKNS0_11hidl_handleERKNS0_8hidl_vecINS0_11hidl_stringEEE"
  },
  {
   "name" : "_ZN7android8hardware9bluetooth5audio4V2_023IBluetoothAudioProvider8castFromERKNS_2spINS_4hidl4base4V1_05IBaseEEEb"
  },
  {
   "name" : "_ZN7android8hardware9bluetooth5audio4V2_023IBluetoothAudioProvider8castFromERKNS_2spIS4_EEb"
  },
  {
   "name" : "_ZN7android8hardware9bluetooth5audio4V2_024BsBluetoothAudioProvider13addOnewayTaskENSt3__18functionIFvvEEE"
  },
  {
   "name" : "_ZN7android8hardware9bluetooth5audio4V2_024BsBluetoothAudioProviderC1ENS_2spINS3_23IBluetoothAudioProviderEEE"
  },
  {
   "name" : "_ZN7android8hardware9bluetooth5audio4V2_024BsBluetoothAudioProviderC2ENS_2spINS3_23IBluetoothAudioProviderEEE"
  },
  {
   "name" : "_ZN7android8hardware9bluetooth5audio4V2_026BnHwBluetoothAudioProvider10onTransactEjRKNS0_6ParcelEPS5_jNSt3__18functionIFvRS5_EEE"
  },
  {
   "name" : "_ZN7android8hardware9bluetooth5audio4V2_026BnHwBluetoothAudioProvider12getDebugInfoENSt3__18functionIFvRKNS_4hidl4base4V1_09DebugInfoEEEE"
  },
  {
   "name" : "_ZN7android8hardware9bluetooth5audio4V2_026BnHwBluetoothAudioProvider16_hidl_endSessionEPNS_4hidl4base4V1_08BnHwBaseERKNS0_6ParcelEPSA_NSt3__18functionIFvRSA_EEE"
  },
  {
   "name" : "_ZN7android8hardware9bluetooth5audio4V2_026BnHwBluetoothAudioProvider18_hidl_startSessionEPNS_4hidl4base4V1_08BnHwBaseERKNS0_6ParcelEPSA_NSt3__18functionIFvRSA_EEE"
  },
  {
   "name" : "_ZN7android8hardware9bluetooth5audio4V2_026BnHwBluetoothAudioProvider19_hidl_streamStartedEPNS_4hidl4base4V1_08BnHwBaseERKNS0_6ParcelEPSA_NSt3__18functionIFvRSA_EEE"
  },
  {
   "name" : "_ZN7android8hardware9bluetooth5audio4V2_026BnHwBluetoothAudioProvider21_hidl_streamSuspendedEPNS_4hidl4base4V1_08BnHwBaseERKNS0_6ParcelEPSA_NSt3__18functionIFvRSA_EEE"
  },
  {
   "name" : "_ZN7android8hardware9bluetooth5audio4V2_026BnHwBluetoothAudioProvider4pingEv"
  },
  {
   "name" : "_ZN7android8hardware9bluetooth5audio4V2_026BnHwBluetoothAudioProviderC1ERKNS_2spINS3_23IBluetoothAudioProviderEEE"
  },
  {
   "name" : "_ZN7android8hardware9bluetooth5audio4V2_026BnHwBluetoothAudioProviderC2ERKNS_2spINS3_23IBluetoothAudioProviderEEE"
  },
  {
   "name" : "_ZN7android8hardware9bluetooth5audio4V2_026BnHwBluetoothAudioProviderD0Ev"
  },
  {
   "name" : "_ZN7android8hardware9bluetooth5audio4V2_026BnHwBluetoothAudioProviderD1Ev"
  },
  {
   "name" : "_ZN7android8hardware9bluetooth5audio4V2_026BnHwBluetoothAudioProviderD2Ev"
  },
  {
   "name" : "_ZN7android8hardware9bluetooth5audio4V2_026BpHwBluetoothAudioProvider10endSessionEv"
  },
  {
   "name" : "_ZN7android8hardware9bluetooth5audio4V2_026BpHwBluetoothAudioProvider11linkToDeathERKNS_2spINS0_20hidl_death_recipientEEEm"
  },
  {
   "name" : "_ZN7android8hardware9bluetooth5audio4V2_026BpHwBluetoothAudioProvider12getDebugInfoENSt3__18functionIFvRKNS_4hidl4base4V1_09DebugInfoEEEE"
  },
  {
   "name" : "_ZN7android8hardware9bluetooth5audio4V2_026BpHwBluetoothAudioProvider12getHashChainENSt3__18functionIFvRKNS0_8hidl_vecINS0_10hidl_arrayIhLm32EJEEEEEEEE"
  },
  {
   "name" : "_ZN7android8hardware9bluetooth5audio4V2_026BpHwBluetoothAudioProvider12startSessionERKNS_2spINS3_19IBluetoothAudioPortEEERKNS3_18AudioConfigurationENSt3__18functionIFvNS3_6StatusERKNS0_12MQDescriptorIhLNS0_8MQFlavorE1EEEEEE"
  },
  {
   "name" : "_ZN7android8hardware9bluetooth5audio4V2_026BpHwBluetoothAudioProvider13streamStartedENS3_6StatusE"
  },
  {
   "name" : "_ZN7android8hardware9bluetooth5audio4V2_026BpHwBluetoothAudioProvider13unlinkToDeathERKNS_2spINS0_20hidl_death_recipientEEE"
  },
  {
   "name" : "_ZN7android8hardware9bluetooth5audio4V2_026BpHwBluetoothAudioProvider14interfaceChainENSt3__18functionIFvRKNS0_8hidl_vecINS0_11hidl_stringEEEEEE"
  },
  {
   "name" : "_ZN7android8hardware9bluetooth5audio4V2_026BpHwBluetoothAudioProvider15streamSuspendedENS3_6StatusE"
  },
  {
   "name" : "_ZN7android8hardware9bluetooth5audio4V2_026BpHwBluetoothAudioProvider16_hidl_endSessionEPNS0_10IInterfaceEPNS0_7details16HidlInstrumentorE"
  },
  {
   "name" : "_ZN7android8hardware9bluetooth5audio4V2_026BpHwBluetoothAudioProvider18_hidl_startSessionEPNS0_10IInterfaceEPNS0_7details16HidlInstrumentorERKNS_2spINS3_19IBluetoothAudioPortEEERKNS3_18AudioConfigurationENSt3__18functionIFvNS3_6StatusERKNS0_12MQDescriptorIhLNS0_8MQFlavorE1EEEEEE"
  },
  {
   "name" : "_ZN7android8hardware9bluetooth5audio4V2_026BpHwBluetoothAudioProvider19_hidl_streamStartedEPNS0_10IInterfaceEPNS0_7details16HidlInstrumentorENS3_6StatusE"
  },
  {
   "name" : "_ZN7android8hardware9bluetooth5audio4V2_026BpHwBluetoothAudioProvider19interfaceDescriptorENSt3__18functionIFvRKNS0_11hidl_stringEEEE"
  },
  {
   "name" : "_ZN7android8hardware9bluetooth5audio4V2_026BpHwBluetoothAudioProvider21_hidl_streamSuspendedEPNS0_10IInterfaceEPNS0_7details16HidlInstrumentorENS3_6StatusE"
  },
  {
   "name" : "_ZN7android8hardware9bluetooth5audio4V2_026BpHwBluetoothAudioProvider21notifySyspropsChangedEv"
  },
  {
   "name" : "_ZN7android8hardware9bluetooth5audio4V2_026BpHwBluetoothAudioProvider21setHALInstrumentationEv"
  },
  {
   "name" : "_ZN7android8hardware9bluetooth5audio4V2_026BpHwBluetoothAudioProvider4pingEv"
  },
  {
   "name" : "_ZN7android8hardware9bluetooth5audio4V2_026BpHwBluetoothAudioProvider5debugERKNS0_11hidl_handleERKNS0_8hidl_vecINS0_11hidl_stringEEE"
  },
  {
   "name" : "_ZN7android8hardware9bluetooth5audio4V2_026BpHwBluetoothAudioProviderC1ERKNS_2spINS0_7IBinderEEE"
  },
  {
   "name" : "_ZN7android8hardware9bluetooth5audio4V2_026BpHwBluetoothAudioProviderC2ERKNS_2spINS0_7IBinderEEE"
  },
  {
   "name" : "_ZN7android8hardware9bluetooth5audio4V2_031IBluetoothAudioProvidersFactory10getServiceERKNSt3__112basic_stringIcNS5_11char_traitsIcEENS5_9allocatorIcEEEEb"
  },
  {
   "name" : "_ZN7android8hardware9bluetooth5audio4V2_031IBluetoothAudioProvidersFactory11linkToDeathERKNS_2spINS0_20hidl_death_recipientEEEm"
  },
  {
   "name" : "_ZN7android8hardware9bluetooth5audio4V2_031IBluetoothAudioProvidersFactory12getDebugInfoENSt3__18functionIFvRKNS_4hidl4base4V1_09DebugInfoEEEE"
  },
  {
   "name" : "_ZN7android8hardware9bluetooth5audio4V2_031IBluetoothAudioProvidersFactory12getHashChainENSt3__18functionIFvRKNS0_8hidl_vecINS0_10hidl_arrayIhLm32EJEEEEEEEE"
  },
  {
   "name" : "_ZN7android8hardware9bluetooth5audio4V2_031IBluetoothAudioProvidersFactory13tryGetServiceERKNSt3__112basic_stringIcNS5_11char_traitsIcEENS5_9allocatorIcEEEEb"
  },
  {
   "name" : "_ZN7android8hardware9bluetooth5audio4V2_031IBluetoothAudioProvidersFactory13unlinkToDeathERKNS_2spINS0_20hidl_death_recipientEEE"
  },
  {
   "name" : "_ZN7android8hardware9bluetooth5audio4V2_031IBluetoothAudioProvidersFactory14interfaceChainENSt3__18functionIFvRKNS0_8hidl_vecINS0_11hidl_stringEEEEEE"
  },
  {
   "name" : "_ZN7android8hardware9bluetooth5audio4V2_031IBluetoothAudioProvidersFactory17registerAsServiceERKNSt3__112basic_stringIcNS5_11char_traitsIcEENS5_9allocatorIcEEEE"
  },
  {
   "name" : "_ZN7android8hardware9bluetooth5audio4V2_031IBluetoothAudioProvidersFactory19interfaceDescriptorENSt3__18functionIFvRKNS0_11hidl_stringEEEE"
  },
  {
   "name" : "_ZN7android8hardware9bluetooth5audio4V2_031IBluetoothAudioProvidersFactory21notifySyspropsChangedEv"
  },
  {
   "name" : "_ZN7android8hardware9bluetooth5audio4V2_031IBluetoothAudioProvidersFactory21setHALInstrumentationEv"
  },
  {
   "name" : "_ZN7android8hardware9bluetooth5audio4V2_031IBluetoothAudioProvidersFactory24registerForNotificationsERKNSt3__112basic_stringIcNS5_11char_traitsIcEENS5_9allocatorIcEEEERKNS_2spINS_4hidl7manager4V1_020IServiceNotificationEEE"
  },
  {
   "name" : "_ZN7android8hardware9bluetooth5audio4V2_031IBluetoothAudioProvidersFactory4pingEv"
  },
  {
   "name" : "_ZN7android8hardware9bluetooth5audio4V2_031IBluetoothAudioProvidersFactory5debugERKNS0_11hidl_handleERKNS0_8hidl_vecINS0_11hidl_stringEEE"
  },
  {
   "name" : "_ZN7android8hardware9bluetooth5audio4V2_031IBluetoothAudioProvidersFactory8castFromERKNS_2spINS_4hidl4base4V1_05IBaseEEEb"
  },
  {
   "name" : "_ZN7android8hardware9bluetooth5audio4V2_031IBluetoothAudioProvidersFactory8castFromERKNS_2spIS4_EEb"
  },
  {
   "name" : "_ZN7android8hardware9bluetooth5audio4V2_032BsBluetoothAudioProvidersFactory13addOnewayTaskENSt3__18functionIFvvEEE"
  },
  {
   "name" : "_ZN7android8hardware9bluetooth5audio4V2_032BsBluetoothAudioProvidersFactoryC1ENS_2spINS3_31IBluetoothAudioProvidersFactoryEEE"
  },
  {
   "name" : "_ZN7android8hardware9bluetooth5audio4V2_032BsBluetoothAudioProvidersFactoryC2ENS_2spINS3_31IBluetoothAudioProvidersFactoryEEE"
  },
  {
   "name" : "_ZN7android8hardware9bluetooth5audio4V2_034BnHwBluetoothAudioProvidersFactory10onTransactEjRKNS0_6ParcelEPS5_jNSt3__18functionIFvRS5_EEE"
  },
  {
   "name" : "_ZN7android8hardware9bluetooth5audio4V2_034BnHwBluetoothAudioProvidersFactory12getDebugInfoENSt3__18functionIFvRKNS_4hidl4base4V1_09DebugInfoEEEE"
  },
  {
   "name" : "_ZN7android8hardware9bluetooth5audio4V2_034BnHwBluetoothAudioProvidersFactory18_hidl_openProviderEPNS_4hidl4base4V1_08BnHwBaseERKNS0_6ParcelEPSA_NSt3__18functionIFvRSA_EEE"
  },
  {
   "name" : "_ZN7android8hardware9bluetooth5audio4V2_034BnHwBluetoothAudioProvidersFactory29_hidl_getProviderCapabilitiesEPNS_4hidl4base4V1_08BnHwBaseERKNS0_6ParcelEPSA_NSt3__18functionIFvRSA_EEE"
  },
  {
   "name" : "_ZN7android8hardware9bluetooth5audio4V2_034BnHwBluetoothAudioProvidersFactory4pingEv"
  },
  {
   "name" : "_ZN7android8hardware9bluetooth5audio4V2_034BnHwBluetoothAudioProvidersFactoryC1ERKNS_2spINS3_31IBluetoothAudioProvidersFactoryEEE"
  },
  {
   "name" : "_ZN7android8hardware9bluetooth5audio4V2_034BnHwBluetoothAudioProvidersFactoryC2ERKNS_2spINS3_31IBluetoothAudioProvidersFactoryEEE"
  },
  {
   "name" : "_ZN7android8hardware9bluetooth5audio4V2_034BnHwBluetoothAudioProvidersFactoryD0Ev"
  },
  {
   "name" : "_ZN7android8hardware9bluetooth5audio4V2_034BnHwBluetoothAudioProvidersFactoryD1Ev"
  },
  {
   "name" : "_ZN7android8hardware9bluetooth5audio4V2_034BnHwBluetoothAudioProvidersFactoryD2Ev"
  },
  {
   "name" : "_ZN7android8hardware9bluetooth5audio4V2_034BpHwBluetoothAudioProvidersFactory11linkToDeathERKNS_2spINS0_20hidl_death_recipientEEEm"
  },
  {
   "name" : "_ZN7android8hardware9bluetooth5audio4V2_034BpHwBluetoothAudioProvidersFactory12getDebugInfoENSt3__18functionIFvRKNS_4hidl4base4V1_09DebugInfoEEEE"
  },
  {
   "name" : "_ZN7android8hardware9bluetooth5audio4V2_034BpHwBluetoothAudioProvidersFactory12getHashChainENSt3__18functionIFvRKNS0_8hidl_vecINS0_10hidl_arrayIhLm32EJEEEEEEEE"
  },
  {
   "name" : "_ZN7android8hardware9bluetooth5audio4V2_034BpHwBluetoothAudioProvidersFactory12openProviderENS3_11SessionTypeENSt3__18functionIFvNS3_6StatusERKNS_2spINS3_23IBluetoothAudioProviderEEEEEE"
  },
  {
   "name" : "_ZN7android8hardware9bluetooth5audio4V2_034BpHwBluetoothAudioProvidersFactory13unlinkToDeathERKNS_2spINS0_20hidl_death_recipientEEE"
  },
  {
   "name" : "_ZN7android8hardware9bluetooth5audio4V2_034BpHwBluetoothAudioProvidersFactory14interfaceChainENSt3__18functionIFvRKNS0_8hidl_vecINS0_11hidl_stringEEEEEE"
  },
  {
   "name" : "_ZN7android8hardware9bluetooth5audio4V2_034BpHwBluetoothAudioProvidersFactory18_hidl_openProviderEPNS0_10IInterfaceEPNS0_7details16HidlInstrumentorENS3_11SessionTypeENSt3__18functionIFvNS3_6StatusERKNS_2spINS3_23IBluetoothAudioProviderEEEEEE"
  },
  {
   "name" : "_ZN7android8hardware9bluetooth5audio4V2_034BpHwBluetoothAudioProvidersFactory19interfaceDescriptorENSt3__18functionIFvRKNS0_11hidl_stringEEEE"
  },
  {
   "name" : "_ZN7android8hardware9bluetooth5audio4V2_034BpHwBluetoothAudioProvidersFactory21notifySyspropsChangedEv"
  },
  {
   "name" : "_ZN7android8hardware9bluetooth5audio4V2_034BpHwBluetoothAudioProvidersFactory21setHALInstrumentationEv"
  },
  {
   "name" : "_ZN7android8hardware9bluetooth5audio4V2_034BpHwBluetoothAudioProvidersFactory23getProviderCapabilitiesENS3_11SessionTypeENSt3__18functionIFvRKNS0_8hidl_vecINS3_17AudioCapabilitiesEEEEEE"
  },
  {
   "name" : "_ZN7android8hardware9bluetooth5audio4V2_034BpHwBluetoothAudioProvidersFactory29_hidl_getProviderCapabilitiesEPNS0_10IInterfaceEPNS0_7details16HidlInstrumentorENS3_11SessionTypeENSt3__18functionIFvRKNS0_8hidl_vecINS3_17AudioCapabilitiesEEEEEE"
  },
  {
   "name" : "_ZN7android8hardware9bluetooth5audio4V2_034BpHwBluetoothAudioProvidersFactory4pingEv"
  },
  {
   "name" : "_ZN7android8hardware9bluetooth5audio4V2_034BpHwBluetoothAudioProvidersFactory5debugERKNS0_11hidl_handleERKNS0_8hidl_vecINS0_11hidl_stringEEE"
  },
  {
   "name" : "_ZN7android8hardware9bluetooth5audio4V2_034BpHwBluetoothAudioProvidersFactoryC1ERKNS_2spINS0_7IBinderEEE"
  },
  {
   "name" : "_ZN7android8hardware9bluetooth5audio4V2_034BpHwBluetoothAudioProvidersFactoryC2ERKNS_2spINS0_7IBinderEEE"
  },
  {
   "name" : "_ZNK7android8hardware9bluetooth5audio4V2_017AudioCapabilities15pcmCapabilitiesEv"
  },
  {
   "name" : "_ZNK7android8hardware9bluetooth5audio4V2_017AudioCapabilities16getDiscriminatorEv"
  },
  {
   "name" : "_ZNK7android8hardware9bluetooth5audio4V2_017AudioCapabilities17codecCapabilitiesEv"
  },
  {
   "name" : "_ZNK7android8hardware9bluetooth5audio4V2_017CodecCapabilities12Capabilities15aacCapabilitiesEv"
  },
  {
   "name" : "_ZNK7android8hardware9bluetooth5audio4V2_017CodecCapabilities12Capabilities15sbcCapabilitiesEv"
  },
  {
   "name" : "_ZNK7android8hardware9bluetooth5audio4V2_017CodecCapabilities12Capabilities16aptxCapabilitiesEv"
  },
  {
   "name" : "_ZNK7android8hardware9bluetooth5audio4V2_017CodecCapabilities12Capabilities16getDiscriminatorEv"
  },
  {
   "name" : "_ZNK7android8hardware9bluetooth5audio4V2_017CodecCapabilities12Capabilities16ldacCapabilitiesEv"
  },
  {
   "name" : "_ZNK7android8hardware9bluetooth5audio4V2_018AudioConfiguration11codecConfigEv"
  },
  {
   "name" : "_ZNK7android8hardware9bluetooth5audio4V2_018AudioConfiguration16getDiscriminatorEv"
  },
  {
   "name" : "_ZNK7android8hardware9bluetooth5audio4V2_018AudioConfiguration9pcmConfigEv"
  },
  {
   "name" : "_ZNK7android8hardware9bluetooth5audio4V2_018CodecConfiguration13CodecSpecific10aptxConfigEv"
  },
  {
   "name" : "_ZNK7android8hardware9bluetooth5audio4V2_018CodecConfiguration13CodecSpecific10ldacConfigEv"
  },
  {
   "name" : "_ZNK7android8hardware9bluetooth5audio4V2_018CodecConfiguration13CodecSpecific16getDiscriminatorEv"
  },
  {
   "name" : "_ZNK7android8hardware9bluetooth5audio4V2_018CodecConfiguration13CodecSpecific9aacConfigEv"
  },
  {
   "name" : "_ZNK7android8hardware9bluetooth5audio4V2_018CodecConfiguration13CodecSpecific9sbcConfigEv"
  },
  {
   "binding" : "weak",
   "name" : "_ZNSt3__113__tree_removeIPNS_16__tree_node_baseIPvEEEEvT_S5_"
  },
  {
   "binding" : "weak",
   "name" : "_ZNSt3__127__tree_balance_after_insertIPNS_16__tree_node_baseIPvEEEEvT_S5_"
  },
  {
   "binding" : "weak",
   "name" : "_ZNSt3__16__treeINS_12__value_typeINS_12basic_stringIcNS_11char_traitsIcEENS_9allocatorIcEEEENS_8functionIFN7android2spINS9_4hidl4base4V1_05IBaseEEEPvEEEEENS_19__map_value_compareIS7_SJ_NS_4lessIS7_EELb1EEENS5_ISJ_EEE12__find_equalIS7_EERPNS_16__tree_node_baseISG_EERPNS_15__tree_end_nodeIST_EERKT_"
  },
  {
   "binding" : "weak",
   "name" : "_ZNSt3__16__treeINS_12__value_typeINS_12basic_stringIcNS_11char_traitsIcEENS_9allocatorIcEEEENS_8functionIFN7android2spINS9_4hidl4base4V1_05IBaseEEEPvEEEEENS_19__map_value_compareIS7_SJ_NS_4lessIS7_EELb1EEENS5_ISJ_EEE4findIS7_EENS_15__tree_iteratorISJ_PNS_11__tree_nodeISJ_SG_EElEERKT_"
  },
  {
   "binding" : "weak",
   "name" : "_ZNSt3__16__treeINS_12__value_typeINS_12basic_stringIcNS_11char_traitsIcEENS_9allocatorIcEEEENS_8functionIFN7android2spINS9_4hidl4base4V1_05IBaseEEEPvEEEEENS_19__map_value_compareIS7_SJ_NS_4lessIS7_EELb1EEENS5_ISJ_EEE5eraseENS_21__tree_const_iteratorISJ_PNS_11__tree_nodeISJ_SG_EElEE"
  },
  {
   "binding" : "weak",
   "name" : "_ZNSt3__16__treeINS_12__value_typeINS_12basic_stringIcNS_11char_traitsIcEENS_9allocatorIcEEEENS_8functionIFN7android2spINS9_8hardware7IBinderEEEPvEEEEENS_19__map_value_compareIS7_SH_NS_4lessIS7_EELb1EEENS5_ISH_EEE12__find_equalIS7_EERPNS_16__tree_node_baseISE_EERPNS_15__tree_end_nodeISR_EERKT_"
  },
  {
   "binding" : "weak",
   "name" : "_ZNSt3__16__treeINS_12__value_typeINS_12basic_stringIcNS_11char_traitsIcEENS_9allocatorIcEEEENS_8functionIFN7android2spINS9_8hardware7IBinderEEEPvEEEEENS_19__map_value_compareIS7_SH_NS_4lessIS7_EELb1EEENS5_ISH_EEE4findIS7_EENS_15__tree_iteratorISH_PNS_11__tree_nodeISH_SE_EElEERKT_"
  },
  {
   "binding" : "weak",
   "name" : "_ZNSt3__16__treeINS_12__value_typeINS_12basic_stringIcNS_11char_traitsIcEENS_9allocatorIcEEEENS_8functionIFN7android2spINS9_8hardware7IBinderEEEPvEEEEENS_19__map_value_compareIS7_SH_NS_4lessIS7_EELb1EEENS5_ISH_EEE5eraseENS_21__tree_const_iteratorISH_PNS_11__tree_nodeISH_SE_EElEE"
  },
  {
   "binding" : "weak",
   "name" : "_ZNSt3__16vectorIN7android2spINS1_8hardware27hidl_binder_death_recipientEEENS_9allocatorIS5_EEE21__push_back_slow_pathIS5_EEvOT_"
  },
  {
   "binding" : "weak",
   "name" : "_ZNSt3__16vectorINS_8functionIFvN7android8hardware7details16HidlInstrumentor20InstrumentationEventEPKcS8_S8_S8_PNS0_IPvNS_9allocatorIS9_EEEEEEENSA_ISF_EEEC2ERKSH_"
  },
  {
   "binding" : "weak",
   "name" : "_ZNSt3__16vectorIPvNS_9allocatorIS1_EEE21__push_back_slow_pathIS1_EEvOT_"
  },
  {
   "name" : "_ZThn32_N7android8hardware9bluetooth5audio4V2_022BnHwBluetoothAudioPortD0Ev"
  },
  {
   "name" : "_ZThn32_N7android8hardware9bluetooth5audio4V2_022BnHwBluetoothAudioPortD1Ev"
  },
  {
   "name" : "_ZThn32_N7android8hardware9bluetooth5audio4V2_026BnHwBluetoothAudioProviderD0Ev"
  },
  {
   "name" : "_ZThn32_N7android8hardware9bluetooth5audio4V2_026BnHwBluetoothAudioProviderD1Ev"
  },
  {
   "name" : "_ZThn32_N7android8hardware9bluetooth5audio4V2_034BnHwBluetoothAudioProvidersFactoryD0Ev"
  },
  {
   "name" : "_ZThn32_N7android8hardware9bluetooth5audio4V2_034BnHwBluetoothAudioProvidersFactoryD1Ev"
  },
  {
   "name" : "_ZTv0_n24_N7android8hardware9bluetooth5audio4V2_022BnHwBluetoothAudioPortD0Ev"
  },
  {
   "name" : "_ZTv0_n24_N7android8hardware9bluetooth5audio4V2_022BnHwBluetoothAudioPortD1Ev"
  },
  {
   "name" : "_ZTv0_n24_N7android8hardware9bluetooth5audio4V2_026BnHwBluetoothAudioProviderD0Ev"
  },
  {
   "name" : "_ZTv0_n24_N7android8hardware9bluetooth5audio4V2_026BnHwBluetoothAudioProviderD1Ev"
  },
  {
   "name" : "_ZTv0_n24_N7android8hardware9bluetooth5audio4V2_034BnHwBluetoothAudioProvidersFactoryD0Ev"
  },
  {
   "name" : "_ZTv0_n24_N7android8hardware9bluetooth5audio4V2_034BnHwBluetoothAudioProvidersFactoryD1Ev"
  }
 ],
 "elf_objects" :
 [
  {
   "name" : "_ZN7android8hardware9bluetooth5audio4V2_019IBluetoothAudioPort10descriptorE"
  },
  {
   "name" : "_ZN7android8hardware9bluetooth5audio4V2_023IBluetoothAudioProvider10descriptorE"
  },
  {
   "name" : "_ZN7android8hardware9bluetooth5audio4V2_031IBluetoothAudioProvidersFactory10descriptorE"
  },
  {
   "name" : "_ZTCN7android8hardware9bluetooth5audio4V2_019IBluetoothAudioPortE0_NS_4hidl4base4V1_05IBaseE"
  },
  {
   "binding" : "weak",
   "name" : "_ZTCN7android8hardware9bluetooth5audio4V2_020BsBluetoothAudioPortE0_NS3_19IBluetoothAudioPortE"
  },
  {
   "name" : "_ZTCN7android8hardware9bluetooth5audio4V2_022BnHwBluetoothAudioPortE0_NS0_7IBinderE"
  },
  {
   "name" : "_ZTCN7android8hardware9bluetooth5audio4V2_022BnHwBluetoothAudioPortE0_NS0_9BHwBinderE"
  },
  {
   "name" : "_ZTCN7android8hardware9bluetooth5audio4V2_022BnHwBluetoothAudioPortE0_NS_4hidl4base4V1_08BnHwBaseE"
  },
  {
   "name" : "_ZTCN7android8hardware9bluetooth5audio4V2_022BpHwBluetoothAudioPortE0_NS0_11BpInterfaceINS3_19IBluetoothAudioPortEEE"
  },
  {
   "name" : "_ZTCN7android8hardware9bluetooth5audio4V2_022BpHwBluetoothAudioPortE0_NS3_19IBluetoothAudioPortE"
  },
  {
   "name" : "_ZTCN7android8hardware9bluetooth5audio4V2_022BpHwBluetoothAudioPortE0_NS_4hidl4base4V1_05IBaseE"
  },
  {
   "name" : "_ZTCN7android8hardware9bluetooth5audio4V2_022BpHwBluetoothAudioPortE16_NS0_11BpHwRefBaseE"
  },
  {
   "name" : "_ZTCN7android8hardware9bluetooth5audio4V2_022BpHwBluetoothAudioPortE8_NS0_10IInterfaceE"
  },
  {
   "name" : "_ZTCN7android8hardware9bluetooth5audio4V2_023IBluetoothAudioProviderE0_NS_4hidl4base4V1_05IBaseE"
  },
  {
   "binding" : "weak",
   "name" : "_ZTCN7android8hardware9bluetooth5audio4V2_024BsBluetoothAudioProviderE0_NS3_23IBluetoothAudioProviderE"
  },
  {
   "name" : "_ZTCN7android8hardware9bluetooth5audio4V2_026BnHwBluetoothAudioProviderE0_NS0_7IBinderE"
  },
  {
   "name" : "_ZTCN7android8hardware9bluetooth5audio4V2_026BnHwBluetoothAudioProviderE0_NS0_9BHwBinderE"
  },
  {
   "name" : "_ZTCN7android8hardware9bluetooth5audio4V2_026BnHwBluetoothAudioProviderE0_NS_4hidl4base4V1_08BnHwBaseE"
  },
  {
   "name" : "_ZTCN7android8hardware9bluetooth5audio4V2_026BpHwBluetoothAudioProviderE0_NS0_11BpInterfaceINS3_23IBluetoothAudioProviderEEE"
  },
  {
   "name" : "_ZTCN7android8hardware9bluetooth5audio4V2_026BpHwBluetoothAudioProviderE0_NS3_23IBluetoothAudioProviderE"
  },
  {
   "name" : "_ZTCN7android8hardware9bluetooth5audio4V2_026BpHwBluetoothAudioProviderE0_NS_4hidl4base4V1_05IBaseE"
  },
  {
   "name" : "_ZTCN7android8hardware9bluetooth5audio4V2_026BpHwBluetoothAudioProviderE16_NS0_11BpHwRefBaseE"
  },
  {
   "name" : "_ZTCN7android8hardware9bluetooth5audio4V2_026BpHwBluetoothAudioProviderE8_NS0_10IInterfaceE"
  },
  {
   "name" : "_ZTCN7android8hardware9bluetooth5audio4V2_031IBluetoothAudioProvidersFactoryE0_NS_4hidl4base4V1_05IBaseE"
  },
  {
   "binding" : "weak",
   "name" : "_ZTCN7android8hardware9bluetooth5audio4V2_032BsBluetoothAudioProvidersFactoryE0_NS3_31IBluetoothAudioProvidersFactoryE"
  },
  {
   "name" : "_ZTCN7android8hardware9bluetooth5audio4V2_034BnHwBluetoothAudioProvidersFactoryE0_NS0_7IBinderE"
  },
  {
   "name" : "_ZTCN7android8hardware9bluetooth5audio4V2_034BnHwBluetoothAudioProvidersFactoryE0_NS0_9BHwBinderE"
  },
  {
   "name" : "_ZTCN7android8hardware9bluetooth5audio4V2_034BnHwBluetoothAudioProvidersFactoryE0_NS_4hidl4base4V1_08BnHwBaseE"
  },
  {
   "name" : "_ZTCN7android8hardware9bluetooth5audio4V2_034BpHwBluetoothAudioProvidersFactoryE0_NS0_11BpInterfaceINS3_31IBluetoothAudioProvidersFactoryEEE"
  },
  {
   "name" : "_ZTCN7android8hardware9bluetooth5audio4V2_034BpHwBluetoothAudioProvidersFactoryE0_NS3_31IBluetoothAudioProvidersFactoryE"
  },
  {
   "name" : "_ZTCN7android8hardware9bluetooth5audio4V2_034BpHwBluetoothAudioProvidersFactoryE0_NS_4hidl4base4V1_05IBaseE"
  },
  {
   "name" : "_ZTCN7android8hardware9bluetooth5audio4V2_034BpHwBluetoothAudioProvidersFactoryE16_NS0_11BpHwRefBaseE"
  },
  {
   "name" : "_ZTCN7android8hardware9bluetooth5audio4V2_034BpHwBluetoothAudioProvidersFactoryE8_NS0_10IInterfaceE"
  },
  {
   "name" : "_ZTTN7android8hardware9bluetooth5audio4V2_019IBluetoothAudioPortE"
  },
  {
   "name" : "_ZTTN7android8hardware9bluetooth5audio4V2_022BnHwBluetoothAudioPortE"
  },
  {
   "name" : "_ZTTN7android8hardware9bluetooth5audio4V2_022BpHwBluetoothAudioPortE"
  },
  {
   "name" : "_ZTTN7android8hardware9bluetooth5audio4V2_023IBluetoothAudioProviderE"
  },
  {
   "name" : "_ZTTN7android8hardware9bluetooth5audio4V2_026BnHwBluetoothAudioProviderE"
  },
  {
   "name" : "_ZTTN7android8hardware9bluetooth5audio4V2_026BpHwBluetoothAudioProviderE"
  },
  {
   "name" : "_ZTTN7android8hardware9bluetooth5audio4V2_031IBluetoothAudioProvidersFactoryE"
  },
  {
   "name" : "_ZTTN7android8hardware9bluetooth5audio4V2_034BnHwBluetoothAudioProvidersFactoryE"
  },
  {
   "name" : "_ZTTN7android8hardware9bluetooth5audio4V2_034BpHwBluetoothAudioProvidersFactoryE"
  },
  {
   "name" : "_ZTVN7android8hardware9bluetooth5audio4V2_019IBluetoothAudioPortE"
  },
  {
   "binding" : "weak",
   "name" : "_ZTVN7android8hardware9bluetooth5audio4V2_020BsBluetoothAudioPortE"
  },
  {
   "name" : "_ZTVN7android8hardware9bluetooth5audio4V2_022BnHwBluetoothAudioPortE"
  },
  {
   "name" : "_ZTVN7android8hardware9bluetooth5audio4V2_022BpHwBluetoothAudioPortE"
  },
  {
   "name" : "_ZTVN7android8hardware9bluetooth5audio4V2_023IBluetoothAudioProviderE"
  },
  {
   "binding" : "weak",
   "name" : "_ZTVN7android8hardware9bluetooth5audio4V2_024BsBluetoothAudioProviderE"
  },
  {
   "name" : "_ZTVN7android8hardware9bluetooth5audio4V2_026BnHwBluetoothAudioProviderE"
  },
  {
   "name" : "_ZTVN7android8hardware9bluetooth5audio4V2_026BpHwBluetoothAudioProviderE"
  },
  {
   "name" : "_ZTVN7android8hardware9bluetooth5audio4V2_031IBluetoothAudioProvidersFactoryE"
  },
  {
   "binding" : "weak",
   "name" : "_ZTVN7android8hardware9bluetooth5audio4V2_032BsBluetoothAudioProvidersFactoryE"
  },
  {
   "name" : "_ZTVN7android8hardware9bluetooth5audio4V2_034BnHwBluetoothAudioProvidersFactoryE"
  },
  {
   "name" : "_ZTVN7android8hardware9bluetooth5audio4V2_034BpHwBluetoothAudioProvidersFactoryE"
  }
 ],
 "enum_types" :
 [
  {
   "alignment" : 4,
   "enum_fields" :
   [
    {
     "enum_field_value" : 0,
     "name" : "android::Condition::WAKE_UP_ONE"
    },
    {
     "enum_field_value" : 1,
     "name" : "android::Condition::WAKE_UP_ALL"
    }
   ],
   "linker_set_key" : "android::Condition::WakeUpType",
   "name" : "android::Condition::WakeUpType",
   "referenced_type" : "type-981",
   "self_type" : "type-981",
   "size" : 4,
   "source_file" : "/system/core/libutils/include/utils/Condition.h",
   "underlying_type" : "type-2",
   "unique_id" : "_ZTSN7android9Condition10WakeUpTypeE"
  },
  {
   "alignment" : 4,
   "enum_fields" :
   [
    {
     "enum_field_value" : 0,
     "name" : "android::String16::kEmptyString"
    }
   ],
   "linker_set_key" : "android::String16::StaticLinkage",
   "name" : "android::String16::StaticLinkage",
   "referenced_type" : "type-875",
   "self_type" : "type-875",
   "size" : 4,
   "source_file" : "/system/core/libutils/include/utils/String16.h",
   "underlying_type" : "type-2",
   "unique_id" : "_ZTSN7android8String1613StaticLinkageE"
  },
  {
   "alignment" : 4,
   "enum_fields" :
   [
    {
     "enum_field_value" : 0,
     "name" : "android::String8::kEmptyString"
    }
   ],
   "linker_set_key" : "android::String8::StaticLinkage",
   "name" : "android::String8::StaticLinkage",
   "referenced_type" : "type-868",
   "self_type" : "type-868",
   "size" : 4,
   "source_file" : "/system/core/libutils/include/utils/String8.h",
   "underlying_type" : "type-2",
   "unique_id" : "_ZTSN7android7String813StaticLinkageE"
  },
  {
   "alignment" : 4,
   "enum_fields" :
   [
    {
     "enum_field_value" : 0,
     "name" : "android::hardware::HidlReturnRestriction::NONE"
    },
    {
     "enum_field_value" : 1,
     "name" : "android::hardware::HidlReturnRestriction::ERROR_IF_UNCHECKED"
    },
    {
     "enum_field_value" : 2,
     "name" : "android::hardware::HidlReturnRestriction::FATAL_IF_UNCHECKED"
    }
   ],
   "linker_set_key" : "android::hardware::HidlReturnRestriction",
   "name" : "android::hardware::HidlReturnRestriction",
   "referenced_type" : "type-598",
   "self_type" : "type-598",
   "size" : 4,
   "source_file" : "/system/libhidl/base/include/hidl/Status.h",
   "underlying_type" : "type-19",
   "unique_id" : "_ZTSN7android8hardware21HidlReturnRestrictionE"
  },
  {
   "alignment" : 4,
   "enum_fields" :
   [
    {
     "enum_field_value" : 0,
     "name" : "android::hardware::MQDescriptor<char, android::hardware::kSynchronizedReadWrite>::READPTRPOS"
    },
    {
     "enum_field_value" : 1,
     "name" : "android::hardware::MQDescriptor<char, android::hardware::kSynchronizedReadWrite>::WRITEPTRPOS"
    },
    {
     "enum_field_value" : 2,
     "name" : "android::hardware::MQDescriptor<char, android::hardware::kSynchronizedReadWrite>::DATAPTRPOS"
    },
    {
     "enum_field_value" : 3,
     "name" : "android::hardware::MQDescriptor<char, android::hardware::kSynchronizedReadWrite>::EVFLAGWORDPOS"
    }
   ],
   "linker_set_key" : "android::hardware::MQDescriptor<char, android::hardware::kSynchronizedReadWrite>::GrantorType",
   "name" : "android::hardware::MQDescriptor<char, android::hardware::kSynchronizedReadWrite>::GrantorType",
   "referenced_type" : "type-859",
   "self_type" : "type-859",
   "size" : 4,
   "source_file" : "/system/libhidl/base/include/hidl/MQDescriptor.h",
   "underlying_type" : "type-19",
   "unique_id" : "_ZTSN7android8hardware12MQDescriptorIcLNS0_8MQFlavorE1EE11GrantorTypeE"
  },
  {
   "alignment" : 4,
   "enum_fields" :
   [
    {
     "enum_field_value" : 0,
     "name" : "android::hardware::MQDescriptor<unsigned char, android::hardware::kSynchronizedReadWrite>::READPTRPOS"
    },
    {
     "enum_field_value" : 1,
     "name" : "android::hardware::MQDescriptor<unsigned char, android::hardware::kSynchronizedReadWrite>::WRITEPTRPOS"
    },
    {
     "enum_field_value" : 2,
     "name" : "android::hardware::MQDescriptor<unsigned char, android::hardware::kSynchronizedReadWrite>::DATAPTRPOS"
    },
    {
     "enum_field_value" : 3,
     "name" : "android::hardware::MQDescriptor<unsigned char, android::hardware::kSynchronizedReadWrite>::EVFLAGWORDPOS"
    }
   ],
   "linker_set_key" : "android::hardware::MQDescriptor<unsigned char, android::hardware::kSynchronizedReadWrite>::GrantorType",
   "name" : "android::hardware::MQDescriptor<unsigned char, android::hardware::kSynchronizedReadWrite>::GrantorType",
   "referenced_type" : "type-115",
   "self_type" : "type-115",
   "size" : 4,
   "source_file" : "/system/libhidl/base/include/hidl/MQDescriptor.h",
   "underlying_type" : "type-19",
   "unique_id" : "_ZTSN7android8hardware12MQDescriptorIhLNS0_8MQFlavorE1EE11GrantorTypeE"
  },
  {
   "alignment" : 4,
   "enum_fields" :
   [
    {
     "enum_field_value" : 1,
     "name" : "android::hardware::kSynchronizedReadWrite"
    },
    {
     "enum_field_value" : 2,
     "name" : "android::hardware::kUnsynchronizedWrite"
    }
   ],
   "linker_set_key" : "android::hardware::MQFlavor",
   "name" : "android::hardware::MQFlavor",
   "referenced_type" : "type-857",
   "self_type" : "type-857",
   "size" : 4,
   "source_file" : "/system/libhidl/base/include/hidl/MQDescriptor.h",
   "underlying_type" : "type-2",
   "unique_id" : "_ZTSN7android8hardware8MQFlavorE"
  },
  {
   "alignment" : 4,
   "enum_fields" :
   [
    {
     "enum_field_value" : 0,
     "name" : "android::hardware::ProcessState::CallRestriction::NONE"
    },
    {
     "enum_field_value" : 1,
     "name" : "android::hardware::ProcessState::CallRestriction::ERROR_IF_NOT_ONEWAY"
    },
    {
     "enum_field_value" : 2,
     "name" : "android::hardware::ProcessState::CallRestriction::FATAL_IF_NOT_ONEWAY"
    }
   ],
   "linker_set_key" : "android::hardware::ProcessState::CallRestriction",
   "name" : "android::hardware::ProcessState::CallRestriction",
   "referenced_type" : "type-227",
   "self_type" : "type-227",
   "size" : 4,
   "source_file" : "/system/libhwbinder/include/hwbinder/ProcessState.h",
   "underlying_type" : "type-19",
   "unique_id" : "_ZTSN7android8hardware12ProcessState15CallRestrictionE"
  },
  {
   "alignment" : 4,
   "enum_fields" :
   [
    {
     "enum_field_value" : 0,
     "name" : "android::hardware::Status::EX_NONE"
    },
    {
     "enum_field_value" : -1,
     "name" : "android::hardware::Status::EX_SECURITY"
    },
    {
     "enum_field_value" : -2,
     "name" : "android::hardware::Status::EX_BAD_PARCELABLE"
    },
    {
     "enum_field_value" : -3,
     "name" : "android::hardware::Status::EX_ILLEGAL_ARGUMENT"
    },
    {
     "enum_field_value" : -4,
     "name" : "android::hardware::Status::EX_NULL_POINTER"
    },
    {
     "enum_field_value" : -5,
     "name" : "android::hardware::Status::EX_ILLEGAL_STATE"
    },
    {
     "enum_field_value" : -6,
     "name" : "android::hardware::Status::EX_NETWORK_MAIN_THREAD"
    },
    {
     "enum_field_value" : -7,
     "name" : "android::hardware::Status::EX_UNSUPPORTED_OPERATION"
    },
    {
     "enum_field_value" : -128,
     "name" : "android::hardware::Status::EX_HAS_REPLY_HEADER"
    },
    {
     "enum_field_value" : -129,
     "name" : "android::hardware::Status::EX_TRANSACTION_FAILED"
    }
   ],
   "linker_set_key" : "android::hardware::Status::Exception",
   "name" : "android::hardware::Status::Exception",
   "referenced_type" : "type-476",
   "self_type" : "type-476",
   "size" : 4,
   "source_file" : "/system/libhidl/base/include/hidl/Status.h",
   "underlying_type" : "type-19",
   "unique_id" : "_ZTSN7android8hardware6Status9ExceptionE"
  },
  {
   "alignment" : 4,
   "enum_fields" :
   [
    {
     "enum_field_value" : 0,
     "name" : "android::hardware::audio::common::V5_0::AudioChannelMask::REPRESENTATION_POSITION"
    },
    {
     "enum_field_value" : 2,
     "name" : "android::hardware::audio::common::V5_0::AudioChannelMask::REPRESENTATION_INDEX"
    },
    {
     "enum_field_value" : 0,
     "name" : "android::hardware::audio::common::V5_0::AudioChannelMask::NONE"
    },
    {
     "enum_field_value" : -1073741824,
     "name" : "android::hardware::audio::common::V5_0::AudioChannelMask::INVALID"
    },
    {
     "enum_field_value" : 1,
     "name" : "android::hardware::audio::common::V5_0::AudioChannelMask::OUT_FRONT_LEFT"
    },
    {
     "enum_field_value" : 2,
     "name" : "android::hardware::audio::common::V5_0::AudioChannelMask::OUT_FRONT_RIGHT"
    },
    {
     "enum_field_value" : 4,
     "name" : "android::hardware::audio::common::V5_0::AudioChannelMask::OUT_FRONT_CENTER"
    },
    {
     "enum_field_value" : 8,
     "name" : "android::hardware::audio::common::V5_0::AudioChannelMask::OUT_LOW_FREQUENCY"
    },
    {
     "enum_field_value" : 16,
     "name" : "android::hardware::audio::common::V5_0::AudioChannelMask::OUT_BACK_LEFT"
    },
    {
     "enum_field_value" : 32,
     "name" : "android::hardware::audio::common::V5_0::AudioChannelMask::OUT_BACK_RIGHT"
    },
    {
     "enum_field_value" : 64,
     "name" : "android::hardware::audio::common::V5_0::AudioChannelMask::OUT_FRONT_LEFT_OF_CENTER"
    },
    {
     "enum_field_value" : 128,
     "name" : "android::hardware::audio::common::V5_0::AudioChannelMask::OUT_FRONT_RIGHT_OF_CENTER"
    },
    {
     "enum_field_value" : 256,
     "name" : "android::hardware::audio::common::V5_0::AudioChannelMask::OUT_BACK_CENTER"
    },
    {
     "enum_field_value" : 512,
     "name" : "android::hardware::audio::common::V5_0::AudioChannelMask::OUT_SIDE_LEFT"
    },
    {
     "enum_field_value" : 1024,
     "name" : "android::hardware::audio::common::V5_0::AudioChannelMask::OUT_SIDE_RIGHT"
    },
    {
     "enum_field_value" : 2048,
     "name" : "android::hardware::audio::common::V5_0::AudioChannelMask::OUT_TOP_CENTER"
    },
    {
     "enum_field_value" : 4096,
     "name" : "android::hardware::audio::common::V5_0::AudioChannelMask::OUT_TOP_FRONT_LEFT"
    },
    {
     "enum_field_value" : 8192,
     "name" : "android::hardware::audio::common::V5_0::AudioChannelMask::OUT_TOP_FRONT_CENTER"
    },
    {
     "enum_field_value" : 16384,
     "name" : "android::hardware::audio::common::V5_0::AudioChannelMask::OUT_TOP_FRONT_RIGHT"
    },
    {
     "enum_field_value" : 32768,
     "name" : "android::hardware::audio::common::V5_0::AudioChannelMask::OUT_TOP_BACK_LEFT"
    },
    {
     "enum_field_value" : 65536,
     "name" : "android::hardware::audio::common::V5_0::AudioChannelMask::OUT_TOP_BACK_CENTER"
    },
    {
     "enum_field_value" : 131072,
     "name" : "android::hardware::audio::common::V5_0::AudioChannelMask::OUT_TOP_BACK_RIGHT"
    },
    {
     "enum_field_value" : 262144,
     "name" : "android::hardware::audio::common::V5_0::AudioChannelMask::OUT_TOP_SIDE_LEFT"
    },
    {
     "enum_field_value" : 524288,
     "name" : "android::hardware::audio::common::V5_0::AudioChannelMask::OUT_TOP_SIDE_RIGHT"
    },
    {
     "enum_field_value" : 536870912,
     "name" : "android::hardware::audio::common::V5_0::AudioChannelMask::OUT_HAPTIC_A"
    },
    {
     "enum_field_value" : 268435456,
     "name" : "android::hardware::audio::common::V5_0::AudioChannelMask::OUT_HAPTIC_B"
    },
    {
     "enum_field_value" : 1,
     "name" : "android::hardware::audio::common::V5_0::AudioChannelMask::OUT_MONO"
    },
    {
     "enum_field_value" : 3,
     "name" : "android::hardware::audio::common::V5_0::AudioChannelMask::OUT_STEREO"
    },
    {
     "enum_field_value" : 11,
     "name" : "android::hardware::audio::common::V5_0::AudioChannelMask::OUT_2POINT1"
    },
    {
     "enum_field_value" : 786435,
     "name" : "android::hardware::audio::common::V5_0::AudioChannelMask::OUT_2POINT0POINT2"
    },
    {
     "enum_field_value" : 786443,
     "name" : "android::hardware::audio::common::V5_0::AudioChannelMask::OUT_2POINT1POINT2"
    },
    {
     "enum_field_value" : 786439,
     "name" : "android::hardware::audio::common::V5_0::AudioChannelMask::OUT_3POINT0POINT2"
    },
    {
     "enum_field_value" : 786447,
     "name" : "android::hardware::audio::common::V5_0::AudioChannelMask::OUT_3POINT1POINT2"
    },
    {
     "enum_field_value" : 51,
     "name" : "android::hardware::audio::common::V5_0::AudioChannelMask::OUT_QUAD"
    },
    {
     "enum_field_value" : 51,
     "name" : "android::hardware::audio::common::V5_0::AudioChannelMask::OUT_QUAD_BACK"
    },
    {
     "enum_field_value" : 1539,
     "name" : "android::hardware::audio::common::V5_0::AudioChannelMask::OUT_QUAD_SIDE"
    },
    {
     "enum_field_value" : 263,
     "name" : "android::hardware::audio::common::V5_0::AudioChannelMask::OUT_SURROUND"
    },
    {
     "enum_field_value" : 55,
     "name" : "android::hardware::audio::common::V5_0::AudioChannelMask::OUT_PENTA"
    },
    {
     "enum_field_value" : 63,
     "name" : "android::hardware::audio::common::V5_0::AudioChannelMask::OUT_5POINT1"
    },
    {
     "enum_field_value" : 63,
     "name" : "android::hardware::audio::common::V5_0::AudioChannelMask::OUT_5POINT1_BACK"
    },
    {
     "enum_field_value" : 1551,
     "name" : "android::hardware::audio::common::V5_0::AudioChannelMask::OUT_5POINT1_SIDE"
    },
    {
     "enum_field_value" : 786495,
     "name" : "android::hardware::audio::common::V5_0::AudioChannelMask::OUT_5POINT1POINT2"
    },
    {
     "enum_field_value" : 184383,
     "name" : "android::hardware::audio::common::V5_0::AudioChannelMask::OUT_5POINT1POINT4"
    },
    {
     "enum_field_value" : 319,
     "name" : "android::hardware::audio::common::V5_0::AudioChannelMask::OUT_6POINT1"
    },
    {
     "enum_field_value" : 1599,
     "name" : "android::hardware::audio::common::V5_0::AudioChannelMask::OUT_7POINT1"
    },
    {
     "enum_field_value" : 788031,
     "name" : "android::hardware::audio::common::V5_0::AudioChannelMask::OUT_7POINT1POINT2"
    },
    {
     "enum_field_value" : 185919,
     "name" : "android::hardware::audio::common::V5_0::AudioChannelMask::OUT_7POINT1POINT4"
    },
    {
     "enum_field_value" : 536870913,
     "name" : "android::hardware::audio::common::V5_0::AudioChannelMask::OUT_MONO_HAPTIC_A"
    },
    {
     "enum_field_value" : 536870915,
     "name" : "android::hardware::audio::common::V5_0::AudioChannelMask::OUT_STEREO_HAPTIC_A"
    },
    {
     "enum_field_value" : 805306368,
     "name" : "android::hardware::audio::common::V5_0::AudioChannelMask::OUT_HAPTIC_AB"
    },
    {
     "enum_field_value" : 805306369,
     "name" : "android::hardware::audio::common::V5_0::AudioChannelMask::OUT_MONO_HAPTIC_AB"
    },
    {
     "enum_field_value" : 805306371,
     "name" : "android::hardware::audio::common::V5_0::AudioChannelMask::OUT_STEREO_HAPTIC_AB"
    },
    {
     "enum_field_value" : 4,
     "name" : "android::hardware::audio::common::V5_0::AudioChannelMask::IN_LEFT"
    },
    {
     "enum_field_value" : 8,
     "name" : "android::hardware::audio::common::V5_0::AudioChannelMask::IN_RIGHT"
    },
    {
     "enum_field_value" : 16,
     "name" : "android::hardware::audio::common::V5_0::AudioChannelMask::IN_FRONT"
    },
    {
     "enum_field_value" : 32,
     "name" : "android::hardware::audio::common::V5_0::AudioChannelMask::IN_BACK"
    },
    {
     "enum_field_value" : 64,
     "name" : "android::hardware::audio::common::V5_0::AudioChannelMask::IN_LEFT_PROCESSED"
    },
    {
     "enum_field_value" : 128,
     "name" : "android::hardware::audio::common::V5_0::AudioChannelMask::IN_RIGHT_PROCESSED"
    },
    {
     "enum_field_value" : 256,
     "name" : "android::hardware::audio::common::V5_0::AudioChannelMask::IN_FRONT_PROCESSED"
    },
    {
     "enum_field_value" : 512,
     "name" : "android::hardware::audio::common::V5_0::AudioChannelMask::IN_BACK_PROCESSED"
    },
    {
     "enum_field_value" : 1024,
     "name" : "android::hardware::audio::common::V5_0::AudioChannelMask::IN_PRESSURE"
    },
    {
     "enum_field_value" : 2048,
     "name" : "android::hardware::audio::common::V5_0::AudioChannelMask::IN_X_AXIS"
    },
    {
     "enum_field_value" : 4096,
     "name" : "android::hardware::audio::common::V5_0::AudioChannelMask::IN_Y_AXIS"
    },
    {
     "enum_field_value" : 8192,
     "name" : "android::hardware::audio::common::V5_0::AudioChannelMask::IN_Z_AXIS"
    },
    {
     "enum_field_value" : 65536,
     "name" : "android::hardware::audio::common::V5_0::AudioChannelMask::IN_BACK_LEFT"
    },
    {
     "enum_field_value" : 131072,
     "name" : "android::hardware::audio::common::V5_0::AudioChannelMask::IN_BACK_RIGHT"
    },
    {
     "enum_field_value" : 262144,
     "name" : "android::hardware::audio::common::V5_0::AudioChannelMask::IN_CENTER"
    },
    {
     "enum_field_value" : 1048576,
     "name" : "android::hardware::audio::common::V5_0::AudioChannelMask::IN_LOW_FREQUENCY"
    },
    {
     "enum_field_value" : 2097152,
     "name" : "android::hardware::audio::common::V5_0::AudioChannelMask::IN_TOP_LEFT"
    },
    {
     "enum_field_value" : 4194304,
     "name" : "android::hardware::audio::common::V5_0::AudioChannelMask::IN_TOP_RIGHT"
    },
    {
     "enum_field_value" : 16384,
     "name" : "android::hardware::audio::common::V5_0::AudioChannelMask::IN_VOICE_UPLINK"
    },
    {
     "enum_field_value" : 32768,
     "name" : "android::hardware::audio::common::V5_0::AudioChannelMask::IN_VOICE_DNLINK"
    },
    {
     "enum_field_value" : 16,
     "name" : "android::hardware::audio::common::V5_0::AudioChannelMask::IN_MONO"
    },
    {
     "enum_field_value" : 12,
     "name" : "android::hardware::audio::common::V5_0::AudioChannelMask::IN_STEREO"
    },
    {
     "enum_field_value" : 48,
     "name" : "android::hardware::audio::common::V5_0::AudioChannelMask::IN_FRONT_BACK"
    },
    {
     "enum_field_value" : 252,
     "name" : "android::hardware::audio::common::V5_0::AudioChannelMask::IN_6"
    },
    {
     "enum_field_value" : 6291468,
     "name" : "android::hardware::audio::common::V5_0::AudioChannelMask::IN_2POINT0POINT2"
    },
    {
     "enum_field_value" : 7340044,
     "name" : "android::hardware::audio::common::V5_0::AudioChannelMask::IN_2POINT1POINT2"
    },
    {
     "enum_field_value" : 6553612,
     "name" : "android::hardware::audio::common::V5_0::AudioChannelMask::IN_3POINT0POINT2"
    },
    {
     "enum_field_value" : 7602188,
     "name" : "android::hardware::audio::common::V5_0::AudioChannelMask::IN_3POINT1POINT2"
    },
    {
     "enum_field_value" : 1507340,
     "name" : "android::hardware::audio::common::V5_0::AudioChannelMask::IN_5POINT1"
    },
    {
     "enum_field_value" : 16400,
     "name" : "android::hardware::audio::common::V5_0::AudioChannelMask::IN_VOICE_UPLINK_MONO"
    },
    {
     "enum_field_value" : 32784,
     "name" : "android::hardware::audio::common::V5_0::AudioChannelMask::IN_VOICE_DNLINK_MONO"
    },
    {
     "enum_field_value" : 49168,
     "name" : "android::hardware::audio::common::V5_0::AudioChannelMask::IN_VOICE_CALL_MONO"
    },
    {
     "enum_field_value" : 30,
     "name" : "android::hardware::audio::common::V5_0::AudioChannelMask::COUNT_MAX"
    },
    {
     "enum_field_value" : -2147483648,
     "name" : "android::hardware::audio::common::V5_0::AudioChannelMask::INDEX_HDR"
    },
    {
     "enum_field_value" : -2147483647,
     "name" : "android::hardware::audio::common::V5_0::AudioChannelMask::INDEX_MASK_1"
    },
    {
     "enum_field_value" : -2147483645,
     "name" : "android::hardware::audio::common::V5_0::AudioChannelMask::INDEX_MASK_2"
    },
    {
     "enum_field_value" : -2147483641,
     "name" : "android::hardware::audio::common::V5_0::AudioChannelMask::INDEX_MASK_3"
    },
    {
     "enum_field_value" : -2147483633,
     "name" : "android::hardware::audio::common::V5_0::AudioChannelMask::INDEX_MASK_4"
    },
    {
     "enum_field_value" : -2147483617,
     "name" : "android::hardware::audio::common::V5_0::AudioChannelMask::INDEX_MASK_5"
    },
    {
     "enum_field_value" : -2147483585,
     "name" : "android::hardware::audio::common::V5_0::AudioChannelMask::INDEX_MASK_6"
    },
    {
     "enum_field_value" : -2147483521,
     "name" : "android::hardware::audio::common::V5_0::AudioChannelMask::INDEX_MASK_7"
    },
    {
     "enum_field_value" : -2147483393,
     "name" : "android::hardware::audio::common::V5_0::AudioChannelMask::INDEX_MASK_8"
    },
    {
     "enum_field_value" : -2147483137,
     "name" : "android::hardware::audio::common::V5_0::AudioChannelMask::INDEX_MASK_9"
    },
    {
     "enum_field_value" : -2147482625,
     "name" : "android::hardware::audio::common::V5_0::AudioChannelMask::INDEX_MASK_10"
    },
    {
     "enum_field_value" : -2147481601,
     "name" : "android::hardware::audio::common::V5_0::AudioChannelMask::INDEX_MASK_11"
    },
    {
     "enum_field_value" : -2147479553,
     "name" : "android::hardware::audio::common::V5_0::AudioChannelMask::INDEX_MASK_12"
    },
    {
     "enum_field_value" : -2147475457,
     "name" : "android::hardware::audio::common::V5_0::AudioChannelMask::INDEX_MASK_13"
    },
    {
     "enum_field_value" : -2147467265,
     "name" : "android::hardware::audio::common::V5_0::AudioChannelMask::INDEX_MASK_14"
    },
    {
     "enum_field_value" : -2147450881,
     "name" : "android::hardware::audio::common::V5_0::AudioChannelMask::INDEX_MASK_15"
    },
    {
     "enum_field_value" : -2147418113,
     "name" : "android::hardware::audio::common::V5_0::AudioChannelMask::INDEX_MASK_16"
    },
    {
     "enum_field_value" : -2147352577,
     "name" : "android::hardware::audio::common::V5_0::AudioChannelMask::INDEX_MASK_17"
    },
    {
     "enum_field_value" : -2147221505,
     "name" : "android::hardware::audio::common::V5_0::AudioChannelMask::INDEX_MASK_18"
    },
    {
     "enum_field_value" : -2146959361,
     "name" : "android::hardware::audio::common::V5_0::AudioChannelMask::INDEX_MASK_19"
    },
    {
     "enum_field_value" : -2146435073,
     "name" : "android::hardware::audio::common::V5_0::AudioChannelMask::INDEX_MASK_20"
    },
    {
     "enum_field_value" : -2145386497,
     "name" : "android::hardware::audio::common::V5_0::AudioChannelMask::INDEX_MASK_21"
    },
    {
     "enum_field_value" : -2143289345,
     "name" : "android::hardware::audio::common::V5_0::AudioChannelMask::INDEX_MASK_22"
    },
    {
     "enum_field_value" : -2139095041,
     "name" : "android::hardware::audio::common::V5_0::AudioChannelMask::INDEX_MASK_23"
    },
    {
     "enum_field_value" : -2130706433,
     "name" : "android::hardware::audio::common::V5_0::AudioChannelMask::INDEX_MASK_24"
    }
   ],
   "linker_set_key" : "android::hardware::audio::common::V5_0::AudioChannelMask",
   "name" : "android::hardware::audio::common::V5_0::AudioChannelMask",
   "referenced_type" : "type-1012",
   "self_type" : "type-1012",
   "size" : 4,
   "source_file" : "/out/soong/.intermediates/hardware/interfaces/audio/common/5.0/android.hardware.audio.common@5.0_genc++_headers/gen/android/hardware/audio/common/5.0/types.h",
   "underlying_type" : "type-2",
   "unique_id" : "_ZTSN7android8hardware5audio6common4V5_016AudioChannelMaskE"
  },
  {
   "alignment" : 4,
   "enum_fields" :
   [
    {
     "enum_field_value" : 0,
     "name" : "android::hardware::audio::common::V5_0::AudioContentType::UNKNOWN"
    },
    {
     "enum_field_value" : 1,
     "name" : "android::hardware::audio::common::V5_0::AudioContentType::SPEECH"
    },
    {
     "enum_field_value" : 2,
     "name" : "android::hardware::audio::common::V5_0::AudioContentType::MUSIC"
    },
    {
     "enum_field_value" : 3,
     "name" : "android::hardware::audio::common::V5_0::AudioContentType::MOVIE"
    },
    {
     "enum_field_value" : 4,
     "name" : "android::hardware::audio::common::V5_0::AudioContentType::SONIFICATION"
    }
   ],
   "linker_set_key" : "android::hardware::audio::common::V5_0::AudioContentType",
   "name" : "android::hardware::audio::common::V5_0::AudioContentType",
   "referenced_type" : "type-749",
   "self_type" : "type-749",
   "size" : 4,
   "source_file" : "/out/soong/.intermediates/hardware/interfaces/audio/common/5.0/android.hardware.audio.common@5.0_genc++_headers/gen/android/hardware/audio/common/5.0/types.h",
   "underlying_type" : "type-2",
   "unique_id" : "_ZTSN7android8hardware5audio6common4V5_016AudioContentTypeE"
  },
  {
   "alignment" : 4,
   "enum_fields" :
   [
    {
     "enum_field_value" : 0,
     "name" : "android::hardware::audio::common::V5_0::AudioDevice::NONE"
    },
    {
     "enum_field_value" : -2147483648,
     "name" : "android::hardware::audio::common::V5_0::AudioDevice::BIT_IN"
    },
    {
     "enum_field_value" : 1073741824,
     "name" : "android::hardware::audio::common::V5_0::AudioDevice::BIT_DEFAULT"
    },
    {
     "enum_field_value" : 1,
     "name" : "android::hardware::audio::common::V5_0::AudioDevice::OUT_EARPIECE"
    },
    {
     "enum_field_value" : 2,
     "name" : "android::hardware::audio::common::V5_0::AudioDevice::OUT_SPEAKER"
    },
    {
     "enum_field_value" : 4,
     "name" : "android::hardware::audio::common::V5_0::AudioDevice::OUT_WIRED_HEADSET"
    },
    {
     "enum_field_value" : 8,
     "name" : "android::hardware::audio::common::V5_0::AudioDevice::OUT_WIRED_HEADPHONE"
    },
    {
     "enum_field_value" : 16,
     "name" : "android::hardware::audio::common::V5_0::AudioDevice::OUT_BLUETOOTH_SCO"
    },
    {
     "enum_field_value" : 32,
     "name" : "android::hardware::audio::common::V5_0::AudioDevice::OUT_BLUETOOTH_SCO_HEADSET"
    },
    {
     "enum_field_value" : 64,
     "name" : "android::hardware::audio::common::V5_0::AudioDevice::OUT_BLUETOOTH_SCO_CARKIT"
    },
    {
     "enum_field_value" : 128,
     "name" : "android::hardware::audio::common::V5_0::AudioDevice::OUT_BLUETOOTH_A2DP"
    },
    {
     "enum_field_value" : 256,
     "name" : "android::hardware::audio::common::V5_0::AudioDevice::OUT_BLUETOOTH_A2DP_HEADPHONES"
    },
    {
     "enum_field_value" : 512,
     "name" : "android::hardware::audio::common::V5_0::AudioDevice::OUT_BLUETOOTH_A2DP_SPEAKER"
    },
    {
     "enum_field_value" : 1024,
     "name" : "android::hardware::audio::common::V5_0::AudioDevice::OUT_AUX_DIGITAL"
    },
    {
     "enum_field_value" : 1024,
     "name" : "android::hardware::audio::common::V5_0::AudioDevice::OUT_HDMI"
    },
    {
     "enum_field_value" : 2048,
     "name" : "android::hardware::audio::common::V5_0::AudioDevice::OUT_ANLG_DOCK_HEADSET"
    },
    {
     "enum_field_value" : 4096,
     "name" : "android::hardware::audio::common::V5_0::AudioDevice::OUT_DGTL_DOCK_HEADSET"
    },
    {
     "enum_field_value" : 8192,
     "name" : "android::hardware::audio::common::V5_0::AudioDevice::OUT_USB_ACCESSORY"
    },
    {
     "enum_field_value" : 16384,
     "name" : "android::hardware::audio::common::V5_0::AudioDevice::OUT_USB_DEVICE"
    },
    {
     "enum_field_value" : 32768,
     "name" : "android::hardware::audio::common::V5_0::AudioDevice::OUT_REMOTE_SUBMIX"
    },
    {
     "enum_field_value" : 65536,
     "name" : "android::hardware::audio::common::V5_0::AudioDevice::OUT_TELEPHONY_TX"
    },
    {
     "enum_field_value" : 131072,
     "name" : "android::hardware::audio::common::V5_0::AudioDevice::OUT_LINE"
    },
    {
     "enum_field_value" : 262144,
     "name" : "android::hardware::audio::common::V5_0::AudioDevice::OUT_HDMI_ARC"
    },
    {
     "enum_field_value" : 524288,
     "name" : "android::hardware::audio::common::V5_0::AudioDevice::OUT_SPDIF"
    },
    {
     "enum_field_value" : 1048576,
     "name" : "android::hardware::audio::common::V5_0::AudioDevice::OUT_FM"
    },
    {
     "enum_field_value" : 2097152,
     "name" : "android::hardware::audio::common::V5_0::AudioDevice::OUT_AUX_LINE"
    },
    {
     "enum_field_value" : 4194304,
     "name" : "android::hardware::audio::common::V5_0::AudioDevice::OUT_SPEAKER_SAFE"
    },
    {
     "enum_field_value" : 8388608,
     "name" : "android::hardware::audio::common::V5_0::AudioDevice::OUT_IP"
    },
    {
     "enum_field_value" : 16777216,
     "name" : "android::hardware::audio::common::V5_0::AudioDevice::OUT_BUS"
    },
    {
     "enum_field_value" : 33554432,
     "name" : "android::hardware::audio::common::V5_0::AudioDevice::OUT_PROXY"
    },
    {
     "enum_field_value" : 67108864,
     "name" : "android::hardware::audio::common::V5_0::AudioDevice::OUT_USB_HEADSET"
    },
    {
     "enum_field_value" : 134217728,
     "name" : "android::hardware::audio::common::V5_0::AudioDevice::OUT_HEARING_AID"
    },
    {
     "enum_field_value" : 268435456,
     "name" : "android::hardware::audio::common::V5_0::AudioDevice::OUT_ECHO_CANCELLER"
    },
    {
     "enum_field_value" : 1073741824,
     "name" : "android::hardware::audio::common::V5_0::AudioDevice::OUT_DEFAULT"
    },
    {
     "enum_field_value" : -2147483647,
     "name" : "android::hardware::audio::common::V5_0::AudioDevice::IN_COMMUNICATION"
    },
    {
     "enum_field_value" : -2147483646,
     "name" : "android::hardware::audio::common::V5_0::AudioDevice::IN_AMBIENT"
    },
    {
     "enum_field_value" : -2147483644,
     "name" : "android::hardware::audio::common::V5_0::AudioDevice::IN_BUILTIN_MIC"
    },
    {
     "enum_field_value" : -2147483640,
     "name" : "android::hardware::audio::common::V5_0::AudioDevice::IN_BLUETOOTH_SCO_HEADSET"
    },
    {
     "enum_field_value" : -2147483632,
     "name" : "android::hardware::audio::common::V5_0::AudioDevice::IN_WIRED_HEADSET"
    },
    {
     "enum_field_value" : -2147483616,
     "name" : "android::hardware::audio::common::V5_0::AudioDevice::IN_AUX_DIGITAL"
    },
    {
     "enum_field_value" : -2147483616,
     "name" : "android::hardware::audio::common::V5_0::AudioDevice::IN_HDMI"
    },
    {
     "enum_field_value" : -2147483584,
     "name" : "android::hardware::audio::common::V5_0::AudioDevice::IN_VOICE_CALL"
    },
    {
     "enum_field_value" : -2147483584,
     "name" : "android::hardware::audio::common::V5_0::AudioDevice::IN_TELEPHONY_RX"
    },
    {
     "enum_field_value" : -2147483520,
     "name" : "android::hardware::audio::common::V5_0::AudioDevice::IN_BACK_MIC"
    },
    {
     "enum_field_value" : -2147483392,
     "name" : "android::hardware::audio::common::V5_0::AudioDevice::IN_REMOTE_SUBMIX"
    },
    {
     "enum_field_value" : -2147483136,
     "name" : "android::hardware::audio::common::V5_0::AudioDevice::IN_ANLG_DOCK_HEADSET"
    },
    {
     "enum_field_value" : -2147482624,
     "name" : "android::hardware::audio::common::V5_0::AudioDevice::IN_DGTL_DOCK_HEADSET"
    },
    {
     "enum_field_value" : -2147481600,
     "name" : "android::hardware::audio::common::V5_0::AudioDevice::IN_USB_ACCESSORY"
    },
    {
     "enum_field_value" : -2147479552,
     "name" : "android::hardware::audio::common::V5_0::AudioDevice::IN_USB_DEVICE"
    },
    {
     "enum_field_value" : -2147475456,
     "name" : "android::hardware::audio::common::V5_0::AudioDevice::IN_FM_TUNER"
    },
    {
     "enum_field_value" : -2147467264,
     "name" : "android::hardware::audio::common::V5_0::AudioDevice::IN_TV_TUNER"
    },
    {
     "enum_field_value" : -2147450880,
     "name" : "android::hardware::audio::common::V5_0::AudioDevice::IN_LINE"
    },
    {
     "enum_field_value" : -2147418112,
     "name" : "android::hardware::audio::common::V5_0::AudioDevice::IN_SPDIF"
    },
    {
     "enum_field_value" : -2147352576,
     "name" : "android::hardware::audio::common::V5_0::AudioDevice::IN_BLUETOOTH_A2DP"
    },
    {
     "enum_field_value" : -2147221504,
     "name" : "android::hardware::audio::common::V5_0::AudioDevice::IN_LOOPBACK"
    },
    {
     "enum_field_value" : -2146959360,
     "name" : "android::hardware::audio::common::V5_0::AudioDevice::IN_IP"
    },
    {
     "enum_field_value" : -2146435072,
     "name" : "android::hardware::audio::common::V5_0::AudioDevice::IN_BUS"
    },
    {
     "enum_field_value" : -2130706432,
     "name" : "android::hardware::audio::common::V5_0::AudioDevice::IN_PROXY"
    },
    {
     "enum_field_value" : -2113929216,
     "name" : "android::hardware::audio::common::V5_0::AudioDevice::IN_USB_HEADSET"
    },
    {
     "enum_field_value" : -2080374784,
     "name" : "android::hardware::audio::common::V5_0::AudioDevice::IN_BLUETOOTH_BLE"
    },
    {
     "enum_field_value" : -1879048192,
     "name" : "android::hardware::audio::common::V5_0::AudioDevice::IN_ECHO_REFERENCE"
    },
    {
     "enum_field_value" : -1073741824,
     "name" : "android::hardware::audio::common::V5_0::AudioDevice::IN_DEFAULT"
    }
   ],
   "linker_set_key" : "android::hardware::audio::common::V5_0::AudioDevice",
   "name" : "android::hardware::audio::common::V5_0::AudioDevice",
   "referenced_type" : "type-764",
   "self_type" : "type-764",
   "size" : 4,
   "source_file" : "/out/soong/.intermediates/hardware/interfaces/audio/common/5.0/android.hardware.audio.common@5.0_genc++_headers/gen/android/hardware/audio/common/5.0/types.h",
   "underlying_type" : "type-2",
   "unique_id" : "_ZTSN7android8hardware5audio6common4V5_011AudioDeviceE"
  },
  {
   "alignment" : 4,
   "enum_fields" :
   [
    {
     "enum_field_value" : -1,
     "name" : "android::hardware::audio::common::V5_0::AudioFormat::INVALID"
    },
    {
     "enum_field_value" : 0,
     "name" : "android::hardware::audio::common::V5_0::AudioFormat::DEFAULT"
    },
    {
     "enum_field_value" : 0,
     "name" : "android::hardware::audio::common::V5_0::AudioFormat::PCM"
    },
    {
     "enum_field_value" : 16777216,
     "name" : "android::hardware::audio::common::V5_0::AudioFormat::MP3"
    },
    {
     "enum_field_value" : 33554432,
     "name" : "android::hardware::audio::common::V5_0::AudioFormat::AMR_NB"
    },
    {
     "enum_field_value" : 50331648,
     "name" : "android::hardware::audio::common::V5_0::AudioFormat::AMR_WB"
    },
    {
     "enum_field_value" : 67108864,
     "name" : "android::hardware::audio::common::V5_0::AudioFormat::AAC"
    },
    {
     "enum_field_value" : 83886080,
     "name" : "android::hardware::audio::common::V5_0::AudioFormat::HE_AAC_V1"
    },
    {
     "enum_field_value" : 100663296,
     "name" : "android::hardware::audio::common::V5_0::AudioFormat::HE_AAC_V2"
    },
    {
     "enum_field_value" : 117440512,
     "name" : "android::hardware::audio::common::V5_0::AudioFormat::VORBIS"
    },
    {
     "enum_field_value" : 134217728,
     "name" : "android::hardware::audio::common::V5_0::AudioFormat::OPUS"
    },
    {
     "enum_field_value" : 150994944,
     "name" : "android::hardware::audio::common::V5_0::AudioFormat::AC3"
    },
    {
     "enum_field_value" : 167772160,
     "name" : "android::hardware::audio::common::V5_0::AudioFormat::E_AC3"
    },
    {
     "enum_field_value" : 184549376,
     "name" : "android::hardware::audio::common::V5_0::AudioFormat::DTS"
    },
    {
     "enum_field_value" : 201326592,
     "name" : "android::hardware::audio::common::V5_0::AudioFormat::DTS_HD"
    },
    {
     "enum_field_value" : 218103808,
     "name" : "android::hardware::audio::common::V5_0::AudioFormat::IEC61937"
    },
    {
     "enum_field_value" : 234881024,
     "name" : "android::hardware::audio::common::V5_0::AudioFormat::DOLBY_TRUEHD"
    },
    {
     "enum_field_value" : 268435456,
     "name" : "android::hardware::audio::common::V5_0::AudioFormat::EVRC"
    },
    {
     "enum_field_value" : 285212672,
     "name" : "android::hardware::audio::common::V5_0::AudioFormat::EVRCB"
    },
    {
     "enum_field_value" : 301989888,
     "name" : "android::hardware::audio::common::V5_0::AudioFormat::EVRCWB"
    },
    {
     "enum_field_value" : 318767104,
     "name" : "android::hardware::audio::common::V5_0::AudioFormat::EVRCNW"
    },
    {
     "enum_field_value" : 335544320,
     "name" : "android::hardware::audio::common::V5_0::AudioFormat::AAC_ADIF"
    },
    {
     "enum_field_value" : 352321536,
     "name" : "android::hardware::audio::common::V5_0::AudioFormat::WMA"
    },
    {
     "enum_field_value" : 369098752,
     "name" : "android::hardware::audio::common::V5_0::AudioFormat::WMA_PRO"
    },
    {
     "enum_field_value" : 385875968,
     "name" : "android::hardware::audio::common::V5_0::AudioFormat::AMR_WB_PLUS"
    },
    {
     "enum_field_value" : 402653184,
     "name" : "android::hardware::audio::common::V5_0::AudioFormat::MP2"
    },
    {
     "enum_field_value" : 419430400,
     "name" : "android::hardware::audio::common::V5_0::AudioFormat::QCELP"
    },
    {
     "enum_field_value" : 436207616,
     "name" : "android::hardware::audio::common::V5_0::AudioFormat::DSD"
    },
    {
     "enum_field_value" : 452984832,
     "name" : "android::hardware::audio::common::V5_0::AudioFormat::FLAC"
    },
    {
     "enum_field_value" : 469762048,
     "name" : "android::hardware::audio::common::V5_0::AudioFormat::ALAC"
    },
    {
     "enum_field_value" : 486539264,
     "name" : "android::hardware::audio::common::V5_0::AudioFormat::APE"
    },
    {
     "enum_field_value" : 503316480,
     "name" : "android::hardware::audio::common::V5_0::AudioFormat::AAC_ADTS"
    },
    {
     "enum_field_value" : 520093696,
     "name" : "android::hardware::audio::common::V5_0::AudioFormat::SBC"
    },
    {
     "enum_field_value" : 536870912,
     "name" : "android::hardware::audio::common::V5_0::AudioFormat::APTX"
    },
    {
     "enum_field_value" : 553648128,
     "name" : "android::hardware::audio::common::V5_0::AudioFormat::APTX_HD"
    },
    {
     "enum_field_value" : 570425344,
     "name" : "android::hardware::audio::common::V5_0::AudioFormat::AC4"
    },
    {
     "enum_field_value" : 587202560,
     "name" : "android::hardware::audio::common::V5_0::AudioFormat::LDAC"
    },
    {
     "enum_field_value" : 603979776,
     "name" : "android::hardware::audio::common::V5_0::AudioFormat::MAT"
    },
    {
     "enum_field_value" : 620756992,
     "name" : "android::hardware::audio::common::V5_0::AudioFormat::AAC_LATM"
    },
    {
     "enum_field_value" : 637534208,
     "name" : "android::hardware::audio::common::V5_0::AudioFormat::CELT"
    },
    {
     "enum_field_value" : 654311424,
     "name" : "android::hardware::audio::common::V5_0::AudioFormat::APTX_ADAPTIVE"
    },
    {
     "enum_field_value" : 671088640,
     "name" : "android::hardware::audio::common::V5_0::AudioFormat::LHDC"
    },
    {
     "enum_field_value" : 687865856,
     "name" : "android::hardware::audio::common::V5_0::AudioFormat::LHDC_LL"
    },
    {
     "enum_field_value" : 704643072,
     "name" : "android::hardware::audio::common::V5_0::AudioFormat::APTX_TWSP"
    },
    {
     "enum_field_value" : -16777216,
     "name" : "android::hardware::audio::common::V5_0::AudioFormat::MAIN_MASK"
    },
    {
     "enum_field_value" : 16777215,
     "name" : "android::hardware::audio::common::V5_0::AudioFormat::SUB_MASK"
    },
    {
     "enum_field_value" : 1,
     "name" : "android::hardware::audio::common::V5_0::AudioFormat::PCM_SUB_16_BIT"
    },
    {
     "enum_field_value" : 2,
     "name" : "android::hardware::audio::common::V5_0::AudioFormat::PCM_SUB_8_BIT"
    },
    {
     "enum_field_value" : 3,
     "name" : "android::hardware::audio::common::V5_0::AudioFormat::PCM_SUB_32_BIT"
    },
    {
     "enum_field_value" : 4,
     "name" : "android::hardware::audio::common::V5_0::AudioFormat::PCM_SUB_8_24_BIT"
    },
    {
     "enum_field_value" : 5,
     "name" : "android::hardware::audio::common::V5_0::AudioFormat::PCM_SUB_FLOAT"
    },
    {
     "enum_field_value" : 6,
     "name" : "android::hardware::audio::common::V5_0::AudioFormat::PCM_SUB_24_BIT_PACKED"
    },
    {
     "enum_field_value" : 0,
     "name" : "android::hardware::audio::common::V5_0::AudioFormat::MP3_SUB_NONE"
    },
    {
     "enum_field_value" : 0,
     "name" : "android::hardware::audio::common::V5_0::AudioFormat::AMR_SUB_NONE"
    },
    {
     "enum_field_value" : 1,
     "name" : "android::hardware::audio::common::V5_0::AudioFormat::AAC_SUB_MAIN"
    },
    {
     "enum_field_value" : 2,
     "name" : "android::hardware::audio::common::V5_0::AudioFormat::AAC_SUB_LC"
    },
    {
     "enum_field_value" : 4,
     "name" : "android::hardware::audio::common::V5_0::AudioFormat::AAC_SUB_SSR"
    },
    {
     "enum_field_value" : 8,
     "name" : "android::hardware::audio::common::V5_0::AudioFormat::AAC_SUB_LTP"
    },
    {
     "enum_field_value" : 16,
     "name" : "android::hardware::audio::common::V5_0::AudioFormat::AAC_SUB_HE_V1"
    },
    {
     "enum_field_value" : 32,
     "name" : "android::hardware::audio::common::V5_0::AudioFormat::AAC_SUB_SCALABLE"
    },
    {
     "enum_field_value" : 64,
     "name" : "android::hardware::audio::common::V5_0::AudioFormat::AAC_SUB_ERLC"
    },
    {
     "enum_field_value" : 128,
     "name" : "android::hardware::audio::common::V5_0::AudioFormat::AAC_SUB_LD"
    },
    {
     "enum_field_value" : 256,
     "name" : "android::hardware::audio::common::V5_0::AudioFormat::AAC_SUB_HE_V2"
    },
    {
     "enum_field_value" : 512,
     "name" : "android::hardware::audio::common::V5_0::AudioFormat::AAC_SUB_ELD"
    },
    {
     "enum_field_value" : 768,
     "name" : "android::hardware::audio::common::V5_0::AudioFormat::AAC_SUB_XHE"
    },
    {
     "enum_field_value" : 0,
     "name" : "android::hardware::audio::common::V5_0::AudioFormat::VORBIS_SUB_NONE"
    },
    {
     "enum_field_value" : 1,
     "name" : "android::hardware::audio::common::V5_0::AudioFormat::E_AC3_SUB_JOC"
    },
    {
     "enum_field_value" : 1,
     "name" : "android::hardware::audio::common::V5_0::AudioFormat::MAT_SUB_1_0"
    },
    {
     "enum_field_value" : 2,
     "name" : "android::hardware::audio::common::V5_0::AudioFormat::MAT_SUB_2_0"
    },
    {
     "enum_field_value" : 3,
     "name" : "android::hardware::audio::common::V5_0::AudioFormat::MAT_SUB_2_1"
    },
    {
     "enum_field_value" : 1,
     "name" : "android::hardware::audio::common::V5_0::AudioFormat::PCM_16_BIT"
    },
    {
     "enum_field_value" : 2,
     "name" : "android::hardware::audio::common::V5_0::AudioFormat::PCM_8_BIT"
    },
    {
     "enum_field_value" : 3,
     "name" : "android::hardware::audio::common::V5_0::AudioFormat::PCM_32_BIT"
    },
    {
     "enum_field_value" : 4,
     "name" : "android::hardware::audio::common::V5_0::AudioFormat::PCM_8_24_BIT"
    },
    {
     "enum_field_value" : 5,
     "name" : "android::hardware::audio::common::V5_0::AudioFormat::PCM_FLOAT"
    },
    {
     "enum_field_value" : 6,
     "name" : "android::hardware::audio::common::V5_0::AudioFormat::PCM_24_BIT_PACKED"
    },
    {
     "enum_field_value" : 67108865,
     "name" : "android::hardware::audio::common::V5_0::AudioFormat::AAC_MAIN"
    },
    {
     "enum_field_value" : 67108866,
     "name" : "android::hardware::audio::common::V5_0::AudioFormat::AAC_LC"
    },
    {
     "enum_field_value" : 67108868,
     "name" : "android::hardware::audio::common::V5_0::AudioFormat::AAC_SSR"
    },
    {
     "enum_field_value" : 67108872,
     "name" : "android::hardware::audio::common::V5_0::AudioFormat::AAC_LTP"
    },
    {
     "enum_field_value" : 67108880,
     "name" : "android::hardware::audio::common::V5_0::AudioFormat::AAC_HE_V1"
    },
    {
     "enum_field_value" : 67108896,
     "name" : "android::hardware::audio::common::V5_0::AudioFormat::AAC_SCALABLE"
    },
    {
     "enum_field_value" : 67108928,
     "name" : "android::hardware::audio::common::V5_0::AudioFormat::AAC_ERLC"
    },
    {
     "enum_field_value" : 67108992,
     "name" : "android::hardware::audio::common::V5_0::AudioFormat::AAC_LD"
    },
    {
     "enum_field_value" : 67109120,
     "name" : "android::hardware::audio::common::V5_0::AudioFormat::AAC_HE_V2"
    },
    {
     "enum_field_value" : 67109376,
     "name" : "android::hardware::audio::common::V5_0::AudioFormat::AAC_ELD"
    },
    {
     "enum_field_value" : 67109632,
     "name" : "android::hardware::audio::common::V5_0::AudioFormat::AAC_XHE"
    },
    {
     "enum_field_value" : 503316481,
     "name" : "android::hardware::audio::common::V5_0::AudioFormat::AAC_ADTS_MAIN"
    },
    {
     "enum_field_value" : 503316482,
     "name" : "android::hardware::audio::common::V5_0::AudioFormat::AAC_ADTS_LC"
    },
    {
     "enum_field_value" : 503316484,
     "name" : "android::hardware::audio::common::V5_0::AudioFormat::AAC_ADTS_SSR"
    },
    {
     "enum_field_value" : 503316488,
     "name" : "android::hardware::audio::common::V5_0::AudioFormat::AAC_ADTS_LTP"
    },
    {
     "enum_field_value" : 503316496,
     "name" : "android::hardware::audio::common::V5_0::AudioFormat::AAC_ADTS_HE_V1"
    },
    {
     "enum_field_value" : 503316512,
     "name" : "android::hardware::audio::common::V5_0::AudioFormat::AAC_ADTS_SCALABLE"
    },
    {
     "enum_field_value" : 503316544,
     "name" : "android::hardware::audio::common::V5_0::AudioFormat::AAC_ADTS_ERLC"
    },
    {
     "enum_field_value" : 503316608,
     "name" : "android::hardware::audio::common::V5_0::AudioFormat::AAC_ADTS_LD"
    },
    {
     "enum_field_value" : 503316736,
     "name" : "android::hardware::audio::common::V5_0::AudioFormat::AAC_ADTS_HE_V2"
    },
    {
     "enum_field_value" : 503316992,
     "name" : "android::hardware::audio::common::V5_0::AudioFormat::AAC_ADTS_ELD"
    },
    {
     "enum_field_value" : 503317248,
     "name" : "android::hardware::audio::common::V5_0::AudioFormat::AAC_ADTS_XHE"
    },
    {
     "enum_field_value" : 167772161,
     "name" : "android::hardware::audio::common::V5_0::AudioFormat::E_AC3_JOC"
    },
    {
     "enum_field_value" : 603979777,
     "name" : "android::hardware::audio::common::V5_0::AudioFormat::MAT_1_0"
    },
    {
     "enum_field_value" : 603979778,
     "name" : "android::hardware::audio::common::V5_0::AudioFormat::MAT_2_0"
    },
    {
     "enum_field_value" : 603979779,
     "name" : "android::hardware::audio::common::V5_0::AudioFormat::MAT_2_1"
    },
    {
     "enum_field_value" : 620756994,
     "name" : "android::hardware::audio::common::V5_0::AudioFormat::AAC_LATM_LC"
    },
    {
     "enum_field_value" : 620757008,
     "name" : "android::hardware::audio::common::V5_0::AudioFormat::AAC_LATM_HE_V1"
    },
    {
     "enum_field_value" : 620757248,
     "name" : "android::hardware::audio::common::V5_0::AudioFormat::AAC_LATM_HE_V2"
    }
   ],
   "linker_set_key" : "android::hardware::audio::common::V5_0::AudioFormat",
   "name" : "android::hardware::audio::common::V5_0::AudioFormat",
   "referenced_type" : "type-784",
   "self_type" : "type-784",
   "size" : 4,
   "source_file" : "/out/soong/.intermediates/hardware/interfaces/audio/common/5.0/android.hardware.audio.common@5.0_genc++_headers/gen/android/hardware/audio/common/5.0/types.h",
   "underlying_type" : "type-2",
   "unique_id" : "_ZTSN7android8hardware5audio6common4V5_011AudioFormatE"
  },
  {
   "alignment" : 4,
   "enum_fields" :
   [
    {
     "enum_field_value" : 1,
     "name" : "android::hardware::audio::common::V5_0::AudioGainMode::JOINT"
    },
    {
     "enum_field_value" : 2,
     "name" : "android::hardware::audio::common::V5_0::AudioGainMode::CHANNELS"
    },
    {
     "enum_field_value" : 4,
     "name" : "android::hardware::audio::common::V5_0::AudioGainMode::RAMP"
    }
   ],
   "linker_set_key" : "android::hardware::audio::common::V5_0::AudioGainMode",
   "name" : "android::hardware::audio::common::V5_0::AudioGainMode",
   "referenced_type" : "type-1022",
   "self_type" : "type-1022",
   "size" : 4,
   "source_file" : "/out/soong/.intermediates/hardware/interfaces/audio/common/5.0/android.hardware.audio.common@5.0_genc++_headers/gen/android/hardware/audio/common/5.0/types.h",
   "underlying_type" : "type-2",
   "unique_id" : "_ZTSN7android8hardware5audio6common4V5_013AudioGainModeE"
  },
  {
   "alignment" : 4,
   "enum_fields" :
   [
    {
     "enum_field_value" : 0,
     "name" : "android::hardware::audio::common::V5_0::AudioHandleConsts::AUDIO_IO_HANDLE_NONE"
    },
    {
     "enum_field_value" : 0,
     "name" : "android::hardware::audio::common::V5_0::AudioHandleConsts::AUDIO_MODULE_HANDLE_NONE"
    },
    {
     "enum_field_value" : 0,
     "name" : "android::hardware::audio::common::V5_0::AudioHandleConsts::AUDIO_PORT_HANDLE_NONE"
    },
    {
     "enum_field_value" : 0,
     "name" : "android::hardware::audio::common::V5_0::AudioHandleConsts::AUDIO_PATCH_HANDLE_NONE"
    }
   ],
   "linker_set_key" : "android::hardware::audio::common::V5_0::AudioHandleConsts",
   "name" : "android::hardware::audio::common::V5_0::AudioHandleConsts",
   "referenced_type" : "type-1007",
   "self_type" : "type-1007",
   "size" : 4,
   "source_file" : "/out/soong/.intermediates/hardware/interfaces/audio/common/5.0/android.hardware.audio.common@5.0_genc++_headers/gen/android/hardware/audio/common/5.0/types.h",
   "underlying_type" : "type-19",
   "unique_id" : "_ZTSN7android8hardware5audio6common4V5_017AudioHandleConstsE"
  },
  {
   "alignment" : 4,
   "enum_fields" :
   [
    {
     "enum_field_value" : 0,
     "name" : "android::hardware::audio::common::V5_0::AudioInputFlag::NONE"
    },
    {
     "enum_field_value" : 1,
     "name" : "android::hardware::audio::common::V5_0::AudioInputFlag::FAST"
    },
    {
     "enum_field_value" : 2,
     "name" : "android::hardware::audio::common::V5_0::AudioInputFlag::HW_HOTWORD"
    },
    {
     "enum_field_value" : 4,
     "name" : "android::hardware::audio::common::V5_0::AudioInputFlag::RAW"
    },
    {
     "enum_field_value" : 8,
     "name" : "android::hardware::audio::common::V5_0::AudioInputFlag::SYNC"
    },
    {
     "enum_field_value" : 16,
     "name" : "android::hardware::audio::common::V5_0::AudioInputFlag::MMAP_NOIRQ"
    },
    {
     "enum_field_value" : 32,
     "name" : "android::hardware::audio::common::V5_0::AudioInputFlag::VOIP_TX"
    },
    {
     "enum_field_value" : 64,
     "name" : "android::hardware::audio::common::V5_0::AudioInputFlag::HW_AV_SYNC"
    }
   ],
   "linker_set_key" : "android::hardware::audio::common::V5_0::AudioInputFlag",
   "name" : "android::hardware::audio::common::V5_0::AudioInputFlag",
   "referenced_type" : "type-1015",
   "self_type" : "type-1015",
   "size" : 4,
   "source_file" : "/out/soong/.intermediates/hardware/interfaces/audio/common/5.0/android.hardware.audio.common@5.0_genc++_headers/gen/android/hardware/audio/common/5.0/types.h",
   "underlying_type" : "type-19",
   "unique_id" : "_ZTSN7android8hardware5audio6common4V5_014AudioInputFlagE"
  },
  {
   "alignment" : 4,
   "enum_fields" :
   [
    {
     "enum_field_value" : 0,
     "name" : "android::hardware::audio::common::V5_0::AudioMixLatencyClass::LOW"
    },
    {
     "enum_field_value" : 1,
     "name" : "android::hardware::audio::common::V5_0::AudioMixLatencyClass::NORMAL"
    }
   ],
   "linker_set_key" : "android::hardware::audio::common::V5_0::AudioMixLatencyClass",
   "name" : "android::hardware::audio::common::V5_0::AudioMixLatencyClass",
   "referenced_type" : "type-1037",
   "self_type" : "type-1037",
   "size" : 4,
   "source_file" : "/out/soong/.intermediates/hardware/interfaces/audio/common/5.0/android.hardware.audio.common@5.0_genc++_headers/gen/android/hardware/audio/common/5.0/types.h",
   "underlying_type" : "type-19",
   "unique_id" : "_ZTSN7android8hardware5audio6common4V5_020AudioMixLatencyClassE"
  },
  {
   "alignment" : 4,
   "enum_fields" :
   [
    {
     "enum_field_value" : 0,
     "name" : "android::hardware::audio::common::V5_0::AudioMode::NORMAL"
    },
    {
     "enum_field_value" : 1,
     "name" : "android::hardware::audio::common::V5_0::AudioMode::RINGTONE"
    },
    {
     "enum_field_value" : 2,
     "name" : "android::hardware::audio::common::V5_0::AudioMode::IN_CALL"
    },
    {
     "enum_field_value" : 3,
     "name" : "android::hardware::audio::common::V5_0::AudioMode::IN_COMMUNICATION"
    }
   ],
   "linker_set_key" : "android::hardware::audio::common::V5_0::AudioMode",
   "name" : "android::hardware::audio::common::V5_0::AudioMode",
   "referenced_type" : "type-1013",
   "self_type" : "type-1013",
   "size" : 4,
   "source_file" : "/out/soong/.intermediates/hardware/interfaces/audio/common/5.0/android.hardware.audio.common@5.0_genc++_headers/gen/android/hardware/audio/common/5.0/types.h",
   "underlying_type" : "type-19",
   "unique_id" : "_ZTSN7android8hardware5audio6common4V5_09AudioModeE"
  },
  {
   "alignment" : 4,
   "enum_fields" :
   [
    {
     "enum_field_value" : 0,
     "name" : "android::hardware::audio::common::V5_0::AudioOutputFlag::NONE"
    },
    {
     "enum_field_value" : 1,
     "name" : "android::hardware::audio::common::V5_0::AudioOutputFlag::DIRECT"
    },
    {
     "enum_field_value" : 2,
     "name" : "android::hardware::audio::common::V5_0::AudioOutputFlag::PRIMARY"
    },
    {
     "enum_field_value" : 4,
     "name" : "android::hardware::audio::common::V5_0::AudioOutputFlag::FAST"
    },
    {
     "enum_field_value" : 8,
     "name" : "android::hardware::audio::common::V5_0::AudioOutputFlag::DEEP_BUFFER"
    },
    {
     "enum_field_value" : 16,
     "name" : "android::hardware::audio::common::V5_0::AudioOutputFlag::COMPRESS_OFFLOAD"
    },
    {
     "enum_field_value" : 32,
     "name" : "android::hardware::audio::common::V5_0::AudioOutputFlag::NON_BLOCKING"
    },
    {
     "enum_field_value" : 64,
     "name" : "android::hardware::audio::common::V5_0::AudioOutputFlag::HW_AV_SYNC"
    },
    {
     "enum_field_value" : 128,
     "name" : "android::hardware::audio::common::V5_0::AudioOutputFlag::TTS"
    },
    {
     "enum_field_value" : 256,
     "name" : "android::hardware::audio::common::V5_0::AudioOutputFlag::RAW"
    },
    {
     "enum_field_value" : 512,
     "name" : "android::hardware::audio::common::V5_0::AudioOutputFlag::SYNC"
    },
    {
     "enum_field_value" : 1024,
     "name" : "android::hardware::audio::common::V5_0::AudioOutputFlag::IEC958_NONAUDIO"
    },
    {
     "enum_field_value" : 8192,
     "name" : "android::hardware::audio::common::V5_0::AudioOutputFlag::DIRECT_PCM"
    },
    {
     "enum_field_value" : 16384,
     "name" : "android::hardware::audio::common::V5_0::AudioOutputFlag::MMAP_NOIRQ"
    },
    {
     "enum_field_value" : 32768,
     "name" : "android::hardware::audio::common::V5_0::AudioOutputFlag::VOIP_RX"
    },
    {
     "enum_field_value" : 65536,
     "name" : "android::hardware::audio::common::V5_0::AudioOutputFlag::INCALL_MUSIC"
    }
   ],
   "linker_set_key" : "android::hardware::audio::common::V5_0::AudioOutputFlag",
   "name" : "android::hardware::audio::common::V5_0::AudioOutputFlag",
   "referenced_type" : "type-1014",
   "self_type" : "type-1014",
   "size" : 4,
   "source_file" : "/out/soong/.intermediates/hardware/interfaces/audio/common/5.0/android.hardware.audio.common@5.0_genc++_headers/gen/android/hardware/audio/common/5.0/types.h",
   "underlying_type" : "type-19",
   "unique_id" : "_ZTSN7android8hardware5audio6common4V5_015AudioOutputFlagE"
  },
  {
   "alignment" : 4,
   "enum_fields" :
   [
    {
     "enum_field_value" : 1,
     "name" : "android::hardware::audio::common::V5_0::AudioPortConfigMask::SAMPLE_RATE"
    },
    {
     "enum_field_value" : 2,
     "name" : "android::hardware::audio::common::V5_0::AudioPortConfigMask::CHANNEL_MASK"
    },
    {
     "enum_field_value" : 4,
     "name" : "android::hardware::audio::common::V5_0::AudioPortConfigMask::FORMAT"
    },
    {
     "enum_field_value" : 8,
     "name" : "android::hardware::audio::common::V5_0::AudioPortConfigMask::GAIN"
    }
   ],
   "linker_set_key" : "android::hardware::audio::common::V5_0::AudioPortConfigMask",
   "name" : "android::hardware::audio::common::V5_0::AudioPortConfigMask",
   "referenced_type" : "type-1029",
   "self_type" : "type-1029",
   "size" : 4,
   "source_file" : "/out/soong/.intermediates/hardware/interfaces/audio/common/5.0/android.hardware.audio.common@5.0_genc++_headers/gen/android/hardware/audio/common/5.0/types.h",
   "underlying_type" : "type-2",
   "unique_id" : "_ZTSN7android8hardware5audio6common4V5_019AudioPortConfigMaskE"
  },
  {
   "alignment" : 4,
   "enum_fields" :
   [
    {
     "enum_field_value" : 0,
     "name" : "android::hardware::audio::common::V5_0::AudioPortRole::NONE"
    },
    {
     "enum_field_value" : 1,
     "name" : "android::hardware::audio::common::V5_0::AudioPortRole::SOURCE"
    },
    {
     "enum_field_value" : 2,
     "name" : "android::hardware::audio::common::V5_0::AudioPortRole::SINK"
    }
   ],
   "linker_set_key" : "android::hardware::audio::common::V5_0::AudioPortRole",
   "name" : "android::hardware::audio::common::V5_0::AudioPortRole",
   "referenced_type" : "type-1024",
   "self_type" : "type-1024",
   "size" : 4,
   "source_file" : "/out/soong/.intermediates/hardware/interfaces/audio/common/5.0/android.hardware.audio.common@5.0_genc++_headers/gen/android/hardware/audio/common/5.0/types.h",
   "underlying_type" : "type-19",
   "unique_id" : "_ZTSN7android8hardware5audio6common4V5_013AudioPortRoleE"
  },
  {
   "alignment" : 4,
   "enum_fields" :
   [
    {
     "enum_field_value" : 0,
     "name" : "android::hardware::audio::common::V5_0::AudioPortType::NONE"
    },
    {
     "enum_field_value" : 1,
     "name" : "android::hardware::audio::common::V5_0::AudioPortType::DEVICE"
    },
    {
     "enum_field_value" : 2,
     "name" : "android::hardware::audio::common::V5_0::AudioPortType::MIX"
    },
    {
     "enum_field_value" : 3,
     "name" : "android::hardware::audio::common::V5_0::AudioPortType::SESSION"
    }
   ],
   "linker_set_key" : "android::hardware::audio::common::V5_0::AudioPortType",
   "name" : "android::hardware::audio::common::V5_0::AudioPortType",
   "referenced_type" : "type-1025",
   "self_type" : "type-1025",
   "size" : 4,
   "source_file" : "/out/soong/.intermediates/hardware/interfaces/audio/common/5.0/android.hardware.audio.common@5.0_genc++_headers/gen/android/hardware/audio/common/5.0/types.h",
   "underlying_type" : "type-19",
   "unique_id" : "_ZTSN7android8hardware5audio6common4V5_013AudioPortTypeE"
  },
  {
   "alignment" : 4,
   "enum_fields" :
   [
    {
     "enum_field_value" : -1,
     "name" : "android::hardware::audio::common::V5_0::AudioSessionConsts::OUTPUT_STAGE"
    },
    {
     "enum_field_value" : 0,
     "name" : "android::hardware::audio::common::V5_0::AudioSessionConsts::OUTPUT_MIX"
    },
    {
     "enum_field_value" : 0,
     "name" : "android::hardware::audio::common::V5_0::AudioSessionConsts::ALLOCATE"
    },
    {
     "enum_field_value" : 0,
     "name" : "android::hardware::audio::common::V5_0::AudioSessionConsts::NONE"
    }
   ],
   "linker_set_key" : "android::hardware::audio::common::V5_0::AudioSessionConsts",
   "name" : "android::hardware::audio::common::V5_0::AudioSessionConsts",
   "referenced_type" : "type-1010",
   "self_type" : "type-1010",
   "size" : 4,
   "source_file" : "/out/soong/.intermediates/hardware/interfaces/audio/common/5.0/android.hardware.audio.common@5.0_genc++_headers/gen/android/hardware/audio/common/5.0/types.h",
   "underlying_type" : "type-19",
   "unique_id" : "_ZTSN7android8hardware5audio6common4V5_018AudioSessionConstsE"
  },
  {
   "alignment" : 4,
   "enum_fields" :
   [
    {
     "enum_field_value" : 0,
     "name" : "android::hardware::audio::common::V5_0::AudioSource::DEFAULT"
    },
    {
     "enum_field_value" : 1,
     "name" : "android::hardware::audio::common::V5_0::AudioSource::MIC"
    },
    {
     "enum_field_value" : 2,
     "name" : "android::hardware::audio::common::V5_0::AudioSource::VOICE_UPLINK"
    },
    {
     "enum_field_value" : 3,
     "name" : "android::hardware::audio::common::V5_0::AudioSource::VOICE_DOWNLINK"
    },
    {
     "enum_field_value" : 4,
     "name" : "android::hardware::audio::common::V5_0::AudioSource::VOICE_CALL"
    },
    {
     "enum_field_value" : 5,
     "name" : "android::hardware::audio::common::V5_0::AudioSource::CAMCORDER"
    },
    {
     "enum_field_value" : 6,
     "name" : "android::hardware::audio::common::V5_0::AudioSource::VOICE_RECOGNITION"
    },
    {
     "enum_field_value" : 7,
     "name" : "android::hardware::audio::common::V5_0::AudioSource::VOICE_COMMUNICATION"
    },
    {
     "enum_field_value" : 8,
     "name" : "android::hardware::audio::common::V5_0::AudioSource::REMOTE_SUBMIX"
    },
    {
     "enum_field_value" : 9,
     "name" : "android::hardware::audio::common::V5_0::AudioSource::UNPROCESSED"
    },
    {
     "enum_field_value" : 10,
     "name" : "android::hardware::audio::common::V5_0::AudioSource::VOICE_PERFORMANCE"
    },
    {
     "enum_field_value" : 1997,
     "name" : "android::hardware::audio::common::V5_0::AudioSource::ECHO_REFERENCE"
    },
    {
     "enum_field_value" : 1998,
     "name" : "android::hardware::audio::common::V5_0::AudioSource::FM_TUNER"
    },
    {
     "enum_field_value" : 1999,
     "name" : "android::hardware::audio::common::V5_0::AudioSource::HOTWORD"
    }
   ],
   "linker_set_key" : "android::hardware::audio::common::V5_0::AudioSource",
   "name" : "android::hardware::audio::common::V5_0::AudioSource",
   "referenced_type" : "type-758",
   "self_type" : "type-758",
   "size" : 4,
   "source_file" : "/out/soong/.intermediates/hardware/interfaces/audio/common/5.0/android.hardware.audio.common@5.0_genc++_headers/gen/android/hardware/audio/common/5.0/types.h",
   "underlying_type" : "type-19",
   "unique_id" : "_ZTSN7android8hardware5audio6common4V5_011AudioSourceE"
  },
  {
   "alignment" : 4,
   "enum_fields" :
   [
    {
     "enum_field_value" : -1,
     "name" : "android::hardware::audio::common::V5_0::AudioStreamType::DEFAULT"
    },
    {
     "enum_field_value" : 0,
     "name" : "android::hardware::audio::common::V5_0::AudioStreamType::MIN"
    },
    {
     "enum_field_value" : 0,
     "name" : "android::hardware::audio::common::V5_0::AudioStreamType::VOICE_CALL"
    },
    {
     "enum_field_value" : 1,
     "name" : "android::hardware::audio::common::V5_0::AudioStreamType::SYSTEM"
    },
    {
     "enum_field_value" : 2,
     "name" : "android::hardware::audio::common::V5_0::AudioStreamType::RING"
    },
    {
     "enum_field_value" : 3,
     "name" : "android::hardware::audio::common::V5_0::AudioStreamType::MUSIC"
    },
    {
     "enum_field_value" : 4,
     "name" : "android::hardware::audio::common::V5_0::AudioStreamType::ALARM"
    },
    {
     "enum_field_value" : 5,
     "name" : "android::hardware::audio::common::V5_0::AudioStreamType::NOTIFICATION"
    },
    {
     "enum_field_value" : 6,
     "name" : "android::hardware::audio::common::V5_0::AudioStreamType::BLUETOOTH_SCO"
    },
    {
     "enum_field_value" : 7,
     "name" : "android::hardware::audio::common::V5_0::AudioStreamType::ENFORCED_AUDIBLE"
    },
    {
     "enum_field_value" : 8,
     "name" : "android::hardware::audio::common::V5_0::AudioStreamType::DTMF"
    },
    {
     "enum_field_value" : 9,
     "name" : "android::hardware::audio::common::V5_0::AudioStreamType::TTS"
    },
    {
     "enum_field_value" : 10,
     "name" : "android::hardware::audio::common::V5_0::AudioStreamType::ACCESSIBILITY"
    }
   ],
   "linker_set_key" : "android::hardware::audio::common::V5_0::AudioStreamType",
   "name" : "android::hardware::audio::common::V5_0::AudioStreamType",
   "referenced_type" : "type-1009",
   "self_type" : "type-1009",
   "size" : 4,
   "source_file" : "/out/soong/.intermediates/hardware/interfaces/audio/common/5.0/android.hardware.audio.common@5.0_genc++_headers/gen/android/hardware/audio/common/5.0/types.h",
   "underlying_type" : "type-19",
   "unique_id" : "_ZTSN7android8hardware5audio6common4V5_015AudioStreamTypeE"
  },
  {
   "alignment" : 4,
   "enum_fields" :
   [
    {
     "enum_field_value" : 0,
     "name" : "android::hardware::audio::common::V5_0::AudioUsage::UNKNOWN"
    },
    {
     "enum_field_value" : 1,
     "name" : "android::hardware::audio::common::V5_0::AudioUsage::MEDIA"
    },
    {
     "enum_field_value" : 2,
     "name" : "android::hardware::audio::common::V5_0::AudioUsage::VOICE_COMMUNICATION"
    },
    {
     "enum_field_value" : 3,
     "name" : "android::hardware::audio::common::V5_0::AudioUsage::VOICE_COMMUNICATION_SIGNALLING"
    },
    {
     "enum_field_value" : 4,
     "name" : "android::hardware::audio::common::V5_0::AudioUsage::ALARM"
    },
    {
     "enum_field_value" : 5,
     "name" : "android::hardware::audio::common::V5_0::AudioUsage::NOTIFICATION"
    },
    {
     "enum_field_value" : 6,
     "name" : "android::hardware::audio::common::V5_0::AudioUsage::NOTIFICATION_TELEPHONY_RINGTONE"
    },
    {
     "enum_field_value" : 11,
     "name" : "android::hardware::audio::common::V5_0::AudioUsage::ASSISTANCE_ACCESSIBILITY"
    },
    {
     "enum_field_value" : 12,
     "name" : "android::hardware::audio::common::V5_0::AudioUsage::ASSISTANCE_NAVIGATION_GUIDANCE"
    },
    {
     "enum_field_value" : 13,
     "name" : "android::hardware::audio::common::V5_0::AudioUsage::ASSISTANCE_SONIFICATION"
    },
    {
     "enum_field_value" : 14,
     "name" : "android::hardware::audio::common::V5_0::AudioUsage::GAME"
    },
    {
     "enum_field_value" : 15,
     "name" : "android::hardware::audio::common::V5_0::AudioUsage::VIRTUAL_SOURCE"
    },
    {
     "enum_field_value" : 16,
     "name" : "android::hardware::audio::common::V5_0::AudioUsage::ASSISTANT"
    }
   ],
   "linker_set_key" : "android::hardware::audio::common::V5_0::AudioUsage",
   "name" : "android::hardware::audio::common::V5_0::AudioUsage",
   "referenced_type" : "type-748",
   "self_type" : "type-748",
   "size" : 4,
   "source_file" : "/out/soong/.intermediates/hardware/interfaces/audio/common/5.0/android.hardware.audio.common@5.0_genc++_headers/gen/android/hardware/audio/common/5.0/types.h",
   "underlying_type" : "type-19",
   "unique_id" : "_ZTSN7android8hardware5audio6common4V5_010AudioUsageE"
  },
  {
   "alignment" : 4,
   "enum_fields" :
   [
    {
     "enum_field_value" : 2,
     "name" : "android::hardware::audio::common::V5_0::FixedChannelCount::FCC_2"
    },
    {
     "enum_field_value" : 8,
     "name" : "android::hardware::audio::common::V5_0::FixedChannelCount::FCC_8"
    }
   ],
   "linker_set_key" : "android::hardware::audio::common::V5_0::FixedChannelCount",
   "name" : "android::hardware::audio::common::V5_0::FixedChannelCount",
   "referenced_type" : "type-1011",
   "self_type" : "type-1011",
   "size" : 4,
   "source_file" : "/out/soong/.intermediates/hardware/interfaces/audio/common/5.0/android.hardware.audio.common@5.0_genc++_headers/gen/android/hardware/audio/common/5.0/types.h",
   "underlying_type" : "type-19",
   "unique_id" : "_ZTSN7android8hardware5audio6common4V5_017FixedChannelCountE"
  },
  {
   "alignment" : 1,
   "enum_fields" :
   [
    {
     "enum_field_value" : 0,
     "name" : "android::hardware::audio::common::V5_0::RecordTrackMetadata::Destination::hidl_discriminator::unspecified"
    },
    {
     "enum_field_value" : 1,
     "name" : "android::hardware::audio::common::V5_0::RecordTrackMetadata::Destination::hidl_discriminator::device"
    }
   ],
   "linker_set_key" : "android::hardware::audio::common::V5_0::RecordTrackMetadata::Destination::hidl_discriminator",
   "name" : "android::hardware::audio::common::V5_0::RecordTrackMetadata::Destination::hidl_discriminator",
   "referenced_type" : "type-760",
   "self_type" : "type-760",
   "size" : 1,
   "source_file" : "/out/soong/.intermediates/hardware/interfaces/audio/common/5.0/android.hardware.audio.common@5.0_genc++_headers/gen/android/hardware/audio/common/5.0/types.h",
   "underlying_type" : "type-108",
   "unique_id" : "_ZTSN7android8hardware5audio6common4V5_019RecordTrackMetadata11Destination18hidl_discriminatorE"
  },
  {
   "alignment" : 1,
   "enum_fields" :
   [
    {
     "enum_field_value" : 128,
     "name" : "android::hardware::bluetooth::audio::V2_0::AacObjectType::MPEG2_LC"
    },
    {
     "enum_field_value" : 64,
     "name" : "android::hardware::bluetooth::audio::V2_0::AacObjectType::MPEG4_LC"
    },
    {
     "enum_field_value" : 32,
     "name" : "android::hardware::bluetooth::audio::V2_0::AacObjectType::MPEG4_LTP"
    },
    {
     "enum_field_value" : 16,
     "name" : "android::hardware::bluetooth::audio::V2_0::AacObjectType::MPEG4_SCALABLE"
    }
   ],
   "linker_set_key" : "android::hardware::bluetooth::audio::V2_0::AacObjectType",
   "name" : "android::hardware::bluetooth::audio::V2_0::AacObjectType",
   "referenced_type" : "type-283",
   "self_type" : "type-283",
   "size" : 1,
   "source_file" : "/out/soong/.intermediates/hardware/interfaces/bluetooth/audio/2.0/android.hardware.bluetooth.audio@2.0_genc++_headers/gen/android/hardware/bluetooth/audio/2.0/types.h",
   "underlying_type" : "type-108",
   "unique_id" : "_ZTSN7android8hardware9bluetooth5audio4V2_013AacObjectTypeE"
  },
  {
   "alignment" : 1,
   "enum_fields" :
   [
    {
     "enum_field_value" : 128,
     "name" : "android::hardware::bluetooth::audio::V2_0::AacVariableBitRate::ENABLED"
    },
    {
     "enum_field_value" : 0,
     "name" : "android::hardware::bluetooth::audio::V2_0::AacVariableBitRate::DISABLED"
    }
   ],
   "linker_set_key" : "android::hardware::bluetooth::audio::V2_0::AacVariableBitRate",
   "name" : "android::hardware::bluetooth::audio::V2_0::AacVariableBitRate",
   "referenced_type" : "type-284",
   "self_type" : "type-284",
   "size" : 1,
   "source_file" : "/out/soong/.intermediates/hardware/interfaces/bluetooth/audio/2.0/android.hardware.bluetooth.audio@2.0_genc++_headers/gen/android/hardware/bluetooth/audio/2.0/types.h",
   "underlying_type" : "type-108",
   "unique_id" : "_ZTSN7android8hardware9bluetooth5audio4V2_018AacVariableBitRateE"
  },
  {
   "alignment" : 1,
   "enum_fields" :
   [
    {
     "enum_field_value" : 0,
     "name" : "android::hardware::bluetooth::audio::V2_0::AudioCapabilities::hidl_discriminator::pcmCapabilities"
    },
    {
     "enum_field_value" : 1,
     "name" : "android::hardware::bluetooth::audio::V2_0::AudioCapabilities::hidl_discriminator::codecCapabilities"
    }
   ],
   "linker_set_key" : "android::hardware::bluetooth::audio::V2_0::AudioCapabilities::hidl_discriminator",
   "name" : "android::hardware::bluetooth::audio::V2_0::AudioCapabilities::hidl_discriminator",
   "referenced_type" : "type-332",
   "self_type" : "type-332",
   "size" : 1,
   "source_file" : "/out/soong/.intermediates/hardware/interfaces/bluetooth/audio/2.0/android.hardware.bluetooth.audio@2.0_genc++_headers/gen/android/hardware/bluetooth/audio/2.0/types.h",
   "underlying_type" : "type-108",
   "unique_id" : "_ZTSN7android8hardware9bluetooth5audio4V2_017AudioCapabilities18hidl_discriminatorE"
  },
  {
   "alignment" : 1,
   "enum_fields" :
   [
    {
     "enum_field_value" : 0,
     "name" : "android::hardware::bluetooth::audio::V2_0::AudioConfiguration::hidl_discriminator::pcmConfig"
    },
    {
     "enum_field_value" : 1,
     "name" : "android::hardware::bluetooth::audio::V2_0::AudioConfiguration::hidl_discriminator::codecConfig"
    }
   ],
   "linker_set_key" : "android::hardware::bluetooth::audio::V2_0::AudioConfiguration::hidl_discriminator",
   "name" : "android::hardware::bluetooth::audio::V2_0::AudioConfiguration::hidl_discriminator",
   "referenced_type" : "type-266",
   "self_type" : "type-266",
   "size" : 1,
   "source_file" : "/out/soong/.intermediates/hardware/interfaces/bluetooth/audio/2.0/android.hardware.bluetooth.audio@2.0_genc++_headers/gen/android/hardware/bluetooth/audio/2.0/types.h",
   "underlying_type" : "type-108",
   "unique_id" : "_ZTSN7android8hardware9bluetooth5audio4V2_018AudioConfiguration18hidl_discriminatorE"
  },
  {
   "alignment" : 1,
   "enum_fields" :
   [
    {
     "enum_field_value" : 0,
     "name" : "android::hardware::bluetooth::audio::V2_0::BitsPerSample::BITS_UNKNOWN"
    },
    {
     "enum_field_value" : 1,
     "name" : "android::hardware::bluetooth::audio::V2_0::BitsPerSample::BITS_16"
    },
    {
     "enum_field_value" : 2,
     "name" : "android::hardware::bluetooth::audio::V2_0::BitsPerSample::BITS_24"
    },
    {
     "enum_field_value" : 4,
     "name" : "android::hardware::bluetooth::audio::V2_0::BitsPerSample::BITS_32"
    }
   ],
   "linker_set_key" : "android::hardware::bluetooth::audio::V2_0::BitsPerSample",
   "name" : "android::hardware::bluetooth::audio::V2_0::BitsPerSample",
   "referenced_type" : "type-271",
   "self_type" : "type-271",
   "size" : 1,
   "source_file" : "/out/soong/.intermediates/hardware/interfaces/bluetooth/audio/2.0/android.hardware.bluetooth.audio@2.0_genc++_headers/gen/android/hardware/bluetooth/audio/2.0/types.h",
   "underlying_type" : "type-108",
   "unique_id" : "_ZTSN7android8hardware9bluetooth5audio4V2_013BitsPerSampleE"
  },
  {
   "alignment" : 1,
   "enum_fields" :
   [
    {
     "enum_field_value" : 0,
     "name" : "android::hardware::bluetooth::audio::V2_0::ChannelMode::UNKNOWN"
    },
    {
     "enum_field_value" : 1,
     "name" : "android::hardware::bluetooth::audio::V2_0::ChannelMode::MONO"
    },
    {
     "enum_field_value" : 2,
     "name" : "android::hardware::bluetooth::audio::V2_0::ChannelMode::STEREO"
    }
   ],
   "linker_set_key" : "android::hardware::bluetooth::audio::V2_0::ChannelMode",
   "name" : "android::hardware::bluetooth::audio::V2_0::ChannelMode",
   "referenced_type" : "type-270",
   "self_type" : "type-270",
   "size" : 1,
   "source_file" : "/out/soong/.intermediates/hardware/interfaces/bluetooth/audio/2.0/android.hardware.bluetooth.audio@2.0_genc++_headers/gen/android/hardware/bluetooth/audio/2.0/types.h",
   "underlying_type" : "type-108",
   "unique_id" : "_ZTSN7android8hardware9bluetooth5audio4V2_011ChannelModeE"
  },
  {
   "alignment" : 1,
   "enum_fields" :
   [
    {
     "enum_field_value" : 0,
     "name" : "android::hardware::bluetooth::audio::V2_0::CodecCapabilities::Capabilities::hidl_discriminator::sbcCapabilities"
    },
    {
     "enum_field_value" : 1,
     "name" : "android::hardware::bluetooth::audio::V2_0::CodecCapabilities::Capabilities::hidl_discriminator::aacCapabilities"
    },
    {
     "enum_field_value" : 2,
     "name" : "android::hardware::bluetooth::audio::V2_0::CodecCapabilities::Capabilities::hidl_discriminator::ldacCapabilities"
    },
    {
     "enum_field_value" : 3,
     "name" : "android::hardware::bluetooth::audio::V2_0::CodecCapabilities::Capabilities::hidl_discriminator::aptxCapabilities"
    }
   ],
   "linker_set_key" : "android::hardware::bluetooth::audio::V2_0::CodecCapabilities::Capabilities::hidl_discriminator",
   "name" : "android::hardware::bluetooth::audio::V2_0::CodecCapabilities::Capabilities::hidl_discriminator",
   "referenced_type" : "type-336",
   "self_type" : "type-336",
   "size" : 1,
   "source_file" : "/out/soong/.intermediates/hardware/interfaces/bluetooth/audio/2.0/android.hardware.bluetooth.audio@2.0_genc++_headers/gen/android/hardware/bluetooth/audio/2.0/types.h",
   "underlying_type" : "type-108",
   "unique_id" : "_ZTSN7android8hardware9bluetooth5audio4V2_017CodecCapabilities12Capabilities18hidl_discriminatorE"
  },
  {
   "alignment" : 1,
   "enum_fields" :
   [
    {
     "enum_field_value" : 0,
     "name" : "android::hardware::bluetooth::audio::V2_0::CodecConfiguration::CodecSpecific::hidl_discriminator::sbcConfig"
    },
    {
     "enum_field_value" : 1,
     "name" : "android::hardware::bluetooth::audio::V2_0::CodecConfiguration::CodecSpecific::hidl_discriminator::aacConfig"
    },
    {
     "enum_field_value" : 2,
     "name" : "android::hardware::bluetooth::audio::V2_0::CodecConfiguration::CodecSpecific::hidl_discriminator::ldacConfig"
    },
    {
     "enum_field_value" : 3,
     "name" : "android::hardware::bluetooth::audio::V2_0::CodecConfiguration::CodecSpecific::hidl_discriminator::aptxConfig"
    }
   ],
   "linker_set_key" : "android::hardware::bluetooth::audio::V2_0::CodecConfiguration::CodecSpecific::hidl_discriminator",
   "name" : "android::hardware::bluetooth::audio::V2_0::CodecConfiguration::CodecSpecific::hidl_discriminator",
   "referenced_type" : "type-275",
   "self_type" : "type-275",
   "size" : 1,
   "source_file" : "/out/soong/.intermediates/hardware/interfaces/bluetooth/audio/2.0/android.hardware.bluetooth.audio@2.0_genc++_headers/gen/android/hardware/bluetooth/audio/2.0/types.h",
   "underlying_type" : "type-108",
   "unique_id" : "_ZTSN7android8hardware9bluetooth5audio4V2_018CodecConfiguration13CodecSpecific18hidl_discriminatorE"
  },
  {
   "alignment" : 4,
   "enum_fields" :
   [
    {
     "enum_field_value" : 0,
     "name" : "android::hardware::bluetooth::audio::V2_0::CodecType::UNKNOWN"
    },
    {
     "enum_field_value" : 1,
     "name" : "android::hardware::bluetooth::audio::V2_0::CodecType::SBC"
    },
    {
     "enum_field_value" : 2,
     "name" : "android::hardware::bluetooth::audio::V2_0::CodecType::AAC"
    },
    {
     "enum_field_value" : 4,
     "name" : "android::hardware::bluetooth::audio::V2_0::CodecType::APTX"
    },
    {
     "enum_field_value" : 8,
     "name" : "android::hardware::bluetooth::audio::V2_0::CodecType::APTX_HD"
    },
    {
     "enum_field_value" : 16,
     "name" : "android::hardware::bluetooth::audio::V2_0::CodecType::LDAC"
    }
   ],
   "linker_set_key" : "android::hardware::bluetooth::audio::V2_0::CodecType",
   "name" : "android::hardware::bluetooth::audio::V2_0::CodecType",
   "referenced_type" : "type-273",
   "self_type" : "type-273",
   "size" : 4,
   "source_file" : "/out/soong/.intermediates/hardware/interfaces/bluetooth/audio/2.0/android.hardware.bluetooth.audio@2.0_genc++_headers/gen/android/hardware/bluetooth/audio/2.0/types.h",
   "underlying_type" : "type-2",
   "unique_id" : "_ZTSN7android8hardware9bluetooth5audio4V2_09CodecTypeE"
  },
  {
   "alignment" : 1,
   "enum_fields" :
   [
    {
     "enum_field_value" : 0,
     "name" : "android::hardware::bluetooth::audio::V2_0::LdacChannelMode::UNKNOWN"
    },
    {
     "enum_field_value" : 1,
     "name" : "android::hardware::bluetooth::audio::V2_0::LdacChannelMode::STEREO"
    },
    {
     "enum_field_value" : 2,
     "name" : "android::hardware::bluetooth::audio::V2_0::LdacChannelMode::DUAL"
    },
    {
     "enum_field_value" : 4,
     "name" : "android::hardware::bluetooth::audio::V2_0::LdacChannelMode::MONO"
    }
   ],
   "linker_set_key" : "android::hardware::bluetooth::audio::V2_0::LdacChannelMode",
   "name" : "android::hardware::bluetooth::audio::V2_0::LdacChannelMode",
   "referenced_type" : "type-286",
   "self_type" : "type-286",
   "size" : 1,
   "source_file" : "/out/soong/.intermediates/hardware/interfaces/bluetooth/audio/2.0/android.hardware.bluetooth.audio@2.0_genc++_headers/gen/android/hardware/bluetooth/audio/2.0/types.h",
   "underlying_type" : "type-108",
   "unique_id" : "_ZTSN7android8hardware9bluetooth5audio4V2_015LdacChannelModeE"
  },
  {
   "alignment" : 1,
   "enum_fields" :
   [
    {
     "enum_field_value" : 0,
     "name" : "android::hardware::bluetooth::audio::V2_0::LdacQualityIndex::QUALITY_HIGH"
    },
    {
     "enum_field_value" : 1,
     "name" : "android::hardware::bluetooth::audio::V2_0::LdacQualityIndex::QUALITY_MID"
    },
    {
     "enum_field_value" : 2,
     "name" : "android::hardware::bluetooth::audio::V2_0::LdacQualityIndex::QUALITY_LOW"
    },
    {
     "enum_field_value" : 127,
     "name" : "android::hardware::bluetooth::audio::V2_0::LdacQualityIndex::QUALITY_ABR"
    }
   ],
   "linker_set_key" : "android::hardware::bluetooth::audio::V2_0::LdacQualityIndex",
   "name" : "android::hardware::bluetooth::audio::V2_0::LdacQualityIndex",
   "referenced_type" : "type-287",
   "self_type" : "type-287",
   "size" : 1,
   "source_file" : "/out/soong/.intermediates/hardware/interfaces/bluetooth/audio/2.0/android.hardware.bluetooth.audio@2.0_genc++_headers/gen/android/hardware/bluetooth/audio/2.0/types.h",
   "underlying_type" : "type-108",
   "unique_id" : "_ZTSN7android8hardware9bluetooth5audio4V2_016LdacQualityIndexE"
  },
  {
   "alignment" : 4,
   "enum_fields" :
   [
    {
     "enum_field_value" : 0,
     "name" : "android::hardware::bluetooth::audio::V2_0::SampleRate::RATE_UNKNOWN"
    },
    {
     "enum_field_value" : 1,
     "name" : "android::hardware::bluetooth::audio::V2_0::SampleRate::RATE_44100"
    },
    {
     "enum_field_value" : 2,
     "name" : "android::hardware::bluetooth::audio::V2_0::SampleRate::RATE_48000"
    },
    {
     "enum_field_value" : 4,
     "name" : "android::hardware::bluetooth::audio::V2_0::SampleRate::RATE_88200"
    },
    {
     "enum_field_value" : 8,
     "name" : "android::hardware::bluetooth::audio::V2_0::SampleRate::RATE_96000"
    },
    {
     "enum_field_value" : 16,
     "name" : "android::hardware::bluetooth::audio::V2_0::SampleRate::RATE_176400"
    },
    {
     "enum_field_value" : 32,
     "name" : "android::hardware::bluetooth::audio::V2_0::SampleRate::RATE_192000"
    },
    {
     "enum_field_value" : 64,
     "name" : "android::hardware::bluetooth::audio::V2_0::SampleRate::RATE_16000"
    },
    {
     "enum_field_value" : 128,
     "name" : "android::hardware::bluetooth::audio::V2_0::SampleRate::RATE_24000"
    }
   ],
   "linker_set_key" : "android::hardware::bluetooth::audio::V2_0::SampleRate",
   "name" : "android::hardware::bluetooth::audio::V2_0::SampleRate",
   "referenced_type" : "type-269",
   "self_type" : "type-269",
   "size" : 4,
   "source_file" : "/out/soong/.intermediates/hardware/interfaces/bluetooth/audio/2.0/android.hardware.bluetooth.audio@2.0_genc++_headers/gen/android/hardware/bluetooth/audio/2.0/types.h",
   "underlying_type" : "type-2",
   "unique_id" : "_ZTSN7android8hardware9bluetooth5audio4V2_010SampleRateE"
  },
  {
   "alignment" : 1,
   "enum_fields" :
   [
    {
     "enum_field_value" : 2,
     "name" : "android::hardware::bluetooth::audio::V2_0::SbcAllocMethod::ALLOC_MD_S"
    },
    {
     "enum_field_value" : 1,
     "name" : "android::hardware::bluetooth::audio::V2_0::SbcAllocMethod::ALLOC_MD_L"
    }
   ],
   "linker_set_key" : "android::hardware::bluetooth::audio::V2_0::SbcAllocMethod",
   "name" : "android::hardware::bluetooth::audio::V2_0::SbcAllocMethod",
   "referenced_type" : "type-281",
   "self_type" : "type-281",
   "size" : 1,
   "source_file" : "/out/soong/.intermediates/hardware/interfaces/bluetooth/audio/2.0/android.hardware.bluetooth.audio@2.0_genc++_headers/gen/android/hardware/bluetooth/audio/2.0/types.h",
   "underlying_type" : "type-108",
   "unique_id" : "_ZTSN7android8hardware9bluetooth5audio4V2_014SbcAllocMethodE"
  },
  {
   "alignment" : 1,
   "enum_fields" :
   [
    {
     "enum_field_value" : 128,
     "name" : "android::hardware::bluetooth::audio::V2_0::SbcBlockLength::BLOCKS_4"
    },
    {
     "enum_field_value" : 64,
     "name" : "android::hardware::bluetooth::audio::V2_0::SbcBlockLength::BLOCKS_8"
    },
    {
     "enum_field_value" : 32,
     "name" : "android::hardware::bluetooth::audio::V2_0::SbcBlockLength::BLOCKS_12"
    },
    {
     "enum_field_value" : 16,
     "name" : "android::hardware::bluetooth::audio::V2_0::SbcBlockLength::BLOCKS_16"
    }
   ],
   "linker_set_key" : "android::hardware::bluetooth::audio::V2_0::SbcBlockLength",
   "name" : "android::hardware::bluetooth::audio::V2_0::SbcBlockLength",
   "referenced_type" : "type-279",
   "self_type" : "type-279",
   "size" : 1,
   "source_file" : "/out/soong/.intermediates/hardware/interfaces/bluetooth/audio/2.0/android.hardware.bluetooth.audio@2.0_genc++_headers/gen/android/hardware/bluetooth/audio/2.0/types.h",
   "underlying_type" : "type-108",
   "unique_id" : "_ZTSN7android8hardware9bluetooth5audio4V2_014SbcBlockLengthE"
  },
  {
   "alignment" : 1,
   "enum_fields" :
   [
    {
     "enum_field_value" : 0,
     "name" : "android::hardware::bluetooth::audio::V2_0::SbcChannelMode::UNKNOWN"
    },
    {
     "enum_field_value" : 1,
     "name" : "android::hardware::bluetooth::audio::V2_0::SbcChannelMode::JOINT_STEREO"
    },
    {
     "enum_field_value" : 2,
     "name" : "android::hardware::bluetooth::audio::V2_0::SbcChannelMode::STEREO"
    },
    {
     "enum_field_value" : 4,
     "name" : "android::hardware::bluetooth::audio::V2_0::SbcChannelMode::DUAL"
    },
    {
     "enum_field_value" : 8,
     "name" : "android::hardware::bluetooth::audio::V2_0::SbcChannelMode::MONO"
    }
   ],
   "linker_set_key" : "android::hardware::bluetooth::audio::V2_0::SbcChannelMode",
   "name" : "android::hardware::bluetooth::audio::V2_0::SbcChannelMode",
   "referenced_type" : "type-278",
   "self_type" : "type-278",
   "size" : 1,
   "source_file" : "/out/soong/.intermediates/hardware/interfaces/bluetooth/audio/2.0/android.hardware.bluetooth.audio@2.0_genc++_headers/gen/android/hardware/bluetooth/audio/2.0/types.h",
   "underlying_type" : "type-108",
   "unique_id" : "_ZTSN7android8hardware9bluetooth5audio4V2_014SbcChannelModeE"
  },
  {
   "alignment" : 1,
   "enum_fields" :
   [
    {
     "enum_field_value" : 8,
     "name" : "android::hardware::bluetooth::audio::V2_0::SbcNumSubbands::SUBBAND_4"
    },
    {
     "enum_field_value" : 4,
     "name" : "android::hardware::bluetooth::audio::V2_0::SbcNumSubbands::SUBBAND_8"
    }
   ],
   "linker_set_key" : "android::hardware::bluetooth::audio::V2_0::SbcNumSubbands",
   "name" : "android::hardware::bluetooth::audio::V2_0::SbcNumSubbands",
   "referenced_type" : "type-280",
   "self_type" : "type-280",
   "size" : 1,
   "source_file" : "/out/soong/.intermediates/hardware/interfaces/bluetooth/audio/2.0/android.hardware.bluetooth.audio@2.0_genc++_headers/gen/android/hardware/bluetooth/audio/2.0/types.h",
   "underlying_type" : "type-108",
   "unique_id" : "_ZTSN7android8hardware9bluetooth5audio4V2_014SbcNumSubbandsE"
  },
  {
   "alignment" : 1,
   "enum_fields" :
   [
    {
     "enum_field_value" : 0,
     "name" : "android::hardware::bluetooth::audio::V2_0::SessionType::UNKNOWN"
    },
    {
     "enum_field_value" : 1,
     "name" : "android::hardware::bluetooth::audio::V2_0::SessionType::A2DP_SOFTWARE_ENCODING_DATAPATH"
    },
    {
     "enum_field_value" : 2,
     "name" : "android::hardware::bluetooth::audio::V2_0::SessionType::A2DP_HARDWARE_OFFLOAD_DATAPATH"
    },
    {
     "enum_field_value" : 3,
     "name" : "android::hardware::bluetooth::audio::V2_0::SessionType::HEARING_AID_SOFTWARE_ENCODING_DATAPATH"
    }
   ],
   "linker_set_key" : "android::hardware::bluetooth::audio::V2_0::SessionType",
   "name" : "android::hardware::bluetooth::audio::V2_0::SessionType",
   "referenced_type" : "type-1105",
   "self_type" : "type-1105",
   "size" : 1,
   "source_file" : "/out/soong/.intermediates/hardware/interfaces/bluetooth/audio/2.0/android.hardware.bluetooth.audio@2.0_genc++_headers/gen/android/hardware/bluetooth/audio/2.0/types.h",
   "underlying_type" : "type-108",
   "unique_id" : "_ZTSN7android8hardware9bluetooth5audio4V2_011SessionTypeE"
  },
  {
   "alignment" : 1,
   "enum_fields" :
   [
    {
     "enum_field_value" : 0,
     "name" : "android::hardware::bluetooth::audio::V2_0::Status::SUCCESS"
    },
    {
     "enum_field_value" : 1,
     "name" : "android::hardware::bluetooth::audio::V2_0::Status::UNSUPPORTED_CODEC_CONFIGURATION"
    },
    {
     "enum_field_value" : 2,
     "name" : "android::hardware::bluetooth::audio::V2_0::Status::FAILURE"
    }
   ],
   "linker_set_key" : "android::hardware::bluetooth::audio::V2_0::Status",
   "name" : "android::hardware::bluetooth::audio::V2_0::Status",
   "referenced_type" : "type-1104",
   "self_type" : "type-1104",
   "size" : 1,
   "source_file" : "/out/soong/.intermediates/hardware/interfaces/bluetooth/audio/2.0/android.hardware.bluetooth.audio@2.0_genc++_headers/gen/android/hardware/bluetooth/audio/2.0/types.h",
   "underlying_type" : "type-108",
   "unique_id" : "_ZTSN7android8hardware9bluetooth5audio4V2_06StatusE"
  },
  {
   "alignment" : 4,
   "enum_fields" :
   [
    {
     "enum_field_value" : 0,
     "name" : "android::hardware::details::HidlInstrumentor::SERVER_API_ENTRY"
    },
    {
     "enum_field_value" : 1,
     "name" : "android::hardware::details::HidlInstrumentor::SERVER_API_EXIT"
    },
    {
     "enum_field_value" : 2,
     "name" : "android::hardware::details::HidlInstrumentor::CLIENT_API_ENTRY"
    },
    {
     "enum_field_value" : 3,
     "name" : "android::hardware::details::HidlInstrumentor::CLIENT_API_EXIT"
    },
    {
     "enum_field_value" : 4,
     "name" : "android::hardware::details::HidlInstrumentor::SYNC_CALLBACK_ENTRY"
    },
    {
     "enum_field_value" : 5,
     "name" : "android::hardware::details::HidlInstrumentor::SYNC_CALLBACK_EXIT"
    },
    {
     "enum_field_value" : 6,
     "name" : "android::hardware::details::HidlInstrumentor::ASYNC_CALLBACK_ENTRY"
    },
    {
     "enum_field_value" : 7,
     "name" : "android::hardware::details::HidlInstrumentor::ASYNC_CALLBACK_EXIT"
    },
    {
     "enum_field_value" : 8,
     "name" : "android::hardware::details::HidlInstrumentor::PASSTHROUGH_ENTRY"
    },
    {
     "enum_field_value" : 9,
     "name" : "android::hardware::details::HidlInstrumentor::PASSTHROUGH_EXIT"
    }
   ],
   "linker_set_key" : "android::hardware::details::HidlInstrumentor::InstrumentationEvent",
   "name" : "android::hardware::details::HidlInstrumentor::InstrumentationEvent",
   "referenced_type" : "type-773",
   "self_type" : "type-773",
   "size" : 4,
   "source_file" : "/system/libhidl/base/include/hidl/HidlInternal.h",
   "underlying_type" : "type-2",
   "unique_id" : "_ZTSN7android8hardware7details16HidlInstrumentor20InstrumentationEventE"
  },
  {
   "alignment" : 4,
   "enum_fields" :
   [
    {
     "enum_field_value" : 0,
     "name" : "android::hidl::base::V1_0::DebugInfo::Architecture::UNKNOWN"
    },
    {
     "enum_field_value" : 1,
     "name" : "android::hidl::base::V1_0::DebugInfo::Architecture::IS_64BIT"
    },
    {
     "enum_field_value" : 2,
     "name" : "android::hidl::base::V1_0::DebugInfo::Architecture::IS_32BIT"
    }
   ],
   "linker_set_key" : "android::hidl::base::V1_0::DebugInfo::Architecture",
   "name" : "android::hidl::base::V1_0::DebugInfo::Architecture",
   "referenced_type" : "type-863",
   "self_type" : "type-863",
   "size" : 4,
   "source_file" : "/out/soong/.intermediates/system/libhidl/transport/base/1.0/android.hidl.base@1.0_genc++_headers/gen/android/hidl/base/1.0/types.h",
   "underlying_type" : "type-19",
   "unique_id" : "_ZTSN7android4hidl4base4V1_09DebugInfo12ArchitectureE"
  },
  {
   "alignment" : 4,
   "enum_fields" :
   [
    {
     "enum_field_value" : -1,
     "name" : "android::hidl::manager::V1_0::IServiceManager::PidConstant::NO_PID"
    }
   ],
   "linker_set_key" : "android::hidl::manager::V1_0::IServiceManager::PidConstant",
   "name" : "android::hidl::manager::V1_0::IServiceManager::PidConstant",
   "referenced_type" : "type-998",
   "self_type" : "type-998",
   "size" : 4,
   "source_file" : "/out/soong/.intermediates/system/libhidl/transport/manager/1.0/android.hidl.manager@1.0_genc++_headers/gen/android/hidl/manager/1.0/IServiceManager.h",
   "underlying_type" : "type-19",
   "unique_id" : "_ZTSN7android4hidl7manager4V1_015IServiceManager11PidConstantE"
  },
  {
   "alignment" : 1,
   "enum_fields" :
   [
    {
     "enum_field_value" : 0,
     "name" : "android::hidl::manager::V1_0::IServiceManager::Transport::EMPTY"
    },
    {
     "enum_field_value" : 1,
     "name" : "android::hidl::manager::V1_0::IServiceManager::Transport::HWBINDER"
    },
    {
     "enum_field_value" : 2,
     "name" : "android::hidl::manager::V1_0::IServiceManager::Transport::PASSTHROUGH"
    }
   ],
   "linker_set_key" : "android::hidl::manager::V1_0::IServiceManager::Transport",
   "name" : "android::hidl::manager::V1_0::IServiceManager::Transport",
   "referenced_type" : "type-997",
   "self_type" : "type-997",
   "size" : 1,
   "source_file" : "/out/soong/.intermediates/system/libhidl/transport/manager/1.0/android.hidl.manager@1.0_genc++_headers/gen/android/hidl/manager/1.0/IServiceManager.h",
   "underlying_type" : "type-108",
   "unique_id" : "_ZTSN7android4hidl7manager4V1_015IServiceManager9TransportE"
  },
  {
   "alignment" : 4,
   "enum_fields" :
   [
    {
     "enum_field_value" : 0,
     "name" : "ANDROID_LOG_UNKNOWN"
    },
    {
     "enum_field_value" : 1,
     "name" : "ANDROID_LOG_DEFAULT"
    },
    {
     "enum_field_value" : 2,
     "name" : "ANDROID_LOG_VERBOSE"
    },
    {
     "enum_field_value" : 3,
     "name" : "ANDROID_LOG_DEBUG"
    },
    {
     "enum_field_value" : 4,
     "name" : "ANDROID_LOG_INFO"
    },
    {
     "enum_field_value" : 5,
     "name" : "ANDROID_LOG_WARN"
    },
    {
     "enum_field_value" : 6,
     "name" : "ANDROID_LOG_ERROR"
    },
    {
     "enum_field_value" : 7,
     "name" : "ANDROID_LOG_FATAL"
    },
    {
     "enum_field_value" : 8,
     "name" : "ANDROID_LOG_SILENT"
    }
   ],
   "linker_set_key" : "android_LogPriority",
   "name" : "android_LogPriority",
   "referenced_type" : "type-1",
   "self_type" : "type-1",
   "size" : 4,
   "source_file" : "/system/core/liblog/include/android/log.h",
   "underlying_type" : "type-2",
   "unique_id" : "android_LogPriority"
  },
  {
   "alignment" : 4,
   "enum_fields" :
   [
    {
     "enum_field_value" : 0,
     "name" : "HAL_COLOR_MODE_NATIVE"
    },
    {
     "enum_field_value" : 1,
     "name" : "HAL_COLOR_MODE_STANDARD_BT601_625"
    },
    {
     "enum_field_value" : 2,
     "name" : "HAL_COLOR_MODE_STANDARD_BT601_625_UNADJUSTED"
    },
    {
     "enum_field_value" : 3,
     "name" : "HAL_COLOR_MODE_STANDARD_BT601_525"
    },
    {
     "enum_field_value" : 4,
     "name" : "HAL_COLOR_MODE_STANDARD_BT601_525_UNADJUSTED"
    },
    {
     "enum_field_value" : 5,
     "name" : "HAL_COLOR_MODE_STANDARD_BT709"
    },
    {
     "enum_field_value" : 6,
     "name" : "HAL_COLOR_MODE_DCI_P3"
    },
    {
     "enum_field_value" : 7,
     "name" : "HAL_COLOR_MODE_SRGB"
    },
    {
     "enum_field_value" : 8,
     "name" : "HAL_COLOR_MODE_ADOBE_RGB"
    },
    {
     "enum_field_value" : 9,
     "name" : "HAL_COLOR_MODE_DISPLAY_P3"
    }
   ],
   "linker_set_key" : "android_color_mode_t",
   "name" : "android_color_mode_t",
   "referenced_type" : "type-948",
   "self_type" : "type-948",
   "size" : 4,
   "source_file" : "/system/core/libsystem/include/system/graphics-base-v1.0.h",
   "underlying_type" : "type-2",
   "unique_id" : "android_color_mode_t"
  },
  {
   "alignment" : 4,
   "enum_fields" :
   [
    {
     "enum_field_value" : 10,
     "name" : "HAL_COLOR_MODE_BT2020"
    },
    {
     "enum_field_value" : 11,
     "name" : "HAL_COLOR_MODE_BT2100_PQ"
    },
    {
     "enum_field_value" : 12,
     "name" : "HAL_COLOR_MODE_BT2100_HLG"
    }
   ],
   "linker_set_key" : "android_color_mode_v1_1_t",
   "name" : "android_color_mode_v1_1_t",
   "referenced_type" : "type-953",
   "self_type" : "type-953",
   "size" : 4,
   "source_file" : "/system/core/libsystem/include/system/graphics-base-v1.1.h",
   "underlying_type" : "type-2",
   "unique_id" : "android_color_mode_v1_1_t"
  },
  {
   "alignment" : 4,
   "enum_fields" :
   [
    {
     "enum_field_value" : 0,
     "name" : "HAL_COLOR_TRANSFORM_IDENTITY"
    },
    {
     "enum_field_value" : 1,
     "name" : "HAL_COLOR_TRANSFORM_ARBITRARY_MATRIX"
    },
    {
     "enum_field_value" : 2,
     "name" : "HAL_COLOR_TRANSFORM_VALUE_INVERSE"
    },
    {
     "enum_field_value" : 3,
     "name" : "HAL_COLOR_TRANSFORM_GRAYSCALE"
    },
    {
     "enum_field_value" : 4,
     "name" : "HAL_COLOR_TRANSFORM_CORRECT_PROTANOPIA"
    },
    {
     "enum_field_value" : 5,
     "name" : "HAL_COLOR_TRANSFORM_CORRECT_DEUTERANOPIA"
    },
    {
     "enum_field_value" : 6,
     "name" : "HAL_COLOR_TRANSFORM_CORRECT_TRITANOPIA"
    }
   ],
   "linker_set_key" : "android_color_transform_t",
   "name" : "android_color_transform_t",
   "referenced_type" : "type-949",
   "self_type" : "type-949",
   "size" : 4,
   "source_file" : "/system/core/libsystem/include/system/graphics-base-v1.0.h",
   "underlying_type" : "type-2",
   "unique_id" : "android_color_transform_t"
  },
  {
   "alignment" : 4,
   "enum_fields" :
   [
    {
     "enum_field_value" : 0,
     "name" : "HAL_DATASPACE_UNKNOWN"
    },
    {
     "enum_field_value" : 1,
     "name" : "HAL_DATASPACE_ARBITRARY"
    },
    {
     "enum_field_value" : 16,
     "name" : "HAL_DATASPACE_STANDARD_SHIFT"
    },
    {
     "enum_field_value" : 4128768,
     "name" : "HAL_DATASPACE_STANDARD_MASK"
    },
    {
     "enum_field_value" : 0,
     "name" : "HAL_DATASPACE_STANDARD_UNSPECIFIED"
    },
    {
     "enum_field_value" : 65536,
     "name" : "HAL_DATASPACE_STANDARD_BT709"
    },
    {
     "enum_field_value" : 131072,
     "name" : "HAL_DATASPACE_STANDARD_BT601_625"
    },
    {
     "enum_field_value" : 196608,
     "name" : "HAL_DATASPACE_STANDARD_BT601_625_UNADJUSTED"
    },
    {
     "enum_field_value" : 262144,
     "name" : "HAL_DATASPACE_STANDARD_BT601_525"
    },
    {
     "enum_field_value" : 327680,
     "name" : "HAL_DATASPACE_STANDARD_BT601_525_UNADJUSTED"
    },
    {
     "enum_field_value" : 393216,
     "name" : "HAL_DATASPACE_STANDARD_BT2020"
    },
    {
     "enum_field_value" : 458752,
     "name" : "HAL_DATASPACE_STANDARD_BT2020_CONSTANT_LUMINANCE"
    },
    {
     "enum_field_value" : 524288,
     "name" : "HAL_DATASPACE_STANDARD_BT470M"
    },
    {
     "enum_field_value" : 589824,
     "name" : "HAL_DATASPACE_STANDARD_FILM"
    },
    {
     "enum_field_value" : 655360,
     "name" : "HAL_DATASPACE_STANDARD_DCI_P3"
    },
    {
     "enum_field_value" : 720896,
     "name" : "HAL_DATASPACE_STANDARD_ADOBE_RGB"
    },
    {
     "enum_field_value" : 22,
     "name" : "HAL_DATASPACE_TRANSFER_SHIFT"
    },
    {
     "enum_field_value" : 130023424,
     "name" : "HAL_DATASPACE_TRANSFER_MASK"
    },
    {
     "enum_field_value" : 0,
     "name" : "HAL_DATASPACE_TRANSFER_UNSPECIFIED"
    },
    {
     "enum_field_value" : 4194304,
     "name" : "HAL_DATASPACE_TRANSFER_LINEAR"
    },
    {
     "enum_field_value" : 8388608,
     "name" : "HAL_DATASPACE_TRANSFER_SRGB"
    },
    {
     "enum_field_value" : 12582912,
     "name" : "HAL_DATASPACE_TRANSFER_SMPTE_170M"
    },
    {
     "enum_field_value" : 16777216,
     "name" : "HAL_DATASPACE_TRANSFER_GAMMA2_2"
    },
    {
     "enum_field_value" : 20971520,
     "name" : "HAL_DATASPACE_TRANSFER_GAMMA2_6"
    },
    {
     "enum_field_value" : 25165824,
     "name" : "HAL_DATASPACE_TRANSFER_GAMMA2_8"
    },
    {
     "enum_field_value" : 29360128,
     "name" : "HAL_DATASPACE_TRANSFER_ST2084"
    },
    {
     "enum_field_value" : 33554432,
     "name" : "HAL_DATASPACE_TRANSFER_HLG"
    },
    {
     "enum_field_value" : 27,
     "name" : "HAL_DATASPACE_RANGE_SHIFT"
    },
    {
     "enum_field_value" : 939524096,
     "name" : "HAL_DATASPACE_RANGE_MASK"
    },
    {
     "enum_field_value" : 0,
     "name" : "HAL_DATASPACE_RANGE_UNSPECIFIED"
    },
    {
     "enum_field_value" : 134217728,
     "name" : "HAL_DATASPACE_RANGE_FULL"
    },
    {
     "enum_field_value" : 268435456,
     "name" : "HAL_DATASPACE_RANGE_LIMITED"
    },
    {
     "enum_field_value" : 402653184,
     "name" : "HAL_DATASPACE_RANGE_EXTENDED"
    },
    {
     "enum_field_value" : 512,
     "name" : "HAL_DATASPACE_SRGB_LINEAR"
    },
    {
     "enum_field_value" : 138477568,
     "name" : "HAL_DATASPACE_V0_SRGB_LINEAR"
    },
    {
     "enum_field_value" : 406913024,
     "name" : "HAL_DATASPACE_V0_SCRGB_LINEAR"
    },
    {
     "enum_field_value" : 513,
     "name" : "HAL_DATASPACE_SRGB"
    },
    {
     "enum_field_value" : 142671872,
     "name" : "HAL_DATASPACE_V0_SRGB"
    },
    {
     "enum_field_value" : 411107328,
     "name" : "HAL_DATASPACE_V0_SCRGB"
    },
    {
     "enum_field_value" : 257,
     "name" : "HAL_DATASPACE_JFIF"
    },
    {
     "enum_field_value" : 146931712,
     "name" : "HAL_DATASPACE_V0_JFIF"
    },
    {
     "enum_field_value" : 258,
     "name" : "HAL_DATASPACE_BT601_625"
    },
    {
     "enum_field_value" : 281149440,
     "name" : "HAL_DATASPACE_V0_BT601_625"
    },
    {
     "enum_field_value" : 259,
     "name" : "HAL_DATASPACE_BT601_525"
    },
    {
     "enum_field_value" : 281280512,
     "name" : "HAL_DATASPACE_V0_BT601_525"
    },
    {
     "enum_field_value" : 260,
     "name" : "HAL_DATASPACE_BT709"
    },
    {
     "enum_field_value" : 281083904,
     "name" : "HAL_DATASPACE_V0_BT709"
    },
    {
     "enum_field_value" : 139067392,
     "name" : "HAL_DATASPACE_DCI_P3_LINEAR"
    },
    {
     "enum_field_value" : 155844608,
     "name" : "HAL_DATASPACE_DCI_P3"
    },
    {
     "enum_field_value" : 139067392,
     "name" : "HAL_DATASPACE_DISPLAY_P3_LINEAR"
    },
    {
     "enum_field_value" : 143261696,
     "name" : "HAL_DATASPACE_DISPLAY_P3"
    },
    {
     "enum_field_value" : 151715840,
     "name" : "HAL_DATASPACE_ADOBE_RGB"
    },
    {
     "enum_field_value" : 138805248,
     "name" : "HAL_DATASPACE_BT2020_LINEAR"
    },
    {
     "enum_field_value" : 147193856,
     "name" : "HAL_DATASPACE_BT2020"
    },
    {
     "enum_field_value" : 163971072,
     "name" : "HAL_DATASPACE_BT2020_PQ"
    },
    {
     "enum_field_value" : 4096,
     "name" : "HAL_DATASPACE_DEPTH"
    },
    {
     "enum_field_value" : 4097,
     "name" : "HAL_DATASPACE_SENSOR"
    }
   ],
   "linker_set_key" : "android_dataspace_t",
   "name" : "android_dataspace_t",
   "referenced_type" : "type-947",
   "self_type" : "type-947",
   "size" : 4,
   "source_file" : "/system/core/libsystem/include/system/graphics-base-v1.0.h",
   "underlying_type" : "type-2",
   "unique_id" : "android_dataspace_t"
  },
  {
   "alignment" : 4,
   "enum_fields" :
   [
    {
     "enum_field_value" : 281411584,
     "name" : "HAL_DATASPACE_BT2020_ITU"
    },
    {
     "enum_field_value" : 298188800,
     "name" : "HAL_DATASPACE_BT2020_ITU_PQ"
    },
    {
     "enum_field_value" : 302383104,
     "name" : "HAL_DATASPACE_BT2020_ITU_HLG"
    },
    {
     "enum_field_value" : 168165376,
     "name" : "HAL_DATASPACE_BT2020_HLG"
    }
   ],
   "linker_set_key" : "android_dataspace_v1_1_t",
   "name" : "android_dataspace_v1_1_t",
   "referenced_type" : "type-952",
   "self_type" : "type-952",
   "size" : 4,
   "source_file" : "/system/core/libsystem/include/system/graphics-base-v1.1.h",
   "underlying_type" : "type-2",
   "unique_id" : "android_dataspace_v1_1_t"
  },
  {
   "alignment" : 4,
   "enum_fields" :
   [
    {
     "enum_field_value" : 142999552,
     "name" : "HAL_DATASPACE_DISPLAY_BT2020"
    },
    {
     "enum_field_value" : 4098,
     "name" : "HAL_DATASPACE_DYNAMIC_DEPTH"
    },
    {
     "enum_field_value" : 4099,
     "name" : "HAL_DATASPACE_JPEG_APP_SEGMENTS"
    },
    {
     "enum_field_value" : 4100,
     "name" : "HAL_DATASPACE_HEIF"
    }
   ],
   "linker_set_key" : "android_dataspace_v1_2_t",
   "name" : "android_dataspace_v1_2_t",
   "referenced_type" : "type-956",
   "self_type" : "type-956",
   "size" : 4,
   "source_file" : "/system/core/libsystem/include/system/graphics-base-v1.2.h",
   "underlying_type" : "type-2",
   "unique_id" : "android_dataspace_v1_2_t"
  },
  {
   "alignment" : 4,
   "enum_fields" :
   [
    {
     "enum_field_value" : 1,
     "name" : "FLEX_COMPONENT_Y"
    },
    {
     "enum_field_value" : 2,
     "name" : "FLEX_COMPONENT_Cb"
    },
    {
     "enum_field_value" : 4,
     "name" : "FLEX_COMPONENT_Cr"
    },
    {
     "enum_field_value" : 1024,
     "name" : "FLEX_COMPONENT_R"
    },
    {
     "enum_field_value" : 2048,
     "name" : "FLEX_COMPONENT_G"
    },
    {
     "enum_field_value" : 4096,
     "name" : "FLEX_COMPONENT_B"
    },
    {
     "enum_field_value" : 1073741824,
     "name" : "FLEX_COMPONENT_A"
    }
   ],
   "linker_set_key" : "android_flex_component",
   "name" : "android_flex_component",
   "referenced_type" : "type-961",
   "self_type" : "type-961",
   "size" : 4,
   "source_file" : "/system/core/libsystem/include/system/graphics.h",
   "underlying_type" : "type-2",
   "unique_id" : "android_flex_component"
  },
  {
   "alignment" : 4,
   "enum_fields" :
   [
    {
     "enum_field_value" : 0,
     "name" : "FLEX_FORMAT_INVALID"
    },
    {
     "enum_field_value" : 1,
     "name" : "FLEX_FORMAT_Y"
    },
    {
     "enum_field_value" : 7,
     "name" : "FLEX_FORMAT_YCbCr"
    },
    {
     "enum_field_value" : 1073741831,
     "name" : "FLEX_FORMAT_YCbCrA"
    },
    {
     "enum_field_value" : 7168,
     "name" : "FLEX_FORMAT_RGB"
    },
    {
     "enum_field_value" : 1073748992,
     "name" : "FLEX_FORMAT_RGBA"
    }
   ],
   "linker_set_key" : "android_flex_format",
   "name" : "android_flex_format",
   "referenced_type" : "type-963",
   "self_type" : "type-963",
   "size" : 4,
   "source_file" : "/system/core/libsystem/include/system/graphics.h",
   "underlying_type" : "type-2",
   "unique_id" : "android_flex_format"
  },
  {
   "alignment" : 4,
   "enum_fields" :
   [
    {
     "enum_field_value" : 1,
     "name" : "HAL_HDR_DOLBY_VISION"
    },
    {
     "enum_field_value" : 2,
     "name" : "HAL_HDR_HDR10"
    },
    {
     "enum_field_value" : 3,
     "name" : "HAL_HDR_HLG"
    }
   ],
   "linker_set_key" : "android_hdr_t",
   "name" : "android_hdr_t",
   "referenced_type" : "type-950",
   "self_type" : "type-950",
   "size" : 4,
   "source_file" : "/system/core/libsystem/include/system/graphics-base-v1.0.h",
   "underlying_type" : "type-2",
   "unique_id" : "android_hdr_t"
  },
  {
   "alignment" : 4,
   "enum_fields" :
   [
    {
     "enum_field_value" : 4,
     "name" : "HAL_HDR_HDR10_PLUS"
    }
   ],
   "linker_set_key" : "android_hdr_v1_2_t",
   "name" : "android_hdr_v1_2_t",
   "referenced_type" : "type-955",
   "self_type" : "type-955",
   "size" : 4,
   "source_file" : "/system/core/libsystem/include/system/graphics-base-v1.2.h",
   "underlying_type" : "type-2",
   "unique_id" : "android_hdr_v1_2_t"
  },
  {
   "alignment" : 4,
   "enum_fields" :
   [
    {
     "enum_field_value" : 39,
     "name" : "HAL_PIXEL_FORMAT_YCBCR_422_888"
    },
    {
     "enum_field_value" : 40,
     "name" : "HAL_PIXEL_FORMAT_YCBCR_444_888"
    },
    {
     "enum_field_value" : 41,
     "name" : "HAL_PIXEL_FORMAT_FLEX_RGB_888"
    },
    {
     "enum_field_value" : 42,
     "name" : "HAL_PIXEL_FORMAT_FLEX_RGBA_8888"
    }
   ],
   "linker_set_key" : "android_pixel_format_sw_t",
   "name" : "android_pixel_format_sw_t",
   "referenced_type" : "type-958",
   "self_type" : "type-958",
   "size" : 4,
   "source_file" : "/system/core/libsystem/include/system/graphics-sw.h",
   "underlying_type" : "type-2",
   "unique_id" : "_ZTS25android_pixel_format_sw_t"
  },
  {
   "alignment" : 4,
   "enum_fields" :
   [
    {
     "enum_field_value" : 1,
     "name" : "HAL_PIXEL_FORMAT_RGBA_8888"
    },
    {
     "enum_field_value" : 2,
     "name" : "HAL_PIXEL_FORMAT_RGBX_8888"
    },
    {
     "enum_field_value" : 3,
     "name" : "HAL_PIXEL_FORMAT_RGB_888"
    },
    {
     "enum_field_value" : 4,
     "name" : "HAL_PIXEL_FORMAT_RGB_565"
    },
    {
     "enum_field_value" : 5,
     "name" : "HAL_PIXEL_FORMAT_BGRA_8888"
    },
    {
     "enum_field_value" : 16,
     "name" : "HAL_PIXEL_FORMAT_YCBCR_422_SP"
    },
    {
     "enum_field_value" : 17,
     "name" : "HAL_PIXEL_FORMAT_YCRCB_420_SP"
    },
    {
     "enum_field_value" : 20,
     "name" : "HAL_PIXEL_FORMAT_YCBCR_422_I"
    },
    {
     "enum_field_value" : 22,
     "name" : "HAL_PIXEL_FORMAT_RGBA_FP16"
    },
    {
     "enum_field_value" : 32,
     "name" : "HAL_PIXEL_FORMAT_RAW16"
    },
    {
     "enum_field_value" : 33,
     "name" : "HAL_PIXEL_FORMAT_BLOB"
    },
    {
     "enum_field_value" : 34,
     "name" : "HAL_PIXEL_FORMAT_IMPLEMENTATION_DEFINED"
    },
    {
     "enum_field_value" : 35,
     "name" : "HAL_PIXEL_FORMAT_YCBCR_420_888"
    },
    {
     "enum_field_value" : 36,
     "name" : "HAL_PIXEL_FORMAT_RAW_OPAQUE"
    },
    {
     "enum_field_value" : 37,
     "name" : "HAL_PIXEL_FORMAT_RAW10"
    },
    {
     "enum_field_value" : 38,
     "name" : "HAL_PIXEL_FORMAT_RAW12"
    },
    {
     "enum_field_value" : 43,
     "name" : "HAL_PIXEL_FORMAT_RGBA_1010102"
    },
    {
     "enum_field_value" : 538982489,
     "name" : "HAL_PIXEL_FORMAT_Y8"
    },
    {
     "enum_field_value" : 540422489,
     "name" : "HAL_PIXEL_FORMAT_Y16"
    },
    {
     "enum_field_value" : 842094169,
     "name" : "HAL_PIXEL_FORMAT_YV12"
    }
   ],
   "linker_set_key" : "android_pixel_format_t",
   "name" : "android_pixel_format_t",
   "referenced_type" : "type-945",
   "self_type" : "type-945",
   "size" : 4,
   "source_file" : "/system/core/libsystem/include/system/graphics-base-v1.0.h",
   "underlying_type" : "type-2",
   "unique_id" : "android_pixel_format_t"
  },
  {
   "alignment" : 4,
   "enum_fields" :
   [
    {
     "enum_field_value" : 48,
     "name" : "HAL_PIXEL_FORMAT_DEPTH_16"
    },
    {
     "enum_field_value" : 49,
     "name" : "HAL_PIXEL_FORMAT_DEPTH_24"
    },
    {
     "enum_field_value" : 50,
     "name" : "HAL_PIXEL_FORMAT_DEPTH_24_STENCIL_8"
    },
    {
     "enum_field_value" : 51,
     "name" : "HAL_PIXEL_FORMAT_DEPTH_32F"
    },
    {
     "enum_field_value" : 52,
     "name" : "HAL_PIXEL_FORMAT_DEPTH_32F_STENCIL_8"
    },
    {
     "enum_field_value" : 53,
     "name" : "HAL_PIXEL_FORMAT_STENCIL_8"
    },
    {
     "enum_field_value" : 54,
     "name" : "HAL_PIXEL_FORMAT_YCBCR_P010"
    }
   ],
   "linker_set_key" : "android_pixel_format_v1_1_t",
   "name" : "android_pixel_format_v1_1_t",
   "referenced_type" : "type-951",
   "self_type" : "type-951",
   "size" : 4,
   "source_file" : "/system/core/libsystem/include/system/graphics-base-v1.1.h",
   "underlying_type" : "type-2",
   "unique_id" : "android_pixel_format_v1_1_t"
  },
  {
   "alignment" : 4,
   "enum_fields" :
   [
    {
     "enum_field_value" : 55,
     "name" : "HAL_PIXEL_FORMAT_HSV_888"
    }
   ],
   "linker_set_key" : "android_pixel_format_v1_2_t",
   "name" : "android_pixel_format_v1_2_t",
   "referenced_type" : "type-957",
   "self_type" : "type-957",
   "size" : 4,
   "source_file" : "/system/core/libsystem/include/system/graphics-base-v1.2.h",
   "underlying_type" : "type-2",
   "unique_id" : "android_pixel_format_v1_2_t"
  },
  {
   "alignment" : 4,
   "enum_fields" :
   [
    {
     "enum_field_value" : 0,
     "name" : "HAL_RENDER_INTENT_COLORIMETRIC"
    },
    {
     "enum_field_value" : 1,
     "name" : "HAL_RENDER_INTENT_ENHANCE"
    },
    {
     "enum_field_value" : 2,
     "name" : "HAL_RENDER_INTENT_TONE_MAP_COLORIMETRIC"
    },
    {
     "enum_field_value" : 3,
     "name" : "HAL_RENDER_INTENT_TONE_MAP_ENHANCE"
    }
   ],
   "linker_set_key" : "android_render_intent_v1_1_t",
   "name" : "android_render_intent_v1_1_t",
   "referenced_type" : "type-954",
   "self_type" : "type-954",
   "size" : 4,
   "source_file" : "/system/core/libsystem/include/system/graphics-base-v1.1.h",
   "underlying_type" : "type-2",
   "unique_id" : "android_render_intent_v1_1_t"
  },
  {
   "alignment" : 4,
   "enum_fields" :
   [
    {
     "enum_field_value" : 1,
     "name" : "HAL_TRANSFORM_FLIP_H"
    },
    {
     "enum_field_value" : 2,
     "name" : "HAL_TRANSFORM_FLIP_V"
    },
    {
     "enum_field_value" : 4,
     "name" : "HAL_TRANSFORM_ROT_90"
    },
    {
     "enum_field_value" : 3,
     "name" : "HAL_TRANSFORM_ROT_180"
    },
    {
     "enum_field_value" : 7,
     "name" : "HAL_TRANSFORM_ROT_270"
    }
   ],
   "linker_set_key" : "android_transform_t",
   "name" : "android_transform_t",
   "referenced_type" : "type-946",
   "self_type" : "type-946",
   "size" : 4,
   "source_file" : "/system/core/libsystem/include/system/graphics-base-v1.0.h",
   "underlying_type" : "type-2",
   "unique_id" : "android_transform_t"
  },
  {
   "alignment" : 4,
   "enum_fields" :
   [
    {
     "enum_field_value" : 0,
     "name" : "LOG_ID_MIN"
    },
    {
     "enum_field_value" : 0,
     "name" : "LOG_ID_MAIN"
    },
    {
     "enum_field_value" : 1,
     "name" : "LOG_ID_RADIO"
    },
    {
     "enum_field_value" : 2,
     "name" : "LOG_ID_EVENTS"
    },
    {
     "enum_field_value" : 3,
     "name" : "LOG_ID_SYSTEM"
    },
    {
     "enum_field_value" : 4,
     "name" : "LOG_ID_CRASH"
    },
    {
     "enum_field_value" : 5,
     "name" : "LOG_ID_STATS"
    },
    {
     "enum_field_value" : 6,
     "name" : "LOG_ID_SECURITY"
    },
    {
     "enum_field_value" : 7,
     "name" : "LOG_ID_KERNEL"
    },
    {
     "enum_field_value" : 8,
     "name" : "LOG_ID_MAX"
    }
   ],
   "linker_set_key" : "log_id",
   "name" : "log_id",
   "referenced_type" : "type-659",
   "self_type" : "type-659",
   "size" : 4,
   "source_file" : "/system/core/liblog/include/android/log.h",
   "underlying_type" : "type-2",
   "unique_id" : "log_id"
  }
 ],
 "function_types" :
 [
  {
   "alignment" : 4,
   "linker_set_key" : "bool (const android::String16 &, const android::sp<android::hardware::IBinder> &, void *)",
   "name" : "bool (const android::String16 &, const android::sp<android::hardware::IBinder> &, void *)",
   "parameters" :
   [
    {
     "referenced_type" : "type-214"
    },
    {
     "referenced_type" : "type-220"
    },
    {
     "referenced_type" : "type-21"
    }
   ],
   "referenced_type" : "type-213",
   "return_type" : "type-13",
   "self_type" : "type-213",
   "source_file" : "/system/libhwbinder/include/hwbinder/ProcessState.h"
  },
  {
   "alignment" : 4,
   "linker_set_key" : "int (void *)",
   "name" : "int (void *)",
   "parameters" :
   [
    {
     "referenced_type" : "type-21"
    }
   ],
   "referenced_type" : "type-973",
   "return_type" : "type-19",
   "self_type" : "type-973",
   "source_file" : "/system/core/libutils/include/utils/AndroidThreads.h"
  },
  {
   "alignment" : 4,
   "linker_set_key" : "void (android::hardware::Parcel *, const unsigned char *, unsigned long, const unsigned long long *, unsigned long, void *)",
   "name" : "void (android::hardware::Parcel *, const unsigned char *, unsigned long, const unsigned long long *, unsigned long, void *)",
   "parameters" :
   [
    {
     "referenced_type" : "type-891"
    },
    {
     "referenced_type" : "type-803"
    },
    {
     "referenced_type" : "type-12"
    },
    {
     "referenced_type" : "type-892"
    },
    {
     "referenced_type" : "type-12"
    },
    {
     "referenced_type" : "type-21"
    }
   ],
   "referenced_type" : "type-890",
   "return_type" : "type-22",
   "self_type" : "type-890",
   "source_file" : "/system/libhwbinder/include/hwbinder/Parcel.h"
  }
 ],
 "functions" :
 [
  {
   "function_name" : "android::hardware::fromBinder",
   "linker_set_key" : "_ZN7android8hardware10fromBinderINS0_9bluetooth5audio4V2_019IBluetoothAudioPortENS4_22BpHwBluetoothAudioPortENS4_22BnHwBluetoothAudioPortEEENS_2spIT_EERKNS8_INS0_7IBinderEEE",
   "parameters" :
   [
    {
     "referenced_type" : "type-220"
    }
   ],
   "return_type" : "type-65",
   "source_file" : "/system/libhidl/transport/include/hidl/HidlBinderSupport.h",
   "template_args" : [ "type-67", "type-91", "type-1191" ]
  },
  {
   "function_name" : "android::hardware::fromBinder",
   "linker_set_key" : "_ZN7android8hardware10fromBinderINS0_9bluetooth5audio4V2_023IBluetoothAudioProviderENS4_26BpHwBluetoothAudioProviderENS4_26BnHwBluetoothAudioProviderEEENS_2spIT_EERKNS8_INS0_7IBinderEEE",
   "parameters" :
   [
    {
     "referenced_type" : "type-220"
    }
   ],
   "return_type" : "type-31",
   "source_file" : "/system/libhidl/transport/include/hidl/HidlBinderSupport.h",
   "template_args" : [ "type-33", "type-259", "type-1192" ]
  },
  {
   "function_name" : "android::hardware::details::castInterface",
   "linker_set_key" : "_ZN7android8hardware7details13castInterfaceINS0_9bluetooth5audio4V2_019IBluetoothAudioPortENS_4hidl4base4V1_05IBaseENS5_22BpHwBluetoothAudioPortEEENS0_6ReturnINS_2spIT_EEEENSD_IT0_EEPKcb",
   "parameters" :
   [
    {
     "referenced_type" : "type-56"
    },
    {
     "referenced_type" : "type-9"
    },
    {
     "referenced_type" : "type-13"
    }
   ],
   "return_type" : "type-560",
   "source_file" : "/system/libhidl/transport/include/hidl/HidlTransportSupport.h",
   "template_args" : [ "type-67", "type-34", "type-91" ]
  },
  {
   "function_name" : "android::hardware::details::castInterface",
   "linker_set_key" : "_ZN7android8hardware7details13castInterfaceINS0_9bluetooth5audio4V2_023IBluetoothAudioProviderENS_4hidl4base4V1_05IBaseENS5_26BpHwBluetoothAudioProviderEEENS0_6ReturnINS_2spIT_EEEENSD_IT0_EEPKcb",
   "parameters" :
   [
    {
     "referenced_type" : "type-56"
    },
    {
     "referenced_type" : "type-9"
    },
    {
     "referenced_type" : "type-13"
    }
   ],
   "return_type" : "type-45",
   "source_file" : "/system/libhidl/transport/include/hidl/HidlTransportSupport.h",
   "template_args" : [ "type-33", "type-34", "type-259" ]
  },
  {
   "function_name" : "android::hardware::details::castInterface",
   "linker_set_key" : "_ZN7android8hardware7details13castInterfaceINS0_9bluetooth5audio4V2_031IBluetoothAudioProvidersFactoryENS_4hidl4base4V1_05IBaseENS5_34BpHwBluetoothAudioProvidersFactoryEEENS0_6ReturnINS_2spIT_EEEENSD_IT0_EEPKcb",
   "parameters" :
   [
    {
     "referenced_type" : "type-56"
    },
    {
     "referenced_type" : "type-9"
    },
    {
     "referenced_type" : "type-13"
    }
   ],
   "return_type" : "type-311",
   "source_file" : "/system/libhidl/transport/include/hidl/HidlTransportSupport.h",
   "template_args" : [ "type-295", "type-34", "type-302" ]
  },
  {
   "function_name" : "android::hardware::details::wrapPassthrough",
   "linker_set_key" : "_ZN7android8hardware7details15wrapPassthroughINS0_9bluetooth5audio4V2_019IBluetoothAudioPortEvEENS_2spIT_EES9_",
   "parameters" :
   [
    {
     "referenced_type" : "type-65"
    }
   ],
   "return_type" : "type-65",
   "source_file" : "/system/libhidl/transport/include/hidl/HidlPassthroughSupport.h",
   "template_args" : [ "type-67", "type-22" ]
  },
  {
   "function_name" : "android::hardware::details::wrapPassthrough",
   "linker_set_key" : "_ZN7android8hardware7details15wrapPassthroughINS0_9bluetooth5audio4V2_023IBluetoothAudioProviderEvEENS_2spIT_EES9_",
   "parameters" :
   [
    {
     "referenced_type" : "type-31"
    }
   ],
   "return_type" : "type-31",
   "source_file" : "/system/libhidl/transport/include/hidl/HidlPassthroughSupport.h",
   "template_args" : [ "type-33", "type-22" ]
  },
  {
   "function_name" : "android::hardware::details::getServiceInternal",
   "linker_set_key" : "_ZN7android8hardware7details18getServiceInternalINS0_9bluetooth5audio4V2_022BpHwBluetoothAudioPortENS5_19IBluetoothAudioPortEvvEENS_2spIT0_EERKNSt3__112basic_stringIcNSB_11char_traitsIcEENSB_9allocatorIcEEEEbb",
   "parameters" :
   [
    {
     "referenced_type" : "type-903"
    },
    {
     "referenced_type" : "type-13"
    },
    {
     "referenced_type" : "type-13"
    }
   ],
   "return_type" : "type-65",
   "source_file" : "/system/libhidl/transport/include/hidl/HidlTransportSupport.h",
   "template_args" : [ "type-91", "type-67", "type-22", "type-22" ]
  },
  {
   "function_name" : "android::hardware::details::getServiceInternal",
   "linker_set_key" : "_ZN7android8hardware7details18getServiceInternalINS0_9bluetooth5audio4V2_026BpHwBluetoothAudioProviderENS5_23IBluetoothAudioProviderEvvEENS_2spIT0_EERKNSt3__112basic_stringIcNSB_11char_traitsIcEENSB_9allocatorIcEEEEbb",
   "parameters" :
   [
    {
     "referenced_type" : "type-129"
    },
    {
     "referenced_type" : "type-13"
    },
    {
     "referenced_type" : "type-13"
    }
   ],
   "return_type" : "type-31",
   "source_file" : "/system/libhidl/transport/include/hidl/HidlTransportSupport.h",
   "template_args" : [ "type-259", "type-33", "type-22", "type-22" ]
  },
  {
   "function_name" : "android::hardware::details::getServiceInternal",
   "linker_set_key" : "_ZN7android8hardware7details18getServiceInternalINS0_9bluetooth5audio4V2_034BpHwBluetoothAudioProvidersFactoryENS5_31IBluetoothAudioProvidersFactoryEvvEENS_2spIT0_EERKNSt3__112basic_stringIcNSB_11char_traitsIcEENSB_9allocatorIcEEEEbb",
   "parameters" :
   [
    {
     "referenced_type" : "type-359"
    },
    {
     "referenced_type" : "type-13"
    },
    {
     "referenced_type" : "type-13"
    }
   ],
   "return_type" : "type-293",
   "source_file" : "/system/libhidl/transport/include/hidl/HidlTransportSupport.h",
   "template_args" : [ "type-302", "type-295", "type-22", "type-22" ]
  },
  {
   "function_name" : "android::hardware::bluetooth::audio::V2_0::AudioCapabilities::hidl_union::hidl_union",
   "linker_set_key" : "_ZN7android8hardware9bluetooth5audio4V2_017AudioCapabilities10hidl_unionC1Ev",
   "parameters" :
   [
    {
     "is_this_ptr" : true,
     "referenced_type" : "type-537"
    }
   ],
   "return_type" : "type-22",
   "source_file" : "/out/soong/.intermediates/hardware/interfaces/bluetooth/audio/2.0/android.hardware.bluetooth.audio@2.0_genc++_headers/gen/android/hardware/bluetooth/audio/2.0/types.h"
  },
  {
   "function_name" : "android::hardware::bluetooth::audio::V2_0::AudioCapabilities::hidl_union::hidl_union",
   "linker_set_key" : "_ZN7android8hardware9bluetooth5audio4V2_017AudioCapabilities10hidl_unionC2Ev",
   "parameters" :
   [
    {
     "is_this_ptr" : true,
     "referenced_type" : "type-537"
    }
   ],
   "return_type" : "type-22",
   "source_file" : "/out/soong/.intermediates/hardware/interfaces/bluetooth/audio/2.0/android.hardware.bluetooth.audio@2.0_genc++_headers/gen/android/hardware/bluetooth/audio/2.0/types.h"
  },
  {
   "function_name" : "android::hardware::bluetooth::audio::V2_0::AudioCapabilities::hidl_union::~hidl_union",
   "linker_set_key" : "_ZN7android8hardware9bluetooth5audio4V2_017AudioCapabilities10hidl_unionD1Ev",
   "parameters" :
   [
    {
     "is_this_ptr" : true,
     "referenced_type" : "type-537"
    }
   ],
   "return_type" : "type-22",
   "source_file" : "/out/soong/.intermediates/hardware/interfaces/bluetooth/audio/2.0/android.hardware.bluetooth.audio@2.0_genc++_headers/gen/android/hardware/bluetooth/audio/2.0/types.h"
  },
  {
   "function_name" : "android::hardware::bluetooth::audio::V2_0::AudioCapabilities::hidl_union::~hidl_union",
   "linker_set_key" : "_ZN7android8hardware9bluetooth5audio4V2_017AudioCapabilities10hidl_unionD2Ev",
   "parameters" :
   [
    {
     "is_this_ptr" : true,
     "referenced_type" : "type-537"
    }
   ],
   "return_type" : "type-22",
   "source_file" : "/out/soong/.intermediates/hardware/interfaces/bluetooth/audio/2.0/android.hardware.bluetooth.audio@2.0_genc++_headers/gen/android/hardware/bluetooth/audio/2.0/types.h"
  },
  {
   "function_name" : "android::hardware::bluetooth::audio::V2_0::AudioCapabilities::pcmCapabilities",
   "linker_set_key" : "_ZN7android8hardware9bluetooth5audio4V2_017AudioCapabilities15pcmCapabilitiesEONS3_13PcmParametersE",
   "parameters" :
   [
    {
     "is_this_ptr" : true,
     "referenced_type" : "type-330"
    },
    {
     "referenced_type" : "type-524"
    }
   ],
   "return_type" : "type-22",
   "source_file" : "/out/soong/.intermediates/hardware/interfaces/bluetooth/audio/2.0/android.hardware.bluetooth.audio@2.0_genc++_headers/gen/android/hardware/bluetooth/audio/2.0/types.h"
  },
  {
   "function_name" : "android::hardware::bluetooth::audio::V2_0::AudioCapabilities::pcmCapabilities",
   "linker_set_key" : "_ZN7android8hardware9bluetooth5audio4V2_017AudioCapabilities15pcmCapabilitiesERKNS3_13PcmParametersE",
   "parameters" :
   [
    {
     "is_this_ptr" : true,
     "referenced_type" : "type-330"
    },
    {
     "referenced_type" : "type-523"
    }
   ],
   "return_type" : "type-22",
   "source_file" : "/out/soong/.intermediates/hardware/interfaces/bluetooth/audio/2.0/android.hardware.bluetooth.audio@2.0_genc++_headers/gen/android/hardware/bluetooth/audio/2.0/types.h"
  },
  {
   "function_name" : "android::hardware::bluetooth::audio::V2_0::AudioCapabilities::pcmCapabilities",
   "linker_set_key" : "_ZN7android8hardware9bluetooth5audio4V2_017AudioCapabilities15pcmCapabilitiesEv",
   "parameters" :
   [
    {
     "is_this_ptr" : true,
     "referenced_type" : "type-330"
    }
   ],
   "return_type" : "type-525",
   "source_file" : "/out/soong/.intermediates/hardware/interfaces/bluetooth/audio/2.0/android.hardware.bluetooth.audio@2.0_genc++_headers/gen/android/hardware/bluetooth/audio/2.0/types.h"
  },
  {
   "function_name" : "android::hardware::bluetooth::audio::V2_0::AudioCapabilities::codecCapabilities",
   "linker_set_key" : "_ZN7android8hardware9bluetooth5audio4V2_017AudioCapabilities17codecCapabilitiesEONS3_17CodecCapabilitiesE",
   "parameters" :
   [
    {
     "is_this_ptr" : true,
     "referenced_type" : "type-330"
    },
    {
     "referenced_type" : "type-528"
    }
   ],
   "return_type" : "type-22",
   "source_file" : "/out/soong/.intermediates/hardware/interfaces/bluetooth/audio/2.0/android.hardware.bluetooth.audio@2.0_genc++_headers/gen/android/hardware/bluetooth/audio/2.0/types.h"
  },
  {
   "function_name" : "android::hardware::bluetooth::audio::V2_0::AudioCapabilities::codecCapabilities",
   "linker_set_key" : "_ZN7android8hardware9bluetooth5audio4V2_017AudioCapabilities17codecCapabilitiesERKNS3_17CodecCapabilitiesE",
   "parameters" :
   [
    {
     "is_this_ptr" : true,
     "referenced_type" : "type-330"
    },
    {
     "referenced_type" : "type-527"
    }
   ],
   "return_type" : "type-22",
   "source_file" : "/out/soong/.intermediates/hardware/interfaces/bluetooth/audio/2.0/android.hardware.bluetooth.audio@2.0_genc++_headers/gen/android/hardware/bluetooth/audio/2.0/types.h"
  },
  {
   "function_name" : "android::hardware::bluetooth::audio::V2_0::AudioCapabilities::codecCapabilities",
   "linker_set_key" : "_ZN7android8hardware9bluetooth5audio4V2_017AudioCapabilities17codecCapabilitiesEv",
   "parameters" :
   [
    {
     "is_this_ptr" : true,
     "referenced_type" : "type-330"
    }
   ],
   "return_type" : "type-530",
   "source_file" : "/out/soong/.intermediates/hardware/interfaces/bluetooth/audio/2.0/android.hardware.bluetooth.audio@2.0_genc++_headers/gen/android/hardware/bluetooth/audio/2.0/types.h"
  },
  {
   "access" : "private",
   "function_name" : "android::hardware::bluetooth::audio::V2_0::AudioCapabilities::hidl_destructUnion",
   "linker_set_key" : "_ZN7android8hardware9bluetooth5audio4V2_017AudioCapabilities18hidl_destructUnionEv",
   "parameters" :
   [
    {
     "is_this_ptr" : true,
     "referenced_type" : "type-330"
    }
   ],
   "return_type" : "type-22",
   "source_file" : "/out/soong/.intermediates/hardware/interfaces/bluetooth/audio/2.0/android.hardware.bluetooth.audio@2.0_genc++_headers/gen/android/hardware/bluetooth/audio/2.0/types.h"
  },
  {
   "function_name" : "android::hardware::bluetooth::audio::V2_0::AudioCapabilities::AudioCapabilities",
   "linker_set_key" : "_ZN7android8hardware9bluetooth5audio4V2_017AudioCapabilitiesC1EOS4_",
   "parameters" :
   [
    {
     "is_this_ptr" : true,
     "referenced_type" : "type-330"
    },
    {
     "referenced_type" : "type-517"
    }
   ],
   "return_type" : "type-22",
   "source_file" : "/out/soong/.intermediates/hardware/interfaces/bluetooth/audio/2.0/android.hardware.bluetooth.audio@2.0_genc++_headers/gen/android/hardware/bluetooth/audio/2.0/types.h"
  },
  {
   "function_name" : "android::hardware::bluetooth::audio::V2_0::AudioCapabilities::AudioCapabilities",
   "linker_set_key" : "_ZN7android8hardware9bluetooth5audio4V2_017AudioCapabilitiesC1ERKS4_",
   "parameters" :
   [
    {
     "is_this_ptr" : true,
     "referenced_type" : "type-330"
    },
    {
     "referenced_type" : "type-518"
    }
   ],
   "return_type" : "type-22",
   "source_file" : "/out/soong/.intermediates/hardware/interfaces/bluetooth/audio/2.0/android.hardware.bluetooth.audio@2.0_genc++_headers/gen/android/hardware/bluetooth/audio/2.0/types.h"
  },
  {
   "function_name" : "android::hardware::bluetooth::audio::V2_0::AudioCapabilities::AudioCapabilities",
   "linker_set_key" : "_ZN7android8hardware9bluetooth5audio4V2_017AudioCapabilitiesC1Ev",
   "parameters" :
   [
    {
     "is_this_ptr" : true,
     "referenced_type" : "type-330"
    }
   ],
   "return_type" : "type-22",
   "source_file" : "/out/soong/.intermediates/hardware/interfaces/bluetooth/audio/2.0/android.hardware.bluetooth.audio@2.0_genc++_headers/gen/android/hardware/bluetooth/audio/2.0/types.h"
  },
  {
   "function_name" : "android::hardware::bluetooth::audio::V2_0::AudioCapabilities::AudioCapabilities",
   "linker_set_key" : "_ZN7android8hardware9bluetooth5audio4V2_017AudioCapabilitiesC2EOS4_",
   "parameters" :
   [
    {
     "is_this_ptr" : true,
     "referenced_type" : "type-330"
    },
    {
     "referenced_type" : "type-517"
    }
   ],
   "return_type" : "type-22",
   "source_file" : "/out/soong/.intermediates/hardware/interfaces/bluetooth/audio/2.0/android.hardware.bluetooth.audio@2.0_genc++_headers/gen/android/hardware/bluetooth/audio/2.0/types.h"
  },
  {
   "function_name" : "android::hardware::bluetooth::audio::V2_0::AudioCapabilities::AudioCapabilities",
   "linker_set_key" : "_ZN7android8hardware9bluetooth5audio4V2_017AudioCapabilitiesC2ERKS4_",
   "parameters" :
   [
    {
     "is_this_ptr" : true,
     "referenced_type" : "type-330"
    },
    {
     "referenced_type" : "type-518"
    }
   ],
   "return_type" : "type-22",
   "source_file" : "/out/soong/.intermediates/hardware/interfaces/bluetooth/audio/2.0/android.hardware.bluetooth.audio@2.0_genc++_headers/gen/android/hardware/bluetooth/audio/2.0/types.h"
  },
  {
   "function_name" : "android::hardware::bluetooth::audio::V2_0::AudioCapabilities::AudioCapabilities",
   "linker_set_key" : "_ZN7android8hardware9bluetooth5audio4V2_017AudioCapabilitiesC2Ev",
   "parameters" :
   [
    {
     "is_this_ptr" : true,
     "referenced_type" : "type-330"
    }
   ],
   "return_type" : "type-22",
   "source_file" : "/out/soong/.intermediates/hardware/interfaces/bluetooth/audio/2.0/android.hardware.bluetooth.audio@2.0_genc++_headers/gen/android/hardware/bluetooth/audio/2.0/types.h"
  },
  {
   "function_name" : "android::hardware::bluetooth::audio::V2_0::AudioCapabilities::~AudioCapabilities",
   "linker_set_key" : "_ZN7android8hardware9bluetooth5audio4V2_017AudioCapabilitiesD1Ev",
   "parameters" :
   [
    {
     "is_this_ptr" : true,
     "referenced_type" : "type-330"
    }
   ],
   "return_type" : "type-22",
   "source_file" : "/out/soong/.intermediates/hardware/interfaces/bluetooth/audio/2.0/android.hardware.bluetooth.audio@2.0_genc++_headers/gen/android/hardware/bluetooth/audio/2.0/types.h"
  },
  {
   "function_name" : "android::hardware::bluetooth::audio::V2_0::AudioCapabilities::~AudioCapabilities",
   "linker_set_key" : "_ZN7android8hardware9bluetooth5audio4V2_017AudioCapabilitiesD2Ev",
   "parameters" :
   [
    {
     "is_this_ptr" : true,
     "referenced_type" : "type-330"
    }
   ],
   "return_type" : "type-22",
   "source_file" : "/out/soong/.intermediates/hardware/interfaces/bluetooth/audio/2.0/android.hardware.bluetooth.audio@2.0_genc++_headers/gen/android/hardware/bluetooth/audio/2.0/types.h"
  },
  {
   "function_name" : "android::hardware::bluetooth::audio::V2_0::AudioCapabilities::operator=",
   "linker_set_key" : "_ZN7android8hardware9bluetooth5audio4V2_017AudioCapabilitiesaSEOS4_",
   "parameters" :
   [
    {
     "is_this_ptr" : true,
     "referenced_type" : "type-330"
    },
    {
     "referenced_type" : "type-517"
    }
   ],
   "return_type" : "type-520",
   "source_file" : "/out/soong/.intermediates/hardware/interfaces/bluetooth/audio/2.0/android.hardware.bluetooth.audio@2.0_genc++_headers/gen/android/hardware/bluetooth/audio/2.0/types.h"
  },
  {
   "function_name" : "android::hardware::bluetooth::audio::V2_0::AudioCapabilities::operator=",
   "linker_set_key" : "_ZN7android8hardware9bluetooth5audio4V2_017AudioCapabilitiesaSERKS4_",
   "parameters" :
   [
    {
     "is_this_ptr" : true,
     "referenced_type" : "type-330"
    },
    {
     "referenced_type" : "type-518"
    }
   ],
   "return_type" : "type-520",
   "source_file" : "/out/soong/.intermediates/hardware/interfaces/bluetooth/audio/2.0/android.hardware.bluetooth.audio@2.0_genc++_headers/gen/android/hardware/bluetooth/audio/2.0/types.h"
  },
  {
   "function_name" : "android::hardware::bluetooth::audio::V2_0::CodecCapabilities::Capabilities::hidl_union::hidl_union",
   "linker_set_key" : "_ZN7android8hardware9bluetooth5audio4V2_017CodecCapabilities12Capabilities10hidl_unionC1Ev",
   "parameters" :
   [
    {
     "is_this_ptr" : true,
     "referenced_type" : "type-516"
    }
   ],
   "return_type" : "type-22",
   "source_file" : "/out/soong/.intermediates/hardware/interfaces/bluetooth/audio/2.0/android.hardware.bluetooth.audio@2.0_genc++_headers/gen/android/hardware/bluetooth/audio/2.0/types.h"
  },
  {
   "function_name" : "android::hardware::bluetooth::audio::V2_0::CodecCapabilities::Capabilities::hidl_union::hidl_union",
   "linker_set_key" : "_ZN7android8hardware9bluetooth5audio4V2_017CodecCapabilities12Capabilities10hidl_unionC2Ev",
   "parameters" :
   [
    {
     "is_this_ptr" : true,
     "referenced_type" : "type-516"
    }
   ],
   "return_type" : "type-22",
   "source_file" : "/out/soong/.intermediates/hardware/interfaces/bluetooth/audio/2.0/android.hardware.bluetooth.audio@2.0_genc++_headers/gen/android/hardware/bluetooth/audio/2.0/types.h"
  },
  {
   "function_name" : "android::hardware::bluetooth::audio::V2_0::CodecCapabilities::Capabilities::hidl_union::~hidl_union",
   "linker_set_key" : "_ZN7android8hardware9bluetooth5audio4V2_017CodecCapabilities12Capabilities10hidl_unionD1Ev",
   "parameters" :
   [
    {
     "is_this_ptr" : true,
     "referenced_type" : "type-516"
    }
   ],
   "return_type" : "type-22",
   "source_file" : "/out/soong/.intermediates/hardware/interfaces/bluetooth/audio/2.0/android.hardware.bluetooth.audio@2.0_genc++_headers/gen/android/hardware/bluetooth/audio/2.0/types.h"
  },
  {
   "function_name" : "android::hardware::bluetooth::audio::V2_0::CodecCapabilities::Capabilities::hidl_union::~hidl_union",
   "linker_set_key" : "_ZN7android8hardware9bluetooth5audio4V2_017CodecCapabilities12Capabilities10hidl_unionD2Ev",
   "parameters" :
   [
    {
     "is_this_ptr" : true,
     "referenced_type" : "type-516"
    }
   ],
   "return_type" : "type-22",
   "source_file" : "/out/soong/.intermediates/hardware/interfaces/bluetooth/audio/2.0/android.hardware.bluetooth.audio@2.0_genc++_headers/gen/android/hardware/bluetooth/audio/2.0/types.h"
  },
  {
   "function_name" : "android::hardware::bluetooth::audio::V2_0::CodecCapabilities::Capabilities::aacCapabilities",
   "linker_set_key" : "_ZN7android8hardware9bluetooth5audio4V2_017CodecCapabilities12Capabilities15aacCapabilitiesEONS3_13AacParametersE",
   "parameters" :
   [
    {
     "is_this_ptr" : true,
     "referenced_type" : "type-493"
    },
    {
     "referenced_type" : "type-505"
    }
   ],
   "return_type" : "type-22",
   "source_file" : "/out/soong/.intermediates/hardware/interfaces/bluetooth/audio/2.0/android.hardware.bluetooth.audio@2.0_genc++_headers/gen/android/hardware/bluetooth/audio/2.0/types.h"
  },
  {
   "function_name" : "android::hardware::bluetooth::audio::V2_0::CodecCapabilities::Capabilities::aacCapabilities",
   "linker_set_key" : "_ZN7android8hardware9bluetooth5audio4V2_017CodecCapabilities12Capabilities15aacCapabilitiesERKNS3_13AacParametersE",
   "parameters" :
   [
    {
     "is_this_ptr" : true,
     "referenced_type" : "type-493"
    },
    {
     "referenced_type" : "type-504"
    }
   ],
   "return_type" : "type-22",
   "source_file" : "/out/soong/.intermediates/hardware/interfaces/bluetooth/audio/2.0/android.hardware.bluetooth.audio@2.0_genc++_headers/gen/android/hardware/bluetooth/audio/2.0/types.h"
  },
  {
   "function_name" : "android::hardware::bluetooth::audio::V2_0::CodecCapabilities::Capabilities::aacCapabilities",
   "linker_set_key" : "_ZN7android8hardware9bluetooth5audio4V2_017CodecCapabilities12Capabilities15aacCapabilitiesEv",
   "parameters" :
   [
    {
     "is_this_ptr" : true,
     "referenced_type" : "type-493"
    }
   ],
   "return_type" : "type-506",
   "source_file" : "/out/soong/.intermediates/hardware/interfaces/bluetooth/audio/2.0/android.hardware.bluetooth.audio@2.0_genc++_headers/gen/android/hardware/bluetooth/audio/2.0/types.h"
  },
  {
   "function_name" : "android::hardware::bluetooth::audio::V2_0::CodecCapabilities::Capabilities::sbcCapabilities",
   "linker_set_key" : "_ZN7android8hardware9bluetooth5audio4V2_017CodecCapabilities12Capabilities15sbcCapabilitiesEONS3_13SbcParametersE",
   "parameters" :
   [
    {
     "is_this_ptr" : true,
     "referenced_type" : "type-493"
    },
    {
     "referenced_type" : "type-500"
    }
   ],
   "return_type" : "type-22",
   "source_file" : "/out/soong/.intermediates/hardware/interfaces/bluetooth/audio/2.0/android.hardware.bluetooth.audio@2.0_genc++_headers/gen/android/hardware/bluetooth/audio/2.0/types.h"
  },
  {
   "function_name" : "android::hardware::bluetooth::audio::V2_0::CodecCapabilities::Capabilities::sbcCapabilities",
   "linker_set_key" : "_ZN7android8hardware9bluetooth5audio4V2_017CodecCapabilities12Capabilities15sbcCapabilitiesERKNS3_13SbcParametersE",
   "parameters" :
   [
    {
     "is_this_ptr" : true,
     "referenced_type" : "type-493"
    },
    {
     "referenced_type" : "type-499"
    }
   ],
   "return_type" : "type-22",
   "source_file" : "/out/soong/.intermediates/hardware/interfaces/bluetooth/audio/2.0/android.hardware.bluetooth.audio@2.0_genc++_headers/gen/android/hardware/bluetooth/audio/2.0/types.h"
  },
  {
   "function_name" : "android::hardware::bluetooth::audio::V2_0::CodecCapabilities::Capabilities::sbcCapabilities",
   "linker_set_key" : "_ZN7android8hardware9bluetooth5audio4V2_017CodecCapabilities12Capabilities15sbcCapabilitiesEv",
   "parameters" :
   [
    {
     "is_this_ptr" : true,
     "referenced_type" : "type-493"
    }
   ],
   "return_type" : "type-501",
   "source_file" : "/out/soong/.intermediates/hardware/interfaces/bluetooth/audio/2.0/android.hardware.bluetooth.audio@2.0_genc++_headers/gen/android/hardware/bluetooth/audio/2.0/types.h"
  },
  {
   "function_name" : "android::hardware::bluetooth::audio::V2_0::CodecCapabilities::Capabilities::aptxCapabilities",
   "linker_set_key" : "_ZN7android8hardware9bluetooth5audio4V2_017CodecCapabilities12Capabilities16aptxCapabilitiesEONS3_14AptxParametersE",
   "parameters" :
   [
    {
     "is_this_ptr" : true,
     "referenced_type" : "type-493"
    },
    {
     "referenced_type" : "type-514"
    }
   ],
   "return_type" : "type-22",
   "source_file" : "/out/soong/.intermediates/hardware/interfaces/bluetooth/audio/2.0/android.hardware.bluetooth.audio@2.0_genc++_headers/gen/android/hardware/bluetooth/audio/2.0/types.h"
  },
  {
   "function_name" : "android::hardware::bluetooth::audio::V2_0::CodecCapabilities::Capabilities::aptxCapabilities",
   "linker_set_key" : "_ZN7android8hardware9bluetooth5audio4V2_017CodecCapabilities12Capabilities16aptxCapabilitiesERKNS3_14AptxParametersE",
   "parameters" :
   [
    {
     "is_this_ptr" : true,
     "referenced_type" : "type-493"
    },
    {
     "referenced_type" : "type-513"
    }
   ],
   "return_type" : "type-22",
   "source_file" : "/out/soong/.intermediates/hardware/interfaces/bluetooth/audio/2.0/android.hardware.bluetooth.audio@2.0_genc++_headers/gen/android/hardware/bluetooth/audio/2.0/types.h"
  },
  {
   "function_name" : "android::hardware::bluetooth::audio::V2_0::CodecCapabilities::Capabilities::aptxCapabilities",
   "linker_set_key" : "_ZN7android8hardware9bluetooth5audio4V2_017CodecCapabilities12Capabilities16aptxCapabilitiesEv",
   "parameters" :
   [
    {
     "is_this_ptr" : true,
     "referenced_type" : "type-493"
    }
   ],
   "return_type" : "type-515",
   "source_file" : "/out/soong/.intermediates/hardware/interfaces/bluetooth/audio/2.0/android.hardware.bluetooth.audio@2.0_genc++_headers/gen/android/hardware/bluetooth/audio/2.0/types.h"
  },
  {
   "function_name" : "android::hardware::bluetooth::audio::V2_0::CodecCapabilities::Capabilities::ldacCapabilities",
   "linker_set_key" : "_ZN7android8hardware9bluetooth5audio4V2_017CodecCapabilities12Capabilities16ldacCapabilitiesEONS3_14LdacParametersE",
   "parameters" :
   [
    {
     "is_this_ptr" : true,
     "referenced_type" : "type-493"
    },
    {
     "referenced_type" : "type-509"
    }
   ],
   "return_type" : "type-22",
   "source_file" : "/out/soong/.intermediates/hardware/interfaces/bluetooth/audio/2.0/android.hardware.bluetooth.audio@2.0_genc++_headers/gen/android/hardware/bluetooth/audio/2.0/types.h"
  },
  {
   "function_name" : "android::hardware::bluetooth::audio::V2_0::CodecCapabilities::Capabilities::ldacCapabilities",
   "linker_set_key" : "_ZN7android8hardware9bluetooth5audio4V2_017CodecCapabilities12Capabilities16ldacCapabilitiesERKNS3_14LdacParametersE",
   "parameters" :
   [
    {
     "is_this_ptr" : true,
     "referenced_type" : "type-493"
    },
    {
     "referenced_type" : "type-508"
    }
   ],
   "return_type" : "type-22",
   "source_file" : "/out/soong/.intermediates/hardware/interfaces/bluetooth/audio/2.0/android.hardware.bluetooth.audio@2.0_genc++_headers/gen/android/hardware/bluetooth/audio/2.0/types.h"
  },
  {
   "function_name" : "android::hardware::bluetooth::audio::V2_0::CodecCapabilities::Capabilities::ldacCapabilities",
   "linker_set_key" : "_ZN7android8hardware9bluetooth5audio4V2_017CodecCapabilities12Capabilities16ldacCapabilitiesEv",
   "parameters" :
   [
    {
     "is_this_ptr" : true,
     "referenced_type" : "type-493"
    }
   ],
   "return_type" : "type-510",
   "source_file" : "/out/soong/.intermediates/hardware/interfaces/bluetooth/audio/2.0/android.hardware.bluetooth.audio@2.0_genc++_headers/gen/android/hardware/bluetooth/audio/2.0/types.h"
  },
  {
   "access" : "private",
   "function_name" : "android::hardware::bluetooth::audio::V2_0::CodecCapabilities::Capabilities::hidl_destructUnion",
   "linker_set_key" : "_ZN7android8hardware9bluetooth5audio4V2_017CodecCapabilities12Capabilities18hidl_destructUnionEv",
   "parameters" :
   [
    {
     "is_this_ptr" : true,
     "referenced_type" : "type-493"
    }
   ],
   "return_type" : "type-22",
   "source_file" : "/out/soong/.intermediates/hardware/interfaces/bluetooth/audio/2.0/android.hardware.bluetooth.audio@2.0_genc++_headers/gen/android/hardware/bluetooth/audio/2.0/types.h"
  },
  {
   "function_name" : "android::hardware::bluetooth::audio::V2_0::CodecCapabilities::Capabilities::Capabilities",
   "linker_set_key" : "_ZN7android8hardware9bluetooth5audio4V2_017CodecCapabilities12CapabilitiesC1EOS5_",
   "parameters" :
   [
    {
     "is_this_ptr" : true,
     "referenced_type" : "type-493"
    },
    {
     "referenced_type" : "type-494"
    }
   ],
   "return_type" : "type-22",
   "source_file" : "/out/soong/.intermediates/hardware/interfaces/bluetooth/audio/2.0/android.hardware.bluetooth.audio@2.0_genc++_headers/gen/android/hardware/bluetooth/audio/2.0/types.h"
  },
  {
   "function_name" : "android::hardware::bluetooth::audio::V2_0::CodecCapabilities::Capabilities::Capabilities",
   "linker_set_key" : "_ZN7android8hardware9bluetooth5audio4V2_017CodecCapabilities12CapabilitiesC1ERKS5_",
   "parameters" :
   [
    {
     "is_this_ptr" : true,
     "referenced_type" : "type-493"
    },
    {
     "referenced_type" : "type-495"
    }
   ],
   "return_type" : "type-22",
   "source_file" : "/out/soong/.intermediates/hardware/interfaces/bluetooth/audio/2.0/android.hardware.bluetooth.audio@2.0_genc++_headers/gen/android/hardware/bluetooth/audio/2.0/types.h"
  },
  {
   "function_name" : "android::hardware::bluetooth::audio::V2_0::CodecCapabilities::Capabilities::Capabilities",
   "linker_set_key" : "_ZN7android8hardware9bluetooth5audio4V2_017CodecCapabilities12CapabilitiesC1Ev",
   "parameters" :
   [
    {
     "is_this_ptr" : true,
     "referenced_type" : "type-493"
    }
   ],
   "return_type" : "type-22",
   "source_file" : "/out/soong/.intermediates/hardware/interfaces/bluetooth/audio/2.0/android.hardware.bluetooth.audio@2.0_genc++_headers/gen/android/hardware/bluetooth/audio/2.0/types.h"
  },
  {
   "function_name" : "android::hardware::bluetooth::audio::V2_0::CodecCapabilities::Capabilities::Capabilities",
   "linker_set_key" : "_ZN7android8hardware9bluetooth5audio4V2_017CodecCapabilities12CapabilitiesC2EOS5_",
   "parameters" :
   [
    {
     "is_this_ptr" : true,
     "referenced_type" : "type-493"
    },
    {
     "referenced_type" : "type-494"
    }
   ],
   "return_type" : "type-22",
   "source_file" : "/out/soong/.intermediates/hardware/interfaces/bluetooth/audio/2.0/android.hardware.bluetooth.audio@2.0_genc++_headers/gen/android/hardware/bluetooth/audio/2.0/types.h"
  },
  {
   "function_name" : "android::hardware::bluetooth::audio::V2_0::CodecCapabilities::Capabilities::Capabilities",
   "linker_set_key" : "_ZN7android8hardware9bluetooth5audio4V2_017CodecCapabilities12CapabilitiesC2ERKS5_",
   "parameters" :
   [
    {
     "is_this_ptr" : true,
     "referenced_type" : "type-493"
    },
    {
     "referenced_type" : "type-495"
    }
   ],
   "return_type" : "type-22",
   "source_file" : "/out/soong/.intermediates/hardware/interfaces/bluetooth/audio/2.0/android.hardware.bluetooth.audio@2.0_genc++_headers/gen/android/hardware/bluetooth/audio/2.0/types.h"
  },
  {
   "function_name" : "android::hardware::bluetooth::audio::V2_0::CodecCapabilities::Capabilities::Capabilities",
   "linker_set_key" : "_ZN7android8hardware9bluetooth5audio4V2_017CodecCapabilities12CapabilitiesC2Ev",
   "parameters" :
   [
    {
     "is_this_ptr" : true,
     "referenced_type" : "type-493"
    }
   ],
   "return_type" : "type-22",
   "source_file" : "/out/soong/.intermediates/hardware/interfaces/bluetooth/audio/2.0/android.hardware.bluetooth.audio@2.0_genc++_headers/gen/android/hardware/bluetooth/audio/2.0/types.h"
  },
  {
   "function_name" : "android::hardware::bluetooth::audio::V2_0::CodecCapabilities::Capabilities::~Capabilities",
   "linker_set_key" : "_ZN7android8hardware9bluetooth5audio4V2_017CodecCapabilities12CapabilitiesD1Ev",
   "parameters" :
   [
    {
     "is_this_ptr" : true,
     "referenced_type" : "type-493"
    }
   ],
   "return_type" : "type-22",
   "source_file" : "/out/soong/.intermediates/hardware/interfaces/bluetooth/audio/2.0/android.hardware.bluetooth.audio@2.0_genc++_headers/gen/android/hardware/bluetooth/audio/2.0/types.h"
  },
  {
   "function_name" : "android::hardware::bluetooth::audio::V2_0::CodecCapabilities::Capabilities::~Capabilities",
   "linker_set_key" : "_ZN7android8hardware9bluetooth5audio4V2_017CodecCapabilities12CapabilitiesD2Ev",
   "parameters" :
   [
    {
     "is_this_ptr" : true,
     "referenced_type" : "type-493"
    }
   ],
   "return_type" : "type-22",
   "source_file" : "/out/soong/.intermediates/hardware/interfaces/bluetooth/audio/2.0/android.hardware.bluetooth.audio@2.0_genc++_headers/gen/android/hardware/bluetooth/audio/2.0/types.h"
  },
  {
   "function_name" : "android::hardware::bluetooth::audio::V2_0::CodecCapabilities::Capabilities::operator=",
   "linker_set_key" : "_ZN7android8hardware9bluetooth5audio4V2_017CodecCapabilities12CapabilitiesaSEOS5_",
   "parameters" :
   [
    {
     "is_this_ptr" : true,
     "referenced_type" : "type-493"
    },
    {
     "referenced_type" : "type-494"
    }
   ],
   "return_type" : "type-497",
   "source_file" : "/out/soong/.intermediates/hardware/interfaces/bluetooth/audio/2.0/android.hardware.bluetooth.audio@2.0_genc++_headers/gen/android/hardware/bluetooth/audio/2.0/types.h"
  },
  {
   "function_name" : "android::hardware::bluetooth::audio::V2_0::CodecCapabilities::Capabilities::operator=",
   "linker_set_key" : "_ZN7android8hardware9bluetooth5audio4V2_017CodecCapabilities12CapabilitiesaSERKS5_",
   "parameters" :
   [
    {
     "is_this_ptr" : true,
     "referenced_type" : "type-493"
    },
    {
     "referenced_type" : "type-495"
    }
   ],
   "return_type" : "type-497",
   "source_file" : "/out/soong/.intermediates/hardware/interfaces/bluetooth/audio/2.0/android.hardware.bluetooth.audio@2.0_genc++_headers/gen/android/hardware/bluetooth/audio/2.0/types.h"
  },
  {
   "function_name" : "android::hardware::bluetooth::audio::V2_0::AudioConfiguration::hidl_union::hidl_union",
   "linker_set_key" : "_ZN7android8hardware9bluetooth5audio4V2_018AudioConfiguration10hidl_unionC1Ev",
   "parameters" :
   [
    {
     "is_this_ptr" : true,
     "referenced_type" : "type-553"
    }
   ],
   "return_type" : "type-22",
   "source_file" : "/out/soong/.intermediates/hardware/interfaces/bluetooth/audio/2.0/android.hardware.bluetooth.audio@2.0_genc++_headers/gen/android/hardware/bluetooth/audio/2.0/types.h"
  },
  {
   "function_name" : "android::hardware::bluetooth::audio::V2_0::AudioConfiguration::hidl_union::hidl_union",
   "linker_set_key" : "_ZN7android8hardware9bluetooth5audio4V2_018AudioConfiguration10hidl_unionC2Ev",
   "parameters" :
   [
    {
     "is_this_ptr" : true,
     "referenced_type" : "type-553"
    }
   ],
   "return_type" : "type-22",
   "source_file" : "/out/soong/.intermediates/hardware/interfaces/bluetooth/audio/2.0/android.hardware.bluetooth.audio@2.0_genc++_headers/gen/android/hardware/bluetooth/audio/2.0/types.h"
  },
  {
   "function_name" : "android::hardware::bluetooth::audio::V2_0::AudioConfiguration::hidl_union::~hidl_union",
   "linker_set_key" : "_ZN7android8hardware9bluetooth5audio4V2_018AudioConfiguration10hidl_unionD1Ev",
   "parameters" :
   [
    {
     "is_this_ptr" : true,
     "referenced_type" : "type-553"
    }
   ],
   "return_type" : "type-22",
   "source_file" : "/out/soong/.intermediates/hardware/interfaces/bluetooth/audio/2.0/android.hardware.bluetooth.audio@2.0_genc++_headers/gen/android/hardware/bluetooth/audio/2.0/types.h"
  },
  {
   "function_name" : "android::hardware::bluetooth::audio::V2_0::AudioConfiguration::hidl_union::~hidl_union",
   "linker_set_key" : "_ZN7android8hardware9bluetooth5audio4V2_018AudioConfiguration10hidl_unionD2Ev",
   "parameters" :
   [
    {
     "is_this_ptr" : true,
     "referenced_type" : "type-553"
    }
   ],
   "return_type" : "type-22",
   "source_file" : "/out/soong/.intermediates/hardware/interfaces/bluetooth/audio/2.0/android.hardware.bluetooth.audio@2.0_genc++_headers/gen/android/hardware/bluetooth/audio/2.0/types.h"
  },
  {
   "function_name" : "android::hardware::bluetooth::audio::V2_0::AudioConfiguration::codecConfig",
   "linker_set_key" : "_ZN7android8hardware9bluetooth5audio4V2_018AudioConfiguration11codecConfigEONS3_18CodecConfigurationE",
   "parameters" :
   [
    {
     "is_this_ptr" : true,
     "referenced_type" : "type-544"
    },
    {
     "referenced_type" : "type-551"
    }
   ],
   "return_type" : "type-22",
   "source_file" : "/out/soong/.intermediates/hardware/interfaces/bluetooth/audio/2.0/android.hardware.bluetooth.audio@2.0_genc++_headers/gen/android/hardware/bluetooth/audio/2.0/types.h"
  },
  {
   "function_name" : "android::hardware::bluetooth::audio::V2_0::AudioConfiguration::codecConfig",
   "linker_set_key" : "_ZN7android8hardware9bluetooth5audio4V2_018AudioConfiguration11codecConfigERKNS3_18CodecConfigurationE",
   "parameters" :
   [
    {
     "is_this_ptr" : true,
     "referenced_type" : "type-544"
    },
    {
     "referenced_type" : "type-550"
    }
   ],
   "return_type" : "type-22",
   "source_file" : "/out/soong/.intermediates/hardware/interfaces/bluetooth/audio/2.0/android.hardware.bluetooth.audio@2.0_genc++_headers/gen/android/hardware/bluetooth/audio/2.0/types.h"
  },
  {
   "function_name" : "android::hardware::bluetooth::audio::V2_0::AudioConfiguration::codecConfig",
   "linker_set_key" : "_ZN7android8hardware9bluetooth5audio4V2_018AudioConfiguration11codecConfigEv",
   "parameters" :
   [
    {
     "is_this_ptr" : true,
     "referenced_type" : "type-544"
    }
   ],
   "return_type" : "type-552",
   "source_file" : "/out/soong/.intermediates/hardware/interfaces/bluetooth/audio/2.0/android.hardware.bluetooth.audio@2.0_genc++_headers/gen/android/hardware/bluetooth/audio/2.0/types.h"
  },
  {
   "access" : "private",
   "function_name" : "android::hardware::bluetooth::audio::V2_0::AudioConfiguration::hidl_destructUnion",
   "linker_set_key" : "_ZN7android8hardware9bluetooth5audio4V2_018AudioConfiguration18hidl_destructUnionEv",
   "parameters" :
   [
    {
     "is_this_ptr" : true,
     "referenced_type" : "type-544"
    }
   ],
   "return_type" : "type-22",
   "source_file" : "/out/soong/.intermediates/hardware/interfaces/bluetooth/audio/2.0/android.hardware.bluetooth.audio@2.0_genc++_headers/gen/android/hardware/bluetooth/audio/2.0/types.h"
  },
  {
   "function_name" : "android::hardware::bluetooth::audio::V2_0::AudioConfiguration::pcmConfig",
   "linker_set_key" : "_ZN7android8hardware9bluetooth5audio4V2_018AudioConfiguration9pcmConfigEONS3_13PcmParametersE",
   "parameters" :
   [
    {
     "is_this_ptr" : true,
     "referenced_type" : "type-544"
    },
    {
     "referenced_type" : "type-524"
    }
   ],
   "return_type" : "type-22",
   "source_file" : "/out/soong/.intermediates/hardware/interfaces/bluetooth/audio/2.0/android.hardware.bluetooth.audio@2.0_genc++_headers/gen/android/hardware/bluetooth/audio/2.0/types.h"
  },
  {
   "function_name" : "android::hardware::bluetooth::audio::V2_0::AudioConfiguration::pcmConfig",
   "linker_set_key" : "_ZN7android8hardware9bluetooth5audio4V2_018AudioConfiguration9pcmConfigERKNS3_13PcmParametersE",
   "parameters" :
   [
    {
     "is_this_ptr" : true,
     "referenced_type" : "type-544"
    },
    {
     "referenced_type" : "type-523"
    }
   ],
   "return_type" : "type-22",
   "source_file" : "/out/soong/.intermediates/hardware/interfaces/bluetooth/audio/2.0/android.hardware.bluetooth.audio@2.0_genc++_headers/gen/android/hardware/bluetooth/audio/2.0/types.h"
  },
  {
   "function_name" : "android::hardware::bluetooth::audio::V2_0::AudioConfiguration::pcmConfig",
   "linker_set_key" : "_ZN7android8hardware9bluetooth5audio4V2_018AudioConfiguration9pcmConfigEv",
   "parameters" :
   [
    {
     "is_this_ptr" : true,
     "referenced_type" : "type-544"
    }
   ],
   "return_type" : "type-525",
   "source_file" : "/out/soong/.intermediates/hardware/interfaces/bluetooth/audio/2.0/android.hardware.bluetooth.audio@2.0_genc++_headers/gen/android/hardware/bluetooth/audio/2.0/types.h"
  },
  {
   "function_name" : "android::hardware::bluetooth::audio::V2_0::AudioConfiguration::AudioConfiguration",
   "linker_set_key" : "_ZN7android8hardware9bluetooth5audio4V2_018AudioConfigurationC1EOS4_",
   "parameters" :
   [
    {
     "is_this_ptr" : true,
     "referenced_type" : "type-544"
    },
    {
     "referenced_type" : "type-545"
    }
   ],
   "return_type" : "type-22",
   "source_file" : "/out/soong/.intermediates/hardware/interfaces/bluetooth/audio/2.0/android.hardware.bluetooth.audio@2.0_genc++_headers/gen/android/hardware/bluetooth/audio/2.0/types.h"
  },
  {
   "function_name" : "android::hardware::bluetooth::audio::V2_0::AudioConfiguration::AudioConfiguration",
   "linker_set_key" : "_ZN7android8hardware9bluetooth5audio4V2_018AudioConfigurationC1ERKS4_",
   "parameters" :
   [
    {
     "is_this_ptr" : true,
     "referenced_type" : "type-544"
    },
    {
     "referenced_type" : "type-263"
    }
   ],
   "return_type" : "type-22",
   "source_file" : "/out/soong/.intermediates/hardware/interfaces/bluetooth/audio/2.0/android.hardware.bluetooth.audio@2.0_genc++_headers/gen/android/hardware/bluetooth/audio/2.0/types.h"
  },
  {
   "function_name" : "android::hardware::bluetooth::audio::V2_0::AudioConfiguration::AudioConfiguration",
   "linker_set_key" : "_ZN7android8hardware9bluetooth5audio4V2_018AudioConfigurationC1Ev",
   "parameters" :
   [
    {
     "is_this_ptr" : true,
     "referenced_type" : "type-544"
    }
   ],
   "return_type" : "type-22",
   "source_file" : "/out/soong/.intermediates/hardware/interfaces/bluetooth/audio/2.0/android.hardware.bluetooth.audio@2.0_genc++_headers/gen/android/hardware/bluetooth/audio/2.0/types.h"
  },
  {
   "function_name" : "android::hardware::bluetooth::audio::V2_0::AudioConfiguration::AudioConfiguration",
   "linker_set_key" : "_ZN7android8hardware9bluetooth5audio4V2_018AudioConfigurationC2EOS4_",
   "parameters" :
   [
    {
     "is_this_ptr" : true,
     "referenced_type" : "type-544"
    },
    {
     "referenced_type" : "type-545"
    }
   ],
   "return_type" : "type-22",
   "source_file" : "/out/soong/.intermediates/hardware/interfaces/bluetooth/audio/2.0/android.hardware.bluetooth.audio@2.0_genc++_headers/gen/android/hardware/bluetooth/audio/2.0/types.h"
  },
  {
   "function_name" : "android::hardware::bluetooth::audio::V2_0::AudioConfiguration::AudioConfiguration",
   "linker_set_key" : "_ZN7android8hardware9bluetooth5audio4V2_018AudioConfigurationC2ERKS4_",
   "parameters" :
   [
    {
     "is_this_ptr" : true,
     "referenced_type" : "type-544"
    },
    {
     "referenced_type" : "type-263"
    }
   ],
   "return_type" : "type-22",
   "source_file" : "/out/soong/.intermediates/hardware/interfaces/bluetooth/audio/2.0/android.hardware.bluetooth.audio@2.0_genc++_headers/gen/android/hardware/bluetooth/audio/2.0/types.h"
  },
  {
   "function_name" : "android::hardware::bluetooth::audio::V2_0::AudioConfiguration::AudioConfiguration",
   "linker_set_key" : "_ZN7android8hardware9bluetooth5audio4V2_018AudioConfigurationC2Ev",
   "parameters" :
   [
    {
     "is_this_ptr" : true,
     "referenced_type" : "type-544"
    }
   ],
   "return_type" : "type-22",
   "source_file" : "/out/soong/.intermediates/hardware/interfaces/bluetooth/audio/2.0/android.hardware.bluetooth.audio@2.0_genc++_headers/gen/android/hardware/bluetooth/audio/2.0/types.h"
  },
  {
   "function_name" : "android::hardware::bluetooth::audio::V2_0::AudioConfiguration::~AudioConfiguration",
   "linker_set_key" : "_ZN7android8hardware9bluetooth5audio4V2_018AudioConfigurationD1Ev",
   "parameters" :
   [
    {
     "is_this_ptr" : true,
     "referenced_type" : "type-544"
    }
   ],
   "return_type" : "type-22",
   "source_file" : "/out/soong/.intermediates/hardware/interfaces/bluetooth/audio/2.0/android.hardware.bluetooth.audio@2.0_genc++_headers/gen/android/hardware/bluetooth/audio/2.0/types.h"
  },
  {
   "function_name" : "android::hardware::bluetooth::audio::V2_0::AudioConfiguration::~AudioConfiguration",
   "linker_set_key" : "_ZN7android8hardware9bluetooth5audio4V2_018AudioConfigurationD2Ev",
   "parameters" :
   [
    {
     "is_this_ptr" : true,
     "referenced_type" : "type-544"
    }
   ],
   "return_type" : "type-22",
   "source_file" : "/out/soong/.intermediates/hardware/interfaces/bluetooth/audio/2.0/android.hardware.bluetooth.audio@2.0_genc++_headers/gen/android/hardware/bluetooth/audio/2.0/types.h"
  },
  {
   "function_name" : "android::hardware::bluetooth::audio::V2_0::AudioConfiguration::operator=",
   "linker_set_key" : "_ZN7android8hardware9bluetooth5audio4V2_018AudioConfigurationaSEOS4_",
   "parameters" :
   [
    {
     "is_this_ptr" : true,
     "referenced_type" : "type-544"
    },
    {
     "referenced_type" : "type-545"
    }
   ],
   "return_type" : "type-547",
   "source_file" : "/out/soong/.intermediates/hardware/interfaces/bluetooth/audio/2.0/android.hardware.bluetooth.audio@2.0_genc++_headers/gen/android/hardware/bluetooth/audio/2.0/types.h"
  },
  {
   "function_name" : "android::hardware::bluetooth::audio::V2_0::AudioConfiguration::operator=",
   "linker_set_key" : "_ZN7android8hardware9bluetooth5audio4V2_018AudioConfigurationaSERKS4_",
   "parameters" :
   [
    {
     "is_this_ptr" : true,
     "referenced_type" : "type-544"
    },
    {
     "referenced_type" : "type-263"
    }
   ],
   "return_type" : "type-547",
   "source_file" : "/out/soong/.intermediates/hardware/interfaces/bluetooth/audio/2.0/android.hardware.bluetooth.audio@2.0_genc++_headers/gen/android/hardware/bluetooth/audio/2.0/types.h"
  },
  {
   "function_name" : "android::hardware::bluetooth::audio::V2_0::CodecConfiguration::CodecSpecific::aptxConfig",
   "linker_set_key" : "_ZN7android8hardware9bluetooth5audio4V2_018CodecConfiguration13CodecSpecific10aptxConfigEONS3_14AptxParametersE",
   "parameters" :
   [
    {
     "is_this_ptr" : true,
     "referenced_type" : "type-538"
    },
    {
     "referenced_type" : "type-514"
    }
   ],
   "return_type" : "type-22",
   "source_file" : "/out/soong/.intermediates/hardware/interfaces/bluetooth/audio/2.0/android.hardware.bluetooth.audio@2.0_genc++_headers/gen/android/hardware/bluetooth/audio/2.0/types.h"
  },
  {
   "function_name" : "android::hardware::bluetooth::audio::V2_0::CodecConfiguration::CodecSpecific::aptxConfig",
   "linker_set_key" : "_ZN7android8hardware9bluetooth5audio4V2_018CodecConfiguration13CodecSpecific10aptxConfigERKNS3_14AptxParametersE",
   "parameters" :
   [
    {
     "is_this_ptr" : true,
     "referenced_type" : "type-538"
    },
    {
     "referenced_type" : "type-513"
    }
   ],
   "return_type" : "type-22",
   "source_file" : "/out/soong/.intermediates/hardware/interfaces/bluetooth/audio/2.0/android.hardware.bluetooth.audio@2.0_genc++_headers/gen/android/hardware/bluetooth/audio/2.0/types.h"
  },
  {
   "function_name" : "android::hardware::bluetooth::audio::V2_0::CodecConfiguration::CodecSpecific::aptxConfig",
   "linker_set_key" : "_ZN7android8hardware9bluetooth5audio4V2_018CodecConfiguration13CodecSpecific10aptxConfigEv",
   "parameters" :
   [
    {
     "is_this_ptr" : true,
     "referenced_type" : "type-538"
    }
   ],
   "return_type" : "type-515",
   "source_file" : "/out/soong/.intermediates/hardware/interfaces/bluetooth/audio/2.0/android.hardware.bluetooth.audio@2.0_genc++_headers/gen/android/hardware/bluetooth/audio/2.0/types.h"
  },
  {
   "function_name" : "android::hardware::bluetooth::audio::V2_0::CodecConfiguration::CodecSpecific::hidl_union::hidl_union",
   "linker_set_key" : "_ZN7android8hardware9bluetooth5audio4V2_018CodecConfiguration13CodecSpecific10hidl_unionC1Ev",
   "parameters" :
   [
    {
     "is_this_ptr" : true,
     "referenced_type" : "type-543"
    }
   ],
   "return_type" : "type-22",
   "source_file" : "/out/soong/.intermediates/hardware/interfaces/bluetooth/audio/2.0/android.hardware.bluetooth.audio@2.0_genc++_headers/gen/android/hardware/bluetooth/audio/2.0/types.h"
  },
  {
   "function_name" : "android::hardware::bluetooth::audio::V2_0::CodecConfiguration::CodecSpecific::hidl_union::hidl_union",
   "linker_set_key" : "_ZN7android8hardware9bluetooth5audio4V2_018CodecConfiguration13CodecSpecific10hidl_unionC2Ev",
   "parameters" :
   [
    {
     "is_this_ptr" : true,
     "referenced_type" : "type-543"
    }
   ],
   "return_type" : "type-22",
   "source_file" : "/out/soong/.intermediates/hardware/interfaces/bluetooth/audio/2.0/android.hardware.bluetooth.audio@2.0_genc++_headers/gen/android/hardware/bluetooth/audio/2.0/types.h"
  },
  {
   "function_name" : "android::hardware::bluetooth::audio::V2_0::CodecConfiguration::CodecSpecific::hidl_union::~hidl_union",
   "linker_set_key" : "_ZN7android8hardware9bluetooth5audio4V2_018CodecConfiguration13CodecSpecific10hidl_unionD1Ev",
   "parameters" :
   [
    {
     "is_this_ptr" : true,
     "referenced_type" : "type-543"
    }
   ],
   "return_type" : "type-22",
   "source_file" : "/out/soong/.intermediates/hardware/interfaces/bluetooth/audio/2.0/android.hardware.bluetooth.audio@2.0_genc++_headers/gen/android/hardware/bluetooth/audio/2.0/types.h"
  },
  {
   "function_name" : "android::hardware::bluetooth::audio::V2_0::CodecConfiguration::CodecSpecific::hidl_union::~hidl_union",
   "linker_set_key" : "_ZN7android8hardware9bluetooth5audio4V2_018CodecConfiguration13CodecSpecific10hidl_unionD2Ev",
   "parameters" :
   [
    {
     "is_this_ptr" : true,
     "referenced_type" : "type-543"
    }
   ],
   "return_type" : "type-22",
   "source_file" : "/out/soong/.intermediates/hardware/interfaces/bluetooth/audio/2.0/android.hardware.bluetooth.audio@2.0_genc++_headers/gen/android/hardware/bluetooth/audio/2.0/types.h"
  },
  {
   "function_name" : "android::hardware::bluetooth::audio::V2_0::CodecConfiguration::CodecSpecific::ldacConfig",
   "linker_set_key" : "_ZN7android8hardware9bluetooth5audio4V2_018CodecConfiguration13CodecSpecific10ldacConfigEONS3_14LdacParametersE",
   "parameters" :
   [
    {
     "is_this_ptr" : true,
     "referenced_type" : "type-538"
    },
    {
     "referenced_type" : "type-509"
    }
   ],
   "return_type" : "type-22",
   "source_file" : "/out/soong/.intermediates/hardware/interfaces/bluetooth/audio/2.0/android.hardware.bluetooth.audio@2.0_genc++_headers/gen/android/hardware/bluetooth/audio/2.0/types.h"
  },
  {
   "function_name" : "android::hardware::bluetooth::audio::V2_0::CodecConfiguration::CodecSpecific::ldacConfig",
   "linker_set_key" : "_ZN7android8hardware9bluetooth5audio4V2_018CodecConfiguration13CodecSpecific10ldacConfigERKNS3_14LdacParametersE",
   "parameters" :
   [
    {
     "is_this_ptr" : true,
     "referenced_type" : "type-538"
    },
    {
     "referenced_type" : "type-508"
    }
   ],
   "return_type" : "type-22",
   "source_file" : "/out/soong/.intermediates/hardware/interfaces/bluetooth/audio/2.0/android.hardware.bluetooth.audio@2.0_genc++_headers/gen/android/hardware/bluetooth/audio/2.0/types.h"
  },
  {
   "function_name" : "android::hardware::bluetooth::audio::V2_0::CodecConfiguration::CodecSpecific::ldacConfig",
   "linker_set_key" : "_ZN7android8hardware9bluetooth5audio4V2_018CodecConfiguration13CodecSpecific10ldacConfigEv",
   "parameters" :
   [
    {
     "is_this_ptr" : true,
     "referenced_type" : "type-538"
    }
   ],
   "return_type" : "type-510",
   "source_file" : "/out/soong/.intermediates/hardware/interfaces/bluetooth/audio/2.0/android.hardware.bluetooth.audio@2.0_genc++_headers/gen/android/hardware/bluetooth/audio/2.0/types.h"
  },
  {
   "access" : "private",
   "function_name" : "android::hardware::bluetooth::audio::V2_0::CodecConfiguration::CodecSpecific::hidl_destructUnion",
   "linker_set_key" : "_ZN7android8hardware9bluetooth5audio4V2_018CodecConfiguration13CodecSpecific18hidl_destructUnionEv",
   "parameters" :
   [
    {
     "is_this_ptr" : true,
     "referenced_type" : "type-538"
    }
   ],
   "return_type" : "type-22",
   "source_file" : "/out/soong/.intermediates/hardware/interfaces/bluetooth/audio/2.0/android.hardware.bluetooth.audio@2.0_genc++_headers/gen/android/hardware/bluetooth/audio/2.0/types.h"
  },
  {
   "function_name" : "android::hardware::bluetooth::audio::V2_0::CodecConfiguration::CodecSpecific::aacConfig",
   "linker_set_key" : "_ZN7android8hardware9bluetooth5audio4V2_018CodecConfiguration13CodecSpecific9aacConfigEONS3_13AacParametersE",
   "parameters" :
   [
    {
     "is_this_ptr" : true,
     "referenced_type" : "type-538"
    },
    {
     "referenced_type" : "type-505"
    }
   ],
   "return_type" : "type-22",
   "source_file" : "/out/soong/.intermediates/hardware/interfaces/bluetooth/audio/2.0/android.hardware.bluetooth.audio@2.0_genc++_headers/gen/android/hardware/bluetooth/audio/2.0/types.h"
  },
  {
   "function_name" : "android::hardware::bluetooth::audio::V2_0::CodecConfiguration::CodecSpecific::aacConfig",
   "linker_set_key" : "_ZN7android8hardware9bluetooth5audio4V2_018CodecConfiguration13CodecSpecific9aacConfigERKNS3_13AacParametersE",
   "parameters" :
   [
    {
     "is_this_ptr" : true,
     "referenced_type" : "type-538"
    },
    {
     "referenced_type" : "type-504"
    }
   ],
   "return_type" : "type-22",
   "source_file" : "/out/soong/.intermediates/hardware/interfaces/bluetooth/audio/2.0/android.hardware.bluetooth.audio@2.0_genc++_headers/gen/android/hardware/bluetooth/audio/2.0/types.h"
  },
  {
   "function_name" : "android::hardware::bluetooth::audio::V2_0::CodecConfiguration::CodecSpecific::aacConfig",
   "linker_set_key" : "_ZN7android8hardware9bluetooth5audio4V2_018CodecConfiguration13CodecSpecific9aacConfigEv",
   "parameters" :
   [
    {
     "is_this_ptr" : true,
     "referenced_type" : "type-538"
    }
   ],
   "return_type" : "type-506",
   "source_file" : "/out/soong/.intermediates/hardware/interfaces/bluetooth/audio/2.0/android.hardware.bluetooth.audio@2.0_genc++_headers/gen/android/hardware/bluetooth/audio/2.0/types.h"
  },
  {
   "function_name" : "android::hardware::bluetooth::audio::V2_0::CodecConfiguration::CodecSpecific::sbcConfig",
   "linker_set_key" : "_ZN7android8hardware9bluetooth5audio4V2_018CodecConfiguration13CodecSpecific9sbcConfigEONS3_13SbcParametersE",
   "parameters" :
   [
    {
     "is_this_ptr" : true,
     "referenced_type" : "type-538"
    },
    {
     "referenced_type" : "type-500"
    }
   ],
   "return_type" : "type-22",
   "source_file" : "/out/soong/.intermediates/hardware/interfaces/bluetooth/audio/2.0/android.hardware.bluetooth.audio@2.0_genc++_headers/gen/android/hardware/bluetooth/audio/2.0/types.h"
  },
  {
   "function_name" : "android::hardware::bluetooth::audio::V2_0::CodecConfiguration::CodecSpecific::sbcConfig",
   "linker_set_key" : "_ZN7android8hardware9bluetooth5audio4V2_018CodecConfiguration13CodecSpecific9sbcConfigERKNS3_13SbcParametersE",
   "parameters" :
   [
    {
     "is_this_ptr" : true,
     "referenced_type" : "type-538"
    },
    {
     "referenced_type" : "type-499"
    }
   ],
   "return_type" : "type-22",
   "source_file" : "/out/soong/.intermediates/hardware/interfaces/bluetooth/audio/2.0/android.hardware.bluetooth.audio@2.0_genc++_headers/gen/android/hardware/bluetooth/audio/2.0/types.h"
  },
  {
   "function_name" : "android::hardware::bluetooth::audio::V2_0::CodecConfiguration::CodecSpecific::sbcConfig",
   "linker_set_key" : "_ZN7android8hardware9bluetooth5audio4V2_018CodecConfiguration13CodecSpecific9sbcConfigEv",
   "parameters" :
   [
    {
     "is_this_ptr" : true,
     "referenced_type" : "type-538"
    }
   ],
   "return_type" : "type-501",
   "source_file" : "/out/soong/.intermediates/hardware/interfaces/bluetooth/audio/2.0/android.hardware.bluetooth.audio@2.0_genc++_headers/gen/android/hardware/bluetooth/audio/2.0/types.h"
  },
  {
   "function_name" : "android::hardware::bluetooth::audio::V2_0::CodecConfiguration::CodecSpecific::CodecSpecific",
   "linker_set_key" : "_ZN7android8hardware9bluetooth5audio4V2_018CodecConfiguration13CodecSpecificC1EOS5_",
   "parameters" :
   [
    {
     "is_this_ptr" : true,
     "referenced_type" : "type-538"
    },
    {
     "referenced_type" : "type-539"
    }
   ],
   "return_type" : "type-22",
   "source_file" : "/out/soong/.intermediates/hardware/interfaces/bluetooth/audio/2.0/android.hardware.bluetooth.audio@2.0_genc++_headers/gen/android/hardware/bluetooth/audio/2.0/types.h"
  },
  {
   "function_name" : "android::hardware::bluetooth::audio::V2_0::CodecConfiguration::CodecSpecific::CodecSpecific",
   "linker_set_key" : "_ZN7android8hardware9bluetooth5audio4V2_018CodecConfiguration13CodecSpecificC1ERKS5_",
   "parameters" :
   [
    {
     "is_this_ptr" : true,
     "referenced_type" : "type-538"
    },
    {
     "referenced_type" : "type-540"
    }
   ],
   "return_type" : "type-22",
   "source_file" : "/out/soong/.intermediates/hardware/interfaces/bluetooth/audio/2.0/android.hardware.bluetooth.audio@2.0_genc++_headers/gen/android/hardware/bluetooth/audio/2.0/types.h"
  },
  {
   "function_name" : "android::hardware::bluetooth::audio::V2_0::CodecConfiguration::CodecSpecific::CodecSpecific",
   "linker_set_key" : "_ZN7android8hardware9bluetooth5audio4V2_018CodecConfiguration13CodecSpecificC1Ev",
   "parameters" :
   [
    {
     "is_this_ptr" : true,
     "referenced_type" : "type-538"
    }
   ],
   "return_type" : "type-22",
   "source_file" : "/out/soong/.intermediates/hardware/interfaces/bluetooth/audio/2.0/android.hardware.bluetooth.audio@2.0_genc++_headers/gen/android/hardware/bluetooth/audio/2.0/types.h"
  },
  {
   "function_name" : "android::hardware::bluetooth::audio::V2_0::CodecConfiguration::CodecSpecific::CodecSpecific",
   "linker_set_key" : "_ZN7android8hardware9bluetooth5audio4V2_018CodecConfiguration13CodecSpecificC2EOS5_",
   "parameters" :
   [
    {
     "is_this_ptr" : true,
     "referenced_type" : "type-538"
    },
    {
     "referenced_type" : "type-539"
    }
   ],
   "return_type" : "type-22",
   "source_file" : "/out/soong/.intermediates/hardware/interfaces/bluetooth/audio/2.0/android.hardware.bluetooth.audio@2.0_genc++_headers/gen/android/hardware/bluetooth/audio/2.0/types.h"
  },
  {
   "function_name" : "android::hardware::bluetooth::audio::V2_0::CodecConfiguration::CodecSpecific::CodecSpecific",
   "linker_set_key" : "_ZN7android8hardware9bluetooth5audio4V2_018CodecConfiguration13CodecSpecificC2ERKS5_",
   "parameters" :
   [
    {
     "is_this_ptr" : true,
     "referenced_type" : "type-538"
    },
    {
     "referenced_type" : "type-540"
    }
   ],
   "return_type" : "type-22",
   "source_file" : "/out/soong/.intermediates/hardware/interfaces/bluetooth/audio/2.0/android.hardware.bluetooth.audio@2.0_genc++_headers/gen/android/hardware/bluetooth/audio/2.0/types.h"
  },
  {
   "function_name" : "android::hardware::bluetooth::audio::V2_0::CodecConfiguration::CodecSpecific::CodecSpecific",
   "linker_set_key" : "_ZN7android8hardware9bluetooth5audio4V2_018CodecConfiguration13CodecSpecificC2Ev",
   "parameters" :
   [
    {
     "is_this_ptr" : true,
     "referenced_type" : "type-538"
    }
   ],
   "return_type" : "type-22",
   "source_file" : "/out/soong/.intermediates/hardware/interfaces/bluetooth/audio/2.0/android.hardware.bluetooth.audio@2.0_genc++_headers/gen/android/hardware/bluetooth/audio/2.0/types.h"
  },
  {
   "function_name" : "android::hardware::bluetooth::audio::V2_0::CodecConfiguration::CodecSpecific::~CodecSpecific",
   "linker_set_key" : "_ZN7android8hardware9bluetooth5audio4V2_018CodecConfiguration13CodecSpecificD1Ev",
   "parameters" :
   [
    {
     "is_this_ptr" : true,
     "referenced_type" : "type-538"
    }
   ],
   "return_type" : "type-22",
   "source_file" : "/out/soong/.intermediates/hardware/interfaces/bluetooth/audio/2.0/android.hardware.bluetooth.audio@2.0_genc++_headers/gen/android/hardware/bluetooth/audio/2.0/types.h"
  },
  {
   "function_name" : "android::hardware::bluetooth::audio::V2_0::CodecConfiguration::CodecSpecific::~CodecSpecific",
   "linker_set_key" : "_ZN7android8hardware9bluetooth5audio4V2_018CodecConfiguration13CodecSpecificD2Ev",
   "parameters" :
   [
    {
     "is_this_ptr" : true,
     "referenced_type" : "type-538"
    }
   ],
   "return_type" : "type-22",
   "source_file" : "/out/soong/.intermediates/hardware/interfaces/bluetooth/audio/2.0/android.hardware.bluetooth.audio@2.0_genc++_headers/gen/android/hardware/bluetooth/audio/2.0/types.h"
  },
  {
   "function_name" : "android::hardware::bluetooth::audio::V2_0::CodecConfiguration::CodecSpecific::operator=",
   "linker_set_key" : "_ZN7android8hardware9bluetooth5audio4V2_018CodecConfiguration13CodecSpecificaSEOS5_",
   "parameters" :
   [
    {
     "is_this_ptr" : true,
     "referenced_type" : "type-538"
    },
    {
     "referenced_type" : "type-539"
    }
   ],
   "return_type" : "type-542",
   "source_file" : "/out/soong/.intermediates/hardware/interfaces/bluetooth/audio/2.0/android.hardware.bluetooth.audio@2.0_genc++_headers/gen/android/hardware/bluetooth/audio/2.0/types.h"
  },
  {
   "function_name" : "android::hardware::bluetooth::audio::V2_0::CodecConfiguration::CodecSpecific::operator=",
   "linker_set_key" : "_ZN7android8hardware9bluetooth5audio4V2_018CodecConfiguration13CodecSpecificaSERKS5_",
   "parameters" :
   [
    {
     "is_this_ptr" : true,
     "referenced_type" : "type-538"
    },
    {
     "referenced_type" : "type-540"
    }
   ],
   "return_type" : "type-542",
   "source_file" : "/out/soong/.intermediates/hardware/interfaces/bluetooth/audio/2.0/android.hardware.bluetooth.audio@2.0_genc++_headers/gen/android/hardware/bluetooth/audio/2.0/types.h"
  },
  {
   "function_name" : "android::hardware::bluetooth::audio::V2_0::IBluetoothAudioPort::getService",
   "linker_set_key" : "_ZN7android8hardware9bluetooth5audio4V2_019IBluetoothAudioPort10getServiceERKNSt3__112basic_stringIcNS5_11char_traitsIcEENS5_9allocatorIcEEEEb",
   "parameters" :
   [
    {
     "default_arg" : true,
     "referenced_type" : "type-903"
    },
    {
     "default_arg" : true,
     "referenced_type" : "type-13"
    }
   ],
   "return_type" : "type-65",
   "source_file" : "/out/soong/.intermediates/hardware/interfaces/bluetooth/audio/2.0/android.hardware.bluetooth.audio@2.0_genc++_headers/gen/android/hardware/bluetooth/audio/2.0/IBluetoothAudioPort.h"
  },
  {
   "function_name" : "android::hardware::bluetooth::audio::V2_0::IBluetoothAudioPort::linkToDeath",
   "linker_set_key" : "_ZN7android8hardware9bluetooth5audio4V2_019IBluetoothAudioPort11linkToDeathERKNS_2spINS0_20hidl_death_recipientEEEm",
   "parameters" :
   [
    {
     "is_this_ptr" : true,
     "referenced_type" : "type-66"
    },
    {
     "referenced_type" : "type-1185"
    },
    {
     "referenced_type" : "type-12"
    }
   ],
   "return_type" : "type-502",
   "source_file" : "/out/soong/.intermediates/hardware/interfaces/bluetooth/audio/2.0/android.hardware.bluetooth.audio@2.0_genc++_headers/gen/android/hardware/bluetooth/audio/2.0/IBluetoothAudioPort.h"
  },
  {
   "function_name" : "android::hardware::bluetooth::audio::V2_0::IBluetoothAudioPort::getDebugInfo",
   "linker_set_key" : "_ZN7android8hardware9bluetooth5audio4V2_019IBluetoothAudioPort12getDebugInfoENSt3__18functionIFvRKNS_4hidl4base4V1_09DebugInfoEEEE",
   "parameters" :
   [
    {
     "is_this_ptr" : true,
     "referenced_type" : "type-66"
    },
    {
     "referenced_type" : "type-1246"
    }
   ],
   "return_type" : "type-599",
   "source_file" : "/out/soong/.intermediates/hardware/interfaces/bluetooth/audio/2.0/android.hardware.bluetooth.audio@2.0_genc++_headers/gen/android/hardware/bluetooth/audio/2.0/IBluetoothAudioPort.h"
  },
  {
   "function_name" : "android::hardware::bluetooth::audio::V2_0::IBluetoothAudioPort::getHashChain",
   "linker_set_key" : "_ZN7android8hardware9bluetooth5audio4V2_019IBluetoothAudioPort12getHashChainENSt3__18functionIFvRKNS0_8hidl_vecINS0_10hidl_arrayIhLm32EJEEEEEEEE",
   "parameters" :
   [
    {
     "is_this_ptr" : true,
     "referenced_type" : "type-66"
    },
    {
     "referenced_type" : "type-1247"
    }
   ],
   "return_type" : "type-599",
   "source_file" : "/out/soong/.intermediates/hardware/interfaces/bluetooth/audio/2.0/android.hardware.bluetooth.audio@2.0_genc++_headers/gen/android/hardware/bluetooth/audio/2.0/IBluetoothAudioPort.h"
  },
  {
   "function_name" : "android::hardware::bluetooth::audio::V2_0::IBluetoothAudioPort::tryGetService",
   "linker_set_key" : "_ZN7android8hardware9bluetooth5audio4V2_019IBluetoothAudioPort13tryGetServiceERKNSt3__112basic_stringIcNS5_11char_traitsIcEENS5_9allocatorIcEEEEb",
   "parameters" :
   [
    {
     "default_arg" : true,
     "referenced_type" : "type-903"
    },
    {
     "default_arg" : true,
     "referenced_type" : "type-13"
    }
   ],
   "return_type" : "type-65",
   "source_file" : "/out/soong/.intermediates/hardware/interfaces/bluetooth/audio/2.0/android.hardware.bluetooth.audio@2.0_genc++_headers/gen/android/hardware/bluetooth/audio/2.0/IBluetoothAudioPort.h"
  },
  {
   "function_name" : "android::hardware::bluetooth::audio::V2_0::IBluetoothAudioPort::unlinkToDeath",
   "linker_set_key" : "_ZN7android8hardware9bluetooth5audio4V2_019IBluetoothAudioPort13unlinkToDeathERKNS_2spINS0_20hidl_death_recipientEEE",
   "parameters" :
   [
    {
     "is_this_ptr" : true,
     "referenced_type" : "type-66"
    },
    {
     "referenced_type" : "type-1185"
    }
   ],
   "return_type" : "type-502",
   "source_file" : "/out/soong/.intermediates/hardware/interfaces/bluetooth/audio/2.0/android.hardware.bluetooth.audio@2.0_genc++_headers/gen/android/hardware/bluetooth/audio/2.0/IBluetoothAudioPort.h"
  },
  {
   "function_name" : "android::hardware::bluetooth::audio::V2_0::IBluetoothAudioPort::interfaceChain",
   "linker_set_key" : "_ZN7android8hardware9bluetooth5audio4V2_019IBluetoothAudioPort14interfaceChainENSt3__18functionIFvRKNS0_8hidl_vecINS0_11hidl_stringEEEEEE",
   "parameters" :
   [
    {
     "is_this_ptr" : true,
     "referenced_type" : "type-66"
    },
    {
     "referenced_type" : "type-1248"
    }
   ],
   "return_type" : "type-599",
   "source_file" : "/out/soong/.intermediates/hardware/interfaces/bluetooth/audio/2.0/android.hardware.bluetooth.audio@2.0_genc++_headers/gen/android/hardware/bluetooth/audio/2.0/IBluetoothAudioPort.h"
  },
  {
   "function_name" : "android::hardware::bluetooth::audio::V2_0::IBluetoothAudioPort::registerAsService",
   "linker_set_key" : "_ZN7android8hardware9bluetooth5audio4V2_019IBluetoothAudioPort17registerAsServiceERKNSt3__112basic_stringIcNS5_11char_traitsIcEENS5_9allocatorIcEEEE",
   "parameters" :
   [
    {
     "is_this_ptr" : true,
     "referenced_type" : "type-66"
    },
    {
     "default_arg" : true,
     "referenced_type" : "type-903"
    }
   ],
   "return_type" : "type-19",
   "source_file" : "/out/soong/.intermediates/hardware/interfaces/bluetooth/audio/2.0/android.hardware.bluetooth.audio@2.0_genc++_headers/gen/android/hardware/bluetooth/audio/2.0/IBluetoothAudioPort.h"
  },
  {
   "function_name" : "android::hardware::bluetooth::audio::V2_0::IBluetoothAudioPort::interfaceDescriptor",
   "linker_set_key" : "_ZN7android8hardware9bluetooth5audio4V2_019IBluetoothAudioPort19interfaceDescriptorENSt3__18functionIFvRKNS0_11hidl_stringEEEE",
   "parameters" :
   [
    {
     "is_this_ptr" : true,
     "referenced_type" : "type-66"
    },
    {
     "referenced_type" : "type-1249"
    }
   ],
   "return_type" : "type-599",
   "source_file" : "/out/soong/.intermediates/hardware/interfaces/bluetooth/audio/2.0/android.hardware.bluetooth.audio@2.0_genc++_headers/gen/android/hardware/bluetooth/audio/2.0/IBluetoothAudioPort.h"
  },
  {
   "function_name" : "android::hardware::bluetooth::audio::V2_0::IBluetoothAudioPort::notifySyspropsChanged",
   "linker_set_key" : "_ZN7android8hardware9bluetooth5audio4V2_019IBluetoothAudioPort21notifySyspropsChangedEv",
   "parameters" :
   [
    {
     "is_this_ptr" : true,
     "referenced_type" : "type-66"
    }
   ],
   "return_type" : "type-599",
   "source_file" : "/out/soong/.intermediates/hardware/interfaces/bluetooth/audio/2.0/android.hardware.bluetooth.audio@2.0_genc++_headers/gen/android/hardware/bluetooth/audio/2.0/IBluetoothAudioPort.h"
  },
  {
   "function_name" : "android::hardware::bluetooth::audio::V2_0::IBluetoothAudioPort::setHALInstrumentation",
   "linker_set_key" : "_ZN7android8hardware9bluetooth5audio4V2_019IBluetoothAudioPort21setHALInstrumentationEv",
   "parameters" :
   [
    {
     "is_this_ptr" : true,
     "referenced_type" : "type-66"
    }
   ],
   "return_type" : "type-599",
   "source_file" : "/out/soong/.intermediates/hardware/interfaces/bluetooth/audio/2.0/android.hardware.bluetooth.audio@2.0_genc++_headers/gen/android/hardware/bluetooth/audio/2.0/IBluetoothAudioPort.h"
  },
  {
   "function_name" : "android::hardware::bluetooth::audio::V2_0::IBluetoothAudioPort::registerForNotifications",
   "linker_set_key" : "_ZN7android8hardware9bluetooth5audio4V2_019IBluetoothAudioPort24registerForNotificationsERKNSt3__112basic_stringIcNS5_11char_traitsIcEENS5_9allocatorIcEEEERKNS_2spINS_4hidl7manager4V1_020IServiceNotificationEEE",
   "parameters" :
   [
    {
     "referenced_type" : "type-903"
    },
    {
     "referenced_type" : "type-1166"
    }
   ],
   "return_type" : "type-13",
   "source_file" : "/out/soong/.intermediates/hardware/interfaces/bluetooth/audio/2.0/android.hardware.bluetooth.audio@2.0_genc++_headers/gen/android/hardware/bluetooth/audio/2.0/IBluetoothAudioPort.h"
  },
  {
   "function_name" : "android::hardware::bluetooth::audio::V2_0::IBluetoothAudioPort::ping",
   "linker_set_key" : "_ZN7android8hardware9bluetooth5audio4V2_019IBluetoothAudioPort4pingEv",
   "parameters" :
   [
    {
     "is_this_ptr" : true,
     "referenced_type" : "type-66"
    }
   ],
   "return_type" : "type-599",
   "source_file" : "/out/soong/.intermediates/hardware/interfaces/bluetooth/audio/2.0/android.hardware.bluetooth.audio@2.0_genc++_headers/gen/android/hardware/bluetooth/audio/2.0/IBluetoothAudioPort.h"
  },
  {
   "function_name" : "android::hardware::bluetooth::audio::V2_0::IBluetoothAudioPort::debug",
   "linker_set_key" : "_ZN7android8hardware9bluetooth5audio4V2_019IBluetoothAudioPort5debugERKNS0_11hidl_handleERKNS0_8hidl_vecINS0_11hidl_stringEEE",
   "parameters" :
   [
    {
     "is_this_ptr" : true,
     "referenced_type" : "type-66"
    },
    {
     "referenced_type" : "type-855"
    },
    {
     "referenced_type" : "type-1165"
    }
   ],
   "return_type" : "type-599",
   "source_file" : "/out/soong/.intermediates/hardware/interfaces/bluetooth/audio/2.0/android.hardware.bluetooth.audio@2.0_genc++_headers/gen/android/hardware/bluetooth/audio/2.0/IBluetoothAudioPort.h"
  },
  {
   "function_name" : "android::hardware::bluetooth::audio::V2_0::IBluetoothAudioPort::castFrom",
   "linker_set_key" : "_ZN7android8hardware9bluetooth5audio4V2_019IBluetoothAudioPort8castFromERKNS_2spINS_4hidl4base4V1_05IBaseEEEb",
   "parameters" :
   [
    {
     "referenced_type" : "type-61"
    },
    {
     "default_arg" : true,
     "referenced_type" : "type-13"
    }
   ],
   "return_type" : "type-560",
   "source_file" : "/out/soong/.intermediates/hardware/interfaces/bluetooth/audio/2.0/android.hardware.bluetooth.audio@2.0_genc++_headers/gen/android/hardware/bluetooth/audio/2.0/IBluetoothAudioPort.h"
  },
  {
   "function_name" : "android::hardware::bluetooth::audio::V2_0::IBluetoothAudioPort::castFrom",
   "linker_set_key" : "_ZN7android8hardware9bluetooth5audio4V2_019IBluetoothAudioPort8castFromERKNS_2spIS4_EEb",
   "parameters" :
   [
    {
     "referenced_type" : "type-977"
    },
    {
     "default_arg" : true,
     "referenced_type" : "type-13"
    }
   ],
   "return_type" : "type-560",
   "source_file" : "/out/soong/.intermediates/hardware/interfaces/bluetooth/audio/2.0/android.hardware.bluetooth.audio@2.0_genc++_headers/gen/android/hardware/bluetooth/audio/2.0/IBluetoothAudioPort.h"
  },
  {
   "access" : "private",
   "function_name" : "android::hardware::bluetooth::audio::V2_0::BsBluetoothAudioPort::addOnewayTask",
   "linker_set_key" : "_ZN7android8hardware9bluetooth5audio4V2_020BsBluetoothAudioPort13addOnewayTaskENSt3__18functionIFvvEEE",
   "parameters" :
   [
    {
     "is_this_ptr" : true,
     "referenced_type" : "type-90"
    },
    {
     "referenced_type" : "type-1252"
    }
   ],
   "return_type" : "type-599",
   "source_file" : "/out/soong/.intermediates/hardware/interfaces/bluetooth/audio/2.0/android.hardware.bluetooth.audio@2.0_genc++_headers/gen/android/hardware/bluetooth/audio/2.0/BsBluetoothAudioPort.h"
  },
  {
   "function_name" : "android::hardware::bluetooth::audio::V2_0::BsBluetoothAudioPort::BsBluetoothAudioPort",
   "linker_set_key" : "_ZN7android8hardware9bluetooth5audio4V2_020BsBluetoothAudioPortC1ENS_2spINS3_19IBluetoothAudioPortEEE",
   "parameters" :
   [
    {
     "is_this_ptr" : true,
     "referenced_type" : "type-90"
    },
    {
     "referenced_type" : "type-64"
    }
   ],
   "return_type" : "type-22",
   "source_file" : "/out/soong/.intermediates/hardware/interfaces/bluetooth/audio/2.0/android.hardware.bluetooth.audio@2.0_genc++_headers/gen/android/hardware/bluetooth/audio/2.0/BsBluetoothAudioPort.h"
  },
  {
   "function_name" : "android::hardware::bluetooth::audio::V2_0::BsBluetoothAudioPort::BsBluetoothAudioPort",
   "linker_set_key" : "_ZN7android8hardware9bluetooth5audio4V2_020BsBluetoothAudioPortC2ENS_2spINS3_19IBluetoothAudioPortEEE",
   "parameters" :
   [
    {
     "is_this_ptr" : true,
     "referenced_type" : "type-90"
    },
    {
     "referenced_type" : "type-64"
    }
   ],
   "return_type" : "type-22",
   "source_file" : "/out/soong/.intermediates/hardware/interfaces/bluetooth/audio/2.0/android.hardware.bluetooth.audio@2.0_genc++_headers/gen/android/hardware/bluetooth/audio/2.0/BsBluetoothAudioPort.h"
  },
  {
   "function_name" : "android::hardware::bluetooth::audio::V2_0::BnHwBluetoothAudioPort::onTransact",
   "linker_set_key" : "_ZN7android8hardware9bluetooth5audio4V2_022BnHwBluetoothAudioPort10onTransactEjRKNS0_6ParcelEPS5_jNSt3__18functionIFvRS5_EEE",
   "parameters" :
   [
    {
     "is_this_ptr" : true,
     "referenced_type" : "type-1197"
    },
    {
     "referenced_type" : "type-2"
    },
    {
     "referenced_type" : "type-898"
    },
    {
     "referenced_type" : "type-891"
    },
    {
     "default_arg" : true,
     "referenced_type" : "type-2"
    },
    {
     "default_arg" : true,
     "referenced_type" : "type-1256"
    }
   ],
   "return_type" : "type-19",
   "source_file" : "/out/soong/.intermediates/hardware/interfaces/bluetooth/audio/2.0/android.hardware.bluetooth.audio@2.0_genc++_headers/gen/android/hardware/bluetooth/audio/2.0/BnHwBluetoothAudioPort.h"
  },
  {
   "access" : "private",
   "function_name" : "android::hardware::bluetooth::audio::V2_0::BnHwBluetoothAudioPort::getDebugInfo",
   "linker_set_key" : "_ZN7android8hardware9bluetooth5audio4V2_022BnHwBluetoothAudioPort12getDebugInfoENSt3__18functionIFvRKNS_4hidl4base4V1_09DebugInfoEEEE",
   "parameters" :
   [
    {
     "is_this_ptr" : true,
     "referenced_type" : "type-1197"
    },
    {
     "referenced_type" : "type-1257"
    }
   ],
   "return_type" : "type-599",
   "source_file" : "/out/soong/.intermediates/hardware/interfaces/bluetooth/audio/2.0/android.hardware.bluetooth.audio@2.0_genc++_headers/gen/android/hardware/bluetooth/audio/2.0/BnHwBluetoothAudioPort.h"
  },
  {
   "function_name" : "android::hardware::bluetooth::audio::V2_0::BnHwBluetoothAudioPort::_hidl_stopStream",
   "linker_set_key" : "_ZN7android8hardware9bluetooth5audio4V2_022BnHwBluetoothAudioPort16_hidl_stopStreamEPNS_4hidl4base4V1_08BnHwBaseERKNS0_6ParcelEPSA_NSt3__18functionIFvRSA_EEE",
   "parameters" :
   [
    {
     "referenced_type" : "type-900"
    },
    {
     "referenced_type" : "type-898"
    },
    {
     "referenced_type" : "type-891"
    },
    {
     "referenced_type" : "type-1258"
    }
   ],
   "return_type" : "type-19",
   "source_file" : "/out/soong/.intermediates/hardware/interfaces/bluetooth/audio/2.0/android.hardware.bluetooth.audio@2.0_genc++_headers/gen/android/hardware/bluetooth/audio/2.0/BnHwBluetoothAudioPort.h"
  },
  {
   "function_name" : "android::hardware::bluetooth::audio::V2_0::BnHwBluetoothAudioPort::_hidl_startStream",
   "linker_set_key" : "_ZN7android8hardware9bluetooth5audio4V2_022BnHwBluetoothAudioPort17_hidl_startStreamEPNS_4hidl4base4V1_08BnHwBaseERKNS0_6ParcelEPSA_NSt3__18functionIFvRSA_EEE",
   "parameters" :
   [
    {
     "referenced_type" : "type-900"
    },
    {
     "referenced_type" : "type-898"
    },
    {
     "referenced_type" : "type-891"
    },
    {
     "referenced_type" : "type-1259"
    }
   ],
   "return_type" : "type-19",
   "source_file" : "/out/soong/.intermediates/hardware/interfaces/bluetooth/audio/2.0/android.hardware.bluetooth.audio@2.0_genc++_headers/gen/android/hardware/bluetooth/audio/2.0/BnHwBluetoothAudioPort.h"
  },
  {
   "function_name" : "android::hardware::bluetooth::audio::V2_0::BnHwBluetoothAudioPort::_hidl_suspendStream",
   "linker_set_key" : "_ZN7android8hardware9bluetooth5audio4V2_022BnHwBluetoothAudioPort19_hidl_suspendStreamEPNS_4hidl4base4V1_08BnHwBaseERKNS0_6ParcelEPSA_NSt3__18functionIFvRSA_EEE",
   "parameters" :
   [
    {
     "referenced_type" : "type-900"
    },
    {
     "referenced_type" : "type-898"
    },
    {
     "referenced_type" : "type-891"
    },
    {
     "referenced_type" : "type-1260"
    }
   ],
   "return_type" : "type-19",
   "source_file" : "/out/soong/.intermediates/hardware/interfaces/bluetooth/audio/2.0/android.hardware.bluetooth.audio@2.0_genc++_headers/gen/android/hardware/bluetooth/audio/2.0/BnHwBluetoothAudioPort.h"
  },
  {
   "function_name" : "android::hardware::bluetooth::audio::V2_0::BnHwBluetoothAudioPort::_hidl_updateMetadata",
   "linker_set_key" : "_ZN7android8hardware9bluetooth5audio4V2_022BnHwBluetoothAudioPort20_hidl_updateMetadataEPNS_4hidl4base4V1_08BnHwBaseERKNS0_6ParcelEPSA_NSt3__18functionIFvRSA_EEE",
   "parameters" :
   [
    {
     "referenced_type" : "type-900"
    },
    {
     "referenced_type" : "type-898"
    },
    {
     "referenced_type" : "type-891"
    },
    {
     "referenced_type" : "type-1261"
    }
   ],
   "return_type" : "type-19",
   "source_file" : "/out/soong/.intermediates/hardware/interfaces/bluetooth/audio/2.0/android.hardware.bluetooth.audio@2.0_genc++_headers/gen/android/hardware/bluetooth/audio/2.0/BnHwBluetoothAudioPort.h"
  },
  {
   "function_name" : "android::hardware::bluetooth::audio::V2_0::BnHwBluetoothAudioPort::_hidl_getPresentationPosition",
   "linker_set_key" : "_ZN7android8hardware9bluetooth5audio4V2_022BnHwBluetoothAudioPort29_hidl_getPresentationPositionEPNS_4hidl4base4V1_08BnHwBaseERKNS0_6ParcelEPSA_NSt3__18functionIFvRSA_EEE",
   "parameters" :
   [
    {
     "referenced_type" : "type-900"
    },
    {
     "referenced_type" : "type-898"
    },
    {
     "referenced_type" : "type-891"
    },
    {
     "referenced_type" : "type-1262"
    }
   ],
   "return_type" : "type-19",
   "source_file" : "/out/soong/.intermediates/hardware/interfaces/bluetooth/audio/2.0/android.hardware.bluetooth.audio@2.0_genc++_headers/gen/android/hardware/bluetooth/audio/2.0/BnHwBluetoothAudioPort.h"
  },
  {
   "access" : "private",
   "function_name" : "android::hardware::bluetooth::audio::V2_0::BnHwBluetoothAudioPort::ping",
   "linker_set_key" : "_ZN7android8hardware9bluetooth5audio4V2_022BnHwBluetoothAudioPort4pingEv",
   "parameters" :
   [
    {
     "is_this_ptr" : true,
     "referenced_type" : "type-1197"
    }
   ],
   "return_type" : "type-599",
   "source_file" : "/out/soong/.intermediates/hardware/interfaces/bluetooth/audio/2.0/android.hardware.bluetooth.audio@2.0_genc++_headers/gen/android/hardware/bluetooth/audio/2.0/BnHwBluetoothAudioPort.h"
  },
  {
   "function_name" : "android::hardware::bluetooth::audio::V2_0::BnHwBluetoothAudioPort::BnHwBluetoothAudioPort",
   "linker_set_key" : "_ZN7android8hardware9bluetooth5audio4V2_022BnHwBluetoothAudioPortC1ERKNS_2spINS3_19IBluetoothAudioPortEEE",
   "parameters" :
   [
    {
     "is_this_ptr" : true,
     "referenced_type" : "type-1197"
    },
    {
     "referenced_type" : "type-977"
    }
   ],
   "return_type" : "type-22",
   "source_file" : "/out/soong/.intermediates/hardware/interfaces/bluetooth/audio/2.0/android.hardware.bluetooth.audio@2.0_genc++_headers/gen/android/hardware/bluetooth/audio/2.0/BnHwBluetoothAudioPort.h"
  },
  {
   "function_name" : "android::hardware::bluetooth::audio::V2_0::BnHwBluetoothAudioPort::BnHwBluetoothAudioPort",
   "linker_set_key" : "_ZN7android8hardware9bluetooth5audio4V2_022BnHwBluetoothAudioPortC2ERKNS_2spINS3_19IBluetoothAudioPortEEE",
   "parameters" :
   [
    {
     "is_this_ptr" : true,
     "referenced_type" : "type-1197"
    },
    {
     "referenced_type" : "type-977"
    }
   ],
   "return_type" : "type-22",
   "source_file" : "/out/soong/.intermediates/hardware/interfaces/bluetooth/audio/2.0/android.hardware.bluetooth.audio@2.0_genc++_headers/gen/android/hardware/bluetooth/audio/2.0/BnHwBluetoothAudioPort.h"
  },
  {
   "function_name" : "android::hardware::bluetooth::audio::V2_0::BnHwBluetoothAudioPort::~BnHwBluetoothAudioPort",
   "linker_set_key" : "_ZN7android8hardware9bluetooth5audio4V2_022BnHwBluetoothAudioPortD0Ev",
   "parameters" :
   [
    {
     "is_this_ptr" : true,
     "referenced_type" : "type-1197"
    }
   ],
   "return_type" : "type-22",
   "source_file" : "/out/soong/.intermediates/hardware/interfaces/bluetooth/audio/2.0/android.hardware.bluetooth.audio@2.0_genc++_headers/gen/android/hardware/bluetooth/audio/2.0/BnHwBluetoothAudioPort.h"
  },
  {
   "function_name" : "android::hardware::bluetooth::audio::V2_0::BnHwBluetoothAudioPort::~BnHwBluetoothAudioPort",
   "linker_set_key" : "_ZN7android8hardware9bluetooth5audio4V2_022BnHwBluetoothAudioPortD1Ev",
   "parameters" :
   [
    {
     "is_this_ptr" : true,
     "referenced_type" : "type-1197"
    }
   ],
   "return_type" : "type-22",
   "source_file" : "/out/soong/.intermediates/hardware/interfaces/bluetooth/audio/2.0/android.hardware.bluetooth.audio@2.0_genc++_headers/gen/android/hardware/bluetooth/audio/2.0/BnHwBluetoothAudioPort.h"
  },
  {
   "function_name" : "android::hardware::bluetooth::audio::V2_0::BnHwBluetoothAudioPort::~BnHwBluetoothAudioPort",
   "linker_set_key" : "_ZN7android8hardware9bluetooth5audio4V2_022BnHwBluetoothAudioPortD2Ev",
   "parameters" :
   [
    {
     "is_this_ptr" : true,
     "referenced_type" : "type-1197"
    }
   ],
   "return_type" : "type-22",
   "source_file" : "/out/soong/.intermediates/hardware/interfaces/bluetooth/audio/2.0/android.hardware.bluetooth.audio@2.0_genc++_headers/gen/android/hardware/bluetooth/audio/2.0/BnHwBluetoothAudioPort.h"
  },
  {
   "function_name" : "android::hardware::bluetooth::audio::V2_0::BpHwBluetoothAudioPort::stopStream",
   "linker_set_key" : "_ZN7android8hardware9bluetooth5audio4V2_022BpHwBluetoothAudioPort10stopStreamEv",
   "parameters" :
   [
    {
     "is_this_ptr" : true,
     "referenced_type" : "type-123"
    }
   ],
   "return_type" : "type-599",
   "source_file" : "/out/soong/.intermediates/hardware/interfaces/bluetooth/audio/2.0/android.hardware.bluetooth.audio@2.0_genc++_headers/gen/android/hardware/bluetooth/audio/2.0/BpHwBluetoothAudioPort.h"
  },
  {
   "function_name" : "android::hardware::bluetooth::audio::V2_0::BpHwBluetoothAudioPort::linkToDeath",
   "linker_set_key" : "_ZN7android8hardware9bluetooth5audio4V2_022BpHwBluetoothAudioPort11linkToDeathERKNS_2spINS0_20hidl_death_recipientEEEm",
   "parameters" :
   [
    {
     "is_this_ptr" : true,
     "referenced_type" : "type-123"
    },
    {
     "referenced_type" : "type-1185"
    },
    {
     "referenced_type" : "type-12"
    }
   ],
   "return_type" : "type-502",
   "source_file" : "/out/soong/.intermediates/hardware/interfaces/bluetooth/audio/2.0/android.hardware.bluetooth.audio@2.0_genc++_headers/gen/android/hardware/bluetooth/audio/2.0/BpHwBluetoothAudioPort.h"
  },
  {
   "function_name" : "android::hardware::bluetooth::audio::V2_0::BpHwBluetoothAudioPort::startStream",
   "linker_set_key" : "_ZN7android8hardware9bluetooth5audio4V2_022BpHwBluetoothAudioPort11startStreamEv",
   "parameters" :
   [
    {
     "is_this_ptr" : true,
     "referenced_type" : "type-123"
    }
   ],
   "return_type" : "type-599",
   "source_file" : "/out/soong/.intermediates/hardware/interfaces/bluetooth/audio/2.0/android.hardware.bluetooth.audio@2.0_genc++_headers/gen/android/hardware/bluetooth/audio/2.0/BpHwBluetoothAudioPort.h"
  },
  {
   "function_name" : "android::hardware::bluetooth::audio::V2_0::BpHwBluetoothAudioPort::getDebugInfo",
   "linker_set_key" : "_ZN7android8hardware9bluetooth5audio4V2_022BpHwBluetoothAudioPort12getDebugInfoENSt3__18functionIFvRKNS_4hidl4base4V1_09DebugInfoEEEE",
   "parameters" :
   [
    {
     "is_this_ptr" : true,
     "referenced_type" : "type-123"
    },
    {
     "referenced_type" : "type-1263"
    }
   ],
   "return_type" : "type-599",
   "source_file" : "/out/soong/.intermediates/hardware/interfaces/bluetooth/audio/2.0/android.hardware.bluetooth.audio@2.0_genc++_headers/gen/android/hardware/bluetooth/audio/2.0/BpHwBluetoothAudioPort.h"
  },
  {
   "function_name" : "android::hardware::bluetooth::audio::V2_0::BpHwBluetoothAudioPort::getHashChain",
   "linker_set_key" : "_ZN7android8hardware9bluetooth5audio4V2_022BpHwBluetoothAudioPort12getHashChainENSt3__18functionIFvRKNS0_8hidl_vecINS0_10hidl_arrayIhLm32EJEEEEEEEE",
   "parameters" :
   [
    {
     "is_this_ptr" : true,
     "referenced_type" : "type-123"
    },
    {
     "referenced_type" : "type-1264"
    }
   ],
   "return_type" : "type-599",
   "source_file" : "/out/soong/.intermediates/hardware/interfaces/bluetooth/audio/2.0/android.hardware.bluetooth.audio@2.0_genc++_headers/gen/android/hardware/bluetooth/audio/2.0/BpHwBluetoothAudioPort.h"
  },
  {
   "function_name" : "android::hardware::bluetooth::audio::V2_0::BpHwBluetoothAudioPort::suspendStream",
   "linker_set_key" : "_ZN7android8hardware9bluetooth5audio4V2_022BpHwBluetoothAudioPort13suspendStreamEv",
   "parameters" :
   [
    {
     "is_this_ptr" : true,
     "referenced_type" : "type-123"
    }
   ],
   "return_type" : "type-599",
   "source_file" : "/out/soong/.intermediates/hardware/interfaces/bluetooth/audio/2.0/android.hardware.bluetooth.audio@2.0_genc++_headers/gen/android/hardware/bluetooth/audio/2.0/BpHwBluetoothAudioPort.h"
  },
  {
   "function_name" : "android::hardware::bluetooth::audio::V2_0::BpHwBluetoothAudioPort::unlinkToDeath",
   "linker_set_key" : "_ZN7android8hardware9bluetooth5audio4V2_022BpHwBluetoothAudioPort13unlinkToDeathERKNS_2spINS0_20hidl_death_recipientEEE",
   "parameters" :
   [
    {
     "is_this_ptr" : true,
     "referenced_type" : "type-123"
    },
    {
     "referenced_type" : "type-1185"
    }
   ],
   "return_type" : "type-502",
   "source_file" : "/out/soong/.intermediates/hardware/interfaces/bluetooth/audio/2.0/android.hardware.bluetooth.audio@2.0_genc++_headers/gen/android/hardware/bluetooth/audio/2.0/BpHwBluetoothAudioPort.h"
  },
  {
   "function_name" : "android::hardware::bluetooth::audio::V2_0::BpHwBluetoothAudioPort::interfaceChain",
   "linker_set_key" : "_ZN7android8hardware9bluetooth5audio4V2_022BpHwBluetoothAudioPort14interfaceChainENSt3__18functionIFvRKNS0_8hidl_vecINS0_11hidl_stringEEEEEE",
   "parameters" :
   [
    {
     "is_this_ptr" : true,
     "referenced_type" : "type-123"
    },
    {
     "referenced_type" : "type-1265"
    }
   ],
   "return_type" : "type-599",
   "source_file" : "/out/soong/.intermediates/hardware/interfaces/bluetooth/audio/2.0/android.hardware.bluetooth.audio@2.0_genc++_headers/gen/android/hardware/bluetooth/audio/2.0/BpHwBluetoothAudioPort.h"
  },
  {
   "function_name" : "android::hardware::bluetooth::audio::V2_0::BpHwBluetoothAudioPort::updateMetadata",
   "linker_set_key" : "_ZN7android8hardware9bluetooth5audio4V2_022BpHwBluetoothAudioPort14updateMetadataERKNS0_5audio6common4V5_014SourceMetadataE",
   "parameters" :
   [
    {
     "is_this_ptr" : true,
     "referenced_type" : "type-123"
    },
    {
     "referenced_type" : "type-1176"
    }
   ],
   "return_type" : "type-599",
   "source_file" : "/out/soong/.intermediates/hardware/interfaces/bluetooth/audio/2.0/android.hardware.bluetooth.audio@2.0_genc++_headers/gen/android/hardware/bluetooth/audio/2.0/BpHwBluetoothAudioPort.h"
  },
  {
   "function_name" : "android::hardware::bluetooth::audio::V2_0::BpHwBluetoothAudioPort::_hidl_stopStream",
   "linker_set_key" : "_ZN7android8hardware9bluetooth5audio4V2_022BpHwBluetoothAudioPort16_hidl_stopStreamEPNS0_10IInterfaceEPNS0_7details16HidlInstrumentorE",
   "parameters" :
   [
    {
     "referenced_type" : "type-190"
    },
    {
     "referenced_type" : "type-817"
    }
   ],
   "return_type" : "type-599",
   "source_file" : "/out/soong/.intermediates/hardware/interfaces/bluetooth/audio/2.0/android.hardware.bluetooth.audio@2.0_genc++_headers/gen/android/hardware/bluetooth/audio/2.0/BpHwBluetoothAudioPort.h"
  },
  {
   "function_name" : "android::hardware::bluetooth::audio::V2_0::BpHwBluetoothAudioPort::_hidl_startStream",
   "linker_set_key" : "_ZN7android8hardware9bluetooth5audio4V2_022BpHwBluetoothAudioPort17_hidl_startStreamEPNS0_10IInterfaceEPNS0_7details16HidlInstrumentorE",
   "parameters" :
   [
    {
     "referenced_type" : "type-190"
    },
    {
     "referenced_type" : "type-817"
    }
   ],
   "return_type" : "type-599",
   "source_file" : "/out/soong/.intermediates/hardware/interfaces/bluetooth/audio/2.0/android.hardware.bluetooth.audio@2.0_genc++_headers/gen/android/hardware/bluetooth/audio/2.0/BpHwBluetoothAudioPort.h"
  },
  {
   "function_name" : "android::hardware::bluetooth::audio::V2_0::BpHwBluetoothAudioPort::_hidl_suspendStream",
   "linker_set_key" : "_ZN7android8hardware9bluetooth5audio4V2_022BpHwBluetoothAudioPort19_hidl_suspendStreamEPNS0_10IInterfaceEPNS0_7details16HidlInstrumentorE",
   "parameters" :
   [
    {
     "referenced_type" : "type-190"
    },
    {
     "referenced_type" : "type-817"
    }
   ],
   "return_type" : "type-599",
   "source_file" : "/out/soong/.intermediates/hardware/interfaces/bluetooth/audio/2.0/android.hardware.bluetooth.audio@2.0_genc++_headers/gen/android/hardware/bluetooth/audio/2.0/BpHwBluetoothAudioPort.h"
  },
  {
   "function_name" : "android::hardware::bluetooth::audio::V2_0::BpHwBluetoothAudioPort::interfaceDescriptor",
   "linker_set_key" : "_ZN7android8hardware9bluetooth5audio4V2_022BpHwBluetoothAudioPort19interfaceDescriptorENSt3__18functionIFvRKNS0_11hidl_stringEEEE",
   "parameters" :
   [
    {
     "is_this_ptr" : true,
     "referenced_type" : "type-123"
    },
    {
     "referenced_type" : "type-1266"
    }
   ],
   "return_type" : "type-599",
   "source_file" : "/out/soong/.intermediates/hardware/interfaces/bluetooth/audio/2.0/android.hardware.bluetooth.audio@2.0_genc++_headers/gen/android/hardware/bluetooth/audio/2.0/BpHwBluetoothAudioPort.h"
  },
  {
   "function_name" : "android::hardware::bluetooth::audio::V2_0::BpHwBluetoothAudioPort::_hidl_updateMetadata",
   "linker_set_key" : "_ZN7android8hardware9bluetooth5audio4V2_022BpHwBluetoothAudioPort20_hidl_updateMetadataEPNS0_10IInterfaceEPNS0_7details16HidlInstrumentorERKNS0_5audio6common4V5_014SourceMetadataE",
   "parameters" :
   [
    {
     "referenced_type" : "type-190"
    },
    {
     "referenced_type" : "type-817"
    },
    {
     "referenced_type" : "type-1176"
    }
   ],
   "return_type" : "type-599",
   "source_file" : "/out/soong/.intermediates/hardware/interfaces/bluetooth/audio/2.0/android.hardware.bluetooth.audio@2.0_genc++_headers/gen/android/hardware/bluetooth/audio/2.0/BpHwBluetoothAudioPort.h"
  },
  {
   "function_name" : "android::hardware::bluetooth::audio::V2_0::BpHwBluetoothAudioPort::notifySyspropsChanged",
   "linker_set_key" : "_ZN7android8hardware9bluetooth5audio4V2_022BpHwBluetoothAudioPort21notifySyspropsChangedEv",
   "parameters" :
   [
    {
     "is_this_ptr" : true,
     "referenced_type" : "type-123"
    }
   ],
   "return_type" : "type-599",
   "source_file" : "/out/soong/.intermediates/hardware/interfaces/bluetooth/audio/2.0/android.hardware.bluetooth.audio@2.0_genc++_headers/gen/android/hardware/bluetooth/audio/2.0/BpHwBluetoothAudioPort.h"
  },
  {
   "function_name" : "android::hardware::bluetooth::audio::V2_0::BpHwBluetoothAudioPort::setHALInstrumentation",
   "linker_set_key" : "_ZN7android8hardware9bluetooth5audio4V2_022BpHwBluetoothAudioPort21setHALInstrumentationEv",
   "parameters" :
   [
    {
     "is_this_ptr" : true,
     "referenced_type" : "type-123"
    }
   ],
   "return_type" : "type-599",
   "source_file" : "/out/soong/.intermediates/hardware/interfaces/bluetooth/audio/2.0/android.hardware.bluetooth.audio@2.0_genc++_headers/gen/android/hardware/bluetooth/audio/2.0/BpHwBluetoothAudioPort.h"
  },
  {
   "function_name" : "android::hardware::bluetooth::audio::V2_0::BpHwBluetoothAudioPort::getPresentationPosition",
   "linker_set_key" : "_ZN7android8hardware9bluetooth5audio4V2_022BpHwBluetoothAudioPort23getPresentationPositionENSt3__18functionIFvNS3_6StatusEmmRKNS3_8TimeSpecEEEE",
   "parameters" :
   [
    {
     "is_this_ptr" : true,
     "referenced_type" : "type-123"
    },
    {
     "referenced_type" : "type-1267"
    }
   ],
   "return_type" : "type-599",
   "source_file" : "/out/soong/.intermediates/hardware/interfaces/bluetooth/audio/2.0/android.hardware.bluetooth.audio@2.0_genc++_headers/gen/android/hardware/bluetooth/audio/2.0/BpHwBluetoothAudioPort.h"
  },
  {
   "function_name" : "android::hardware::bluetooth::audio::V2_0::BpHwBluetoothAudioPort::_hidl_getPresentationPosition",
   "linker_set_key" : "_ZN7android8hardware9bluetooth5audio4V2_022BpHwBluetoothAudioPort29_hidl_getPresentationPositionEPNS0_10IInterfaceEPNS0_7details16HidlInstrumentorENSt3__18functionIFvNS3_6StatusEmmRKNS3_8TimeSpecEEEE",
   "parameters" :
   [
    {
     "referenced_type" : "type-190"
    },
    {
     "referenced_type" : "type-817"
    },
    {
     "referenced_type" : "type-1268"
    }
   ],
   "return_type" : "type-599",
   "source_file" : "/out/soong/.intermediates/hardware/interfaces/bluetooth/audio/2.0/android.hardware.bluetooth.audio@2.0_genc++_headers/gen/android/hardware/bluetooth/audio/2.0/BpHwBluetoothAudioPort.h"
  },
  {
   "function_name" : "android::hardware::bluetooth::audio::V2_0::BpHwBluetoothAudioPort::ping",
   "linker_set_key" : "_ZN7android8hardware9bluetooth5audio4V2_022BpHwBluetoothAudioPort4pingEv",
   "parameters" :
   [
    {
     "is_this_ptr" : true,
     "referenced_type" : "type-123"
    }
   ],
   "return_type" : "type-599",
   "source_file" : "/out/soong/.intermediates/hardware/interfaces/bluetooth/audio/2.0/android.hardware.bluetooth.audio@2.0_genc++_headers/gen/android/hardware/bluetooth/audio/2.0/BpHwBluetoothAudioPort.h"
  },
  {
   "function_name" : "android::hardware::bluetooth::audio::V2_0::BpHwBluetoothAudioPort::debug",
   "linker_set_key" : "_ZN7android8hardware9bluetooth5audio4V2_022BpHwBluetoothAudioPort5debugERKNS0_11hidl_handleERKNS0_8hidl_vecINS0_11hidl_stringEEE",
   "parameters" :
   [
    {
     "is_this_ptr" : true,
     "referenced_type" : "type-123"
    },
    {
     "referenced_type" : "type-855"
    },
    {
     "referenced_type" : "type-1165"
    }
   ],
   "return_type" : "type-599",
   "source_file" : "/out/soong/.intermediates/hardware/interfaces/bluetooth/audio/2.0/android.hardware.bluetooth.audio@2.0_genc++_headers/gen/android/hardware/bluetooth/audio/2.0/BpHwBluetoothAudioPort.h"
  },
  {
   "function_name" : "android::hardware::bluetooth::audio::V2_0::BpHwBluetoothAudioPort::BpHwBluetoothAudioPort",
   "linker_set_key" : "_ZN7android8hardware9bluetooth5audio4V2_022BpHwBluetoothAudioPortC1ERKNS_2spINS0_7IBinderEEE",
   "parameters" :
   [
    {
     "is_this_ptr" : true,
     "referenced_type" : "type-123"
    },
    {
     "referenced_type" : "type-220"
    }
   ],
   "return_type" : "type-22",
   "source_file" : "/out/soong/.intermediates/hardware/interfaces/bluetooth/audio/2.0/android.hardware.bluetooth.audio@2.0_genc++_headers/gen/android/hardware/bluetooth/audio/2.0/BpHwBluetoothAudioPort.h"
  },
  {
   "function_name" : "android::hardware::bluetooth::audio::V2_0::BpHwBluetoothAudioPort::BpHwBluetoothAudioPort",
   "linker_set_key" : "_ZN7android8hardware9bluetooth5audio4V2_022BpHwBluetoothAudioPortC2ERKNS_2spINS0_7IBinderEEE",
   "parameters" :
   [
    {
     "is_this_ptr" : true,
     "referenced_type" : "type-123"
    },
    {
     "referenced_type" : "type-220"
    }
   ],
   "return_type" : "type-22",
   "source_file" : "/out/soong/.intermediates/hardware/interfaces/bluetooth/audio/2.0/android.hardware.bluetooth.audio@2.0_genc++_headers/gen/android/hardware/bluetooth/audio/2.0/BpHwBluetoothAudioPort.h"
  },
  {
   "function_name" : "android::hardware::bluetooth::audio::V2_0::IBluetoothAudioProvider::getService",
   "linker_set_key" : "_ZN7android8hardware9bluetooth5audio4V2_023IBluetoothAudioProvider10getServiceERKNSt3__112basic_stringIcNS5_11char_traitsIcEENS5_9allocatorIcEEEEb",
   "parameters" :
   [
    {
     "default_arg" : true,
     "referenced_type" : "type-129"
    },
    {
     "default_arg" : true,
     "referenced_type" : "type-13"
    }
   ],
   "return_type" : "type-31",
   "source_file" : "/out/soong/.intermediates/hardware/interfaces/bluetooth/audio/2.0/android.hardware.bluetooth.audio@2.0_genc++_headers/gen/android/hardware/bluetooth/audio/2.0/IBluetoothAudioProvider.h"
  },
  {
   "function_name" : "android::hardware::bluetooth::audio::V2_0::IBluetoothAudioProvider::linkToDeath",
   "linker_set_key" : "_ZN7android8hardware9bluetooth5audio4V2_023IBluetoothAudioProvider11linkToDeathERKNS_2spINS0_20hidl_death_recipientEEEm",
   "parameters" :
   [
    {
     "is_this_ptr" : true,
     "referenced_type" : "type-32"
    },
    {
     "referenced_type" : "type-1185"
    },
    {
     "referenced_type" : "type-12"
    }
   ],
   "return_type" : "type-502",
   "source_file" : "/out/soong/.intermediates/hardware/interfaces/bluetooth/audio/2.0/android.hardware.bluetooth.audio@2.0_genc++_headers/gen/android/hardware/bluetooth/audio/2.0/IBluetoothAudioProvider.h"
  },
  {
   "function_name" : "android::hardware::bluetooth::audio::V2_0::IBluetoothAudioProvider::getDebugInfo",
   "linker_set_key" : "_ZN7android8hardware9bluetooth5audio4V2_023IBluetoothAudioProvider12getDebugInfoENSt3__18functionIFvRKNS_4hidl4base4V1_09DebugInfoEEEE",
   "parameters" :
   [
    {
     "is_this_ptr" : true,
     "referenced_type" : "type-32"
    },
    {
     "referenced_type" : "type-1269"
    }
   ],
   "return_type" : "type-599",
   "source_file" : "/out/soong/.intermediates/hardware/interfaces/bluetooth/audio/2.0/android.hardware.bluetooth.audio@2.0_genc++_headers/gen/android/hardware/bluetooth/audio/2.0/IBluetoothAudioProvider.h"
  },
  {
   "function_name" : "android::hardware::bluetooth::audio::V2_0::IBluetoothAudioProvider::getHashChain",
   "linker_set_key" : "_ZN7android8hardware9bluetooth5audio4V2_023IBluetoothAudioProvider12getHashChainENSt3__18functionIFvRKNS0_8hidl_vecINS0_10hidl_arrayIhLm32EJEEEEEEEE",
   "parameters" :
   [
    {
     "is_this_ptr" : true,
     "referenced_type" : "type-32"
    },
    {
     "referenced_type" : "type-1270"
    }
   ],
   "return_type" : "type-599",
   "source_file" : "/out/soong/.intermediates/hardware/interfaces/bluetooth/audio/2.0/android.hardware.bluetooth.audio@2.0_genc++_headers/gen/android/hardware/bluetooth/audio/2.0/IBluetoothAudioProvider.h"
  },
  {
   "function_name" : "android::hardware::bluetooth::audio::V2_0::IBluetoothAudioProvider::tryGetService",
   "linker_set_key" : "_ZN7android8hardware9bluetooth5audio4V2_023IBluetoothAudioProvider13tryGetServiceERKNSt3__112basic_stringIcNS5_11char_traitsIcEENS5_9allocatorIcEEEEb",
   "parameters" :
   [
    {
     "default_arg" : true,
     "referenced_type" : "type-129"
    },
    {
     "default_arg" : true,
     "referenced_type" : "type-13"
    }
   ],
   "return_type" : "type-31",
   "source_file" : "/out/soong/.intermediates/hardware/interfaces/bluetooth/audio/2.0/android.hardware.bluetooth.audio@2.0_genc++_headers/gen/android/hardware/bluetooth/audio/2.0/IBluetoothAudioProvider.h"
  },
  {
   "function_name" : "android::hardware::bluetooth::audio::V2_0::IBluetoothAudioProvider::unlinkToDeath",
   "linker_set_key" : "_ZN7android8hardware9bluetooth5audio4V2_023IBluetoothAudioProvider13unlinkToDeathERKNS_2spINS0_20hidl_death_recipientEEE",
   "parameters" :
   [
    {
     "is_this_ptr" : true,
     "referenced_type" : "type-32"
    },
    {
     "referenced_type" : "type-1185"
    }
   ],
   "return_type" : "type-502",
   "source_file" : "/out/soong/.intermediates/hardware/interfaces/bluetooth/audio/2.0/android.hardware.bluetooth.audio@2.0_genc++_headers/gen/android/hardware/bluetooth/audio/2.0/IBluetoothAudioProvider.h"
  },
  {
   "function_name" : "android::hardware::bluetooth::audio::V2_0::IBluetoothAudioProvider::interfaceChain",
   "linker_set_key" : "_ZN7android8hardware9bluetooth5audio4V2_023IBluetoothAudioProvider14interfaceChainENSt3__18functionIFvRKNS0_8hidl_vecINS0_11hidl_stringEEEEEE",
   "parameters" :
   [
    {
     "is_this_ptr" : true,
     "referenced_type" : "type-32"
    },
    {
     "referenced_type" : "type-1271"
    }
   ],
   "return_type" : "type-599",
   "source_file" : "/out/soong/.intermediates/hardware/interfaces/bluetooth/audio/2.0/android.hardware.bluetooth.audio@2.0_genc++_headers/gen/android/hardware/bluetooth/audio/2.0/IBluetoothAudioProvider.h"
  },
  {
   "function_name" : "android::hardware::bluetooth::audio::V2_0::IBluetoothAudioProvider::registerAsService",
   "linker_set_key" : "_ZN7android8hardware9bluetooth5audio4V2_023IBluetoothAudioProvider17registerAsServiceERKNSt3__112basic_stringIcNS5_11char_traitsIcEENS5_9allocatorIcEEEE",
   "parameters" :
   [
    {
     "is_this_ptr" : true,
     "referenced_type" : "type-32"
    },
    {
     "default_arg" : true,
     "referenced_type" : "type-129"
    }
   ],
   "return_type" : "type-19",
   "source_file" : "/out/soong/.intermediates/hardware/interfaces/bluetooth/audio/2.0/android.hardware.bluetooth.audio@2.0_genc++_headers/gen/android/hardware/bluetooth/audio/2.0/IBluetoothAudioProvider.h"
  },
  {
   "function_name" : "android::hardware::bluetooth::audio::V2_0::IBluetoothAudioProvider::interfaceDescriptor",
   "linker_set_key" : "_ZN7android8hardware9bluetooth5audio4V2_023IBluetoothAudioProvider19interfaceDescriptorENSt3__18functionIFvRKNS0_11hidl_stringEEEE",
   "parameters" :
   [
    {
     "is_this_ptr" : true,
     "referenced_type" : "type-32"
    },
    {
     "referenced_type" : "type-1272"
    }
   ],
   "return_type" : "type-599",
   "source_file" : "/out/soong/.intermediates/hardware/interfaces/bluetooth/audio/2.0/android.hardware.bluetooth.audio@2.0_genc++_headers/gen/android/hardware/bluetooth/audio/2.0/IBluetoothAudioProvider.h"
  },
  {
   "function_name" : "android::hardware::bluetooth::audio::V2_0::IBluetoothAudioProvider::notifySyspropsChanged",
   "linker_set_key" : "_ZN7android8hardware9bluetooth5audio4V2_023IBluetoothAudioProvider21notifySyspropsChangedEv",
   "parameters" :
   [
    {
     "is_this_ptr" : true,
     "referenced_type" : "type-32"
    }
   ],
   "return_type" : "type-599",
   "source_file" : "/out/soong/.intermediates/hardware/interfaces/bluetooth/audio/2.0/android.hardware.bluetooth.audio@2.0_genc++_headers/gen/android/hardware/bluetooth/audio/2.0/IBluetoothAudioProvider.h"
  },
  {
   "function_name" : "android::hardware::bluetooth::audio::V2_0::IBluetoothAudioProvider::setHALInstrumentation",
   "linker_set_key" : "_ZN7android8hardware9bluetooth5audio4V2_023IBluetoothAudioProvider21setHALInstrumentationEv",
   "parameters" :
   [
    {
     "is_this_ptr" : true,
     "referenced_type" : "type-32"
    }
   ],
   "return_type" : "type-599",
   "source_file" : "/out/soong/.intermediates/hardware/interfaces/bluetooth/audio/2.0/android.hardware.bluetooth.audio@2.0_genc++_headers/gen/android/hardware/bluetooth/audio/2.0/IBluetoothAudioProvider.h"
  },
  {
   "function_name" : "android::hardware::bluetooth::audio::V2_0::IBluetoothAudioProvider::registerForNotifications",
   "linker_set_key" : "_ZN7android8hardware9bluetooth5audio4V2_023IBluetoothAudioProvider24registerForNotificationsERKNSt3__112basic_stringIcNS5_11char_traitsIcEENS5_9allocatorIcEEEERKNS_2spINS_4hidl7manager4V1_020IServiceNotificationEEE",
   "parameters" :
   [
    {
     "referenced_type" : "type-129"
    },
    {
     "referenced_type" : "type-1166"
    }
   ],
   "return_type" : "type-13",
   "source_file" : "/out/soong/.intermediates/hardware/interfaces/bluetooth/audio/2.0/android.hardware.bluetooth.audio@2.0_genc++_headers/gen/android/hardware/bluetooth/audio/2.0/IBluetoothAudioProvider.h"
  },
  {
   "function_name" : "android::hardware::bluetooth::audio::V2_0::IBluetoothAudioProvider::ping",
   "linker_set_key" : "_ZN7android8hardware9bluetooth5audio4V2_023IBluetoothAudioProvider4pingEv",
   "parameters" :
   [
    {
     "is_this_ptr" : true,
     "referenced_type" : "type-32"
    }
   ],
   "return_type" : "type-599",
   "source_file" : "/out/soong/.intermediates/hardware/interfaces/bluetooth/audio/2.0/android.hardware.bluetooth.audio@2.0_genc++_headers/gen/android/hardware/bluetooth/audio/2.0/IBluetoothAudioProvider.h"
  },
  {
   "function_name" : "android::hardware::bluetooth::audio::V2_0::IBluetoothAudioProvider::debug",
   "linker_set_key" : "_ZN7android8hardware9bluetooth5audio4V2_023IBluetoothAudioProvider5debugERKNS0_11hidl_handleERKNS0_8hidl_vecINS0_11hidl_stringEEE",
   "parameters" :
   [
    {
     "is_this_ptr" : true,
     "referenced_type" : "type-32"
    },
    {
     "referenced_type" : "type-855"
    },
    {
     "referenced_type" : "type-1165"
    }
   ],
   "return_type" : "type-599",
   "source_file" : "/out/soong/.intermediates/hardware/interfaces/bluetooth/audio/2.0/android.hardware.bluetooth.audio@2.0_genc++_headers/gen/android/hardware/bluetooth/audio/2.0/IBluetoothAudioProvider.h"
  },
  {
   "function_name" : "android::hardware::bluetooth::audio::V2_0::IBluetoothAudioProvider::castFrom",
   "linker_set_key" : "_ZN7android8hardware9bluetooth5audio4V2_023IBluetoothAudioProvider8castFromERKNS_2spINS_4hidl4base4V1_05IBaseEEEb",
   "parameters" :
   [
    {
     "referenced_type" : "type-61"
    },
    {
     "default_arg" : true,
     "referenced_type" : "type-13"
    }
   ],
   "return_type" : "type-45",
   "source_file" : "/out/soong/.intermediates/hardware/interfaces/bluetooth/audio/2.0/android.hardware.bluetooth.audio@2.0_genc++_headers/gen/android/hardware/bluetooth/audio/2.0/IBluetoothAudioProvider.h"
  },
  {
   "function_name" : "android::hardware::bluetooth::audio::V2_0::IBluetoothAudioProvider::castFrom",
   "linker_set_key" : "_ZN7android8hardware9bluetooth5audio4V2_023IBluetoothAudioProvider8castFromERKNS_2spIS4_EEb",
   "parameters" :
   [
    {
     "referenced_type" : "type-1189"
    },
    {
     "default_arg" : true,
     "referenced_type" : "type-13"
    }
   ],
   "return_type" : "type-45",
   "source_file" : "/out/soong/.intermediates/hardware/interfaces/bluetooth/audio/2.0/android.hardware.bluetooth.audio@2.0_genc++_headers/gen/android/hardware/bluetooth/audio/2.0/IBluetoothAudioProvider.h"
  },
  {
   "access" : "private",
   "function_name" : "android::hardware::bluetooth::audio::V2_0::BsBluetoothAudioProvider::addOnewayTask",
   "linker_set_key" : "_ZN7android8hardware9bluetooth5audio4V2_024BsBluetoothAudioProvider13addOnewayTaskENSt3__18functionIFvvEEE",
   "parameters" :
   [
    {
     "is_this_ptr" : true,
     "referenced_type" : "type-1195"
    },
    {
     "referenced_type" : "type-1276"
    }
   ],
   "return_type" : "type-599",
   "source_file" : "/out/soong/.intermediates/hardware/interfaces/bluetooth/audio/2.0/android.hardware.bluetooth.audio@2.0_genc++_headers/gen/android/hardware/bluetooth/audio/2.0/BsBluetoothAudioProvider.h"
  },
  {
   "function_name" : "android::hardware::bluetooth::audio::V2_0::BsBluetoothAudioProvider::BsBluetoothAudioProvider",
   "linker_set_key" : "_ZN7android8hardware9bluetooth5audio4V2_024BsBluetoothAudioProviderC1ENS_2spINS3_23IBluetoothAudioProviderEEE",
   "parameters" :
   [
    {
     "is_this_ptr" : true,
     "referenced_type" : "type-1195"
    },
    {
     "referenced_type" : "type-38"
    }
   ],
   "return_type" : "type-22",
   "source_file" : "/out/soong/.intermediates/hardware/interfaces/bluetooth/audio/2.0/android.hardware.bluetooth.audio@2.0_genc++_headers/gen/android/hardware/bluetooth/audio/2.0/BsBluetoothAudioProvider.h"
  },
  {
   "function_name" : "android::hardware::bluetooth::audio::V2_0::BsBluetoothAudioProvider::BsBluetoothAudioProvider",
   "linker_set_key" : "_ZN7android8hardware9bluetooth5audio4V2_024BsBluetoothAudioProviderC2ENS_2spINS3_23IBluetoothAudioProviderEEE",
   "parameters" :
   [
    {
     "is_this_ptr" : true,
     "referenced_type" : "type-1195"
    },
    {
     "referenced_type" : "type-38"
    }
   ],
   "return_type" : "type-22",
   "source_file" : "/out/soong/.intermediates/hardware/interfaces/bluetooth/audio/2.0/android.hardware.bluetooth.audio@2.0_genc++_headers/gen/android/hardware/bluetooth/audio/2.0/BsBluetoothAudioProvider.h"
  },
  {
   "function_name" : "android::hardware::bluetooth::audio::V2_0::BnHwBluetoothAudioProvider::onTransact",
   "linker_set_key" : "_ZN7android8hardware9bluetooth5audio4V2_026BnHwBluetoothAudioProvider10onTransactEjRKNS0_6ParcelEPS5_jNSt3__18functionIFvRS5_EEE",
   "parameters" :
   [
    {
     "is_this_ptr" : true,
     "referenced_type" : "type-1193"
    },
    {
     "referenced_type" : "type-2"
    },
    {
     "referenced_type" : "type-898"
    },
    {
     "referenced_type" : "type-891"
    },
    {
     "default_arg" : true,
     "referenced_type" : "type-2"
    },
    {
     "default_arg" : true,
     "referenced_type" : "type-1279"
    }
   ],
   "return_type" : "type-19",
   "source_file" : "/out/soong/.intermediates/hardware/interfaces/bluetooth/audio/2.0/android.hardware.bluetooth.audio@2.0_genc++_headers/gen/android/hardware/bluetooth/audio/2.0/BnHwBluetoothAudioProvider.h"
  },
  {
   "access" : "private",
   "function_name" : "android::hardware::bluetooth::audio::V2_0::BnHwBluetoothAudioProvider::getDebugInfo",
   "linker_set_key" : "_ZN7android8hardware9bluetooth5audio4V2_026BnHwBluetoothAudioProvider12getDebugInfoENSt3__18functionIFvRKNS_4hidl4base4V1_09DebugInfoEEEE",
   "parameters" :
   [
    {
     "is_this_ptr" : true,
     "referenced_type" : "type-1193"
    },
    {
     "referenced_type" : "type-1280"
    }
   ],
   "return_type" : "type-599",
   "source_file" : "/out/soong/.intermediates/hardware/interfaces/bluetooth/audio/2.0/android.hardware.bluetooth.audio@2.0_genc++_headers/gen/android/hardware/bluetooth/audio/2.0/BnHwBluetoothAudioProvider.h"
  },
  {
   "function_name" : "android::hardware::bluetooth::audio::V2_0::BnHwBluetoothAudioProvider::_hidl_endSession",
   "linker_set_key" : "_ZN7android8hardware9bluetooth5audio4V2_026BnHwBluetoothAudioProvider16_hidl_endSessionEPNS_4hidl4base4V1_08BnHwBaseERKNS0_6ParcelEPSA_NSt3__18functionIFvRSA_EEE",
   "parameters" :
   [
    {
     "referenced_type" : "type-900"
    },
    {
     "referenced_type" : "type-898"
    },
    {
     "referenced_type" : "type-891"
    },
    {
     "referenced_type" : "type-1281"
    }
   ],
   "return_type" : "type-19",
   "source_file" : "/out/soong/.intermediates/hardware/interfaces/bluetooth/audio/2.0/android.hardware.bluetooth.audio@2.0_genc++_headers/gen/android/hardware/bluetooth/audio/2.0/BnHwBluetoothAudioProvider.h"
  },
  {
   "function_name" : "android::hardware::bluetooth::audio::V2_0::BnHwBluetoothAudioProvider::_hidl_startSession",
   "linker_set_key" : "_ZN7android8hardware9bluetooth5audio4V2_026BnHwBluetoothAudioProvider18_hidl_startSessionEPNS_4hidl4base4V1_08BnHwBaseERKNS0_6ParcelEPSA_NSt3__18functionIFvRSA_EEE",
   "parameters" :
   [
    {
     "referenced_type" : "type-900"
    },
    {
     "referenced_type" : "type-898"
    },
    {
     "referenced_type" : "type-891"
    },
    {
     "referenced_type" : "type-1282"
    }
   ],
   "return_type" : "type-19",
   "source_file" : "/out/soong/.intermediates/hardware/interfaces/bluetooth/audio/2.0/android.hardware.bluetooth.audio@2.0_genc++_headers/gen/android/hardware/bluetooth/audio/2.0/BnHwBluetoothAudioProvider.h"
  },
  {
   "function_name" : "android::hardware::bluetooth::audio::V2_0::BnHwBluetoothAudioProvider::_hidl_streamStarted",
   "linker_set_key" : "_ZN7android8hardware9bluetooth5audio4V2_026BnHwBluetoothAudioProvider19_hidl_streamStartedEPNS_4hidl4base4V1_08BnHwBaseERKNS0_6ParcelEPSA_NSt3__18functionIFvRSA_EEE",
   "parameters" :
   [
    {
     "referenced_type" : "type-900"
    },
    {
     "referenced_type" : "type-898"
    },
    {
     "referenced_type" : "type-891"
    },
    {
     "referenced_type" : "type-1283"
    }
   ],
   "return_type" : "type-19",
   "source_file" : "/out/soong/.intermediates/hardware/interfaces/bluetooth/audio/2.0/android.hardware.bluetooth.audio@2.0_genc++_headers/gen/android/hardware/bluetooth/audio/2.0/BnHwBluetoothAudioProvider.h"
  },
  {
   "function_name" : "android::hardware::bluetooth::audio::V2_0::BnHwBluetoothAudioProvider::_hidl_streamSuspended",
   "linker_set_key" : "_ZN7android8hardware9bluetooth5audio4V2_026BnHwBluetoothAudioProvider21_hidl_streamSuspendedEPNS_4hidl4base4V1_08BnHwBaseERKNS0_6ParcelEPSA_NSt3__18functionIFvRSA_EEE",
   "parameters" :
   [
    {
     "referenced_type" : "type-900"
    },
    {
     "referenced_type" : "type-898"
    },
    {
     "referenced_type" : "type-891"
    },
    {
     "referenced_type" : "type-1284"
    }
   ],
   "return_type" : "type-19",
   "source_file" : "/out/soong/.intermediates/hardware/interfaces/bluetooth/audio/2.0/android.hardware.bluetooth.audio@2.0_genc++_headers/gen/android/hardware/bluetooth/audio/2.0/BnHwBluetoothAudioProvider.h"
  },
  {
   "access" : "private",
   "function_name" : "android::hardware::bluetooth::audio::V2_0::BnHwBluetoothAudioProvider::ping",
   "linker_set_key" : "_ZN7android8hardware9bluetooth5audio4V2_026BnHwBluetoothAudioProvider4pingEv",
   "parameters" :
   [
    {
     "is_this_ptr" : true,
     "referenced_type" : "type-1193"
    }
   ],
   "return_type" : "type-599",
   "source_file" : "/out/soong/.intermediates/hardware/interfaces/bluetooth/audio/2.0/android.hardware.bluetooth.audio@2.0_genc++_headers/gen/android/hardware/bluetooth/audio/2.0/BnHwBluetoothAudioProvider.h"
  },
  {
   "function_name" : "android::hardware::bluetooth::audio::V2_0::BnHwBluetoothAudioProvider::BnHwBluetoothAudioProvider",
   "linker_set_key" : "_ZN7android8hardware9bluetooth5audio4V2_026BnHwBluetoothAudioProviderC1ERKNS_2spINS3_23IBluetoothAudioProviderEEE",
   "parameters" :
   [
    {
     "is_this_ptr" : true,
     "referenced_type" : "type-1193"
    },
    {
     "referenced_type" : "type-1189"
    }
   ],
   "return_type" : "type-22",
   "source_file" : "/out/soong/.intermediates/hardware/interfaces/bluetooth/audio/2.0/android.hardware.bluetooth.audio@2.0_genc++_headers/gen/android/hardware/bluetooth/audio/2.0/BnHwBluetoothAudioProvider.h"
  },
  {
   "function_name" : "android::hardware::bluetooth::audio::V2_0::BnHwBluetoothAudioProvider::BnHwBluetoothAudioProvider",
   "linker_set_key" : "_ZN7android8hardware9bluetooth5audio4V2_026BnHwBluetoothAudioProviderC2ERKNS_2spINS3_23IBluetoothAudioProviderEEE",
   "parameters" :
   [
    {
     "is_this_ptr" : true,
     "referenced_type" : "type-1193"
    },
    {
     "referenced_type" : "type-1189"
    }
   ],
   "return_type" : "type-22",
   "source_file" : "/out/soong/.intermediates/hardware/interfaces/bluetooth/audio/2.0/android.hardware.bluetooth.audio@2.0_genc++_headers/gen/android/hardware/bluetooth/audio/2.0/BnHwBluetoothAudioProvider.h"
  },
  {
   "function_name" : "android::hardware::bluetooth::audio::V2_0::BnHwBluetoothAudioProvider::~BnHwBluetoothAudioProvider",
   "linker_set_key" : "_ZN7android8hardware9bluetooth5audio4V2_026BnHwBluetoothAudioProviderD0Ev",
   "parameters" :
   [
    {
     "is_this_ptr" : true,
     "referenced_type" : "type-1193"
    }
   ],
   "return_type" : "type-22",
   "source_file" : "/out/soong/.intermediates/hardware/interfaces/bluetooth/audio/2.0/android.hardware.bluetooth.audio@2.0_genc++_headers/gen/android/hardware/bluetooth/audio/2.0/BnHwBluetoothAudioProvider.h"
  },
  {
   "function_name" : "android::hardware::bluetooth::audio::V2_0::BnHwBluetoothAudioProvider::~BnHwBluetoothAudioProvider",
   "linker_set_key" : "_ZN7android8hardware9bluetooth5audio4V2_026BnHwBluetoothAudioProviderD1Ev",
   "parameters" :
   [
    {
     "is_this_ptr" : true,
     "referenced_type" : "type-1193"
    }
   ],
   "return_type" : "type-22",
   "source_file" : "/out/soong/.intermediates/hardware/interfaces/bluetooth/audio/2.0/android.hardware.bluetooth.audio@2.0_genc++_headers/gen/android/hardware/bluetooth/audio/2.0/BnHwBluetoothAudioProvider.h"
  },
  {
   "function_name" : "android::hardware::bluetooth::audio::V2_0::BnHwBluetoothAudioProvider::~BnHwBluetoothAudioProvider",
   "linker_set_key" : "_ZN7android8hardware9bluetooth5audio4V2_026BnHwBluetoothAudioProviderD2Ev",
   "parameters" :
   [
    {
     "is_this_ptr" : true,
     "referenced_type" : "type-1193"
    }
   ],
   "return_type" : "type-22",
   "source_file" : "/out/soong/.intermediates/hardware/interfaces/bluetooth/audio/2.0/android.hardware.bluetooth.audio@2.0_genc++_headers/gen/android/hardware/bluetooth/audio/2.0/BnHwBluetoothAudioProvider.h"
  },
  {
   "function_name" : "android::hardware::bluetooth::audio::V2_0::BpHwBluetoothAudioProvider::endSession",
   "linker_set_key" : "_ZN7android8hardware9bluetooth5audio4V2_026BpHwBluetoothAudioProvider10endSessionEv",
   "parameters" :
   [
    {
     "is_this_ptr" : true,
     "referenced_type" : "type-1196"
    }
   ],
   "return_type" : "type-599",
   "source_file" : "/out/soong/.intermediates/hardware/interfaces/bluetooth/audio/2.0/android.hardware.bluetooth.audio@2.0_genc++_headers/gen/android/hardware/bluetooth/audio/2.0/BpHwBluetoothAudioProvider.h"
  },
  {
   "function_name" : "android::hardware::bluetooth::audio::V2_0::BpHwBluetoothAudioProvider::linkToDeath",
   "linker_set_key" : "_ZN7android8hardware9bluetooth5audio4V2_026BpHwBluetoothAudioProvider11linkToDeathERKNS_2spINS0_20hidl_death_recipientEEEm",
   "parameters" :
   [
    {
     "is_this_ptr" : true,
     "referenced_type" : "type-1196"
    },
    {
     "referenced_type" : "type-1185"
    },
    {
     "referenced_type" : "type-12"
    }
   ],
   "return_type" : "type-502",
   "source_file" : "/out/soong/.intermediates/hardware/interfaces/bluetooth/audio/2.0/android.hardware.bluetooth.audio@2.0_genc++_headers/gen/android/hardware/bluetooth/audio/2.0/BpHwBluetoothAudioProvider.h"
  },
  {
   "function_name" : "android::hardware::bluetooth::audio::V2_0::BpHwBluetoothAudioProvider::getDebugInfo",
   "linker_set_key" : "_ZN7android8hardware9bluetooth5audio4V2_026BpHwBluetoothAudioProvider12getDebugInfoENSt3__18functionIFvRKNS_4hidl4base4V1_09DebugInfoEEEE",
   "parameters" :
   [
    {
     "is_this_ptr" : true,
     "referenced_type" : "type-1196"
    },
    {
     "referenced_type" : "type-1285"
    }
   ],
   "return_type" : "type-599",
   "source_file" : "/out/soong/.intermediates/hardware/interfaces/bluetooth/audio/2.0/android.hardware.bluetooth.audio@2.0_genc++_headers/gen/android/hardware/bluetooth/audio/2.0/BpHwBluetoothAudioProvider.h"
  },
  {
   "function_name" : "android::hardware::bluetooth::audio::V2_0::BpHwBluetoothAudioProvider::getHashChain",
   "linker_set_key" : "_ZN7android8hardware9bluetooth5audio4V2_026BpHwBluetoothAudioProvider12getHashChainENSt3__18functionIFvRKNS0_8hidl_vecINS0_10hidl_arrayIhLm32EJEEEEEEEE",
   "parameters" :
   [
    {
     "is_this_ptr" : true,
     "referenced_type" : "type-1196"
    },
    {
     "referenced_type" : "type-1286"
    }
   ],
   "return_type" : "type-599",
   "source_file" : "/out/soong/.intermediates/hardware/interfaces/bluetooth/audio/2.0/android.hardware.bluetooth.audio@2.0_genc++_headers/gen/android/hardware/bluetooth/audio/2.0/BpHwBluetoothAudioProvider.h"
  },
  {
   "function_name" : "android::hardware::bluetooth::audio::V2_0::BpHwBluetoothAudioProvider::startSession",
   "linker_set_key" : "_ZN7android8hardware9bluetooth5audio4V2_026BpHwBluetoothAudioProvider12startSessionERKNS_2spINS3_19IBluetoothAudioPortEEERKNS3_18AudioConfigurationENSt3__18functionIFvNS3_6StatusERKNS0_12MQDescriptorIhLNS0_8MQFlavorE1EEEEEE",
   "parameters" :
   [
    {
     "is_this_ptr" : true,
     "referenced_type" : "type-1196"
    },
    {
     "referenced_type" : "type-977"
    },
    {
     "referenced_type" : "type-263"
    },
    {
     "referenced_type" : "type-1287"
    }
   ],
   "return_type" : "type-599",
   "source_file" : "/out/soong/.intermediates/hardware/interfaces/bluetooth/audio/2.0/android.hardware.bluetooth.audio@2.0_genc++_headers/gen/android/hardware/bluetooth/audio/2.0/BpHwBluetoothAudioProvider.h"
  },
  {
   "function_name" : "android::hardware::bluetooth::audio::V2_0::BpHwBluetoothAudioProvider::streamStarted",
   "linker_set_key" : "_ZN7android8hardware9bluetooth5audio4V2_026BpHwBluetoothAudioProvider13streamStartedENS3_6StatusE",
   "parameters" :
   [
    {
     "is_this_ptr" : true,
     "referenced_type" : "type-1196"
    },
    {
     "referenced_type" : "type-1104"
    }
   ],
   "return_type" : "type-599",
   "source_file" : "/out/soong/.intermediates/hardware/interfaces/bluetooth/audio/2.0/android.hardware.bluetooth.audio@2.0_genc++_headers/gen/android/hardware/bluetooth/audio/2.0/BpHwBluetoothAudioProvider.h"
  },
  {
   "function_name" : "android::hardware::bluetooth::audio::V2_0::BpHwBluetoothAudioProvider::unlinkToDeath",
   "linker_set_key" : "_ZN7android8hardware9bluetooth5audio4V2_026BpHwBluetoothAudioProvider13unlinkToDeathERKNS_2spINS0_20hidl_death_recipientEEE",
   "parameters" :
   [
    {
     "is_this_ptr" : true,
     "referenced_type" : "type-1196"
    },
    {
     "referenced_type" : "type-1185"
    }
   ],
   "return_type" : "type-502",
   "source_file" : "/out/soong/.intermediates/hardware/interfaces/bluetooth/audio/2.0/android.hardware.bluetooth.audio@2.0_genc++_headers/gen/android/hardware/bluetooth/audio/2.0/BpHwBluetoothAudioProvider.h"
  },
  {
   "function_name" : "android::hardware::bluetooth::audio::V2_0::BpHwBluetoothAudioProvider::interfaceChain",
   "linker_set_key" : "_ZN7android8hardware9bluetooth5audio4V2_026BpHwBluetoothAudioProvider14interfaceChainENSt3__18functionIFvRKNS0_8hidl_vecINS0_11hidl_stringEEEEEE",
   "parameters" :
   [
    {
     "is_this_ptr" : true,
     "referenced_type" : "type-1196"
    },
    {
     "referenced_type" : "type-1288"
    }
   ],
   "return_type" : "type-599",
   "source_file" : "/out/soong/.intermediates/hardware/interfaces/bluetooth/audio/2.0/android.hardware.bluetooth.audio@2.0_genc++_headers/gen/android/hardware/bluetooth/audio/2.0/BpHwBluetoothAudioProvider.h"
  },
  {
   "function_name" : "android::hardware::bluetooth::audio::V2_0::BpHwBluetoothAudioProvider::streamSuspended",
   "linker_set_key" : "_ZN7android8hardware9bluetooth5audio4V2_026BpHwBluetoothAudioProvider15streamSuspendedENS3_6StatusE",
   "parameters" :
   [
    {
     "is_this_ptr" : true,
     "referenced_type" : "type-1196"
    },
    {
     "referenced_type" : "type-1104"
    }
   ],
   "return_type" : "type-599",
   "source_file" : "/out/soong/.intermediates/hardware/interfaces/bluetooth/audio/2.0/android.hardware.bluetooth.audio@2.0_genc++_headers/gen/android/hardware/bluetooth/audio/2.0/BpHwBluetoothAudioProvider.h"
  },
  {
   "function_name" : "android::hardware::bluetooth::audio::V2_0::BpHwBluetoothAudioProvider::_hidl_endSession",
   "linker_set_key" : "_ZN7android8hardware9bluetooth5audio4V2_026BpHwBluetoothAudioProvider16_hidl_endSessionEPNS0_10IInterfaceEPNS0_7details16HidlInstrumentorE",
   "parameters" :
   [
    {
     "referenced_type" : "type-190"
    },
    {
     "referenced_type" : "type-817"
    }
   ],
   "return_type" : "type-599",
   "source_file" : "/out/soong/.intermediates/hardware/interfaces/bluetooth/audio/2.0/android.hardware.bluetooth.audio@2.0_genc++_headers/gen/android/hardware/bluetooth/audio/2.0/BpHwBluetoothAudioProvider.h"
  },
  {
   "function_name" : "android::hardware::bluetooth::audio::V2_0::BpHwBluetoothAudioProvider::_hidl_startSession",
   "linker_set_key" : "_ZN7android8hardware9bluetooth5audio4V2_026BpHwBluetoothAudioProvider18_hidl_startSessionEPNS0_10IInterfaceEPNS0_7details16HidlInstrumentorERKNS_2spINS3_19IBluetoothAudioPortEEERKNS3_18AudioConfigurationENSt3__18functionIFvNS3_6StatusERKNS0_12MQDescriptorIhLNS0_8MQFlavorE1EEEEEE",
   "parameters" :
   [
    {
     "referenced_type" : "type-190"
    },
    {
     "referenced_type" : "type-817"
    },
    {
     "referenced_type" : "type-977"
    },
    {
     "referenced_type" : "type-263"
    },
    {
     "referenced_type" : "type-1289"
    }
   ],
   "return_type" : "type-599",
   "source_file" : "/out/soong/.intermediates/hardware/interfaces/bluetooth/audio/2.0/android.hardware.bluetooth.audio@2.0_genc++_headers/gen/android/hardware/bluetooth/audio/2.0/BpHwBluetoothAudioProvider.h"
  },
  {
   "function_name" : "android::hardware::bluetooth::audio::V2_0::BpHwBluetoothAudioProvider::_hidl_streamStarted",
   "linker_set_key" : "_ZN7android8hardware9bluetooth5audio4V2_026BpHwBluetoothAudioProvider19_hidl_streamStartedEPNS0_10IInterfaceEPNS0_7details16HidlInstrumentorENS3_6StatusE",
   "parameters" :
   [
    {
     "referenced_type" : "type-190"
    },
    {
     "referenced_type" : "type-817"
    },
    {
     "referenced_type" : "type-1104"
    }
   ],
   "return_type" : "type-599",
   "source_file" : "/out/soong/.intermediates/hardware/interfaces/bluetooth/audio/2.0/android.hardware.bluetooth.audio@2.0_genc++_headers/gen/android/hardware/bluetooth/audio/2.0/BpHwBluetoothAudioProvider.h"
  },
  {
   "function_name" : "android::hardware::bluetooth::audio::V2_0::BpHwBluetoothAudioProvider::interfaceDescriptor",
   "linker_set_key" : "_ZN7android8hardware9bluetooth5audio4V2_026BpHwBluetoothAudioProvider19interfaceDescriptorENSt3__18functionIFvRKNS0_11hidl_stringEEEE",
   "parameters" :
   [
    {
     "is_this_ptr" : true,
     "referenced_type" : "type-1196"
    },
    {
     "referenced_type" : "type-1290"
    }
   ],
   "return_type" : "type-599",
   "source_file" : "/out/soong/.intermediates/hardware/interfaces/bluetooth/audio/2.0/android.hardware.bluetooth.audio@2.0_genc++_headers/gen/android/hardware/bluetooth/audio/2.0/BpHwBluetoothAudioProvider.h"
  },
  {
   "function_name" : "android::hardware::bluetooth::audio::V2_0::BpHwBluetoothAudioProvider::_hidl_streamSuspended",
   "linker_set_key" : "_ZN7android8hardware9bluetooth5audio4V2_026BpHwBluetoothAudioProvider21_hidl_streamSuspendedEPNS0_10IInterfaceEPNS0_7details16HidlInstrumentorENS3_6StatusE",
   "parameters" :
   [
    {
     "referenced_type" : "type-190"
    },
    {
     "referenced_type" : "type-817"
    },
    {
     "referenced_type" : "type-1104"
    }
   ],
   "return_type" : "type-599",
   "source_file" : "/out/soong/.intermediates/hardware/interfaces/bluetooth/audio/2.0/android.hardware.bluetooth.audio@2.0_genc++_headers/gen/android/hardware/bluetooth/audio/2.0/BpHwBluetoothAudioProvider.h"
  },
  {
   "function_name" : "android::hardware::bluetooth::audio::V2_0::BpHwBluetoothAudioProvider::notifySyspropsChanged",
   "linker_set_key" : "_ZN7android8hardware9bluetooth5audio4V2_026BpHwBluetoothAudioProvider21notifySyspropsChangedEv",
   "parameters" :
   [
    {
     "is_this_ptr" : true,
     "referenced_type" : "type-1196"
    }
   ],
   "return_type" : "type-599",
   "source_file" : "/out/soong/.intermediates/hardware/interfaces/bluetooth/audio/2.0/android.hardware.bluetooth.audio@2.0_genc++_headers/gen/android/hardware/bluetooth/audio/2.0/BpHwBluetoothAudioProvider.h"
  },
  {
   "function_name" : "android::hardware::bluetooth::audio::V2_0::BpHwBluetoothAudioProvider::setHALInstrumentation",
   "linker_set_key" : "_ZN7android8hardware9bluetooth5audio4V2_026BpHwBluetoothAudioProvider21setHALInstrumentationEv",
   "parameters" :
   [
    {
     "is_this_ptr" : true,
     "referenced_type" : "type-1196"
    }
   ],
   "return_type" : "type-599",
   "source_file" : "/out/soong/.intermediates/hardware/interfaces/bluetooth/audio/2.0/android.hardware.bluetooth.audio@2.0_genc++_headers/gen/android/hardware/bluetooth/audio/2.0/BpHwBluetoothAudioProvider.h"
  },
  {
   "function_name" : "android::hardware::bluetooth::audio::V2_0::BpHwBluetoothAudioProvider::ping",
   "linker_set_key" : "_ZN7android8hardware9bluetooth5audio4V2_026BpHwBluetoothAudioProvider4pingEv",
   "parameters" :
   [
    {
     "is_this_ptr" : true,
     "referenced_type" : "type-1196"
    }
   ],
   "return_type" : "type-599",
   "source_file" : "/out/soong/.intermediates/hardware/interfaces/bluetooth/audio/2.0/android.hardware.bluetooth.audio@2.0_genc++_headers/gen/android/hardware/bluetooth/audio/2.0/BpHwBluetoothAudioProvider.h"
  },
  {
   "function_name" : "android::hardware::bluetooth::audio::V2_0::BpHwBluetoothAudioProvider::debug",
   "linker_set_key" : "_ZN7android8hardware9bluetooth5audio4V2_026BpHwBluetoothAudioProvider5debugERKNS0_11hidl_handleERKNS0_8hidl_vecINS0_11hidl_stringEEE",
   "parameters" :
   [
    {
     "is_this_ptr" : true,
     "referenced_type" : "type-1196"
    },
    {
     "referenced_type" : "type-855"
    },
    {
     "referenced_type" : "type-1165"
    }
   ],
   "return_type" : "type-599",
   "source_file" : "/out/soong/.intermediates/hardware/interfaces/bluetooth/audio/2.0/android.hardware.bluetooth.audio@2.0_genc++_headers/gen/android/hardware/bluetooth/audio/2.0/BpHwBluetoothAudioProvider.h"
  },
  {
   "function_name" : "android::hardware::bluetooth::audio::V2_0::BpHwBluetoothAudioProvider::BpHwBluetoothAudioProvider",
   "linker_set_key" : "_ZN7android8hardware9bluetooth5audio4V2_026BpHwBluetoothAudioProviderC1ERKNS_2spINS0_7IBinderEEE",
   "parameters" :
   [
    {
     "is_this_ptr" : true,
     "referenced_type" : "type-1196"
    },
    {
     "referenced_type" : "type-220"
    }
   ],
   "return_type" : "type-22",
   "source_file" : "/out/soong/.intermediates/hardware/interfaces/bluetooth/audio/2.0/android.hardware.bluetooth.audio@2.0_genc++_headers/gen/android/hardware/bluetooth/audio/2.0/BpHwBluetoothAudioProvider.h"
  },
  {
   "function_name" : "android::hardware::bluetooth::audio::V2_0::BpHwBluetoothAudioProvider::BpHwBluetoothAudioProvider",
   "linker_set_key" : "_ZN7android8hardware9bluetooth5audio4V2_026BpHwBluetoothAudioProviderC2ERKNS_2spINS0_7IBinderEEE",
   "parameters" :
   [
    {
     "is_this_ptr" : true,
     "referenced_type" : "type-1196"
    },
    {
     "referenced_type" : "type-220"
    }
   ],
   "return_type" : "type-22",
   "source_file" : "/out/soong/.intermediates/hardware/interfaces/bluetooth/audio/2.0/android.hardware.bluetooth.audio@2.0_genc++_headers/gen/android/hardware/bluetooth/audio/2.0/BpHwBluetoothAudioProvider.h"
  },
  {
   "function_name" : "android::hardware::bluetooth::audio::V2_0::IBluetoothAudioProvidersFactory::getService",
   "linker_set_key" : "_ZN7android8hardware9bluetooth5audio4V2_031IBluetoothAudioProvidersFactory10getServiceERKNSt3__112basic_stringIcNS5_11char_traitsIcEENS5_9allocatorIcEEEEb",
   "parameters" :
   [
    {
     "default_arg" : true,
     "referenced_type" : "type-359"
    },
    {
     "default_arg" : true,
     "referenced_type" : "type-13"
    }
   ],
   "return_type" : "type-293",
   "source_file" : "/out/soong/.intermediates/hardware/interfaces/bluetooth/audio/2.0/android.hardware.bluetooth.audio@2.0_genc++_headers/gen/android/hardware/bluetooth/audio/2.0/IBluetoothAudioProvidersFactory.h"
  },
  {
   "function_name" : "android::hardware::bluetooth::audio::V2_0::IBluetoothAudioProvidersFactory::linkToDeath",
   "linker_set_key" : "_ZN7android8hardware9bluetooth5audio4V2_031IBluetoothAudioProvidersFactory11linkToDeathERKNS_2spINS0_20hidl_death_recipientEEEm",
   "parameters" :
   [
    {
     "is_this_ptr" : true,
     "referenced_type" : "type-294"
    },
    {
     "referenced_type" : "type-1185"
    },
    {
     "referenced_type" : "type-12"
    }
   ],
   "return_type" : "type-502",
   "source_file" : "/out/soong/.intermediates/hardware/interfaces/bluetooth/audio/2.0/android.hardware.bluetooth.audio@2.0_genc++_headers/gen/android/hardware/bluetooth/audio/2.0/IBluetoothAudioProvidersFactory.h"
  },
  {
   "function_name" : "android::hardware::bluetooth::audio::V2_0::IBluetoothAudioProvidersFactory::getDebugInfo",
   "linker_set_key" : "_ZN7android8hardware9bluetooth5audio4V2_031IBluetoothAudioProvidersFactory12getDebugInfoENSt3__18functionIFvRKNS_4hidl4base4V1_09DebugInfoEEEE",
   "parameters" :
   [
    {
     "is_this_ptr" : true,
     "referenced_type" : "type-294"
    },
    {
     "referenced_type" : "type-1291"
    }
   ],
   "return_type" : "type-599",
   "source_file" : "/out/soong/.intermediates/hardware/interfaces/bluetooth/audio/2.0/android.hardware.bluetooth.audio@2.0_genc++_headers/gen/android/hardware/bluetooth/audio/2.0/IBluetoothAudioProvidersFactory.h"
  },
  {
   "function_name" : "android::hardware::bluetooth::audio::V2_0::IBluetoothAudioProvidersFactory::getHashChain",
   "linker_set_key" : "_ZN7android8hardware9bluetooth5audio4V2_031IBluetoothAudioProvidersFactory12getHashChainENSt3__18functionIFvRKNS0_8hidl_vecINS0_10hidl_arrayIhLm32EJEEEEEEEE",
   "parameters" :
   [
    {
     "is_this_ptr" : true,
     "referenced_type" : "type-294"
    },
    {
     "referenced_type" : "type-1292"
    }
   ],
   "return_type" : "type-599",
   "source_file" : "/out/soong/.intermediates/hardware/interfaces/bluetooth/audio/2.0/android.hardware.bluetooth.audio@2.0_genc++_headers/gen/android/hardware/bluetooth/audio/2.0/IBluetoothAudioProvidersFactory.h"
  },
  {
   "function_name" : "android::hardware::bluetooth::audio::V2_0::IBluetoothAudioProvidersFactory::tryGetService",
   "linker_set_key" : "_ZN7android8hardware9bluetooth5audio4V2_031IBluetoothAudioProvidersFactory13tryGetServiceERKNSt3__112basic_stringIcNS5_11char_traitsIcEENS5_9allocatorIcEEEEb",
   "parameters" :
   [
    {
     "default_arg" : true,
     "referenced_type" : "type-359"
    },
    {
     "default_arg" : true,
     "referenced_type" : "type-13"
    }
   ],
   "return_type" : "type-293",
   "source_file" : "/out/soong/.intermediates/hardware/interfaces/bluetooth/audio/2.0/android.hardware.bluetooth.audio@2.0_genc++_headers/gen/android/hardware/bluetooth/audio/2.0/IBluetoothAudioProvidersFactory.h"
  },
  {
   "function_name" : "android::hardware::bluetooth::audio::V2_0::IBluetoothAudioProvidersFactory::unlinkToDeath",
   "linker_set_key" : "_ZN7android8hardware9bluetooth5audio4V2_031IBluetoothAudioProvidersFactory13unlinkToDeathERKNS_2spINS0_20hidl_death_recipientEEE",
   "parameters" :
   [
    {
     "is_this_ptr" : true,
     "referenced_type" : "type-294"
    },
    {
     "referenced_type" : "type-1185"
    }
   ],
   "return_type" : "type-502",
   "source_file" : "/out/soong/.intermediates/hardware/interfaces/bluetooth/audio/2.0/android.hardware.bluetooth.audio@2.0_genc++_headers/gen/android/hardware/bluetooth/audio/2.0/IBluetoothAudioProvidersFactory.h"
  },
  {
   "function_name" : "android::hardware::bluetooth::audio::V2_0::IBluetoothAudioProvidersFactory::interfaceChain",
   "linker_set_key" : "_ZN7android8hardware9bluetooth5audio4V2_031IBluetoothAudioProvidersFactory14interfaceChainENSt3__18functionIFvRKNS0_8hidl_vecINS0_11hidl_stringEEEEEE",
   "parameters" :
   [
    {
     "is_this_ptr" : true,
     "referenced_type" : "type-294"
    },
    {
     "referenced_type" : "type-1293"
    }
   ],
   "return_type" : "type-599",
   "source_file" : "/out/soong/.intermediates/hardware/interfaces/bluetooth/audio/2.0/android.hardware.bluetooth.audio@2.0_genc++_headers/gen/android/hardware/bluetooth/audio/2.0/IBluetoothAudioProvidersFactory.h"
  },
  {
   "function_name" : "android::hardware::bluetooth::audio::V2_0::IBluetoothAudioProvidersFactory::registerAsService",
   "linker_set_key" : "_ZN7android8hardware9bluetooth5audio4V2_031IBluetoothAudioProvidersFactory17registerAsServiceERKNSt3__112basic_stringIcNS5_11char_traitsIcEENS5_9allocatorIcEEEE",
   "parameters" :
   [
    {
     "is_this_ptr" : true,
     "referenced_type" : "type-294"
    },
    {
     "default_arg" : true,
     "referenced_type" : "type-359"
    }
   ],
   "return_type" : "type-19",
   "source_file" : "/out/soong/.intermediates/hardware/interfaces/bluetooth/audio/2.0/android.hardware.bluetooth.audio@2.0_genc++_headers/gen/android/hardware/bluetooth/audio/2.0/IBluetoothAudioProvidersFactory.h"
  },
  {
   "function_name" : "android::hardware::bluetooth::audio::V2_0::IBluetoothAudioProvidersFactory::interfaceDescriptor",
   "linker_set_key" : "_ZN7android8hardware9bluetooth5audio4V2_031IBluetoothAudioProvidersFactory19interfaceDescriptorENSt3__18functionIFvRKNS0_11hidl_stringEEEE",
   "parameters" :
   [
    {
     "is_this_ptr" : true,
     "referenced_type" : "type-294"
    },
    {
     "referenced_type" : "type-1294"
    }
   ],
   "return_type" : "type-599",
   "source_file" : "/out/soong/.intermediates/hardware/interfaces/bluetooth/audio/2.0/android.hardware.bluetooth.audio@2.0_genc++_headers/gen/android/hardware/bluetooth/audio/2.0/IBluetoothAudioProvidersFactory.h"
  },
  {
   "function_name" : "android::hardware::bluetooth::audio::V2_0::IBluetoothAudioProvidersFactory::notifySyspropsChanged",
   "linker_set_key" : "_ZN7android8hardware9bluetooth5audio4V2_031IBluetoothAudioProvidersFactory21notifySyspropsChangedEv",
   "parameters" :
   [
    {
     "is_this_ptr" : true,
     "referenced_type" : "type-294"
    }
   ],
   "return_type" : "type-599",
   "source_file" : "/out/soong/.intermediates/hardware/interfaces/bluetooth/audio/2.0/android.hardware.bluetooth.audio@2.0_genc++_headers/gen/android/hardware/bluetooth/audio/2.0/IBluetoothAudioProvidersFactory.h"
  },
  {
   "function_name" : "android::hardware::bluetooth::audio::V2_0::IBluetoothAudioProvidersFactory::setHALInstrumentation",
   "linker_set_key" : "_ZN7android8hardware9bluetooth5audio4V2_031IBluetoothAudioProvidersFactory21setHALInstrumentationEv",
   "parameters" :
   [
    {
     "is_this_ptr" : true,
     "referenced_type" : "type-294"
    }
   ],
   "return_type" : "type-599",
   "source_file" : "/out/soong/.intermediates/hardware/interfaces/bluetooth/audio/2.0/android.hardware.bluetooth.audio@2.0_genc++_headers/gen/android/hardware/bluetooth/audio/2.0/IBluetoothAudioProvidersFactory.h"
  },
  {
   "function_name" : "android::hardware::bluetooth::audio::V2_0::IBluetoothAudioProvidersFactory::registerForNotifications",
   "linker_set_key" : "_ZN7android8hardware9bluetooth5audio4V2_031IBluetoothAudioProvidersFactory24registerForNotificationsERKNSt3__112basic_stringIcNS5_11char_traitsIcEENS5_9allocatorIcEEEERKNS_2spINS_4hidl7manager4V1_020IServiceNotificationEEE",
   "parameters" :
   [
    {
     "referenced_type" : "type-359"
    },
    {
     "referenced_type" : "type-1166"
    }
   ],
   "return_type" : "type-13",
   "source_file" : "/out/soong/.intermediates/hardware/interfaces/bluetooth/audio/2.0/android.hardware.bluetooth.audio@2.0_genc++_headers/gen/android/hardware/bluetooth/audio/2.0/IBluetoothAudioProvidersFactory.h"
  },
  {
   "function_name" : "android::hardware::bluetooth::audio::V2_0::IBluetoothAudioProvidersFactory::ping",
   "linker_set_key" : "_ZN7android8hardware9bluetooth5audio4V2_031IBluetoothAudioProvidersFactory4pingEv",
   "parameters" :
   [
    {
     "is_this_ptr" : true,
     "referenced_type" : "type-294"
    }
   ],
   "return_type" : "type-599",
   "source_file" : "/out/soong/.intermediates/hardware/interfaces/bluetooth/audio/2.0/android.hardware.bluetooth.audio@2.0_genc++_headers/gen/android/hardware/bluetooth/audio/2.0/IBluetoothAudioProvidersFactory.h"
  },
  {
   "function_name" : "android::hardware::bluetooth::audio::V2_0::IBluetoothAudioProvidersFactory::debug",
   "linker_set_key" : "_ZN7android8hardware9bluetooth5audio4V2_031IBluetoothAudioProvidersFactory5debugERKNS0_11hidl_handleERKNS0_8hidl_vecINS0_11hidl_stringEEE",
   "parameters" :
   [
    {
     "is_this_ptr" : true,
     "referenced_type" : "type-294"
    },
    {
     "referenced_type" : "type-855"
    },
    {
     "referenced_type" : "type-1165"
    }
   ],
   "return_type" : "type-599",
   "source_file" : "/out/soong/.intermediates/hardware/interfaces/bluetooth/audio/2.0/android.hardware.bluetooth.audio@2.0_genc++_headers/gen/android/hardware/bluetooth/audio/2.0/IBluetoothAudioProvidersFactory.h"
  },
  {
   "function_name" : "android::hardware::bluetooth::audio::V2_0::IBluetoothAudioProvidersFactory::castFrom",
   "linker_set_key" : "_ZN7android8hardware9bluetooth5audio4V2_031IBluetoothAudioProvidersFactory8castFromERKNS_2spINS_4hidl4base4V1_05IBaseEEEb",
   "parameters" :
   [
    {
     "referenced_type" : "type-61"
    },
    {
     "default_arg" : true,
     "referenced_type" : "type-13"
    }
   ],
   "return_type" : "type-311",
   "source_file" : "/out/soong/.intermediates/hardware/interfaces/bluetooth/audio/2.0/android.hardware.bluetooth.audio@2.0_genc++_headers/gen/android/hardware/bluetooth/audio/2.0/IBluetoothAudioProvidersFactory.h"
  },
  {
   "function_name" : "android::hardware::bluetooth::audio::V2_0::IBluetoothAudioProvidersFactory::castFrom",
   "linker_set_key" : "_ZN7android8hardware9bluetooth5audio4V2_031IBluetoothAudioProvidersFactory8castFromERKNS_2spIS4_EEb",
   "parameters" :
   [
    {
     "referenced_type" : "type-296"
    },
    {
     "default_arg" : true,
     "referenced_type" : "type-13"
    }
   ],
   "return_type" : "type-311",
   "source_file" : "/out/soong/.intermediates/hardware/interfaces/bluetooth/audio/2.0/android.hardware.bluetooth.audio@2.0_genc++_headers/gen/android/hardware/bluetooth/audio/2.0/IBluetoothAudioProvidersFactory.h"
  },
  {
   "access" : "private",
   "function_name" : "android::hardware::bluetooth::audio::V2_0::BsBluetoothAudioProvidersFactory::addOnewayTask",
   "linker_set_key" : "_ZN7android8hardware9bluetooth5audio4V2_032BsBluetoothAudioProvidersFactory13addOnewayTaskENSt3__18functionIFvvEEE",
   "parameters" :
   [
    {
     "is_this_ptr" : true,
     "referenced_type" : "type-301"
    },
    {
     "referenced_type" : "type-1298"
    }
   ],
   "return_type" : "type-599",
   "source_file" : "/out/soong/.intermediates/hardware/interfaces/bluetooth/audio/2.0/android.hardware.bluetooth.audio@2.0_genc++_headers/gen/android/hardware/bluetooth/audio/2.0/BsBluetoothAudioProvidersFactory.h"
  },
  {
   "function_name" : "android::hardware::bluetooth::audio::V2_0::BsBluetoothAudioProvidersFactory::BsBluetoothAudioProvidersFactory",
   "linker_set_key" : "_ZN7android8hardware9bluetooth5audio4V2_032BsBluetoothAudioProvidersFactoryC1ENS_2spINS3_31IBluetoothAudioProvidersFactoryEEE",
   "parameters" :
   [
    {
     "is_this_ptr" : true,
     "referenced_type" : "type-301"
    },
    {
     "referenced_type" : "type-292"
    }
   ],
   "return_type" : "type-22",
   "source_file" : "/out/soong/.intermediates/hardware/interfaces/bluetooth/audio/2.0/android.hardware.bluetooth.audio@2.0_genc++_headers/gen/android/hardware/bluetooth/audio/2.0/BsBluetoothAudioProvidersFactory.h"
  },
  {
   "function_name" : "android::hardware::bluetooth::audio::V2_0::BsBluetoothAudioProvidersFactory::BsBluetoothAudioProvidersFactory",
   "linker_set_key" : "_ZN7android8hardware9bluetooth5audio4V2_032BsBluetoothAudioProvidersFactoryC2ENS_2spINS3_31IBluetoothAudioProvidersFactoryEEE",
   "parameters" :
   [
    {
     "is_this_ptr" : true,
     "referenced_type" : "type-301"
    },
    {
     "referenced_type" : "type-292"
    }
   ],
   "return_type" : "type-22",
   "source_file" : "/out/soong/.intermediates/hardware/interfaces/bluetooth/audio/2.0/android.hardware.bluetooth.audio@2.0_genc++_headers/gen/android/hardware/bluetooth/audio/2.0/BsBluetoothAudioProvidersFactory.h"
  },
  {
   "function_name" : "android::hardware::bluetooth::audio::V2_0::BnHwBluetoothAudioProvidersFactory::onTransact",
   "linker_set_key" : "_ZN7android8hardware9bluetooth5audio4V2_034BnHwBluetoothAudioProvidersFactory10onTransactEjRKNS0_6ParcelEPS5_jNSt3__18functionIFvRS5_EEE",
   "parameters" :
   [
    {
     "is_this_ptr" : true,
     "referenced_type" : "type-299"
    },
    {
     "referenced_type" : "type-2"
    },
    {
     "referenced_type" : "type-898"
    },
    {
     "referenced_type" : "type-891"
    },
    {
     "default_arg" : true,
     "referenced_type" : "type-2"
    },
    {
     "default_arg" : true,
     "referenced_type" : "type-1302"
    }
   ],
   "return_type" : "type-19",
   "source_file" : "/out/soong/.intermediates/hardware/interfaces/bluetooth/audio/2.0/android.hardware.bluetooth.audio@2.0_genc++_headers/gen/android/hardware/bluetooth/audio/2.0/BnHwBluetoothAudioProvidersFactory.h"
  },
  {
   "access" : "private",
   "function_name" : "android::hardware::bluetooth::audio::V2_0::BnHwBluetoothAudioProvidersFactory::getDebugInfo",
   "linker_set_key" : "_ZN7android8hardware9bluetooth5audio4V2_034BnHwBluetoothAudioProvidersFactory12getDebugInfoENSt3__18functionIFvRKNS_4hidl4base4V1_09DebugInfoEEEE",
   "parameters" :
   [
    {
     "is_this_ptr" : true,
     "referenced_type" : "type-299"
    },
    {
     "referenced_type" : "type-1303"
    }
   ],
   "return_type" : "type-599",
   "source_file" : "/out/soong/.intermediates/hardware/interfaces/bluetooth/audio/2.0/android.hardware.bluetooth.audio@2.0_genc++_headers/gen/android/hardware/bluetooth/audio/2.0/BnHwBluetoothAudioProvidersFactory.h"
  },
  {
   "function_name" : "android::hardware::bluetooth::audio::V2_0::BnHwBluetoothAudioProvidersFactory::_hidl_openProvider",
   "linker_set_key" : "_ZN7android8hardware9bluetooth5audio4V2_034BnHwBluetoothAudioProvidersFactory18_hidl_openProviderEPNS_4hidl4base4V1_08BnHwBaseERKNS0_6ParcelEPSA_NSt3__18functionIFvRSA_EEE",
   "parameters" :
   [
    {
     "referenced_type" : "type-900"
    },
    {
     "referenced_type" : "type-898"
    },
    {
     "referenced_type" : "type-891"
    },
    {
     "referenced_type" : "type-1304"
    }
   ],
   "return_type" : "type-19",
   "source_file" : "/out/soong/.intermediates/hardware/interfaces/bluetooth/audio/2.0/android.hardware.bluetooth.audio@2.0_genc++_headers/gen/android/hardware/bluetooth/audio/2.0/BnHwBluetoothAudioProvidersFactory.h"
  },
  {
   "function_name" : "android::hardware::bluetooth::audio::V2_0::BnHwBluetoothAudioProvidersFactory::_hidl_getProviderCapabilities",
   "linker_set_key" : "_ZN7android8hardware9bluetooth5audio4V2_034BnHwBluetoothAudioProvidersFactory29_hidl_getProviderCapabilitiesEPNS_4hidl4base4V1_08BnHwBaseERKNS0_6ParcelEPSA_NSt3__18functionIFvRSA_EEE",
   "parameters" :
   [
    {
     "referenced_type" : "type-900"
    },
    {
     "referenced_type" : "type-898"
    },
    {
     "referenced_type" : "type-891"
    },
    {
     "referenced_type" : "type-1305"
    }
   ],
   "return_type" : "type-19",
   "source_file" : "/out/soong/.intermediates/hardware/interfaces/bluetooth/audio/2.0/android.hardware.bluetooth.audio@2.0_genc++_headers/gen/android/hardware/bluetooth/audio/2.0/BnHwBluetoothAudioProvidersFactory.h"
  },
  {
   "access" : "private",
   "function_name" : "android::hardware::bluetooth::audio::V2_0::BnHwBluetoothAudioProvidersFactory::ping",
   "linker_set_key" : "_ZN7android8hardware9bluetooth5audio4V2_034BnHwBluetoothAudioProvidersFactory4pingEv",
   "parameters" :
   [
    {
     "is_this_ptr" : true,
     "referenced_type" : "type-299"
    }
   ],
   "return_type" : "type-599",
   "source_file" : "/out/soong/.intermediates/hardware/interfaces/bluetooth/audio/2.0/android.hardware.bluetooth.audio@2.0_genc++_headers/gen/android/hardware/bluetooth/audio/2.0/BnHwBluetoothAudioProvidersFactory.h"
  },
  {
   "function_name" : "android::hardware::bluetooth::audio::V2_0::BnHwBluetoothAudioProvidersFactory::BnHwBluetoothAudioProvidersFactory",
   "linker_set_key" : "_ZN7android8hardware9bluetooth5audio4V2_034BnHwBluetoothAudioProvidersFactoryC1ERKNS_2spINS3_31IBluetoothAudioProvidersFactoryEEE",
   "parameters" :
   [
    {
     "is_this_ptr" : true,
     "referenced_type" : "type-299"
    },
    {
     "referenced_type" : "type-296"
    }
   ],
   "return_type" : "type-22",
   "source_file" : "/out/soong/.intermediates/hardware/interfaces/bluetooth/audio/2.0/android.hardware.bluetooth.audio@2.0_genc++_headers/gen/android/hardware/bluetooth/audio/2.0/BnHwBluetoothAudioProvidersFactory.h"
  },
  {
   "function_name" : "android::hardware::bluetooth::audio::V2_0::BnHwBluetoothAudioProvidersFactory::BnHwBluetoothAudioProvidersFactory",
   "linker_set_key" : "_ZN7android8hardware9bluetooth5audio4V2_034BnHwBluetoothAudioProvidersFactoryC2ERKNS_2spINS3_31IBluetoothAudioProvidersFactoryEEE",
   "parameters" :
   [
    {
     "is_this_ptr" : true,
     "referenced_type" : "type-299"
    },
    {
     "referenced_type" : "type-296"
    }
   ],
   "return_type" : "type-22",
   "source_file" : "/out/soong/.intermediates/hardware/interfaces/bluetooth/audio/2.0/android.hardware.bluetooth.audio@2.0_genc++_headers/gen/android/hardware/bluetooth/audio/2.0/BnHwBluetoothAudioProvidersFactory.h"
  },
  {
   "function_name" : "android::hardware::bluetooth::audio::V2_0::BnHwBluetoothAudioProvidersFactory::~BnHwBluetoothAudioProvidersFactory",
   "linker_set_key" : "_ZN7android8hardware9bluetooth5audio4V2_034BnHwBluetoothAudioProvidersFactoryD0Ev",
   "parameters" :
   [
    {
     "is_this_ptr" : true,
     "referenced_type" : "type-299"
    }
   ],
   "return_type" : "type-22",
   "source_file" : "/out/soong/.intermediates/hardware/interfaces/bluetooth/audio/2.0/android.hardware.bluetooth.audio@2.0_genc++_headers/gen/android/hardware/bluetooth/audio/2.0/BnHwBluetoothAudioProvidersFactory.h"
  },
  {
   "function_name" : "android::hardware::bluetooth::audio::V2_0::BnHwBluetoothAudioProvidersFactory::~BnHwBluetoothAudioProvidersFactory",
   "linker_set_key" : "_ZN7android8hardware9bluetooth5audio4V2_034BnHwBluetoothAudioProvidersFactoryD1Ev",
   "parameters" :
   [
    {
     "is_this_ptr" : true,
     "referenced_type" : "type-299"
    }
   ],
   "return_type" : "type-22",
   "source_file" : "/out/soong/.intermediates/hardware/interfaces/bluetooth/audio/2.0/android.hardware.bluetooth.audio@2.0_genc++_headers/gen/android/hardware/bluetooth/audio/2.0/BnHwBluetoothAudioProvidersFactory.h"
  },
  {
   "function_name" : "android::hardware::bluetooth::audio::V2_0::BnHwBluetoothAudioProvidersFactory::~BnHwBluetoothAudioProvidersFactory",
   "linker_set_key" : "_ZN7android8hardware9bluetooth5audio4V2_034BnHwBluetoothAudioProvidersFactoryD2Ev",
   "parameters" :
   [
    {
     "is_this_ptr" : true,
     "referenced_type" : "type-299"
    }
   ],
   "return_type" : "type-22",
   "source_file" : "/out/soong/.intermediates/hardware/interfaces/bluetooth/audio/2.0/android.hardware.bluetooth.audio@2.0_genc++_headers/gen/android/hardware/bluetooth/audio/2.0/BnHwBluetoothAudioProvidersFactory.h"
  },
  {
   "function_name" : "android::hardware::bluetooth::audio::V2_0::BpHwBluetoothAudioProvidersFactory::linkToDeath",
   "linker_set_key" : "_ZN7android8hardware9bluetooth5audio4V2_034BpHwBluetoothAudioProvidersFactory11linkToDeathERKNS_2spINS0_20hidl_death_recipientEEEm",
   "parameters" :
   [
    {
     "is_this_ptr" : true,
     "referenced_type" : "type-306"
    },
    {
     "referenced_type" : "type-1185"
    },
    {
     "referenced_type" : "type-12"
    }
   ],
   "return_type" : "type-502",
   "source_file" : "/out/soong/.intermediates/hardware/interfaces/bluetooth/audio/2.0/android.hardware.bluetooth.audio@2.0_genc++_headers/gen/android/hardware/bluetooth/audio/2.0/BpHwBluetoothAudioProvidersFactory.h"
  },
  {
   "function_name" : "android::hardware::bluetooth::audio::V2_0::BpHwBluetoothAudioProvidersFactory::getDebugInfo",
   "linker_set_key" : "_ZN7android8hardware9bluetooth5audio4V2_034BpHwBluetoothAudioProvidersFactory12getDebugInfoENSt3__18functionIFvRKNS_4hidl4base4V1_09DebugInfoEEEE",
   "parameters" :
   [
    {
     "is_this_ptr" : true,
     "referenced_type" : "type-306"
    },
    {
     "referenced_type" : "type-1306"
    }
   ],
   "return_type" : "type-599",
   "source_file" : "/out/soong/.intermediates/hardware/interfaces/bluetooth/audio/2.0/android.hardware.bluetooth.audio@2.0_genc++_headers/gen/android/hardware/bluetooth/audio/2.0/BpHwBluetoothAudioProvidersFactory.h"
  },
  {
   "function_name" : "android::hardware::bluetooth::audio::V2_0::BpHwBluetoothAudioProvidersFactory::getHashChain",
   "linker_set_key" : "_ZN7android8hardware9bluetooth5audio4V2_034BpHwBluetoothAudioProvidersFactory12getHashChainENSt3__18functionIFvRKNS0_8hidl_vecINS0_10hidl_arrayIhLm32EJEEEEEEEE",
   "parameters" :
   [
    {
     "is_this_ptr" : true,
     "referenced_type" : "type-306"
    },
    {
     "referenced_type" : "type-1307"
    }
   ],
   "return_type" : "type-599",
   "source_file" : "/out/soong/.intermediates/hardware/interfaces/bluetooth/audio/2.0/android.hardware.bluetooth.audio@2.0_genc++_headers/gen/android/hardware/bluetooth/audio/2.0/BpHwBluetoothAudioProvidersFactory.h"
  },
  {
   "function_name" : "android::hardware::bluetooth::audio::V2_0::BpHwBluetoothAudioProvidersFactory::openProvider",
   "linker_set_key" : "_ZN7android8hardware9bluetooth5audio4V2_034BpHwBluetoothAudioProvidersFactory12openProviderENS3_11SessionTypeENSt3__18functionIFvNS3_6StatusERKNS_2spINS3_23IBluetoothAudioProviderEEEEEE",
   "parameters" :
   [
    {
     "is_this_ptr" : true,
     "referenced_type" : "type-306"
    },
    {
     "referenced_type" : "type-1105"
    },
    {
     "referenced_type" : "type-1308"
    }
   ],
   "return_type" : "type-599",
   "source_file" : "/out/soong/.intermediates/hardware/interfaces/bluetooth/audio/2.0/android.hardware.bluetooth.audio@2.0_genc++_headers/gen/android/hardware/bluetooth/audio/2.0/BpHwBluetoothAudioProvidersFactory.h"
  },
  {
   "function_name" : "android::hardware::bluetooth::audio::V2_0::BpHwBluetoothAudioProvidersFactory::unlinkToDeath",
   "linker_set_key" : "_ZN7android8hardware9bluetooth5audio4V2_034BpHwBluetoothAudioProvidersFactory13unlinkToDeathERKNS_2spINS0_20hidl_death_recipientEEE",
   "parameters" :
   [
    {
     "is_this_ptr" : true,
     "referenced_type" : "type-306"
    },
    {
     "referenced_type" : "type-1185"
    }
   ],
   "return_type" : "type-502",
   "source_file" : "/out/soong/.intermediates/hardware/interfaces/bluetooth/audio/2.0/android.hardware.bluetooth.audio@2.0_genc++_headers/gen/android/hardware/bluetooth/audio/2.0/BpHwBluetoothAudioProvidersFactory.h"
  },
  {
   "function_name" : "android::hardware::bluetooth::audio::V2_0::BpHwBluetoothAudioProvidersFactory::interfaceChain",
   "linker_set_key" : "_ZN7android8hardware9bluetooth5audio4V2_034BpHwBluetoothAudioProvidersFactory14interfaceChainENSt3__18functionIFvRKNS0_8hidl_vecINS0_11hidl_stringEEEEEE",
   "parameters" :
   [
    {
     "is_this_ptr" : true,
     "referenced_type" : "type-306"
    },
    {
     "referenced_type" : "type-1309"
    }
   ],
   "return_type" : "type-599",
   "source_file" : "/out/soong/.intermediates/hardware/interfaces/bluetooth/audio/2.0/android.hardware.bluetooth.audio@2.0_genc++_headers/gen/android/hardware/bluetooth/audio/2.0/BpHwBluetoothAudioProvidersFactory.h"
  },
  {
   "function_name" : "android::hardware::bluetooth::audio::V2_0::BpHwBluetoothAudioProvidersFactory::_hidl_openProvider",
   "linker_set_key" : "_ZN7android8hardware9bluetooth5audio4V2_034BpHwBluetoothAudioProvidersFactory18_hidl_openProviderEPNS0_10IInterfaceEPNS0_7details16HidlInstrumentorENS3_11SessionTypeENSt3__18functionIFvNS3_6StatusERKNS_2spINS3_23IBluetoothAudioProviderEEEEEE",
   "parameters" :
   [
    {
     "referenced_type" : "type-190"
    },
    {
     "referenced_type" : "type-817"
    },
    {
     "referenced_type" : "type-1105"
    },
    {
     "referenced_type" : "type-1310"
    }
   ],
   "return_type" : "type-599",
   "source_file" : "/out/soong/.intermediates/hardware/interfaces/bluetooth/audio/2.0/android.hardware.bluetooth.audio@2.0_genc++_headers/gen/android/hardware/bluetooth/audio/2.0/BpHwBluetoothAudioProvidersFactory.h"
  },
  {
   "function_name" : "android::hardware::bluetooth::audio::V2_0::BpHwBluetoothAudioProvidersFactory::interfaceDescriptor",
   "linker_set_key" : "_ZN7android8hardware9bluetooth5audio4V2_034BpHwBluetoothAudioProvidersFactory19interfaceDescriptorENSt3__18functionIFvRKNS0_11hidl_stringEEEE",
   "parameters" :
   [
    {
     "is_this_ptr" : true,
     "referenced_type" : "type-306"
    },
    {
     "referenced_type" : "type-1311"
    }
   ],
   "return_type" : "type-599",
   "source_file" : "/out/soong/.intermediates/hardware/interfaces/bluetooth/audio/2.0/android.hardware.bluetooth.audio@2.0_genc++_headers/gen/android/hardware/bluetooth/audio/2.0/BpHwBluetoothAudioProvidersFactory.h"
  },
  {
   "function_name" : "android::hardware::bluetooth::audio::V2_0::BpHwBluetoothAudioProvidersFactory::notifySyspropsChanged",
   "linker_set_key" : "_ZN7android8hardware9bluetooth5audio4V2_034BpHwBluetoothAudioProvidersFactory21notifySyspropsChangedEv",
   "parameters" :
   [
    {
     "is_this_ptr" : true,
     "referenced_type" : "type-306"
    }
   ],
   "return_type" : "type-599",
   "source_file" : "/out/soong/.intermediates/hardware/interfaces/bluetooth/audio/2.0/android.hardware.bluetooth.audio@2.0_genc++_headers/gen/android/hardware/bluetooth/audio/2.0/BpHwBluetoothAudioProvidersFactory.h"
  },
  {
   "function_name" : "android::hardware::bluetooth::audio::V2_0::BpHwBluetoothAudioProvidersFactory::setHALInstrumentation",
   "linker_set_key" : "_ZN7android8hardware9bluetooth5audio4V2_034BpHwBluetoothAudioProvidersFactory21setHALInstrumentationEv",
   "parameters" :
   [
    {
     "is_this_ptr" : true,
     "referenced_type" : "type-306"
    }
   ],
   "return_type" : "type-599",
   "source_file" : "/out/soong/.intermediates/hardware/interfaces/bluetooth/audio/2.0/android.hardware.bluetooth.audio@2.0_genc++_headers/gen/android/hardware/bluetooth/audio/2.0/BpHwBluetoothAudioProvidersFactory.h"
  },
  {
   "function_name" : "android::hardware::bluetooth::audio::V2_0::BpHwBluetoothAudioProvidersFactory::getProviderCapabilities",
   "linker_set_key" : "_ZN7android8hardware9bluetooth5audio4V2_034BpHwBluetoothAudioProvidersFactory23getProviderCapabilitiesENS3_11SessionTypeENSt3__18functionIFvRKNS0_8hidl_vecINS3_17AudioCapabilitiesEEEEEE",
   "parameters" :
   [
    {
     "is_this_ptr" : true,
     "referenced_type" : "type-306"
    },
    {
     "referenced_type" : "type-1105"
    },
    {
     "referenced_type" : "type-1312"
    }
   ],
   "return_type" : "type-599",
   "source_file" : "/out/soong/.intermediates/hardware/interfaces/bluetooth/audio/2.0/android.hardware.bluetooth.audio@2.0_genc++_headers/gen/android/hardware/bluetooth/audio/2.0/BpHwBluetoothAudioProvidersFactory.h"
  },
  {
   "function_name" : "android::hardware::bluetooth::audio::V2_0::BpHwBluetoothAudioProvidersFactory::_hidl_getProviderCapabilities",
   "linker_set_key" : "_ZN7android8hardware9bluetooth5audio4V2_034BpHwBluetoothAudioProvidersFactory29_hidl_getProviderCapabilitiesEPNS0_10IInterfaceEPNS0_7details16HidlInstrumentorENS3_11SessionTypeENSt3__18functionIFvRKNS0_8hidl_vecINS3_17AudioCapabilitiesEEEEEE",
   "parameters" :
   [
    {
     "referenced_type" : "type-190"
    },
    {
     "referenced_type" : "type-817"
    },
    {
     "referenced_type" : "type-1105"
    },
    {
     "referenced_type" : "type-1313"
    }
   ],
   "return_type" : "type-599",
   "source_file" : "/out/soong/.intermediates/hardware/interfaces/bluetooth/audio/2.0/android.hardware.bluetooth.audio@2.0_genc++_headers/gen/android/hardware/bluetooth/audio/2.0/BpHwBluetoothAudioProvidersFactory.h"
  },
  {
   "function_name" : "android::hardware::bluetooth::audio::V2_0::BpHwBluetoothAudioProvidersFactory::ping",
   "linker_set_key" : "_ZN7android8hardware9bluetooth5audio4V2_034BpHwBluetoothAudioProvidersFactory4pingEv",
   "parameters" :
   [
    {
     "is_this_ptr" : true,
     "referenced_type" : "type-306"
    }
   ],
   "return_type" : "type-599",
   "source_file" : "/out/soong/.intermediates/hardware/interfaces/bluetooth/audio/2.0/android.hardware.bluetooth.audio@2.0_genc++_headers/gen/android/hardware/bluetooth/audio/2.0/BpHwBluetoothAudioProvidersFactory.h"
  },
  {
   "function_name" : "android::hardware::bluetooth::audio::V2_0::BpHwBluetoothAudioProvidersFactory::debug",
   "linker_set_key" : "_ZN7android8hardware9bluetooth5audio4V2_034BpHwBluetoothAudioProvidersFactory5debugERKNS0_11hidl_handleERKNS0_8hidl_vecINS0_11hidl_stringEEE",
   "parameters" :
   [
    {
     "is_this_ptr" : true,
     "referenced_type" : "type-306"
    },
    {
     "referenced_type" : "type-855"
    },
    {
     "referenced_type" : "type-1165"
    }
   ],
   "return_type" : "type-599",
   "source_file" : "/out/soong/.intermediates/hardware/interfaces/bluetooth/audio/2.0/android.hardware.bluetooth.audio@2.0_genc++_headers/gen/android/hardware/bluetooth/audio/2.0/BpHwBluetoothAudioProvidersFactory.h"
  },
  {
   "function_name" : "android::hardware::bluetooth::audio::V2_0::BpHwBluetoothAudioProvidersFactory::BpHwBluetoothAudioProvidersFactory",
   "linker_set_key" : "_ZN7android8hardware9bluetooth5audio4V2_034BpHwBluetoothAudioProvidersFactoryC1ERKNS_2spINS0_7IBinderEEE",
   "parameters" :
   [
    {
     "is_this_ptr" : true,
     "referenced_type" : "type-306"
    },
    {
     "referenced_type" : "type-220"
    }
   ],
   "return_type" : "type-22",
   "source_file" : "/out/soong/.intermediates/hardware/interfaces/bluetooth/audio/2.0/android.hardware.bluetooth.audio@2.0_genc++_headers/gen/android/hardware/bluetooth/audio/2.0/BpHwBluetoothAudioProvidersFactory.h"
  },
  {
   "function_name" : "android::hardware::bluetooth::audio::V2_0::BpHwBluetoothAudioProvidersFactory::BpHwBluetoothAudioProvidersFactory",
   "linker_set_key" : "_ZN7android8hardware9bluetooth5audio4V2_034BpHwBluetoothAudioProvidersFactoryC2ERKNS_2spINS0_7IBinderEEE",
   "parameters" :
   [
    {
     "is_this_ptr" : true,
     "referenced_type" : "type-306"
    },
    {
     "referenced_type" : "type-220"
    }
   ],
   "return_type" : "type-22",
   "source_file" : "/out/soong/.intermediates/hardware/interfaces/bluetooth/audio/2.0/android.hardware.bluetooth.audio@2.0_genc++_headers/gen/android/hardware/bluetooth/audio/2.0/BpHwBluetoothAudioProvidersFactory.h"
  },
  {
   "function_name" : "android::hardware::bluetooth::audio::V2_0::AudioCapabilities::pcmCapabilities",
   "linker_set_key" : "_ZNK7android8hardware9bluetooth5audio4V2_017AudioCapabilities15pcmCapabilitiesEv",
   "parameters" :
   [
    {
     "is_this_ptr" : true,
     "referenced_type" : "type-1109"
    }
   ],
   "return_type" : "type-523",
   "source_file" : "/out/soong/.intermediates/hardware/interfaces/bluetooth/audio/2.0/android.hardware.bluetooth.audio@2.0_genc++_headers/gen/android/hardware/bluetooth/audio/2.0/types.h"
  },
  {
   "function_name" : "android::hardware::bluetooth::audio::V2_0::AudioCapabilities::getDiscriminator",
   "linker_set_key" : "_ZNK7android8hardware9bluetooth5audio4V2_017AudioCapabilities16getDiscriminatorEv",
   "parameters" :
   [
    {
     "is_this_ptr" : true,
     "referenced_type" : "type-1109"
    }
   ],
   "return_type" : "type-332",
   "source_file" : "/out/soong/.intermediates/hardware/interfaces/bluetooth/audio/2.0/android.hardware.bluetooth.audio@2.0_genc++_headers/gen/android/hardware/bluetooth/audio/2.0/types.h"
  },
  {
   "function_name" : "android::hardware::bluetooth::audio::V2_0::AudioCapabilities::codecCapabilities",
   "linker_set_key" : "_ZNK7android8hardware9bluetooth5audio4V2_017AudioCapabilities17codecCapabilitiesEv",
   "parameters" :
   [
    {
     "is_this_ptr" : true,
     "referenced_type" : "type-1109"
    }
   ],
   "return_type" : "type-527",
   "source_file" : "/out/soong/.intermediates/hardware/interfaces/bluetooth/audio/2.0/android.hardware.bluetooth.audio@2.0_genc++_headers/gen/android/hardware/bluetooth/audio/2.0/types.h"
  },
  {
   "function_name" : "android::hardware::bluetooth::audio::V2_0::CodecCapabilities::Capabilities::aacCapabilities",
   "linker_set_key" : "_ZNK7android8hardware9bluetooth5audio4V2_017CodecCapabilities12Capabilities15aacCapabilitiesEv",
   "parameters" :
   [
    {
     "is_this_ptr" : true,
     "referenced_type" : "type-1107"
    }
   ],
   "return_type" : "type-504",
   "source_file" : "/out/soong/.intermediates/hardware/interfaces/bluetooth/audio/2.0/android.hardware.bluetooth.audio@2.0_genc++_headers/gen/android/hardware/bluetooth/audio/2.0/types.h"
  },
  {
   "function_name" : "android::hardware::bluetooth::audio::V2_0::CodecCapabilities::Capabilities::sbcCapabilities",
   "linker_set_key" : "_ZNK7android8hardware9bluetooth5audio4V2_017CodecCapabilities12Capabilities15sbcCapabilitiesEv",
   "parameters" :
   [
    {
     "is_this_ptr" : true,
     "referenced_type" : "type-1107"
    }
   ],
   "return_type" : "type-499",
   "source_file" : "/out/soong/.intermediates/hardware/interfaces/bluetooth/audio/2.0/android.hardware.bluetooth.audio@2.0_genc++_headers/gen/android/hardware/bluetooth/audio/2.0/types.h"
  },
  {
   "function_name" : "android::hardware::bluetooth::audio::V2_0::CodecCapabilities::Capabilities::aptxCapabilities",
   "linker_set_key" : "_ZNK7android8hardware9bluetooth5audio4V2_017CodecCapabilities12Capabilities16aptxCapabilitiesEv",
   "parameters" :
   [
    {
     "is_this_ptr" : true,
     "referenced_type" : "type-1107"
    }
   ],
   "return_type" : "type-513",
   "source_file" : "/out/soong/.intermediates/hardware/interfaces/bluetooth/audio/2.0/android.hardware.bluetooth.audio@2.0_genc++_headers/gen/android/hardware/bluetooth/audio/2.0/types.h"
  },
  {
   "function_name" : "android::hardware::bluetooth::audio::V2_0::CodecCapabilities::Capabilities::getDiscriminator",
   "linker_set_key" : "_ZNK7android8hardware9bluetooth5audio4V2_017CodecCapabilities12Capabilities16getDiscriminatorEv",
   "parameters" :
   [
    {
     "is_this_ptr" : true,
     "referenced_type" : "type-1107"
    }
   ],
   "return_type" : "type-336",
   "source_file" : "/out/soong/.intermediates/hardware/interfaces/bluetooth/audio/2.0/android.hardware.bluetooth.audio@2.0_genc++_headers/gen/android/hardware/bluetooth/audio/2.0/types.h"
  },
  {
   "function_name" : "android::hardware::bluetooth::audio::V2_0::CodecCapabilities::Capabilities::ldacCapabilities",
   "linker_set_key" : "_ZNK7android8hardware9bluetooth5audio4V2_017CodecCapabilities12Capabilities16ldacCapabilitiesEv",
   "parameters" :
   [
    {
     "is_this_ptr" : true,
     "referenced_type" : "type-1107"
    }
   ],
   "return_type" : "type-508",
   "source_file" : "/out/soong/.intermediates/hardware/interfaces/bluetooth/audio/2.0/android.hardware.bluetooth.audio@2.0_genc++_headers/gen/android/hardware/bluetooth/audio/2.0/types.h"
  },
  {
   "function_name" : "android::hardware::bluetooth::audio::V2_0::AudioConfiguration::codecConfig",
   "linker_set_key" : "_ZNK7android8hardware9bluetooth5audio4V2_018AudioConfiguration11codecConfigEv",
   "parameters" :
   [
    {
     "is_this_ptr" : true,
     "referenced_type" : "type-1112"
    }
   ],
   "return_type" : "type-550",
   "source_file" : "/out/soong/.intermediates/hardware/interfaces/bluetooth/audio/2.0/android.hardware.bluetooth.audio@2.0_genc++_headers/gen/android/hardware/bluetooth/audio/2.0/types.h"
  },
  {
   "function_name" : "android::hardware::bluetooth::audio::V2_0::AudioConfiguration::getDiscriminator",
   "linker_set_key" : "_ZNK7android8hardware9bluetooth5audio4V2_018AudioConfiguration16getDiscriminatorEv",
   "parameters" :
   [
    {
     "is_this_ptr" : true,
     "referenced_type" : "type-1112"
    }
   ],
   "return_type" : "type-266",
   "source_file" : "/out/soong/.intermediates/hardware/interfaces/bluetooth/audio/2.0/android.hardware.bluetooth.audio@2.0_genc++_headers/gen/android/hardware/bluetooth/audio/2.0/types.h"
  },
  {
   "function_name" : "android::hardware::bluetooth::audio::V2_0::AudioConfiguration::pcmConfig",
   "linker_set_key" : "_ZNK7android8hardware9bluetooth5audio4V2_018AudioConfiguration9pcmConfigEv",
   "parameters" :
   [
    {
     "is_this_ptr" : true,
     "referenced_type" : "type-1112"
    }
   ],
   "return_type" : "type-523",
   "source_file" : "/out/soong/.intermediates/hardware/interfaces/bluetooth/audio/2.0/android.hardware.bluetooth.audio@2.0_genc++_headers/gen/android/hardware/bluetooth/audio/2.0/types.h"
  },
  {
   "function_name" : "android::hardware::bluetooth::audio::V2_0::CodecConfiguration::CodecSpecific::aptxConfig",
   "linker_set_key" : "_ZNK7android8hardware9bluetooth5audio4V2_018CodecConfiguration13CodecSpecific10aptxConfigEv",
   "parameters" :
   [
    {
     "is_this_ptr" : true,
     "referenced_type" : "type-1111"
    }
   ],
   "return_type" : "type-513",
   "source_file" : "/out/soong/.intermediates/hardware/interfaces/bluetooth/audio/2.0/android.hardware.bluetooth.audio@2.0_genc++_headers/gen/android/hardware/bluetooth/audio/2.0/types.h"
  },
  {
   "function_name" : "android::hardware::bluetooth::audio::V2_0::CodecConfiguration::CodecSpecific::ldacConfig",
   "linker_set_key" : "_ZNK7android8hardware9bluetooth5audio4V2_018CodecConfiguration13CodecSpecific10ldacConfigEv",
   "parameters" :
   [
    {
     "is_this_ptr" : true,
     "referenced_type" : "type-1111"
    }
   ],
   "return_type" : "type-508",
   "source_file" : "/out/soong/.intermediates/hardware/interfaces/bluetooth/audio/2.0/android.hardware.bluetooth.audio@2.0_genc++_headers/gen/android/hardware/bluetooth/audio/2.0/types.h"
  },
  {
   "function_name" : "android::hardware::bluetooth::audio::V2_0::CodecConfiguration::CodecSpecific::getDiscriminator",
   "linker_set_key" : "_ZNK7android8hardware9bluetooth5audio4V2_018CodecConfiguration13CodecSpecific16getDiscriminatorEv",
   "parameters" :
   [
    {
     "is_this_ptr" : true,
     "referenced_type" : "type-1111"
    }
   ],
   "return_type" : "type-275",
   "source_file" : "/out/soong/.intermediates/hardware/interfaces/bluetooth/audio/2.0/android.hardware.bluetooth.audio@2.0_genc++_headers/gen/android/hardware/bluetooth/audio/2.0/types.h"
  },
  {
   "function_name" : "android::hardware::bluetooth::audio::V2_0::CodecConfiguration::CodecSpecific::aacConfig",
   "linker_set_key" : "_ZNK7android8hardware9bluetooth5audio4V2_018CodecConfiguration13CodecSpecific9aacConfigEv",
   "parameters" :
   [
    {
     "is_this_ptr" : true,
     "referenced_type" : "type-1111"
    }
   ],
   "return_type" : "type-504",
   "source_file" : "/out/soong/.intermediates/hardware/interfaces/bluetooth/audio/2.0/android.hardware.bluetooth.audio@2.0_genc++_headers/gen/android/hardware/bluetooth/audio/2.0/types.h"
  },
  {
   "function_name" : "android::hardware::bluetooth::audio::V2_0::CodecConfiguration::CodecSpecific::sbcConfig",
   "linker_set_key" : "_ZNK7android8hardware9bluetooth5audio4V2_018CodecConfiguration13CodecSpecific9sbcConfigEv",
   "parameters" :
   [
    {
     "is_this_ptr" : true,
     "referenced_type" : "type-1111"
    }
   ],
   "return_type" : "type-499",
   "source_file" : "/out/soong/.intermediates/hardware/interfaces/bluetooth/audio/2.0/android.hardware.bluetooth.audio@2.0_genc++_headers/gen/android/hardware/bluetooth/audio/2.0/types.h"
  }
 ],
 "global_vars" :
 [
  {
   "linker_set_key" : "_ZN7android8hardware9bluetooth5audio4V2_019IBluetoothAudioPort10descriptorE",
   "name" : "android::hardware::bluetooth::audio::V2_0::IBluetoothAudioPort::descriptor",
   "referenced_type" : "type-9",
   "source_file" : "/out/soong/.intermediates/hardware/interfaces/bluetooth/audio/2.0/android.hardware.bluetooth.audio@2.0_genc++_headers/gen/android/hardware/bluetooth/audio/2.0/IBluetoothAudioPort.h"
  },
  {
   "linker_set_key" : "_ZN7android8hardware9bluetooth5audio4V2_023IBluetoothAudioProvider10descriptorE",
   "name" : "android::hardware::bluetooth::audio::V2_0::IBluetoothAudioProvider::descriptor",
   "referenced_type" : "type-9",
   "source_file" : "/out/soong/.intermediates/hardware/interfaces/bluetooth/audio/2.0/android.hardware.bluetooth.audio@2.0_genc++_headers/gen/android/hardware/bluetooth/audio/2.0/IBluetoothAudioProvider.h"
  },
  {
   "linker_set_key" : "_ZN7android8hardware9bluetooth5audio4V2_031IBluetoothAudioProvidersFactory10descriptorE",
   "name" : "android::hardware::bluetooth::audio::V2_0::IBluetoothAudioProvidersFactory::descriptor",
   "referenced_type" : "type-9",
   "source_file" : "/out/soong/.intermediates/hardware/interfaces/bluetooth/audio/2.0/android.hardware.bluetooth.audio@2.0_genc++_headers/gen/android/hardware/bluetooth/audio/2.0/IBluetoothAudioProvidersFactory.h"
  }
 ],
 "lvalue_reference_types" :
 [
  {
   "alignment" : 8,
   "linker_set_key" : "android::Mutex &",
   "name" : "android::Mutex &",
   "referenced_type" : "type-205",
   "self_type" : "type-979",
   "size" : 8,
   "source_file" : "/system/core/libutils/include/utils/Mutex.h"
  },
  {
   "alignment" : 8,
   "linker_set_key" : "android::RWLock &",
   "name" : "android::RWLock &",
   "referenced_type" : "type-983",
   "self_type" : "type-988",
   "size" : 8,
   "source_file" : "/system/core/libutils/include/utils/RWLock.h"
  },
  {
   "alignment" : 8,
   "linker_set_key" : "android::String16 &",
   "name" : "android::String16 &",
   "referenced_type" : "type-216",
   "self_type" : "type-877",
   "size" : 8,
   "source_file" : "/system/core/libutils/include/utils/String16.h"
  },
  {
   "alignment" : 8,
   "linker_set_key" : "android::String8 &",
   "name" : "android::String8 &",
   "referenced_type" : "type-225",
   "self_type" : "type-872",
   "size" : 8,
   "source_file" : "/system/core/libutils/include/utils/String8.h"
  },
  {
   "alignment" : 8,
   "linker_set_key" : "android::hardware::MQDescriptor<unsigned char, android::hardware::kSynchronizedReadWrite> &",
   "name" : "android::hardware::MQDescriptor<unsigned char, android::hardware::kSynchronizedReadWrite> &",
   "referenced_type" : "type-102",
   "self_type" : "type-125",
   "size" : 8,
   "source_file" : "/system/libhidl/transport/include/hidl/HidlBinderSupport.h"
  },
  {
   "alignment" : 8,
   "linker_set_key" : "android::hardware::Return<android::sp<android::hardware::bluetooth::audio::V2_0::IBluetoothAudioPort> > &",
   "name" : "android::hardware::Return<android::sp<android::hardware::bluetooth::audio::V2_0::IBluetoothAudioPort> > &",
   "referenced_type" : "type-560",
   "self_type" : "type-587",
   "size" : 8,
   "source_file" : "/system/libhidl/base/include/hidl/Status.h"
  },
  {
   "alignment" : 8,
   "linker_set_key" : "android::hardware::Return<android::sp<android::hardware::bluetooth::audio::V2_0::IBluetoothAudioProvider> > &",
   "name" : "android::hardware::Return<android::sp<android::hardware::bluetooth::audio::V2_0::IBluetoothAudioProvider> > &",
   "referenced_type" : "type-45",
   "self_type" : "type-51",
   "size" : 8,
   "source_file" : "/system/libhidl/base/include/hidl/Status.h"
  },
  {
   "alignment" : 8,
   "linker_set_key" : "android::hardware::Return<android::sp<android::hardware::bluetooth::audio::V2_0::IBluetoothAudioProvidersFactory> > &",
   "name" : "android::hardware::Return<android::sp<android::hardware::bluetooth::audio::V2_0::IBluetoothAudioProvidersFactory> > &",
   "referenced_type" : "type-311",
   "self_type" : "type-314",
   "size" : 8,
   "source_file" : "/system/libhidl/base/include/hidl/Status.h"
  },
  {
   "alignment" : 8,
   "linker_set_key" : "android::hardware::Return<bool> &",
   "name" : "android::hardware::Return<bool> &",
   "referenced_type" : "type-502",
   "self_type" : "type-546",
   "size" : 8,
   "source_file" : "/system/libhidl/base/include/hidl/Status.h"
  },
  {
   "alignment" : 8,
   "linker_set_key" : "android::hardware::Return<void> &",
   "name" : "android::hardware::Return<void> &",
   "referenced_type" : "type-599",
   "self_type" : "type-602",
   "size" : 8,
   "source_file" : "/system/libhidl/base/include/hidl/Status.h"
  },
  {
   "alignment" : 8,
   "linker_set_key" : "android::hardware::Status &",
   "name" : "android::hardware::Status &",
   "referenced_type" : "type-47",
   "self_type" : "type-489",
   "size" : 8,
   "source_file" : "/system/libhidl/base/include/hidl/Status.h"
  },
  {
   "alignment" : 8,
   "linker_set_key" : "android::hardware::TextOutput &",
   "name" : "android::hardware::TextOutput &",
   "referenced_type" : "type-122",
   "self_type" : "type-121",
   "size" : 8,
   "source_file" : "/system/libhwbinder/include/hwbinder/Parcel.h"
  },
  {
   "alignment" : 8,
   "linker_set_key" : "android::hardware::TextOutput &",
   "name" : "android::hardware::TextOutput &",
   "referenced_type" : "type-354",
   "self_type" : "type-353",
   "size" : 8,
   "source_file" : "/system/libhwbinder/include/hwbinder/Parcel.h"
  },
  {
   "alignment" : 8,
   "linker_set_key" : "android::hardware::TextOutput &",
   "name" : "android::hardware::TextOutput &",
   "referenced_type" : "type-485",
   "self_type" : "type-484",
   "size" : 8,
   "source_file" : "/system/libhwbinder/include/hwbinder/Parcel.h"
  },
  {
   "alignment" : 8,
   "linker_set_key" : "android::hardware::TextOutput &",
   "name" : "android::hardware::TextOutput &",
   "referenced_type" : "type-896",
   "self_type" : "type-895",
   "size" : 8,
   "source_file" : "/system/libhwbinder/include/hwbinder/Parcel.h"
  },
  {
   "alignment" : 8,
   "linker_set_key" : "android::hardware::bluetooth::audio::V2_0::AacParameters &",
   "name" : "android::hardware::bluetooth::audio::V2_0::AacParameters &",
   "referenced_type" : "type-282",
   "self_type" : "type-506",
   "size" : 8,
   "source_file" : "/out/soong/.intermediates/hardware/interfaces/bluetooth/audio/2.0/android.hardware.bluetooth.audio@2.0_genc++_headers/gen/android/hardware/bluetooth/audio/2.0/types.h"
  },
  {
   "alignment" : 8,
   "linker_set_key" : "android::hardware::bluetooth::audio::V2_0::AptxParameters &",
   "name" : "android::hardware::bluetooth::audio::V2_0::AptxParameters &",
   "referenced_type" : "type-288",
   "self_type" : "type-515",
   "size" : 8,
   "source_file" : "/out/soong/.intermediates/hardware/interfaces/bluetooth/audio/2.0/android.hardware.bluetooth.audio@2.0_genc++_headers/gen/android/hardware/bluetooth/audio/2.0/types.h"
  },
  {
   "alignment" : 8,
   "linker_set_key" : "android::hardware::bluetooth::audio::V2_0::AudioCapabilities &",
   "name" : "android::hardware::bluetooth::audio::V2_0::AudioCapabilities &",
   "referenced_type" : "type-331",
   "self_type" : "type-520",
   "size" : 8,
   "source_file" : "/out/soong/.intermediates/hardware/interfaces/bluetooth/audio/2.0/android.hardware.bluetooth.audio@2.0_genc++_headers/gen/android/hardware/bluetooth/audio/2.0/types.h"
  },
  {
   "alignment" : 8,
   "linker_set_key" : "android::hardware::bluetooth::audio::V2_0::AudioConfiguration &",
   "name" : "android::hardware::bluetooth::audio::V2_0::AudioConfiguration &",
   "referenced_type" : "type-265",
   "self_type" : "type-547",
   "size" : 8,
   "source_file" : "/out/soong/.intermediates/hardware/interfaces/bluetooth/audio/2.0/android.hardware.bluetooth.audio@2.0_genc++_headers/gen/android/hardware/bluetooth/audio/2.0/types.h"
  },
  {
   "alignment" : 8,
   "linker_set_key" : "android::hardware::bluetooth::audio::V2_0::CodecCapabilities &",
   "name" : "android::hardware::bluetooth::audio::V2_0::CodecCapabilities &",
   "referenced_type" : "type-334",
   "self_type" : "type-530",
   "size" : 8,
   "source_file" : "/out/soong/.intermediates/hardware/interfaces/bluetooth/audio/2.0/android.hardware.bluetooth.audio@2.0_genc++_headers/gen/android/hardware/bluetooth/audio/2.0/types.h"
  },
  {
   "alignment" : 8,
   "linker_set_key" : "android::hardware::bluetooth::audio::V2_0::CodecCapabilities::Capabilities &",
   "name" : "android::hardware::bluetooth::audio::V2_0::CodecCapabilities::Capabilities &",
   "referenced_type" : "type-335",
   "self_type" : "type-497",
   "size" : 8,
   "source_file" : "/out/soong/.intermediates/hardware/interfaces/bluetooth/audio/2.0/android.hardware.bluetooth.audio@2.0_genc++_headers/gen/android/hardware/bluetooth/audio/2.0/types.h"
  },
  {
   "alignment" : 8,
   "linker_set_key" : "android::hardware::bluetooth::audio::V2_0::CodecConfiguration &",
   "name" : "android::hardware::bluetooth::audio::V2_0::CodecConfiguration &",
   "referenced_type" : "type-272",
   "self_type" : "type-552",
   "size" : 8,
   "source_file" : "/out/soong/.intermediates/hardware/interfaces/bluetooth/audio/2.0/android.hardware.bluetooth.audio@2.0_genc++_headers/gen/android/hardware/bluetooth/audio/2.0/types.h"
  },
  {
   "alignment" : 8,
   "linker_set_key" : "android::hardware::bluetooth::audio::V2_0::CodecConfiguration::CodecSpecific &",
   "name" : "android::hardware::bluetooth::audio::V2_0::CodecConfiguration::CodecSpecific &",
   "referenced_type" : "type-274",
   "self_type" : "type-542",
   "size" : 8,
   "source_file" : "/out/soong/.intermediates/hardware/interfaces/bluetooth/audio/2.0/android.hardware.bluetooth.audio@2.0_genc++_headers/gen/android/hardware/bluetooth/audio/2.0/types.h"
  },
  {
   "alignment" : 8,
   "linker_set_key" : "android::hardware::bluetooth::audio::V2_0::LdacParameters &",
   "name" : "android::hardware::bluetooth::audio::V2_0::LdacParameters &",
   "referenced_type" : "type-285",
   "self_type" : "type-510",
   "size" : 8,
   "source_file" : "/out/soong/.intermediates/hardware/interfaces/bluetooth/audio/2.0/android.hardware.bluetooth.audio@2.0_genc++_headers/gen/android/hardware/bluetooth/audio/2.0/types.h"
  },
  {
   "alignment" : 8,
   "linker_set_key" : "android::hardware::bluetooth::audio::V2_0::PcmParameters &",
   "name" : "android::hardware::bluetooth::audio::V2_0::PcmParameters &",
   "referenced_type" : "type-268",
   "self_type" : "type-525",
   "size" : 8,
   "source_file" : "/out/soong/.intermediates/hardware/interfaces/bluetooth/audio/2.0/android.hardware.bluetooth.audio@2.0_genc++_headers/gen/android/hardware/bluetooth/audio/2.0/types.h"
  },
  {
   "alignment" : 8,
   "linker_set_key" : "android::hardware::bluetooth::audio::V2_0::SbcParameters &",
   "name" : "android::hardware::bluetooth::audio::V2_0::SbcParameters &",
   "referenced_type" : "type-277",
   "self_type" : "type-501",
   "size" : 8,
   "source_file" : "/out/soong/.intermediates/hardware/interfaces/bluetooth/audio/2.0/android.hardware.bluetooth.audio@2.0_genc++_headers/gen/android/hardware/bluetooth/audio/2.0/types.h"
  },
  {
   "alignment" : 8,
   "linker_set_key" : "android::hardware::details::hidl_pointer<android::hardware::hidl_array<unsigned char, 32> > &",
   "name" : "android::hardware::details::hidl_pointer<android::hardware::hidl_array<unsigned char, 32> > &",
   "referenced_type" : "type-531",
   "self_type" : "type-651",
   "size" : 8,
   "source_file" : "/system/libhidl/base/include/hidl/HidlInternal.h"
  },
  {
   "alignment" : 8,
   "linker_set_key" : "android::hardware::details::hidl_pointer<android::hardware::hidl_string> &",
   "name" : "android::hardware::details::hidl_pointer<android::hardware::hidl_string> &",
   "referenced_type" : "type-3",
   "self_type" : "type-1184",
   "size" : 8,
   "source_file" : "/system/libhidl/base/include/hidl/HidlInternal.h"
  },
  {
   "alignment" : 8,
   "linker_set_key" : "android::hardware::hidl_array<unsigned char, 32> &",
   "name" : "android::hardware::hidl_array<unsigned char, 32> &",
   "referenced_type" : "type-534",
   "self_type" : "type-694",
   "size" : 8,
   "source_file" : "/system/libhidl/base/include/hidl/HidlInternal.h"
  },
  {
   "alignment" : 8,
   "linker_set_key" : "android::hardware::hidl_memory &",
   "name" : "android::hardware::hidl_memory &",
   "referenced_type" : "type-714",
   "self_type" : "type-719",
   "size" : 8,
   "source_file" : "/system/libhidl/base/include/hidl/HidlSupport.h"
  },
  {
   "alignment" : 8,
   "linker_set_key" : "android::hardware::hidl_string &",
   "name" : "android::hardware::hidl_string &",
   "referenced_type" : "type-6",
   "self_type" : "type-477",
   "size" : 8,
   "source_file" : "/system/libhidl/base/include/hidl/HidlInternal.h"
  },
  {
   "alignment" : 8,
   "linker_set_key" : "android::hardware::hidl_vec<android::hardware::GrantorDescriptor> &",
   "name" : "android::hardware::hidl_vec<android::hardware::GrantorDescriptor> &",
   "referenced_type" : "type-81",
   "self_type" : "type-113",
   "size" : 8,
   "source_file" : "/system/libhidl/base/include/hidl/MQDescriptor.h"
  },
  {
   "alignment" : 8,
   "linker_set_key" : "android::hardware::hidl_vec<android::hardware::hidl_array<unsigned char, 32> > &",
   "name" : "android::hardware::hidl_vec<android::hardware::hidl_array<unsigned char, 32> > &",
   "referenced_type" : "type-731",
   "self_type" : "type-735",
   "size" : 8,
   "source_file" : "/system/libhidl/base/include/hidl/HidlSupport.h"
  },
  {
   "alignment" : 8,
   "linker_set_key" : "android::hardware::hidl_vec<android::hardware::hidl_string> &",
   "name" : "android::hardware::hidl_vec<android::hardware::hidl_string> &",
   "referenced_type" : "type-726",
   "self_type" : "type-730",
   "size" : 8,
   "source_file" : "/system/libhidl/base/include/hidl/HidlSupport.h"
  },
  {
   "alignment" : 8,
   "linker_set_key" : "android::sp<android::hardware::bluetooth::audio::V2_0::IBluetoothAudioPort> &",
   "name" : "android::sp<android::hardware::bluetooth::audio::V2_0::IBluetoothAudioPort> &",
   "referenced_type" : "type-65",
   "self_type" : "type-453",
   "size" : 8,
   "source_file" : "/system/core/libutils/include/utils/StrongPointer.h"
  },
  {
   "alignment" : 8,
   "linker_set_key" : "android::sp<android::hardware::bluetooth::audio::V2_0::IBluetoothAudioProvider> &",
   "name" : "android::sp<android::hardware::bluetooth::audio::V2_0::IBluetoothAudioProvider> &",
   "referenced_type" : "type-31",
   "self_type" : "type-36",
   "size" : 8,
   "source_file" : "/system/core/libutils/include/utils/StrongPointer.h"
  },
  {
   "alignment" : 8,
   "linker_set_key" : "android::sp<android::hardware::bluetooth::audio::V2_0::IBluetoothAudioProvidersFactory> &",
   "name" : "android::sp<android::hardware::bluetooth::audio::V2_0::IBluetoothAudioProvidersFactory> &",
   "referenced_type" : "type-293",
   "self_type" : "type-309",
   "size" : 8,
   "source_file" : "/system/core/libutils/include/utils/StrongPointer.h"
  },
  {
   "alignment" : 8,
   "linker_set_key" : "android::sp<android::hardware::hidl_binder_death_recipient> &",
   "name" : "android::sp<android::hardware::hidl_binder_death_recipient> &",
   "referenced_type" : "type-460",
   "self_type" : "type-466",
   "size" : 8,
   "source_file" : "/system/core/libutils/include/utils/StrongPointer.h"
  },
  {
   "alignment" : 8,
   "linker_set_key" : "const android::String16 &",
   "name" : "const android::String16 &",
   "referenced_type" : "type-215",
   "self_type" : "type-214",
   "size" : 8,
   "source_file" : "/system/core/libutils/include/utils/String16.h"
  },
  {
   "alignment" : 8,
   "linker_set_key" : "const android::String8 &",
   "name" : "const android::String8 &",
   "referenced_type" : "type-869",
   "self_type" : "type-871",
   "size" : 8,
   "source_file" : "/system/core/libutils/include/utils/String8.h"
  },
  {
   "alignment" : 8,
   "linker_set_key" : "const android::hardware::MQDescriptor<unsigned char, android::hardware::kSynchronizedReadWrite> &",
   "name" : "const android::hardware::MQDescriptor<unsigned char, android::hardware::kSynchronizedReadWrite> &",
   "referenced_type" : "type-110",
   "self_type" : "type-126",
   "size" : 8,
   "source_file" : "/system/libhidl/transport/include/hidl/HidlBinderSupport.h"
  },
  {
   "alignment" : 8,
   "linker_set_key" : "const android::hardware::Parcel &",
   "name" : "const android::hardware::Parcel &",
   "referenced_type" : "type-897",
   "self_type" : "type-898",
   "size" : 8,
   "source_file" : "/system/libhwbinder/include/hwbinder/Parcel.h"
  },
  {
   "alignment" : 8,
   "linker_set_key" : "const android::hardware::Return<bool> &",
   "name" : "const android::hardware::Return<bool> &",
   "referenced_type" : "type-554",
   "self_type" : "type-593",
   "size" : 8,
   "source_file" : "/system/libhidl/base/include/hidl/Status.h"
  },
  {
   "alignment" : 8,
   "linker_set_key" : "const android::hardware::Status &",
   "name" : "const android::hardware::Status &",
   "referenced_type" : "type-482",
   "self_type" : "type-483",
   "size" : 8,
   "source_file" : "/system/libhidl/base/include/hidl/Status.h"
  },
  {
   "alignment" : 8,
   "linker_set_key" : "const android::hardware::audio::common::V5_0::AudioFormat &",
   "name" : "const android::hardware::audio::common::V5_0::AudioFormat &",
   "referenced_type" : "type-1162",
   "self_type" : "type-1161",
   "size" : 8,
   "source_file" : "/system/libhidl/base/include/hidl/HidlInternal.h"
  },
  {
   "alignment" : 8,
   "linker_set_key" : "const android::hardware::audio::common::V5_0::AudioGain &",
   "name" : "const android::hardware::audio::common::V5_0::AudioGain &",
   "referenced_type" : "type-1180",
   "self_type" : "type-1179",
   "size" : 8,
   "source_file" : "/system/libhidl/base/include/hidl/HidlInternal.h"
  },
  {
   "alignment" : 8,
   "linker_set_key" : "const android::hardware::audio::common::V5_0::PlaybackTrackMetadata &",
   "name" : "const android::hardware::audio::common::V5_0::PlaybackTrackMetadata &",
   "referenced_type" : "type-967",
   "self_type" : "type-966",
   "size" : 8,
   "source_file" : "/system/libhidl/base/include/hidl/HidlInternal.h"
  },
  {
   "alignment" : 8,
   "linker_set_key" : "const android::hardware::audio::common::V5_0::RecordTrackMetadata &",
   "name" : "const android::hardware::audio::common::V5_0::RecordTrackMetadata &",
   "referenced_type" : "type-1035",
   "self_type" : "type-1034",
   "size" : 8,
   "source_file" : "/system/libhidl/base/include/hidl/HidlInternal.h"
  },
  {
   "alignment" : 8,
   "linker_set_key" : "const android::hardware::audio::common::V5_0::SourceMetadata &",
   "name" : "const android::hardware::audio::common::V5_0::SourceMetadata &",
   "referenced_type" : "type-1175",
   "self_type" : "type-1176",
   "size" : 8,
   "source_file" : "/out/soong/.intermediates/hardware/interfaces/bluetooth/audio/2.0/android.hardware.bluetooth.audio@2.0_genc++_headers/gen/android/hardware/bluetooth/audio/2.0/BpHwBluetoothAudioPort.h"
  },
  {
   "alignment" : 8,
   "linker_set_key" : "const android::hardware::bluetooth::audio::V2_0::AacParameters &",
   "name" : "const android::hardware::bluetooth::audio::V2_0::AacParameters &",
   "referenced_type" : "type-503",
   "self_type" : "type-504",
   "size" : 8,
   "source_file" : "/out/soong/.intermediates/hardware/interfaces/bluetooth/audio/2.0/android.hardware.bluetooth.audio@2.0_genc++_headers/gen/android/hardware/bluetooth/audio/2.0/types.h"
  },
  {
   "alignment" : 8,
   "linker_set_key" : "const android::hardware::bluetooth::audio::V2_0::AptxParameters &",
   "name" : "const android::hardware::bluetooth::audio::V2_0::AptxParameters &",
   "referenced_type" : "type-511",
   "self_type" : "type-513",
   "size" : 8,
   "source_file" : "/out/soong/.intermediates/hardware/interfaces/bluetooth/audio/2.0/android.hardware.bluetooth.audio@2.0_genc++_headers/gen/android/hardware/bluetooth/audio/2.0/types.h"
  },
  {
   "alignment" : 8,
   "linker_set_key" : "const android::hardware::bluetooth::audio::V2_0::AudioCapabilities &",
   "name" : "const android::hardware::bluetooth::audio::V2_0::AudioCapabilities &",
   "referenced_type" : "type-519",
   "self_type" : "type-518",
   "size" : 8,
   "source_file" : "/out/soong/.intermediates/hardware/interfaces/bluetooth/audio/2.0/android.hardware.bluetooth.audio@2.0_genc++_headers/gen/android/hardware/bluetooth/audio/2.0/types.h"
  },
  {
   "alignment" : 8,
   "linker_set_key" : "const android::hardware::bluetooth::audio::V2_0::AudioConfiguration &",
   "name" : "const android::hardware::bluetooth::audio::V2_0::AudioConfiguration &",
   "referenced_type" : "type-264",
   "self_type" : "type-263",
   "size" : 8,
   "source_file" : "/out/soong/.intermediates/hardware/interfaces/bluetooth/audio/2.0/android.hardware.bluetooth.audio@2.0_genc++_headers/gen/android/hardware/bluetooth/audio/2.0/BpHwBluetoothAudioProvider.h"
  },
  {
   "alignment" : 8,
   "linker_set_key" : "const android::hardware::bluetooth::audio::V2_0::CodecCapabilities &",
   "name" : "const android::hardware::bluetooth::audio::V2_0::CodecCapabilities &",
   "referenced_type" : "type-526",
   "self_type" : "type-527",
   "size" : 8,
   "source_file" : "/out/soong/.intermediates/hardware/interfaces/bluetooth/audio/2.0/android.hardware.bluetooth.audio@2.0_genc++_headers/gen/android/hardware/bluetooth/audio/2.0/types.h"
  },
  {
   "alignment" : 8,
   "linker_set_key" : "const android::hardware::bluetooth::audio::V2_0::CodecCapabilities::Capabilities &",
   "name" : "const android::hardware::bluetooth::audio::V2_0::CodecCapabilities::Capabilities &",
   "referenced_type" : "type-496",
   "self_type" : "type-495",
   "size" : 8,
   "source_file" : "/out/soong/.intermediates/hardware/interfaces/bluetooth/audio/2.0/android.hardware.bluetooth.audio@2.0_genc++_headers/gen/android/hardware/bluetooth/audio/2.0/types.h"
  },
  {
   "alignment" : 8,
   "linker_set_key" : "const android::hardware::bluetooth::audio::V2_0::CodecConfiguration &",
   "name" : "const android::hardware::bluetooth::audio::V2_0::CodecConfiguration &",
   "referenced_type" : "type-549",
   "self_type" : "type-550",
   "size" : 8,
   "source_file" : "/out/soong/.intermediates/hardware/interfaces/bluetooth/audio/2.0/android.hardware.bluetooth.audio@2.0_genc++_headers/gen/android/hardware/bluetooth/audio/2.0/types.h"
  },
  {
   "alignment" : 8,
   "linker_set_key" : "const android::hardware::bluetooth::audio::V2_0::CodecConfiguration::CodecSpecific &",
   "name" : "const android::hardware::bluetooth::audio::V2_0::CodecConfiguration::CodecSpecific &",
   "referenced_type" : "type-541",
   "self_type" : "type-540",
   "size" : 8,
   "source_file" : "/out/soong/.intermediates/hardware/interfaces/bluetooth/audio/2.0/android.hardware.bluetooth.audio@2.0_genc++_headers/gen/android/hardware/bluetooth/audio/2.0/types.h"
  },
  {
   "alignment" : 8,
   "linker_set_key" : "const android::hardware::bluetooth::audio::V2_0::LdacParameters &",
   "name" : "const android::hardware::bluetooth::audio::V2_0::LdacParameters &",
   "referenced_type" : "type-507",
   "self_type" : "type-508",
   "size" : 8,
   "source_file" : "/out/soong/.intermediates/hardware/interfaces/bluetooth/audio/2.0/android.hardware.bluetooth.audio@2.0_genc++_headers/gen/android/hardware/bluetooth/audio/2.0/types.h"
  },
  {
   "alignment" : 8,
   "linker_set_key" : "const android::hardware::bluetooth::audio::V2_0::PcmParameters &",
   "name" : "const android::hardware::bluetooth::audio::V2_0::PcmParameters &",
   "referenced_type" : "type-522",
   "self_type" : "type-523",
   "size" : 8,
   "source_file" : "/out/soong/.intermediates/hardware/interfaces/bluetooth/audio/2.0/android.hardware.bluetooth.audio@2.0_genc++_headers/gen/android/hardware/bluetooth/audio/2.0/types.h"
  },
  {
   "alignment" : 8,
   "linker_set_key" : "const android::hardware::bluetooth::audio::V2_0::SbcParameters &",
   "name" : "const android::hardware::bluetooth::audio::V2_0::SbcParameters &",
   "referenced_type" : "type-498",
   "self_type" : "type-499",
   "size" : 8,
   "source_file" : "/out/soong/.intermediates/hardware/interfaces/bluetooth/audio/2.0/android.hardware.bluetooth.audio@2.0_genc++_headers/gen/android/hardware/bluetooth/audio/2.0/types.h"
  },
  {
   "alignment" : 8,
   "linker_set_key" : "const android::hardware::details::SchedPrio &",
   "name" : "const android::hardware::details::SchedPrio &",
   "referenced_type" : "type-909",
   "self_type" : "type-908",
   "size" : 8,
   "source_file" : "/system/libhidl/transport/include/hidl/ConcurrentMap.h"
  },
  {
   "alignment" : 8,
   "linker_set_key" : "const android::hardware::details::const_accessor<int, 32> &",
   "name" : "const android::hardware::details::const_accessor<int, 32> &",
   "referenced_type" : "type-816",
   "self_type" : "type-849",
   "size" : 8,
   "source_file" : "/system/libhidl/base/include/hidl/HidlSupport.h"
  },
  {
   "alignment" : 8,
   "linker_set_key" : "const android::hardware::details::const_accessor<unsigned char, 32> &",
   "name" : "const android::hardware::details::const_accessor<unsigned char, 32> &",
   "referenced_type" : "type-821",
   "self_type" : "type-850",
   "size" : 8,
   "source_file" : "/system/libhidl/base/include/hidl/HidlSupport.h"
  },
  {
   "alignment" : 8,
   "linker_set_key" : "const android::hardware::details::const_accessor<unsigned char, 4> &",
   "name" : "const android::hardware::details::const_accessor<unsigned char, 4> &",
   "referenced_type" : "type-810",
   "self_type" : "type-847",
   "size" : 8,
   "source_file" : "/system/libhidl/base/include/hidl/HidlSupport.h"
  },
  {
   "alignment" : 8,
   "linker_set_key" : "const android::hardware::details::const_accessor<unsigned char, 6> &",
   "name" : "const android::hardware::details::const_accessor<unsigned char, 6> &",
   "referenced_type" : "type-806",
   "self_type" : "type-846",
   "size" : 8,
   "source_file" : "/system/libhidl/base/include/hidl/HidlSupport.h"
  },
  {
   "alignment" : 8,
   "linker_set_key" : "const android::hardware::hidl_array<int, 32> &",
   "name" : "const android::hardware::hidl_array<int, 32> &",
   "referenced_type" : "type-836",
   "self_type" : "type-838",
   "size" : 8,
   "source_file" : "/system/libhidl/base/include/hidl/HidlSupport.h"
  },
  {
   "alignment" : 8,
   "linker_set_key" : "const android::hardware::hidl_array<unsigned char, 32> &",
   "name" : "const android::hardware::hidl_array<unsigned char, 32> &",
   "referenced_type" : "type-823",
   "self_type" : "type-825",
   "size" : 8,
   "source_file" : "/system/libhidl/base/include/hidl/HidlSupport.h"
  },
  {
   "alignment" : 8,
   "linker_set_key" : "const android::hardware::hidl_array<unsigned char, 4> &",
   "name" : "const android::hardware::hidl_array<unsigned char, 4> &",
   "referenced_type" : "type-831",
   "self_type" : "type-856",
   "size" : 8,
   "source_file" : "/system/libhidl/base/include/hidl/HidlSupport.h"
  },
  {
   "alignment" : 8,
   "linker_set_key" : "const android::hardware::hidl_array<unsigned char, 6> &",
   "name" : "const android::hardware::hidl_array<unsigned char, 6> &",
   "referenced_type" : "type-827",
   "self_type" : "type-829",
   "size" : 8,
   "source_file" : "/system/libhidl/base/include/hidl/HidlSupport.h"
  },
  {
   "alignment" : 8,
   "linker_set_key" : "const android::hardware::hidl_handle &",
   "name" : "const android::hardware::hidl_handle &",
   "referenced_type" : "type-854",
   "self_type" : "type-855",
   "size" : 8,
   "source_file" : "/system/libhidl/base/include/hidl/HidlSupport.h"
  },
  {
   "alignment" : 8,
   "linker_set_key" : "const android::hardware::hidl_memory &",
   "name" : "const android::hardware::hidl_memory &",
   "referenced_type" : "type-717",
   "self_type" : "type-718",
   "size" : 8,
   "source_file" : "/system/libhidl/base/include/hidl/HidlSupport.h"
  },
  {
   "alignment" : 8,
   "linker_set_key" : "const android::hardware::hidl_string &",
   "name" : "const android::hardware::hidl_string &",
   "referenced_type" : "type-712",
   "self_type" : "type-713",
   "size" : 8,
   "source_file" : "/system/libhidl/base/include/hidl/HidlSupport.h"
  },
  {
   "alignment" : 8,
   "linker_set_key" : "const android::hardware::hidl_vec<android::hardware::GrantorDescriptor> &",
   "name" : "const android::hardware::hidl_vec<android::hardware::GrantorDescriptor> &",
   "referenced_type" : "type-80",
   "self_type" : "type-109",
   "size" : 8,
   "source_file" : "/system/libhidl/base/include/hidl/MQDescriptor.h"
  },
  {
   "alignment" : 8,
   "linker_set_key" : "const android::hardware::hidl_vec<android::hardware::audio::common::V5_0::AudioFormat> &",
   "name" : "const android::hardware::hidl_vec<android::hardware::audio::common::V5_0::AudioFormat> &",
   "referenced_type" : "type-788",
   "self_type" : "type-852",
   "size" : 8,
   "source_file" : "/system/libhidl/base/include/hidl/HidlSupport.h"
  },
  {
   "alignment" : 8,
   "linker_set_key" : "const android::hardware::hidl_vec<android::hardware::audio::common::V5_0::AudioGain> &",
   "name" : "const android::hardware::hidl_vec<android::hardware::audio::common::V5_0::AudioGain> &",
   "referenced_type" : "type-795",
   "self_type" : "type-853",
   "size" : 8,
   "source_file" : "/system/libhidl/base/include/hidl/HidlSupport.h"
  },
  {
   "alignment" : 8,
   "linker_set_key" : "const android::hardware::hidl_vec<android::hardware::audio::common::V5_0::PlaybackTrackMetadata> &",
   "name" : "const android::hardware::hidl_vec<android::hardware::audio::common::V5_0::PlaybackTrackMetadata> &",
   "referenced_type" : "type-750",
   "self_type" : "type-752",
   "size" : 8,
   "source_file" : "/system/libhidl/base/include/hidl/HidlSupport.h"
  },
  {
   "alignment" : 8,
   "linker_set_key" : "const android::hardware::hidl_vec<android::hardware::audio::common::V5_0::RecordTrackMetadata> &",
   "name" : "const android::hardware::hidl_vec<android::hardware::audio::common::V5_0::RecordTrackMetadata> &",
   "referenced_type" : "type-771",
   "self_type" : "type-848",
   "size" : 8,
   "source_file" : "/system/libhidl/base/include/hidl/HidlSupport.h"
  },
  {
   "alignment" : 8,
   "linker_set_key" : "const android::hardware::hidl_vec<android::hardware::bluetooth::audio::V2_0::AudioCapabilities> &",
   "name" : "const android::hardware::hidl_vec<android::hardware::bluetooth::audio::V2_0::AudioCapabilities> &",
   "referenced_type" : "type-339",
   "self_type" : "type-355",
   "size" : 8,
   "source_file" : "/system/libhidl/transport/include/hidl/HidlBinderSupport.h"
  },
  {
   "alignment" : 8,
   "linker_set_key" : "const android::hardware::hidl_vec<android::hardware::hidl_string> &",
   "name" : "const android::hardware::hidl_vec<android::hardware::hidl_string> &",
   "referenced_type" : "type-1164",
   "self_type" : "type-1165",
   "size" : 8,
   "source_file" : "/out/soong/.intermediates/hardware/interfaces/bluetooth/audio/2.0/android.hardware.bluetooth.audio@2.0_genc++_headers/gen/android/hardware/bluetooth/audio/2.0/IBluetoothAudioPort.h"
  },
  {
   "alignment" : 8,
   "linker_set_key" : "const android::hardware::hidl_vec<int> &",
   "name" : "const android::hardware::hidl_vec<int> &",
   "referenced_type" : "type-740",
   "self_type" : "type-742",
   "size" : 8,
   "source_file" : "/system/libhidl/base/include/hidl/HidlSupport.h"
  },
  {
   "alignment" : 8,
   "linker_set_key" : "const android::hardware::hidl_vec<unsigned int> &",
   "name" : "const android::hardware::hidl_vec<unsigned int> &",
   "referenced_type" : "type-778",
   "self_type" : "type-851",
   "size" : 8,
   "source_file" : "/system/libhidl/base/include/hidl/HidlSupport.h"
  },
  {
   "alignment" : 8,
   "linker_set_key" : "const android::hardware::hidl_version &",
   "name" : "const android::hardware::hidl_version &",
   "referenced_type" : "type-841",
   "self_type" : "type-843",
   "size" : 8,
   "source_file" : "/system/libhidl/base/include/hidl/HidlSupport.h"
  },
  {
   "alignment" : 8,
   "linker_set_key" : "const android::hidl::base::V1_0::IBase *const &",
   "name" : "const android::hidl::base::V1_0::IBase *const &",
   "referenced_type" : "type-922",
   "self_type" : "type-923",
   "size" : 8,
   "source_file" : "/system/libhidl/transport/include/hidl/ConcurrentMap.h"
  },
  {
   "alignment" : 8,
   "linker_set_key" : "const android::sp<android::hardware::IBinder> &",
   "name" : "const android::sp<android::hardware::IBinder> &",
   "referenced_type" : "type-167",
   "self_type" : "type-220",
   "size" : 8,
   "source_file" : "/system/libhwbinder/include/hwbinder/IInterface.h"
  },
  {
   "alignment" : 8,
   "linker_set_key" : "const android::sp<android::hardware::bluetooth::audio::V2_0::IBluetoothAudioPort> &",
   "name" : "const android::sp<android::hardware::bluetooth::audio::V2_0::IBluetoothAudioPort> &",
   "referenced_type" : "type-64",
   "self_type" : "type-977",
   "size" : 8,
   "source_file" : "/system/core/libutils/include/utils/RefBase.h"
  },
  {
   "alignment" : 8,
   "linker_set_key" : "const android::sp<android::hardware::bluetooth::audio::V2_0::IBluetoothAudioProvider> &",
   "name" : "const android::sp<android::hardware::bluetooth::audio::V2_0::IBluetoothAudioProvider> &",
   "referenced_type" : "type-38",
   "self_type" : "type-1189",
   "size" : 8,
   "source_file" : "/system/core/libutils/include/utils/RefBase.h"
  },
  {
   "alignment" : 8,
   "linker_set_key" : "const android::sp<android::hardware::bluetooth::audio::V2_0::IBluetoothAudioProvidersFactory> &",
   "name" : "const android::sp<android::hardware::bluetooth::audio::V2_0::IBluetoothAudioProvidersFactory> &",
   "referenced_type" : "type-292",
   "self_type" : "type-296",
   "size" : 8,
   "source_file" : "/system/core/libutils/include/utils/RefBase.h"
  },
  {
   "alignment" : 8,
   "linker_set_key" : "const android::sp<android::hardware::hidl_binder_death_recipient> &",
   "name" : "const android::sp<android::hardware::hidl_binder_death_recipient> &",
   "referenced_type" : "type-468",
   "self_type" : "type-1139",
   "size" : 8,
   "source_file" : "/system/core/libutils/include/utils/RefBase.h"
  },
  {
   "alignment" : 8,
   "linker_set_key" : "const android::sp<android::hardware::hidl_death_recipient> &",
   "name" : "const android::sp<android::hardware::hidl_death_recipient> &",
   "referenced_type" : "type-40",
   "self_type" : "type-1185",
   "size" : 8,
   "source_file" : "/system/core/libutils/include/utils/RefBase.h"
  },
  {
   "alignment" : 8,
   "linker_set_key" : "const android::sp<android::hidl::base::V1_0::IBase> &",
   "name" : "const android::sp<android::hidl::base::V1_0::IBase> &",
   "referenced_type" : "type-58",
   "self_type" : "type-61",
   "size" : 8,
   "source_file" : "/system/core/libutils/include/utils/StrongPointer.h"
  },
  {
   "alignment" : 8,
   "linker_set_key" : "const android::sp<android::hidl::manager::V1_0::IServiceNotification> &",
   "name" : "const android::sp<android::hidl::manager::V1_0::IServiceNotification> &",
   "referenced_type" : "type-425",
   "self_type" : "type-1166",
   "size" : 8,
   "source_file" : "/out/soong/.intermediates/hardware/interfaces/bluetooth/audio/2.0/android.hardware.bluetooth.audio@2.0_genc++_headers/gen/android/hardware/bluetooth/audio/2.0/IBluetoothAudioPort.h"
  },
  {
   "alignment" : 8,
   "linker_set_key" : "const android::wp<android::hardware::BHwBinder> &",
   "name" : "const android::wp<android::hardware::BHwBinder> &",
   "referenced_type" : "type-15",
   "self_type" : "type-14",
   "size" : 8,
   "source_file" : "/system/core/libutils/include/utils/RefBase.h"
  },
  {
   "alignment" : 8,
   "linker_set_key" : "const android::wp<android::hidl::base::V1_0::IBase> &",
   "name" : "const android::wp<android::hidl::base::V1_0::IBase> &",
   "referenced_type" : "type-1028",
   "self_type" : "type-1050",
   "size" : 8,
   "source_file" : "/system/core/libutils/include/utils/RefBase.h"
  },
  {
   "alignment" : 8,
   "linker_set_key" : "const bool &",
   "name" : "const bool &",
   "referenced_type" : "type-371",
   "self_type" : "type-684",
   "size" : 8,
   "source_file" : "/system/core/libutils/include/utils/TypeHelpers.h"
  },
  {
   "alignment" : 8,
   "linker_set_key" : "const double &",
   "name" : "const double &",
   "referenced_type" : "type-700",
   "self_type" : "type-701",
   "size" : 8,
   "source_file" : "/system/core/libutils/include/utils/TypeHelpers.h"
  },
  {
   "alignment" : 8,
   "linker_set_key" : "const float &",
   "name" : "const float &",
   "referenced_type" : "type-698",
   "self_type" : "type-699",
   "size" : 8,
   "source_file" : "/system/core/libutils/include/utils/TypeHelpers.h"
  },
  {
   "alignment" : 8,
   "linker_set_key" : "const int &",
   "name" : "const int &",
   "referenced_type" : "type-814",
   "self_type" : "type-881",
   "size" : 8,
   "source_file" : "/system/libhidl/base/include/hidl/HidlInternal.h"
  },
  {
   "linker_set_key" : "const iter<is_const> &",
   "name" : "const iter<is_const> &",
   "referenced_type" : "type-320",
   "self_type" : "type-322",
   "source_file" : "/system/libhidl/base/include/hidl/HidlSupport.h"
  },
  {
   "linker_set_key" : "const iter<is_const> &",
   "name" : "const iter<is_const> &",
   "referenced_type" : "type-473",
   "self_type" : "type-475",
   "source_file" : "/system/libhidl/base/include/hidl/HidlSupport.h"
  },
  {
   "linker_set_key" : "const iter<is_const> &",
   "name" : "const iter<is_const> &",
   "referenced_type" : "type-723",
   "self_type" : "type-725",
   "source_file" : "/system/libhidl/base/include/hidl/HidlSupport.h"
  },
  {
   "linker_set_key" : "const iter<is_const> &",
   "name" : "const iter<is_const> &",
   "referenced_type" : "type-74",
   "self_type" : "type-76",
   "source_file" : "/system/libhidl/base/include/hidl/HidlSupport.h"
  },
  {
   "alignment" : 8,
   "linker_set_key" : "const log_msg &",
   "name" : "const log_msg &",
   "referenced_type" : "type-148",
   "self_type" : "type-367",
   "size" : 8,
   "source_file" : "/system/core/liblog/include/log/log_read.h"
  },
  {
   "alignment" : 8,
   "linker_set_key" : "const long &",
   "name" : "const long &",
   "referenced_type" : "type-695",
   "self_type" : "type-696",
   "size" : 8,
   "source_file" : "/system/core/libutils/include/utils/TypeHelpers.h"
  },
  {
   "alignment" : 8,
   "linker_set_key" : "const short &",
   "name" : "const short &",
   "referenced_type" : "type-690",
   "self_type" : "type-691",
   "size" : 8,
   "source_file" : "/system/core/libutils/include/utils/TypeHelpers.h"
  },
  {
   "alignment" : 8,
   "linker_set_key" : "const signed char &",
   "name" : "const signed char &",
   "referenced_type" : "type-685",
   "self_type" : "type-687",
   "size" : 8,
   "source_file" : "/system/core/libutils/include/utils/TypeHelpers.h"
  },
  {
   "alignment" : 8,
   "linker_set_key" : "const std::basic_string<char, std::char_traits<char>, std::allocator<char> > &",
   "name" : "const std::basic_string<char, std::char_traits<char>, std::allocator<char> > &",
   "referenced_type" : "type-127",
   "self_type" : "type-129",
   "size" : 8,
   "source_file" : "/system/libhidl/transport/include/hidl/HidlTransportSupport.h"
  },
  {
   "alignment" : 8,
   "linker_set_key" : "const std::basic_string<char, std::char_traits<char>, std::allocator<char> > &",
   "name" : "const std::basic_string<char, std::char_traits<char>, std::allocator<char> > &",
   "referenced_type" : "type-356",
   "self_type" : "type-359",
   "size" : 8,
   "source_file" : "/system/libhidl/transport/include/hidl/HidlTransportSupport.h"
  },
  {
   "alignment" : 8,
   "linker_set_key" : "const std::basic_string<char, std::char_traits<char>, std::allocator<char> > &",
   "name" : "const std::basic_string<char, std::char_traits<char>, std::allocator<char> > &",
   "referenced_type" : "type-901",
   "self_type" : "type-903",
   "size" : 8,
   "source_file" : "/system/libhidl/transport/include/hidl/HidlTransportSupport.h"
  },
  {
   "alignment" : 8,
   "linker_set_key" : "const std::vector<std::function<void (InstrumentationEvent, const char *, const char *, const char *, const char *, vector<void *, allocator<void *> > *)>, std::allocator<std::function<void (InstrumentationEvent, const char *, const char *, const char *, const char *, vector<void *, allocator<void *> > *)> > > &",
   "name" : "const std::vector<std::function<void (InstrumentationEvent, const char *, const char *, const char *, const char *, vector<void *, allocator<void *> > *)>, std::allocator<std::function<void (InstrumentationEvent, const char *, const char *, const char *, const char *, vector<void *, allocator<void *> > *)> > > &",
   "referenced_type" : "type-1187",
   "self_type" : "type-1186",
   "size" : 8,
   "source_file" : "/system/libhidl/base/include/hidl/HidlInternal.h"
  },
  {
   "alignment" : 8,
   "linker_set_key" : "const std::vector<std::function<void (InstrumentationEvent, const char *, const char *, const char *, const char *, vector<void *, allocator<void *> > *)>, std::allocator<std::function<void (InstrumentationEvent, const char *, const char *, const char *, const char *, vector<void *, allocator<void *> > *)> > > &",
   "name" : "const std::vector<std::function<void (InstrumentationEvent, const char *, const char *, const char *, const char *, vector<void *, allocator<void *> > *)>, std::allocator<std::function<void (InstrumentationEvent, const char *, const char *, const char *, const char *, vector<void *, allocator<void *> > *)> > > &",
   "referenced_type" : "type-290",
   "self_type" : "type-289",
   "size" : 8,
   "source_file" : "/system/libhidl/base/include/hidl/HidlInternal.h"
  },
  {
   "alignment" : 8,
   "linker_set_key" : "const std::vector<std::function<void (InstrumentationEvent, const char *, const char *, const char *, const char *, vector<void *, allocator<void *> > *)>, std::allocator<std::function<void (InstrumentationEvent, const char *, const char *, const char *, const char *, vector<void *, allocator<void *> > *)> > > &",
   "name" : "const std::vector<std::function<void (InstrumentationEvent, const char *, const char *, const char *, const char *, vector<void *, allocator<void *> > *)>, std::allocator<std::function<void (InstrumentationEvent, const char *, const char *, const char *, const char *, vector<void *, allocator<void *> > *)> > > &",
   "referenced_type" : "type-589",
   "self_type" : "type-588",
   "size" : 8,
   "source_file" : "/system/libhidl/base/include/hidl/HidlInternal.h"
  },
  {
   "alignment" : 8,
   "linker_set_key" : "const std::vector<std::function<void (InstrumentationEvent, const char *, const char *, const char *, const char *, vector<void *, allocator<void *> > *)>, std::allocator<std::function<void (InstrumentationEvent, const char *, const char *, const char *, const char *, vector<void *, allocator<void *> > *)> > > &",
   "name" : "const std::vector<std::function<void (InstrumentationEvent, const char *, const char *, const char *, const char *, vector<void *, allocator<void *> > *)>, std::allocator<std::function<void (InstrumentationEvent, const char *, const char *, const char *, const char *, vector<void *, allocator<void *> > *)> > > &",
   "referenced_type" : "type-786",
   "self_type" : "type-785",
   "size" : 8,
   "source_file" : "/system/libhidl/base/include/hidl/HidlInternal.h"
  },
  {
   "alignment" : 8,
   "linker_set_key" : "const unsigned char &",
   "name" : "const unsigned char &",
   "referenced_type" : "type-688",
   "self_type" : "type-689",
   "size" : 8,
   "source_file" : "/system/core/libutils/include/utils/TypeHelpers.h"
  },
  {
   "alignment" : 8,
   "linker_set_key" : "const unsigned int &",
   "name" : "const unsigned int &",
   "referenced_type" : "type-209",
   "self_type" : "type-1106",
   "size" : 8,
   "source_file" : "/system/libhidl/base/include/hidl/HidlInternal.h"
  },
  {
   "alignment" : 8,
   "linker_set_key" : "const unsigned long &",
   "name" : "const unsigned long &",
   "referenced_type" : "type-210",
   "self_type" : "type-697",
   "size" : 8,
   "source_file" : "/system/core/libutils/include/utils/TypeHelpers.h"
  },
  {
   "alignment" : 8,
   "linker_set_key" : "const unsigned short &",
   "name" : "const unsigned short &",
   "referenced_type" : "type-692",
   "self_type" : "type-693",
   "size" : 8,
   "source_file" : "/system/core/libutils/include/utils/TypeHelpers.h"
  },
  {
   "alignment" : 8,
   "linker_set_key" : "int &",
   "name" : "int &",
   "referenced_type" : "type-19",
   "self_type" : "type-865",
   "size" : 8,
   "source_file" : "/out/soong/.intermediates/system/libhidl/transport/base/1.0/android.hidl.base@1.0_genc++_headers/gen/android/hidl/base/1.0/types.h"
  },
  {
   "alignment" : 8,
   "linker_set_key" : "unsigned char &",
   "name" : "unsigned char &",
   "referenced_type" : "type-108",
   "self_type" : "type-1001",
   "size" : 8,
   "source_file" : "/out/soong/.intermediates/system/libhidl/transport/manager/1.0/android.hidl.manager@1.0_genc++_headers/gen/android/hidl/manager/1.0/IServiceManager.h"
  },
  {
   "alignment" : 8,
   "linker_set_key" : "unsigned int &",
   "name" : "unsigned int &",
   "referenced_type" : "type-2",
   "self_type" : "type-1048",
   "size" : 8,
   "source_file" : "/out/soong/.intermediates/hardware/interfaces/audio/common/5.0/android.hardware.audio.common@5.0_genc++_headers/gen/android/hardware/audio/common/5.0/types.h"
  }
 ],
 "pointer_types" :
 [
  {
   "alignment" : 8,
   "linker_set_key" : "android::Condition *",
   "name" : "android::Condition *",
   "referenced_type" : "type-372",
   "self_type" : "type-982",
   "size" : 8,
   "source_file" : "/system/core/libutils/include/utils/Condition.h"
  },
  {
   "alignment" : 8,
   "linker_set_key" : "android::Mutex *",
   "name" : "android::Mutex *",
   "referenced_type" : "type-205",
   "self_type" : "type-976",
   "size" : 8,
   "source_file" : "/system/core/libutils/include/utils/Mutex.h"
  },
  {
   "alignment" : 8,
   "linker_set_key" : "android::Mutex::Autolock *",
   "name" : "android::Mutex::Autolock *",
   "referenced_type" : "type-978",
   "self_type" : "type-980",
   "size" : 8,
   "source_file" : "/system/core/libutils/include/utils/Mutex.h"
  },
  {
   "alignment" : 8,
   "linker_set_key" : "android::RWLock *",
   "name" : "android::RWLock *",
   "referenced_type" : "type-983",
   "self_type" : "type-986",
   "size" : 8,
   "source_file" : "/system/core/libutils/include/utils/RWLock.h"
  },
  {
   "alignment" : 8,
   "linker_set_key" : "android::RWLock::AutoRLock *",
   "name" : "android::RWLock::AutoRLock *",
   "referenced_type" : "type-987",
   "self_type" : "type-989",
   "size" : 8,
   "source_file" : "/system/core/libutils/include/utils/RWLock.h"
  },
  {
   "alignment" : 8,
   "linker_set_key" : "android::RWLock::AutoWLock *",
   "name" : "android::RWLock::AutoWLock *",
   "referenced_type" : "type-990",
   "self_type" : "type-991",
   "size" : 8,
   "source_file" : "/system/core/libutils/include/utils/RWLock.h"
  },
  {
   "alignment" : 8,
   "linker_set_key" : "android::RefBase *",
   "name" : "android::RefBase *",
   "referenced_type" : "type-24",
   "self_type" : "type-709",
   "size" : 8,
   "source_file" : "/system/core/libutils/include/utils/RefBase.h"
  },
  {
   "alignment" : 8,
   "linker_set_key" : "android::RefBase::weakref_impl *",
   "name" : "android::RefBase::weakref_impl *",
   "referenced_type" : "type-27",
   "self_type" : "type-26",
   "size" : 8,
   "source_file" : "/system/core/libutils/include/utils/RefBase.h"
  },
  {
   "alignment" : 8,
   "linker_set_key" : "android::RefBase::weakref_impl *",
   "name" : "android::RefBase::weakref_impl *",
   "referenced_type" : "type-318",
   "self_type" : "type-317",
   "size" : 8,
   "source_file" : "/system/core/libutils/include/utils/RefBase.h"
  },
  {
   "alignment" : 8,
   "linker_set_key" : "android::RefBase::weakref_impl *",
   "name" : "android::RefBase::weakref_impl *",
   "referenced_type" : "type-471",
   "self_type" : "type-470",
   "size" : 8,
   "source_file" : "/system/core/libutils/include/utils/RefBase.h"
  },
  {
   "alignment" : 8,
   "linker_set_key" : "android::RefBase::weakref_impl *",
   "name" : "android::RefBase::weakref_impl *",
   "referenced_type" : "type-60",
   "self_type" : "type-59",
   "size" : 8,
   "source_file" : "/system/core/libutils/include/utils/RefBase.h"
  },
  {
   "alignment" : 8,
   "linker_set_key" : "android::RefBase::weakref_type *",
   "name" : "android::RefBase::weakref_type *",
   "referenced_type" : "type-29",
   "self_type" : "type-28",
   "size" : 8,
   "source_file" : "/system/core/libutils/include/utils/RefBase.h"
  },
  {
   "alignment" : 8,
   "linker_set_key" : "android::ReferenceRenamer *",
   "name" : "android::ReferenceRenamer *",
   "referenced_type" : "type-702",
   "self_type" : "type-703",
   "size" : 8,
   "source_file" : "/system/core/libutils/include/utils/RefBase.h"
  },
  {
   "alignment" : 8,
   "linker_set_key" : "android::ScopedTrace *",
   "name" : "android::ScopedTrace *",
   "referenced_type" : "type-993",
   "self_type" : "type-994",
   "size" : 8,
   "source_file" : "/system/core/libutils/include/utils/Trace.h"
  },
  {
   "alignment" : 8,
   "linker_set_key" : "android::String16 *",
   "name" : "android::String16 *",
   "referenced_type" : "type-216",
   "self_type" : "type-878",
   "size" : 8,
   "source_file" : "/system/core/libutils/include/utils/String16.h"
  },
  {
   "alignment" : 8,
   "linker_set_key" : "android::String8 *",
   "name" : "android::String8 *",
   "referenced_type" : "type-225",
   "self_type" : "type-873",
   "size" : 8,
   "source_file" : "/system/core/libutils/include/utils/String8.h"
  },
  {
   "alignment" : 8,
   "linker_set_key" : "android::Thread *",
   "name" : "android::Thread *",
   "referenced_type" : "type-370",
   "self_type" : "type-369",
   "size" : 8,
   "source_file" : "/system/core/libutils/include/utils/StrongPointer.h"
  },
  {
   "alignment" : 8,
   "linker_set_key" : "android::VirtualLightRefBase *",
   "name" : "android::VirtualLightRefBase *",
   "referenced_type" : "type-605",
   "self_type" : "type-609",
   "size" : 8,
   "source_file" : "/system/core/libutils/include/utils/LightRefBase.h"
  },
  {
   "alignment" : 8,
   "linker_set_key" : "android::hardware::BHwBinder *",
   "name" : "android::hardware::BHwBinder *",
   "referenced_type" : "type-18",
   "self_type" : "type-17",
   "size" : 8,
   "source_file" : "/system/core/libutils/include/utils/RefBase.h"
  },
  {
   "alignment" : 8,
   "linker_set_key" : "android::hardware::BpInterface<android::hardware::bluetooth::audio::V2_0::IBluetoothAudioPort> *",
   "name" : "android::hardware::BpInterface<android::hardware::bluetooth::audio::V2_0::IBluetoothAudioPort> *",
   "referenced_type" : "type-94",
   "self_type" : "type-884",
   "size" : 8,
   "source_file" : "/system/libhwbinder/include/hwbinder/IInterface.h"
  },
  {
   "alignment" : 8,
   "linker_set_key" : "android::hardware::BpInterface<android::hardware::bluetooth::audio::V2_0::IBluetoothAudioProvider> *",
   "name" : "android::hardware::BpInterface<android::hardware::bluetooth::audio::V2_0::IBluetoothAudioProvider> *",
   "referenced_type" : "type-120",
   "self_type" : "type-119",
   "size" : 8,
   "source_file" : "/system/libhwbinder/include/hwbinder/IInterface.h"
  },
  {
   "alignment" : 8,
   "linker_set_key" : "android::hardware::BpInterface<android::hardware::bluetooth::audio::V2_0::IBluetoothAudioProvidersFactory> *",
   "name" : "android::hardware::BpInterface<android::hardware::bluetooth::audio::V2_0::IBluetoothAudioProvidersFactory> *",
   "referenced_type" : "type-305",
   "self_type" : "type-351",
   "size" : 8,
   "source_file" : "/system/libhwbinder/include/hwbinder/IInterface.h"
  },
  {
   "alignment" : 8,
   "linker_set_key" : "android::hardware::ConcurrentMap<const android::hidl::base::V1_0::IBase *, android::wp<android::hardware::BHwBinder> > *",
   "name" : "android::hardware::ConcurrentMap<const android::hidl::base::V1_0::IBase *, android::wp<android::hardware::BHwBinder> > *",
   "referenced_type" : "type-918",
   "self_type" : "type-921",
   "size" : 8,
   "source_file" : "/system/libhidl/transport/include/hidl/ConcurrentMap.h"
  },
  {
   "alignment" : 8,
   "linker_set_key" : "android::hardware::ConcurrentMap<std::basic_string<char, std::char_traits<char>, std::allocator<char> >, std::function<sp<IBase> (void *)> > *",
   "name" : "android::hardware::ConcurrentMap<std::basic_string<char, std::char_traits<char>, std::allocator<char> >, std::function<sp<IBase> (void *)> > *",
   "referenced_type" : "type-935",
   "self_type" : "type-940",
   "size" : 8,
   "source_file" : "/system/libhidl/transport/include/hidl/ConcurrentMap.h"
  },
  {
   "alignment" : 8,
   "linker_set_key" : "android::hardware::ConcurrentMap<std::basic_string<char, std::char_traits<char>, std::allocator<char> >, std::function<sp<IBinder> (void *)> > *",
   "name" : "android::hardware::ConcurrentMap<std::basic_string<char, std::char_traits<char>, std::allocator<char> >, std::function<sp<IBinder> (void *)> > *",
   "referenced_type" : "type-924",
   "self_type" : "type-930",
   "size" : 8,
   "source_file" : "/system/libhidl/transport/include/hidl/ConcurrentMap.h"
  },
  {
   "alignment" : 8,
   "linker_set_key" : "android::hardware::GrantorDescriptor *",
   "name" : "android::hardware::GrantorDescriptor *",
   "referenced_type" : "type-79",
   "self_type" : "type-84",
   "size" : 8,
   "source_file" : "/system/libhidl/base/include/hidl/HidlInternal.h"
  },
  {
   "alignment" : 8,
   "linker_set_key" : "android::hardware::IBinder *",
   "name" : "android::hardware::IBinder *",
   "referenced_type" : "type-23",
   "self_type" : "type-98",
   "size" : 8,
   "source_file" : "/system/core/libutils/include/utils/StrongPointer.h"
  },
  {
   "alignment" : 8,
   "linker_set_key" : "android::hardware::IBinder::DeathRecipient *",
   "name" : "android::hardware::IBinder::DeathRecipient *",
   "referenced_type" : "type-141",
   "self_type" : "type-140",
   "size" : 8,
   "source_file" : "/system/core/libutils/include/utils/RefBase.h"
  },
  {
   "alignment" : 8,
   "linker_set_key" : "android::hardware::IInterface *",
   "name" : "android::hardware::IInterface *",
   "referenced_type" : "type-95",
   "self_type" : "type-190",
   "size" : 8,
   "source_file" : "/system/core/libutils/include/utils/StrongPointer.h"
  },
  {
   "alignment" : 8,
   "linker_set_key" : "android::hardware::MQDescriptor<unsigned char, android::hardware::kSynchronizedReadWrite> *",
   "name" : "android::hardware::MQDescriptor<unsigned char, android::hardware::kSynchronizedReadWrite> *",
   "referenced_type" : "type-102",
   "self_type" : "type-114",
   "size" : 8,
   "source_file" : "/system/libhidl/base/include/hidl/MQDescriptor.h"
  },
  {
   "alignment" : 8,
   "linker_set_key" : "android::hardware::Parcel *",
   "name" : "android::hardware::Parcel *",
   "referenced_type" : "type-885",
   "self_type" : "type-891",
   "size" : 8,
   "source_file" : "/system/libhwbinder/include/hwbinder/Parcel.h"
  },
  {
   "alignment" : 8,
   "linker_set_key" : "android::hardware::ProcessState *",
   "name" : "android::hardware::ProcessState *",
   "referenced_type" : "type-201",
   "self_type" : "type-200",
   "size" : 8,
   "source_file" : "/system/core/libutils/include/utils/StrongPointer.h"
  },
  {
   "alignment" : 8,
   "linker_set_key" : "android::hardware::Return<android::sp<android::hardware::bluetooth::audio::V2_0::IBluetoothAudioPort> > *",
   "name" : "android::hardware::Return<android::sp<android::hardware::bluetooth::audio::V2_0::IBluetoothAudioPort> > *",
   "referenced_type" : "type-560",
   "self_type" : "type-571",
   "size" : 8,
   "source_file" : "/system/libhidl/base/include/hidl/Status.h"
  },
  {
   "alignment" : 8,
   "linker_set_key" : "android::hardware::Return<android::sp<android::hardware::bluetooth::audio::V2_0::IBluetoothAudioProvider> > *",
   "name" : "android::hardware::Return<android::sp<android::hardware::bluetooth::audio::V2_0::IBluetoothAudioProvider> > *",
   "referenced_type" : "type-45",
   "self_type" : "type-49",
   "size" : 8,
   "source_file" : "/system/libhidl/base/include/hidl/Status.h"
  },
  {
   "alignment" : 8,
   "linker_set_key" : "android::hardware::Return<android::sp<android::hardware::bluetooth::audio::V2_0::IBluetoothAudioProvidersFactory> > *",
   "name" : "android::hardware::Return<android::sp<android::hardware::bluetooth::audio::V2_0::IBluetoothAudioProvidersFactory> > *",
   "referenced_type" : "type-311",
   "self_type" : "type-312",
   "size" : 8,
   "source_file" : "/system/libhidl/base/include/hidl/Status.h"
  },
  {
   "alignment" : 8,
   "linker_set_key" : "android::hardware::Return<bool> *",
   "name" : "android::hardware::Return<bool> *",
   "referenced_type" : "type-502",
   "self_type" : "type-521",
   "size" : 8,
   "source_file" : "/system/libhidl/base/include/hidl/Status.h"
  },
  {
   "alignment" : 8,
   "linker_set_key" : "android::hardware::Return<void> *",
   "name" : "android::hardware::Return<void> *",
   "referenced_type" : "type-599",
   "self_type" : "type-600",
   "size" : 8,
   "source_file" : "/system/libhidl/base/include/hidl/Status.h"
  },
  {
   "alignment" : 8,
   "linker_set_key" : "android::hardware::Status *",
   "name" : "android::hardware::Status *",
   "referenced_type" : "type-47",
   "self_type" : "type-481",
   "size" : 8,
   "source_file" : "/system/libhidl/base/include/hidl/Status.h"
  },
  {
   "alignment" : 8,
   "linker_set_key" : "android::hardware::audio::common::V5_0::AudioFormat *",
   "name" : "android::hardware::audio::common::V5_0::AudioFormat *",
   "referenced_type" : "type-784",
   "self_type" : "type-783",
   "size" : 8,
   "source_file" : "/system/libhidl/base/include/hidl/HidlInternal.h"
  },
  {
   "alignment" : 8,
   "linker_set_key" : "android::hardware::audio::common::V5_0::AudioGain *",
   "name" : "android::hardware::audio::common::V5_0::AudioGain *",
   "referenced_type" : "type-794",
   "self_type" : "type-793",
   "size" : 8,
   "source_file" : "/system/libhidl/base/include/hidl/HidlInternal.h"
  },
  {
   "alignment" : 8,
   "linker_set_key" : "android::hardware::audio::common::V5_0::PlaybackTrackMetadata *",
   "name" : "android::hardware::audio::common::V5_0::PlaybackTrackMetadata *",
   "referenced_type" : "type-747",
   "self_type" : "type-746",
   "size" : 8,
   "source_file" : "/system/libhidl/base/include/hidl/HidlInternal.h"
  },
  {
   "alignment" : 8,
   "linker_set_key" : "android::hardware::audio::common::V5_0::RecordTrackMetadata *",
   "name" : "android::hardware::audio::common::V5_0::RecordTrackMetadata *",
   "referenced_type" : "type-757",
   "self_type" : "type-756",
   "size" : 8,
   "source_file" : "/system/libhidl/base/include/hidl/HidlInternal.h"
  },
  {
   "alignment" : 8,
   "linker_set_key" : "android::hardware::bluetooth::audio::V2_0::AacParameters *",
   "name" : "android::hardware::bluetooth::audio::V2_0::AacParameters *",
   "referenced_type" : "type-282",
   "self_type" : "type-488",
   "size" : 8,
   "source_file" : "/system/libhidl/base/include/hidl/HidlInternal.h"
  },
  {
   "alignment" : 8,
   "linker_set_key" : "android::hardware::bluetooth::audio::V2_0::AptxParameters *",
   "name" : "android::hardware::bluetooth::audio::V2_0::AptxParameters *",
   "referenced_type" : "type-288",
   "self_type" : "type-492",
   "size" : 8,
   "source_file" : "/system/libhidl/base/include/hidl/HidlInternal.h"
  },
  {
   "alignment" : 8,
   "linker_set_key" : "android::hardware::bluetooth::audio::V2_0::AudioCapabilities *",
   "name" : "android::hardware::bluetooth::audio::V2_0::AudioCapabilities *",
   "referenced_type" : "type-331",
   "self_type" : "type-330",
   "size" : 8,
   "source_file" : "/system/libhidl/base/include/hidl/HidlInternal.h"
  },
  {
   "alignment" : 8,
   "linker_set_key" : "android::hardware::bluetooth::audio::V2_0::AudioCapabilities::hidl_union *",
   "name" : "android::hardware::bluetooth::audio::V2_0::AudioCapabilities::hidl_union *",
   "referenced_type" : "type-333",
   "self_type" : "type-537",
   "size" : 8,
   "source_file" : "/out/soong/.intermediates/hardware/interfaces/bluetooth/audio/2.0/android.hardware.bluetooth.audio@2.0_genc++_headers/gen/android/hardware/bluetooth/audio/2.0/types.h"
  },
  {
   "alignment" : 8,
   "linker_set_key" : "android::hardware::bluetooth::audio::V2_0::AudioConfiguration *",
   "name" : "android::hardware::bluetooth::audio::V2_0::AudioConfiguration *",
   "referenced_type" : "type-265",
   "self_type" : "type-544",
   "size" : 8,
   "source_file" : "/out/soong/.intermediates/hardware/interfaces/bluetooth/audio/2.0/android.hardware.bluetooth.audio@2.0_genc++_headers/gen/android/hardware/bluetooth/audio/2.0/types.h"
  },
  {
   "alignment" : 8,
   "linker_set_key" : "android::hardware::bluetooth::audio::V2_0::AudioConfiguration::hidl_union *",
   "name" : "android::hardware::bluetooth::audio::V2_0::AudioConfiguration::hidl_union *",
   "referenced_type" : "type-267",
   "self_type" : "type-553",
   "size" : 8,
   "source_file" : "/out/soong/.intermediates/hardware/interfaces/bluetooth/audio/2.0/android.hardware.bluetooth.audio@2.0_genc++_headers/gen/android/hardware/bluetooth/audio/2.0/types.h"
  },
  {
   "alignment" : 8,
   "linker_set_key" : "android::hardware::bluetooth::audio::V2_0::BnHwBluetoothAudioPort *",
   "name" : "android::hardware::bluetooth::audio::V2_0::BnHwBluetoothAudioPort *",
   "referenced_type" : "type-1191",
   "self_type" : "type-1197",
   "size" : 8,
   "source_file" : "/system/core/libutils/include/utils/RefBase.h"
  },
  {
   "alignment" : 8,
   "linker_set_key" : "android::hardware::bluetooth::audio::V2_0::BnHwBluetoothAudioProvider *",
   "name" : "android::hardware::bluetooth::audio::V2_0::BnHwBluetoothAudioProvider *",
   "referenced_type" : "type-1192",
   "self_type" : "type-1193",
   "size" : 8,
   "source_file" : "/system/core/libutils/include/utils/RefBase.h"
  },
  {
   "alignment" : 8,
   "linker_set_key" : "android::hardware::bluetooth::audio::V2_0::BnHwBluetoothAudioProvidersFactory *",
   "name" : "android::hardware::bluetooth::audio::V2_0::BnHwBluetoothAudioProvidersFactory *",
   "referenced_type" : "type-297",
   "self_type" : "type-299",
   "size" : 8,
   "source_file" : "/system/core/libutils/include/utils/RefBase.h"
  },
  {
   "alignment" : 8,
   "linker_set_key" : "android::hardware::bluetooth::audio::V2_0::BpHwBluetoothAudioPort *",
   "name" : "android::hardware::bluetooth::audio::V2_0::BpHwBluetoothAudioPort *",
   "referenced_type" : "type-91",
   "self_type" : "type-123",
   "size" : 8,
   "source_file" : "/system/core/libutils/include/utils/StrongPointer.h"
  },
  {
   "alignment" : 8,
   "linker_set_key" : "android::hardware::bluetooth::audio::V2_0::BpHwBluetoothAudioProvider *",
   "name" : "android::hardware::bluetooth::audio::V2_0::BpHwBluetoothAudioProvider *",
   "referenced_type" : "type-259",
   "self_type" : "type-1196",
   "size" : 8,
   "source_file" : "/system/core/libutils/include/utils/StrongPointer.h"
  },
  {
   "alignment" : 8,
   "linker_set_key" : "android::hardware::bluetooth::audio::V2_0::BpHwBluetoothAudioProvidersFactory *",
   "name" : "android::hardware::bluetooth::audio::V2_0::BpHwBluetoothAudioProvidersFactory *",
   "referenced_type" : "type-302",
   "self_type" : "type-306",
   "size" : 8,
   "source_file" : "/system/core/libutils/include/utils/StrongPointer.h"
  },
  {
   "alignment" : 8,
   "linker_set_key" : "android::hardware::bluetooth::audio::V2_0::BsBluetoothAudioPort *",
   "name" : "android::hardware::bluetooth::audio::V2_0::BsBluetoothAudioPort *",
   "referenced_type" : "type-63",
   "self_type" : "type-90",
   "size" : 8,
   "source_file" : "/system/core/libutils/include/utils/StrongPointer.h"
  },
  {
   "alignment" : 8,
   "linker_set_key" : "android::hardware::bluetooth::audio::V2_0::BsBluetoothAudioProvider *",
   "name" : "android::hardware::bluetooth::audio::V2_0::BsBluetoothAudioProvider *",
   "referenced_type" : "type-1194",
   "self_type" : "type-1195",
   "size" : 8,
   "source_file" : "/system/core/libutils/include/utils/StrongPointer.h"
  },
  {
   "alignment" : 8,
   "linker_set_key" : "android::hardware::bluetooth::audio::V2_0::BsBluetoothAudioProvidersFactory *",
   "name" : "android::hardware::bluetooth::audio::V2_0::BsBluetoothAudioProvidersFactory *",
   "referenced_type" : "type-300",
   "self_type" : "type-301",
   "size" : 8,
   "source_file" : "/system/core/libutils/include/utils/StrongPointer.h"
  },
  {
   "alignment" : 8,
   "linker_set_key" : "android::hardware::bluetooth::audio::V2_0::CodecCapabilities *",
   "name" : "android::hardware::bluetooth::audio::V2_0::CodecCapabilities *",
   "referenced_type" : "type-334",
   "self_type" : "type-529",
   "size" : 8,
   "source_file" : "/system/libhidl/base/include/hidl/HidlInternal.h"
  },
  {
   "alignment" : 8,
   "linker_set_key" : "android::hardware::bluetooth::audio::V2_0::CodecCapabilities::Capabilities *",
   "name" : "android::hardware::bluetooth::audio::V2_0::CodecCapabilities::Capabilities *",
   "referenced_type" : "type-335",
   "self_type" : "type-493",
   "size" : 8,
   "source_file" : "/out/soong/.intermediates/hardware/interfaces/bluetooth/audio/2.0/android.hardware.bluetooth.audio@2.0_genc++_headers/gen/android/hardware/bluetooth/audio/2.0/types.h"
  },
  {
   "alignment" : 8,
   "linker_set_key" : "android::hardware::bluetooth::audio::V2_0::CodecCapabilities::Capabilities::hidl_union *",
   "name" : "android::hardware::bluetooth::audio::V2_0::CodecCapabilities::Capabilities::hidl_union *",
   "referenced_type" : "type-337",
   "self_type" : "type-516",
   "size" : 8,
   "source_file" : "/out/soong/.intermediates/hardware/interfaces/bluetooth/audio/2.0/android.hardware.bluetooth.audio@2.0_genc++_headers/gen/android/hardware/bluetooth/audio/2.0/types.h"
  },
  {
   "alignment" : 8,
   "linker_set_key" : "android::hardware::bluetooth::audio::V2_0::CodecConfiguration *",
   "name" : "android::hardware::bluetooth::audio::V2_0::CodecConfiguration *",
   "referenced_type" : "type-272",
   "self_type" : "type-548",
   "size" : 8,
   "source_file" : "/system/libhidl/base/include/hidl/HidlInternal.h"
  },
  {
   "alignment" : 8,
   "linker_set_key" : "android::hardware::bluetooth::audio::V2_0::CodecConfiguration::CodecSpecific *",
   "name" : "android::hardware::bluetooth::audio::V2_0::CodecConfiguration::CodecSpecific *",
   "referenced_type" : "type-274",
   "self_type" : "type-538",
   "size" : 8,
   "source_file" : "/out/soong/.intermediates/hardware/interfaces/bluetooth/audio/2.0/android.hardware.bluetooth.audio@2.0_genc++_headers/gen/android/hardware/bluetooth/audio/2.0/types.h"
  },
  {
   "alignment" : 8,
   "linker_set_key" : "android::hardware::bluetooth::audio::V2_0::CodecConfiguration::CodecSpecific::hidl_union *",
   "name" : "android::hardware::bluetooth::audio::V2_0::CodecConfiguration::CodecSpecific::hidl_union *",
   "referenced_type" : "type-276",
   "self_type" : "type-543",
   "size" : 8,
   "source_file" : "/out/soong/.intermediates/hardware/interfaces/bluetooth/audio/2.0/android.hardware.bluetooth.audio@2.0_genc++_headers/gen/android/hardware/bluetooth/audio/2.0/types.h"
  },
  {
   "alignment" : 8,
   "linker_set_key" : "android::hardware::bluetooth::audio::V2_0::IBluetoothAudioPort *",
   "name" : "android::hardware::bluetooth::audio::V2_0::IBluetoothAudioPort *",
   "referenced_type" : "type-67",
   "self_type" : "type-66",
   "size" : 8,
   "source_file" : "/system/core/libutils/include/utils/StrongPointer.h"
  },
  {
   "alignment" : 8,
   "linker_set_key" : "android::hardware::bluetooth::audio::V2_0::IBluetoothAudioProvider *",
   "name" : "android::hardware::bluetooth::audio::V2_0::IBluetoothAudioProvider *",
   "referenced_type" : "type-33",
   "self_type" : "type-32",
   "size" : 8,
   "source_file" : "/system/core/libutils/include/utils/StrongPointer.h"
  },
  {
   "alignment" : 8,
   "linker_set_key" : "android::hardware::bluetooth::audio::V2_0::IBluetoothAudioProvidersFactory *",
   "name" : "android::hardware::bluetooth::audio::V2_0::IBluetoothAudioProvidersFactory *",
   "referenced_type" : "type-295",
   "self_type" : "type-294",
   "size" : 8,
   "source_file" : "/system/core/libutils/include/utils/StrongPointer.h"
  },
  {
   "alignment" : 8,
   "linker_set_key" : "android::hardware::bluetooth::audio::V2_0::LdacParameters *",
   "name" : "android::hardware::bluetooth::audio::V2_0::LdacParameters *",
   "referenced_type" : "type-285",
   "self_type" : "type-490",
   "size" : 8,
   "source_file" : "/system/libhidl/base/include/hidl/HidlInternal.h"
  },
  {
   "alignment" : 8,
   "linker_set_key" : "android::hardware::bluetooth::audio::V2_0::PcmParameters *",
   "name" : "android::hardware::bluetooth::audio::V2_0::PcmParameters *",
   "referenced_type" : "type-268",
   "self_type" : "type-512",
   "size" : 8,
   "source_file" : "/system/libhidl/base/include/hidl/HidlInternal.h"
  },
  {
   "alignment" : 8,
   "linker_set_key" : "android::hardware::bluetooth::audio::V2_0::SbcParameters *",
   "name" : "android::hardware::bluetooth::audio::V2_0::SbcParameters *",
   "referenced_type" : "type-277",
   "self_type" : "type-486",
   "size" : 8,
   "source_file" : "/system/libhidl/base/include/hidl/HidlInternal.h"
  },
  {
   "alignment" : 8,
   "linker_set_key" : "android::hardware::details::HidlInstrumentor *",
   "name" : "android::hardware::details::HidlInstrumentor *",
   "referenced_type" : "type-70",
   "self_type" : "type-817",
   "size" : 8,
   "source_file" : "/system/libhidl/base/include/hidl/HidlInternal.h"
  },
  {
   "alignment" : 8,
   "linker_set_key" : "android::hardware::details::const_accessor<int, 32> *",
   "name" : "android::hardware::details::const_accessor<int, 32> *",
   "referenced_type" : "type-812",
   "self_type" : "type-815",
   "size" : 8,
   "source_file" : "/system/libhidl/base/include/hidl/HidlSupport.h"
  },
  {
   "alignment" : 8,
   "linker_set_key" : "android::hardware::details::const_accessor<unsigned char, 32> *",
   "name" : "android::hardware::details::const_accessor<unsigned char, 32> *",
   "referenced_type" : "type-819",
   "self_type" : "type-820",
   "size" : 8,
   "source_file" : "/system/libhidl/base/include/hidl/HidlSupport.h"
  },
  {
   "alignment" : 8,
   "linker_set_key" : "android::hardware::details::const_accessor<unsigned char, 4> *",
   "name" : "android::hardware::details::const_accessor<unsigned char, 4> *",
   "referenced_type" : "type-808",
   "self_type" : "type-809",
   "size" : 8,
   "source_file" : "/system/libhidl/base/include/hidl/HidlSupport.h"
  },
  {
   "alignment" : 8,
   "linker_set_key" : "android::hardware::details::const_accessor<unsigned char, 6> *",
   "name" : "android::hardware::details::const_accessor<unsigned char, 6> *",
   "referenced_type" : "type-802",
   "self_type" : "type-805",
   "size" : 8,
   "source_file" : "/system/libhidl/base/include/hidl/HidlSupport.h"
  },
  {
   "alignment" : 8,
   "linker_set_key" : "android::hardware::details::hidl_pointer<android::hardware::hidl_array<unsigned char, 32> > *",
   "name" : "android::hardware::details::hidl_pointer<android::hardware::hidl_array<unsigned char, 32> > *",
   "referenced_type" : "type-531",
   "self_type" : "type-640",
   "size" : 8,
   "source_file" : "/system/libhidl/base/include/hidl/HidlInternal.h"
  },
  {
   "alignment" : 8,
   "linker_set_key" : "android::hardware::details::hidl_pointer<android::hardware::hidl_string> *",
   "name" : "android::hardware::details::hidl_pointer<android::hardware::hidl_string> *",
   "referenced_type" : "type-3",
   "self_type" : "type-1183",
   "size" : 8,
   "source_file" : "/system/libhidl/base/include/hidl/HidlInternal.h"
  },
  {
   "alignment" : 8,
   "linker_set_key" : "android::hardware::details::return_status *",
   "name" : "android::hardware::details::return_status *",
   "referenced_type" : "type-46",
   "self_type" : "type-594",
   "size" : 8,
   "source_file" : "/system/libhidl/base/include/hidl/Status.h"
  },
  {
   "alignment" : 8,
   "linker_set_key" : "android::hardware::hidl_array<int, 32> *",
   "name" : "android::hardware::hidl_array<int, 32> *",
   "referenced_type" : "type-833",
   "self_type" : "type-835",
   "size" : 8,
   "source_file" : "/system/libhidl/base/include/hidl/HidlSupport.h"
  },
  {
   "alignment" : 8,
   "linker_set_key" : "android::hardware::hidl_array<unsigned char, 32> *",
   "name" : "android::hardware::hidl_array<unsigned char, 32> *",
   "referenced_type" : "type-534",
   "self_type" : "type-533",
   "size" : 8,
   "source_file" : "/system/libhidl/base/include/hidl/HidlInternal.h"
  },
  {
   "alignment" : 8,
   "linker_set_key" : "android::hardware::hidl_array<unsigned char, 4> *",
   "name" : "android::hardware::hidl_array<unsigned char, 4> *",
   "referenced_type" : "type-768",
   "self_type" : "type-830",
   "size" : 8,
   "source_file" : "/system/libhidl/base/include/hidl/HidlSupport.h"
  },
  {
   "alignment" : 8,
   "linker_set_key" : "android::hardware::hidl_array<unsigned char, 6> *",
   "name" : "android::hardware::hidl_array<unsigned char, 6> *",
   "referenced_type" : "type-766",
   "self_type" : "type-826",
   "size" : 8,
   "source_file" : "/system/libhidl/base/include/hidl/HidlSupport.h"
  },
  {
   "alignment" : 8,
   "linker_set_key" : "android::hardware::hidl_binder_death_recipient *",
   "name" : "android::hardware::hidl_binder_death_recipient *",
   "referenced_type" : "type-462",
   "self_type" : "type-461",
   "size" : 8,
   "source_file" : "/system/core/libutils/include/utils/StrongPointer.h"
  },
  {
   "alignment" : 8,
   "linker_set_key" : "android::hardware::hidl_death_recipient *",
   "name" : "android::hardware::hidl_death_recipient *",
   "referenced_type" : "type-43",
   "self_type" : "type-42",
   "size" : 8,
   "source_file" : "/system/core/libutils/include/utils/RefBase.h"
  },
  {
   "alignment" : 8,
   "linker_set_key" : "android::hardware::hidl_memory *",
   "name" : "android::hardware::hidl_memory *",
   "referenced_type" : "type-714",
   "self_type" : "type-715",
   "size" : 8,
   "source_file" : "/system/libhidl/base/include/hidl/HidlSupport.h"
  },
  {
   "alignment" : 8,
   "linker_set_key" : "android::hardware::hidl_string *",
   "name" : "android::hardware::hidl_string *",
   "referenced_type" : "type-6",
   "self_type" : "type-5",
   "size" : 8,
   "source_file" : "/system/libhidl/base/include/hidl/HidlInternal.h"
  },
  {
   "alignment" : 8,
   "linker_set_key" : "android::hardware::hidl_vec<android::hardware::hidl_array<unsigned char, 32> > *",
   "name" : "android::hardware::hidl_vec<android::hardware::hidl_array<unsigned char, 32> > *",
   "referenced_type" : "type-731",
   "self_type" : "type-732",
   "size" : 8,
   "source_file" : "/system/libhidl/base/include/hidl/HidlSupport.h"
  },
  {
   "alignment" : 8,
   "linker_set_key" : "android::hardware::hidl_vec<android::hardware::hidl_string> *",
   "name" : "android::hardware::hidl_vec<android::hardware::hidl_string> *",
   "referenced_type" : "type-726",
   "self_type" : "type-727",
   "size" : 8,
   "source_file" : "/system/libhidl/base/include/hidl/HidlSupport.h"
  },
  {
   "alignment" : 8,
   "linker_set_key" : "android::hardware::hidl_version *",
   "name" : "android::hardware::hidl_version *",
   "referenced_type" : "type-839",
   "self_type" : "type-840",
   "size" : 8,
   "source_file" : "/system/libhidl/base/include/hidl/HidlSupport.h"
  },
  {
   "alignment" : 8,
   "linker_set_key" : "android::hidl::base::V1_0::BnHwBase *",
   "name" : "android::hidl::base::V1_0::BnHwBase *",
   "referenced_type" : "type-298",
   "self_type" : "type-900",
   "size" : 8,
   "source_file" : "/out/soong/.intermediates/system/libhidl/transport/base/1.0/android.hidl.base@1.0_genc++_headers/gen/android/hidl/base/1.0/BnHwBase.h"
  },
  {
   "alignment" : 8,
   "linker_set_key" : "android::hidl::base::V1_0::IBase *",
   "name" : "android::hidl::base::V1_0::IBase *",
   "referenced_type" : "type-34",
   "self_type" : "type-57",
   "size" : 8,
   "source_file" : "/system/core/libutils/include/utils/RefBase.h"
  },
  {
   "alignment" : 8,
   "linker_set_key" : "android::hidl::manager::V1_0::IServiceManager *",
   "name" : "android::hidl::manager::V1_0::IServiceManager *",
   "referenced_type" : "type-346",
   "self_type" : "type-345",
   "size" : 8,
   "source_file" : "/system/core/libutils/include/utils/StrongPointer.h"
  },
  {
   "alignment" : 8,
   "linker_set_key" : "android::hidl::manager::V1_0::IServiceNotification *",
   "name" : "android::hidl::manager::V1_0::IServiceNotification *",
   "referenced_type" : "type-407",
   "self_type" : "type-406",
   "size" : 8,
   "source_file" : "/system/core/libutils/include/utils/StrongPointer.h"
  },
  {
   "alignment" : 8,
   "linker_set_key" : "android::sp<android::hardware::IBinder::DeathRecipient> *",
   "name" : "android::sp<android::hardware::IBinder::DeathRecipient> *",
   "referenced_type" : "type-139",
   "self_type" : "type-142",
   "size" : 8,
   "source_file" : "/system/core/libutils/include/utils/StrongPointer.h"
  },
  {
   "alignment" : 8,
   "linker_set_key" : "android::sp<android::hardware::IBinder> *",
   "name" : "android::sp<android::hardware::IBinder> *",
   "referenced_type" : "type-147",
   "self_type" : "type-158",
   "size" : 8,
   "source_file" : "/system/core/libutils/include/utils/StrongPointer.h"
  },
  {
   "alignment" : 8,
   "linker_set_key" : "android::sp<android::hardware::ProcessState> *",
   "name" : "android::sp<android::hardware::ProcessState> *",
   "referenced_type" : "type-199",
   "self_type" : "type-338",
   "size" : 8,
   "source_file" : "/system/core/libutils/include/utils/StrongPointer.h"
  },
  {
   "alignment" : 8,
   "linker_set_key" : "android::sp<android::hardware::bluetooth::audio::V2_0::IBluetoothAudioPort> *",
   "name" : "android::sp<android::hardware::bluetooth::audio::V2_0::IBluetoothAudioPort> *",
   "referenced_type" : "type-65",
   "self_type" : "type-445",
   "size" : 8,
   "source_file" : "/system/core/libutils/include/utils/StrongPointer.h"
  },
  {
   "alignment" : 8,
   "linker_set_key" : "android::sp<android::hardware::bluetooth::audio::V2_0::IBluetoothAudioProvider> *",
   "name" : "android::sp<android::hardware::bluetooth::audio::V2_0::IBluetoothAudioProvider> *",
   "referenced_type" : "type-31",
   "self_type" : "type-30",
   "size" : 8,
   "source_file" : "/system/core/libutils/include/utils/StrongPointer.h"
  },
  {
   "alignment" : 8,
   "linker_set_key" : "android::sp<android::hardware::bluetooth::audio::V2_0::IBluetoothAudioProvidersFactory> *",
   "name" : "android::sp<android::hardware::bluetooth::audio::V2_0::IBluetoothAudioProvidersFactory> *",
   "referenced_type" : "type-293",
   "self_type" : "type-307",
   "size" : 8,
   "source_file" : "/system/core/libutils/include/utils/StrongPointer.h"
  },
  {
   "alignment" : 8,
   "linker_set_key" : "android::sp<android::hardware::hidl_binder_death_recipient> *",
   "name" : "android::sp<android::hardware::hidl_binder_death_recipient> *",
   "referenced_type" : "type-460",
   "self_type" : "type-459",
   "size" : 8,
   "source_file" : "/system/core/libutils/include/utils/StrongPointer.h"
  },
  {
   "alignment" : 8,
   "linker_set_key" : "android::sp<android::hidl::base::V1_0::IBase> *",
   "name" : "android::sp<android::hidl::base::V1_0::IBase> *",
   "referenced_type" : "type-56",
   "self_type" : "type-55",
   "size" : 8,
   "source_file" : "/system/core/libutils/include/utils/StrongPointer.h"
  },
  {
   "alignment" : 8,
   "linker_set_key" : "android::sp<android::hidl::manager::V1_0::IServiceManager> *",
   "name" : "android::sp<android::hidl::manager::V1_0::IServiceManager> *",
   "referenced_type" : "type-344",
   "self_type" : "type-349",
   "size" : 8,
   "source_file" : "/system/core/libutils/include/utils/StrongPointer.h"
  },
  {
   "alignment" : 8,
   "linker_set_key" : "android::sp<android::hidl::manager::V1_0::IServiceNotification> *",
   "name" : "android::sp<android::hidl::manager::V1_0::IServiceNotification> *",
   "referenced_type" : "type-405",
   "self_type" : "type-418",
   "size" : 8,
   "source_file" : "/system/core/libutils/include/utils/StrongPointer.h"
  },
  {
   "alignment" : 8,
   "linker_set_key" : "android::wp<android::hardware::BHwBinder> *",
   "name" : "android::wp<android::hardware::BHwBinder> *",
   "referenced_type" : "type-16",
   "self_type" : "type-1190",
   "size" : 8,
   "source_file" : "/system/core/libutils/include/utils/RefBase.h"
  },
  {
   "alignment" : 8,
   "linker_set_key" : "android::wp<android::hardware::IBinder::DeathRecipient> *",
   "name" : "android::wp<android::hardware::IBinder::DeathRecipient> *",
   "referenced_type" : "type-1061",
   "self_type" : "type-1092",
   "size" : 8,
   "source_file" : "/system/core/libutils/include/utils/RefBase.h"
  },
  {
   "alignment" : 8,
   "linker_set_key" : "android::wp<android::hardware::hidl_death_recipient> *",
   "name" : "android::wp<android::hardware::hidl_death_recipient> *",
   "referenced_type" : "type-463",
   "self_type" : "type-1152",
   "size" : 8,
   "source_file" : "/system/core/libutils/include/utils/RefBase.h"
  },
  {
   "alignment" : 8,
   "linker_set_key" : "android::wp<android::hidl::base::V1_0::IBase> *",
   "name" : "android::wp<android::hidl::base::V1_0::IBase> *",
   "referenced_type" : "type-464",
   "self_type" : "type-929",
   "size" : 8,
   "source_file" : "/system/core/libutils/include/utils/RefBase.h"
  },
  {
   "alignment" : 8,
   "linker_set_key" : "android_flex_plane *",
   "name" : "android_flex_plane *",
   "referenced_type" : "type-962",
   "self_type" : "type-965",
   "size" : 8,
   "source_file" : "/system/core/libsystem/include/system/graphics.h"
  },
  {
   "alignment" : 8,
   "linker_set_key" : "bool (*)(const android::String16 &, const android::sp<android::hardware::IBinder> &, void *)",
   "name" : "bool (*)(const android::String16 &, const android::sp<android::hardware::IBinder> &, void *)",
   "referenced_type" : "type-213",
   "self_type" : "type-212",
   "size" : 8,
   "source_file" : "/system/libhwbinder/include/hwbinder/ProcessState.h"
  },
  {
   "alignment" : 8,
   "linker_set_key" : "char *",
   "name" : "char *",
   "referenced_type" : "type-11",
   "self_type" : "type-707",
   "size" : 8,
   "source_file" : "/system/core/liblog/include/log/log_read.h"
  },
  {
   "alignment" : 8,
   "linker_set_key" : "const android::NativeHandle *",
   "name" : "const android::NativeHandle *",
   "referenced_type" : "type-860",
   "self_type" : "type-861",
   "size" : 8,
   "source_file" : "/system/core/libutils/include/utils/NativeHandle.h"
  },
  {
   "alignment" : 8,
   "linker_set_key" : "const android::RefBase *",
   "name" : "const android::RefBase *",
   "referenced_type" : "type-704",
   "self_type" : "type-708",
   "size" : 8,
   "source_file" : "/system/core/libutils/include/utils/RefBase.h"
  },
  {
   "alignment" : 8,
   "linker_set_key" : "const android::String16 *",
   "name" : "const android::String16 *",
   "referenced_type" : "type-215",
   "self_type" : "type-876",
   "size" : 8,
   "source_file" : "/system/core/libutils/include/utils/String16.h"
  },
  {
   "alignment" : 8,
   "linker_set_key" : "const android::String8 *",
   "name" : "const android::String8 *",
   "referenced_type" : "type-869",
   "self_type" : "type-870",
   "size" : 8,
   "source_file" : "/system/core/libutils/include/utils/String8.h"
  },
  {
   "alignment" : 8,
   "linker_set_key" : "const android::VectorImpl *",
   "name" : "const android::VectorImpl *",
   "referenced_type" : "type-943",
   "self_type" : "type-944",
   "size" : 8,
   "source_file" : "/system/core/libutils/include/utils/VectorImpl.h"
  },
  {
   "alignment" : 8,
   "linker_set_key" : "const android::hardware::BpHwRefBase *",
   "name" : "const android::hardware::BpHwRefBase *",
   "referenced_type" : "type-880",
   "self_type" : "type-882",
   "size" : 8,
   "source_file" : "/system/libhwbinder/include/hwbinder/Binder.h"
  },
  {
   "alignment" : 8,
   "linker_set_key" : "const android::hardware::ConcurrentMap<android::wp<android::hidl::base::V1_0::IBase>, android::hardware::details::SchedPrio> *",
   "name" : "const android::hardware::ConcurrentMap<android::wp<android::hidl::base::V1_0::IBase>, android::hardware::details::SchedPrio> *",
   "referenced_type" : "type-910",
   "self_type" : "type-912",
   "size" : 8,
   "source_file" : "/system/libhidl/transport/include/hidl/ConcurrentMap.h"
  },
  {
   "alignment" : 8,
   "linker_set_key" : "const android::hardware::ConcurrentMap<android::wp<android::hidl::base::V1_0::IBase>, bool> *",
   "name" : "const android::hardware::ConcurrentMap<android::wp<android::hidl::base::V1_0::IBase>, bool> *",
   "referenced_type" : "type-916",
   "self_type" : "type-917",
   "size" : 8,
   "source_file" : "/system/libhidl/transport/include/hidl/ConcurrentMap.h"
  },
  {
   "alignment" : 8,
   "linker_set_key" : "const android::hardware::GrantorDescriptor *",
   "name" : "const android::hardware::GrantorDescriptor *",
   "referenced_type" : "type-78",
   "self_type" : "type-77",
   "size" : 8,
   "source_file" : "/system/libhidl/base/include/hidl/HidlSupport.h"
  },
  {
   "alignment" : 8,
   "linker_set_key" : "const android::hardware::MQDescriptor<unsigned char, android::hardware::kSynchronizedReadWrite> *",
   "name" : "const android::hardware::MQDescriptor<unsigned char, android::hardware::kSynchronizedReadWrite> *",
   "referenced_type" : "type-110",
   "self_type" : "type-112",
   "size" : 8,
   "source_file" : "/system/libhidl/base/include/hidl/MQDescriptor.h"
  },
  {
   "alignment" : 8,
   "linker_set_key" : "const android::hardware::Return<android::sp<android::hardware::bluetooth::audio::V2_0::IBluetoothAudioPort> > *",
   "name" : "const android::hardware::Return<android::sp<android::hardware::bluetooth::audio::V2_0::IBluetoothAudioPort> > *",
   "referenced_type" : "type-591",
   "self_type" : "type-592",
   "size" : 8,
   "source_file" : "/system/libhidl/base/include/hidl/Status.h"
  },
  {
   "alignment" : 8,
   "linker_set_key" : "const android::hardware::Return<android::sp<android::hardware::bluetooth::audio::V2_0::IBluetoothAudioProvider> > *",
   "name" : "const android::hardware::Return<android::sp<android::hardware::bluetooth::audio::V2_0::IBluetoothAudioProvider> > *",
   "referenced_type" : "type-52",
   "self_type" : "type-53",
   "size" : 8,
   "source_file" : "/system/libhidl/base/include/hidl/Status.h"
  },
  {
   "alignment" : 8,
   "linker_set_key" : "const android::hardware::Return<android::sp<android::hardware::bluetooth::audio::V2_0::IBluetoothAudioProvidersFactory> > *",
   "name" : "const android::hardware::Return<android::sp<android::hardware::bluetooth::audio::V2_0::IBluetoothAudioProvidersFactory> > *",
   "referenced_type" : "type-315",
   "self_type" : "type-316",
   "size" : 8,
   "source_file" : "/system/libhidl/base/include/hidl/Status.h"
  },
  {
   "alignment" : 8,
   "linker_set_key" : "const android::hardware::Return<bool> *",
   "name" : "const android::hardware::Return<bool> *",
   "referenced_type" : "type-554",
   "self_type" : "type-555",
   "size" : 8,
   "source_file" : "/system/libhidl/base/include/hidl/Status.h"
  },
  {
   "alignment" : 8,
   "linker_set_key" : "const android::hardware::Status *",
   "name" : "const android::hardware::Status *",
   "referenced_type" : "type-482",
   "self_type" : "type-491",
   "size" : 8,
   "source_file" : "/system/libhidl/base/include/hidl/Status.h"
  },
  {
   "alignment" : 8,
   "linker_set_key" : "const android::hardware::audio::common::V5_0::RecordTrackMetadata::Destination *",
   "name" : "const android::hardware::audio::common::V5_0::RecordTrackMetadata::Destination *",
   "referenced_type" : "type-1019",
   "self_type" : "type-1020",
   "size" : 8,
   "source_file" : "/out/soong/.intermediates/hardware/interfaces/audio/common/5.0/android.hardware.audio.common@5.0_genc++_headers/gen/android/hardware/audio/common/5.0/types.h"
  },
  {
   "alignment" : 8,
   "linker_set_key" : "const android::hardware::bluetooth::audio::V2_0::AudioCapabilities *",
   "name" : "const android::hardware::bluetooth::audio::V2_0::AudioCapabilities *",
   "referenced_type" : "type-519",
   "self_type" : "type-1109",
   "size" : 8,
   "source_file" : "/out/soong/.intermediates/hardware/interfaces/bluetooth/audio/2.0/android.hardware.bluetooth.audio@2.0_genc++_headers/gen/android/hardware/bluetooth/audio/2.0/types.h"
  },
  {
   "alignment" : 8,
   "linker_set_key" : "const android::hardware::bluetooth::audio::V2_0::AudioConfiguration *",
   "name" : "const android::hardware::bluetooth::audio::V2_0::AudioConfiguration *",
   "referenced_type" : "type-264",
   "self_type" : "type-1112",
   "size" : 8,
   "source_file" : "/out/soong/.intermediates/hardware/interfaces/bluetooth/audio/2.0/android.hardware.bluetooth.audio@2.0_genc++_headers/gen/android/hardware/bluetooth/audio/2.0/types.h"
  },
  {
   "alignment" : 8,
   "linker_set_key" : "const android::hardware::bluetooth::audio::V2_0::BpHwBluetoothAudioPort *",
   "name" : "const android::hardware::bluetooth::audio::V2_0::BpHwBluetoothAudioPort *",
   "referenced_type" : "type-1172",
   "self_type" : "type-1174",
   "size" : 8,
   "source_file" : "/out/soong/.intermediates/hardware/interfaces/bluetooth/audio/2.0/android.hardware.bluetooth.audio@2.0_genc++_headers/gen/android/hardware/bluetooth/audio/2.0/BpHwBluetoothAudioPort.h"
  },
  {
   "alignment" : 8,
   "linker_set_key" : "const android::hardware::bluetooth::audio::V2_0::BpHwBluetoothAudioProvider *",
   "name" : "const android::hardware::bluetooth::audio::V2_0::BpHwBluetoothAudioProvider *",
   "referenced_type" : "type-258",
   "self_type" : "type-262",
   "size" : 8,
   "source_file" : "/out/soong/.intermediates/hardware/interfaces/bluetooth/audio/2.0/android.hardware.bluetooth.audio@2.0_genc++_headers/gen/android/hardware/bluetooth/audio/2.0/BpHwBluetoothAudioProvider.h"
  },
  {
   "alignment" : 8,
   "linker_set_key" : "const android::hardware::bluetooth::audio::V2_0::BpHwBluetoothAudioProvidersFactory *",
   "name" : "const android::hardware::bluetooth::audio::V2_0::BpHwBluetoothAudioProvidersFactory *",
   "referenced_type" : "type-454",
   "self_type" : "type-455",
   "size" : 8,
   "source_file" : "/out/soong/.intermediates/hardware/interfaces/bluetooth/audio/2.0/android.hardware.bluetooth.audio@2.0_genc++_headers/gen/android/hardware/bluetooth/audio/2.0/BpHwBluetoothAudioProvidersFactory.h"
  },
  {
   "alignment" : 8,
   "linker_set_key" : "const android::hardware::bluetooth::audio::V2_0::CodecCapabilities::Capabilities *",
   "name" : "const android::hardware::bluetooth::audio::V2_0::CodecCapabilities::Capabilities *",
   "referenced_type" : "type-496",
   "self_type" : "type-1107",
   "size" : 8,
   "source_file" : "/out/soong/.intermediates/hardware/interfaces/bluetooth/audio/2.0/android.hardware.bluetooth.audio@2.0_genc++_headers/gen/android/hardware/bluetooth/audio/2.0/types.h"
  },
  {
   "alignment" : 8,
   "linker_set_key" : "const android::hardware::bluetooth::audio::V2_0::CodecConfiguration::CodecSpecific *",
   "name" : "const android::hardware::bluetooth::audio::V2_0::CodecConfiguration::CodecSpecific *",
   "referenced_type" : "type-541",
   "self_type" : "type-1111",
   "size" : 8,
   "source_file" : "/out/soong/.intermediates/hardware/interfaces/bluetooth/audio/2.0/android.hardware.bluetooth.audio@2.0_genc++_headers/gen/android/hardware/bluetooth/audio/2.0/types.h"
  },
  {
   "alignment" : 8,
   "linker_set_key" : "const android::hardware::bluetooth::audio::V2_0::IBluetoothAudioPort *",
   "name" : "const android::hardware::bluetooth::audio::V2_0::IBluetoothAudioPort *",
   "referenced_type" : "type-1159",
   "self_type" : "type-1160",
   "size" : 8,
   "source_file" : "/out/soong/.intermediates/hardware/interfaces/bluetooth/audio/2.0/android.hardware.bluetooth.audio@2.0_genc++_headers/gen/android/hardware/bluetooth/audio/2.0/IBluetoothAudioPort.h"
  },
  {
   "alignment" : 8,
   "linker_set_key" : "const android::hardware::bluetooth::audio::V2_0::IBluetoothAudioProvider *",
   "name" : "const android::hardware::bluetooth::audio::V2_0::IBluetoothAudioProvider *",
   "referenced_type" : "type-256",
   "self_type" : "type-257",
   "size" : 8,
   "source_file" : "/out/soong/.intermediates/hardware/interfaces/bluetooth/audio/2.0/android.hardware.bluetooth.audio@2.0_genc++_headers/gen/android/hardware/bluetooth/audio/2.0/IBluetoothAudioProvider.h"
  },
  {
   "alignment" : 8,
   "linker_set_key" : "const android::hardware::bluetooth::audio::V2_0::IBluetoothAudioProvidersFactory *",
   "name" : "const android::hardware::bluetooth::audio::V2_0::IBluetoothAudioProvidersFactory *",
   "referenced_type" : "type-450",
   "self_type" : "type-451",
   "size" : 8,
   "source_file" : "/out/soong/.intermediates/hardware/interfaces/bluetooth/audio/2.0/android.hardware.bluetooth.audio@2.0_genc++_headers/gen/android/hardware/bluetooth/audio/2.0/IBluetoothAudioProvidersFactory.h"
  },
  {
   "alignment" : 8,
   "linker_set_key" : "const android::hardware::details::const_accessor<int, 32> *",
   "name" : "const android::hardware::details::const_accessor<int, 32> *",
   "referenced_type" : "type-816",
   "self_type" : "type-818",
   "size" : 8,
   "source_file" : "/system/libhidl/base/include/hidl/HidlSupport.h"
  },
  {
   "alignment" : 8,
   "linker_set_key" : "const android::hardware::details::const_accessor<unsigned char, 32> *",
   "name" : "const android::hardware::details::const_accessor<unsigned char, 32> *",
   "referenced_type" : "type-821",
   "self_type" : "type-822",
   "size" : 8,
   "source_file" : "/system/libhidl/base/include/hidl/HidlSupport.h"
  },
  {
   "alignment" : 8,
   "linker_set_key" : "const android::hardware::details::const_accessor<unsigned char, 4> *",
   "name" : "const android::hardware::details::const_accessor<unsigned char, 4> *",
   "referenced_type" : "type-810",
   "self_type" : "type-811",
   "size" : 8,
   "source_file" : "/system/libhidl/base/include/hidl/HidlSupport.h"
  },
  {
   "alignment" : 8,
   "linker_set_key" : "const android::hardware::details::const_accessor<unsigned char, 6> *",
   "name" : "const android::hardware::details::const_accessor<unsigned char, 6> *",
   "referenced_type" : "type-806",
   "self_type" : "type-807",
   "size" : 8,
   "source_file" : "/system/libhidl/base/include/hidl/HidlSupport.h"
  },
  {
   "alignment" : 8,
   "linker_set_key" : "const android::hardware::details::hidl_pointer<android::hardware::GrantorDescriptor> *",
   "name" : "const android::hardware::details::hidl_pointer<android::hardware::GrantorDescriptor> *",
   "referenced_type" : "type-100",
   "self_type" : "type-101",
   "size" : 8,
   "source_file" : "/system/libhidl/base/include/hidl/HidlInternal.h"
  },
  {
   "alignment" : 8,
   "linker_set_key" : "const android::hardware::details::hidl_pointer<android::hardware::audio::common::V5_0::AudioFormat> *",
   "name" : "const android::hardware::details::hidl_pointer<android::hardware::audio::common::V5_0::AudioFormat> *",
   "referenced_type" : "type-1177",
   "self_type" : "type-1178",
   "size" : 8,
   "source_file" : "/system/libhidl/base/include/hidl/HidlInternal.h"
  },
  {
   "alignment" : 8,
   "linker_set_key" : "const android::hardware::details::hidl_pointer<android::hardware::audio::common::V5_0::AudioGain> *",
   "name" : "const android::hardware::details::hidl_pointer<android::hardware::audio::common::V5_0::AudioGain> *",
   "referenced_type" : "type-1181",
   "self_type" : "type-1182",
   "size" : 8,
   "source_file" : "/system/libhidl/base/include/hidl/HidlInternal.h"
  },
  {
   "alignment" : 8,
   "linker_set_key" : "const android::hardware::details::hidl_pointer<android::hardware::audio::common::V5_0::PlaybackTrackMetadata> *",
   "name" : "const android::hardware::details::hidl_pointer<android::hardware::audio::common::V5_0::PlaybackTrackMetadata> *",
   "referenced_type" : "type-985",
   "self_type" : "type-992",
   "size" : 8,
   "source_file" : "/system/libhidl/base/include/hidl/HidlInternal.h"
  },
  {
   "alignment" : 8,
   "linker_set_key" : "const android::hardware::details::hidl_pointer<android::hardware::audio::common::V5_0::RecordTrackMetadata> *",
   "name" : "const android::hardware::details::hidl_pointer<android::hardware::audio::common::V5_0::RecordTrackMetadata> *",
   "referenced_type" : "type-1055",
   "self_type" : "type-1067",
   "size" : 8,
   "source_file" : "/system/libhidl/base/include/hidl/HidlInternal.h"
  },
  {
   "alignment" : 8,
   "linker_set_key" : "const android::hardware::details::hidl_pointer<android::hardware::bluetooth::audio::V2_0::AudioCapabilities> *",
   "name" : "const android::hardware::details::hidl_pointer<android::hardware::bluetooth::audio::V2_0::AudioCapabilities> *",
   "referenced_type" : "type-456",
   "self_type" : "type-457",
   "size" : 8,
   "source_file" : "/system/libhidl/base/include/hidl/HidlInternal.h"
  },
  {
   "alignment" : 8,
   "linker_set_key" : "const android::hardware::details::hidl_pointer<android::hardware::hidl_array<unsigned char, 32> > *",
   "name" : "const android::hardware::details::hidl_pointer<android::hardware::hidl_array<unsigned char, 32> > *",
   "referenced_type" : "type-662",
   "self_type" : "type-676",
   "size" : 8,
   "source_file" : "/system/libhidl/base/include/hidl/HidlInternal.h"
  },
  {
   "alignment" : 8,
   "linker_set_key" : "const android::hardware::details::hidl_pointer<android::hardware::hidl_string> *",
   "name" : "const android::hardware::details::hidl_pointer<android::hardware::hidl_string> *",
   "referenced_type" : "type-1151",
   "self_type" : "type-1150",
   "size" : 8,
   "source_file" : "/system/libhidl/base/include/hidl/HidlInternal.h"
  },
  {
   "alignment" : 8,
   "linker_set_key" : "const android::hardware::details::hidl_pointer<int> *",
   "name" : "const android::hardware::details::hidl_pointer<int> *",
   "referenced_type" : "type-899",
   "self_type" : "type-911",
   "size" : 8,
   "source_file" : "/system/libhidl/base/include/hidl/HidlInternal.h"
  },
  {
   "alignment" : 8,
   "linker_set_key" : "const android::hardware::details::hidl_pointer<native_handle> *",
   "name" : "const android::hardware::details::hidl_pointer<native_handle> *",
   "referenced_type" : "type-111",
   "self_type" : "type-116",
   "size" : 8,
   "source_file" : "/system/libhidl/base/include/hidl/HidlInternal.h"
  },
  {
   "alignment" : 8,
   "linker_set_key" : "const android::hardware::details::hidl_pointer<unsigned int> *",
   "name" : "const android::hardware::details::hidl_pointer<unsigned int> *",
   "referenced_type" : "type-1108",
   "self_type" : "type-1110",
   "size" : 8,
   "source_file" : "/system/libhidl/base/include/hidl/HidlInternal.h"
  },
  {
   "alignment" : 8,
   "linker_set_key" : "const android::hardware::details::return_status *",
   "name" : "const android::hardware::details::return_status *",
   "referenced_type" : "type-596",
   "self_type" : "type-597",
   "size" : 8,
   "source_file" : "/system/libhidl/base/include/hidl/Status.h"
  },
  {
   "alignment" : 8,
   "linker_set_key" : "const android::hardware::hidl_array<int, 32> *",
   "name" : "const android::hardware::hidl_array<int, 32> *",
   "referenced_type" : "type-836",
   "self_type" : "type-837",
   "size" : 8,
   "source_file" : "/system/libhidl/base/include/hidl/HidlSupport.h"
  },
  {
   "alignment" : 8,
   "linker_set_key" : "const android::hardware::hidl_array<unsigned char, 32> *",
   "name" : "const android::hardware::hidl_array<unsigned char, 32> *",
   "referenced_type" : "type-823",
   "self_type" : "type-824",
   "size" : 8,
   "source_file" : "/system/libhidl/base/include/hidl/HidlSupport.h"
  },
  {
   "alignment" : 8,
   "linker_set_key" : "const android::hardware::hidl_array<unsigned char, 4> *",
   "name" : "const android::hardware::hidl_array<unsigned char, 4> *",
   "referenced_type" : "type-831",
   "self_type" : "type-832",
   "size" : 8,
   "source_file" : "/system/libhidl/base/include/hidl/HidlSupport.h"
  },
  {
   "alignment" : 8,
   "linker_set_key" : "const android::hardware::hidl_array<unsigned char, 6> *",
   "name" : "const android::hardware::hidl_array<unsigned char, 6> *",
   "referenced_type" : "type-827",
   "self_type" : "type-828",
   "size" : 8,
   "source_file" : "/system/libhidl/base/include/hidl/HidlSupport.h"
  },
  {
   "alignment" : 8,
   "linker_set_key" : "const android::hardware::hidl_death_recipient *",
   "name" : "const android::hardware::hidl_death_recipient *",
   "referenced_type" : "type-44",
   "self_type" : "type-54",
   "size" : 8,
   "source_file" : "/system/core/libutils/include/utils/StrongPointer.h"
  },
  {
   "alignment" : 8,
   "linker_set_key" : "const android::hardware::hidl_memory *",
   "name" : "const android::hardware::hidl_memory *",
   "referenced_type" : "type-717",
   "self_type" : "type-721",
   "size" : 8,
   "source_file" : "/system/libhidl/base/include/hidl/HidlSupport.h"
  },
  {
   "alignment" : 8,
   "linker_set_key" : "const android::hardware::hidl_vec<android::hardware::GrantorDescriptor> *",
   "name" : "const android::hardware::hidl_vec<android::hardware::GrantorDescriptor> *",
   "referenced_type" : "type-80",
   "self_type" : "type-85",
   "size" : 8,
   "source_file" : "/system/libhidl/base/include/hidl/HidlSupport.h"
  },
  {
   "alignment" : 8,
   "linker_set_key" : "const android::hardware::hidl_vec<android::hardware::audio::common::V5_0::AudioFormat> *",
   "name" : "const android::hardware::hidl_vec<android::hardware::audio::common::V5_0::AudioFormat> *",
   "referenced_type" : "type-788",
   "self_type" : "type-789",
   "size" : 8,
   "source_file" : "/system/libhidl/base/include/hidl/HidlSupport.h"
  },
  {
   "alignment" : 8,
   "linker_set_key" : "const android::hardware::hidl_vec<android::hardware::audio::common::V5_0::AudioGain> *",
   "name" : "const android::hardware::hidl_vec<android::hardware::audio::common::V5_0::AudioGain> *",
   "referenced_type" : "type-795",
   "self_type" : "type-796",
   "size" : 8,
   "source_file" : "/system/libhidl/base/include/hidl/HidlSupport.h"
  },
  {
   "alignment" : 8,
   "linker_set_key" : "const android::hardware::hidl_vec<android::hardware::audio::common::V5_0::PlaybackTrackMetadata> *",
   "name" : "const android::hardware::hidl_vec<android::hardware::audio::common::V5_0::PlaybackTrackMetadata> *",
   "referenced_type" : "type-750",
   "self_type" : "type-751",
   "size" : 8,
   "source_file" : "/system/libhidl/base/include/hidl/HidlSupport.h"
  },
  {
   "alignment" : 8,
   "linker_set_key" : "const android::hardware::hidl_vec<android::hardware::audio::common::V5_0::RecordTrackMetadata> *",
   "name" : "const android::hardware::hidl_vec<android::hardware::audio::common::V5_0::RecordTrackMetadata> *",
   "referenced_type" : "type-771",
   "self_type" : "type-772",
   "size" : 8,
   "source_file" : "/system/libhidl/base/include/hidl/HidlSupport.h"
  },
  {
   "alignment" : 8,
   "linker_set_key" : "const android::hardware::hidl_vec<android::hardware::bluetooth::audio::V2_0::AudioCapabilities> *",
   "name" : "const android::hardware::hidl_vec<android::hardware::bluetooth::audio::V2_0::AudioCapabilities> *",
   "referenced_type" : "type-339",
   "self_type" : "type-340",
   "size" : 8,
   "source_file" : "/system/libhidl/base/include/hidl/HidlSupport.h"
  },
  {
   "alignment" : 8,
   "linker_set_key" : "const android::hardware::hidl_vec<int> *",
   "name" : "const android::hardware::hidl_vec<int> *",
   "referenced_type" : "type-740",
   "self_type" : "type-741",
   "size" : 8,
   "source_file" : "/system/libhidl/base/include/hidl/HidlSupport.h"
  },
  {
   "alignment" : 8,
   "linker_set_key" : "const android::hardware::hidl_vec<unsigned int> *",
   "name" : "const android::hardware::hidl_vec<unsigned int> *",
   "referenced_type" : "type-778",
   "self_type" : "type-779",
   "size" : 8,
   "source_file" : "/system/libhidl/base/include/hidl/HidlSupport.h"
  },
  {
   "alignment" : 8,
   "linker_set_key" : "const android::hardware::hidl_version *",
   "name" : "const android::hardware::hidl_version *",
   "referenced_type" : "type-841",
   "self_type" : "type-842",
   "size" : 8,
   "source_file" : "/system/libhidl/base/include/hidl/HidlSupport.h"
  },
  {
   "alignment" : 8,
   "linker_set_key" : "const android::hidl::base::V1_0::BpHwBase *",
   "name" : "const android::hidl::base::V1_0::BpHwBase *",
   "referenced_type" : "type-1170",
   "self_type" : "type-1171",
   "size" : 8,
   "source_file" : "/out/soong/.intermediates/system/libhidl/transport/base/1.0/android.hidl.base@1.0_genc++_headers/gen/android/hidl/base/1.0/BpHwBase.h"
  },
  {
   "alignment" : 8,
   "linker_set_key" : "const android::hidl::base::V1_0::IBase *",
   "name" : "const android::hidl::base::V1_0::IBase *",
   "referenced_type" : "type-131",
   "self_type" : "type-138",
   "size" : 8,
   "source_file" : "/system/core/libutils/include/utils/StrongPointer.h"
  },
  {
   "alignment" : 8,
   "linker_set_key" : "const android::hidl::manager::V1_0::IServiceManager *",
   "name" : "const android::hidl::manager::V1_0::IServiceManager *",
   "referenced_type" : "type-358",
   "self_type" : "type-360",
   "size" : 8,
   "source_file" : "/system/core/libutils/include/utils/StrongPointer.h"
  },
  {
   "alignment" : 8,
   "linker_set_key" : "const android::hidl::manager::V1_0::IServiceNotification *",
   "name" : "const android::hidl::manager::V1_0::IServiceNotification *",
   "referenced_type" : "type-995",
   "self_type" : "type-996",
   "size" : 8,
   "source_file" : "/out/soong/.intermediates/system/libhidl/transport/manager/1.0/android.hidl.manager@1.0_genc++_headers/gen/android/hidl/manager/1.0/IServiceNotification.h"
  },
  {
   "alignment" : 8,
   "linker_set_key" : "const android::sp<android::hardware::IBinder> *",
   "name" : "const android::sp<android::hardware::IBinder> *",
   "referenced_type" : "type-167",
   "self_type" : "type-178",
   "size" : 8,
   "source_file" : "/system/core/libutils/include/utils/StrongPointer.h"
  },
  {
   "alignment" : 8,
   "linker_set_key" : "const android::sp<android::hardware::ProcessState> *",
   "name" : "const android::sp<android::hardware::ProcessState> *",
   "referenced_type" : "type-342",
   "self_type" : "type-343",
   "size" : 8,
   "source_file" : "/system/core/libutils/include/utils/StrongPointer.h"
  },
  {
   "alignment" : 8,
   "linker_set_key" : "const android::sp<android::hardware::bluetooth::audio::V2_0::IBluetoothAudioPort> *",
   "name" : "const android::sp<android::hardware::bluetooth::audio::V2_0::IBluetoothAudioPort> *",
   "referenced_type" : "type-64",
   "self_type" : "type-458",
   "size" : 8,
   "source_file" : "/system/core/libutils/include/utils/StrongPointer.h"
  },
  {
   "alignment" : 8,
   "linker_set_key" : "const android::sp<android::hardware::bluetooth::audio::V2_0::IBluetoothAudioProvider> *",
   "name" : "const android::sp<android::hardware::bluetooth::audio::V2_0::IBluetoothAudioProvider> *",
   "referenced_type" : "type-38",
   "self_type" : "type-37",
   "size" : 8,
   "source_file" : "/system/core/libutils/include/utils/StrongPointer.h"
  },
  {
   "alignment" : 8,
   "linker_set_key" : "const android::sp<android::hardware::bluetooth::audio::V2_0::IBluetoothAudioProvidersFactory> *",
   "name" : "const android::sp<android::hardware::bluetooth::audio::V2_0::IBluetoothAudioProvidersFactory> *",
   "referenced_type" : "type-292",
   "self_type" : "type-310",
   "size" : 8,
   "source_file" : "/system/core/libutils/include/utils/StrongPointer.h"
  },
  {
   "alignment" : 8,
   "linker_set_key" : "const android::sp<android::hardware::hidl_binder_death_recipient> *",
   "name" : "const android::sp<android::hardware::hidl_binder_death_recipient> *",
   "referenced_type" : "type-468",
   "self_type" : "type-467",
   "size" : 8,
   "source_file" : "/system/core/libutils/include/utils/StrongPointer.h"
  },
  {
   "alignment" : 8,
   "linker_set_key" : "const android::sp<android::hardware::hidl_death_recipient> *",
   "name" : "const android::sp<android::hardware::hidl_death_recipient> *",
   "referenced_type" : "type-40",
   "self_type" : "type-39",
   "size" : 8,
   "source_file" : "/system/core/libutils/include/utils/StrongPointer.h"
  },
  {
   "alignment" : 8,
   "linker_set_key" : "const android::sp<android::hidl::base::V1_0::IBase> *",
   "name" : "const android::sp<android::hidl::base::V1_0::IBase> *",
   "referenced_type" : "type-58",
   "self_type" : "type-130",
   "size" : 8,
   "source_file" : "/system/core/libutils/include/utils/StrongPointer.h"
  },
  {
   "alignment" : 8,
   "linker_set_key" : "const android::sp<android::hidl::manager::V1_0::IServiceManager> *",
   "name" : "const android::sp<android::hidl::manager::V1_0::IServiceManager> *",
   "referenced_type" : "type-350",
   "self_type" : "type-352",
   "size" : 8,
   "source_file" : "/system/core/libutils/include/utils/StrongPointer.h"
  },
  {
   "alignment" : 8,
   "linker_set_key" : "const android::sp<android::hidl::manager::V1_0::IServiceNotification> *",
   "name" : "const android::sp<android::hidl::manager::V1_0::IServiceNotification> *",
   "referenced_type" : "type-425",
   "self_type" : "type-436",
   "size" : 8,
   "source_file" : "/system/core/libutils/include/utils/StrongPointer.h"
  },
  {
   "alignment" : 8,
   "linker_set_key" : "const android::wp<android::hardware::BHwBinder> *",
   "name" : "const android::wp<android::hardware::BHwBinder> *",
   "referenced_type" : "type-15",
   "self_type" : "type-1198",
   "size" : 8,
   "source_file" : "/system/core/libutils/include/utils/RefBase.h"
  },
  {
   "alignment" : 8,
   "linker_set_key" : "const android::wp<android::hardware::hidl_death_recipient> *",
   "name" : "const android::wp<android::hardware::hidl_death_recipient> *",
   "referenced_type" : "type-1163",
   "self_type" : "type-1173",
   "size" : 8,
   "source_file" : "/system/core/libutils/include/utils/RefBase.h"
  },
  {
   "alignment" : 8,
   "linker_set_key" : "const android::wp<android::hidl::base::V1_0::IBase> *",
   "name" : "const android::wp<android::hidl::base::V1_0::IBase> *",
   "referenced_type" : "type-1028",
   "self_type" : "type-1039",
   "size" : 8,
   "source_file" : "/system/core/libutils/include/utils/RefBase.h"
  },
  {
   "alignment" : 8,
   "linker_set_key" : "const char *",
   "name" : "const char *",
   "referenced_type" : "type-10",
   "self_type" : "type-9",
   "size" : 8,
   "source_file" : "/system/libhidl/base/include/hidl/HidlInternal.h"
  },
  {
   "alignment" : 8,
   "linker_set_key" : "const char16_t *",
   "name" : "const char16_t *",
   "referenced_type" : "type-218",
   "self_type" : "type-217",
   "size" : 8,
   "source_file" : "/system/core/libutils/include/utils/String16.h"
  },
  {
   "alignment" : 8,
   "linker_set_key" : "const int *",
   "name" : "const int *",
   "referenced_type" : "type-814",
   "self_type" : "type-813",
   "size" : 8,
   "source_file" : "/system/libhidl/base/include/hidl/HidlSupport.h"
  },
  {
   "alignment" : 8,
   "linker_set_key" : "const log_msg *",
   "name" : "const log_msg *",
   "referenced_type" : "type-148",
   "self_type" : "type-341",
   "size" : 8,
   "source_file" : "/system/core/liblog/include/log/log_read.h"
  },
  {
   "alignment" : 8,
   "linker_set_key" : "const native_handle *",
   "name" : "const native_handle *",
   "referenced_type" : "type-675",
   "self_type" : "type-674",
   "size" : 8,
   "source_file" : "/system/libhidl/base/include/hidl/HidlInternal.h"
  },
  {
   "alignment" : 8,
   "linker_set_key" : "const unsigned char *",
   "name" : "const unsigned char *",
   "referenced_type" : "type-688",
   "self_type" : "type-803",
   "size" : 8,
   "source_file" : "/system/libhidl/base/include/hidl/HidlSupport.h"
  },
  {
   "alignment" : 8,
   "linker_set_key" : "const unsigned long long *",
   "name" : "const unsigned long long *",
   "referenced_type" : "type-893",
   "self_type" : "type-892",
   "size" : 8,
   "source_file" : "/system/libhwbinder/include/hwbinder/Parcel.h"
  },
  {
   "alignment" : 8,
   "linker_set_key" : "const void *",
   "name" : "const void *",
   "referenced_type" : "type-844",
   "self_type" : "type-845",
   "size" : 8,
   "source_file" : "/system/libhidl/base/include/hidl/HidlSupport.h"
  },
  {
   "alignment" : 8,
   "linker_set_key" : "int (*)(void *)",
   "name" : "int (*)(void *)",
   "referenced_type" : "type-973",
   "self_type" : "type-974",
   "size" : 8,
   "source_file" : "/system/core/libutils/include/utils/AndroidThreads.h"
  },
  {
   "alignment" : 8,
   "linker_set_key" : "int *",
   "name" : "int *",
   "referenced_type" : "type-19",
   "self_type" : "type-739",
   "size" : 8,
   "source_file" : "/system/libhidl/base/include/hidl/HidlInternal.h"
  },
  {
   "alignment" : 8,
   "linker_set_key" : "log_msg *",
   "name" : "log_msg *",
   "referenced_type" : "type-149",
   "self_type" : "type-478",
   "size" : 8,
   "source_file" : "/system/core/liblog/include/log/log_read.h"
  },
  {
   "alignment" : 8,
   "linker_set_key" : "native_handle *",
   "name" : "native_handle *",
   "referenced_type" : "type-106",
   "self_type" : "type-105",
   "size" : 8,
   "source_file" : "/system/libhidl/base/include/hidl/HidlInternal.h"
  },
  {
   "alignment" : 8,
   "linker_set_key" : "unsigned char *",
   "name" : "unsigned char *",
   "referenced_type" : "type-108",
   "self_type" : "type-887",
   "size" : 8,
   "source_file" : "/system/libhwbinder/include/hwbinder/Parcel.h"
  },
  {
   "alignment" : 8,
   "linker_set_key" : "unsigned int *",
   "name" : "unsigned int *",
   "referenced_type" : "type-2",
   "self_type" : "type-777",
   "size" : 8,
   "source_file" : "/system/libhidl/base/include/hidl/HidlInternal.h"
  },
  {
   "alignment" : 8,
   "linker_set_key" : "unsigned long *",
   "name" : "unsigned long *",
   "referenced_type" : "type-12",
   "self_type" : "type-124",
   "size" : 8,
   "source_file" : "/system/libhidl/transport/include/hidl/HidlBinderSupport.h"
  },
  {
   "alignment" : 8,
   "linker_set_key" : "unsigned long long *",
   "name" : "unsigned long long *",
   "referenced_type" : "type-665",
   "self_type" : "type-888",
   "size" : 8,
   "source_file" : "/system/libhwbinder/include/hwbinder/Parcel.h"
  },
  {
   "alignment" : 8,
   "linker_set_key" : "void (*)(android::hardware::Parcel *, const unsigned char *, unsigned long, const unsigned long long *, unsigned long, void *)",
   "name" : "void (*)(android::hardware::Parcel *, const unsigned char *, unsigned long, const unsigned long long *, unsigned long, void *)",
   "referenced_type" : "type-890",
   "self_type" : "type-889",
   "size" : 8,
   "source_file" : "/system/libhwbinder/include/hwbinder/Parcel.h"
  },
  {
   "alignment" : 8,
   "linker_set_key" : "void *",
   "name" : "void *",
   "referenced_type" : "type-22",
   "self_type" : "type-21",
   "size" : 8,
   "source_file" : "/system/libhwbinder/include/hwbinder/Binder.h"
  },
  {
   "alignment" : 8,
   "linker_set_key" : "void **",
   "name" : "void **",
   "referenced_type" : "type-21",
   "self_type" : "type-975",
   "size" : 8,
   "source_file" : "/system/core/libutils/include/utils/AndroidThreads.h"
  }
 ],
 "qualified_types" :
 [
  {
   "alignment" : 8,
   "is_const" : true,
   "linker_set_key" : "android::RefBase::weakref_impl *const",
   "name" : "android::RefBase::weakref_impl *const",
   "referenced_type" : "type-26",
   "self_type" : "type-25",
   "size" : 8,
   "source_file" : "/system/core/libutils/include/utils/RefBase.h"
  },
  {
   "alignment" : 8,
   "is_const" : true,
   "linker_set_key" : "android::RefBase::weakref_impl *const",
   "name" : "android::RefBase::weakref_impl *const",
   "referenced_type" : "type-317",
   "self_type" : "type-319",
   "size" : 8,
   "source_file" : "/system/core/libutils/include/utils/RefBase.h"
  },
  {
   "alignment" : 8,
   "is_const" : true,
   "linker_set_key" : "android::RefBase::weakref_impl *const",
   "name" : "android::RefBase::weakref_impl *const",
   "referenced_type" : "type-470",
   "self_type" : "type-472",
   "size" : 8,
   "source_file" : "/system/core/libutils/include/utils/RefBase.h"
  },
  {
   "alignment" : 8,
   "is_const" : true,
   "linker_set_key" : "android::RefBase::weakref_impl *const",
   "name" : "android::RefBase::weakref_impl *const",
   "referenced_type" : "type-59",
   "self_type" : "type-62",
   "size" : 8,
   "source_file" : "/system/core/libutils/include/utils/RefBase.h"
  },
  {
   "alignment" : 8,
   "is_const" : true,
   "linker_set_key" : "android::hardware::IBinder *const",
   "name" : "android::hardware::IBinder *const",
   "referenced_type" : "type-98",
   "self_type" : "type-97",
   "size" : 8,
   "source_file" : "/system/libhwbinder/include/hwbinder/Binder.h"
  },
  {
   "alignment" : 8,
   "is_const" : true,
   "linker_set_key" : "const android::NativeHandle",
   "name" : "const android::NativeHandle",
   "referenced_type" : "type-608",
   "self_type" : "type-860",
   "size" : 24,
   "source_file" : "/system/core/libutils/include/utils/NativeHandle.h"
  },
  {
   "alignment" : 8,
   "is_const" : true,
   "linker_set_key" : "const android::RefBase",
   "name" : "const android::RefBase",
   "referenced_type" : "type-24",
   "self_type" : "type-704",
   "size" : 16,
   "source_file" : "/system/core/libutils/include/utils/RefBase.h"
  },
  {
   "alignment" : 8,
   "is_const" : true,
   "linker_set_key" : "const android::String16",
   "name" : "const android::String16",
   "referenced_type" : "type-216",
   "self_type" : "type-215",
   "size" : 8,
   "source_file" : "/system/core/libutils/include/utils/String16.h"
  },
  {
   "alignment" : 8,
   "is_const" : true,
   "linker_set_key" : "const android::String8",
   "name" : "const android::String8",
   "referenced_type" : "type-225",
   "self_type" : "type-869",
   "size" : 8,
   "source_file" : "/system/core/libutils/include/utils/String8.h"
  },
  {
   "alignment" : 8,
   "is_const" : true,
   "linker_set_key" : "const android::VectorImpl",
   "name" : "const android::VectorImpl",
   "referenced_type" : "type-208",
   "self_type" : "type-943",
   "size" : 40,
   "source_file" : "/system/core/libutils/include/utils/VectorImpl.h"
  },
  {
   "alignment" : 8,
   "is_const" : true,
   "linker_set_key" : "const android::hardware::BpHwRefBase",
   "name" : "const android::hardware::BpHwRefBase",
   "referenced_type" : "type-96",
   "self_type" : "type-880",
   "size" : 48,
   "source_file" : "/system/libhwbinder/include/hwbinder/Binder.h"
  },
  {
   "alignment" : 8,
   "is_const" : true,
   "linker_set_key" : "const android::hardware::ConcurrentMap<android::wp<android::hidl::base::V1_0::IBase>, android::hardware::details::SchedPrio>",
   "name" : "const android::hardware::ConcurrentMap<android::wp<android::hidl::base::V1_0::IBase>, android::hardware::details::SchedPrio>",
   "referenced_type" : "type-904",
   "self_type" : "type-910",
   "size" : 64,
   "source_file" : "/system/libhidl/transport/include/hidl/ConcurrentMap.h"
  },
  {
   "alignment" : 8,
   "is_const" : true,
   "linker_set_key" : "const android::hardware::ConcurrentMap<android::wp<android::hidl::base::V1_0::IBase>, bool>",
   "name" : "const android::hardware::ConcurrentMap<android::wp<android::hidl::base::V1_0::IBase>, bool>",
   "referenced_type" : "type-913",
   "self_type" : "type-916",
   "size" : 64,
   "source_file" : "/system/libhidl/transport/include/hidl/ConcurrentMap.h"
  },
  {
   "alignment" : 8,
   "is_const" : true,
   "linker_set_key" : "const android::hardware::GrantorDescriptor",
   "name" : "const android::hardware::GrantorDescriptor",
   "referenced_type" : "type-79",
   "self_type" : "type-78",
   "size" : 24,
   "source_file" : "/system/libhidl/base/include/hidl/HidlSupport.h"
  },
  {
   "alignment" : 8,
   "is_const" : true,
   "linker_set_key" : "const android::hardware::MQDescriptor<unsigned char, android::hardware::kSynchronizedReadWrite>",
   "name" : "const android::hardware::MQDescriptor<unsigned char, android::hardware::kSynchronizedReadWrite>",
   "referenced_type" : "type-102",
   "self_type" : "type-110",
   "size" : 32,
   "source_file" : "/system/libhidl/base/include/hidl/MQDescriptor.h"
  },
  {
   "alignment" : 8,
   "is_const" : true,
   "linker_set_key" : "const android::hardware::Parcel",
   "name" : "const android::hardware::Parcel",
   "referenced_type" : "type-885",
   "self_type" : "type-897",
   "size" : 136,
   "source_file" : "/system/libhwbinder/include/hwbinder/Parcel.h"
  },
  {
   "alignment" : 8,
   "is_const" : true,
   "linker_set_key" : "const android::hardware::Return<android::sp<android::hardware::bluetooth::audio::V2_0::IBluetoothAudioPort> >",
   "name" : "const android::hardware::Return<android::sp<android::hardware::bluetooth::audio::V2_0::IBluetoothAudioPort> >",
   "referenced_type" : "type-560",
   "self_type" : "type-591",
   "size" : 48,
   "source_file" : "/system/libhidl/base/include/hidl/Status.h"
  },
  {
   "alignment" : 8,
   "is_const" : true,
   "linker_set_key" : "const android::hardware::Return<android::sp<android::hardware::bluetooth::audio::V2_0::IBluetoothAudioProvider> >",
   "name" : "const android::hardware::Return<android::sp<android::hardware::bluetooth::audio::V2_0::IBluetoothAudioProvider> >",
   "referenced_type" : "type-45",
   "self_type" : "type-52",
   "size" : 48,
   "source_file" : "/system/libhidl/base/include/hidl/Status.h"
  },
  {
   "alignment" : 8,
   "is_const" : true,
   "linker_set_key" : "const android::hardware::Return<android::sp<android::hardware::bluetooth::audio::V2_0::IBluetoothAudioProvidersFactory> >",
   "name" : "const android::hardware::Return<android::sp<android::hardware::bluetooth::audio::V2_0::IBluetoothAudioProvidersFactory> >",
   "referenced_type" : "type-311",
   "self_type" : "type-315",
   "size" : 48,
   "source_file" : "/system/libhidl/base/include/hidl/Status.h"
  },
  {
   "alignment" : 8,
   "is_const" : true,
   "linker_set_key" : "const android::hardware::Return<bool>",
   "name" : "const android::hardware::Return<bool>",
   "referenced_type" : "type-502",
   "self_type" : "type-554",
   "size" : 40,
   "source_file" : "/system/libhidl/base/include/hidl/Status.h"
  },
  {
   "alignment" : 8,
   "is_const" : true,
   "linker_set_key" : "const android::hardware::Status",
   "name" : "const android::hardware::Status",
   "referenced_type" : "type-47",
   "self_type" : "type-482",
   "size" : 32,
   "source_file" : "/system/libhidl/base/include/hidl/Status.h"
  },
  {
   "alignment" : 4,
   "is_const" : true,
   "linker_set_key" : "const android::hardware::audio::common::V5_0::AudioChannelMask",
   "name" : "const android::hardware::audio::common::V5_0::AudioChannelMask",
   "referenced_type" : "type-1012",
   "self_type" : "type-1051",
   "size" : 4,
   "source_file" : "/out/soong/.intermediates/hardware/interfaces/audio/common/5.0/android.hardware.audio.common@5.0_genc++_headers/gen/android/hardware/audio/common/5.0/types.h"
  },
  {
   "alignment" : 4,
   "is_const" : true,
   "linker_set_key" : "const android::hardware::audio::common::V5_0::AudioContentType",
   "name" : "const android::hardware::audio::common::V5_0::AudioContentType",
   "referenced_type" : "type-749",
   "self_type" : "type-1058",
   "size" : 4,
   "source_file" : "/out/soong/.intermediates/hardware/interfaces/audio/common/5.0/android.hardware.audio.common@5.0_genc++_headers/gen/android/hardware/audio/common/5.0/types.h"
  },
  {
   "alignment" : 4,
   "is_const" : true,
   "linker_set_key" : "const android::hardware::audio::common::V5_0::AudioDevice",
   "name" : "const android::hardware::audio::common::V5_0::AudioDevice",
   "referenced_type" : "type-764",
   "self_type" : "type-1053",
   "size" : 4,
   "source_file" : "/out/soong/.intermediates/hardware/interfaces/audio/common/5.0/android.hardware.audio.common@5.0_genc++_headers/gen/android/hardware/audio/common/5.0/types.h"
  },
  {
   "alignment" : 4,
   "is_const" : true,
   "linker_set_key" : "const android::hardware::audio::common::V5_0::AudioFormat",
   "name" : "const android::hardware::audio::common::V5_0::AudioFormat",
   "referenced_type" : "type-784",
   "self_type" : "type-1162",
   "size" : 4,
   "source_file" : "/system/libhidl/base/include/hidl/HidlInternal.h"
  },
  {
   "alignment" : 4,
   "is_const" : true,
   "linker_set_key" : "const android::hardware::audio::common::V5_0::AudioGain",
   "name" : "const android::hardware::audio::common::V5_0::AudioGain",
   "referenced_type" : "type-794",
   "self_type" : "type-1180",
   "size" : 32,
   "source_file" : "/system/libhidl/base/include/hidl/HidlInternal.h"
  },
  {
   "alignment" : 4,
   "is_const" : true,
   "linker_set_key" : "const android::hardware::audio::common::V5_0::AudioGainMode",
   "name" : "const android::hardware::audio::common::V5_0::AudioGainMode",
   "referenced_type" : "type-1022",
   "self_type" : "type-1059",
   "size" : 4,
   "source_file" : "/out/soong/.intermediates/hardware/interfaces/audio/common/5.0/android.hardware.audio.common@5.0_genc++_headers/gen/android/hardware/audio/common/5.0/types.h"
  },
  {
   "alignment" : 4,
   "is_const" : true,
   "linker_set_key" : "const android::hardware::audio::common::V5_0::AudioHandleConsts",
   "name" : "const android::hardware::audio::common::V5_0::AudioHandleConsts",
   "referenced_type" : "type-1007",
   "self_type" : "type-1044",
   "size" : 4,
   "source_file" : "/out/soong/.intermediates/hardware/interfaces/audio/common/5.0/android.hardware.audio.common@5.0_genc++_headers/gen/android/hardware/audio/common/5.0/types.h"
  },
  {
   "alignment" : 4,
   "is_const" : true,
   "linker_set_key" : "const android::hardware::audio::common::V5_0::AudioInputFlag",
   "name" : "const android::hardware::audio::common::V5_0::AudioInputFlag",
   "referenced_type" : "type-1015",
   "self_type" : "type-1056",
   "size" : 4,
   "source_file" : "/out/soong/.intermediates/hardware/interfaces/audio/common/5.0/android.hardware.audio.common@5.0_genc++_headers/gen/android/hardware/audio/common/5.0/types.h"
  },
  {
   "alignment" : 4,
   "is_const" : true,
   "linker_set_key" : "const android::hardware::audio::common::V5_0::AudioMixLatencyClass",
   "name" : "const android::hardware::audio::common::V5_0::AudioMixLatencyClass",
   "referenced_type" : "type-1037",
   "self_type" : "type-1064",
   "size" : 4,
   "source_file" : "/out/soong/.intermediates/hardware/interfaces/audio/common/5.0/android.hardware.audio.common@5.0_genc++_headers/gen/android/hardware/audio/common/5.0/types.h"
  },
  {
   "alignment" : 4,
   "is_const" : true,
   "linker_set_key" : "const android::hardware::audio::common::V5_0::AudioMode",
   "name" : "const android::hardware::audio::common::V5_0::AudioMode",
   "referenced_type" : "type-1013",
   "self_type" : "type-1052",
   "size" : 4,
   "source_file" : "/out/soong/.intermediates/hardware/interfaces/audio/common/5.0/android.hardware.audio.common@5.0_genc++_headers/gen/android/hardware/audio/common/5.0/types.h"
  },
  {
   "alignment" : 4,
   "is_const" : true,
   "linker_set_key" : "const android::hardware::audio::common::V5_0::AudioOutputFlag",
   "name" : "const android::hardware::audio::common::V5_0::AudioOutputFlag",
   "referenced_type" : "type-1014",
   "self_type" : "type-1054",
   "size" : 4,
   "source_file" : "/out/soong/.intermediates/hardware/interfaces/audio/common/5.0/android.hardware.audio.common@5.0_genc++_headers/gen/android/hardware/audio/common/5.0/types.h"
  },
  {
   "alignment" : 4,
   "is_const" : true,
   "linker_set_key" : "const android::hardware::audio::common::V5_0::AudioPortConfigMask",
   "name" : "const android::hardware::audio::common::V5_0::AudioPortConfigMask",
   "referenced_type" : "type-1029",
   "self_type" : "type-1063",
   "size" : 4,
   "source_file" : "/out/soong/.intermediates/hardware/interfaces/audio/common/5.0/android.hardware.audio.common@5.0_genc++_headers/gen/android/hardware/audio/common/5.0/types.h"
  },
  {
   "alignment" : 4,
   "is_const" : true,
   "linker_set_key" : "const android::hardware::audio::common::V5_0::AudioPortRole",
   "name" : "const android::hardware::audio::common::V5_0::AudioPortRole",
   "referenced_type" : "type-1024",
   "self_type" : "type-1060",
   "size" : 4,
   "source_file" : "/out/soong/.intermediates/hardware/interfaces/audio/common/5.0/android.hardware.audio.common@5.0_genc++_headers/gen/android/hardware/audio/common/5.0/types.h"
  },
  {
   "alignment" : 4,
   "is_const" : true,
   "linker_set_key" : "const android::hardware::audio::common::V5_0::AudioPortType",
   "name" : "const android::hardware::audio::common::V5_0::AudioPortType",
   "referenced_type" : "type-1025",
   "self_type" : "type-1062",
   "size" : 4,
   "source_file" : "/out/soong/.intermediates/hardware/interfaces/audio/common/5.0/android.hardware.audio.common@5.0_genc++_headers/gen/android/hardware/audio/common/5.0/types.h"
  },
  {
   "alignment" : 4,
   "is_const" : true,
   "linker_set_key" : "const android::hardware::audio::common::V5_0::AudioSessionConsts",
   "name" : "const android::hardware::audio::common::V5_0::AudioSessionConsts",
   "referenced_type" : "type-1010",
   "self_type" : "type-1047",
   "size" : 4,
   "source_file" : "/out/soong/.intermediates/hardware/interfaces/audio/common/5.0/android.hardware.audio.common@5.0_genc++_headers/gen/android/hardware/audio/common/5.0/types.h"
  },
  {
   "alignment" : 4,
   "is_const" : true,
   "linker_set_key" : "const android::hardware::audio::common::V5_0::AudioSource",
   "name" : "const android::hardware::audio::common::V5_0::AudioSource",
   "referenced_type" : "type-758",
   "self_type" : "type-1046",
   "size" : 4,
   "source_file" : "/out/soong/.intermediates/hardware/interfaces/audio/common/5.0/android.hardware.audio.common@5.0_genc++_headers/gen/android/hardware/audio/common/5.0/types.h"
  },
  {
   "alignment" : 4,
   "is_const" : true,
   "linker_set_key" : "const android::hardware::audio::common::V5_0::AudioStreamType",
   "name" : "const android::hardware::audio::common::V5_0::AudioStreamType",
   "referenced_type" : "type-1009",
   "self_type" : "type-1045",
   "size" : 4,
   "source_file" : "/out/soong/.intermediates/hardware/interfaces/audio/common/5.0/android.hardware.audio.common@5.0_genc++_headers/gen/android/hardware/audio/common/5.0/types.h"
  },
  {
   "alignment" : 4,
   "is_const" : true,
   "linker_set_key" : "const android::hardware::audio::common::V5_0::AudioUsage",
   "name" : "const android::hardware::audio::common::V5_0::AudioUsage",
   "referenced_type" : "type-748",
   "self_type" : "type-1057",
   "size" : 4,
   "source_file" : "/out/soong/.intermediates/hardware/interfaces/audio/common/5.0/android.hardware.audio.common@5.0_genc++_headers/gen/android/hardware/audio/common/5.0/types.h"
  },
  {
   "alignment" : 4,
   "is_const" : true,
   "linker_set_key" : "const android::hardware::audio::common::V5_0::FixedChannelCount",
   "name" : "const android::hardware::audio::common::V5_0::FixedChannelCount",
   "referenced_type" : "type-1011",
   "self_type" : "type-1049",
   "size" : 4,
   "source_file" : "/out/soong/.intermediates/hardware/interfaces/audio/common/5.0/android.hardware.audio.common@5.0_genc++_headers/gen/android/hardware/audio/common/5.0/types.h"
  },
  {
   "alignment" : 4,
   "is_const" : true,
   "linker_set_key" : "const android::hardware::audio::common::V5_0::PlaybackTrackMetadata",
   "name" : "const android::hardware::audio::common::V5_0::PlaybackTrackMetadata",
   "referenced_type" : "type-747",
   "self_type" : "type-967",
   "size" : 12,
   "source_file" : "/system/libhidl/base/include/hidl/HidlInternal.h"
  },
  {
   "alignment" : 8,
   "is_const" : true,
   "linker_set_key" : "const android::hardware::audio::common::V5_0::RecordTrackMetadata",
   "name" : "const android::hardware::audio::common::V5_0::RecordTrackMetadata",
   "referenced_type" : "type-757",
   "self_type" : "type-1035",
   "size" : 64,
   "source_file" : "/system/libhidl/base/include/hidl/HidlInternal.h"
  },
  {
   "alignment" : 8,
   "is_const" : true,
   "linker_set_key" : "const android::hardware::audio::common::V5_0::RecordTrackMetadata::Destination",
   "name" : "const android::hardware::audio::common::V5_0::RecordTrackMetadata::Destination",
   "referenced_type" : "type-759",
   "self_type" : "type-1019",
   "size" : 56,
   "source_file" : "/out/soong/.intermediates/hardware/interfaces/audio/common/5.0/android.hardware.audio.common@5.0_genc++_headers/gen/android/hardware/audio/common/5.0/types.h"
  },
  {
   "alignment" : 8,
   "is_const" : true,
   "linker_set_key" : "const android::hardware::audio::common::V5_0::SourceMetadata",
   "name" : "const android::hardware::audio::common::V5_0::SourceMetadata",
   "referenced_type" : "type-1018",
   "self_type" : "type-1175",
   "size" : 16,
   "source_file" : "/out/soong/.intermediates/hardware/interfaces/bluetooth/audio/2.0/android.hardware.bluetooth.audio@2.0_genc++_headers/gen/android/hardware/bluetooth/audio/2.0/BpHwBluetoothAudioPort.h"
  },
  {
   "alignment" : 1,
   "is_const" : true,
   "linker_set_key" : "const android::hardware::bluetooth::audio::V2_0::AacObjectType",
   "name" : "const android::hardware::bluetooth::audio::V2_0::AacObjectType",
   "referenced_type" : "type-283",
   "self_type" : "type-1123",
   "size" : 1,
   "source_file" : "/out/soong/.intermediates/hardware/interfaces/bluetooth/audio/2.0/android.hardware.bluetooth.audio@2.0_genc++_headers/gen/android/hardware/bluetooth/audio/2.0/types.h"
  },
  {
   "alignment" : 4,
   "is_const" : true,
   "linker_set_key" : "const android::hardware::bluetooth::audio::V2_0::AacParameters",
   "name" : "const android::hardware::bluetooth::audio::V2_0::AacParameters",
   "referenced_type" : "type-282",
   "self_type" : "type-503",
   "size" : 12,
   "source_file" : "/out/soong/.intermediates/hardware/interfaces/bluetooth/audio/2.0/android.hardware.bluetooth.audio@2.0_genc++_headers/gen/android/hardware/bluetooth/audio/2.0/types.h"
  },
  {
   "alignment" : 1,
   "is_const" : true,
   "linker_set_key" : "const android::hardware::bluetooth::audio::V2_0::AacVariableBitRate",
   "name" : "const android::hardware::bluetooth::audio::V2_0::AacVariableBitRate",
   "referenced_type" : "type-284",
   "self_type" : "type-1124",
   "size" : 1,
   "source_file" : "/out/soong/.intermediates/hardware/interfaces/bluetooth/audio/2.0/android.hardware.bluetooth.audio@2.0_genc++_headers/gen/android/hardware/bluetooth/audio/2.0/types.h"
  },
  {
   "alignment" : 4,
   "is_const" : true,
   "linker_set_key" : "const android::hardware::bluetooth::audio::V2_0::AptxParameters",
   "name" : "const android::hardware::bluetooth::audio::V2_0::AptxParameters",
   "referenced_type" : "type-288",
   "self_type" : "type-511",
   "size" : 8,
   "source_file" : "/out/soong/.intermediates/hardware/interfaces/bluetooth/audio/2.0/android.hardware.bluetooth.audio@2.0_genc++_headers/gen/android/hardware/bluetooth/audio/2.0/types.h"
  },
  {
   "alignment" : 4,
   "is_const" : true,
   "linker_set_key" : "const android::hardware::bluetooth::audio::V2_0::AudioCapabilities",
   "name" : "const android::hardware::bluetooth::audio::V2_0::AudioCapabilities",
   "referenced_type" : "type-331",
   "self_type" : "type-519",
   "size" : 24,
   "source_file" : "/out/soong/.intermediates/hardware/interfaces/bluetooth/audio/2.0/android.hardware.bluetooth.audio@2.0_genc++_headers/gen/android/hardware/bluetooth/audio/2.0/types.h"
  },
  {
   "alignment" : 4,
   "is_const" : true,
   "linker_set_key" : "const android::hardware::bluetooth::audio::V2_0::AudioConfiguration",
   "name" : "const android::hardware::bluetooth::audio::V2_0::AudioConfiguration",
   "referenced_type" : "type-265",
   "self_type" : "type-264",
   "size" : 32,
   "source_file" : "/out/soong/.intermediates/hardware/interfaces/bluetooth/audio/2.0/android.hardware.bluetooth.audio@2.0_genc++_headers/gen/android/hardware/bluetooth/audio/2.0/types.h"
  },
  {
   "alignment" : 1,
   "is_const" : true,
   "linker_set_key" : "const android::hardware::bluetooth::audio::V2_0::BitsPerSample",
   "name" : "const android::hardware::bluetooth::audio::V2_0::BitsPerSample",
   "referenced_type" : "type-271",
   "self_type" : "type-1117",
   "size" : 1,
   "source_file" : "/out/soong/.intermediates/hardware/interfaces/bluetooth/audio/2.0/android.hardware.bluetooth.audio@2.0_genc++_headers/gen/android/hardware/bluetooth/audio/2.0/types.h"
  },
  {
   "alignment" : 8,
   "is_const" : true,
   "linker_set_key" : "const android::hardware::bluetooth::audio::V2_0::BpHwBluetoothAudioPort",
   "name" : "const android::hardware::bluetooth::audio::V2_0::BpHwBluetoothAudioPort",
   "referenced_type" : "type-91",
   "self_type" : "type-1172",
   "size" : 216,
   "source_file" : "/out/soong/.intermediates/hardware/interfaces/bluetooth/audio/2.0/android.hardware.bluetooth.audio@2.0_genc++_headers/gen/android/hardware/bluetooth/audio/2.0/BpHwBluetoothAudioPort.h"
  },
  {
   "alignment" : 8,
   "is_const" : true,
   "linker_set_key" : "const android::hardware::bluetooth::audio::V2_0::BpHwBluetoothAudioProvider",
   "name" : "const android::hardware::bluetooth::audio::V2_0::BpHwBluetoothAudioProvider",
   "referenced_type" : "type-259",
   "self_type" : "type-258",
   "size" : 216,
   "source_file" : "/out/soong/.intermediates/hardware/interfaces/bluetooth/audio/2.0/android.hardware.bluetooth.audio@2.0_genc++_headers/gen/android/hardware/bluetooth/audio/2.0/BpHwBluetoothAudioProvider.h"
  },
  {
   "alignment" : 8,
   "is_const" : true,
   "linker_set_key" : "const android::hardware::bluetooth::audio::V2_0::BpHwBluetoothAudioProvidersFactory",
   "name" : "const android::hardware::bluetooth::audio::V2_0::BpHwBluetoothAudioProvidersFactory",
   "referenced_type" : "type-302",
   "self_type" : "type-454",
   "size" : 216,
   "source_file" : "/out/soong/.intermediates/hardware/interfaces/bluetooth/audio/2.0/android.hardware.bluetooth.audio@2.0_genc++_headers/gen/android/hardware/bluetooth/audio/2.0/BpHwBluetoothAudioProvidersFactory.h"
  },
  {
   "alignment" : 1,
   "is_const" : true,
   "linker_set_key" : "const android::hardware::bluetooth::audio::V2_0::ChannelMode",
   "name" : "const android::hardware::bluetooth::audio::V2_0::ChannelMode",
   "referenced_type" : "type-270",
   "self_type" : "type-1118",
   "size" : 1,
   "source_file" : "/out/soong/.intermediates/hardware/interfaces/bluetooth/audio/2.0/android.hardware.bluetooth.audio@2.0_genc++_headers/gen/android/hardware/bluetooth/audio/2.0/types.h"
  },
  {
   "alignment" : 4,
   "is_const" : true,
   "linker_set_key" : "const android::hardware::bluetooth::audio::V2_0::CodecCapabilities",
   "name" : "const android::hardware::bluetooth::audio::V2_0::CodecCapabilities",
   "referenced_type" : "type-334",
   "self_type" : "type-526",
   "size" : 20,
   "source_file" : "/out/soong/.intermediates/hardware/interfaces/bluetooth/audio/2.0/android.hardware.bluetooth.audio@2.0_genc++_headers/gen/android/hardware/bluetooth/audio/2.0/types.h"
  },
  {
   "alignment" : 4,
   "is_const" : true,
   "linker_set_key" : "const android::hardware::bluetooth::audio::V2_0::CodecCapabilities::Capabilities",
   "name" : "const android::hardware::bluetooth::audio::V2_0::CodecCapabilities::Capabilities",
   "referenced_type" : "type-335",
   "self_type" : "type-496",
   "size" : 16,
   "source_file" : "/out/soong/.intermediates/hardware/interfaces/bluetooth/audio/2.0/android.hardware.bluetooth.audio@2.0_genc++_headers/gen/android/hardware/bluetooth/audio/2.0/types.h"
  },
  {
   "alignment" : 4,
   "is_const" : true,
   "linker_set_key" : "const android::hardware::bluetooth::audio::V2_0::CodecConfiguration",
   "name" : "const android::hardware::bluetooth::audio::V2_0::CodecConfiguration",
   "referenced_type" : "type-272",
   "self_type" : "type-549",
   "size" : 28,
   "source_file" : "/out/soong/.intermediates/hardware/interfaces/bluetooth/audio/2.0/android.hardware.bluetooth.audio@2.0_genc++_headers/gen/android/hardware/bluetooth/audio/2.0/types.h"
  },
  {
   "alignment" : 4,
   "is_const" : true,
   "linker_set_key" : "const android::hardware::bluetooth::audio::V2_0::CodecConfiguration::CodecSpecific",
   "name" : "const android::hardware::bluetooth::audio::V2_0::CodecConfiguration::CodecSpecific",
   "referenced_type" : "type-274",
   "self_type" : "type-541",
   "size" : 16,
   "source_file" : "/out/soong/.intermediates/hardware/interfaces/bluetooth/audio/2.0/android.hardware.bluetooth.audio@2.0_genc++_headers/gen/android/hardware/bluetooth/audio/2.0/types.h"
  },
  {
   "alignment" : 4,
   "is_const" : true,
   "linker_set_key" : "const android::hardware::bluetooth::audio::V2_0::CodecType",
   "name" : "const android::hardware::bluetooth::audio::V2_0::CodecType",
   "referenced_type" : "type-273",
   "self_type" : "type-1115",
   "size" : 4,
   "source_file" : "/out/soong/.intermediates/hardware/interfaces/bluetooth/audio/2.0/android.hardware.bluetooth.audio@2.0_genc++_headers/gen/android/hardware/bluetooth/audio/2.0/types.h"
  },
  {
   "alignment" : 8,
   "is_const" : true,
   "linker_set_key" : "const android::hardware::bluetooth::audio::V2_0::IBluetoothAudioPort",
   "name" : "const android::hardware::bluetooth::audio::V2_0::IBluetoothAudioPort",
   "referenced_type" : "type-67",
   "self_type" : "type-1159",
   "size" : 24,
   "source_file" : "/out/soong/.intermediates/hardware/interfaces/bluetooth/audio/2.0/android.hardware.bluetooth.audio@2.0_genc++_headers/gen/android/hardware/bluetooth/audio/2.0/IBluetoothAudioPort.h"
  },
  {
   "alignment" : 8,
   "is_const" : true,
   "linker_set_key" : "const android::hardware::bluetooth::audio::V2_0::IBluetoothAudioProvider",
   "name" : "const android::hardware::bluetooth::audio::V2_0::IBluetoothAudioProvider",
   "referenced_type" : "type-33",
   "self_type" : "type-256",
   "size" : 24,
   "source_file" : "/out/soong/.intermediates/hardware/interfaces/bluetooth/audio/2.0/android.hardware.bluetooth.audio@2.0_genc++_headers/gen/android/hardware/bluetooth/audio/2.0/IBluetoothAudioProvider.h"
  },
  {
   "alignment" : 8,
   "is_const" : true,
   "linker_set_key" : "const android::hardware::bluetooth::audio::V2_0::IBluetoothAudioProvidersFactory",
   "name" : "const android::hardware::bluetooth::audio::V2_0::IBluetoothAudioProvidersFactory",
   "referenced_type" : "type-295",
   "self_type" : "type-450",
   "size" : 24,
   "source_file" : "/out/soong/.intermediates/hardware/interfaces/bluetooth/audio/2.0/android.hardware.bluetooth.audio@2.0_genc++_headers/gen/android/hardware/bluetooth/audio/2.0/IBluetoothAudioProvidersFactory.h"
  },
  {
   "alignment" : 1,
   "is_const" : true,
   "linker_set_key" : "const android::hardware::bluetooth::audio::V2_0::LdacChannelMode",
   "name" : "const android::hardware::bluetooth::audio::V2_0::LdacChannelMode",
   "referenced_type" : "type-286",
   "self_type" : "type-1125",
   "size" : 1,
   "source_file" : "/out/soong/.intermediates/hardware/interfaces/bluetooth/audio/2.0/android.hardware.bluetooth.audio@2.0_genc++_headers/gen/android/hardware/bluetooth/audio/2.0/types.h"
  },
  {
   "alignment" : 4,
   "is_const" : true,
   "linker_set_key" : "const android::hardware::bluetooth::audio::V2_0::LdacParameters",
   "name" : "const android::hardware::bluetooth::audio::V2_0::LdacParameters",
   "referenced_type" : "type-285",
   "self_type" : "type-507",
   "size" : 8,
   "source_file" : "/out/soong/.intermediates/hardware/interfaces/bluetooth/audio/2.0/android.hardware.bluetooth.audio@2.0_genc++_headers/gen/android/hardware/bluetooth/audio/2.0/types.h"
  },
  {
   "alignment" : 1,
   "is_const" : true,
   "linker_set_key" : "const android::hardware::bluetooth::audio::V2_0::LdacQualityIndex",
   "name" : "const android::hardware::bluetooth::audio::V2_0::LdacQualityIndex",
   "referenced_type" : "type-287",
   "self_type" : "type-1126",
   "size" : 1,
   "source_file" : "/out/soong/.intermediates/hardware/interfaces/bluetooth/audio/2.0/android.hardware.bluetooth.audio@2.0_genc++_headers/gen/android/hardware/bluetooth/audio/2.0/types.h"
  },
  {
   "alignment" : 4,
   "is_const" : true,
   "linker_set_key" : "const android::hardware::bluetooth::audio::V2_0::PcmParameters",
   "name" : "const android::hardware::bluetooth::audio::V2_0::PcmParameters",
   "referenced_type" : "type-268",
   "self_type" : "type-522",
   "size" : 8,
   "source_file" : "/out/soong/.intermediates/hardware/interfaces/bluetooth/audio/2.0/android.hardware.bluetooth.audio@2.0_genc++_headers/gen/android/hardware/bluetooth/audio/2.0/types.h"
  },
  {
   "alignment" : 4,
   "is_const" : true,
   "linker_set_key" : "const android::hardware::bluetooth::audio::V2_0::SampleRate",
   "name" : "const android::hardware::bluetooth::audio::V2_0::SampleRate",
   "referenced_type" : "type-269",
   "self_type" : "type-1116",
   "size" : 4,
   "source_file" : "/out/soong/.intermediates/hardware/interfaces/bluetooth/audio/2.0/android.hardware.bluetooth.audio@2.0_genc++_headers/gen/android/hardware/bluetooth/audio/2.0/types.h"
  },
  {
   "alignment" : 1,
   "is_const" : true,
   "linker_set_key" : "const android::hardware::bluetooth::audio::V2_0::SbcAllocMethod",
   "name" : "const android::hardware::bluetooth::audio::V2_0::SbcAllocMethod",
   "referenced_type" : "type-281",
   "self_type" : "type-1122",
   "size" : 1,
   "source_file" : "/out/soong/.intermediates/hardware/interfaces/bluetooth/audio/2.0/android.hardware.bluetooth.audio@2.0_genc++_headers/gen/android/hardware/bluetooth/audio/2.0/types.h"
  },
  {
   "alignment" : 1,
   "is_const" : true,
   "linker_set_key" : "const android::hardware::bluetooth::audio::V2_0::SbcBlockLength",
   "name" : "const android::hardware::bluetooth::audio::V2_0::SbcBlockLength",
   "referenced_type" : "type-279",
   "self_type" : "type-1120",
   "size" : 1,
   "source_file" : "/out/soong/.intermediates/hardware/interfaces/bluetooth/audio/2.0/android.hardware.bluetooth.audio@2.0_genc++_headers/gen/android/hardware/bluetooth/audio/2.0/types.h"
  },
  {
   "alignment" : 1,
   "is_const" : true,
   "linker_set_key" : "const android::hardware::bluetooth::audio::V2_0::SbcChannelMode",
   "name" : "const android::hardware::bluetooth::audio::V2_0::SbcChannelMode",
   "referenced_type" : "type-278",
   "self_type" : "type-1119",
   "size" : 1,
   "source_file" : "/out/soong/.intermediates/hardware/interfaces/bluetooth/audio/2.0/android.hardware.bluetooth.audio@2.0_genc++_headers/gen/android/hardware/bluetooth/audio/2.0/types.h"
  },
  {
   "alignment" : 1,
   "is_const" : true,
   "linker_set_key" : "const android::hardware::bluetooth::audio::V2_0::SbcNumSubbands",
   "name" : "const android::hardware::bluetooth::audio::V2_0::SbcNumSubbands",
   "referenced_type" : "type-280",
   "self_type" : "type-1121",
   "size" : 1,
   "source_file" : "/out/soong/.intermediates/hardware/interfaces/bluetooth/audio/2.0/android.hardware.bluetooth.audio@2.0_genc++_headers/gen/android/hardware/bluetooth/audio/2.0/types.h"
  },
  {
   "alignment" : 4,
   "is_const" : true,
   "linker_set_key" : "const android::hardware::bluetooth::audio::V2_0::SbcParameters",
   "name" : "const android::hardware::bluetooth::audio::V2_0::SbcParameters",
   "referenced_type" : "type-277",
   "self_type" : "type-498",
   "size" : 12,
   "source_file" : "/out/soong/.intermediates/hardware/interfaces/bluetooth/audio/2.0/android.hardware.bluetooth.audio@2.0_genc++_headers/gen/android/hardware/bluetooth/audio/2.0/types.h"
  },
  {
   "alignment" : 1,
   "is_const" : true,
   "linker_set_key" : "const android::hardware::bluetooth::audio::V2_0::SessionType",
   "name" : "const android::hardware::bluetooth::audio::V2_0::SessionType",
   "referenced_type" : "type-1105",
   "self_type" : "type-1114",
   "size" : 1,
   "source_file" : "/out/soong/.intermediates/hardware/interfaces/bluetooth/audio/2.0/android.hardware.bluetooth.audio@2.0_genc++_headers/gen/android/hardware/bluetooth/audio/2.0/types.h"
  },
  {
   "alignment" : 1,
   "is_const" : true,
   "linker_set_key" : "const android::hardware::bluetooth::audio::V2_0::Status",
   "name" : "const android::hardware::bluetooth::audio::V2_0::Status",
   "referenced_type" : "type-1104",
   "self_type" : "type-1113",
   "size" : 1,
   "source_file" : "/out/soong/.intermediates/hardware/interfaces/bluetooth/audio/2.0/android.hardware.bluetooth.audio@2.0_genc++_headers/gen/android/hardware/bluetooth/audio/2.0/types.h"
  },
  {
   "alignment" : 4,
   "is_const" : true,
   "linker_set_key" : "const android::hardware::details::SchedPrio",
   "name" : "const android::hardware::details::SchedPrio",
   "referenced_type" : "type-907",
   "self_type" : "type-909",
   "size" : 8,
   "source_file" : "/system/libhidl/transport/include/hidl/ConcurrentMap.h"
  },
  {
   "alignment" : 8,
   "is_const" : true,
   "linker_set_key" : "const android::hardware::details::const_accessor<int, 32>",
   "name" : "const android::hardware::details::const_accessor<int, 32>",
   "referenced_type" : "type-812",
   "self_type" : "type-816",
   "size" : 8,
   "source_file" : "/system/libhidl/base/include/hidl/HidlSupport.h"
  },
  {
   "alignment" : 8,
   "is_const" : true,
   "linker_set_key" : "const android::hardware::details::const_accessor<unsigned char, 32>",
   "name" : "const android::hardware::details::const_accessor<unsigned char, 32>",
   "referenced_type" : "type-819",
   "self_type" : "type-821",
   "size" : 8,
   "source_file" : "/system/libhidl/base/include/hidl/HidlSupport.h"
  },
  {
   "alignment" : 8,
   "is_const" : true,
   "linker_set_key" : "const android::hardware::details::const_accessor<unsigned char, 4>",
   "name" : "const android::hardware::details::const_accessor<unsigned char, 4>",
   "referenced_type" : "type-808",
   "self_type" : "type-810",
   "size" : 8,
   "source_file" : "/system/libhidl/base/include/hidl/HidlSupport.h"
  },
  {
   "alignment" : 8,
   "is_const" : true,
   "linker_set_key" : "const android::hardware::details::const_accessor<unsigned char, 6>",
   "name" : "const android::hardware::details::const_accessor<unsigned char, 6>",
   "referenced_type" : "type-802",
   "self_type" : "type-806",
   "size" : 8,
   "source_file" : "/system/libhidl/base/include/hidl/HidlSupport.h"
  },
  {
   "alignment" : 8,
   "is_const" : true,
   "linker_set_key" : "const android::hardware::details::hidl_pointer<android::hardware::GrantorDescriptor>",
   "name" : "const android::hardware::details::hidl_pointer<android::hardware::GrantorDescriptor>",
   "referenced_type" : "type-82",
   "self_type" : "type-100",
   "size" : 8,
   "source_file" : "/system/libhidl/base/include/hidl/HidlInternal.h"
  },
  {
   "alignment" : 8,
   "is_const" : true,
   "linker_set_key" : "const android::hardware::details::hidl_pointer<android::hardware::audio::common::V5_0::AudioFormat>",
   "name" : "const android::hardware::details::hidl_pointer<android::hardware::audio::common::V5_0::AudioFormat>",
   "referenced_type" : "type-781",
   "self_type" : "type-1177",
   "size" : 8,
   "source_file" : "/system/libhidl/base/include/hidl/HidlInternal.h"
  },
  {
   "alignment" : 8,
   "is_const" : true,
   "linker_set_key" : "const android::hardware::details::hidl_pointer<android::hardware::audio::common::V5_0::AudioGain>",
   "name" : "const android::hardware::details::hidl_pointer<android::hardware::audio::common::V5_0::AudioGain>",
   "referenced_type" : "type-791",
   "self_type" : "type-1181",
   "size" : 8,
   "source_file" : "/system/libhidl/base/include/hidl/HidlInternal.h"
  },
  {
   "alignment" : 8,
   "is_const" : true,
   "linker_set_key" : "const android::hardware::details::hidl_pointer<android::hardware::audio::common::V5_0::PlaybackTrackMetadata>",
   "name" : "const android::hardware::details::hidl_pointer<android::hardware::audio::common::V5_0::PlaybackTrackMetadata>",
   "referenced_type" : "type-744",
   "self_type" : "type-985",
   "size" : 8,
   "source_file" : "/system/libhidl/base/include/hidl/HidlInternal.h"
  },
  {
   "alignment" : 8,
   "is_const" : true,
   "linker_set_key" : "const android::hardware::details::hidl_pointer<android::hardware::audio::common::V5_0::RecordTrackMetadata>",
   "name" : "const android::hardware::details::hidl_pointer<android::hardware::audio::common::V5_0::RecordTrackMetadata>",
   "referenced_type" : "type-754",
   "self_type" : "type-1055",
   "size" : 8,
   "source_file" : "/system/libhidl/base/include/hidl/HidlInternal.h"
  },
  {
   "alignment" : 8,
   "is_const" : true,
   "linker_set_key" : "const android::hardware::details::hidl_pointer<android::hardware::bluetooth::audio::V2_0::AudioCapabilities>",
   "name" : "const android::hardware::details::hidl_pointer<android::hardware::bluetooth::audio::V2_0::AudioCapabilities>",
   "referenced_type" : "type-328",
   "self_type" : "type-456",
   "size" : 8,
   "source_file" : "/system/libhidl/base/include/hidl/HidlInternal.h"
  },
  {
   "alignment" : 8,
   "is_const" : true,
   "linker_set_key" : "const android::hardware::details::hidl_pointer<android::hardware::hidl_array<unsigned char, 32> >",
   "name" : "const android::hardware::details::hidl_pointer<android::hardware::hidl_array<unsigned char, 32> >",
   "referenced_type" : "type-531",
   "self_type" : "type-662",
   "size" : 8,
   "source_file" : "/system/libhidl/base/include/hidl/HidlInternal.h"
  },
  {
   "alignment" : 8,
   "is_const" : true,
   "linker_set_key" : "const android::hardware::details::hidl_pointer<android::hardware::hidl_string>",
   "name" : "const android::hardware::details::hidl_pointer<android::hardware::hidl_string>",
   "referenced_type" : "type-3",
   "self_type" : "type-1151",
   "size" : 8,
   "source_file" : "/system/libhidl/base/include/hidl/HidlInternal.h"
  },
  {
   "alignment" : 8,
   "is_const" : true,
   "linker_set_key" : "const android::hardware::details::hidl_pointer<int>",
   "name" : "const android::hardware::details::hidl_pointer<int>",
   "referenced_type" : "type-737",
   "self_type" : "type-899",
   "size" : 8,
   "source_file" : "/system/libhidl/base/include/hidl/HidlInternal.h"
  },
  {
   "alignment" : 8,
   "is_const" : true,
   "linker_set_key" : "const android::hardware::details::hidl_pointer<native_handle>",
   "name" : "const android::hardware::details::hidl_pointer<native_handle>",
   "referenced_type" : "type-103",
   "self_type" : "type-111",
   "size" : 8,
   "source_file" : "/system/libhidl/base/include/hidl/HidlInternal.h"
  },
  {
   "alignment" : 8,
   "is_const" : true,
   "linker_set_key" : "const android::hardware::details::hidl_pointer<unsigned int>",
   "name" : "const android::hardware::details::hidl_pointer<unsigned int>",
   "referenced_type" : "type-775",
   "self_type" : "type-1108",
   "size" : 8,
   "source_file" : "/system/libhidl/base/include/hidl/HidlInternal.h"
  },
  {
   "alignment" : 8,
   "is_const" : true,
   "linker_set_key" : "const android::hardware::details::return_status",
   "name" : "const android::hardware::details::return_status",
   "referenced_type" : "type-46",
   "self_type" : "type-596",
   "size" : 40,
   "source_file" : "/system/libhidl/base/include/hidl/Status.h"
  },
  {
   "alignment" : 4,
   "is_const" : true,
   "linker_set_key" : "const android::hardware::hidl_array<int, 32>",
   "name" : "const android::hardware::hidl_array<int, 32>",
   "referenced_type" : "type-833",
   "self_type" : "type-836",
   "size" : 128,
   "source_file" : "/system/libhidl/base/include/hidl/HidlSupport.h"
  },
  {
   "alignment" : 1,
   "is_const" : true,
   "linker_set_key" : "const android::hardware::hidl_array<unsigned char, 32>",
   "name" : "const android::hardware::hidl_array<unsigned char, 32>",
   "referenced_type" : "type-534",
   "self_type" : "type-823",
   "size" : 32,
   "source_file" : "/system/libhidl/base/include/hidl/HidlSupport.h"
  },
  {
   "alignment" : 1,
   "is_const" : true,
   "linker_set_key" : "const android::hardware::hidl_array<unsigned char, 4>",
   "name" : "const android::hardware::hidl_array<unsigned char, 4>",
   "referenced_type" : "type-768",
   "self_type" : "type-831",
   "size" : 4,
   "source_file" : "/system/libhidl/base/include/hidl/HidlSupport.h"
  },
  {
   "alignment" : 1,
   "is_const" : true,
   "linker_set_key" : "const android::hardware::hidl_array<unsigned char, 6>",
   "name" : "const android::hardware::hidl_array<unsigned char, 6>",
   "referenced_type" : "type-766",
   "self_type" : "type-827",
   "size" : 6,
   "source_file" : "/system/libhidl/base/include/hidl/HidlSupport.h"
  },
  {
   "alignment" : 8,
   "is_const" : true,
   "linker_set_key" : "const android::hardware::hidl_death_recipient",
   "name" : "const android::hardware::hidl_death_recipient",
   "referenced_type" : "type-43",
   "self_type" : "type-44",
   "size" : 24,
   "source_file" : "/system/core/libutils/include/utils/StrongPointer.h"
  },
  {
   "alignment" : 8,
   "is_const" : true,
   "linker_set_key" : "const android::hardware::hidl_handle",
   "name" : "const android::hardware::hidl_handle",
   "referenced_type" : "type-711",
   "self_type" : "type-854",
   "size" : 16,
   "source_file" : "/system/libhidl/base/include/hidl/HidlSupport.h"
  },
  {
   "alignment" : 8,
   "is_const" : true,
   "linker_set_key" : "const android::hardware::hidl_memory",
   "name" : "const android::hardware::hidl_memory",
   "referenced_type" : "type-714",
   "self_type" : "type-717",
   "size" : 40,
   "source_file" : "/system/libhidl/base/include/hidl/HidlSupport.h"
  },
  {
   "alignment" : 8,
   "is_const" : true,
   "linker_set_key" : "const android::hardware::hidl_string",
   "name" : "const android::hardware::hidl_string",
   "referenced_type" : "type-6",
   "self_type" : "type-712",
   "size" : 16,
   "source_file" : "/system/libhidl/base/include/hidl/HidlSupport.h"
  },
  {
   "alignment" : 8,
   "is_const" : true,
   "linker_set_key" : "const android::hardware::hidl_vec<android::hardware::GrantorDescriptor>",
   "name" : "const android::hardware::hidl_vec<android::hardware::GrantorDescriptor>",
   "referenced_type" : "type-81",
   "self_type" : "type-80",
   "size" : 16,
   "source_file" : "/system/libhidl/base/include/hidl/HidlSupport.h"
  },
  {
   "alignment" : 8,
   "is_const" : true,
   "linker_set_key" : "const android::hardware::hidl_vec<android::hardware::audio::common::V5_0::AudioFormat>",
   "name" : "const android::hardware::hidl_vec<android::hardware::audio::common::V5_0::AudioFormat>",
   "referenced_type" : "type-780",
   "self_type" : "type-788",
   "size" : 16,
   "source_file" : "/system/libhidl/base/include/hidl/HidlSupport.h"
  },
  {
   "alignment" : 8,
   "is_const" : true,
   "linker_set_key" : "const android::hardware::hidl_vec<android::hardware::audio::common::V5_0::AudioGain>",
   "name" : "const android::hardware::hidl_vec<android::hardware::audio::common::V5_0::AudioGain>",
   "referenced_type" : "type-790",
   "self_type" : "type-795",
   "size" : 16,
   "source_file" : "/system/libhidl/base/include/hidl/HidlSupport.h"
  },
  {
   "alignment" : 8,
   "is_const" : true,
   "linker_set_key" : "const android::hardware::hidl_vec<android::hardware::audio::common::V5_0::PlaybackTrackMetadata>",
   "name" : "const android::hardware::hidl_vec<android::hardware::audio::common::V5_0::PlaybackTrackMetadata>",
   "referenced_type" : "type-743",
   "self_type" : "type-750",
   "size" : 16,
   "source_file" : "/system/libhidl/base/include/hidl/HidlSupport.h"
  },
  {
   "alignment" : 8,
   "is_const" : true,
   "linker_set_key" : "const android::hardware::hidl_vec<android::hardware::audio::common::V5_0::RecordTrackMetadata>",
   "name" : "const android::hardware::hidl_vec<android::hardware::audio::common::V5_0::RecordTrackMetadata>",
   "referenced_type" : "type-753",
   "self_type" : "type-771",
   "size" : 16,
   "source_file" : "/system/libhidl/base/include/hidl/HidlSupport.h"
  },
  {
   "alignment" : 8,
   "is_const" : true,
   "linker_set_key" : "const android::hardware::hidl_vec<android::hardware::bluetooth::audio::V2_0::AudioCapabilities>",
   "name" : "const android::hardware::hidl_vec<android::hardware::bluetooth::audio::V2_0::AudioCapabilities>",
   "referenced_type" : "type-327",
   "self_type" : "type-339",
