{
 "array_types" :
 [
  {
   "alignment" : 1,
   "linker_set_key" : "char [0]",
   "name" : "char [0]",
   "referenced_type" : "type-120",
   "self_type" : "type-165",
   "source_file" : "/system/core/liblog/include/log/log_read.h"
  },
  {
   "alignment" : 1,
   "linker_set_key" : "char [10]",
   "name" : "char [10]",
   "referenced_type" : "type-120",
   "self_type" : "type-728",
   "size" : 10,
   "source_file" : "/system/libhwbinder/include/hwbinder/TextOutput.h"
  },
  {
   "alignment" : 1,
   "linker_set_key" : "char [11]",
   "name" : "char [11]",
   "referenced_type" : "type-120",
   "self_type" : "type-750",
   "size" : 11,
   "source_file" : "/system/libhwbinder/include/hwbinder/TextOutput.h"
  },
  {
   "alignment" : 1,
   "linker_set_key" : "char [12]",
   "name" : "char [12]",
   "referenced_type" : "type-120",
   "self_type" : "type-724",
   "size" : 12,
   "source_file" : "/system/libhwbinder/include/hwbinder/TextOutput.h"
  },
  {
   "alignment" : 1,
   "linker_set_key" : "char [13]",
   "name" : "char [13]",
   "referenced_type" : "type-120",
   "self_type" : "type-721",
   "size" : 13,
   "source_file" : "/system/libhwbinder/include/hwbinder/TextOutput.h"
  },
  {
   "alignment" : 1,
   "linker_set_key" : "char [14]",
   "name" : "char [14]",
   "referenced_type" : "type-120",
   "self_type" : "type-769",
   "size" : 14,
   "source_file" : "/system/libhwbinder/include/hwbinder/TextOutput.h"
  },
  {
   "alignment" : 1,
   "linker_set_key" : "char [15]",
   "name" : "char [15]",
   "referenced_type" : "type-120",
   "self_type" : "type-127",
   "size" : 15,
   "source_file" : "/system/libhwbinder/include/hwbinder/TextOutput.h"
  },
  {
   "alignment" : 1,
   "linker_set_key" : "char [16]",
   "name" : "char [16]",
   "referenced_type" : "type-120",
   "self_type" : "type-754",
   "size" : 16,
   "source_file" : "/system/libhwbinder/include/hwbinder/TextOutput.h"
  },
  {
   "alignment" : 1,
   "linker_set_key" : "char [17]",
   "name" : "char [17]",
   "referenced_type" : "type-120",
   "self_type" : "type-772",
   "size" : 17,
   "source_file" : "/system/libhwbinder/include/hwbinder/TextOutput.h"
  },
  {
   "alignment" : 1,
   "linker_set_key" : "char [18]",
   "name" : "char [18]",
   "referenced_type" : "type-120",
   "self_type" : "type-757",
   "size" : 18,
   "source_file" : "/system/libhwbinder/include/hwbinder/TextOutput.h"
  },
  {
   "alignment" : 1,
   "linker_set_key" : "char [19]",
   "name" : "char [19]",
   "referenced_type" : "type-120",
   "self_type" : "type-788",
   "size" : 19,
   "source_file" : "/system/libhwbinder/include/hwbinder/TextOutput.h"
  },
  {
   "alignment" : 1,
   "linker_set_key" : "char [20]",
   "name" : "char [20]",
   "referenced_type" : "type-120",
   "self_type" : "type-766",
   "size" : 20,
   "source_file" : "/system/libhwbinder/include/hwbinder/TextOutput.h"
  },
  {
   "alignment" : 1,
   "linker_set_key" : "char [22]",
   "name" : "char [22]",
   "referenced_type" : "type-120",
   "self_type" : "type-791",
   "size" : 22,
   "source_file" : "/system/libhwbinder/include/hwbinder/TextOutput.h"
  },
  {
   "alignment" : 1,
   "linker_set_key" : "char [25]",
   "name" : "char [25]",
   "referenced_type" : "type-120",
   "self_type" : "type-781",
   "size" : 25,
   "source_file" : "/system/libhwbinder/include/hwbinder/TextOutput.h"
  },
  {
   "alignment" : 1,
   "linker_set_key" : "char [28]",
   "name" : "char [28]",
   "referenced_type" : "type-120",
   "self_type" : "type-803",
   "size" : 28,
   "source_file" : "/system/libhwbinder/include/hwbinder/TextOutput.h"
  },
  {
   "alignment" : 1,
   "linker_set_key" : "char [29]",
   "name" : "char [29]",
   "referenced_type" : "type-120",
   "self_type" : "type-778",
   "size" : 29,
   "source_file" : "/system/libhwbinder/include/hwbinder/TextOutput.h"
  },
  {
   "alignment" : 1,
   "linker_set_key" : "char [2]",
   "name" : "char [2]",
   "referenced_type" : "type-120",
   "self_type" : "type-732",
   "size" : 2,
   "source_file" : "/system/libhwbinder/include/hwbinder/TextOutput.h"
  },
  {
   "alignment" : 1,
   "linker_set_key" : "char [31]",
   "name" : "char [31]",
   "referenced_type" : "type-120",
   "self_type" : "type-763",
   "size" : 31,
   "source_file" : "/system/libhwbinder/include/hwbinder/TextOutput.h"
  },
  {
   "alignment" : 1,
   "linker_set_key" : "char [32]",
   "name" : "char [32]",
   "referenced_type" : "type-120",
   "self_type" : "type-794",
   "size" : 32,
   "source_file" : "/system/libhwbinder/include/hwbinder/TextOutput.h"
  },
  {
   "alignment" : 1,
   "linker_set_key" : "char [35]",
   "name" : "char [35]",
   "referenced_type" : "type-120",
   "self_type" : "type-785",
   "size" : 35,
   "source_file" : "/system/libhwbinder/include/hwbinder/TextOutput.h"
  },
  {
   "alignment" : 1,
   "linker_set_key" : "char [37]",
   "name" : "char [37]",
   "referenced_type" : "type-120",
   "self_type" : "type-775",
   "size" : 37,
   "source_file" : "/system/libhwbinder/include/hwbinder/TextOutput.h"
  },
  {
   "alignment" : 1,
   "linker_set_key" : "char [3]",
   "name" : "char [3]",
   "referenced_type" : "type-120",
   "self_type" : "type-744",
   "size" : 3,
   "source_file" : "/system/libhwbinder/include/hwbinder/TextOutput.h"
  },
  {
   "alignment" : 1,
   "linker_set_key" : "char [4]",
   "name" : "char [4]",
   "referenced_type" : "type-120",
   "self_type" : "type-124",
   "size" : 4,
   "source_file" : "/system/libhwbinder/include/hwbinder/TextOutput.h"
  },
  {
   "alignment" : 1,
   "linker_set_key" : "char [5]",
   "name" : "char [5]",
   "referenced_type" : "type-120",
   "self_type" : "type-131",
   "size" : 5,
   "source_file" : "/system/libhwbinder/include/hwbinder/TextOutput.h"
  },
  {
   "alignment" : 1,
   "linker_set_key" : "char [6]",
   "name" : "char [6]",
   "referenced_type" : "type-120",
   "self_type" : "type-735",
   "size" : 6,
   "source_file" : "/system/libhwbinder/include/hwbinder/TextOutput.h"
  },
  {
   "alignment" : 1,
   "linker_set_key" : "char [7]",
   "name" : "char [7]",
   "referenced_type" : "type-120",
   "self_type" : "type-760",
   "size" : 7,
   "source_file" : "/system/libhwbinder/include/hwbinder/TextOutput.h"
  },
  {
   "alignment" : 1,
   "linker_set_key" : "char [8]",
   "name" : "char [8]",
   "referenced_type" : "type-120",
   "self_type" : "type-747",
   "size" : 8,
   "source_file" : "/system/libhwbinder/include/hwbinder/TextOutput.h"
  },
  {
   "alignment" : 1,
   "linker_set_key" : "char [9]",
   "name" : "char [9]",
   "referenced_type" : "type-120",
   "self_type" : "type-738",
   "size" : 9,
   "source_file" : "/system/libhwbinder/include/hwbinder/TextOutput.h"
  },
  {
   "linker_set_key" : "float []",
   "name" : "float []",
   "referenced_type" : "type-102",
   "self_type" : "type-236",
   "source_file" : "/system/core/libsystem/include/system/graphics.h"
  },
  {
   "alignment" : 4,
   "linker_set_key" : "int [0]",
   "name" : "int [0]",
   "referenced_type" : "type-9",
   "self_type" : "type-90",
   "source_file" : "/system/core/libcutils/include/cutils/native_handle.h"
  },
  {
   "alignment" : 1,
   "linker_set_key" : "unsigned char [5121]",
   "name" : "unsigned char [5121]",
   "referenced_type" : "type-11",
   "self_type" : "type-174",
   "size" : 5121,
   "source_file" : "/system/core/liblog/include/log/log_read.h"
  },
  {
   "alignment" : 4,
   "linker_set_key" : "unsigned int [8]",
   "name" : "unsigned int [8]",
   "referenced_type" : "type-4",
   "self_type" : "type-224",
   "size" : 32,
   "source_file" : "/system/core/libsystem/include/system/graphics.h"
  }
 ],
 "builtin_types" :
 [
  {
   "alignment" : 1,
   "is_integral" : true,
   "is_unsigned" : true,
   "linker_set_key" : "bool",
   "name" : "bool",
   "referenced_type" : "type-14",
   "self_type" : "type-14",
   "size" : 1
  },
  {
   "alignment" : 1,
   "is_integral" : true,
   "linker_set_key" : "char",
   "name" : "char",
   "referenced_type" : "type-120",
   "self_type" : "type-120",
   "size" : 1
  },
  {
   "alignment" : 2,
   "is_integral" : true,
   "is_unsigned" : true,
   "linker_set_key" : "char16_t",
   "name" : "char16_t",
   "referenced_type" : "type-292",
   "self_type" : "type-292",
   "size" : 2
  },
  {
   "alignment" : 8,
   "linker_set_key" : "double",
   "name" : "double",
   "referenced_type" : "type-104",
   "self_type" : "type-104",
   "size" : 8
  },
  {
   "alignment" : 4,
   "linker_set_key" : "float",
   "name" : "float",
   "referenced_type" : "type-102",
   "self_type" : "type-102",
   "size" : 4
  },
  {
   "alignment" : 4,
   "is_integral" : true,
   "linker_set_key" : "int",
   "name" : "int",
   "referenced_type" : "type-9",
   "self_type" : "type-9",
   "size" : 4
  },
  {
   "alignment" : 8,
   "is_integral" : true,
   "linker_set_key" : "long",
   "name" : "long",
   "referenced_type" : "type-100",
   "self_type" : "type-100",
   "size" : 8
  },
  {
   "alignment" : 8,
   "is_integral" : true,
   "linker_set_key" : "long long",
   "name" : "long long",
   "referenced_type" : "type-461",
   "self_type" : "type-461",
   "size" : 8
  },
  {
   "alignment" : 2,
   "is_integral" : true,
   "linker_set_key" : "short",
   "name" : "short",
   "referenced_type" : "type-95",
   "self_type" : "type-95",
   "size" : 2
  },
  {
   "alignment" : 1,
   "is_integral" : true,
   "linker_set_key" : "signed char",
   "name" : "signed char",
   "referenced_type" : "type-93",
   "self_type" : "type-93",
   "size" : 1
  },
  {
   "alignment" : 1,
   "is_integral" : true,
   "is_unsigned" : true,
   "linker_set_key" : "unsigned char",
   "name" : "unsigned char",
   "referenced_type" : "type-11",
   "self_type" : "type-11",
   "size" : 1
  },
  {
   "alignment" : 4,
   "is_integral" : true,
   "is_unsigned" : true,
   "linker_set_key" : "unsigned int",
   "name" : "unsigned int",
   "referenced_type" : "type-4",
   "self_type" : "type-4",
   "size" : 4
  },
  {
   "alignment" : 8,
   "is_integral" : true,
   "is_unsigned" : true,
   "linker_set_key" : "unsigned long",
   "name" : "unsigned long",
   "referenced_type" : "type-7",
   "self_type" : "type-7",
   "size" : 8
  },
  {
   "alignment" : 8,
   "is_integral" : true,
   "is_unsigned" : true,
   "linker_set_key" : "unsigned long long",
   "name" : "unsigned long long",
   "referenced_type" : "type-13",
   "self_type" : "type-13",
   "size" : 8
  },
  {
   "alignment" : 2,
   "is_integral" : true,
   "is_unsigned" : true,
   "linker_set_key" : "unsigned short",
   "name" : "unsigned short",
   "referenced_type" : "type-97",
   "self_type" : "type-97",
   "size" : 2
  },
  {
   "linker_set_key" : "void",
   "name" : "void",
   "referenced_type" : "type-17",
   "self_type" : "type-17"
  }
 ],
 "elf_functions" :
 [
  {
   "binding" : "weak",
   "name" : "_ZN7android2spINS_8hardware12ProcessStateEED2Ev"
  },
  {
   "name" : "_ZN7android8hardware10BpHwBinder10onFirstRefEv"
  },
  {
   "name" : "_ZN7android8hardware10BpHwBinder11linkToDeathERKNS_2spINS0_7IBinder14DeathRecipientEEEPvj"
  },
  {
   "name" : "_ZN7android8hardware10BpHwBinder12attachObjectEPKvPvS4_PFvS3_S4_S4_E"
  },
  {
   "name" : "_ZN7android8hardware10BpHwBinder12detachObjectEPKv"
  },
  {
   "name" : "_ZN7android8hardware10BpHwBinder12remoteBinderEv"
  },
  {
   "name" : "_ZN7android8hardware10BpHwBinder12sendObituaryEv"
  },
  {
   "name" : "_ZN7android8hardware10BpHwBinder13ObjectManager4killEv"
  },
  {
   "name" : "_ZN7android8hardware10BpHwBinder13ObjectManager6attachEPKvPvS5_PFvS4_S5_S5_E"
  },
  {
   "name" : "_ZN7android8hardware10BpHwBinder13ObjectManager6detachEPKv"
  },
  {
   "name" : "_ZN7android8hardware10BpHwBinder13ObjectManagerC1Ev"
  },
  {
   "name" : "_ZN7android8hardware10BpHwBinder13ObjectManagerC2Ev"
  },
  {
   "name" : "_ZN7android8hardware10BpHwBinder13ObjectManagerD1Ev"
  },
  {
   "name" : "_ZN7android8hardware10BpHwBinder13ObjectManagerD2Ev"
  },
  {
   "name" : "_ZN7android8hardware10BpHwBinder13unlinkToDeathERKNS_2wpINS0_7IBinder14DeathRecipientEEEPvjPS5_"
  },
  {
   "name" : "_ZN7android8hardware10BpHwBinder14reportOneDeathERKNS1_8ObituaryE"
  },
  {
   "name" : "_ZN7android8hardware10BpHwBinder15onLastStrongRefEPKv"
  },
  {
   "name" : "_ZN7android8hardware10BpHwBinder20onIncStrongAttemptedEjPKv"
  },
  {
   "name" : "_ZN7android8hardware10BpHwBinder21getNodeStrongRefCountEv"
  },
  {
   "name" : "_ZN7android8hardware10BpHwBinder8transactEjRKNS0_6ParcelEPS2_jNSt3__18functionIFvRS2_EEE"
  },
  {
   "name" : "_ZN7android8hardware10BpHwBinderC1Ei"
  },
  {
   "name" : "_ZN7android8hardware10BpHwBinderC2Ei"
  },
  {
   "name" : "_ZN7android8hardware10BpHwBinderD0Ev"
  },
  {
   "name" : "_ZN7android8hardware10BpHwBinderD1Ev"
  },
  {
   "name" : "_ZN7android8hardware10BpHwBinderD2Ev"
  },
  {
   "name" : "_ZN7android8hardware10IInterface8asBinderEPKS1_"
  },
  {
   "name" : "_ZN7android8hardware10IInterface8asBinderERKNS_2spIS1_EE"
  },
  {
   "name" : "_ZN7android8hardware10IInterfaceC2Ev"
  },
  {
   "name" : "_ZN7android8hardware10IInterfaceD0Ev"
  },
  {
   "name" : "_ZN7android8hardware10IInterfaceD1Ev"
  },
  {
   "name" : "_ZN7android8hardware10IInterfaceD2Ev"
  },
  {
   "name" : "_ZN7android8hardware10TextOutputC2Ev"
  },
  {
   "name" : "_ZN7android8hardware10TextOutputD0Ev"
  },
  {
   "name" : "_ZN7android8hardware10TextOutputD1Ev"
  },
  {
   "name" : "_ZN7android8hardware10TextOutputD2Ev"
  },
  {
   "name" : "_ZN7android8hardware11BpHwRefBase10onFirstRefEv"
  },
  {
   "name" : "_ZN7android8hardware11BpHwRefBase15onLastStrongRefEPKv"
  },
  {
   "name" : "_ZN7android8hardware11BpHwRefBase20onIncStrongAttemptedEjPKv"
  },
  {
   "name" : "_ZN7android8hardware11BpHwRefBaseC1ERKNS_2spINS0_7IBinderEEE"
  },
  {
   "name" : "_ZN7android8hardware11BpHwRefBaseC2ERKNS_2spINS0_7IBinderEEE"
  },
  {
   "name" : "_ZN7android8hardware11BpHwRefBaseD0Ev"
  },
  {
   "name" : "_ZN7android8hardware11BpHwRefBaseD1Ev"
  },
  {
   "name" : "_ZN7android8hardware11BpHwRefBaseD2Ev"
  },
  {
   "name" : "_ZN7android8hardware12ProcessState10selfOrNullEv"
  },
  {
   "name" : "_ZN7android8hardware12ProcessState11getMmapSizeEv"
  },
  {
   "name" : "_ZN7android8hardware12ProcessState13expungeHandleEiPNS0_7IBinderE"
  },
  {
   "name" : "_ZN7android8hardware12ProcessState13getMaxThreadsEv"
  },
  {
   "name" : "_ZN7android8hardware12ProcessState15startThreadPoolEv"
  },
  {
   "name" : "_ZN7android8hardware12ProcessState16getContextObjectERKNS_2spINS0_7IBinderEEE"
  },
  {
   "name" : "_ZN7android8hardware12ProcessState16getContextObjectERKNS_8String16ERKNS_2spINS0_7IBinderEEE"
  },
  {
   "name" : "_ZN7android8hardware12ProcessState16initWithMmapSizeEm"
  },
  {
   "name" : "_ZN7android8hardware12ProcessState16setContextObjectERKNS_2spINS0_7IBinderEEE"
  },
  {
   "name" : "_ZN7android8hardware12ProcessState16setContextObjectERKNS_2spINS0_7IBinderEEERKNS_8String16E"
  },
  {
   "name" : "_ZN7android8hardware12ProcessState17spawnPooledThreadEb"
  },
  {
   "name" : "_ZN7android8hardware12ProcessState18giveThreadPoolNameEv"
  },
  {
   "name" : "_ZN7android8hardware12ProcessState18lookupHandleLockedEi"
  },
  {
   "name" : "_ZN7android8hardware12ProcessState18setCallRestrictionENS1_15CallRestrictionE"
  },
  {
   "name" : "_ZN7android8hardware12ProcessState19getKernelReferencesEmPm"
  },
  {
   "name" : "_ZN7android8hardware12ProcessState20becomeContextManagerEPFbRKNS_8String16ERKNS_2spINS0_7IBinderEEEPvESA_"
  },
  {
   "name" : "_ZN7android8hardware12ProcessState20makeBinderThreadNameEv"
  },
  {
   "name" : "_ZN7android8hardware12ProcessState21getWeakProxyForHandleEi"
  },
  {
   "name" : "_ZN7android8hardware12ProcessState23getStrongProxyForHandleEi"
  },
  {
   "name" : "_ZN7android8hardware12ProcessState26setThreadPoolConfigurationEmb"
  },
  {
   "name" : "_ZN7android8hardware12ProcessState32getStrongRefCountForNodeByHandleEi"
  },
  {
   "name" : "_ZN7android8hardware12ProcessState4selfEv"
  },
  {
   "name" : "_ZN7android8hardware12ProcessStateC1Em"
  },
  {
   "name" : "_ZN7android8hardware12ProcessStateC2Em"
  },
  {
   "name" : "_ZN7android8hardware12ProcessStateD0Ev"
  },
  {
   "name" : "_ZN7android8hardware12ProcessStateD1Ev"
  },
  {
   "name" : "_ZN7android8hardware12ProcessStateD2Ev"
  },
  {
   "name" : "_ZN7android8hardware14IPCThreadState10freeBufferEPNS0_6ParcelEPKhmPKymPv"
  },
  {
   "name" : "_ZN7android8hardware14IPCThreadState10selfOrNullEv"
  },
  {
   "name" : "_ZN7android8hardware14IPCThreadState11clearCallerEv"
  },
  {
   "name" : "_ZN7android8hardware14IPCThreadState11stopProcessEb"
  },
  {
   "name" : "_ZN7android8hardware14IPCThreadState12setupPollingEPi"
  },
  {
   "name" : "_ZN7android8hardware14IPCThreadState13decWeakHandleEi"
  },
  {
   "name" : "_ZN7android8hardware14IPCThreadState13expungeHandleEiPNS0_7IBinderE"
  },
  {
   "name" : "_ZN7android8hardware14IPCThreadState13flushCommandsEv"
  },
  {
   "name" : "_ZN7android8hardware14IPCThreadState13incWeakHandleEiPNS0_10BpHwBinderE"
  },
  {
   "name" : "_ZN7android8hardware14IPCThreadState14clearLastErrorEv"
  },
  {
   "name" : "_ZN7android8hardware14IPCThreadState14executeCommandEi"
  },
  {
   "name" : "_ZN7android8hardware14IPCThreadState14isLooperThreadEv"
  },
  {
   "name" : "_ZN7android8hardware14IPCThreadState14joinThreadPoolEb"
  },
  {
   "name" : "_ZN7android8hardware14IPCThreadState14talkWithDriverEb"
  },
  {
   "name" : "_ZN7android8hardware14IPCThreadState15decStrongHandleEi"
  },
  {
   "name" : "_ZN7android8hardware14IPCThreadState15incStrongHandleEiPNS0_10BpHwBinderE"
  },
  {
   "name" : "_ZN7android8hardware14IPCThreadState15waitForResponseEPNS0_6ParcelEPi"
  },
  {
   "name" : "_ZN7android8hardware14IPCThreadState16threadDestructorEPv"
  },
  {
   "name" : "_ZN7android8hardware14IPCThreadState18addPostCommandTaskERKNSt3__18functionIFvvEEE"
  },
  {
   "name" : "_ZN7android8hardware14IPCThreadState18isOnlyBinderThreadEv"
  },
  {
   "name" : "_ZN7android8hardware14IPCThreadState19setStrictModePolicyEi"
  },
  {
   "name" : "_ZN7android8hardware14IPCThreadState19setTheContextObjectENS_2spINS0_9BHwBinderEEE"
  },
  {
   "name" : "_ZN7android8hardware14IPCThreadState20clearCallingIdentityEv"
  },
  {
   "name" : "_ZN7android8hardware14IPCThreadState20getAndExecuteCommandEv"
  },
  {
   "name" : "_ZN7android8hardware14IPCThreadState20handlePolledCommandsEv"
  },
  {
   "name" : "_ZN7android8hardware14IPCThreadState20processPendingDerefsEv"
  },
  {
   "name" : "_ZN7android8hardware14IPCThreadState20writeTransactionDataEijijRKNS0_6ParcelEPi"
  },
  {
   "name" : "_ZN7android8hardware14IPCThreadState22attemptIncStrongHandleEi"
  },
  {
   "name" : "_ZN7android8hardware14IPCThreadState22clearDeathNotificationEiPNS0_10BpHwBinderE"
  },
  {
   "name" : "_ZN7android8hardware14IPCThreadState22processPostWriteDerefsEv"
  },
  {
   "name" : "_ZN7android8hardware14IPCThreadState22restoreCallingIdentityEl"
  },
  {
   "name" : "_ZN7android8hardware14IPCThreadState24requestDeathNotificationEiPNS0_10BpHwBinderE"
  },
  {
   "name" : "_ZN7android8hardware14IPCThreadState25blockUntilThreadAvailableEv"
  },
  {
   "name" : "_ZN7android8hardware14IPCThreadState27disableBackgroundSchedulingEb"
  },
  {
   "name" : "_ZN7android8hardware14IPCThreadState29setLastTransactionBinderFlagsEi"
  },
  {
   "name" : "_ZN7android8hardware14IPCThreadState4selfEv"
  },
  {
   "name" : "_ZN7android8hardware14IPCThreadState7processEv"
  },
  {
   "name" : "_ZN7android8hardware14IPCThreadState8shutdownEv"
  },
  {
   "name" : "_ZN7android8hardware14IPCThreadState8transactEijRKNS0_6ParcelEPS2_j"
  },
  {
   "name" : "_ZN7android8hardware14IPCThreadState9sendReplyERKNS0_6ParcelEj"
  },
  {
   "name" : "_ZN7android8hardware14IPCThreadStateC1Ev"
  },
  {
   "name" : "_ZN7android8hardware14IPCThreadStateC2Ev"
  },
  {
   "name" : "_ZN7android8hardware14IPCThreadStateD1Ev"
  },
  {
   "name" : "_ZN7android8hardware14IPCThreadStateD2Ev"
  },
  {
   "name" : "_ZN7android8hardware14acquire_objectERKNS_2spINS0_12ProcessStateEEERK20binder_object_headerPKv"
  },
  {
   "name" : "_ZN7android8hardware14flatten_binderERKNS_2spINS0_12ProcessStateEEERKNS1_INS0_7IBinderEEEPNS0_6ParcelE"
  },
  {
   "name" : "_ZN7android8hardware14flatten_binderERKNS_2spINS0_12ProcessStateEEERKNS_2wpINS0_7IBinderEEEPNS0_6ParcelE"
  },
  {
   "name" : "_ZN7android8hardware14release_objectERKNS_2spINS0_12ProcessStateEEERK18flat_binder_objectPKv"
  },
  {
   "name" : "_ZN7android8hardware16unflatten_binderERKNS_2spINS0_12ProcessStateEEERKNS0_6ParcelEPNS1_INS0_7IBinderEEE"
  },
  {
   "name" : "_ZN7android8hardware16unflatten_binderERKNS_2spINS0_12ProcessStateEEERKNS0_6ParcelEPNS_2wpINS0_7IBinderEEE"
  },
  {
   "name" : "_ZN7android8hardware18BufferedTextOutput10moveIndentEi"
  },
  {
   "name" : "_ZN7android8hardware18BufferedTextOutput10pushBundleEv"
  },
  {
   "name" : "_ZN7android8hardware18BufferedTextOutput14getThreadStateEv"
  },
  {
   "name" : "_ZN7android8hardware18BufferedTextOutput16threadDestructorEPv"
  },
  {
   "name" : "_ZN7android8hardware18BufferedTextOutput5printEPKcm"
  },
  {
   "name" : "_ZN7android8hardware18BufferedTextOutput9popBundleEv"
  },
  {
   "name" : "_ZN7android8hardware18BufferedTextOutputC2Ej"
  },
  {
   "name" : "_ZN7android8hardware18BufferedTextOutputD0Ev"
  },
  {
   "name" : "_ZN7android8hardware18BufferedTextOutputD1Ev"
  },
  {
   "name" : "_ZN7android8hardware18BufferedTextOutputD2Ev"
  },
  {
   "name" : "_ZN7android8hardware21acquire_binder_objectERKNS_2spINS0_12ProcessStateEEERK18flat_binder_objectPKv"
  },
  {
   "name" : "_ZN7android8hardware6Parcel10writeFloatEf"
  },
  {
   "name" : "_ZN7android8hardware6Parcel10writeInt16Es"
  },
  {
   "name" : "_ZN7android8hardware6Parcel10writeInt32Ei"
  },
  {
   "name" : "_ZN7android8hardware6Parcel10writeInt64El"
  },
  {
   "name" : "_ZN7android8hardware6Parcel10writeUint8Eh"
  },
  {
   "name" : "_ZN7android8hardware6Parcel11finishWriteEm"
  },
  {
   "name" : "_ZN7android8hardware6Parcel11setDataSizeEm"
  },
  {
   "name" : "_ZN7android8hardware6Parcel11writeBufferEPKvmPm"
  },
  {
   "name" : "_ZN7android8hardware6Parcel11writeDoubleEd"
  },
  {
   "binding" : "weak",
   "name" : "_ZN7android8hardware6Parcel11writeObjectI16binder_fd_objectEEiRKT_"
  },
  {
   "binding" : "weak",
   "name" : "_ZN7android8hardware6Parcel11writeObjectI18flat_binder_objectEEiRKT_"
  },
  {
   "binding" : "weak",
   "name" : "_ZN7android8hardware6Parcel11writeObjectI20binder_buffer_objectEEiRKT_"
  },
  {
   "binding" : "weak",
   "name" : "_ZN7android8hardware6Parcel11writeObjectI22binder_fd_array_objectEEiRKT_"
  },
  {
   "name" : "_ZN7android8hardware6Parcel11writeUint16Et"
  },
  {
   "name" : "_ZN7android8hardware6Parcel11writeUint32Ej"
  },
  {
   "name" : "_ZN7android8hardware6Parcel11writeUint64Em"
  },
  {
   "name" : "_ZN7android8hardware6Parcel12restartWriteEm"
  },
  {
   "binding" : "weak",
   "name" : "_ZN7android8hardware6Parcel12writeAlignedIdEEiT_"
  },
  {
   "binding" : "weak",
   "name" : "_ZN7android8hardware6Parcel12writeAlignedIfEEiT_"
  },
  {
   "binding" : "weak",
   "name" : "_ZN7android8hardware6Parcel12writeAlignedIiEEiT_"
  },
  {
   "binding" : "weak",
   "name" : "_ZN7android8hardware6Parcel12writeAlignedIjEEiT_"
  },
  {
   "binding" : "weak",
   "name" : "_ZN7android8hardware6Parcel12writeAlignedIlEEiT_"
  },
  {
   "binding" : "weak",
   "name" : "_ZN7android8hardware6Parcel12writeAlignedImEEiT_"
  },
  {
   "binding" : "weak",
   "name" : "_ZN7android8hardware6Parcel12writeAlignedIyEEiT_"
  },
  {
   "name" : "_ZN7android8hardware6Parcel12writeCStringEPKc"
  },
  {
   "name" : "_ZN7android8hardware6Parcel12writeInplaceEm"
  },
  {
   "name" : "_ZN7android8hardware6Parcel12writePointerEm"
  },
  {
   "name" : "_ZN7android8hardware6Parcel13continueWriteEm"
  },
  {
   "name" : "_ZN7android8hardware6Parcel13writeString16EPKDsm"
  },
  {
   "name" : "_ZN7android8hardware6Parcel13writeString16ERKNS_8String16E"
  },
  {
   "name" : "_ZN7android8hardware6Parcel13writeString16ERKNSt3__110unique_ptrINS_8String16ENS2_14default_deleteIS4_EEEE"
  },
  {
   "name" : "_ZN7android8hardware6Parcel13writeUnpaddedEPKvm"
  },
  {
   "name" : "_ZN7android8hardware6Parcel14acquireObjectsEv"
  },
  {
   "name" : "_ZN7android8hardware6Parcel14freeDataNoInitEv"
  },
  {
   "name" : "_ZN7android8hardware6Parcel14releaseObjectsEv"
  },
  {
   "name" : "_ZN7android8hardware6Parcel14writeReferenceEPmmm"
  },
  {
   "name" : "_ZN7android8hardware6Parcel15setDataCapacityEm"
  },
  {
   "name" : "_ZN7android8hardware6Parcel15writeWeakBinderERKNS_2wpINS0_7IBinderEEE"
  },
  {
   "name" : "_ZN7android8hardware6Parcel17writeStrongBinderERKNS_2spINS0_7IBinderEEE"
  },
  {
   "name" : "_ZN7android8hardware6Parcel18getGlobalAllocSizeEv"
  },
  {
   "name" : "_ZN7android8hardware6Parcel18writeNullReferenceEPm"
  },
  {
   "name" : "_ZN7android8hardware6Parcel19getGlobalAllocCountEv"
  },
  {
   "name" : "_ZN7android8hardware6Parcel19ipcSetDataReferenceEPKhmPKymPFvPS1_S3_mS5_mPvES7_"
  },
  {
   "name" : "_ZN7android8hardware6Parcel19writeEmbeddedBufferEPKvmPmmm"
  },
  {
   "name" : "_ZN7android8hardware6Parcel19writeInterfaceTokenEPKc"
  },
  {
   "name" : "_ZN7android8hardware6Parcel20closeFileDescriptorsEv"
  },
  {
   "name" : "_ZN7android8hardware6Parcel22incrementNumReferencesEv"
  },
  {
   "name" : "_ZN7android8hardware6Parcel22writeEmbeddedReferenceEPmmmmm"
  },
  {
   "name" : "_ZN7android8hardware6Parcel22writeNativeHandleNoDupEPK13native_handle"
  },
  {
   "name" : "_ZN7android8hardware6Parcel22writeNativeHandleNoDupEPK13native_handlebmm"
  },
  {
   "name" : "_ZN7android8hardware6Parcel25writeEmbeddedNativeHandleEPK13native_handlemm"
  },
  {
   "name" : "_ZN7android8hardware6Parcel26writeEmbeddedNullReferenceEPmmm"
  },
  {
   "name" : "_ZN7android8hardware6Parcel5writeEPKvm"
  },
  {
   "name" : "_ZN7android8hardware6Parcel6removeEmm"
  },
  {
   "name" : "_ZN7android8hardware6Parcel7setDataEPKhm"
  },
  {
   "name" : "_ZN7android8hardware6Parcel8freeDataEv"
  },
  {
   "name" : "_ZN7android8hardware6Parcel8growDataEm"
  },
  {
   "name" : "_ZN7android8hardware6Parcel8setErrorEi"
  },
  {
   "name" : "_ZN7android8hardware6Parcel9initStateEv"
  },
  {
   "name" : "_ZN7android8hardware6Parcel9writeBoolEb"
  },
  {
   "name" : "_ZN7android8hardware6Parcel9writeInt8Ea"
  },
  {
   "name" : "_ZN7android8hardware6ParcelC1Ev"
  },
  {
   "name" : "_ZN7android8hardware6ParcelC2Ev"
  },
  {
   "name" : "_ZN7android8hardware6ParcelD1Ev"
  },
  {
   "name" : "_ZN7android8hardware6ParcelD2Ev"
  },
  {
   "name" : "_ZN7android8hardware7HexDumpC1EPKvmm"
  },
  {
   "name" : "_ZN7android8hardware7HexDumpC2EPKvmm"
  },
  {
   "name" : "_ZN7android8hardware7IBinder11localBinderEv"
  },
  {
   "name" : "_ZN7android8hardware7IBinder12remoteBinderEv"
  },
  {
   "name" : "_ZN7android8hardware7IBinderC2Ev"
  },
  {
   "name" : "_ZN7android8hardware7IBinderD0Ev"
  },
  {
   "name" : "_ZN7android8hardware7IBinderD1Ev"
  },
  {
   "name" : "_ZN7android8hardware7IBinderD2Ev"
  },
  {
   "name" : "_ZN7android8hardware9BHwBinder10onTransactEjRKNS0_6ParcelEPS2_jNSt3__18functionIFvRS2_EEE"
  },
  {
   "name" : "_ZN7android8hardware9BHwBinder11linkToDeathERKNS_2spINS0_7IBinder14DeathRecipientEEEPvj"
  },
  {
   "name" : "_ZN7android8hardware9BHwBinder11localBinderEv"
  },
  {
   "name" : "_ZN7android8hardware9BHwBinder12attachObjectEPKvPvS4_PFvS3_S4_S4_E"
  },
  {
   "name" : "_ZN7android8hardware9BHwBinder12detachObjectEPKv"
  },
  {
   "name" : "_ZN7android8hardware9BHwBinder13unlinkToDeathERKNS_2wpINS0_7IBinder14DeathRecipientEEEPvjPS5_"
  },
  {
   "name" : "_ZN7android8hardware9BHwBinder15isRequestingSidEv"
  },
  {
   "name" : "_ZN7android8hardware9BHwBinder16setRequestingSidEb"
  },
  {
   "name" : "_ZN7android8hardware9BHwBinder17getOrCreateExtrasEv"
  },
  {
   "name" : "_ZN7android8hardware9BHwBinder22getMinSchedulingPolicyEv"
  },
  {
   "name" : "_ZN7android8hardware9BHwBinder24getMinSchedulingPriorityEv"
  },
  {
   "name" : "_ZN7android8hardware9BHwBinder8transactEjRKNS0_6ParcelEPS2_jNSt3__18functionIFvRS2_EEE"
  },
  {
   "name" : "_ZN7android8hardware9BHwBinderC1Ev"
  },
  {
   "name" : "_ZN7android8hardware9BHwBinderC2Ev"
  },
  {
   "name" : "_ZN7android8hardware9BHwBinderD0Ev"
  },
  {
   "name" : "_ZN7android8hardware9BHwBinderD1Ev"
  },
  {
   "name" : "_ZN7android8hardware9BHwBinderD2Ev"
  },
  {
   "name" : "_ZN7android8hardwarelsERNS0_10TextOutputERKNS0_7HexDumpE"
  },
  {
   "name" : "_ZN7android8hardwarelsERNS0_10TextOutputERKNS0_8TypeCodeE"
  },
  {
   "binding" : "weak",
   "name" : "_ZN7android8hardwarelsIA15_cEERNS0_10TextOutputES4_RKT_"
  },
  {
   "binding" : "weak",
   "name" : "_ZN7android8hardwarelsIA2_cEERNS0_10TextOutputES4_RKT_"
  },
  {
   "binding" : "weak",
   "name" : "_ZN7android8hardwarelsIA3_cEERNS0_10TextOutputES4_RKT_"
  },
  {
   "binding" : "weak",
   "name" : "_ZN7android8hardwarelsIA4_cEERNS0_10TextOutputES4_RKT_"
  },
  {
   "binding" : "weak",
   "name" : "_ZN7android8hardwarelsIA5_cEERNS0_10TextOutputES4_RKT_"
  },
  {
   "binding" : "weak",
   "name" : "_ZN7android8hardwarelsIA8_cEERNS0_10TextOutputES4_RKT_"
  },
  {
   "binding" : "weak",
   "name" : "_ZN7android8hardwarelsIA9_cEERNS0_10TextOutputES4_RKT_"
  },
  {
   "binding" : "weak",
   "name" : "_ZN7android8hardwarelsIPcEERNS0_10TextOutputES4_RKT_"
  },
  {
   "binding" : "weak",
   "name" : "_ZN7android8hardwarelsIPvEERNS0_10TextOutputES4_RKT_"
  },
  {
   "binding" : "weak",
   "name" : "_ZN7android8hardwarelsImEERNS0_10TextOutputES3_RKT_"
  },
  {
   "binding" : "weak",
   "name" : "_ZN7android8hardwarelsIyEERNS0_10TextOutputES3_RKT_"
  },
  {
   "binding" : "weak",
   "name" : "_ZNK7android12SortedVectorINS_16key_value_pair_tINS_8String16ENS_2spINS_8hardware7IBinderEEEEEE10do_compareEPKvSA_"
  },
  {
   "binding" : "weak",
   "name" : "_ZNK7android12SortedVectorINS_16key_value_pair_tINS_8String16ENS_2spINS_8hardware7IBinderEEEEEE10do_destroyEPvm"
  },
  {
   "binding" : "weak",
   "name" : "_ZNK7android12SortedVectorINS_16key_value_pair_tINS_8String16ENS_2spINS_8hardware7IBinderEEEEEE12do_constructEPvm"
  },
  {
   "binding" : "weak",
   "name" : "_ZNK7android12SortedVectorINS_16key_value_pair_tINS_8String16ENS_2spINS_8hardware7IBinderEEEEEE15do_move_forwardEPvPKvm"
  },
  {
   "binding" : "weak",
   "name" : "_ZNK7android12SortedVectorINS_16key_value_pair_tINS_8String16ENS_2spINS_8hardware7IBinderEEEEEE16do_move_backwardEPvPKvm"
  },
  {
   "binding" : "weak",
   "name" : "_ZNK7android12SortedVectorINS_16key_value_pair_tINS_8String16ENS_2spINS_8hardware7IBinderEEEEEE7do_copyEPvPKvm"
  },
  {
   "binding" : "weak",
   "name" : "_ZNK7android12SortedVectorINS_16key_value_pair_tINS_8String16ENS_2spINS_8hardware7IBinderEEEEEE8do_splatEPvPKvm"
  },
  {
   "binding" : "weak",
   "name" : "_ZNK7android12SortedVectorINS_16key_value_pair_tIPKvNS_8hardware10BpHwBinder13ObjectManager7entry_tEEEE10do_compareES3_S3_"
  },
  {
   "binding" : "weak",
   "name" : "_ZNK7android12SortedVectorINS_16key_value_pair_tIPKvNS_8hardware10BpHwBinder13ObjectManager7entry_tEEEE10do_destroyEPvm"
  },
  {
   "binding" : "weak",
   "name" : "_ZNK7android12SortedVectorINS_16key_value_pair_tIPKvNS_8hardware10BpHwBinder13ObjectManager7entry_tEEEE12do_constructEPvm"
  },
  {
   "binding" : "weak",
   "name" : "_ZNK7android12SortedVectorINS_16key_value_pair_tIPKvNS_8hardware10BpHwBinder13ObjectManager7entry_tEEEE15do_move_forwardEPvS3_m"
  },
  {
   "binding" : "weak",
   "name" : "_ZNK7android12SortedVectorINS_16key_value_pair_tIPKvNS_8hardware10BpHwBinder13ObjectManager7entry_tEEEE16do_move_backwardEPvS3_m"
  },
  {
   "binding" : "weak",
   "name" : "_ZNK7android12SortedVectorINS_16key_value_pair_tIPKvNS_8hardware10BpHwBinder13ObjectManager7entry_tEEEE7do_copyEPvS3_m"
  },
  {
   "binding" : "weak",
   "name" : "_ZNK7android12SortedVectorINS_16key_value_pair_tIPKvNS_8hardware10BpHwBinder13ObjectManager7entry_tEEEE8do_splatEPvS3_m"
  },
  {
   "binding" : "weak",
   "name" : "_ZNK7android6VectorINS_2spINS_8hardware18BufferedTextOutput11BufferStateEEEE10do_destroyEPvm"
  },
  {
   "binding" : "weak",
   "name" : "_ZNK7android6VectorINS_2spINS_8hardware18BufferedTextOutput11BufferStateEEEE12do_constructEPvm"
  },
  {
   "binding" : "weak",
   "name" : "_ZNK7android6VectorINS_2spINS_8hardware18BufferedTextOutput11BufferStateEEEE15do_move_forwardEPvPKvm"
  },
  {
   "binding" : "weak",
   "name" : "_ZNK7android6VectorINS_2spINS_8hardware18BufferedTextOutput11BufferStateEEEE16do_move_backwardEPvPKvm"
  },
  {
   "binding" : "weak",
   "name" : "_ZNK7android6VectorINS_2spINS_8hardware18BufferedTextOutput11BufferStateEEEE7do_copyEPvPKvm"
  },
  {
   "binding" : "weak",
   "name" : "_ZNK7android6VectorINS_2spINS_8hardware18BufferedTextOutput11BufferStateEEEE8do_splatEPvPKvm"
  },
  {
   "binding" : "weak",
   "name" : "_ZNK7android6VectorINS_8hardware10BpHwBinder8ObituaryEE10do_destroyEPvm"
  },
  {
   "binding" : "weak",
   "name" : "_ZNK7android6VectorINS_8hardware10BpHwBinder8ObituaryEE12do_constructEPvm"
  },
  {
   "binding" : "weak",
   "name" : "_ZNK7android6VectorINS_8hardware10BpHwBinder8ObituaryEE15do_move_forwardEPvPKvm"
  },
  {
   "binding" : "weak",
   "name" : "_ZNK7android6VectorINS_8hardware10BpHwBinder8ObituaryEE16do_move_backwardEPvPKvm"
  },
  {
   "binding" : "weak",
   "name" : "_ZNK7android6VectorINS_8hardware10BpHwBinder8ObituaryEE7do_copyEPvPKvm"
  },
  {
   "binding" : "weak",
   "name" : "_ZNK7android6VectorINS_8hardware10BpHwBinder8ObituaryEE8do_splatEPvPKvm"
  },
  {
   "binding" : "weak",
   "name" : "_ZNK7android6VectorINS_8hardware12ProcessState12handle_entryEE10do_destroyEPvm"
  },
  {
   "binding" : "weak",
   "name" : "_ZNK7android6VectorINS_8hardware12ProcessState12handle_entryEE12do_constructEPvm"
  },
  {
   "binding" : "weak",
   "name" : "_ZNK7android6VectorINS_8hardware12ProcessState12handle_entryEE15do_move_forwardEPvPKvm"
  },
  {
   "binding" : "weak",
   "name" : "_ZNK7android6VectorINS_8hardware12ProcessState12handle_entryEE16do_move_backwardEPvPKvm"
  },
  {
   "binding" : "weak",
   "name" : "_ZNK7android6VectorINS_8hardware12ProcessState12handle_entryEE7do_copyEPvPKvm"
  },
  {
   "binding" : "weak",
   "name" : "_ZNK7android6VectorINS_8hardware12ProcessState12handle_entryEE8do_splatEPvPKvm"
  },
  {
   "binding" : "weak",
   "name" : "_ZNK7android6VectorIPNS_7RefBase12weakref_typeEE10do_destroyEPvm"
  },
  {
   "binding" : "weak",
   "name" : "_ZNK7android6VectorIPNS_7RefBase12weakref_typeEE12do_constructEPvm"
  },
  {
   "binding" : "weak",
   "name" : "_ZNK7android6VectorIPNS_7RefBase12weakref_typeEE15do_move_forwardEPvPKvm"
  },
  {
   "binding" : "weak",
   "name" : "_ZNK7android6VectorIPNS_7RefBase12weakref_typeEE16do_move_backwardEPvPKvm"
  },
  {
   "binding" : "weak",
   "name" : "_ZNK7android6VectorIPNS_7RefBase12weakref_typeEE7do_copyEPvPKvm"
  },
  {
   "binding" : "weak",
   "name" : "_ZNK7android6VectorIPNS_7RefBase12weakref_typeEE8do_splatEPvPKvm"
  },
  {
   "binding" : "weak",
   "name" : "_ZNK7android6VectorIPNS_7RefBaseEE10do_destroyEPvm"
  },
  {
   "binding" : "weak",
   "name" : "_ZNK7android6VectorIPNS_7RefBaseEE12do_constructEPvm"
  },
  {
   "binding" : "weak",
   "name" : "_ZNK7android6VectorIPNS_7RefBaseEE15do_move_forwardEPvPKvm"
  },
  {
   "binding" : "weak",
   "name" : "_ZNK7android6VectorIPNS_7RefBaseEE16do_move_backwardEPvPKvm"
  },
  {
   "binding" : "weak",
   "name" : "_ZNK7android6VectorIPNS_7RefBaseEE7do_copyEPvPKvm"
  },
  {
   "binding" : "weak",
   "name" : "_ZNK7android6VectorIPNS_7RefBaseEE8do_splatEPvPKvm"
  },
  {
   "binding" : "weak",
   "name" : "_ZNK7android6VectorIPNS_8hardware9BHwBinderEE10do_destroyEPvm"
  },
  {
   "binding" : "weak",
   "name" : "_ZNK7android6VectorIPNS_8hardware9BHwBinderEE12do_constructEPvm"
  },
  {
   "binding" : "weak",
   "name" : "_ZNK7android6VectorIPNS_8hardware9BHwBinderEE15do_move_forwardEPvPKvm"
  },
  {
   "binding" : "weak",
   "name" : "_ZNK7android6VectorIPNS_8hardware9BHwBinderEE16do_move_backwardEPvPKvm"
  },
  {
   "binding" : "weak",
   "name" : "_ZNK7android6VectorIPNS_8hardware9BHwBinderEE7do_copyEPvPKvm"
  },
  {
   "binding" : "weak",
   "name" : "_ZNK7android6VectorIPNS_8hardware9BHwBinderEE8do_splatEPvPKvm"
  },
  {
   "binding" : "weak",
   "name" : "_ZNK7android6VectorIiE10do_destroyEPvm"
  },
  {
   "binding" : "weak",
   "name" : "_ZNK7android6VectorIiE12do_constructEPvm"
  },
  {
   "binding" : "weak",
   "name" : "_ZNK7android6VectorIiE15do_move_forwardEPvPKvm"
  },
  {
   "binding" : "weak",
   "name" : "_ZNK7android6VectorIiE16do_move_backwardEPvPKvm"
  },
  {
   "binding" : "weak",
   "name" : "_ZNK7android6VectorIiE7do_copyEPvPKvm"
  },
  {
   "binding" : "weak",
   "name" : "_ZNK7android6VectorIiE8do_splatEPvPKvm"
  },
  {
   "name" : "_ZNK7android8hardware10BpHwBinder10findObjectEPKv"
  },
  {
   "name" : "_ZNK7android8hardware10BpHwBinder13ObjectManager4findEPKv"
  },
  {
   "name" : "_ZNK7android8hardware12ProcessState16isContextManagerEv"
  },
  {
   "name" : "_ZNK7android8hardware14IPCThreadState13getCallingPidEv"
  },
  {
   "name" : "_ZNK7android8hardware14IPCThreadState13getCallingSidEv"
  },
  {
   "name" : "_ZNK7android8hardware14IPCThreadState13getCallingUidEv"
  },
  {
   "name" : "_ZNK7android8hardware14IPCThreadState13isServingCallEv"
  },
  {
   "name" : "_ZNK7android8hardware14IPCThreadState19getStrictModePolicyEv"
  },
  {
   "name" : "_ZNK7android8hardware14IPCThreadState29getLastTransactionBinderFlagsEv"
  },
  {
   "name" : "_ZNK7android8hardware18BufferedTextOutput9getBufferEv"
  },
  {
   "name" : "_ZNK7android8hardware6Parcel10clearCacheEv"
  },
  {
   "name" : "_ZNK7android8hardware6Parcel10errorCheckEv"
  },
  {
   "name" : "_ZNK7android8hardware6Parcel10findBufferEPKvmPbPmS5_"
  },
  {
   "name" : "_ZNK7android8hardware6Parcel10ipcObjectsEv"
  },
  {
   "name" : "_ZNK7android8hardware6Parcel10readBufferEmPmPPKv"
  },
  {
   "name" : "_ZNK7android8hardware6Parcel10readBufferEmPmjmmPPKv"
  },
  {
   "name" : "_ZNK7android8hardware6Parcel10readDoubleEPd"
  },
  {
   "name" : "_ZNK7android8hardware6Parcel10readDoubleEv"
  },
  {
   "binding" : "weak",
   "name" : "_ZNK7android8hardware6Parcel10readObjectI16binder_fd_objectEEPKT_Pm"
  },
  {
   "binding" : "weak",
   "name" : "_ZNK7android8hardware6Parcel10readObjectI18flat_binder_objectEEPKT_Pm"
  },
  {
   "binding" : "weak",
   "name" : "_ZNK7android8hardware6Parcel10readObjectI20binder_buffer_objectEEPKT_Pm"
  },
  {
   "binding" : "weak",
   "name" : "_ZNK7android8hardware6Parcel10readObjectI22binder_fd_array_objectEEPKT_Pm"
  },
  {
   "name" : "_ZNK7android8hardware6Parcel10readUint16EPt"
  },
  {
   "name" : "_ZNK7android8hardware6Parcel10readUint32EPj"
  },
  {
   "name" : "_ZNK7android8hardware6Parcel10readUint32Ev"
  },
  {
   "name" : "_ZNK7android8hardware6Parcel10readUint64EPm"
  },
  {
   "name" : "_ZNK7android8hardware6Parcel10readUint64Ev"
  },
  {
   "name" : "_ZNK7android8hardware6Parcel10scanForFdsEv"
  },
  {
   "name" : "_ZNK7android8hardware6Parcel11ipcDataSizeEv"
  },
  {
   "name" : "_ZNK7android8hardware6Parcel11readCStringEv"
  },
  {
   "name" : "_ZNK7android8hardware6Parcel11readInplaceEm"
  },
  {
   "name" : "_ZNK7android8hardware6Parcel11readPointerEPm"
  },
  {
   "name" : "_ZNK7android8hardware6Parcel11readPointerEv"
  },
  {
   "name" : "_ZNK7android8hardware6Parcel11updateCacheEv"
  },
  {
   "name" : "_ZNK7android8hardware6Parcel12dataCapacityEv"
  },
  {
   "name" : "_ZNK7android8hardware6Parcel12dataPositionEv"
  },
  {
   "name" : "_ZNK7android8hardware6Parcel12objectsCountEv"
  },
  {
   "name" : "_ZNK7android8hardware6Parcel12readString16EPNS_8String16E"
  },
  {
   "name" : "_ZNK7android8hardware6Parcel12readString16EPNSt3__110unique_ptrINS_8String16ENS2_14default_deleteIS4_EEEE"
  },
  {
   "name" : "_ZNK7android8hardware6Parcel12readString16Ev"
  },
  {
   "name" : "_ZNK7android8hardware6Parcel13ipcBufferSizeEv"
  },
  {
   "name" : "_ZNK7android8hardware6Parcel13readReferenceEPPKvPmPb"
  },
  {
   "name" : "_ZNK7android8hardware6Parcel14readWeakBinderEv"
  },
  {
   "name" : "_ZNK7android8hardware6Parcel15ipcObjectsCountEv"
  },
  {
   "name" : "_ZNK7android8hardware6Parcel15quickFindBufferEPKvPm"
  },
  {
   "name" : "_ZNK7android8hardware6Parcel15setDataPositionEm"
  },
  {
   "name" : "_ZNK7android8hardware6Parcel16enforceInterfaceEPKc"
  },
  {
   "name" : "_ZNK7android8hardware6Parcel16readStrongBinderEPNS_2spINS0_7IBinderEEE"
  },
  {
   "name" : "_ZNK7android8hardware6Parcel16readStrongBinderEv"
  },
  {
   "name" : "_ZNK7android8hardware6Parcel18readEmbeddedBufferEmPmmmPPKv"
  },
  {
   "name" : "_ZNK7android8hardware6Parcel18readNullableBufferEmPmPPKv"
  },
  {
   "name" : "_ZNK7android8hardware6Parcel18verifyBufferObjectEPK20binder_buffer_objectmjmm"
  },
  {
   "name" : "_ZNK7android8hardware6Parcel19readString16InplaceEPm"
  },
  {
   "name" : "_ZNK7android8hardware6Parcel19validateBufferChildEmm"
  },
  {
   "name" : "_ZNK7android8hardware6Parcel20validateBufferParentEmm"
  },
  {
   "name" : "_ZNK7android8hardware6Parcel21readEmbeddedReferenceEPPKvPmmmPb"
  },
  {
   "name" : "_ZNK7android8hardware6Parcel21readNativeHandleNoDupEPPK13native_handle"
  },
  {
   "name" : "_ZNK7android8hardware6Parcel24readEmbeddedNativeHandleEmmPPK13native_handle"
  },
  {
   "name" : "_ZNK7android8hardware6Parcel24readNullableStrongBinderEPNS_2spINS0_7IBinderEEE"
  },
  {
   "name" : "_ZNK7android8hardware6Parcel26readNullableEmbeddedBufferEmPmmmPPKv"
  },
  {
   "name" : "_ZNK7android8hardware6Parcel29readNullableNativeHandleNoDupEPPK13native_handle"
  },
  {
   "name" : "_ZNK7android8hardware6Parcel29readNullableNativeHandleNoDupEPPK13native_handlebmm"
  },
  {
   "name" : "_ZNK7android8hardware6Parcel32readNullableEmbeddedNativeHandleEmmPPK13native_handle"
  },
  {
   "name" : "_ZNK7android8hardware6Parcel4dataEv"
  },
  {
   "name" : "_ZNK7android8hardware6Parcel4readEPvm"
  },
  {
   "name" : "_ZNK7android8hardware6Parcel5printERNS0_10TextOutputEj"
  },
  {
   "name" : "_ZNK7android8hardware6Parcel7ipcDataEv"
  },
  {
   "name" : "_ZNK7android8hardware6Parcel7objectsEv"
  },
  {
   "name" : "_ZNK7android8hardware6Parcel8dataSizeEv"
  },
  {
   "name" : "_ZNK7android8hardware6Parcel8readBoolEPb"
  },
  {
   "name" : "_ZNK7android8hardware6Parcel8readBoolEv"
  },
  {
   "name" : "_ZNK7android8hardware6Parcel8readInt8EPa"
  },
  {
   "name" : "_ZNK7android8hardware6Parcel9dataAvailEv"
  },
  {
   "name" : "_ZNK7android8hardware6Parcel9readFloatEPf"
  },
  {
   "name" : "_ZNK7android8hardware6Parcel9readFloatEv"
  },
  {
   "name" : "_ZNK7android8hardware6Parcel9readInt16EPs"
  },
  {
   "name" : "_ZNK7android8hardware6Parcel9readInt32EPi"
  },
  {
   "name" : "_ZNK7android8hardware6Parcel9readInt32Ev"
  },
  {
   "name" : "_ZNK7android8hardware6Parcel9readInt64EPl"
  },
  {
   "name" : "_ZNK7android8hardware6Parcel9readInt64Ev"
  },
  {
   "name" : "_ZNK7android8hardware6Parcel9readUint8EPh"
  },
  {
   "name" : "_ZNK7android8hardware7IBinder13checkSubclassEPKv"
  },
  {
   "name" : "_ZNK7android8hardware9BHwBinder10findObjectEPKv"
  },
  {
   "binding" : "weak",
   "name" : "_ZNKSt3__115basic_stringbufIcNS_11char_traitsIcEENS_9allocatorIcEEE3strEv"
  },
  {
   "binding" : "weak",
   "name" : "_ZNSt3__115basic_stringbufIcNS_11char_traitsIcEENS_9allocatorIcEEE7seekoffExNS_8ios_base7seekdirEj"
  },
  {
   "binding" : "weak",
   "name" : "_ZNSt3__115basic_stringbufIcNS_11char_traitsIcEENS_9allocatorIcEEE8overflowEi"
  },
  {
   "binding" : "weak",
   "name" : "_ZNSt3__115basic_stringbufIcNS_11char_traitsIcEENS_9allocatorIcEEE9pbackfailEi"
  },
  {
   "binding" : "weak",
   "name" : "_ZNSt3__115basic_stringbufIcNS_11char_traitsIcEENS_9allocatorIcEEE9underflowEv"
  },
  {
   "binding" : "weak",
   "name" : "_ZNSt3__124__put_character_sequenceIcNS_11char_traitsIcEEEERNS_13basic_ostreamIT_T0_EES7_PKS4_m"
  },
  {
   "binding" : "weak",
   "name" : "_ZNSt3__16vectorIN7android8hardware6Parcel10BufferInfoENS_9allocatorIS4_EEE21__push_back_slow_pathIRKS4_EEvOT_"
  },
  {
   "binding" : "weak",
   "name" : "_ZNSt3__16vectorINS_8functionIFvvEEENS_9allocatorIS3_EEE21__push_back_slow_pathIRKS3_EEvOT_"
  },
  {
   "binding" : "weak",
   "name" : "_ZNSt3__16vectorINS_8functionIFvvEEENS_9allocatorIS3_EEEC2ERKS6_"
  },
  {
   "name" : "_ZTv0_n24_N7android8hardware10BpHwBinderD0Ev"
  },
  {
   "name" : "_ZTv0_n24_N7android8hardware10BpHwBinderD1Ev"
  },
  {
   "name" : "_ZTv0_n24_N7android8hardware10IInterfaceD0Ev"
  },
  {
   "name" : "_ZTv0_n24_N7android8hardware10IInterfaceD1Ev"
  },
  {
   "name" : "_ZTv0_n24_N7android8hardware11BpHwRefBaseD0Ev"
  },
  {
   "name" : "_ZTv0_n24_N7android8hardware11BpHwRefBaseD1Ev"
  },
  {
   "name" : "_ZTv0_n24_N7android8hardware12ProcessStateD0Ev"
  },
  {
   "name" : "_ZTv0_n24_N7android8hardware12ProcessStateD1Ev"
  },
  {
   "name" : "_ZTv0_n24_N7android8hardware7IBinderD0Ev"
  },
  {
   "name" : "_ZTv0_n24_N7android8hardware7IBinderD1Ev"
  },
  {
   "name" : "_ZTv0_n24_N7android8hardware9BHwBinderD0Ev"
  },
  {
   "name" : "_ZTv0_n24_N7android8hardware9BHwBinderD1Ev"
  },
  {
   "name" : "_ZTv0_n32_N7android8hardware10BpHwBinder10onFirstRefEv"
  },
  {
   "name" : "_ZTv0_n32_N7android8hardware11BpHwRefBase10onFirstRefEv"
  },
  {
   "name" : "_ZTv0_n40_N7android8hardware10BpHwBinder15onLastStrongRefEPKv"
  },
  {
   "name" : "_ZTv0_n40_N7android8hardware11BpHwRefBase15onLastStrongRefEPKv"
  },
  {
   "name" : "_ZTv0_n48_N7android8hardware10BpHwBinder20onIncStrongAttemptedEjPKv"
  },
  {
   "name" : "_ZTv0_n48_N7android8hardware11BpHwRefBase20onIncStrongAttemptedEjPKv"
  },
  {
   "name" : "getHWBinderKernelReferences"
  },
  {
   "name" : "printHexData"
  },
  {
   "name" : "printTypeCode"
  },
  {
   "name" : "stringForIndent"
  }
 ],
 "elf_objects" :
 [
  {
   "name" : "_ZN7android8hardware12gTextBuffersE"
  },
  {
   "name" : "_ZN7android8hardware13gProcessMutexE"
  },
  {
   "name" : "_ZN7android8hardware4aerrE"
  },
  {
   "name" : "_ZN7android8hardware4alogE"
  },
  {
   "name" : "_ZN7android8hardware4aoutE"
  },
  {
   "name" : "_ZN7android8hardware8gProcessE"
  },
  {
   "name" : "_ZTCN7android8hardware10BpHwBinderE0_NS0_7IBinderE"
  },
  {
   "binding" : "weak",
   "name" : "_ZTCN7android8hardware10PoolThreadE0_NS_6ThreadE"
  },
  {
   "name" : "_ZTCN7android8hardware9BHwBinderE0_NS0_7IBinderE"
  },
  {
   "binding" : "weak",
   "name" : "_ZTCNSt3__118basic_stringstreamIcNS_11char_traitsIcEENS_9allocatorIcEEEE0_NS_13basic_istreamIcS2_EE"
  },
  {
   "binding" : "weak",
   "name" : "_ZTCNSt3__118basic_stringstreamIcNS_11char_traitsIcEENS_9allocatorIcEEEE0_NS_14basic_iostreamIcS2_EE"
  },
  {
   "binding" : "weak",
   "name" : "_ZTCNSt3__118basic_stringstreamIcNS_11char_traitsIcEENS_9allocatorIcEEEE16_NS_13basic_ostreamIcS2_EE"
  },
  {
   "name" : "_ZTTN7android8hardware10BpHwBinderE"
  },
  {
   "name" : "_ZTTN7android8hardware10IInterfaceE"
  },
  {
   "binding" : "weak",
   "name" : "_ZTTN7android8hardware10PoolThreadE"
  },
  {
   "name" : "_ZTTN7android8hardware11BpHwRefBaseE"
  },
  {
   "name" : "_ZTTN7android8hardware12ProcessStateE"
  },
  {
   "name" : "_ZTTN7android8hardware7IBinderE"
  },
  {
   "name" : "_ZTTN7android8hardware9BHwBinderE"
  },
  {
   "binding" : "weak",
   "name" : "_ZTTNSt3__118basic_stringstreamIcNS_11char_traitsIcEENS_9allocatorIcEEEE"
  },
  {
   "binding" : "weak",
   "name" : "_ZTVN7android12SortedVectorINS_16key_value_pair_tINS_8String16ENS_2spINS_8hardware7IBinderEEEEEEE"
  },
  {
   "binding" : "weak",
   "name" : "_ZTVN7android12SortedVectorINS_16key_value_pair_tIPKvNS_8hardware10BpHwBinder13ObjectManager7entry_tEEEEE"
  },
  {
   "binding" : "weak",
   "name" : "_ZTVN7android6VectorINS_2spINS_8hardware18BufferedTextOutput11BufferStateEEEEE"
  },
  {
   "binding" : "weak",
   "name" : "_ZTVN7android6VectorINS_8hardware10BpHwBinder8ObituaryEEE"
  },
  {
   "binding" : "weak",
   "name" : "_ZTVN7android6VectorINS_8hardware12ProcessState12handle_entryEEE"
  },
  {
   "binding" : "weak",
   "name" : "_ZTVN7android6VectorIPNS_7RefBase12weakref_typeEEE"
  },
  {
   "binding" : "weak",
   "name" : "_ZTVN7android6VectorIPNS_7RefBaseEEE"
  },
  {
   "binding" : "weak",
   "name" : "_ZTVN7android6VectorIPNS_8hardware9BHwBinderEEE"
  },
  {
   "binding" : "weak",
   "name" : "_ZTVN7android6VectorIiEE"
  },
  {
   "name" : "_ZTVN7android8hardware10BpHwBinderE"
  },
  {
   "name" : "_ZTVN7android8hardware10IInterfaceE"
  },
  {
   "binding" : "weak",
   "name" : "_ZTVN7android8hardware10PoolThreadE"
  },
  {
   "name" : "_ZTVN7android8hardware10TextOutputE"
  },
  {
   "name" : "_ZTVN7android8hardware11BpHwRefBaseE"
  },
  {
   "binding" : "weak",
   "name" : "_ZTVN7android8hardware12FdTextOutputE"
  },
  {
   "name" : "_ZTVN7android8hardware12ProcessStateE"
  },
  {
   "binding" : "weak",
   "name" : "_ZTVN7android8hardware13LogTextOutputE"
  },
  {
   "binding" : "weak",
   "name" : "_ZTVN7android8hardware18BufferedTextOutput11BufferStateE"
  },
  {
   "name" : "_ZTVN7android8hardware18BufferedTextOutputE"
  },
  {
   "name" : "_ZTVN7android8hardware7IBinderE"
  },
  {
   "name" : "_ZTVN7android8hardware9BHwBinderE"
  },
  {
   "binding" : "weak",
   "name" : "_ZTVNSt3__115basic_stringbufIcNS_11char_traitsIcEENS_9allocatorIcEEEE"
  },
  {
   "binding" : "weak",
   "name" : "_ZTVNSt3__118basic_stringstreamIcNS_11char_traitsIcEENS_9allocatorIcEEEE"
  }
 ],
 "enum_types" :
 [
  {
   "alignment" : 4,
   "enum_fields" :
   [
    {
     "enum_field_value" : 0,
     "name" : "android::Condition::WAKE_UP_ONE"
    },
    {
     "enum_field_value" : 1,
     "name" : "android::Condition::WAKE_UP_ALL"
    }
   ],
   "linker_set_key" : "android::Condition::WakeUpType",
   "name" : "android::Condition::WakeUpType",
   "referenced_type" : "type-259",
   "self_type" : "type-259",
   "size" : 4,
   "source_file" : "/system/core/libutils/include/utils/Condition.h",
   "underlying_type" : "type-4",
   "unique_id" : "_ZTSN7android9Condition10WakeUpTypeE"
  },
  {
   "alignment" : 4,
   "enum_fields" :
   [
    {
     "enum_field_value" : 0,
     "name" : "android::String16::kEmptyString"
    }
   ],
   "linker_set_key" : "android::String16::StaticLinkage",
   "name" : "android::String16::StaticLinkage",
   "referenced_type" : "type-603",
   "self_type" : "type-603",
   "size" : 4,
   "source_file" : "/system/core/libutils/include/utils/String16.h",
   "underlying_type" : "type-4",
   "unique_id" : "_ZTSN7android8String1613StaticLinkageE"
  },
  {
   "alignment" : 4,
   "enum_fields" :
   [
    {
     "enum_field_value" : 0,
     "name" : "android::String8::kEmptyString"
    }
   ],
   "linker_set_key" : "android::String8::StaticLinkage",
   "name" : "android::String8::StaticLinkage",
   "referenced_type" : "type-539",
   "self_type" : "type-539",
   "size" : 4,
   "source_file" : "/system/core/libutils/include/utils/String8.h",
   "underlying_type" : "type-4",
   "unique_id" : "_ZTSN7android7String813StaticLinkageE"
  },
  {
   "alignment" : 4,
   "enum_fields" :
   [
    {
     "enum_field_value" : 0,
     "name" : "android::hardware::ProcessState::CallRestriction::NONE"
    },
    {
     "enum_field_value" : 1,
     "name" : "android::hardware::ProcessState::CallRestriction::ERROR_IF_NOT_ONEWAY"
    },
    {
     "enum_field_value" : 2,
     "name" : "android::hardware::ProcessState::CallRestriction::FATAL_IF_NOT_ONEWAY"
    }
   ],
   "linker_set_key" : "android::hardware::ProcessState::CallRestriction",
   "name" : "android::hardware::ProcessState::CallRestriction",
   "referenced_type" : "type-385",
   "self_type" : "type-385",
   "size" : 4,
   "source_file" : "/system/libhwbinder/include/hwbinder/ProcessState.h",
   "underlying_type" : "type-9",
   "unique_id" : "_ZTSN7android8hardware12ProcessState15CallRestrictionE"
  },
  {
   "alignment" : 4,
   "enum_fields" :
   [
    {
     "enum_field_value" : 0,
     "name" : "ANDROID_LOG_UNKNOWN"
    },
    {
     "enum_field_value" : 1,
     "name" : "ANDROID_LOG_DEFAULT"
    },
    {
     "enum_field_value" : 2,
     "name" : "ANDROID_LOG_VERBOSE"
    },
    {
     "enum_field_value" : 3,
     "name" : "ANDROID_LOG_DEBUG"
    },
    {
     "enum_field_value" : 4,
     "name" : "ANDROID_LOG_INFO"
    },
    {
     "enum_field_value" : 5,
     "name" : "ANDROID_LOG_WARN"
    },
    {
     "enum_field_value" : 6,
     "name" : "ANDROID_LOG_ERROR"
    },
    {
     "enum_field_value" : 7,
     "name" : "ANDROID_LOG_FATAL"
    },
    {
     "enum_field_value" : 8,
     "name" : "ANDROID_LOG_SILENT"
    }
   ],
   "linker_set_key" : "android_LogPriority",
   "name" : "android_LogPriority",
   "referenced_type" : "type-159",
   "self_type" : "type-159",
   "size" : 4,
   "source_file" : "/system/core/liblog/include/android/log.h",
   "underlying_type" : "type-4",
   "unique_id" : "android_LogPriority"
  },
  {
   "alignment" : 4,
   "enum_fields" :
   [
    {
     "enum_field_value" : 0,
     "name" : "HAL_COLOR_MODE_NATIVE"
    },
    {
     "enum_field_value" : 1,
     "name" : "HAL_COLOR_MODE_STANDARD_BT601_625"
    },
    {
     "enum_field_value" : 2,
     "name" : "HAL_COLOR_MODE_STANDARD_BT601_625_UNADJUSTED"
    },
    {
     "enum_field_value" : 3,
     "name" : "HAL_COLOR_MODE_STANDARD_BT601_525"
    },
    {
     "enum_field_value" : 4,
     "name" : "HAL_COLOR_MODE_STANDARD_BT601_525_UNADJUSTED"
    },
    {
     "enum_field_value" : 5,
     "name" : "HAL_COLOR_MODE_STANDARD_BT709"
    },
    {
     "enum_field_value" : 6,
     "name" : "HAL_COLOR_MODE_DCI_P3"
    },
    {
     "enum_field_value" : 7,
     "name" : "HAL_COLOR_MODE_SRGB"
    },
    {
     "enum_field_value" : 8,
     "name" : "HAL_COLOR_MODE_ADOBE_RGB"
    },
    {
     "enum_field_value" : 9,
     "name" : "HAL_COLOR_MODE_DISPLAY_P3"
    }
   ],
   "linker_set_key" : "android_color_mode_t",
   "name" : "android_color_mode_t",
   "referenced_type" : "type-202",
   "self_type" : "type-202",
   "size" : 4,
   "source_file" : "/system/core/libsystem/include/system/graphics-base-v1.0.h",
   "underlying_type" : "type-4",
   "unique_id" : "android_color_mode_t"
  },
  {
   "alignment" : 4,
   "enum_fields" :
   [
    {
     "enum_field_value" : 10,
     "name" : "HAL_COLOR_MODE_BT2020"
    },
    {
     "enum_field_value" : 11,
     "name" : "HAL_COLOR_MODE_BT2100_PQ"
    },
    {
     "enum_field_value" : 12,
     "name" : "HAL_COLOR_MODE_BT2100_HLG"
    }
   ],
   "linker_set_key" : "android_color_mode_v1_1_t",
   "name" : "android_color_mode_v1_1_t",
   "referenced_type" : "type-213",
   "self_type" : "type-213",
   "size" : 4,
   "source_file" : "/system/core/libsystem/include/system/graphics-base-v1.1.h",
   "underlying_type" : "type-4",
   "unique_id" : "android_color_mode_v1_1_t"
  },
  {
   "alignment" : 4,
   "enum_fields" :
   [
    {
     "enum_field_value" : 0,
     "name" : "HAL_COLOR_TRANSFORM_IDENTITY"
    },
    {
     "enum_field_value" : 1,
     "name" : "HAL_COLOR_TRANSFORM_ARBITRARY_MATRIX"
    },
    {
     "enum_field_value" : 2,
     "name" : "HAL_COLOR_TRANSFORM_VALUE_INVERSE"
    },
    {
     "enum_field_value" : 3,
     "name" : "HAL_COLOR_TRANSFORM_GRAYSCALE"
    },
    {
     "enum_field_value" : 4,
     "name" : "HAL_COLOR_TRANSFORM_CORRECT_PROTANOPIA"
    },
    {
     "enum_field_value" : 5,
     "name" : "HAL_COLOR_TRANSFORM_CORRECT_DEUTERANOPIA"
    },
    {
     "enum_field_value" : 6,
     "name" : "HAL_COLOR_TRANSFORM_CORRECT_TRITANOPIA"
    }
   ],
   "linker_set_key" : "android_color_transform_t",
   "name" : "android_color_transform_t",
   "referenced_type" : "type-206",
   "self_type" : "type-206",
   "size" : 4,
   "source_file" : "/system/core/libsystem/include/system/graphics-base-v1.0.h",
   "underlying_type" : "type-4",
   "unique_id" : "android_color_transform_t"
  },
  {
   "alignment" : 4,
   "enum_fields" :
   [
    {
     "enum_field_value" : 0,
     "name" : "HAL_DATASPACE_UNKNOWN"
    },
    {
     "enum_field_value" : 1,
     "name" : "HAL_DATASPACE_ARBITRARY"
    },
    {
     "enum_field_value" : 16,
     "name" : "HAL_DATASPACE_STANDARD_SHIFT"
    },
    {
     "enum_field_value" : 4128768,
     "name" : "HAL_DATASPACE_STANDARD_MASK"
    },
    {
     "enum_field_value" : 0,
     "name" : "HAL_DATASPACE_STANDARD_UNSPECIFIED"
    },
    {
     "enum_field_value" : 65536,
     "name" : "HAL_DATASPACE_STANDARD_BT709"
    },
    {
     "enum_field_value" : 131072,
     "name" : "HAL_DATASPACE_STANDARD_BT601_625"
    },
    {
     "enum_field_value" : 196608,
     "name" : "HAL_DATASPACE_STANDARD_BT601_625_UNADJUSTED"
    },
    {
     "enum_field_value" : 262144,
     "name" : "HAL_DATASPACE_STANDARD_BT601_525"
    },
    {
     "enum_field_value" : 327680,
     "name" : "HAL_DATASPACE_STANDARD_BT601_525_UNADJUSTED"
    },
    {
     "enum_field_value" : 393216,
     "name" : "HAL_DATASPACE_STANDARD_BT2020"
    },
    {
     "enum_field_value" : 458752,
     "name" : "HAL_DATASPACE_STANDARD_BT2020_CONSTANT_LUMINANCE"
    },
    {
     "enum_field_value" : 524288,
     "name" : "HAL_DATASPACE_STANDARD_BT470M"
    },
    {
     "enum_field_value" : 589824,
     "name" : "HAL_DATASPACE_STANDARD_FILM"
    },
    {
     "enum_field_value" : 655360,
     "name" : "HAL_DATASPACE_STANDARD_DCI_P3"
    },
    {
     "enum_field_value" : 720896,
     "name" : "HAL_DATASPACE_STANDARD_ADOBE_RGB"
    },
    {
     "enum_field_value" : 22,
     "name" : "HAL_DATASPACE_TRANSFER_SHIFT"
    },
    {
     "enum_field_value" : 130023424,
     "name" : "HAL_DATASPACE_TRANSFER_MASK"
    },
    {
     "enum_field_value" : 0,
     "name" : "HAL_DATASPACE_TRANSFER_UNSPECIFIED"
    },
    {
     "enum_field_value" : 4194304,
     "name" : "HAL_DATASPACE_TRANSFER_LINEAR"
    },
    {
     "enum_field_value" : 8388608,
     "name" : "HAL_DATASPACE_TRANSFER_SRGB"
    },
    {
     "enum_field_value" : 12582912,
     "name" : "HAL_DATASPACE_TRANSFER_SMPTE_170M"
    },
    {
     "enum_field_value" : 16777216,
     "name" : "HAL_DATASPACE_TRANSFER_GAMMA2_2"
    },
    {
     "enum_field_value" : 20971520,
     "name" : "HAL_DATASPACE_TRANSFER_GAMMA2_6"
    },
    {
     "enum_field_value" : 25165824,
     "name" : "HAL_DATASPACE_TRANSFER_GAMMA2_8"
    },
    {
     "enum_field_value" : 29360128,
     "name" : "HAL_DATASPACE_TRANSFER_ST2084"
    },
    {
     "enum_field_value" : 33554432,
     "name" : "HAL_DATASPACE_TRANSFER_HLG"
    },
    {
     "enum_field_value" : 27,
     "name" : "HAL_DATASPACE_RANGE_SHIFT"
    },
    {
     "enum_field_value" : 939524096,
     "name" : "HAL_DATASPACE_RANGE_MASK"
    },
    {
     "enum_field_value" : 0,
     "name" : "HAL_DATASPACE_RANGE_UNSPECIFIED"
    },
    {
     "enum_field_value" : 134217728,
     "name" : "HAL_DATASPACE_RANGE_FULL"
    },
    {
     "enum_field_value" : 268435456,
     "name" : "HAL_DATASPACE_RANGE_LIMITED"
    },
    {
     "enum_field_value" : 402653184,
     "name" : "HAL_DATASPACE_RANGE_EXTENDED"
    },
    {
     "enum_field_value" : 512,
     "name" : "HAL_DATASPACE_SRGB_LINEAR"
    },
    {
     "enum_field_value" : 138477568,
     "name" : "HAL_DATASPACE_V0_SRGB_LINEAR"
    },
    {
     "enum_field_value" : 406913024,
     "name" : "HAL_DATASPACE_V0_SCRGB_LINEAR"
    },
    {
     "enum_field_value" : 513,
     "name" : "HAL_DATASPACE_SRGB"
    },
    {
     "enum_field_value" : 142671872,
     "name" : "HAL_DATASPACE_V0_SRGB"
    },
    {
     "enum_field_value" : 411107328,
     "name" : "HAL_DATASPACE_V0_SCRGB"
    },
    {
     "enum_field_value" : 257,
     "name" : "HAL_DATASPACE_JFIF"
    },
    {
     "enum_field_value" : 146931712,
     "name" : "HAL_DATASPACE_V0_JFIF"
    },
    {
     "enum_field_value" : 258,
     "name" : "HAL_DATASPACE_BT601_625"
    },
    {
     "enum_field_value" : 281149440,
     "name" : "HAL_DATASPACE_V0_BT601_625"
    },
    {
     "enum_field_value" : 259,
     "name" : "HAL_DATASPACE_BT601_525"
    },
    {
     "enum_field_value" : 281280512,
     "name" : "HAL_DATASPACE_V0_BT601_525"
    },
    {
     "enum_field_value" : 260,
     "name" : "HAL_DATASPACE_BT709"
    },
    {
     "enum_field_value" : 281083904,
     "name" : "HAL_DATASPACE_V0_BT709"
    },
    {
     "enum_field_value" : 139067392,
     "name" : "HAL_DATASPACE_DCI_P3_LINEAR"
    },
    {
     "enum_field_value" : 155844608,
     "name" : "HAL_DATASPACE_DCI_P3"
    },
    {
     "enum_field_value" : 139067392,
     "name" : "HAL_DATASPACE_DISPLAY_P3_LINEAR"
    },
    {
     "enum_field_value" : 143261696,
     "name" : "HAL_DATASPACE_DISPLAY_P3"
    },
    {
     "enum_field_value" : 151715840,
     "name" : "HAL_DATASPACE_ADOBE_RGB"
    },
    {
     "enum_field_value" : 138805248,
     "name" : "HAL_DATASPACE_BT2020_LINEAR"
    },
    {
     "enum_field_value" : 147193856,
     "name" : "HAL_DATASPACE_BT2020"
    },
    {
     "enum_field_value" : 163971072,
     "name" : "HAL_DATASPACE_BT2020_PQ"
    },
    {
     "enum_field_value" : 4096,
     "name" : "HAL_DATASPACE_DEPTH"
    },
    {
     "enum_field_value" : 4097,
     "name" : "HAL_DATASPACE_SENSOR"
    }
   ],
   "linker_set_key" : "android_dataspace_t",
   "name" : "android_dataspace_t",
   "referenced_type" : "type-201",
   "self_type" : "type-201",
   "size" : 4,
   "source_file" : "/system/core/libsystem/include/system/graphics-base-v1.0.h",
   "underlying_type" : "type-4",
   "unique_id" : "android_dataspace_t"
  },
  {
   "alignment" : 4,
   "enum_fields" :
   [
    {
     "enum_field_value" : 281411584,
     "name" : "HAL_DATASPACE_BT2020_ITU"
    },
    {
     "enum_field_value" : 298188800,
     "name" : "HAL_DATASPACE_BT2020_ITU_PQ"
    },
    {
     "enum_field_value" : 302383104,
     "name" : "HAL_DATASPACE_BT2020_ITU_HLG"
    },
    {
     "enum_field_value" : 168165376,
     "name" : "HAL_DATASPACE_BT2020_HLG"
    }
   ],
   "linker_set_key" : "android_dataspace_v1_1_t",
   "name" : "android_dataspace_v1_1_t",
   "referenced_type" : "type-209",
   "self_type" : "type-209",
   "size" : 4,
   "source_file" : "/system/core/libsystem/include/system/graphics-base-v1.1.h",
   "underlying_type" : "type-4",
   "unique_id" : "android_dataspace_v1_1_t"
  },
  {
   "alignment" : 4,
   "enum_fields" :
   [
    {
     "enum_field_value" : 142999552,
     "name" : "HAL_DATASPACE_DISPLAY_BT2020"
    },
    {
     "enum_field_value" : 4098,
     "name" : "HAL_DATASPACE_DYNAMIC_DEPTH"
    },
    {
     "enum_field_value" : 4099,
     "name" : "HAL_DATASPACE_JPEG_APP_SEGMENTS"
    },
    {
     "enum_field_value" : 4100,
     "name" : "HAL_DATASPACE_HEIF"
    }
   ],
   "linker_set_key" : "android_dataspace_v1_2_t",
   "name" : "android_dataspace_v1_2_t",
   "referenced_type" : "type-217",
   "self_type" : "type-217",
   "size" : 4,
   "source_file" : "/system/core/libsystem/include/system/graphics-base-v1.2.h",
   "underlying_type" : "type-4",
   "unique_id" : "android_dataspace_v1_2_t"
  },
  {
   "alignment" : 4,
   "enum_fields" :
   [
    {
     "enum_field_value" : 1,
     "name" : "FLEX_COMPONENT_Y"
    },
    {
     "enum_field_value" : 2,
     "name" : "FLEX_COMPONENT_Cb"
    },
    {
     "enum_field_value" : 4,
     "name" : "FLEX_COMPONENT_Cr"
    },
    {
     "enum_field_value" : 1024,
     "name" : "FLEX_COMPONENT_R"
    },
    {
     "enum_field_value" : 2048,
     "name" : "FLEX_COMPONENT_G"
    },
    {
     "enum_field_value" : 4096,
     "name" : "FLEX_COMPONENT_B"
    },
    {
     "enum_field_value" : 1073741824,
     "name" : "FLEX_COMPONENT_A"
    }
   ],
   "linker_set_key" : "android_flex_component",
   "name" : "android_flex_component",
   "referenced_type" : "type-228",
   "self_type" : "type-228",
   "size" : 4,
   "source_file" : "/system/core/libsystem/include/system/graphics.h",
   "underlying_type" : "type-4",
   "unique_id" : "android_flex_component"
  },
  {
   "alignment" : 4,
   "enum_fields" :
   [
    {
     "enum_field_value" : 0,
     "name" : "FLEX_FORMAT_INVALID"
    },
    {
     "enum_field_value" : 1,
     "name" : "FLEX_FORMAT_Y"
    },
    {
     "enum_field_value" : 7,
     "name" : "FLEX_FORMAT_YCbCr"
    },
    {
     "enum_field_value" : 1073741831,
     "name" : "FLEX_FORMAT_YCbCrA"
    },
    {
     "enum_field_value" : 7168,
     "name" : "FLEX_FORMAT_RGB"
    },
    {
     "enum_field_value" : 1073748992,
     "name" : "FLEX_FORMAT_RGBA"
    }
   ],
   "linker_set_key" : "android_flex_format",
   "name" : "android_flex_format",
   "referenced_type" : "type-230",
   "self_type" : "type-230",
   "size" : 4,
   "source_file" : "/system/core/libsystem/include/system/graphics.h",
   "underlying_type" : "type-4",
   "unique_id" : "android_flex_format"
  },
  {
   "alignment" : 4,
   "enum_fields" :
   [
    {
     "enum_field_value" : 1,
     "name" : "HAL_HDR_DOLBY_VISION"
    },
    {
     "enum_field_value" : 2,
     "name" : "HAL_HDR_HDR10"
    },
    {
     "enum_field_value" : 3,
     "name" : "HAL_HDR_HLG"
    }
   ],
   "linker_set_key" : "android_hdr_t",
   "name" : "android_hdr_t",
   "referenced_type" : "type-207",
   "self_type" : "type-207",
   "size" : 4,
   "source_file" : "/system/core/libsystem/include/system/graphics-base-v1.0.h",
   "underlying_type" : "type-4",
   "unique_id" : "android_hdr_t"
  },
  {
   "alignment" : 4,
   "enum_fields" :
   [
    {
     "enum_field_value" : 4,
     "name" : "HAL_HDR_HDR10_PLUS"
    }
   ],
   "linker_set_key" : "android_hdr_v1_2_t",
   "name" : "android_hdr_v1_2_t",
   "referenced_type" : "type-216",
   "self_type" : "type-216",
   "size" : 4,
   "source_file" : "/system/core/libsystem/include/system/graphics-base-v1.2.h",
   "underlying_type" : "type-4",
   "unique_id" : "android_hdr_v1_2_t"
  },
  {
   "alignment" : 4,
   "enum_fields" :
   [
    {
     "enum_field_value" : 39,
     "name" : "HAL_PIXEL_FORMAT_YCBCR_422_888"
    },
    {
     "enum_field_value" : 40,
     "name" : "HAL_PIXEL_FORMAT_YCBCR_444_888"
    },
    {
     "enum_field_value" : 41,
     "name" : "HAL_PIXEL_FORMAT_FLEX_RGB_888"
    },
    {
     "enum_field_value" : 42,
     "name" : "HAL_PIXEL_FORMAT_FLEX_RGBA_8888"
    }
   ],
   "linker_set_key" : "android_pixel_format_sw_t",
   "name" : "android_pixel_format_sw_t",
   "referenced_type" : "type-222",
   "self_type" : "type-222",
   "size" : 4,
   "source_file" : "/system/core/libsystem/include/system/graphics-sw.h",
   "underlying_type" : "type-4",
   "unique_id" : "_ZTS25android_pixel_format_sw_t"
  },
  {
   "alignment" : 4,
   "enum_fields" :
   [
    {
     "enum_field_value" : 1,
     "name" : "HAL_PIXEL_FORMAT_RGBA_8888"
    },
    {
     "enum_field_value" : 2,
     "name" : "HAL_PIXEL_FORMAT_RGBX_8888"
    },
    {
     "enum_field_value" : 3,
     "name" : "HAL_PIXEL_FORMAT_RGB_888"
    },
    {
     "enum_field_value" : 4,
     "name" : "HAL_PIXEL_FORMAT_RGB_565"
    },
    {
     "enum_field_value" : 5,
     "name" : "HAL_PIXEL_FORMAT_BGRA_8888"
    },
    {
     "enum_field_value" : 16,
     "name" : "HAL_PIXEL_FORMAT_YCBCR_422_SP"
    },
    {
     "enum_field_value" : 17,
     "name" : "HAL_PIXEL_FORMAT_YCRCB_420_SP"
    },
    {
     "enum_field_value" : 20,
     "name" : "HAL_PIXEL_FORMAT_YCBCR_422_I"
    },
    {
     "enum_field_value" : 22,
     "name" : "HAL_PIXEL_FORMAT_RGBA_FP16"
    },
    {
     "enum_field_value" : 32,
     "name" : "HAL_PIXEL_FORMAT_RAW16"
    },
    {
     "enum_field_value" : 33,
     "name" : "HAL_PIXEL_FORMAT_BLOB"
    },
    {
     "enum_field_value" : 34,
     "name" : "HAL_PIXEL_FORMAT_IMPLEMENTATION_DEFINED"
    },
    {
     "enum_field_value" : 35,
     "name" : "HAL_PIXEL_FORMAT_YCBCR_420_888"
    },
    {
     "enum_field_value" : 36,
     "name" : "HAL_PIXEL_FORMAT_RAW_OPAQUE"
    },
    {
     "enum_field_value" : 37,
     "name" : "HAL_PIXEL_FORMAT_RAW10"
    },
    {
     "enum_field_value" : 38,
     "name" : "HAL_PIXEL_FORMAT_RAW12"
    },
    {
     "enum_field_value" : 43,
     "name" : "HAL_PIXEL_FORMAT_RGBA_1010102"
    },
    {
     "enum_field_value" : 538982489,
     "name" : "HAL_PIXEL_FORMAT_Y8"
    },
    {
     "enum_field_value" : 540422489,
     "name" : "HAL_PIXEL_FORMAT_Y16"
    },
    {
     "enum_field_value" : 842094169,
     "name" : "HAL_PIXEL_FORMAT_YV12"
    }
   ],
   "linker_set_key" : "android_pixel_format_t",
   "name" : "android_pixel_format_t",
   "referenced_type" : "type-194",
   "self_type" : "type-194",
   "size" : 4,
   "source_file" : "/system/core/libsystem/include/system/graphics-base-v1.0.h",
   "underlying_type" : "type-4",
   "unique_id" : "android_pixel_format_t"
  },
  {
   "alignment" : 4,
   "enum_fields" :
   [
    {
     "enum_field_value" : 48,
     "name" : "HAL_PIXEL_FORMAT_DEPTH_16"
    },
    {
     "enum_field_value" : 49,
     "name" : "HAL_PIXEL_FORMAT_DEPTH_24"
    },
    {
     "enum_field_value" : 50,
     "name" : "HAL_PIXEL_FORMAT_DEPTH_24_STENCIL_8"
    },
    {
     "enum_field_value" : 51,
     "name" : "HAL_PIXEL_FORMAT_DEPTH_32F"
    },
    {
     "enum_field_value" : 52,
     "name" : "HAL_PIXEL_FORMAT_DEPTH_32F_STENCIL_8"
    },
    {
     "enum_field_value" : 53,
     "name" : "HAL_PIXEL_FORMAT_STENCIL_8"
    },
    {
     "enum_field_value" : 54,
     "name" : "HAL_PIXEL_FORMAT_YCBCR_P010"
    }
   ],
   "linker_set_key" : "android_pixel_format_v1_1_t",
   "name" : "android_pixel_format_v1_1_t",
   "referenced_type" : "type-208",
   "self_type" : "type-208",
   "size" : 4,
   "source_file" : "/system/core/libsystem/include/system/graphics-base-v1.1.h",
   "underlying_type" : "type-4",
   "unique_id" : "android_pixel_format_v1_1_t"
  },
  {
   "alignment" : 4,
   "enum_fields" :
   [
    {
     "enum_field_value" : 55,
     "name" : "HAL_PIXEL_FORMAT_HSV_888"
    }
   ],
   "linker_set_key" : "android_pixel_format_v1_2_t",
   "name" : "android_pixel_format_v1_2_t",
   "referenced_type" : "type-221",
   "self_type" : "type-221",
   "size" : 4,
   "source_file" : "/system/core/libsystem/include/system/graphics-base-v1.2.h",
   "underlying_type" : "type-4",
   "unique_id" : "android_pixel_format_v1_2_t"
  },
  {
   "alignment" : 4,
   "enum_fields" :
   [
    {
     "enum_field_value" : 0,
     "name" : "HAL_RENDER_INTENT_COLORIMETRIC"
    },
    {
     "enum_field_value" : 1,
     "name" : "HAL_RENDER_INTENT_ENHANCE"
    },
    {
     "enum_field_value" : 2,
     "name" : "HAL_RENDER_INTENT_TONE_MAP_COLORIMETRIC"
    },
    {
     "enum_field_value" : 3,
     "name" : "HAL_RENDER_INTENT_TONE_MAP_ENHANCE"
    }
   ],
   "linker_set_key" : "android_render_intent_v1_1_t",
   "name" : "android_render_intent_v1_1_t",
   "referenced_type" : "type-214",
   "self_type" : "type-214",
   "size" : 4,
   "source_file" : "/system/core/libsystem/include/system/graphics-base-v1.1.h",
   "underlying_type" : "type-4",
   "unique_id" : "android_render_intent_v1_1_t"
  },
  {
   "alignment" : 4,
   "enum_fields" :
   [
    {
     "enum_field_value" : 1,
     "name" : "HAL_TRANSFORM_FLIP_H"
    },
    {
     "enum_field_value" : 2,
     "name" : "HAL_TRANSFORM_FLIP_V"
    },
    {
     "enum_field_value" : 4,
     "name" : "HAL_TRANSFORM_ROT_90"
    },
    {
     "enum_field_value" : 3,
     "name" : "HAL_TRANSFORM_ROT_180"
    },
    {
     "enum_field_value" : 7,
     "name" : "HAL_TRANSFORM_ROT_270"
    }
   ],
   "linker_set_key" : "android_transform_t",
   "name" : "android_transform_t",
   "referenced_type" : "type-200",
   "self_type" : "type-200",
   "size" : 4,
   "source_file" : "/system/core/libsystem/include/system/graphics-base-v1.0.h",
   "underlying_type" : "type-4",
   "unique_id" : "android_transform_t"
  },
  {
   "alignment" : 4,
   "enum_fields" :
   [
    {
     "enum_field_value" : 0,
     "name" : "LOG_ID_MIN"
    },
    {
     "enum_field_value" : 0,
     "name" : "LOG_ID_MAIN"
    },
    {
     "enum_field_value" : 1,
     "name" : "LOG_ID_RADIO"
    },
    {
     "enum_field_value" : 2,
     "name" : "LOG_ID_EVENTS"
    },
    {
     "enum_field_value" : 3,
     "name" : "LOG_ID_SYSTEM"
    },
    {
     "enum_field_value" : 4,
     "name" : "LOG_ID_CRASH"
    },
    {
     "enum_field_value" : 5,
     "name" : "LOG_ID_STATS"
    },
    {
     "enum_field_value" : 6,
     "name" : "LOG_ID_SECURITY"
    },
    {
     "enum_field_value" : 7,
     "name" : "LOG_ID_KERNEL"
    },
    {
     "enum_field_value" : 8,
     "name" : "LOG_ID_MAX"
    }
   ],
   "linker_set_key" : "log_id",
   "name" : "log_id",
   "referenced_type" : "type-162",
   "self_type" : "type-162",
   "size" : 4,
   "source_file" : "/system/core/liblog/include/android/log.h",
   "underlying_type" : "type-4",
   "unique_id" : "log_id"
  }
 ],
 "function_types" :
 [
  {
   "alignment" : 4,
   "linker_set_key" : "android::hardware::TextOutput &(android::hardware::TextOutput &)",
   "name" : "android::hardware::TextOutput &(android::hardware::TextOutput &)",
   "parameters" :
   [
    {
     "referenced_type" : "type-587"
    }
   ],
   "referenced_type" : "type-591",
   "return_type" : "type-587",
   "self_type" : "type-591",
   "source_file" : "/system/libhwbinder/include/hwbinder/TextOutput.h"
  },
  {
   "alignment" : 4,
   "linker_set_key" : "bool (const android::String16 &, const android::sp<android::hardware::IBinder> &, void *)",
   "name" : "bool (const android::String16 &, const android::sp<android::hardware::IBinder> &, void *)",
   "parameters" :
   [
    {
     "referenced_type" : "type-380"
    },
    {
     "referenced_type" : "type-153"
    },
    {
     "referenced_type" : "type-23"
    }
   ],
   "referenced_type" : "type-379",
   "return_type" : "type-14",
   "self_type" : "type-379",
   "source_file" : "/system/libhwbinder/include/hwbinder/ProcessState.h"
  },
  {
   "alignment" : 4,
   "linker_set_key" : "int (void *)",
   "name" : "int (void *)",
   "parameters" :
   [
    {
     "referenced_type" : "type-23"
    }
   ],
   "referenced_type" : "type-243",
   "return_type" : "type-9",
   "self_type" : "type-243",
   "source_file" : "/system/core/libutils/include/utils/AndroidThreads.h"
  },
  {
   "alignment" : 4,
   "linker_set_key" : "std::__1::basic_ostream<char> &(std::__1::basic_ostream<char> &)",
   "name" : "std::__1::basic_ostream<char> &(std::__1::basic_ostream<char> &)",
   "parameters" :
   [
    {
     "referenced_type" : "type-599"
    }
   ],
   "referenced_type" : "type-598",
   "return_type" : "type-599",
   "self_type" : "type-598",
   "source_file" : "/system/libhwbinder/include/hwbinder/TextOutput.h"
  },
  {
   "alignment" : 4,
   "linker_set_key" : "void (android::hardware::Parcel *, const unsigned char *, unsigned long, const unsigned long long *, unsigned long, void *)",
   "name" : "void (android::hardware::Parcel *, const unsigned char *, unsigned long, const unsigned long long *, unsigned long, void *)",
   "parameters" :
   [
    {
     "referenced_type" : "type-18"
    },
    {
     "referenced_type" : "type-19"
    },
    {
     "referenced_type" : "type-7"
    },
    {
     "referenced_type" : "type-21"
    },
    {
     "referenced_type" : "type-7"
    },
    {
     "referenced_type" : "type-23"
    }
   ],
   "referenced_type" : "type-16",
   "return_type" : "type-17",
   "self_type" : "type-16",
   "source_file" : "/system/libhwbinder/include/hwbinder/Parcel.h"
  },
  {
   "alignment" : 4,
   "linker_set_key" : "void (const void *, void *, void *)",
   "name" : "void (const void *, void *, void *)",
   "parameters" :
   [
    {
     "referenced_type" : "type-110"
    },
    {
     "referenced_type" : "type-23"
    },
    {
     "referenced_type" : "type-23"
    }
   ],
   "referenced_type" : "type-288",
   "return_type" : "type-17",
   "self_type" : "type-288",
   "source_file" : "/system/libhwbinder/include/hwbinder/Binder.h"
  },
  {
   "alignment" : 4,
   "linker_set_key" : "void (void *, const char *)",
   "name" : "void (void *, const char *)",
   "parameters" :
   [
    {
     "referenced_type" : "type-23"
    },
    {
     "referenced_type" : "type-383"
    }
   ],
   "referenced_type" : "type-655",
   "return_type" : "type-17",
   "self_type" : "type-655",
   "source_file" : "/system/libhwbinder/include/hwbinder/Debug.h"
  }
 ],
 "functions" :
 [
  {
   "function_name" : "android::sp<android::hardware::ProcessState>::~sp",
   "linker_set_key" : "_ZN7android2spINS_8hardware12ProcessStateEED2Ev",
   "parameters" :
   [
    {
     "is_this_ptr" : true,
     "referenced_type" : "type-550"
    }
   ],
   "return_type" : "type-17",
   "source_file" : "/system/core/libutils/include/utils/StrongPointer.h"
  },
  {
   "access" : "protected",
   "function_name" : "android::hardware::BpHwBinder::onFirstRef",
   "linker_set_key" : "_ZN7android8hardware10BpHwBinder10onFirstRefEv",
   "parameters" :
   [
    {
     "is_this_ptr" : true,
     "referenced_type" : "type-657"
    }
   ],
   "return_type" : "type-17",
   "source_file" : "/system/libhwbinder/include/hwbinder/BpHwBinder.h"
  },
  {
   "function_name" : "android::hardware::BpHwBinder::linkToDeath",
   "linker_set_key" : "_ZN7android8hardware10BpHwBinder11linkToDeathERKNS_2spINS0_7IBinder14DeathRecipientEEEPvj",
   "parameters" :
   [
    {
     "is_this_ptr" : true,
     "referenced_type" : "type-657"
    },
    {
     "referenced_type" : "type-514"
    },
    {
     "default_arg" : true,
     "referenced_type" : "type-23"
    },
    {
     "default_arg" : true,
     "referenced_type" : "type-4"
    }
   ],
   "return_type" : "type-9",
   "source_file" : "/system/libhwbinder/include/hwbinder/BpHwBinder.h"
  },
  {
   "function_name" : "android::hardware::BpHwBinder::attachObject",
   "linker_set_key" : "_ZN7android8hardware10BpHwBinder12attachObjectEPKvPvS4_PFvS3_S4_S4_E",
   "parameters" :
   [
    {
     "is_this_ptr" : true,
     "referenced_type" : "type-657"
    },
    {
     "referenced_type" : "type-110"
    },
    {
     "referenced_type" : "type-23"
    },
    {
     "referenced_type" : "type-23"
    },
    {
     "referenced_type" : "type-287"
    }
   ],
   "return_type" : "type-17",
   "source_file" : "/system/libhwbinder/include/hwbinder/BpHwBinder.h"
  },
  {
   "function_name" : "android::hardware::BpHwBinder::detachObject",
   "linker_set_key" : "_ZN7android8hardware10BpHwBinder12detachObjectEPKv",
   "parameters" :
   [
    {
     "is_this_ptr" : true,
     "referenced_type" : "type-657"
    },
    {
     "referenced_type" : "type-110"
    }
   ],
   "return_type" : "type-17",
   "source_file" : "/system/libhwbinder/include/hwbinder/BpHwBinder.h"
  },
  {
   "function_name" : "android::hardware::BpHwBinder::remoteBinder",
   "linker_set_key" : "_ZN7android8hardware10BpHwBinder12remoteBinderEv",
   "parameters" :
   [
    {
     "is_this_ptr" : true,
     "referenced_type" : "type-657"
    }
   ],
   "return_type" : "type-657",
   "source_file" : "/system/libhwbinder/include/hwbinder/BpHwBinder.h"
  },
  {
   "function_name" : "android::hardware::BpHwBinder::sendObituary",
   "linker_set_key" : "_ZN7android8hardware10BpHwBinder12sendObituaryEv",
   "parameters" :
   [
    {
     "is_this_ptr" : true,
     "referenced_type" : "type-657"
    }
   ],
   "return_type" : "type-17",
   "source_file" : "/system/libhwbinder/include/hwbinder/BpHwBinder.h"
  },
  {
   "function_name" : "android::hardware::BpHwBinder::ObjectManager::kill",
   "linker_set_key" : "_ZN7android8hardware10BpHwBinder13ObjectManager4killEv",
   "parameters" :
   [
    {
     "is_this_ptr" : true,
     "referenced_type" : "type-536"
    }
   ],
   "return_type" : "type-17",
   "source_file" : "/system/libhwbinder/include/hwbinder/BpHwBinder.h"
  },
  {
   "function_name" : "android::hardware::BpHwBinder::ObjectManager::attach",
   "linker_set_key" : "_ZN7android8hardware10BpHwBinder13ObjectManager6attachEPKvPvS5_PFvS4_S5_S5_E",
   "parameters" :
   [
    {
     "is_this_ptr" : true,
     "referenced_type" : "type-536"
    },
    {
     "referenced_type" : "type-110"
    },
    {
     "referenced_type" : "type-23"
    },
    {
     "referenced_type" : "type-23"
    },
    {
     "referenced_type" : "type-287"
    }
   ],
   "return_type" : "type-17",
   "source_file" : "/system/libhwbinder/include/hwbinder/BpHwBinder.h"
  },
  {
   "function_name" : "android::hardware::BpHwBinder::ObjectManager::detach",
   "linker_set_key" : "_ZN7android8hardware10BpHwBinder13ObjectManager6detachEPKv",
   "parameters" :
   [
    {
     "is_this_ptr" : true,
     "referenced_type" : "type-536"
    },
    {
     "referenced_type" : "type-110"
    }
   ],
   "return_type" : "type-17",
   "source_file" : "/system/libhwbinder/include/hwbinder/BpHwBinder.h"
  },
  {
   "function_name" : "android::hardware::BpHwBinder::ObjectManager::ObjectManager",
   "linker_set_key" : "_ZN7android8hardware10BpHwBinder13ObjectManagerC1Ev",
   "parameters" :
   [
    {
     "is_this_ptr" : true,
     "referenced_type" : "type-536"
    }
   ],
   "return_type" : "type-17",
   "source_file" : "/system/libhwbinder/include/hwbinder/BpHwBinder.h"
  },
  {
   "function_name" : "android::hardware::BpHwBinder::ObjectManager::ObjectManager",
   "linker_set_key" : "_ZN7android8hardware10BpHwBinder13ObjectManagerC2Ev",
   "parameters" :
   [
    {
     "is_this_ptr" : true,
     "referenced_type" : "type-536"
    }
   ],
   "return_type" : "type-17",
   "source_file" : "/system/libhwbinder/include/hwbinder/BpHwBinder.h"
  },
  {
   "function_name" : "android::hardware::BpHwBinder::ObjectManager::~ObjectManager",
   "linker_set_key" : "_ZN7android8hardware10BpHwBinder13ObjectManagerD1Ev",
   "parameters" :
   [
    {
     "is_this_ptr" : true,
     "referenced_type" : "type-536"
    }
   ],
   "return_type" : "type-17",
   "source_file" : "/system/libhwbinder/include/hwbinder/BpHwBinder.h"
  },
  {
   "function_name" : "android::hardware::BpHwBinder::ObjectManager::~ObjectManager",
   "linker_set_key" : "_ZN7android8hardware10BpHwBinder13ObjectManagerD2Ev",
   "parameters" :
   [
    {
     "is_this_ptr" : true,
     "referenced_type" : "type-536"
    }
   ],
   "return_type" : "type-17",
   "source_file" : "/system/libhwbinder/include/hwbinder/BpHwBinder.h"
  },
  {
   "function_name" : "android::hardware::BpHwBinder::unlinkToDeath",
   "linker_set_key" : "_ZN7android8hardware10BpHwBinder13unlinkToDeathERKNS_2wpINS0_7IBinder14DeathRecipientEEEPvjPS5_",
   "parameters" :
   [
    {
     "is_this_ptr" : true,
     "referenced_type" : "type-657"
    },
    {
     "referenced_type" : "type-121"
    },
    {
     "default_arg" : true,
     "referenced_type" : "type-23"
    },
    {
     "default_arg" : true,
     "referenced_type" : "type-4"
    },
    {
     "default_arg" : true,
     "referenced_type" : "type-128"
    }
   ],
   "return_type" : "type-9",
   "source_file" : "/system/libhwbinder/include/hwbinder/BpHwBinder.h"
  },
  {
   "access" : "private",
   "function_name" : "android::hardware::BpHwBinder::reportOneDeath",
   "linker_set_key" : "_ZN7android8hardware10BpHwBinder14reportOneDeathERKNS1_8ObituaryE",
   "parameters" :
   [
    {
     "is_this_ptr" : true,
     "referenced_type" : "type-657"
    },
    {
     "referenced_type" : "type-524"
    }
   ],
   "return_type" : "type-17",
   "source_file" : "/system/libhwbinder/include/hwbinder/BpHwBinder.h"
  },
  {
   "access" : "protected",
   "function_name" : "android::hardware::BpHwBinder::onLastStrongRef",
   "linker_set_key" : "_ZN7android8hardware10BpHwBinder15onLastStrongRefEPKv",
   "parameters" :
   [
    {
     "is_this_ptr" : true,
     "referenced_type" : "type-657"
    },
    {
     "referenced_type" : "type-110"
    }
   ],
   "return_type" : "type-17",
   "source_file" : "/system/libhwbinder/include/hwbinder/BpHwBinder.h"
  },
  {
   "access" : "protected",
   "function_name" : "android::hardware::BpHwBinder::onIncStrongAttempted",
   "linker_set_key" : "_ZN7android8hardware10BpHwBinder20onIncStrongAttemptedEjPKv",
   "parameters" :
   [
    {
     "is_this_ptr" : true,
     "referenced_type" : "type-657"
    },
    {
     "referenced_type" : "type-4"
    },
    {
     "referenced_type" : "type-110"
    }
   ],
   "return_type" : "type-14",
   "source_file" : "/system/libhwbinder/include/hwbinder/BpHwBinder.h"
  },
  {
   "function_name" : "android::hardware::BpHwBinder::getNodeStrongRefCount",
   "linker_set_key" : "_ZN7android8hardware10BpHwBinder21getNodeStrongRefCountEv",
   "parameters" :
   [
    {
     "is_this_ptr" : true,
     "referenced_type" : "type-657"
    }
   ],
   "return_type" : "type-100",
   "source_file" : "/system/libhwbinder/include/hwbinder/BpHwBinder.h"
  },
  {
   "function_name" : "android::hardware::BpHwBinder::transact",
   "linker_set_key" : "_ZN7android8hardware10BpHwBinder8transactEjRKNS0_6ParcelEPS2_jNSt3__18functionIFvRS2_EEE",
   "parameters" :
   [
    {
     "is_this_ptr" : true,
     "referenced_type" : "type-657"
    },
    {
     "referenced_type" : "type-4"
    },
    {
     "referenced_type" : "type-45"
    },
    {
     "referenced_type" : "type-18"
    },
    {
     "default_arg" : true,
     "referenced_type" : "type-4"
    },
    {
     "default_arg" : true,
     "referenced_type" : "type-821"
    }
   ],
   "return_type" : "type-9",
   "source_file" : "/system/libhwbinder/include/hwbinder/BpHwBinder.h"
  },
  {
   "function_name" : "android::hardware::BpHwBinder::BpHwBinder",
   "linker_set_key" : "_ZN7android8hardware10BpHwBinderC1Ei",
   "parameters" :
   [
    {
     "is_this_ptr" : true,
     "referenced_type" : "type-657"
    },
    {
     "referenced_type" : "type-9"
    }
   ],
   "return_type" : "type-17",
   "source_file" : "/system/libhwbinder/include/hwbinder/BpHwBinder.h"
  },
  {
   "function_name" : "android::hardware::BpHwBinder::BpHwBinder",
   "linker_set_key" : "_ZN7android8hardware10BpHwBinderC2Ei",
   "parameters" :
   [
    {
     "is_this_ptr" : true,
     "referenced_type" : "type-657"
    },
    {
     "referenced_type" : "type-9"
    }
   ],
   "return_type" : "type-17",
   "source_file" : "/system/libhwbinder/include/hwbinder/BpHwBinder.h"
  },
  {
   "access" : "protected",
   "function_name" : "android::hardware::BpHwBinder::~BpHwBinder",
   "linker_set_key" : "_ZN7android8hardware10BpHwBinderD0Ev",
   "parameters" :
   [
    {
     "is_this_ptr" : true,
     "referenced_type" : "type-657"
    }
   ],
   "return_type" : "type-17",
   "source_file" : "/system/libhwbinder/include/hwbinder/BpHwBinder.h"
  },
  {
   "access" : "protected",
   "function_name" : "android::hardware::BpHwBinder::~BpHwBinder",
   "linker_set_key" : "_ZN7android8hardware10BpHwBinderD1Ev",
   "parameters" :
   [
    {
     "is_this_ptr" : true,
     "referenced_type" : "type-657"
    }
   ],
   "return_type" : "type-17",
   "source_file" : "/system/libhwbinder/include/hwbinder/BpHwBinder.h"
  },
  {
   "access" : "protected",
   "function_name" : "android::hardware::BpHwBinder::~BpHwBinder",
   "linker_set_key" : "_ZN7android8hardware10BpHwBinderD2Ev",
   "parameters" :
   [
    {
     "is_this_ptr" : true,
     "referenced_type" : "type-657"
    }
   ],
   "return_type" : "type-17",
   "source_file" : "/system/libhwbinder/include/hwbinder/BpHwBinder.h"
  },
  {
   "function_name" : "android::hardware::IInterface::asBinder",
   "linker_set_key" : "_ZN7android8hardware10IInterface8asBinderEPKS1_",
   "parameters" :
   [
    {
     "referenced_type" : "type-668"
    }
   ],
   "return_type" : "type-71",
   "source_file" : "/system/libhwbinder/include/hwbinder/IInterface.h"
  },
  {
   "function_name" : "android::hardware::IInterface::asBinder",
   "linker_set_key" : "_ZN7android8hardware10IInterface8asBinderERKNS_2spIS1_EE",
   "parameters" :
   [
    {
     "referenced_type" : "type-661"
    }
   ],
   "return_type" : "type-71",
   "source_file" : "/system/libhwbinder/include/hwbinder/IInterface.h"
  },
  {
   "function_name" : "android::hardware::IInterface::IInterface",
   "linker_set_key" : "_ZN7android8hardware10IInterfaceC2Ev",
   "parameters" :
   [
    {
     "is_this_ptr" : true,
     "referenced_type" : "type-664"
    }
   ],
   "return_type" : "type-17",
   "source_file" : "/system/libhwbinder/include/hwbinder/IInterface.h"
  },
  {
   "access" : "protected",
   "function_name" : "android::hardware::IInterface::~IInterface",
   "linker_set_key" : "_ZN7android8hardware10IInterfaceD0Ev",
   "parameters" :
   [
    {
     "is_this_ptr" : true,
     "referenced_type" : "type-664"
    }
   ],
   "return_type" : "type-17",
   "source_file" : "/system/libhwbinder/include/hwbinder/IInterface.h"
  },
  {
   "access" : "protected",
   "function_name" : "android::hardware::IInterface::~IInterface",
   "linker_set_key" : "_ZN7android8hardware10IInterfaceD1Ev",
   "parameters" :
   [
    {
     "is_this_ptr" : true,
     "referenced_type" : "type-664"
    }
   ],
   "return_type" : "type-17",
   "source_file" : "/system/libhwbinder/include/hwbinder/IInterface.h"
  },
  {
   "access" : "protected",
   "function_name" : "android::hardware::IInterface::~IInterface",
   "linker_set_key" : "_ZN7android8hardware10IInterfaceD2Ev",
   "parameters" :
   [
    {
     "is_this_ptr" : true,
     "referenced_type" : "type-664"
    }
   ],
   "return_type" : "type-17",
   "source_file" : "/system/libhwbinder/include/hwbinder/IInterface.h"
  },
  {
   "function_name" : "android::hardware::TextOutput::TextOutput",
   "linker_set_key" : "_ZN7android8hardware10TextOutputC2Ev",
   "parameters" :
   [
    {
     "is_this_ptr" : true,
     "referenced_type" : "type-447"
    }
   ],
   "return_type" : "type-17",
   "source_file" : "/system/libhwbinder/include/hwbinder/TextOutput.h"
  },
  {
   "function_name" : "android::hardware::TextOutput::~TextOutput",
   "linker_set_key" : "_ZN7android8hardware10TextOutputD0Ev",
   "parameters" :
   [
    {
     "is_this_ptr" : true,
     "referenced_type" : "type-447"
    }
   ],
   "return_type" : "type-17",
   "source_file" : "/system/libhwbinder/include/hwbinder/TextOutput.h"
  },
  {
   "function_name" : "android::hardware::TextOutput::~TextOutput",
   "linker_set_key" : "_ZN7android8hardware10TextOutputD1Ev",
   "parameters" :
   [
    {
     "is_this_ptr" : true,
     "referenced_type" : "type-447"
    }
   ],
   "return_type" : "type-17",
   "source_file" : "/system/libhwbinder/include/hwbinder/TextOutput.h"
  },
  {
   "function_name" : "android::hardware::TextOutput::~TextOutput",
   "linker_set_key" : "_ZN7android8hardware10TextOutputD2Ev",
   "parameters" :
   [
    {
     "is_this_ptr" : true,
     "referenced_type" : "type-447"
    }
   ],
   "return_type" : "type-17",
   "source_file" : "/system/libhwbinder/include/hwbinder/TextOutput.h"
  },
  {
   "access" : "protected",
   "function_name" : "android::hardware::BpHwRefBase::onFirstRef",
   "linker_set_key" : "_ZN7android8hardware11BpHwRefBase10onFirstRefEv",
   "parameters" :
   [
    {
     "is_this_ptr" : true,
     "referenced_type" : "type-150"
    }
   ],
   "return_type" : "type-17",
   "source_file" : "/system/libhwbinder/include/hwbinder/Binder.h"
  },
  {
   "access" : "protected",
   "function_name" : "android::hardware::BpHwRefBase::onLastStrongRef",
   "linker_set_key" : "_ZN7android8hardware11BpHwRefBase15onLastStrongRefEPKv",
   "parameters" :
   [
    {
     "is_this_ptr" : true,
     "referenced_type" : "type-150"
    },
    {
     "referenced_type" : "type-110"
    }
   ],
   "return_type" : "type-17",
   "source_file" : "/system/libhwbinder/include/hwbinder/Binder.h"
  },
  {
   "access" : "protected",
   "function_name" : "android::hardware::BpHwRefBase::onIncStrongAttempted",
   "linker_set_key" : "_ZN7android8hardware11BpHwRefBase20onIncStrongAttemptedEjPKv",
   "parameters" :
   [
    {
     "is_this_ptr" : true,
     "referenced_type" : "type-150"
    },
    {
     "referenced_type" : "type-4"
    },
    {
     "referenced_type" : "type-110"
    }
   ],
   "return_type" : "type-14",
   "source_file" : "/system/libhwbinder/include/hwbinder/Binder.h"
  },
  {
   "access" : "protected",
   "function_name" : "android::hardware::BpHwRefBase::BpHwRefBase",
   "linker_set_key" : "_ZN7android8hardware11BpHwRefBaseC1ERKNS_2spINS0_7IBinderEEE",
   "parameters" :
   [
    {
     "is_this_ptr" : true,
     "referenced_type" : "type-150"
    },
    {
     "referenced_type" : "type-153"
    }
   ],
   "return_type" : "type-17",
   "source_file" : "/system/libhwbinder/include/hwbinder/Binder.h"
  },
  {
   "access" : "protected",
   "function_name" : "android::hardware::BpHwRefBase::BpHwRefBase",
   "linker_set_key" : "_ZN7android8hardware11BpHwRefBaseC2ERKNS_2spINS0_7IBinderEEE",
   "parameters" :
   [
    {
     "is_this_ptr" : true,
     "referenced_type" : "type-150"
    },
    {
     "referenced_type" : "type-153"
    }
   ],
   "return_type" : "type-17",
   "source_file" : "/system/libhwbinder/include/hwbinder/Binder.h"
  },
  {
   "access" : "protected",
   "function_name" : "android::hardware::BpHwRefBase::~BpHwRefBase",
   "linker_set_key" : "_ZN7android8hardware11BpHwRefBaseD0Ev",
   "parameters" :
   [
    {
     "is_this_ptr" : true,
     "referenced_type" : "type-150"
    }
   ],
   "return_type" : "type-17",
   "source_file" : "/system/libhwbinder/include/hwbinder/Binder.h"
  },
  {
   "access" : "protected",
   "function_name" : "android::hardware::BpHwRefBase::~BpHwRefBase",
   "linker_set_key" : "_ZN7android8hardware11BpHwRefBaseD1Ev",
   "parameters" :
   [
    {
     "is_this_ptr" : true,
     "referenced_type" : "type-150"
    }
   ],
   "return_type" : "type-17",
   "source_file" : "/system/libhwbinder/include/hwbinder/Binder.h"
  },
  {
   "access" : "protected",
   "function_name" : "android::hardware::BpHwRefBase::~BpHwRefBase",
   "linker_set_key" : "_ZN7android8hardware11BpHwRefBaseD2Ev",
   "parameters" :
   [
    {
     "is_this_ptr" : true,
     "referenced_type" : "type-150"
    }
   ],
   "return_type" : "type-17",
   "source_file" : "/system/libhwbinder/include/hwbinder/Binder.h"
  },
  {
   "function_name" : "android::hardware::ProcessState::selfOrNull",
   "linker_set_key" : "_ZN7android8hardware12ProcessState10selfOrNullEv",
   "return_type" : "type-373",
   "source_file" : "/system/libhwbinder/include/hwbinder/ProcessState.h"
  },
  {
   "function_name" : "android::hardware::ProcessState::getMmapSize",
   "linker_set_key" : "_ZN7android8hardware12ProcessState11getMmapSizeEv",
   "parameters" :
   [
    {
     "is_this_ptr" : true,
     "referenced_type" : "type-374"
    }
   ],
   "return_type" : "type-7",
   "source_file" : "/system/libhwbinder/include/hwbinder/ProcessState.h"
  },
  {
   "function_name" : "android::hardware::ProcessState::expungeHandle",
   "linker_set_key" : "_ZN7android8hardware12ProcessState13expungeHandleEiPNS0_7IBinderE",
   "parameters" :
   [
    {
     "is_this_ptr" : true,
     "referenced_type" : "type-374"
    },
    {
     "referenced_type" : "type-9"
    },
    {
     "referenced_type" : "type-53"
    }
   ],
   "return_type" : "type-17",
   "source_file" : "/system/libhwbinder/include/hwbinder/ProcessState.h"
  },
  {
   "function_name" : "android::hardware::ProcessState::getMaxThreads",
   "linker_set_key" : "_ZN7android8hardware12ProcessState13getMaxThreadsEv",
   "parameters" :
   [
    {
     "is_this_ptr" : true,
     "referenced_type" : "type-374"
    }
   ],
   "return_type" : "type-7",
   "source_file" : "/system/libhwbinder/include/hwbinder/ProcessState.h"
  },
  {
   "function_name" : "android::hardware::ProcessState::startThreadPool",
   "linker_set_key" : "_ZN7android8hardware12ProcessState15startThreadPoolEv",
   "parameters" :
   [
    {
     "is_this_ptr" : true,
     "referenced_type" : "type-374"
    }
   ],
   "return_type" : "type-17",
   "source_file" : "/system/libhwbinder/include/hwbinder/ProcessState.h"
  },
  {
   "function_name" : "android::hardware::ProcessState::getContextObject",
   "linker_set_key" : "_ZN7android8hardware12ProcessState16getContextObjectERKNS_2spINS0_7IBinderEEE",
   "parameters" :
   [
    {
     "is_this_ptr" : true,
     "referenced_type" : "type-374"
    },
    {
     "referenced_type" : "type-153"
    }
   ],
   "return_type" : "type-71",
   "source_file" : "/system/libhwbinder/include/hwbinder/ProcessState.h"
  },
  {
   "function_name" : "android::hardware::ProcessState::getContextObject",
   "linker_set_key" : "_ZN7android8hardware12ProcessState16getContextObjectERKNS_8String16ERKNS_2spINS0_7IBinderEEE",
   "parameters" :
   [
    {
     "is_this_ptr" : true,
     "referenced_type" : "type-374"
    },
    {
     "referenced_type" : "type-380"
    },
    {
     "referenced_type" : "type-153"
    }
   ],
   "return_type" : "type-71",
   "source_file" : "/system/libhwbinder/include/hwbinder/ProcessState.h"
  },
  {
   "function_name" : "android::hardware::ProcessState::initWithMmapSize",
   "linker_set_key" : "_ZN7android8hardware12ProcessState16initWithMmapSizeEm",
   "parameters" :
   [
    {
     "referenced_type" : "type-7"
    }
   ],
   "return_type" : "type-373",
   "source_file" : "/system/libhwbinder/include/hwbinder/ProcessState.h"
  },
  {
   "function_name" : "android::hardware::ProcessState::setContextObject",
   "linker_set_key" : "_ZN7android8hardware12ProcessState16setContextObjectERKNS_2spINS0_7IBinderEEE",
   "parameters" :
   [
    {
     "is_this_ptr" : true,
     "referenced_type" : "type-374"
    },
    {
     "referenced_type" : "type-153"
    }
   ],
   "return_type" : "type-17",
   "source_file" : "/system/libhwbinder/include/hwbinder/ProcessState.h"
  },
  {
   "function_name" : "android::hardware::ProcessState::setContextObject",
   "linker_set_key" : "_ZN7android8hardware12ProcessState16setContextObjectERKNS_2spINS0_7IBinderEEERKNS_8String16E",
   "parameters" :
   [
    {
     "is_this_ptr" : true,
     "referenced_type" : "type-374"
    },
    {
     "referenced_type" : "type-153"
    },
    {
     "referenced_type" : "type-380"
    }
   ],
   "return_type" : "type-17",
   "source_file" : "/system/libhwbinder/include/hwbinder/ProcessState.h"
  },
  {
   "function_name" : "android::hardware::ProcessState::spawnPooledThread",
   "linker_set_key" : "_ZN7android8hardware12ProcessState17spawnPooledThreadEb",
   "parameters" :
   [
    {
     "is_this_ptr" : true,
     "referenced_type" : "type-374"
    },
    {
     "referenced_type" : "type-14"
    }
   ],
   "return_type" : "type-17",
   "source_file" : "/system/libhwbinder/include/hwbinder/ProcessState.h"
  },
  {
   "function_name" : "android::hardware::ProcessState::giveThreadPoolName",
   "linker_set_key" : "_ZN7android8hardware12ProcessState18giveThreadPoolNameEv",
   "parameters" :
   [
    {
     "is_this_ptr" : true,
     "referenced_type" : "type-374"
    }
   ],
   "return_type" : "type-17",
   "source_file" : "/system/libhwbinder/include/hwbinder/ProcessState.h"
  },
  {
   "access" : "private",
   "function_name" : "android::hardware::ProcessState::lookupHandleLocked",
   "linker_set_key" : "_ZN7android8hardware12ProcessState18lookupHandleLockedEi",
   "parameters" :
   [
    {
     "is_this_ptr" : true,
     "referenced_type" : "type-374"
    },
    {
     "referenced_type" : "type-9"
    }
   ],
   "return_type" : "type-325",
   "source_file" : "/system/libhwbinder/include/hwbinder/ProcessState.h"
  },
  {
   "function_name" : "android::hardware::ProcessState::setCallRestriction",
   "linker_set_key" : "_ZN7android8hardware12ProcessState18setCallRestrictionENS1_15CallRestrictionE",
   "parameters" :
   [
    {
     "is_this_ptr" : true,
     "referenced_type" : "type-374"
    },
    {
     "referenced_type" : "type-385"
    }
   ],
   "return_type" : "type-17",
   "source_file" : "/system/libhwbinder/include/hwbinder/ProcessState.h"
  },
  {
   "function_name" : "android::hardware::ProcessState::getKernelReferences",
   "linker_set_key" : "_ZN7android8hardware12ProcessState19getKernelReferencesEmPm",
   "parameters" :
   [
    {
     "is_this_ptr" : true,
     "referenced_type" : "type-374"
    },
    {
     "referenced_type" : "type-7"
    },
    {
     "referenced_type" : "type-651"
    }
   ],
   "return_type" : "type-100",
   "source_file" : "/system/libhwbinder/include/hwbinder/ProcessState.h"
  },
  {
   "function_name" : "android::hardware::ProcessState::becomeContextManager",
   "linker_set_key" : "_ZN7android8hardware12ProcessState20becomeContextManagerEPFbRKNS_8String16ERKNS_2spINS0_7IBinderEEEPvESA_",
   "parameters" :
   [
    {
     "is_this_ptr" : true,
     "referenced_type" : "type-374"
    },
    {
     "referenced_type" : "type-378"
    },
    {
     "referenced_type" : "type-23"
    }
   ],
   "return_type" : "type-14",
   "source_file" : "/system/libhwbinder/include/hwbinder/ProcessState.h"
  },
  {
   "access" : "private",
   "function_name" : "android::hardware::ProcessState::makeBinderThreadName",
   "linker_set_key" : "_ZN7android8hardware12ProcessState20makeBinderThreadNameEv",
   "parameters" :
   [
    {
     "is_this_ptr" : true,
     "referenced_type" : "type-374"
    }
   ],
   "return_type" : "type-382",
   "source_file" : "/system/libhwbinder/include/hwbinder/ProcessState.h"
  },
  {
   "function_name" : "android::hardware::ProcessState::getWeakProxyForHandle",
   "linker_set_key" : "_ZN7android8hardware12ProcessState21getWeakProxyForHandleEi",
   "parameters" :
   [
    {
     "is_this_ptr" : true,
     "referenced_type" : "type-374"
    },
    {
     "referenced_type" : "type-9"
    }
   ],
   "return_type" : "type-52",
   "source_file" : "/system/libhwbinder/include/hwbinder/ProcessState.h"
  },
  {
   "function_name" : "android::hardware::ProcessState::getStrongProxyForHandle",
   "linker_set_key" : "_ZN7android8hardware12ProcessState23getStrongProxyForHandleEi",
   "parameters" :
   [
    {
     "is_this_ptr" : true,
     "referenced_type" : "type-374"
    },
    {
     "referenced_type" : "type-9"
    }
   ],
   "return_type" : "type-71",
   "source_file" : "/system/libhwbinder/include/hwbinder/ProcessState.h"
  },
  {
   "function_name" : "android::hardware::ProcessState::setThreadPoolConfiguration",
   "linker_set_key" : "_ZN7android8hardware12ProcessState26setThreadPoolConfigurationEmb",
   "parameters" :
   [
    {
     "is_this_ptr" : true,
     "referenced_type" : "type-374"
    },
    {
     "referenced_type" : "type-7"
    },
    {
     "referenced_type" : "type-14"
    }
   ],
   "return_type" : "type-9",
   "source_file" : "/system/libhwbinder/include/hwbinder/ProcessState.h"
  },
  {
   "function_name" : "android::hardware::ProcessState::getStrongRefCountForNodeByHandle",
   "linker_set_key" : "_ZN7android8hardware12ProcessState32getStrongRefCountForNodeByHandleEi",
   "parameters" :
   [
    {
     "is_this_ptr" : true,
     "referenced_type" : "type-374"
    },
    {
     "referenced_type" : "type-9"
    }
   ],
   "return_type" : "type-100",
   "source_file" : "/system/libhwbinder/include/hwbinder/ProcessState.h"
  },
  {
   "function_name" : "android::hardware::ProcessState::self",
   "linker_set_key" : "_ZN7android8hardware12ProcessState4selfEv",
   "return_type" : "type-373",
   "source_file" : "/system/libhwbinder/include/hwbinder/ProcessState.h"
  },
  {
   "access" : "private",
   "function_name" : "android::hardware::ProcessState::ProcessState",
   "linker_set_key" : "_ZN7android8hardware12ProcessStateC1Em",
   "parameters" :
   [
    {
     "is_this_ptr" : true,
     "referenced_type" : "type-374"
    },
    {
     "referenced_type" : "type-7"
    }
   ],
   "return_type" : "type-17",
   "source_file" : "/system/libhwbinder/include/hwbinder/ProcessState.h"
  },
  {
   "access" : "private",
   "function_name" : "android::hardware::ProcessState::ProcessState",
   "linker_set_key" : "_ZN7android8hardware12ProcessStateC2Em",
   "parameters" :
   [
    {
     "is_this_ptr" : true,
     "referenced_type" : "type-374"
    },
    {
     "referenced_type" : "type-7"
    }
   ],
   "return_type" : "type-17",
   "source_file" : "/system/libhwbinder/include/hwbinder/ProcessState.h"
  },
  {
   "access" : "private",
   "function_name" : "android::hardware::ProcessState::~ProcessState",
   "linker_set_key" : "_ZN7android8hardware12ProcessStateD0Ev",
   "parameters" :
   [
    {
     "is_this_ptr" : true,
     "referenced_type" : "type-374"
    }
   ],
   "return_type" : "type-17",
   "source_file" : "/system/libhwbinder/include/hwbinder/ProcessState.h"
  },
  {
   "access" : "private",
   "function_name" : "android::hardware::ProcessState::~ProcessState",
   "linker_set_key" : "_ZN7android8hardware12ProcessStateD1Ev",
   "parameters" :
   [
    {
     "is_this_ptr" : true,
     "referenced_type" : "type-374"
    }
   ],
   "return_type" : "type-17",
   "source_file" : "/system/libhwbinder/include/hwbinder/ProcessState.h"
  },
  {
   "access" : "private",
   "function_name" : "android::hardware::ProcessState::~ProcessState",
   "linker_set_key" : "_ZN7android8hardware12ProcessStateD2Ev",
   "parameters" :
   [
    {
     "is_this_ptr" : true,
     "referenced_type" : "type-374"
    }
   ],
   "return_type" : "type-17",
   "source_file" : "/system/libhwbinder/include/hwbinder/ProcessState.h"
  },
  {
   "access" : "private",
   "function_name" : "android::hardware::IPCThreadState::freeBuffer",
   "linker_set_key" : "_ZN7android8hardware14IPCThreadState10freeBufferEPNS0_6ParcelEPKhmPKymPv",
   "parameters" :
   [
    {
     "referenced_type" : "type-18"
    },
    {
     "referenced_type" : "type-19"
    },
    {
     "referenced_type" : "type-7"
    },
    {
     "referenced_type" : "type-21"
    },
    {
     "referenced_type" : "type-7"
    },
    {
     "referenced_type" : "type-23"
    }
   ],
   "return_type" : "type-17",
   "source_file" : "/system/libhwbinder/include/hwbinder/IPCThreadState.h"
  },
  {
   "function_name" : "android::hardware::IPCThreadState::selfOrNull",
   "linker_set_key" : "_ZN7android8hardware14IPCThreadState10selfOrNullEv",
   "return_type" : "type-708",
   "source_file" : "/system/libhwbinder/include/hwbinder/IPCThreadState.h"
  },
  {
   "access" : "private",
   "function_name" : "android::hardware::IPCThreadState::clearCaller",
   "linker_set_key" : "_ZN7android8hardware14IPCThreadState11clearCallerEv",
   "parameters" :
   [
    {
     "is_this_ptr" : true,
     "referenced_type" : "type-708"
    }
   ],
   "return_type" : "type-17",
   "source_file" : "/system/libhwbinder/include/hwbinder/IPCThreadState.h"
  },
  {
   "function_name" : "android::hardware::IPCThreadState::stopProcess",
   "linker_set_key" : "_ZN7android8hardware14IPCThreadState11stopProcessEb",
   "parameters" :
   [
    {
     "is_this_ptr" : true,
     "referenced_type" : "type-708"
    },
    {
     "default_arg" : true,
     "referenced_type" : "type-14"
    }
   ],
   "return_type" : "type-17",
   "source_file" : "/system/libhwbinder/include/hwbinder/IPCThreadState.h"
  },
  {
   "function_name" : "android::hardware::IPCThreadState::setupPolling",
   "linker_set_key" : "_ZN7android8hardware14IPCThreadState12setupPollingEPi",
   "parameters" :
   [
    {
     "is_this_ptr" : true,
     "referenced_type" : "type-708"
    },
    {
     "referenced_type" : "type-712"
    }
   ],
   "return_type" : "type-9",
   "source_file" : "/system/libhwbinder/include/hwbinder/IPCThreadState.h"
  },
  {
   "function_name" : "android::hardware::IPCThreadState::decWeakHandle",
   "linker_set_key" : "_ZN7android8hardware14IPCThreadState13decWeakHandleEi",
   "parameters" :
   [
    {
     "is_this_ptr" : true,
     "referenced_type" : "type-708"
    },
    {
     "referenced_type" : "type-9"
    }
   ],
   "return_type" : "type-17",
   "source_file" : "/system/libhwbinder/include/hwbinder/IPCThreadState.h"
  },
  {
   "function_name" : "android::hardware::IPCThreadState::expungeHandle",
   "linker_set_key" : "_ZN7android8hardware14IPCThreadState13expungeHandleEiPNS0_7IBinderE",
   "parameters" :
   [
    {
     "referenced_type" : "type-9"
    },
    {
     "referenced_type" : "type-53"
    }
   ],
   "return_type" : "type-17",
   "source_file" : "/system/libhwbinder/include/hwbinder/IPCThreadState.h"
  },
  {
   "function_name" : "android::hardware::IPCThreadState::flushCommands",
   "linker_set_key" : "_ZN7android8hardware14IPCThreadState13flushCommandsEv",
   "parameters" :
   [
    {
     "is_this_ptr" : true,
     "referenced_type" : "type-708"
    }
   ],
   "return_type" : "type-17",
   "source_file" : "/system/libhwbinder/include/hwbinder/IPCThreadState.h"
  },
  {
   "function_name" : "android::hardware::IPCThreadState::incWeakHandle",
   "linker_set_key" : "_ZN7android8hardware14IPCThreadState13incWeakHandleEiPNS0_10BpHwBinderE",
   "parameters" :
   [
    {
     "is_this_ptr" : true,
     "referenced_type" : "type-708"
    },
    {
     "referenced_type" : "type-9"
    },
    {
     "referenced_type" : "type-657"
    }
   ],
   "return_type" : "type-17",
   "source_file" : "/system/libhwbinder/include/hwbinder/IPCThreadState.h"
  },
  {
   "function_name" : "android::hardware::IPCThreadState::clearLastError",
   "linker_set_key" : "_ZN7android8hardware14IPCThreadState14clearLastErrorEv",
   "parameters" :
   [
    {
     "is_this_ptr" : true,
     "referenced_type" : "type-708"
    }
   ],
   "return_type" : "type-9",
   "source_file" : "/system/libhwbinder/include/hwbinder/IPCThreadState.h"
  },
  {
   "access" : "private",
   "function_name" : "android::hardware::IPCThreadState::executeCommand",
   "linker_set_key" : "_ZN7android8hardware14IPCThreadState14executeCommandEi",
   "parameters" :
   [
    {
     "is_this_ptr" : true,
     "referenced_type" : "type-708"
    },
    {
     "referenced_type" : "type-9"
    }
   ],
   "return_type" : "type-9",
   "source_file" : "/system/libhwbinder/include/hwbinder/IPCThreadState.h"
  },
  {
   "function_name" : "android::hardware::IPCThreadState::isLooperThread",
   "linker_set_key" : "_ZN7android8hardware14IPCThreadState14isLooperThreadEv",
   "parameters" :
   [
    {
     "is_this_ptr" : true,
     "referenced_type" : "type-708"
    }
   ],
   "return_type" : "type-14",
   "source_file" : "/system/libhwbinder/include/hwbinder/IPCThreadState.h"
  },
  {
   "function_name" : "android::hardware::IPCThreadState::joinThreadPool",
   "linker_set_key" : "_ZN7android8hardware14IPCThreadState14joinThreadPoolEb",
   "parameters" :
   [
    {
     "is_this_ptr" : true,
     "referenced_type" : "type-708"
    },
    {
     "default_arg" : true,
     "referenced_type" : "type-14"
    }
   ],
   "return_type" : "type-17",
   "source_file" : "/system/libhwbinder/include/hwbinder/IPCThreadState.h"
  },
  {
   "access" : "private",
   "function_name" : "android::hardware::IPCThreadState::talkWithDriver",
   "linker_set_key" : "_ZN7android8hardware14IPCThreadState14talkWithDriverEb",
   "parameters" :
   [
    {
     "is_this_ptr" : true,
     "referenced_type" : "type-708"
    },
    {
     "default_arg" : true,
     "referenced_type" : "type-14"
    }
   ],
   "return_type" : "type-9",
   "source_file" : "/system/libhwbinder/include/hwbinder/IPCThreadState.h"
  },
  {
   "function_name" : "android::hardware::IPCThreadState::decStrongHandle",
   "linker_set_key" : "_ZN7android8hardware14IPCThreadState15decStrongHandleEi",
   "parameters" :
   [
    {
     "is_this_ptr" : true,
     "referenced_type" : "type-708"
    },
    {
     "referenced_type" : "type-9"
    }
   ],
   "return_type" : "type-17",
   "source_file" : "/system/libhwbinder/include/hwbinder/IPCThreadState.h"
  },
  {
   "function_name" : "android::hardware::IPCThreadState::incStrongHandle",
   "linker_set_key" : "_ZN7android8hardware14IPCThreadState15incStrongHandleEiPNS0_10BpHwBinderE",
   "parameters" :
   [
    {
     "is_this_ptr" : true,
     "referenced_type" : "type-708"
    },
    {
     "referenced_type" : "type-9"
    },
    {
     "referenced_type" : "type-657"
    }
   ],
   "return_type" : "type-17",
   "source_file" : "/system/libhwbinder/include/hwbinder/IPCThreadState.h"
  },
  {
   "access" : "private",
   "function_name" : "android::hardware::IPCThreadState::waitForResponse",
   "linker_set_key" : "_ZN7android8hardware14IPCThreadState15waitForResponseEPNS0_6ParcelEPi",
   "parameters" :
   [
    {
     "is_this_ptr" : true,
     "referenced_type" : "type-708"
    },
    {
     "referenced_type" : "type-18"
    },
    {
     "default_arg" : true,
     "referenced_type" : "type-712"
    }
   ],
   "return_type" : "type-9",
   "source_file" : "/system/libhwbinder/include/hwbinder/IPCThreadState.h"
  },
  {
   "access" : "private",
   "function_name" : "android::hardware::IPCThreadState::threadDestructor",
   "linker_set_key" : "_ZN7android8hardware14IPCThreadState16threadDestructorEPv",
   "parameters" :
   [
    {
     "referenced_type" : "type-23"
    }
   ],
   "return_type" : "type-17",
   "source_file" : "/system/libhwbinder/include/hwbinder/IPCThreadState.h"
  },
  {
   "function_name" : "android::hardware::IPCThreadState::addPostCommandTask",
   "linker_set_key" : "_ZN7android8hardware14IPCThreadState18addPostCommandTaskERKNSt3__18functionIFvvEEE",
   "parameters" :
   [
    {
     "is_this_ptr" : true,
     "referenced_type" : "type-708"
    },
    {
     "referenced_type" : "type-715"
    }
   ],
   "return_type" : "type-17",
   "source_file" : "/system/libhwbinder/include/hwbinder/IPCThreadState.h"
  },
  {
   "function_name" : "android::hardware::IPCThreadState::isOnlyBinderThread",
   "linker_set_key" : "_ZN7android8hardware14IPCThreadState18isOnlyBinderThreadEv",
   "parameters" :
   [
    {
     "is_this_ptr" : true,
     "referenced_type" : "type-708"
    }
   ],
   "return_type" : "type-14",
   "source_file" : "/system/libhwbinder/include/hwbinder/IPCThreadState.h"
  },
  {
   "function_name" : "android::hardware::IPCThreadState::setStrictModePolicy",
   "linker_set_key" : "_ZN7android8hardware14IPCThreadState19setStrictModePolicyEi",
   "parameters" :
   [
    {
     "is_this_ptr" : true,
     "referenced_type" : "type-708"
    },
    {
     "referenced_type" : "type-9"
    }
   ],
   "return_type" : "type-17",
   "source_file" : "/system/libhwbinder/include/hwbinder/IPCThreadState.h"
  },
  {
   "function_name" : "android::hardware::IPCThreadState::setTheContextObject",
   "linker_set_key" : "_ZN7android8hardware14IPCThreadState19setTheContextObjectENS_2spINS0_9BHwBinderEEE",
   "parameters" :
   [
    {
     "is_this_ptr" : true,
     "referenced_type" : "type-708"
    },
    {
     "referenced_type" : "type-545"
    }
   ],
   "return_type" : "type-17",
   "source_file" : "/system/libhwbinder/include/hwbinder/IPCThreadState.h"
  },
  {
   "function_name" : "android::hardware::IPCThreadState::clearCallingIdentity",
   "linker_set_key" : "_ZN7android8hardware14IPCThreadState20clearCallingIdentityEv",
   "parameters" :
   [
    {
     "is_this_ptr" : true,
     "referenced_type" : "type-708"
    }
   ],
   "return_type" : "type-100",
   "source_file" : "/system/libhwbinder/include/hwbinder/IPCThreadState.h"
  },
  {
   "access" : "private",
   "function_name" : "android::hardware::IPCThreadState::getAndExecuteCommand",
   "linker_set_key" : "_ZN7android8hardware14IPCThreadState20getAndExecuteCommandEv",
   "parameters" :
   [
    {
     "is_this_ptr" : true,
     "referenced_type" : "type-708"
    }
   ],
   "return_type" : "type-9",
   "source_file" : "/system/libhwbinder/include/hwbinder/IPCThreadState.h"
  },
  {
   "function_name" : "android::hardware::IPCThreadState::handlePolledCommands",
   "linker_set_key" : "_ZN7android8hardware14IPCThreadState20handlePolledCommandsEv",
   "parameters" :
   [
    {
     "is_this_ptr" : true,
     "referenced_type" : "type-708"
    }
   ],
   "return_type" : "type-9",
   "source_file" : "/system/libhwbinder/include/hwbinder/IPCThreadState.h"
  },
  {
   "access" : "private",
   "function_name" : "android::hardware::IPCThreadState::processPendingDerefs",
   "linker_set_key" : "_ZN7android8hardware14IPCThreadState20processPendingDerefsEv",
   "parameters" :
   [
    {
     "is_this_ptr" : true,
     "referenced_type" : "type-708"
    }
   ],
   "return_type" : "type-17",
   "source_file" : "/system/libhwbinder/include/hwbinder/IPCThreadState.h"
  },
  {
   "access" : "private",
   "function_name" : "android::hardware::IPCThreadState::writeTransactionData",
   "linker_set_key" : "_ZN7android8hardware14IPCThreadState20writeTransactionDataEijijRKNS0_6ParcelEPi",
   "parameters" :
   [
    {
     "is_this_ptr" : true,
     "referenced_type" : "type-708"
    },
    {
     "referenced_type" : "type-9"
    },
    {
     "referenced_type" : "type-4"
    },
    {
     "referenced_type" : "type-9"
    },
    {
     "referenced_type" : "type-4"
    },
    {
     "referenced_type" : "type-45"
    },
    {
     "referenced_type" : "type-712"
    }
   ],
   "return_type" : "type-9",
   "source_file" : "/system/libhwbinder/include/hwbinder/IPCThreadState.h"
  },
  {
   "function_name" : "android::hardware::IPCThreadState::attemptIncStrongHandle",
   "linker_set_key" : "_ZN7android8hardware14IPCThreadState22attemptIncStrongHandleEi",
   "parameters" :
   [
    {
     "is_this_ptr" : true,
     "referenced_type" : "type-708"
    },
    {
     "referenced_type" : "type-9"
    }
   ],
   "return_type" : "type-9",
   "source_file" : "/system/libhwbinder/include/hwbinder/IPCThreadState.h"
  },
  {
   "function_name" : "android::hardware::IPCThreadState::clearDeathNotification",
   "linker_set_key" : "_ZN7android8hardware14IPCThreadState22clearDeathNotificationEiPNS0_10BpHwBinderE",
   "parameters" :
   [
    {
     "is_this_ptr" : true,
     "referenced_type" : "type-708"
    },
    {
     "referenced_type" : "type-9"
    },
    {
     "referenced_type" : "type-657"
    }
   ],
   "return_type" : "type-9",
   "source_file" : "/system/libhwbinder/include/hwbinder/IPCThreadState.h"
  },
  {
   "access" : "private",
   "function_name" : "android::hardware::IPCThreadState::processPostWriteDerefs",
   "linker_set_key" : "_ZN7android8hardware14IPCThreadState22processPostWriteDerefsEv",
   "parameters" :
   [
    {
     "is_this_ptr" : true,
     "referenced_type" : "type-708"
    }
   ],
   "return_type" : "type-17",
   "source_file" : "/system/libhwbinder/include/hwbinder/IPCThreadState.h"
  },
  {
   "function_name" : "android::hardware::IPCThreadState::restoreCallingIdentity",
   "linker_set_key" : "_ZN7android8hardware14IPCThreadState22restoreCallingIdentityEl",
   "parameters" :
   [
    {
     "is_this_ptr" : true,
     "referenced_type" : "type-708"
    },
    {
     "referenced_type" : "type-100"
    }
   ],
   "return_type" : "type-17",
   "source_file" : "/system/libhwbinder/include/hwbinder/IPCThreadState.h"
  },
  {
   "function_name" : "android::hardware::IPCThreadState::requestDeathNotification",
   "linker_set_key" : "_ZN7android8hardware14IPCThreadState24requestDeathNotificationEiPNS0_10BpHwBinderE",
   "parameters" :
   [
    {
     "is_this_ptr" : true,
     "referenced_type" : "type-708"
    },
    {
     "referenced_type" : "type-9"
    },
    {
     "referenced_type" : "type-657"
    }
   ],
   "return_type" : "type-9",
   "source_file" : "/system/libhwbinder/include/hwbinder/IPCThreadState.h"
  },
  {
   "function_name" : "android::hardware::IPCThreadState::blockUntilThreadAvailable",
   "linker_set_key" : "_ZN7android8hardware14IPCThreadState25blockUntilThreadAvailableEv",
   "parameters" :
   [
    {
     "is_this_ptr" : true,
     "referenced_type" : "type-708"
    }
   ],
   "return_type" : "type-17",
   "source_file" : "/system/libhwbinder/include/hwbinder/IPCThreadState.h"
  },
  {
   "access" : "private",
   "function_name" : "android::hardware::IPCThreadState::disableBackgroundScheduling",
   "linker_set_key" : "_ZN7android8hardware14IPCThreadState27disableBackgroundSchedulingEb",
   "parameters" :
   [
    {
     "referenced_type" : "type-14"
    }
   ],
   "return_type" : "type-17",
   "source_file" : "/system/libhwbinder/include/hwbinder/IPCThreadState.h"
  },
  {
   "function_name" : "android::hardware::IPCThreadState::setLastTransactionBinderFlags",
   "linker_set_key" : "_ZN7android8hardware14IPCThreadState29setLastTransactionBinderFlagsEi",
   "parameters" :
   [
    {
     "is_this_ptr" : true,
     "referenced_type" : "type-708"
    },
    {
     "referenced_type" : "type-9"
    }
   ],
   "return_type" : "type-17",
   "source_file" : "/system/libhwbinder/include/hwbinder/IPCThreadState.h"
  },
  {
   "function_name" : "android::hardware::IPCThreadState::self",
   "linker_set_key" : "_ZN7android8hardware14IPCThreadState4selfEv",
   "return_type" : "type-708",
   "source_file" : "/system/libhwbinder/include/hwbinder/IPCThreadState.h"
  },
  {
   "function_name" : "android::hardware::IPCThreadState::process",
   "linker_set_key" : "_ZN7android8hardware14IPCThreadState7processEv",
   "parameters" :
   [
    {
     "is_this_ptr" : true,
     "referenced_type" : "type-708"
    }
   ],
   "return_type" : "type-373",
   "source_file" : "/system/libhwbinder/include/hwbinder/IPCThreadState.h"
  },
  {
   "function_name" : "android::hardware::IPCThreadState::shutdown",
   "linker_set_key" : "_ZN7android8hardware14IPCThreadState8shutdownEv",
   "return_type" : "type-17",
   "source_file" : "/system/libhwbinder/include/hwbinder/IPCThreadState.h"
  },
  {
   "function_name" : "android::hardware::IPCThreadState::transact",
   "linker_set_key" : "_ZN7android8hardware14IPCThreadState8transactEijRKNS0_6ParcelEPS2_j",
   "parameters" :
   [
    {
     "is_this_ptr" : true,
     "referenced_type" : "type-708"
    },
    {
     "referenced_type" : "type-9"
    },
    {
     "referenced_type" : "type-4"
    },
    {
     "referenced_type" : "type-45"
    },
    {
     "referenced_type" : "type-18"
    },
    {
     "referenced_type" : "type-4"
    }
   ],
   "return_type" : "type-9",
   "source_file" : "/system/libhwbinder/include/hwbinder/IPCThreadState.h"
  },
  {
   "access" : "private",
   "function_name" : "android::hardware::IPCThreadState::sendReply",
   "linker_set_key" : "_ZN7android8hardware14IPCThreadState9sendReplyERKNS0_6ParcelEj",
   "parameters" :
   [
    {
     "is_this_ptr" : true,
     "referenced_type" : "type-708"
    },
    {
     "referenced_type" : "type-45"
    },
    {
     "referenced_type" : "type-4"
    }
   ],
   "return_type" : "type-9",
   "source_file" : "/system/libhwbinder/include/hwbinder/IPCThreadState.h"
  },
  {
   "access" : "private",
   "function_name" : "android::hardware::IPCThreadState::IPCThreadState",
   "linker_set_key" : "_ZN7android8hardware14IPCThreadStateC1Ev",
   "parameters" :
   [
    {
     "is_this_ptr" : true,
     "referenced_type" : "type-708"
    }
   ],
   "return_type" : "type-17",
   "source_file" : "/system/libhwbinder/include/hwbinder/IPCThreadState.h"
  },
  {
   "access" : "private",
   "function_name" : "android::hardware::IPCThreadState::IPCThreadState",
   "linker_set_key" : "_ZN7android8hardware14IPCThreadStateC2Ev",
   "parameters" :
   [
    {
     "is_this_ptr" : true,
     "referenced_type" : "type-708"
    }
   ],
   "return_type" : "type-17",
   "source_file" : "/system/libhwbinder/include/hwbinder/IPCThreadState.h"
  },
  {
   "access" : "private",
   "function_name" : "android::hardware::IPCThreadState::~IPCThreadState",
   "linker_set_key" : "_ZN7android8hardware14IPCThreadStateD1Ev",
   "parameters" :
   [
    {
     "is_this_ptr" : true,
     "referenced_type" : "type-708"
    }
   ],
   "return_type" : "type-17",
   "source_file" : "/system/libhwbinder/include/hwbinder/IPCThreadState.h"
  },
  {
   "access" : "private",
   "function_name" : "android::hardware::IPCThreadState::~IPCThreadState",
   "linker_set_key" : "_ZN7android8hardware14IPCThreadStateD2Ev",
   "parameters" :
   [
    {
     "is_this_ptr" : true,
     "referenced_type" : "type-708"
    }
   ],
   "return_type" : "type-17",
   "source_file" : "/system/libhwbinder/include/hwbinder/IPCThreadState.h"
  },
  {
   "function_name" : "android::hardware::release_object",
   "linker_set_key" : "_ZN7android8hardware14release_objectERKNS_2spINS0_12ProcessStateEEERK18flat_binder_objectPKv",
   "parameters" :
   [
    {
     "referenced_type" : "type-687"
    },
    {
     "referenced_type" : "type-87"
    },
    {
     "referenced_type" : "type-110"
    }
   ],
   "return_type" : "type-17",
   "source_file" : "/system/libhwbinder/include/hwbinder/Parcel.h"
  },
  {
   "function_name" : "android::hardware::BufferedTextOutput::moveIndent",
   "linker_set_key" : "_ZN7android8hardware18BufferedTextOutput10moveIndentEi",
   "parameters" :
   [
    {
     "is_this_ptr" : true,
     "referenced_type" : "type-614"
    },
    {
     "referenced_type" : "type-9"
    }
   ],
   "return_type" : "type-17",
   "source_file" : "/system/libhwbinder/include/hwbinder/BufferedTextOutput.h"
  },
  {
   "function_name" : "android::hardware::BufferedTextOutput::pushBundle",
   "linker_set_key" : "_ZN7android8hardware18BufferedTextOutput10pushBundleEv",
   "parameters" :
   [
    {
     "is_this_ptr" : true,
     "referenced_type" : "type-614"
    }
   ],
   "return_type" : "type-17",
   "source_file" : "/system/libhwbinder/include/hwbinder/BufferedTextOutput.h"
  },
  {
   "access" : "private",
   "function_name" : "android::hardware::BufferedTextOutput::getThreadState",
   "linker_set_key" : "_ZN7android8hardware18BufferedTextOutput14getThreadStateEv",
   "return_type" : "type-616",
   "source_file" : "/system/libhwbinder/include/hwbinder/BufferedTextOutput.h"
  },
  {
   "access" : "private",
   "function_name" : "android::hardware::BufferedTextOutput::threadDestructor",
   "linker_set_key" : "_ZN7android8hardware18BufferedTextOutput16threadDestructorEPv",
   "parameters" :
   [
    {
     "referenced_type" : "type-23"
    }
   ],
   "return_type" : "type-17",
   "source_file" : "/system/libhwbinder/include/hwbinder/BufferedTextOutput.h"
  },
  {
   "function_name" : "android::hardware::BufferedTextOutput::print",
   "linker_set_key" : "_ZN7android8hardware18BufferedTextOutput5printEPKcm",
   "parameters" :
   [
    {
     "is_this_ptr" : true,
     "referenced_type" : "type-614"
    },
    {
     "referenced_type" : "type-383"
    },
    {
     "referenced_type" : "type-7"
    }
   ],
   "return_type" : "type-9",
   "source_file" : "/system/libhwbinder/include/hwbinder/BufferedTextOutput.h"
  },
  {
   "function_name" : "android::hardware::BufferedTextOutput::popBundle",
   "linker_set_key" : "_ZN7android8hardware18BufferedTextOutput9popBundleEv",
   "parameters" :
   [
    {
     "is_this_ptr" : true,
     "referenced_type" : "type-614"
    }
   ],
   "return_type" : "type-17",
   "source_file" : "/system/libhwbinder/include/hwbinder/BufferedTextOutput.h"
  },
  {
   "function_name" : "android::hardware::BufferedTextOutput::BufferedTextOutput",
   "linker_set_key" : "_ZN7android8hardware18BufferedTextOutputC2Ej",
   "parameters" :
   [
    {
     "is_this_ptr" : true,
     "referenced_type" : "type-614"
    },
    {
     "default_arg" : true,
     "referenced_type" : "type-4"
    }
   ],
   "return_type" : "type-17",
   "source_file" : "/system/libhwbinder/include/hwbinder/BufferedTextOutput.h"
  },
  {
   "function_name" : "android::hardware::BufferedTextOutput::~BufferedTextOutput",
   "linker_set_key" : "_ZN7android8hardware18BufferedTextOutputD0Ev",
   "parameters" :
   [
    {
     "is_this_ptr" : true,
     "referenced_type" : "type-614"
    }
   ],
   "return_type" : "type-17",
   "source_file" : "/system/libhwbinder/include/hwbinder/BufferedTextOutput.h"
  },
  {
   "function_name" : "android::hardware::BufferedTextOutput::~BufferedTextOutput",
   "linker_set_key" : "_ZN7android8hardware18BufferedTextOutputD1Ev",
   "parameters" :
   [
    {
     "is_this_ptr" : true,
     "referenced_type" : "type-614"
    }
   ],
   "return_type" : "type-17",
   "source_file" : "/system/libhwbinder/include/hwbinder/BufferedTextOutput.h"
  },
  {
   "function_name" : "android::hardware::BufferedTextOutput::~BufferedTextOutput",
   "linker_set_key" : "_ZN7android8hardware18BufferedTextOutputD2Ev",
   "parameters" :
   [
    {
     "is_this_ptr" : true,
     "referenced_type" : "type-614"
    }
   ],
   "return_type" : "type-17",
   "source_file" : "/system/libhwbinder/include/hwbinder/BufferedTextOutput.h"
  },
  {
   "function_name" : "android::hardware::Parcel::writeFloat",
   "linker_set_key" : "_ZN7android8hardware6Parcel10writeFloatEf",
   "parameters" :
   [
    {
     "is_this_ptr" : true,
     "referenced_type" : "type-18"
    },
    {
     "referenced_type" : "type-102"
    }
   ],
   "return_type" : "type-9",
   "source_file" : "/system/libhwbinder/include/hwbinder/Parcel.h"
  },
  {
   "function_name" : "android::hardware::Parcel::writeInt16",
   "linker_set_key" : "_ZN7android8hardware6Parcel10writeInt16Es",
   "parameters" :
   [
    {
     "is_this_ptr" : true,
     "referenced_type" : "type-18"
    },
    {
     "referenced_type" : "type-95"
    }
   ],
   "return_type" : "type-9",
   "source_file" : "/system/libhwbinder/include/hwbinder/Parcel.h"
  },
  {
   "function_name" : "android::hardware::Parcel::writeInt32",
   "linker_set_key" : "_ZN7android8hardware6Parcel10writeInt32Ei",
   "parameters" :
   [
    {
     "is_this_ptr" : true,
     "referenced_type" : "type-18"
    },
    {
     "referenced_type" : "type-9"
    }
   ],
   "return_type" : "type-9",
   "source_file" : "/system/libhwbinder/include/hwbinder/Parcel.h"
  },
  {
   "function_name" : "android::hardware::Parcel::writeInt64",
   "linker_set_key" : "_ZN7android8hardware6Parcel10writeInt64El",
   "parameters" :
   [
    {
     "is_this_ptr" : true,
     "referenced_type" : "type-18"
    },
    {
     "referenced_type" : "type-100"
    }
   ],
   "return_type" : "type-9",
   "source_file" : "/system/libhwbinder/include/hwbinder/Parcel.h"
  },
  {
   "function_name" : "android::hardware::Parcel::writeUint8",
   "linker_set_key" : "_ZN7android8hardware6Parcel10writeUint8Eh",
   "parameters" :
   [
    {
     "is_this_ptr" : true,
     "referenced_type" : "type-18"
    },
    {
     "referenced_type" : "type-11"
    }
   ],
   "return_type" : "type-9",
   "source_file" : "/system/libhwbinder/include/hwbinder/Parcel.h"
  },
  {
   "access" : "private",
   "function_name" : "android::hardware::Parcel::finishWrite",
   "linker_set_key" : "_ZN7android8hardware6Parcel11finishWriteEm",
   "parameters" :
   [
    {
     "is_this_ptr" : true,
     "referenced_type" : "type-18"
    },
    {
     "referenced_type" : "type-7"
    }
   ],
   "return_type" : "type-9",
   "source_file" : "/system/libhwbinder/include/hwbinder/Parcel.h"
  },
  {
   "function_name" : "android::hardware::Parcel::setDataSize",
   "linker_set_key" : "_ZN7android8hardware6Parcel11setDataSizeEm",
   "parameters" :
   [
    {
     "is_this_ptr" : true,
     "referenced_type" : "type-18"
    },
    {
     "referenced_type" : "type-7"
    }
   ],
   "return_type" : "type-9",
   "source_file" : "/system/libhwbinder/include/hwbinder/Parcel.h"
  },
  {
   "function_name" : "android::hardware::Parcel::writeBuffer",
   "linker_set_key" : "_ZN7android8hardware6Parcel11writeBufferEPKvmPm",
   "parameters" :
   [
    {
     "is_this_ptr" : true,
     "referenced_type" : "type-18"
    },
    {
     "referenced_type" : "type-110"
    },
    {
     "referenced_type" : "type-7"
    },
    {
     "referenced_type" : "type-651"
    }
   ],
   "return_type" : "type-9",
   "source_file" : "/system/libhwbinder/include/hwbinder/Parcel.h"
  },
  {
   "function_name" : "android::hardware::Parcel::writeDouble",
   "linker_set_key" : "_ZN7android8hardware6Parcel11writeDoubleEd",
   "parameters" :
   [
    {
     "is_this_ptr" : true,
     "referenced_type" : "type-18"
    },
    {
     "referenced_type" : "type-104"
    }
   ],
   "return_type" : "type-9",
   "source_file" : "/system/libhwbinder/include/hwbinder/Parcel.h"
  },
  {
   "function_name" : "android::hardware::Parcel::writeObject",
   "linker_set_key" : "_ZN7android8hardware6Parcel11writeObjectI18flat_binder_objectEEiRKT_",
   "parameters" :
   [
    {
     "is_this_ptr" : true,
     "referenced_type" : "type-18"
    },
    {
     "referenced_type" : "type-87"
    }
   ],
   "return_type" : "type-9",
   "source_file" : "/system/libhwbinder/include/hwbinder/Parcel.h",
   "template_args" : [ "type-822" ]
  },
  {
   "function_name" : "android::hardware::Parcel::writeUint16",
   "linker_set_key" : "_ZN7android8hardware6Parcel11writeUint16Et",
   "parameters" :
   [
    {
     "is_this_ptr" : true,
     "referenced_type" : "type-18"
    },
    {
     "referenced_type" : "type-97"
    }
   ],
   "return_type" : "type-9",
   "source_file" : "/system/libhwbinder/include/hwbinder/Parcel.h"
  },
  {
   "function_name" : "android::hardware::Parcel::writeUint32",
   "linker_set_key" : "_ZN7android8hardware6Parcel11writeUint32Ej",
   "parameters" :
   [
    {
     "is_this_ptr" : true,
     "referenced_type" : "type-18"
    },
    {
     "referenced_type" : "type-4"
    }
   ],
   "return_type" : "type-9",
   "source_file" : "/system/libhwbinder/include/hwbinder/Parcel.h"
  },
  {
   "function_name" : "android::hardware::Parcel::writeUint64",
   "linker_set_key" : "_ZN7android8hardware6Parcel11writeUint64Em",
   "parameters" :
   [
    {
     "is_this_ptr" : true,
     "referenced_type" : "type-18"
    },
    {
     "referenced_type" : "type-7"
    }
   ],
   "return_type" : "type-9",
   "source_file" : "/system/libhwbinder/include/hwbinder/Parcel.h"
  },
  {
   "access" : "private",
   "function_name" : "android::hardware::Parcel::restartWrite",
   "linker_set_key" : "_ZN7android8hardware6Parcel12restartWriteEm",
   "parameters" :
   [
    {
     "is_this_ptr" : true,
     "referenced_type" : "type-18"
    },
    {
     "referenced_type" : "type-7"
    }
   ],
   "return_type" : "type-9",
   "source_file" : "/system/libhwbinder/include/hwbinder/Parcel.h"
  },
  {
   "access" : "private",
   "function_name" : "android::hardware::Parcel::writeAligned",
   "linker_set_key" : "_ZN7android8hardware6Parcel12writeAlignedIdEEiT_",
   "parameters" :
   [
    {
     "is_this_ptr" : true,
     "referenced_type" : "type-18"
    },
    {
     "referenced_type" : "type-104"
    }
   ],
   "return_type" : "type-9",
   "source_file" : "/system/libhwbinder/include/hwbinder/Parcel.h",
   "template_args" : [ "type-104" ]
  },
  {
   "access" : "private",
   "function_name" : "android::hardware::Parcel::writeAligned",
   "linker_set_key" : "_ZN7android8hardware6Parcel12writeAlignedIfEEiT_",
   "parameters" :
   [
    {
     "is_this_ptr" : true,
     "referenced_type" : "type-18"
    },
    {
     "referenced_type" : "type-102"
    }
   ],
   "return_type" : "type-9",
   "source_file" : "/system/libhwbinder/include/hwbinder/Parcel.h",
   "template_args" : [ "type-102" ]
  },
  {
   "access" : "private",
   "function_name" : "android::hardware::Parcel::writeAligned",
   "linker_set_key" : "_ZN7android8hardware6Parcel12writeAlignedIiEEiT_",
   "parameters" :
   [
    {
     "is_this_ptr" : true,
     "referenced_type" : "type-18"
    },
    {
     "referenced_type" : "type-9"
    }
   ],
   "return_type" : "type-9",
   "source_file" : "/system/libhwbinder/include/hwbinder/Parcel.h",
   "template_args" : [ "type-9" ]
  },
  {
   "access" : "private",
   "function_name" : "android::hardware::Parcel::writeAligned",
   "linker_set_key" : "_ZN7android8hardware6Parcel12writeAlignedIjEEiT_",
   "parameters" :
   [
    {
     "is_this_ptr" : true,
     "referenced_type" : "type-18"
    },
    {
     "referenced_type" : "type-4"
    }
   ],
   "return_type" : "type-9",
   "source_file" : "/system/libhwbinder/include/hwbinder/Parcel.h",
   "template_args" : [ "type-4" ]
  },
  {
   "access" : "private",
   "function_name" : "android::hardware::Parcel::writeAligned",
   "linker_set_key" : "_ZN7android8hardware6Parcel12writeAlignedIlEEiT_",
   "parameters" :
   [
    {
     "is_this_ptr" : true,
     "referenced_type" : "type-18"
    },
    {
     "referenced_type" : "type-100"
    }
   ],
   "return_type" : "type-9",
   "source_file" : "/system/libhwbinder/include/hwbinder/Parcel.h",
   "template_args" : [ "type-100" ]
  },
  {
   "access" : "private",
   "function_name" : "android::hardware::Parcel::writeAligned",
   "linker_set_key" : "_ZN7android8hardware6Parcel12writeAlignedImEEiT_",
   "parameters" :
   [
    {
     "is_this_ptr" : true,
     "referenced_type" : "type-18"
    },
    {
     "referenced_type" : "type-7"
    }
   ],
   "return_type" : "type-9",
   "source_file" : "/system/libhwbinder/include/hwbinder/Parcel.h",
   "template_args" : [ "type-7" ]
  },
  {
   "access" : "private",
   "function_name" : "android::hardware::Parcel::writeAligned",
   "linker_set_key" : "_ZN7android8hardware6Parcel12writeAlignedIyEEiT_",
   "parameters" :
   [
    {
     "is_this_ptr" : true,
     "referenced_type" : "type-18"
    },
    {
     "referenced_type" : "type-13"
    }
   ],
   "return_type" : "type-9",
   "source_file" : "/system/libhwbinder/include/hwbinder/Parcel.h",
   "template_args" : [ "type-13" ]
  },
  {
   "function_name" : "android::hardware::Parcel::writeCString",
   "linker_set_key" : "_ZN7android8hardware6Parcel12writeCStringEPKc",
   "parameters" :
   [
    {
     "is_this_ptr" : true,
     "referenced_type" : "type-18"
    },
    {
     "referenced_type" : "type-383"
    }
   ],
   "return_type" : "type-9",
   "source_file" : "/system/libhwbinder/include/hwbinder/Parcel.h"
  },
  {
   "function_name" : "android::hardware::Parcel::writeInplace",
   "linker_set_key" : "_ZN7android8hardware6Parcel12writeInplaceEm",
   "parameters" :
   [
    {
     "is_this_ptr" : true,
     "referenced_type" : "type-18"
    },
    {
     "referenced_type" : "type-7"
    }
   ],
   "return_type" : "type-23",
   "source_file" : "/system/libhwbinder/include/hwbinder/Parcel.h"
  },
  {
   "access" : "private",
   "function_name" : "android::hardware::Parcel::writePointer",
   "linker_set_key" : "_ZN7android8hardware6Parcel12writePointerEm",
   "parameters" :
   [
    {
     "is_this_ptr" : true,
     "referenced_type" : "type-18"
    },
    {
     "referenced_type" : "type-7"
    }
   ],
   "return_type" : "type-9",
   "source_file" : "/system/libhwbinder/include/hwbinder/Parcel.h"
  },
  {
   "access" : "private",
   "function_name" : "android::hardware::Parcel::continueWrite",
   "linker_set_key" : "_ZN7android8hardware6Parcel13continueWriteEm",
   "parameters" :
   [
    {
     "is_this_ptr" : true,
     "referenced_type" : "type-18"
    },
    {
     "referenced_type" : "type-7"
    }
   ],
   "return_type" : "type-9",
   "source_file" : "/system/libhwbinder/include/hwbinder/Parcel.h"
  },
  {
   "function_name" : "android::hardware::Parcel::writeString16",
   "linker_set_key" : "_ZN7android8hardware6Parcel13writeString16EPKDsm",
   "parameters" :
   [
    {
     "is_this_ptr" : true,
     "referenced_type" : "type-18"
    },
    {
     "referenced_type" : "type-290"
    },
    {
     "referenced_type" : "type-7"
    }
   ],
   "return_type" : "type-9",
   "source_file" : "/system/libhwbinder/include/hwbinder/Parcel.h"
  },
  {
   "function_name" : "android::hardware::Parcel::writeString16",
   "linker_set_key" : "_ZN7android8hardware6Parcel13writeString16ERKNS_8String16E",
   "parameters" :
   [
    {
     "is_this_ptr" : true,
     "referenced_type" : "type-18"
    },
    {
     "referenced_type" : "type-380"
    }
   ],
   "return_type" : "type-9",
   "source_file" : "/system/libhwbinder/include/hwbinder/Parcel.h"
  },
  {
   "function_name" : "android::hardware::Parcel::writeString16",
   "linker_set_key" : "_ZN7android8hardware6Parcel13writeString16ERKNSt3__110unique_ptrINS_8String16ENS2_14default_deleteIS4_EEEE",
   "parameters" :
   [
    {
     "is_this_ptr" : true,
     "referenced_type" : "type-18"
    },
    {
     "referenced_type" : "type-80"
    }
   ],
   "return_type" : "type-9",
   "source_file" : "/system/libhwbinder/include/hwbinder/Parcel.h"
  },
  {
   "function_name" : "android::hardware::Parcel::writeUnpadded",
   "linker_set_key" : "_ZN7android8hardware6Parcel13writeUnpaddedEPKvm",
   "parameters" :
   [
    {
     "is_this_ptr" : true,
     "referenced_type" : "type-18"
    },
    {
     "referenced_type" : "type-110"
    },
    {
     "referenced_type" : "type-7"
    }
   ],
   "return_type" : "type-9",
   "source_file" : "/system/libhwbinder/include/hwbinder/Parcel.h"
  },
  {
   "access" : "private",
   "function_name" : "android::hardware::Parcel::acquireObjects",
   "linker_set_key" : "_ZN7android8hardware6Parcel14acquireObjectsEv",
   "parameters" :
   [
    {
     "is_this_ptr" : true,
     "referenced_type" : "type-18"
    }
   ],
   "return_type" : "type-17",
   "source_file" : "/system/libhwbinder/include/hwbinder/Parcel.h"
  },
  {
   "access" : "private",
   "function_name" : "android::hardware::Parcel::freeDataNoInit",
   "linker_set_key" : "_ZN7android8hardware6Parcel14freeDataNoInitEv",
   "parameters" :
   [
    {
     "is_this_ptr" : true,
     "referenced_type" : "type-18"
    }
   ],
   "return_type" : "type-17",
   "source_file" : "/system/libhwbinder/include/hwbinder/Parcel.h"
  },
  {
   "access" : "private",
   "function_name" : "android::hardware::Parcel::releaseObjects",
   "linker_set_key" : "_ZN7android8hardware6Parcel14releaseObjectsEv",
   "parameters" :
   [
    {
     "is_this_ptr" : true,
     "referenced_type" : "type-18"
    }
   ],
   "return_type" : "type-17",
   "source_file" : "/system/libhwbinder/include/hwbinder/Parcel.h"
  },
  {
   "function_name" : "android::hardware::Parcel::writeReference",
   "linker_set_key" : "_ZN7android8hardware6Parcel14writeReferenceEPmmm",
   "parameters" :
   [
    {
     "is_this_ptr" : true,
     "referenced_type" : "type-18"
    },
    {
     "referenced_type" : "type-651"
    },
    {
     "referenced_type" : "type-7"
    },
    {
     "referenced_type" : "type-7"
    }
   ],
   "return_type" : "type-9",
   "source_file" : "/system/libhwbinder/include/hwbinder/Parcel.h"
  },
  {
   "function_name" : "android::hardware::Parcel::setDataCapacity",
   "linker_set_key" : "_ZN7android8hardware6Parcel15setDataCapacityEm",
   "parameters" :
   [
    {
     "is_this_ptr" : true,
     "referenced_type" : "type-18"
    },
    {
     "referenced_type" : "type-7"
    }
   ],
   "return_type" : "type-9",
   "source_file" : "/system/libhwbinder/include/hwbinder/Parcel.h"
  },
  {
   "function_name" : "android::hardware::Parcel::writeWeakBinder",
   "linker_set_key" : "_ZN7android8hardware6Parcel15writeWeakBinderERKNS_2wpINS0_7IBinderEEE",
   "parameters" :
   [
    {
     "is_this_ptr" : true,
     "referenced_type" : "type-18"
    },
    {
     "referenced_type" : "type-54"
    }
   ],
   "return_type" : "type-9",
   "source_file" : "/system/libhwbinder/include/hwbinder/Parcel.h"
  },
  {
   "function_name" : "android::hardware::Parcel::writeStrongBinder",
   "linker_set_key" : "_ZN7android8hardware6Parcel17writeStrongBinderERKNS_2spINS0_7IBinderEEE",
   "parameters" :
   [
    {
     "is_this_ptr" : true,
     "referenced_type" : "type-18"
    },
    {
     "referenced_type" : "type-153"
    }
   ],
   "return_type" : "type-9",
   "source_file" : "/system/libhwbinder/include/hwbinder/Parcel.h"
  },
  {
   "function_name" : "android::hardware::Parcel::getGlobalAllocSize",
   "linker_set_key" : "_ZN7android8hardware6Parcel18getGlobalAllocSizeEv",
   "return_type" : "type-7",
   "source_file" : "/system/libhwbinder/include/hwbinder/Parcel.h"
  },
  {
   "function_name" : "android::hardware::Parcel::writeNullReference",
   "linker_set_key" : "_ZN7android8hardware6Parcel18writeNullReferenceEPm",
   "parameters" :
   [
    {
     "is_this_ptr" : true,
     "referenced_type" : "type-18"
    },
    {
     "referenced_type" : "type-651"
    }
   ],
   "return_type" : "type-9",
   "source_file" : "/system/libhwbinder/include/hwbinder/Parcel.h"
  },
  {
   "function_name" : "android::hardware::Parcel::getGlobalAllocCount",
   "linker_set_key" : "_ZN7android8hardware6Parcel19getGlobalAllocCountEv",
   "return_type" : "type-7",
   "source_file" : "/system/libhwbinder/include/hwbinder/Parcel.h"
  },
  {
   "access" : "private",
   "function_name" : "android::hardware::Parcel::ipcSetDataReference",
   "linker_set_key" : "_ZN7android8hardware6Parcel19ipcSetDataReferenceEPKhmPKymPFvPS1_S3_mS5_mPvES7_",
   "parameters" :
   [
    {
     "is_this_ptr" : true,
     "referenced_type" : "type-18"
    },
    {
     "referenced_type" : "type-19"
    },
    {
     "referenced_type" : "type-7"
    },
    {
     "referenced_type" : "type-21"
    },
    {
     "referenced_type" : "type-7"
    },
    {
     "referenced_type" : "type-15"
    },
    {
     "referenced_type" : "type-23"
    }
   ],
   "return_type" : "type-17",
   "source_file" : "/system/libhwbinder/include/hwbinder/Parcel.h"
  },
  {
   "function_name" : "android::hardware::Parcel::writeEmbeddedBuffer",
   "linker_set_key" : "_ZN7android8hardware6Parcel19writeEmbeddedBufferEPKvmPmmm",
   "parameters" :
   [
    {
     "is_this_ptr" : true,
     "referenced_type" : "type-18"
    },
    {
     "referenced_type" : "type-110"
    },
    {
     "referenced_type" : "type-7"
    },
    {
     "referenced_type" : "type-651"
    },
    {
     "referenced_type" : "type-7"
    },
    {
     "referenced_type" : "type-7"
    }
   ],
   "return_type" : "type-9",
   "source_file" : "/system/libhwbinder/include/hwbinder/Parcel.h"
  },
  {
   "function_name" : "android::hardware::Parcel::writeInterfaceToken",
   "linker_set_key" : "_ZN7android8hardware6Parcel19writeInterfaceTokenEPKc",
   "parameters" :
   [
    {
     "is_this_ptr" : true,
     "referenced_type" : "type-18"
    },
    {
     "referenced_type" : "type-383"
    }
   ],
   "return_type" : "type-9",
   "source_file" : "/system/libhwbinder/include/hwbinder/Parcel.h"
  },
  {
   "function_name" : "android::hardware::Parcel::closeFileDescriptors",
   "linker_set_key" : "_ZN7android8hardware6Parcel20closeFileDescriptorsEv",
   "parameters" :
   [
    {
     "is_this_ptr" : true,
     "referenced_type" : "type-18"
    }
   ],
   "return_type" : "type-17",
   "source_file" : "/system/libhwbinder/include/hwbinder/Parcel.h"
  },
  {
   "access" : "private",
   "function_name" : "android::hardware::Parcel::incrementNumReferences",
   "linker_set_key" : "_ZN7android8hardware6Parcel22incrementNumReferencesEv",
   "parameters" :
   [
    {
     "is_this_ptr" : true,
     "referenced_type" : "type-18"
    }
   ],
   "return_type" : "type-9",
   "source_file" : "/system/libhwbinder/include/hwbinder/Parcel.h"
  },
  {
   "function_name" : "android::hardware::Parcel::writeEmbeddedReference",
   "linker_set_key" : "_ZN7android8hardware6Parcel22writeEmbeddedReferenceEPmmmmm",
   "parameters" :
   [
    {
     "is_this_ptr" : true,
     "referenced_type" : "type-18"
    },
    {
     "referenced_type" : "type-651"
    },
    {
     "referenced_type" : "type-7"
    },
    {
     "referenced_type" : "type-7"
    },
    {
     "referenced_type" : "type-7"
    },
    {
     "referenced_type" : "type-7"
    }
   ],
   "return_type" : "type-9",
   "source_file" : "/system/libhwbinder/include/hwbinder/Parcel.h"
  },
  {
   "function_name" : "android::hardware::Parcel::writeNativeHandleNoDup",
   "linker_set_key" : "_ZN7android8hardware6Parcel22writeNativeHandleNoDupEPK13native_handle",
   "parameters" :
   [
    {
     "is_this_ptr" : true,
     "referenced_type" : "type-18"
    },
    {
     "referenced_type" : "type-91"
    }
   ],
   "return_type" : "type-9",
   "source_file" : "/system/libhwbinder/include/hwbinder/Parcel.h"
  },
  {
   "function_name" : "android::hardware::Parcel::writeNativeHandleNoDup",
   "linker_set_key" : "_ZN7android8hardware6Parcel22writeNativeHandleNoDupEPK13native_handlebmm",
   "parameters" :
   [
    {
     "is_this_ptr" : true,
     "referenced_type" : "type-18"
    },
    {
     "referenced_type" : "type-91"
    },
    {
     "referenced_type" : "type-14"
    },
    {
     "default_arg" : true,
     "referenced_type" : "type-7"
    },
    {
     "default_arg" : true,
     "referenced_type" : "type-7"
    }
   ],
   "return_type" : "type-9",
   "source_file" : "/system/libhwbinder/include/hwbinder/Parcel.h"
  },
  {
   "function_name" : "android::hardware::Parcel::writeEmbeddedNativeHandle",
   "linker_set_key" : "_ZN7android8hardware6Parcel25writeEmbeddedNativeHandleEPK13native_handlemm",
   "parameters" :
   [
    {
     "is_this_ptr" : true,
     "referenced_type" : "type-18"
    },
    {
     "referenced_type" : "type-91"
    },
    {
     "referenced_type" : "type-7"
    },
    {
     "referenced_type" : "type-7"
    }
   ],
   "return_type" : "type-9",
   "source_file" : "/system/libhwbinder/include/hwbinder/Parcel.h"
  },
  {
   "function_name" : "android::hardware::Parcel::writeEmbeddedNullReference",
   "linker_set_key" : "_ZN7android8hardware6Parcel26writeEmbeddedNullReferenceEPmmm",
   "parameters" :
   [
    {
     "is_this_ptr" : true,
     "referenced_type" : "type-18"
    },
    {
     "referenced_type" : "type-651"
    },
    {
     "referenced_type" : "type-7"
    },
    {
     "referenced_type" : "type-7"
    }
   ],
   "return_type" : "type-9",
   "source_file" : "/system/libhwbinder/include/hwbinder/Parcel.h"
  },
  {
   "function_name" : "android::hardware::Parcel::write",
   "linker_set_key" : "_ZN7android8hardware6Parcel5writeEPKvm",
   "parameters" :
   [
    {
     "is_this_ptr" : true,
     "referenced_type" : "type-18"
    },
    {
     "referenced_type" : "type-110"
    },
    {
     "referenced_type" : "type-7"
    }
   ],
   "return_type" : "type-9",
   "source_file" : "/system/libhwbinder/include/hwbinder/Parcel.h"
  },
  {
   "function_name" : "android::hardware::Parcel::remove",
   "linker_set_key" : "_ZN7android8hardware6Parcel6removeEmm",
   "parameters" :
   [
    {
     "is_this_ptr" : true,
     "referenced_type" : "type-18"
    },
    {
     "referenced_type" : "type-7"
    },
    {
     "referenced_type" : "type-7"
    }
   ],
   "return_type" : "type-17",
   "source_file" : "/system/libhwbinder/include/hwbinder/Parcel.h"
  },
  {
   "function_name" : "android::hardware::Parcel::setData",
   "linker_set_key" : "_ZN7android8hardware6Parcel7setDataEPKhm",
   "parameters" :
   [
    {
     "is_this_ptr" : true,
     "referenced_type" : "type-18"
    },
    {
     "referenced_type" : "type-19"
    },
    {
     "referenced_type" : "type-7"
    }
   ],
   "return_type" : "type-9",
   "source_file" : "/system/libhwbinder/include/hwbinder/Parcel.h"
  },
  {
   "function_name" : "android::hardware::Parcel::freeData",
   "linker_set_key" : "_ZN7android8hardware6Parcel8freeDataEv",
   "parameters" :
   [
    {
     "is_this_ptr" : true,
     "referenced_type" : "type-18"
    }
   ],
   "return_type" : "type-17",
   "source_file" : "/system/libhwbinder/include/hwbinder/Parcel.h"
  },
  {
   "access" : "private",
   "function_name" : "android::hardware::Parcel::growData",
   "linker_set_key" : "_ZN7android8hardware6Parcel8growDataEm",
   "parameters" :
   [
    {
     "is_this_ptr" : true,
     "referenced_type" : "type-18"
    },
    {
     "referenced_type" : "type-7"
    }
   ],
   "return_type" : "type-9",
   "source_file" : "/system/libhwbinder/include/hwbinder/Parcel.h"
  },
  {
   "function_name" : "android::hardware::Parcel::setError",
   "linker_set_key" : "_ZN7android8hardware6Parcel8setErrorEi",
   "parameters" :
   [
    {
     "is_this_ptr" : true,
     "referenced_type" : "type-18"
    },
    {
     "referenced_type" : "type-9"
    }
   ],
   "return_type" : "type-17",
   "source_file" : "/system/libhwbinder/include/hwbinder/Parcel.h"
  },
  {
   "access" : "private",
   "function_name" : "android::hardware::Parcel::initState",
   "linker_set_key" : "_ZN7android8hardware6Parcel9initStateEv",
   "parameters" :
   [
    {
     "is_this_ptr" : true,
     "referenced_type" : "type-18"
    }
   ],
   "return_type" : "type-17",
   "source_file" : "/system/libhwbinder/include/hwbinder/Parcel.h"
  },
  {
   "function_name" : "android::hardware::Parcel::writeBool",
   "linker_set_key" : "_ZN7android8hardware6Parcel9writeBoolEb",
   "parameters" :
   [
    {
     "is_this_ptr" : true,
     "referenced_type" : "type-18"
    },
    {
     "referenced_type" : "type-14"
    }
   ],
   "return_type" : "type-9",
   "source_file" : "/system/libhwbinder/include/hwbinder/Parcel.h"
  },
  {
   "function_name" : "android::hardware::Parcel::writeInt8",
   "linker_set_key" : "_ZN7android8hardware6Parcel9writeInt8Ea",
   "parameters" :
   [
    {
     "is_this_ptr" : true,
     "referenced_type" : "type-18"
    },
    {
     "referenced_type" : "type-93"
    }
   ],
   "return_type" : "type-9",
   "source_file" : "/system/libhwbinder/include/hwbinder/Parcel.h"
  },
  {
   "function_name" : "android::hardware::Parcel::Parcel",
   "linker_set_key" : "_ZN7android8hardware6ParcelC1Ev",
   "parameters" :
   [
    {
     "is_this_ptr" : true,
     "referenced_type" : "type-18"
    }
   ],
   "return_type" : "type-17",
   "source_file" : "/system/libhwbinder/include/hwbinder/Parcel.h"
  },
  {
   "function_name" : "android::hardware::Parcel::Parcel",
   "linker_set_key" : "_ZN7android8hardware6ParcelC2Ev",
   "parameters" :
   [
    {
     "is_this_ptr" : true,
     "referenced_type" : "type-18"
    }
   ],
   "return_type" : "type-17",
   "source_file" : "/system/libhwbinder/include/hwbinder/Parcel.h"
  },
  {
   "function_name" : "android::hardware::Parcel::~Parcel",
   "linker_set_key" : "_ZN7android8hardware6ParcelD1Ev",
   "parameters" :
   [
    {
     "is_this_ptr" : true,
     "referenced_type" : "type-18"
    }
   ],
   "return_type" : "type-17",
   "source_file" : "/system/libhwbinder/include/hwbinder/Parcel.h"
  },
  {
   "function_name" : "android::hardware::Parcel::~Parcel",
   "linker_set_key" : "_ZN7android8hardware6ParcelD2Ev",
   "parameters" :
   [
    {
     "is_this_ptr" : true,
     "referenced_type" : "type-18"
    }
   ],
   "return_type" : "type-17",
   "source_file" : "/system/libhwbinder/include/hwbinder/Parcel.h"
  },
  {
   "function_name" : "android::hardware::HexDump::HexDump",
   "linker_set_key" : "_ZN7android8hardware7HexDumpC1EPKvmm",
   "parameters" :
   [
    {
     "is_this_ptr" : true,
     "referenced_type" : "type-595"
    },
    {
     "referenced_type" : "type-110"
    },
    {
     "referenced_type" : "type-7"
    },
    {
     "default_arg" : true,
     "referenced_type" : "type-7"
    }
   ],
   "return_type" : "type-17",
   "source_file" : "/system/libhwbinder/include/hwbinder/TextOutput.h"
  },
  {
   "function_name" : "android::hardware::HexDump::HexDump",
   "linker_set_key" : "_ZN7android8hardware7HexDumpC2EPKvmm",
   "parameters" :
   [
    {
     "is_this_ptr" : true,
     "referenced_type" : "type-595"
    },
    {
     "referenced_type" : "type-110"
    },
    {
     "referenced_type" : "type-7"
    },
    {
     "default_arg" : true,
     "referenced_type" : "type-7"
    }
   ],
   "return_type" : "type-17",
   "source_file" : "/system/libhwbinder/include/hwbinder/TextOutput.h"
  },
  {
   "function_name" : "android::hardware::IBinder::localBinder",
   "linker_set_key" : "_ZN7android8hardware7IBinder11localBinderEv",
   "parameters" :
   [
    {
     "is_this_ptr" : true,
     "referenced_type" : "type-53"
    }
   ],
   "return_type" : "type-36",
   "source_file" : "/system/libhwbinder/include/hwbinder/IBinder.h"
  },
  {
   "function_name" : "android::hardware::IBinder::remoteBinder",
   "linker_set_key" : "_ZN7android8hardware7IBinder12remoteBinderEv",
   "parameters" :
   [
    {
     "is_this_ptr" : true,
     "referenced_type" : "type-53"
    }
   ],
   "return_type" : "type-657",
   "source_file" : "/system/libhwbinder/include/hwbinder/IBinder.h"
  },
  {
   "function_name" : "android::hardware::IBinder::IBinder",
   "linker_set_key" : "_ZN7android8hardware7IBinderC2Ev",
   "parameters" :
   [
    {
     "is_this_ptr" : true,
     "referenced_type" : "type-53"
    }
   ],
   "return_type" : "type-17",
   "source_file" : "/system/libhwbinder/include/hwbinder/IBinder.h"
  },
  {
   "access" : "protected",
   "function_name" : "android::hardware::IBinder::~IBinder",
   "linker_set_key" : "_ZN7android8hardware7IBinderD0Ev",
   "parameters" :
   [
    {
     "is_this_ptr" : true,
     "referenced_type" : "type-53"
    }
   ],
   "return_type" : "type-17",
   "source_file" : "/system/libhwbinder/include/hwbinder/IBinder.h"
  },
  {
   "access" : "protected",
   "function_name" : "android::hardware::IBinder::~IBinder",
   "linker_set_key" : "_ZN7android8hardware7IBinderD1Ev",
   "parameters" :
   [
    {
     "is_this_ptr" : true,
     "referenced_type" : "type-53"
    }
   ],
   "return_type" : "type-17",
   "source_file" : "/system/libhwbinder/include/hwbinder/IBinder.h"
  },
  {
   "access" : "protected",
   "function_name" : "android::hardware::IBinder::~IBinder",
   "linker_set_key" : "_ZN7android8hardware7IBinderD2Ev",
   "parameters" :
   [
    {
     "is_this_ptr" : true,
     "referenced_type" : "type-53"
    }
   ],
   "return_type" : "type-17",
   "source_file" : "/system/libhwbinder/include/hwbinder/IBinder.h"
  },
  {
   "access" : "protected",
   "function_name" : "android::hardware::BHwBinder::onTransact",
   "linker_set_key" : "_ZN7android8hardware9BHwBinder10onTransactEjRKNS0_6ParcelEPS2_jNSt3__18functionIFvRS2_EEE",
   "parameters" :
   [
    {
     "is_this_ptr" : true,
     "referenced_type" : "type-36"
    },
    {
     "referenced_type" : "type-4"
    },
    {
     "referenced_type" : "type-45"
    },
    {
     "referenced_type" : "type-18"
    },
    {
     "default_arg" : true,
     "referenced_type" : "type-4"
    },
    {
     "default_arg" : true,
     "referenced_type" : "type-823"
    }
   ],
   "return_type" : "type-9",
   "source_file" : "/system/libhwbinder/include/hwbinder/Binder.h"
  },
  {
   "function_name" : "android::hardware::BHwBinder::linkToDeath",
   "linker_set_key" : "_ZN7android8hardware9BHwBinder11linkToDeathERKNS_2spINS0_7IBinder14DeathRecipientEEEPvj",
   "parameters" :
   [
    {
     "is_this_ptr" : true,
     "referenced_type" : "type-36"
    },
    {
     "referenced_type" : "type-55"
    },
    {
     "default_arg" : true,
     "referenced_type" : "type-23"
    },
    {
     "default_arg" : true,
     "referenced_type" : "type-4"
    }
   ],
   "return_type" : "type-9",
   "source_file" : "/system/libhwbinder/include/hwbinder/Binder.h"
  },
  {
   "function_name" : "android::hardware::BHwBinder::localBinder",
   "linker_set_key" : "_ZN7android8hardware9BHwBinder11localBinderEv",
   "parameters" :
   [
    {
     "is_this_ptr" : true,
     "referenced_type" : "type-36"
    }
   ],
   "return_type" : "type-36",
   "source_file" : "/system/libhwbinder/include/hwbinder/Binder.h"
  },
  {
   "function_name" : "android::hardware::BHwBinder::attachObject",
   "linker_set_key" : "_ZN7android8hardware9BHwBinder12attachObjectEPKvPvS4_PFvS3_S4_S4_E",
   "parameters" :
   [
    {
     "is_this_ptr" : true,
     "referenced_type" : "type-36"
    },
    {
     "referenced_type" : "type-110"
    },
    {
     "referenced_type" : "type-23"
    },
    {
     "referenced_type" : "type-23"
    },
    {
     "referenced_type" : "type-287"
    }
   ],
   "return_type" : "type-17",
   "source_file" : "/system/libhwbinder/include/hwbinder/Binder.h"
  },
  {
   "function_name" : "android::hardware::BHwBinder::detachObject",
   "linker_set_key" : "_ZN7android8hardware9BHwBinder12detachObjectEPKv",
   "parameters" :
   [
    {
     "is_this_ptr" : true,
     "referenced_type" : "type-36"
    },
    {
     "referenced_type" : "type-110"
    }
   ],
   "return_type" : "type-17",
   "source_file" : "/system/libhwbinder/include/hwbinder/Binder.h"
  },
  {
   "function_name" : "android::hardware::BHwBinder::unlinkToDeath",
   "linker_set_key" : "_ZN7android8hardware9BHwBinder13unlinkToDeathERKNS_2wpINS0_7IBinder14DeathRecipientEEEPvjPS5_",
   "parameters" :
   [
    {
     "is_this_ptr" : true,
     "referenced_type" : "type-36"
    },
    {
     "referenced_type" : "type-121"
    },
    {
     "default_arg" : true,
     "referenced_type" : "type-23"
    },
    {
     "default_arg" : true,
     "referenced_type" : "type-4"
    },
    {
     "default_arg" : true,
     "referenced_type" : "type-128"
    }
   ],
   "return_type" : "type-9",
   "source_file" : "/system/libhwbinder/include/hwbinder/Binder.h"
  },
  {
   "function_name" : "android::hardware::BHwBinder::isRequestingSid",
   "linker_set_key" : "_ZN7android8hardware9BHwBinder15isRequestingSidEv",
   "parameters" :
   [
    {
     "is_this_ptr" : true,
     "referenced_type" : "type-36"
    }
   ],
   "return_type" : "type-14",
   "source_file" : "/system/libhwbinder/include/hwbinder/Binder.h"
  },
  {
   "access" : "protected",
   "function_name" : "android::hardware::BHwBinder::setRequestingSid",
   "linker_set_key" : "_ZN7android8hardware9BHwBinder16setRequestingSidEb",
   "parameters" :
   [
    {
     "is_this_ptr" : true,
     "referenced_type" : "type-36"
    },
    {
     "referenced_type" : "type-14"
    }
   ],
   "return_type" : "type-17",
   "source_file" : "/system/libhwbinder/include/hwbinder/Binder.h"
  },
  {
   "access" : "private",
   "function_name" : "android::hardware::BHwBinder::getOrCreateExtras",
   "linker_set_key" : "_ZN7android8hardware9BHwBinder17getOrCreateExtrasEv",
   "parameters" :
   [
    {
     "is_this_ptr" : true,
     "referenced_type" : "type-36"
    }
   ],
   "return_type" : "type-139",
   "source_file" : "/system/libhwbinder/include/hwbinder/Binder.h"
  },
  {
   "function_name" : "android::hardware::BHwBinder::getMinSchedulingPolicy",
   "linker_set_key" : "_ZN7android8hardware9BHwBinder22getMinSchedulingPolicyEv",
   "parameters" :
   [
    {
     "is_this_ptr" : true,
     "referenced_type" : "type-36"
    }
   ],
   "return_type" : "type-9",
   "source_file" : "/system/libhwbinder/include/hwbinder/Binder.h"
  },
  {
   "function_name" : "android::hardware::BHwBinder::getMinSchedulingPriority",
   "linker_set_key" : "_ZN7android8hardware9BHwBinder24getMinSchedulingPriorityEv",
   "parameters" :
   [
    {
     "is_this_ptr" : true,
     "referenced_type" : "type-36"
    }
   ],
   "return_type" : "type-9",
   "source_file" : "/system/libhwbinder/include/hwbinder/Binder.h"
  },
  {
   "function_name" : "android::hardware::BHwBinder::transact",
   "linker_set_key" : "_ZN7android8hardware9BHwBinder8transactEjRKNS0_6ParcelEPS2_jNSt3__18functionIFvRS2_EEE",
   "parameters" :
   [
    {
     "is_this_ptr" : true,
     "referenced_type" : "type-36"
    },
    {
     "referenced_type" : "type-4"
    },
    {
     "referenced_type" : "type-45"
    },
    {
     "referenced_type" : "type-18"
    },
    {
     "default_arg" : true,
     "referenced_type" : "type-4"
    },
    {
     "default_arg" : true,
     "referenced_type" : "type-824"
    }
   ],
   "return_type" : "type-9",
   "source_file" : "/system/libhwbinder/include/hwbinder/Binder.h"
  },
  {
   "function_name" : "android::hardware::BHwBinder::BHwBinder",
   "linker_set_key" : "_ZN7android8hardware9BHwBinderC1Ev",
   "parameters" :
   [
    {
     "is_this_ptr" : true,
     "referenced_type" : "type-36"
    }
   ],
   "return_type" : "type-17",
   "source_file" : "/system/libhwbinder/include/hwbinder/Binder.h"
  },
  {
   "function_name" : "android::hardware::BHwBinder::BHwBinder",
   "linker_set_key" : "_ZN7android8hardware9BHwBinderC2Ev",
   "parameters" :
   [
    {
     "is_this_ptr" : true,
     "referenced_type" : "type-36"
    }
   ],
   "return_type" : "type-17",
   "source_file" : "/system/libhwbinder/include/hwbinder/Binder.h"
  },
  {
   "access" : "protected",
   "function_name" : "android::hardware::BHwBinder::~BHwBinder",
   "linker_set_key" : "_ZN7android8hardware9BHwBinderD0Ev",
   "parameters" :
   [
    {
     "is_this_ptr" : true,
     "referenced_type" : "type-36"
    }
   ],
   "return_type" : "type-17",
   "source_file" : "/system/libhwbinder/include/hwbinder/Binder.h"
  },
  {
   "access" : "protected",
   "function_name" : "android::hardware::BHwBinder::~BHwBinder",
   "linker_set_key" : "_ZN7android8hardware9BHwBinderD1Ev",
   "parameters" :
   [
    {
     "is_this_ptr" : true,
     "referenced_type" : "type-36"
    }
   ],
   "return_type" : "type-17",
   "source_file" : "/system/libhwbinder/include/hwbinder/Binder.h"
  },
  {
   "access" : "protected",
   "function_name" : "android::hardware::BHwBinder::~BHwBinder",
   "linker_set_key" : "_ZN7android8hardware9BHwBinderD2Ev",
   "parameters" :
   [
    {
     "is_this_ptr" : true,
     "referenced_type" : "type-36"
    }
   ],
   "return_type" : "type-17",
   "source_file" : "/system/libhwbinder/include/hwbinder/Binder.h"
  },
  {
   "function_name" : "android::hardware::operator<<",
   "linker_set_key" : "_ZN7android8hardwarelsERNS0_10TextOutputERKNS0_7HexDumpE",
   "parameters" :
   [
    {
     "referenced_type" : "type-587"
    },
    {
     "referenced_type" : "type-453"
    }
   ],
   "return_type" : "type-587",
   "source_file" : "/system/libhwbinder/include/hwbinder/TextOutput.h"
  },
  {
   "function_name" : "android::hardware::operator<<",
   "linker_set_key" : "_ZN7android8hardwarelsERNS0_10TextOutputERKNS0_8TypeCodeE",
   "parameters" :
   [
    {
     "referenced_type" : "type-587"
    },
    {
     "referenced_type" : "type-450"
    }
   ],
   "return_type" : "type-587",
   "source_file" : "/system/libhwbinder/include/hwbinder/TextOutput.h"
  },
  {
   "function_name" : "android::hardware::operator<<",
   "linker_set_key" : "_ZN7android8hardwarelsIA15_cEERNS0_10TextOutputES4_RKT_",
   "parameters" :
   [
    {
     "referenced_type" : "type-587"
    },
    {
     "referenced_type" : "type-129"
    }
   ],
   "return_type" : "type-587",
   "source_file" : "/system/libhwbinder/include/hwbinder/TextOutput.h",
   "template_args" : [ "type-127" ]
  },
  {
   "function_name" : "android::hardware::operator<<",
   "linker_set_key" : "_ZN7android8hardwarelsIA2_cEERNS0_10TextOutputES4_RKT_",
   "parameters" :
   [
    {
     "referenced_type" : "type-587"
    },
    {
     "referenced_type" : "type-733"
    }
   ],
   "return_type" : "type-587",
   "source_file" : "/system/libhwbinder/include/hwbinder/TextOutput.h",
   "template_args" : [ "type-732" ]
  },
  {
   "function_name" : "android::hardware::operator<<",
   "linker_set_key" : "_ZN7android8hardwarelsIA3_cEERNS0_10TextOutputES4_RKT_",
   "parameters" :
   [
    {
     "referenced_type" : "type-587"
    },
    {
     "referenced_type" : "type-745"
    }
   ],
   "return_type" : "type-587",
   "source_file" : "/system/libhwbinder/include/hwbinder/TextOutput.h",
   "template_args" : [ "type-744" ]
  },
  {
   "function_name" : "android::hardware::operator<<",
   "linker_set_key" : "_ZN7android8hardwarelsIA4_cEERNS0_10TextOutputES4_RKT_",
   "parameters" :
   [
    {
     "referenced_type" : "type-587"
    },
    {
     "referenced_type" : "type-125"
    }
   ],
   "return_type" : "type-587",
   "source_file" : "/system/libhwbinder/include/hwbinder/TextOutput.h",
   "template_args" : [ "type-124" ]
  },
  {
   "function_name" : "android::hardware::operator<<",
   "linker_set_key" : "_ZN7android8hardwarelsIA5_cEERNS0_10TextOutputES4_RKT_",
   "parameters" :
   [
    {
     "referenced_type" : "type-587"
    },
    {
     "referenced_type" : "type-132"
    }
   ],
   "return_type" : "type-587",
   "source_file" : "/system/libhwbinder/include/hwbinder/TextOutput.h",
   "template_args" : [ "type-131" ]
  },
  {
   "function_name" : "android::hardware::operator<<",
   "linker_set_key" : "_ZN7android8hardwarelsIA8_cEERNS0_10TextOutputES4_RKT_",
   "parameters" :
   [
    {
     "referenced_type" : "type-587"
    },
    {
     "referenced_type" : "type-748"
    }
   ],
   "return_type" : "type-587",
   "source_file" : "/system/libhwbinder/include/hwbinder/TextOutput.h",
   "template_args" : [ "type-747" ]
  },
  {
   "function_name" : "android::hardware::operator<<",
   "linker_set_key" : "_ZN7android8hardwarelsIA9_cEERNS0_10TextOutputES4_RKT_",
   "parameters" :
   [
    {
     "referenced_type" : "type-587"
    },
    {
     "referenced_type" : "type-739"
    }
   ],
   "return_type" : "type-587",
   "source_file" : "/system/libhwbinder/include/hwbinder/TextOutput.h",
   "template_args" : [ "type-738" ]
  },
  {
   "function_name" : "android::hardware::operator<<",
   "linker_set_key" : "_ZN7android8hardwarelsIPcEERNS0_10TextOutputES4_RKT_",
   "parameters" :
   [
    {
     "referenced_type" : "type-587"
    },
    {
     "referenced_type" : "type-122"
    }
   ],
   "return_type" : "type-587",
   "source_file" : "/system/libhwbinder/include/hwbinder/TextOutput.h",
   "template_args" : [ "type-119" ]
  },
  {
   "function_name" : "android::hardware::operator<<",
   "linker_set_key" : "_ZN7android8hardwarelsIPvEERNS0_10TextOutputES4_RKT_",
   "parameters" :
   [
    {
     "referenced_type" : "type-587"
    },
    {
     "referenced_type" : "type-742"
    }
   ],
   "return_type" : "type-587",
   "source_file" : "/system/libhwbinder/include/hwbinder/TextOutput.h",
   "template_args" : [ "type-23" ]
  },
  {
   "function_name" : "android::hardware::operator<<",
   "linker_set_key" : "_ZN7android8hardwarelsImEERNS0_10TextOutputES3_RKT_",
   "parameters" :
   [
    {
     "referenced_type" : "type-587"
    },
    {
     "referenced_type" : "type-231"
    }
   ],
   "return_type" : "type-587",
   "source_file" : "/system/libhwbinder/include/hwbinder/TextOutput.h",
   "template_args" : [ "type-7" ]
  },
  {
   "function_name" : "android::hardware::operator<<",
   "linker_set_key" : "_ZN7android8hardwarelsIyEERNS0_10TextOutputES3_RKT_",
   "parameters" :
   [
    {
     "referenced_type" : "type-587"
    },
    {
     "referenced_type" : "type-726"
    }
   ],
   "return_type" : "type-587",
   "source_file" : "/system/libhwbinder/include/hwbinder/TextOutput.h",
   "template_args" : [ "type-13" ]
  },
  {
   "access" : "protected",
   "function_name" : "android::SortedVector<android::key_value_pair_t<android::String16, android::sp<android::hardware::IBinder> > >::do_compare",
   "linker_set_key" : "_ZNK7android12SortedVectorINS_16key_value_pair_tINS_8String16ENS_2spINS_8hardware7IBinderEEEEEE10do_compareEPKvSA_",
   "parameters" :
   [
    {
     "is_this_ptr" : true,
     "referenced_type" : "type-354"
    },
    {
     "referenced_type" : "type-110"
    },
    {
     "referenced_type" : "type-110"
    }
   ],
   "return_type" : "type-9",
   "source_file" : "/system/core/libutils/include/utils/SortedVector.h"
  },
  {
   "access" : "protected",
   "function_name" : "android::SortedVector<android::key_value_pair_t<android::String16, android::sp<android::hardware::IBinder> > >::do_destroy",
   "linker_set_key" : "_ZNK7android12SortedVectorINS_16key_value_pair_tINS_8String16ENS_2spINS_8hardware7IBinderEEEEEE10do_destroyEPvm",
   "parameters" :
   [
    {
     "is_this_ptr" : true,
     "referenced_type" : "type-354"
    },
    {
     "referenced_type" : "type-23"
    },
    {
     "referenced_type" : "type-7"
    }
   ],
   "return_type" : "type-17",
   "source_file" : "/system/core/libutils/include/utils/SortedVector.h"
  },
  {
   "access" : "protected",
   "function_name" : "android::SortedVector<android::key_value_pair_t<android::String16, android::sp<android::hardware::IBinder> > >::do_construct",
   "linker_set_key" : "_ZNK7android12SortedVectorINS_16key_value_pair_tINS_8String16ENS_2spINS_8hardware7IBinderEEEEEE12do_constructEPvm",
   "parameters" :
   [
    {
     "is_this_ptr" : true,
     "referenced_type" : "type-354"
    },
    {
     "referenced_type" : "type-23"
    },
    {
     "referenced_type" : "type-7"
    }
   ],
   "return_type" : "type-17",
   "source_file" : "/system/core/libutils/include/utils/SortedVector.h"
  },
  {
   "access" : "protected",
   "function_name" : "android::SortedVector<android::key_value_pair_t<android::String16, android::sp<android::hardware::IBinder> > >::do_move_forward",
   "linker_set_key" : "_ZNK7android12SortedVectorINS_16key_value_pair_tINS_8String16ENS_2spINS_8hardware7IBinderEEEEEE15do_move_forwardEPvPKvm",
   "parameters" :
   [
    {
     "is_this_ptr" : true,
     "referenced_type" : "type-354"
    },
    {
     "referenced_type" : "type-23"
    },
    {
     "referenced_type" : "type-110"
    },
    {
     "referenced_type" : "type-7"
    }
   ],
   "return_type" : "type-17",
   "source_file" : "/system/core/libutils/include/utils/SortedVector.h"
  },
  {
   "access" : "protected",
   "function_name" : "android::SortedVector<android::key_value_pair_t<android::String16, android::sp<android::hardware::IBinder> > >::do_move_backward",
   "linker_set_key" : "_ZNK7android12SortedVectorINS_16key_value_pair_tINS_8String16ENS_2spINS_8hardware7IBinderEEEEEE16do_move_backwardEPvPKvm",
   "parameters" :
   [
    {
     "is_this_ptr" : true,
     "referenced_type" : "type-354"
    },
    {
     "referenced_type" : "type-23"
    },
    {
     "referenced_type" : "type-110"
    },
    {
     "referenced_type" : "type-7"
    }
   ],
   "return_type" : "type-17",
   "source_file" : "/system/core/libutils/include/utils/SortedVector.h"
  },
  {
   "access" : "protected",
   "function_name" : "android::SortedVector<android::key_value_pair_t<android::String16, android::sp<android::hardware::IBinder> > >::do_copy",
   "linker_set_key" : "_ZNK7android12SortedVectorINS_16key_value_pair_tINS_8String16ENS_2spINS_8hardware7IBinderEEEEEE7do_copyEPvPKvm",
   "parameters" :
   [
    {
     "is_this_ptr" : true,
     "referenced_type" : "type-354"
    },
    {
     "referenced_type" : "type-23"
    },
    {
     "referenced_type" : "type-110"
    },
    {
     "referenced_type" : "type-7"
    }
   ],
   "return_type" : "type-17",
   "source_file" : "/system/core/libutils/include/utils/SortedVector.h"
  },
  {
   "access" : "protected",
   "function_name" : "android::SortedVector<android::key_value_pair_t<android::String16, android::sp<android::hardware::IBinder> > >::do_splat",
   "linker_set_key" : "_ZNK7android12SortedVectorINS_16key_value_pair_tINS_8String16ENS_2spINS_8hardware7IBinderEEEEEE8do_splatEPvPKvm",
   "parameters" :
   [
    {
     "is_this_ptr" : true,
     "referenced_type" : "type-354"
    },
    {
     "referenced_type" : "type-23"
    },
    {
     "referenced_type" : "type-110"
    },
    {
     "referenced_type" : "type-7"
    }
   ],
   "return_type" : "type-17",
   "source_file" : "/system/core/libutils/include/utils/SortedVector.h"
  },
  {
   "access" : "protected",
   "function_name" : "android::SortedVector<android::key_value_pair_t<const void *, android::hardware::BpHwBinder::ObjectManager::entry_t> >::do_compare",
   "linker_set_key" : "_ZNK7android12SortedVectorINS_16key_value_pair_tIPKvNS_8hardware10BpHwBinder13ObjectManager7entry_tEEEE10do_compareES3_S3_",
   "parameters" :
   [
    {
     "is_this_ptr" : true,
     "referenced_type" : "type-517"
    },
    {
     "referenced_type" : "type-110"
    },
    {
     "referenced_type" : "type-110"
    }
   ],
   "return_type" : "type-9",
   "source_file" : "/system/core/libutils/include/utils/SortedVector.h"
  },
  {
   "access" : "protected",
   "function_name" : "android::SortedVector<android::key_value_pair_t<const void *, android::hardware::BpHwBinder::ObjectManager::entry_t> >::do_destroy",
   "linker_set_key" : "_ZNK7android12SortedVectorINS_16key_value_pair_tIPKvNS_8hardware10BpHwBinder13ObjectManager7entry_tEEEE10do_destroyEPvm",
   "parameters" :
   [
    {
     "is_this_ptr" : true,
     "referenced_type" : "type-517"
    },
    {
     "referenced_type" : "type-23"
    },
    {
     "referenced_type" : "type-7"
    }
   ],
   "return_type" : "type-17",
   "source_file" : "/system/core/libutils/include/utils/SortedVector.h"
  },
  {
   "access" : "protected",
   "function_name" : "android::SortedVector<android::key_value_pair_t<const void *, android::hardware::BpHwBinder::ObjectManager::entry_t> >::do_construct",
   "linker_set_key" : "_ZNK7android12SortedVectorINS_16key_value_pair_tIPKvNS_8hardware10BpHwBinder13ObjectManager7entry_tEEEE12do_constructEPvm",
   "parameters" :
   [
    {
     "is_this_ptr" : true,
     "referenced_type" : "type-517"
    },
    {
     "referenced_type" : "type-23"
    },
    {
     "referenced_type" : "type-7"
    }
   ],
   "return_type" : "type-17",
   "source_file" : "/system/core/libutils/include/utils/SortedVector.h"
  },
  {
   "access" : "protected",
   "function_name" : "android::SortedVector<android::key_value_pair_t<const void *, android::hardware::BpHwBinder::ObjectManager::entry_t> >::do_move_forward",
   "linker_set_key" : "_ZNK7android12SortedVectorINS_16key_value_pair_tIPKvNS_8hardware10BpHwBinder13ObjectManager7entry_tEEEE15do_move_forwardEPvS3_m",
   "parameters" :
   [
    {
     "is_this_ptr" : true,
     "referenced_type" : "type-517"
    },
    {
     "referenced_type" : "type-23"
    },
    {
     "referenced_type" : "type-110"
    },
    {
     "referenced_type" : "type-7"
    }
   ],
   "return_type" : "type-17",
   "source_file" : "/system/core/libutils/include/utils/SortedVector.h"
  },
  {
   "access" : "protected",
   "function_name" : "android::SortedVector<android::key_value_pair_t<const void *, android::hardware::BpHwBinder::ObjectManager::entry_t> >::do_move_backward",
   "linker_set_key" : "_ZNK7android12SortedVectorINS_16key_value_pair_tIPKvNS_8hardware10BpHwBinder13ObjectManager7entry_tEEEE16do_move_backwardEPvS3_m",
   "parameters" :
   [
    {
     "is_this_ptr" : true,
     "referenced_type" : "type-517"
    },
    {
     "referenced_type" : "type-23"
    },
    {
     "referenced_type" : "type-110"
    },
    {
     "referenced_type" : "type-7"
    }
   ],
   "return_type" : "type-17",
   "source_file" : "/system/core/libutils/include/utils/SortedVector.h"
  },
  {
   "access" : "protected",
   "function_name" : "android::SortedVector<android::key_value_pair_t<const void *, android::hardware::BpHwBinder::ObjectManager::entry_t> >::do_copy",
   "linker_set_key" : "_ZNK7android12SortedVectorINS_16key_value_pair_tIPKvNS_8hardware10BpHwBinder13ObjectManager7entry_tEEEE7do_copyEPvS3_m",
   "parameters" :
   [
    {
     "is_this_ptr" : true,
     "referenced_type" : "type-517"
    },
    {
     "referenced_type" : "type-23"
    },
    {
     "referenced_type" : "type-110"
    },
    {
     "referenced_type" : "type-7"
    }
   ],
   "return_type" : "type-17",
   "source_file" : "/system/core/libutils/include/utils/SortedVector.h"
  },
  {
   "access" : "protected",
   "function_name" : "android::SortedVector<android::key_value_pair_t<const void *, android::hardware::BpHwBinder::ObjectManager::entry_t> >::do_splat",
   "linker_set_key" : "_ZNK7android12SortedVectorINS_16key_value_pair_tIPKvNS_8hardware10BpHwBinder13ObjectManager7entry_tEEEE8do_splatEPvS3_m",
   "parameters" :
   [
    {
     "is_this_ptr" : true,
     "referenced_type" : "type-517"
    },
    {
     "referenced_type" : "type-23"
    },
    {
     "referenced_type" : "type-110"
    },
    {
     "referenced_type" : "type-7"
    }
   ],
   "return_type" : "type-17",
   "source_file" : "/system/core/libutils/include/utils/SortedVector.h"
  },
  {
   "access" : "protected",
   "function_name" : "android::Vector<android::sp<android::hardware::BufferedTextOutput::BufferState> >::do_destroy",
   "linker_set_key" : "_ZNK7android6VectorINS_2spINS_8hardware18BufferedTextOutput11BufferStateEEEE10do_destroyEPvm",
   "parameters" :
   [
    {
     "is_this_ptr" : true,
     "referenced_type" : "type-631"
    },
    {
     "referenced_type" : "type-23"
    },
    {
     "referenced_type" : "type-7"
    }
   ],
   "return_type" : "type-17",
   "source_file" : "/system/core/libutils/include/utils/Vector.h"
  },
  {
   "access" : "protected",
   "function_name" : "android::Vector<android::sp<android::hardware::BufferedTextOutput::BufferState> >::do_construct",
   "linker_set_key" : "_ZNK7android6VectorINS_2spINS_8hardware18BufferedTextOutput11BufferStateEEEE12do_constructEPvm",
   "parameters" :
   [
    {
     "is_this_ptr" : true,
     "referenced_type" : "type-631"
    },
    {
     "referenced_type" : "type-23"
    },
    {
     "referenced_type" : "type-7"
    }
   ],
   "return_type" : "type-17",
   "source_file" : "/system/core/libutils/include/utils/Vector.h"
  },
  {
   "access" : "protected",
   "function_name" : "android::Vector<android::sp<android::hardware::BufferedTextOutput::BufferState> >::do_move_forward",
   "linker_set_key" : "_ZNK7android6VectorINS_2spINS_8hardware18BufferedTextOutput11BufferStateEEEE15do_move_forwardEPvPKvm",
   "parameters" :
   [
    {
     "is_this_ptr" : true,
     "referenced_type" : "type-631"
    },
    {
     "referenced_type" : "type-23"
    },
    {
     "referenced_type" : "type-110"
    },
    {
     "referenced_type" : "type-7"
    }
   ],
   "return_type" : "type-17",
   "source_file" : "/system/core/libutils/include/utils/Vector.h"
  },
  {
   "access" : "protected",
   "function_name" : "android::Vector<android::sp<android::hardware::BufferedTextOutput::BufferState> >::do_move_backward",
   "linker_set_key" : "_ZNK7android6VectorINS_2spINS_8hardware18BufferedTextOutput11BufferStateEEEE16do_move_backwardEPvPKvm",
   "parameters" :
   [
    {
     "is_this_ptr" : true,
     "referenced_type" : "type-631"
    },
    {
     "referenced_type" : "type-23"
    },
    {
     "referenced_type" : "type-110"
    },
    {
     "referenced_type" : "type-7"
    }
   ],
   "return_type" : "type-17",
   "source_file" : "/system/core/libutils/include/utils/Vector.h"
  },
  {
   "access" : "protected",
   "function_name" : "android::Vector<android::sp<android::hardware::BufferedTextOutput::BufferState> >::do_copy",
   "linker_set_key" : "_ZNK7android6VectorINS_2spINS_8hardware18BufferedTextOutput11BufferStateEEEE7do_copyEPvPKvm",
   "parameters" :
   [
    {
     "is_this_ptr" : true,
     "referenced_type" : "type-631"
    },
    {
     "referenced_type" : "type-23"
    },
    {
     "referenced_type" : "type-110"
    },
    {
     "referenced_type" : "type-7"
    }
   ],
   "return_type" : "type-17",
   "source_file" : "/system/core/libutils/include/utils/Vector.h"
  },
  {
   "access" : "protected",
   "function_name" : "android::Vector<android::sp<android::hardware::BufferedTextOutput::BufferState> >::do_splat",
   "linker_set_key" : "_ZNK7android6VectorINS_2spINS_8hardware18BufferedTextOutput11BufferStateEEEE8do_splatEPvPKvm",
   "parameters" :
   [
    {
     "is_this_ptr" : true,
     "referenced_type" : "type-631"
    },
    {
     "referenced_type" : "type-23"
    },
    {
     "referenced_type" : "type-110"
    },
    {
     "referenced_type" : "type-7"
    }
   ],
   "return_type" : "type-17",
   "source_file" : "/system/core/libutils/include/utils/Vector.h"
  },
  {
   "access" : "protected",
   "function_name" : "android::Vector<android::hardware::BpHwBinder::Obituary>::do_destroy",
   "linker_set_key" : "_ZNK7android6VectorINS_8hardware10BpHwBinder8ObituaryEE10do_destroyEPvm",
   "parameters" :
   [
    {
     "is_this_ptr" : true,
     "referenced_type" : "type-523"
    },
    {
     "referenced_type" : "type-23"
    },
    {
     "referenced_type" : "type-7"
    }
   ],
   "return_type" : "type-17",
   "source_file" : "/system/core/libutils/include/utils/Vector.h"
  },
  {
   "access" : "protected",
   "function_name" : "android::Vector<android::hardware::BpHwBinder::Obituary>::do_construct",
   "linker_set_key" : "_ZNK7android6VectorINS_8hardware10BpHwBinder8ObituaryEE12do_constructEPvm",
   "parameters" :
   [
    {
     "is_this_ptr" : true,
     "referenced_type" : "type-523"
    },
    {
     "referenced_type" : "type-23"
    },
    {
     "referenced_type" : "type-7"
    }
   ],
   "return_type" : "type-17",
   "source_file" : "/system/core/libutils/include/utils/Vector.h"
  },
  {
   "access" : "protected",
   "function_name" : "android::Vector<android::hardware::BpHwBinder::Obituary>::do_move_forward",
   "linker_set_key" : "_ZNK7android6VectorINS_8hardware10BpHwBinder8ObituaryEE15do_move_forwardEPvPKvm",
   "parameters" :
   [
    {
     "is_this_ptr" : true,
     "referenced_type" : "type-523"
    },
    {
     "referenced_type" : "type-23"
    },
    {
     "referenced_type" : "type-110"
    },
    {
     "referenced_type" : "type-7"
    }
   ],
   "return_type" : "type-17",
   "source_file" : "/system/core/libutils/include/utils/Vector.h"
  },
  {
   "access" : "protected",
   "function_name" : "android::Vector<android::hardware::BpHwBinder::Obituary>::do_move_backward",
   "linker_set_key" : "_ZNK7android6VectorINS_8hardware10BpHwBinder8ObituaryEE16do_move_backwardEPvPKvm",
   "parameters" :
   [
    {
     "is_this_ptr" : true,
     "referenced_type" : "type-523"
    },
    {
     "referenced_type" : "type-23"
    },
    {
     "referenced_type" : "type-110"
    },
    {
     "referenced_type" : "type-7"
    }
   ],
   "return_type" : "type-17",
   "source_file" : "/system/core/libutils/include/utils/Vector.h"
  },
  {
   "access" : "protected",
   "function_name" : "android::Vector<android::hardware::BpHwBinder::Obituary>::do_copy",
   "linker_set_key" : "_ZNK7android6VectorINS_8hardware10BpHwBinder8ObituaryEE7do_copyEPvPKvm",
   "parameters" :
   [
    {
     "is_this_ptr" : true,
     "referenced_type" : "type-523"
    },
    {
     "referenced_type" : "type-23"
    },
    {
     "referenced_type" : "type-110"
    },
    {
     "referenced_type" : "type-7"
    }
   ],
   "return_type" : "type-17",
   "source_file" : "/system/core/libutils/include/utils/Vector.h"
  },
  {
   "access" : "protected",
   "function_name" : "android::Vector<android::hardware::BpHwBinder::Obituary>::do_splat",
   "linker_set_key" : "_ZNK7android6VectorINS_8hardware10BpHwBinder8ObituaryEE8do_splatEPvPKvm",
   "parameters" :
   [
    {
     "is_this_ptr" : true,
     "referenced_type" : "type-523"
    },
    {
     "referenced_type" : "type-23"
    },
    {
     "referenced_type" : "type-110"
    },
    {
     "referenced_type" : "type-7"
    }
   ],
   "return_type" : "type-17",
   "source_file" : "/system/core/libutils/include/utils/Vector.h"
  },
  {
   "access" : "protected",
   "function_name" : "android::Vector<android::hardware::ProcessState::handle_entry>::do_destroy",
   "linker_set_key" : "_ZNK7android6VectorINS_8hardware12ProcessState12handle_entryEE10do_destroyEPvm",
   "parameters" :
   [
    {
     "is_this_ptr" : true,
     "referenced_type" : "type-359"
    },
    {
     "referenced_type" : "type-23"
    },
    {
     "referenced_type" : "type-7"
    }
   ],
   "return_type" : "type-17",
   "source_file" : "/system/core/libutils/include/utils/Vector.h"
  },
  {
   "access" : "protected",
   "function_name" : "android::Vector<android::hardware::ProcessState::handle_entry>::do_construct",
   "linker_set_key" : "_ZNK7android6VectorINS_8hardware12ProcessState12handle_entryEE12do_constructEPvm",
   "parameters" :
   [
    {
     "is_this_ptr" : true,
     "referenced_type" : "type-359"
    },
    {
     "referenced_type" : "type-23"
    },
    {
     "referenced_type" : "type-7"
    }
   ],
   "return_type" : "type-17",
   "source_file" : "/system/core/libutils/include/utils/Vector.h"
  },
  {
   "access" : "protected",
   "function_name" : "android::Vector<android::hardware::ProcessState::handle_entry>::do_move_forward",
   "linker_set_key" : "_ZNK7android6VectorINS_8hardware12ProcessState12handle_entryEE15do_move_forwardEPvPKvm",
   "parameters" :
   [
    {
     "is_this_ptr" : true,
     "referenced_type" : "type-359"
    },
    {
     "referenced_type" : "type-23"
    },
    {
     "referenced_type" : "type-110"
    },
    {
     "referenced_type" : "type-7"
    }
   ],
   "return_type" : "type-17",
   "source_file" : "/system/core/libutils/include/utils/Vector.h"
  },
  {
   "access" : "protected",
   "function_name" : "android::Vector<android::hardware::ProcessState::handle_entry>::do_move_backward",
   "linker_set_key" : "_ZNK7android6VectorINS_8hardware12ProcessState12handle_entryEE16do_move_backwardEPvPKvm",
   "parameters" :
   [
    {
     "is_this_ptr" : true,
     "referenced_type" : "type-359"
    },
    {
     "referenced_type" : "type-23"
    },
    {
     "referenced_type" : "type-110"
    },
    {
     "referenced_type" : "type-7"
    }
   ],
   "return_type" : "type-17",
   "source_file" : "/system/core/libutils/include/utils/Vector.h"
  },
  {
   "access" : "protected",
   "function_name" : "android::Vector<android::hardware::ProcessState::handle_entry>::do_copy",
   "linker_set_key" : "_ZNK7android6VectorINS_8hardware12ProcessState12handle_entryEE7do_copyEPvPKvm",
   "parameters" :
   [
    {
     "is_this_ptr" : true,
     "referenced_type" : "type-359"
    },
    {
     "referenced_type" : "type-23"
    },
    {
     "referenced_type" : "type-110"
    },
    {
     "referenced_type" : "type-7"
    }
   ],
   "return_type" : "type-17",
   "source_file" : "/system/core/libutils/include/utils/Vector.h"
  },
  {
   "access" : "protected",
   "function_name" : "android::Vector<android::hardware::ProcessState::handle_entry>::do_splat",
   "linker_set_key" : "_ZNK7android6VectorINS_8hardware12ProcessState12handle_entryEE8do_splatEPvPKvm",
   "parameters" :
   [
    {
     "is_this_ptr" : true,
     "referenced_type" : "type-359"
    },
    {
     "referenced_type" : "type-23"
    },
    {
     "referenced_type" : "type-110"
    },
    {
     "referenced_type" : "type-7"
    }
   ],
   "return_type" : "type-17",
   "source_file" : "/system/core/libutils/include/utils/Vector.h"
  },
  {
   "access" : "protected",
   "function_name" : "android::Vector<android::RefBase::weakref_type *>::do_destroy",
   "linker_set_key" : "_ZNK7android6VectorIPNS_7RefBase12weakref_typeEE10do_destroyEPvm",
   "parameters" :
   [
    {
     "is_this_ptr" : true,
     "referenced_type" : "type-694"
    },
    {
     "referenced_type" : "type-23"
    },
    {
     "referenced_type" : "type-7"
    }
   ],
   "return_type" : "type-17",
   "source_file" : "/system/core/libutils/include/utils/Vector.h"
  },
  {
   "access" : "protected",
   "function_name" : "android::Vector<android::RefBase::weakref_type *>::do_construct",
   "linker_set_key" : "_ZNK7android6VectorIPNS_7RefBase12weakref_typeEE12do_constructEPvm",
   "parameters" :
   [
    {
     "is_this_ptr" : true,
     "referenced_type" : "type-694"
    },
    {
     "referenced_type" : "type-23"
    },
    {
     "referenced_type" : "type-7"
    }
   ],
   "return_type" : "type-17",
   "source_file" : "/system/core/libutils/include/utils/Vector.h"
  },
  {
   "access" : "protected",
   "function_name" : "android::Vector<android::RefBase::weakref_type *>::do_move_forward",
   "linker_set_key" : "_ZNK7android6VectorIPNS_7RefBase12weakref_typeEE15do_move_forwardEPvPKvm",
   "parameters" :
   [
    {
     "is_this_ptr" : true,
     "referenced_type" : "type-694"
    },
    {
     "referenced_type" : "type-23"
    },
    {
     "referenced_type" : "type-110"
    },
    {
     "referenced_type" : "type-7"
    }
   ],
   "return_type" : "type-17",
   "source_file" : "/system/core/libutils/include/utils/Vector.h"
  },
  {
   "access" : "protected",
   "function_name" : "android::Vector<android::RefBase::weakref_type *>::do_move_backward",
   "linker_set_key" : "_ZNK7android6VectorIPNS_7RefBase12weakref_typeEE16do_move_backwardEPvPKvm",
   "parameters" :
   [
    {
     "is_this_ptr" : true,
     "referenced_type" : "type-694"
    },
    {
     "referenced_type" : "type-23"
    },
    {
     "referenced_type" : "type-110"
    },
    {
     "referenced_type" : "type-7"
    }
   ],
   "return_type" : "type-17",
   "source_file" : "/system/core/libutils/include/utils/Vector.h"
  },
  {
   "access" : "protected",
   "function_name" : "android::Vector<android::RefBase::weakref_type *>::do_copy",
   "linker_set_key" : "_ZNK7android6VectorIPNS_7RefBase12weakref_typeEE7do_copyEPvPKvm",
   "parameters" :
   [
    {
     "is_this_ptr" : true,
     "referenced_type" : "type-694"
    },
    {
     "referenced_type" : "type-23"
    },
    {
     "referenced_type" : "type-110"
    },
    {
     "referenced_type" : "type-7"
    }
   ],
   "return_type" : "type-17",
   "source_file" : "/system/core/libutils/include/utils/Vector.h"
  },
  {
   "access" : "protected",
   "function_name" : "android::Vector<android::RefBase::weakref_type *>::do_splat",
   "linker_set_key" : "_ZNK7android6VectorIPNS_7RefBase12weakref_typeEE8do_splatEPvPKvm",
   "parameters" :
   [
    {
     "is_this_ptr" : true,
     "referenced_type" : "type-694"
    },
    {
     "referenced_type" : "type-23"
    },
    {
     "referenced_type" : "type-110"
    },
    {
     "referenced_type" : "type-7"
    }
   ],
   "return_type" : "type-17",
   "source_file" : "/system/core/libutils/include/utils/Vector.h"
  },
  {
   "access" : "protected",
   "function_name" : "android::Vector<android::RefBase *>::do_destroy",
   "linker_set_key" : "_ZNK7android6VectorIPNS_7RefBaseEE10do_destroyEPvm",
   "parameters" :
   [
    {
     "is_this_ptr" : true,
     "referenced_type" : "type-698"
    },
    {
     "referenced_type" : "type-23"
    },
    {
     "referenced_type" : "type-7"
    }
   ],
   "return_type" : "type-17",
   "source_file" : "/system/core/libutils/include/utils/Vector.h"
  },
  {
   "access" : "protected",
   "function_name" : "android::Vector<android::RefBase *>::do_construct",
   "linker_set_key" : "_ZNK7android6VectorIPNS_7RefBaseEE12do_constructEPvm",
   "parameters" :
   [
    {
     "is_this_ptr" : true,
     "referenced_type" : "type-698"
    },
    {
     "referenced_type" : "type-23"
    },
    {
     "referenced_type" : "type-7"
    }
   ],
   "return_type" : "type-17",
   "source_file" : "/system/core/libutils/include/utils/Vector.h"
  },
  {
   "access" : "protected",
   "function_name" : "android::Vector<android::RefBase *>::do_move_forward",
   "linker_set_key" : "_ZNK7android6VectorIPNS_7RefBaseEE15do_move_forwardEPvPKvm",
   "parameters" :
   [
    {
     "is_this_ptr" : true,
     "referenced_type" : "type-698"
    },
    {
     "referenced_type" : "type-23"
    },
    {
     "referenced_type" : "type-110"
    },
    {
     "referenced_type" : "type-7"
    }
   ],
   "return_type" : "type-17",
   "source_file" : "/system/core/libutils/include/utils/Vector.h"
  },
  {
   "access" : "protected",
   "function_name" : "android::Vector<android::RefBase *>::do_move_backward",
   "linker_set_key" : "_ZNK7android6VectorIPNS_7RefBaseEE16do_move_backwardEPvPKvm",
   "parameters" :
   [
    {
     "is_this_ptr" : true,
     "referenced_type" : "type-698"
    },
    {
     "referenced_type" : "type-23"
    },
    {
     "referenced_type" : "type-110"
    },
    {
     "referenced_type" : "type-7"
    }
   ],
   "return_type" : "type-17",
   "source_file" : "/system/core/libutils/include/utils/Vector.h"
  },
  {
   "access" : "protected",
   "function_name" : "android::Vector<android::RefBase *>::do_copy",
   "linker_set_key" : "_ZNK7android6VectorIPNS_7RefBaseEE7do_copyEPvPKvm",
   "parameters" :
   [
    {
     "is_this_ptr" : true,
     "referenced_type" : "type-698"
    },
    {
     "referenced_type" : "type-23"
    },
    {
     "referenced_type" : "type-110"
    },
    {
     "referenced_type" : "type-7"
    }
   ],
   "return_type" : "type-17",
   "source_file" : "/system/core/libutils/include/utils/Vector.h"
  },
  {
   "access" : "protected",
   "function_name" : "android::Vector<android::RefBase *>::do_splat",
   "linker_set_key" : "_ZNK7android6VectorIPNS_7RefBaseEE8do_splatEPvPKvm",
   "parameters" :
   [
    {
     "is_this_ptr" : true,
     "referenced_type" : "type-698"
    },
    {
     "referenced_type" : "type-23"
    },
    {
     "referenced_type" : "type-110"
    },
    {
     "referenced_type" : "type-7"
    }
   ],
   "return_type" : "type-17",
   "source_file" : "/system/core/libutils/include/utils/Vector.h"
  },
  {
   "access" : "protected",
   "function_name" : "android::Vector<android::hardware::BHwBinder *>::do_destroy",
   "linker_set_key" : "_ZNK7android6VectorIPNS_8hardware9BHwBinderEE10do_destroyEPvm",
   "parameters" :
   [
    {
     "is_this_ptr" : true,
     "referenced_type" : "type-690"
    },
    {
     "referenced_type" : "type-23"
    },
    {
     "referenced_type" : "type-7"
    }
   ],
   "return_type" : "type-17",
   "source_file" : "/system/core/libutils/include/utils/Vector.h"
  },
  {
   "access" : "protected",
   "function_name" : "android::Vector<android::hardware::BHwBinder *>::do_construct",
   "linker_set_key" : "_ZNK7android6VectorIPNS_8hardware9BHwBinderEE12do_constructEPvm",
   "parameters" :
   [
    {
     "is_this_ptr" : true,
     "referenced_type" : "type-690"
    },
    {
     "referenced_type" : "type-23"
    },
    {
     "referenced_type" : "type-7"
    }
   ],
   "return_type" : "type-17",
   "source_file" : "/system/core/libutils/include/utils/Vector.h"
  },
  {
   "access" : "protected",
   "function_name" : "android::Vector<android::hardware::BHwBinder *>::do_move_forward",
   "linker_set_key" : "_ZNK7android6VectorIPNS_8hardware9BHwBinderEE15do_move_forwardEPvPKvm",
   "parameters" :
   [
    {
     "is_this_ptr" : true,
     "referenced_type" : "type-690"
    },
    {
     "referenced_type" : "type-23"
    },
    {
     "referenced_type" : "type-110"
    },
    {
     "referenced_type" : "type-7"
    }
   ],
   "return_type" : "type-17",
   "source_file" : "/system/core/libutils/include/utils/Vector.h"
  },
  {
   "access" : "protected",
   "function_name" : "android::Vector<android::hardware::BHwBinder *>::do_move_backward",
   "linker_set_key" : "_ZNK7android6VectorIPNS_8hardware9BHwBinderEE16do_move_backwardEPvPKvm",
   "parameters" :
   [
    {
     "is_this_ptr" : true,
     "referenced_type" : "type-690"
    },
    {
     "referenced_type" : "type-23"
    },
    {
     "referenced_type" : "type-110"
    },
    {
     "referenced_type" : "type-7"
    }
   ],
   "return_type" : "type-17",
   "source_file" : "/system/core/libutils/include/utils/Vector.h"
  },
  {
   "access" : "protected",
   "function_name" : "android::Vector<android::hardware::BHwBinder *>::do_copy",
   "linker_set_key" : "_ZNK7android6VectorIPNS_8hardware9BHwBinderEE7do_copyEPvPKvm",
   "parameters" :
   [
    {
     "is_this_ptr" : true,
     "referenced_type" : "type-690"
    },
    {
     "referenced_type" : "type-23"
    },
    {
     "referenced_type" : "type-110"
    },
    {
     "referenced_type" : "type-7"
    }
   ],
   "return_type" : "type-17",
   "source_file" : "/system/core/libutils/include/utils/Vector.h"
  },
  {
   "access" : "protected",
   "function_name" : "android::Vector<android::hardware::BHwBinder *>::do_splat",
   "linker_set_key" : "_ZNK7android6VectorIPNS_8hardware9BHwBinderEE8do_splatEPvPKvm",
   "parameters" :
   [
    {
     "is_this_ptr" : true,
     "referenced_type" : "type-690"
    },
    {
     "referenced_type" : "type-23"
    },
    {
     "referenced_type" : "type-110"
    },
    {
     "referenced_type" : "type-7"
    }
   ],
   "return_type" : "type-17",
   "source_file" : "/system/core/libutils/include/utils/Vector.h"
  },
  {
   "access" : "protected",
   "function_name" : "android::Vector<int>::do_destroy",
   "linker_set_key" : "_ZNK7android6VectorIiE10do_destroyEPvm",
   "parameters" :
   [
    {
     "is_this_ptr" : true,
     "referenced_type" : "type-624"
    },
    {
     "referenced_type" : "type-23"
    },
    {
     "referenced_type" : "type-7"
    }
   ],
   "return_type" : "type-17",
   "source_file" : "/system/core/libutils/include/utils/Vector.h"
  },
  {
   "access" : "protected",
   "function_name" : "android::Vector<int>::do_construct",
   "linker_set_key" : "_ZNK7android6VectorIiE12do_constructEPvm",
   "parameters" :
   [
    {
     "is_this_ptr" : true,
     "referenced_type" : "type-624"
    },
    {
     "referenced_type" : "type-23"
    },
    {
     "referenced_type" : "type-7"
    }
   ],
   "return_type" : "type-17",
   "source_file" : "/system/core/libutils/include/utils/Vector.h"
  },
  {
   "access" : "protected",
   "function_name" : "android::Vector<int>::do_move_forward",
   "linker_set_key" : "_ZNK7android6VectorIiE15do_move_forwardEPvPKvm",
   "parameters" :
   [
    {
     "is_this_ptr" : true,
     "referenced_type" : "type-624"
    },
    {
     "referenced_type" : "type-23"
    },
    {
     "referenced_type" : "type-110"
    },
    {
     "referenced_type" : "type-7"
    }
   ],
   "return_type" : "type-17",
   "source_file" : "/system/core/libutils/include/utils/Vector.h"
  },
  {
   "access" : "protected",
   "function_name" : "android::Vector<int>::do_move_backward",
   "linker_set_key" : "_ZNK7android6VectorIiE16do_move_backwardEPvPKvm",
   "parameters" :
   [
    {
     "is_this_ptr" : true,
     "referenced_type" : "type-624"
    },
    {
     "referenced_type" : "type-23"
    },
    {
     "referenced_type" : "type-110"
    },
    {
     "referenced_type" : "type-7"
    }
   ],
   "return_type" : "type-17",
   "source_file" : "/system/core/libutils/include/utils/Vector.h"
  },
  {
   "access" : "protected",
   "function_name" : "android::Vector<int>::do_copy",
   "linker_set_key" : "_ZNK7android6VectorIiE7do_copyEPvPKvm",
   "parameters" :
   [
    {
     "is_this_ptr" : true,
     "referenced_type" : "type-624"
    },
    {
     "referenced_type" : "type-23"
    },
    {
     "referenced_type" : "type-110"
    },
    {
     "referenced_type" : "type-7"
    }
   ],
   "return_type" : "type-17",
   "source_file" : "/system/core/libutils/include/utils/Vector.h"
  },
  {
   "access" : "protected",
   "function_name" : "android::Vector<int>::do_splat",
   "linker_set_key" : "_ZNK7android6VectorIiE8do_splatEPvPKvm",
   "parameters" :
   [
    {
     "is_this_ptr" : true,
     "referenced_type" : "type-624"
    },
    {
     "referenced_type" : "type-23"
    },
    {
     "referenced_type" : "type-110"
    },
    {
     "referenced_type" : "type-7"
    }
   ],
   "return_type" : "type-17",
   "source_file" : "/system/core/libutils/include/utils/Vector.h"
  },
  {
   "function_name" : "android::hardware::BpHwBinder::findObject",
   "linker_set_key" : "_ZNK7android8hardware10BpHwBinder10findObjectEPKv",
   "parameters" :
   [
    {
     "is_this_ptr" : true,
     "referenced_type" : "type-293"
    },
    {
     "referenced_type" : "type-110"
    }
   ],
   "return_type" : "type-23",
   "source_file" : "/system/libhwbinder/include/hwbinder/BpHwBinder.h"
  },
  {
   "function_name" : "android::hardware::BpHwBinder::ObjectManager::find",
   "linker_set_key" : "_ZNK7android8hardware10BpHwBinder13ObjectManager4findEPKv",
   "parameters" :
   [
    {
     "is_this_ptr" : true,
     "referenced_type" : "type-538"
    },
    {
     "referenced_type" : "type-110"
    }
   ],
   "return_type" : "type-23",
   "source_file" : "/system/libhwbinder/include/hwbinder/BpHwBinder.h"
  },
  {
   "function_name" : "android::hardware::ProcessState::isContextManager",
   "linker_set_key" : "_ZNK7android8hardware12ProcessState16isContextManagerEv",
   "parameters" :
   [
    {
     "is_this_ptr" : true,
     "referenced_type" : "type-393"
    }
   ],
   "return_type" : "type-14",
   "source_file" : "/system/libhwbinder/include/hwbinder/ProcessState.h"
  },
  {
   "function_name" : "android::hardware::IPCThreadState::getCallingPid",
   "linker_set_key" : "_ZNK7android8hardware14IPCThreadState13getCallingPidEv",
   "parameters" :
   [
    {
     "is_this_ptr" : true,
     "referenced_type" : "type-711"
    }
   ],
   "return_type" : "type-9",
   "source_file" : "/system/libhwbinder/include/hwbinder/IPCThreadState.h"
  },
  {
   "function_name" : "android::hardware::IPCThreadState::getCallingSid",
   "linker_set_key" : "_ZNK7android8hardware14IPCThreadState13getCallingSidEv",
   "parameters" :
   [
    {
     "is_this_ptr" : true,
     "referenced_type" : "type-711"
    }
   ],
   "return_type" : "type-383",
   "source_file" : "/system/libhwbinder/include/hwbinder/IPCThreadState.h"
  },
  {
   "function_name" : "android::hardware::IPCThreadState::getCallingUid",
   "linker_set_key" : "_ZNK7android8hardware14IPCThreadState13getCallingUidEv",
   "parameters" :
   [
    {
     "is_this_ptr" : true,
     "referenced_type" : "type-711"
    }
   ],
   "return_type" : "type-4",
   "source_file" : "/system/libhwbinder/include/hwbinder/IPCThreadState.h"
  },
  {
   "function_name" : "android::hardware::IPCThreadState::isServingCall",
   "linker_set_key" : "_ZNK7android8hardware14IPCThreadState13isServingCallEv",
   "parameters" :
   [
    {
     "is_this_ptr" : true,
     "referenced_type" : "type-711"
    }
   ],
   "return_type" : "type-14",
   "source_file" : "/system/libhwbinder/include/hwbinder/IPCThreadState.h"
  },
  {
   "function_name" : "android::hardware::IPCThreadState::getStrictModePolicy",
   "linker_set_key" : "_ZNK7android8hardware14IPCThreadState19getStrictModePolicyEv",
   "parameters" :
   [
    {
     "is_this_ptr" : true,
     "referenced_type" : "type-711"
    }
   ],
   "return_type" : "type-9",
   "source_file" : "/system/libhwbinder/include/hwbinder/IPCThreadState.h"
  },
  {
   "function_name" : "android::hardware::IPCThreadState::getLastTransactionBinderFlags",
   "linker_set_key" : "_ZNK7android8hardware14IPCThreadState29getLastTransactionBinderFlagsEv",
   "parameters" :
   [
    {
     "is_this_ptr" : true,
     "referenced_type" : "type-711"
    }
   ],
   "return_type" : "type-9",
   "source_file" : "/system/libhwbinder/include/hwbinder/IPCThreadState.h"
  },
  {
   "access" : "private",
   "function_name" : "android::hardware::BufferedTextOutput::getBuffer",
   "linker_set_key" : "_ZNK7android8hardware18BufferedTextOutput9getBufferEv",
   "parameters" :
   [
    {
     "is_this_ptr" : true,
     "referenced_type" : "type-619"
    }
   ],
   "return_type" : "type-582",
   "source_file" : "/system/libhwbinder/include/hwbinder/BufferedTextOutput.h"
  },
  {
   "access" : "private",
   "function_name" : "android::hardware::Parcel::clearCache",
   "linker_set_key" : "_ZNK7android8hardware6Parcel10clearCacheEv",
   "parameters" :
   [
    {
     "is_this_ptr" : true,
     "referenced_type" : "type-77"
    }
   ],
   "return_type" : "type-17",
   "source_file" : "/system/libhwbinder/include/hwbinder/Parcel.h"
  },
  {
   "function_name" : "android::hardware::Parcel::errorCheck",
   "linker_set_key" : "_ZNK7android8hardware6Parcel10errorCheckEv",
   "parameters" :
   [
    {
     "is_this_ptr" : true,
     "referenced_type" : "type-77"
    }
   ],
   "return_type" : "type-9",
   "source_file" : "/system/libhwbinder/include/hwbinder/Parcel.h"
  },
  {
   "function_name" : "android::hardware::Parcel::findBuffer",
   "linker_set_key" : "_ZNK7android8hardware6Parcel10findBufferEPKvmPbPmS5_",
   "parameters" :
   [
    {
     "is_this_ptr" : true,
     "referenced_type" : "type-77"
    },
    {
     "referenced_type" : "type-110"
    },
    {
     "referenced_type" : "type-7"
    },
    {
     "referenced_type" : "type-105"
    },
    {
     "referenced_type" : "type-651"
    },
    {
     "referenced_type" : "type-651"
    }
   ],
   "return_type" : "type-9",
   "source_file" : "/system/libhwbinder/include/hwbinder/Parcel.h"
  },
  {
   "access" : "private",
   "function_name" : "android::hardware::Parcel::ipcObjects",
   "linker_set_key" : "_ZNK7android8hardware6Parcel10ipcObjectsEv",
   "parameters" :
   [
    {
     "is_this_ptr" : true,
     "referenced_type" : "type-77"
    }
   ],
   "return_type" : "type-7",
   "source_file" : "/system/libhwbinder/include/hwbinder/Parcel.h"
  },
  {
   "function_name" : "android::hardware::Parcel::readBuffer",
   "linker_set_key" : "_ZNK7android8hardware6Parcel10readBufferEmPmPPKv",
   "parameters" :
   [
    {
     "is_this_ptr" : true,
     "referenced_type" : "type-77"
    },
    {
     "referenced_type" : "type-7"
    },
    {
     "referenced_type" : "type-651"
    },
    {
     "referenced_type" : "type-109"
    }
   ],
   "return_type" : "type-9",
   "source_file" : "/system/libhwbinder/include/hwbinder/Parcel.h"
  },
  {
   "access" : "private",
   "function_name" : "android::hardware::Parcel::readBuffer",
   "linker_set_key" : "_ZNK7android8hardware6Parcel10readBufferEmPmjmmPPKv",
   "parameters" :
   [
    {
     "is_this_ptr" : true,
     "referenced_type" : "type-77"
    },
    {
     "referenced_type" : "type-7"
    },
    {
     "referenced_type" : "type-651"
    },
    {
     "referenced_type" : "type-4"
    },
    {
     "referenced_type" : "type-7"
    },
    {
     "referenced_type" : "type-7"
    },
    {
     "referenced_type" : "type-109"
    }
   ],
   "return_type" : "type-9",
   "source_file" : "/system/libhwbinder/include/hwbinder/Parcel.h"
  },
  {
   "function_name" : "android::hardware::Parcel::readDouble",
   "linker_set_key" : "_ZNK7android8hardware6Parcel10readDoubleEPd",
   "parameters" :
   [
    {
     "is_this_ptr" : true,
     "referenced_type" : "type-77"
    },
    {
     "referenced_type" : "type-103"
    }
   ],
   "return_type" : "type-9",
   "source_file" : "/system/libhwbinder/include/hwbinder/Parcel.h"
  },
  {
   "function_name" : "android::hardware::Parcel::readDouble",
   "linker_set_key" : "_ZNK7android8hardware6Parcel10readDoubleEv",
   "parameters" :
   [
    {
     "is_this_ptr" : true,
     "referenced_type" : "type-77"
    }
   ],
   "return_type" : "type-104",
   "source_file" : "/system/libhwbinder/include/hwbinder/Parcel.h"
  },
  {
   "function_name" : "android::hardware::Parcel::readObject",
   "linker_set_key" : "_ZNK7android8hardware6Parcel10readObjectI18flat_binder_objectEEPKT_Pm",
   "parameters" :
   [
    {
     "is_this_ptr" : true,
     "referenced_type" : "type-77"
    },
    {
     "default_arg" : true,
     "referenced_type" : "type-651"
    }
   ],
   "return_type" : "type-108",
   "source_file" : "/system/libhwbinder/include/hwbinder/Parcel.h",
   "template_args" : [ "type-826" ]
  },
  {
   "function_name" : "android::hardware::Parcel::readUint16",
   "linker_set_key" : "_ZNK7android8hardware6Parcel10readUint16EPt",
   "parameters" :
   [
    {
     "is_this_ptr" : true,
     "referenced_type" : "type-77"
    },
    {
     "referenced_type" : "type-96"
    }
   ],
   "return_type" : "type-9",
   "source_file" : "/system/libhwbinder/include/hwbinder/Parcel.h"
  },
  {
   "function_name" : "android::hardware::Parcel::readUint32",
   "linker_set_key" : "_ZNK7android8hardware6Parcel10readUint32EPj",
   "parameters" :
   [
    {
     "is_this_ptr" : true,
     "referenced_type" : "type-77"
    },
    {
     "referenced_type" : "type-98"
    }
   ],
   "return_type" : "type-9",
   "source_file" : "/system/libhwbinder/include/hwbinder/Parcel.h"
  },
  {
   "function_name" : "android::hardware::Parcel::readUint32",
   "linker_set_key" : "_ZNK7android8hardware6Parcel10readUint32Ev",
   "parameters" :
   [
    {
     "is_this_ptr" : true,
     "referenced_type" : "type-77"
    }
   ],
   "return_type" : "type-4",
   "source_file" : "/system/libhwbinder/include/hwbinder/Parcel.h"
  },
  {
   "function_name" : "android::hardware::Parcel::readUint64",
   "linker_set_key" : "_ZNK7android8hardware6Parcel10readUint64EPm",
   "parameters" :
   [
    {
     "is_this_ptr" : true,
     "referenced_type" : "type-77"
    },
    {
     "referenced_type" : "type-651"
    }
   ],
   "return_type" : "type-9",
   "source_file" : "/system/libhwbinder/include/hwbinder/Parcel.h"
  },
  {
   "function_name" : "android::hardware::Parcel::readUint64",
   "linker_set_key" : "_ZNK7android8hardware6Parcel10readUint64Ev",
   "parameters" :
   [
    {
     "is_this_ptr" : true,
     "referenced_type" : "type-77"
    }
   ],
   "return_type" : "type-7",
   "source_file" : "/system/libhwbinder/include/hwbinder/Parcel.h"
  },
  {
   "access" : "private",
   "function_name" : "android::hardware::Parcel::scanForFds",
   "linker_set_key" : "_ZNK7android8hardware6Parcel10scanForFdsEv",
   "parameters" :
   [
    {
     "is_this_ptr" : true,
     "referenced_type" : "type-77"
    }
   ],
   "return_type" : "type-17",
   "source_file" : "/system/libhwbinder/include/hwbinder/Parcel.h"
  },
  {
   "access" : "private",
   "function_name" : "android::hardware::Parcel::ipcDataSize",
   "linker_set_key" : "_ZNK7android8hardware6Parcel11ipcDataSizeEv",
   "parameters" :
   [
    {
     "is_this_ptr" : true,
     "referenced_type" : "type-77"
    }
   ],
   "return_type" : "type-7",
   "source_file" : "/system/libhwbinder/include/hwbinder/Parcel.h"
  },
  {
   "function_name" : "android::hardware::Parcel::readCString",
   "linker_set_key" : "_ZNK7android8hardware6Parcel11readCStringEv",
   "parameters" :
   [
    {
     "is_this_ptr" : true,
     "referenced_type" : "type-77"
    }
   ],
   "return_type" : "type-383",
   "source_file" : "/system/libhwbinder/include/hwbinder/Parcel.h"
  },
  {
   "function_name" : "android::hardware::Parcel::readInplace",
   "linker_set_key" : "_ZNK7android8hardware6Parcel11readInplaceEm",
   "parameters" :
   [
    {
     "is_this_ptr" : true,
     "referenced_type" : "type-77"
    },
    {
     "referenced_type" : "type-7"
    }
   ],
   "return_type" : "type-110",
   "source_file" : "/system/libhwbinder/include/hwbinder/Parcel.h"
  },
  {
   "access" : "private",
   "function_name" : "android::hardware::Parcel::readPointer",
   "linker_set_key" : "_ZNK7android8hardware6Parcel11readPointerEPm",
   "parameters" :
   [
    {
     "is_this_ptr" : true,
     "referenced_type" : "type-77"
    },
    {
     "referenced_type" : "type-651"
    }
   ],
   "return_type" : "type-9",
   "source_file" : "/system/libhwbinder/include/hwbinder/Parcel.h"
  },
  {
   "access" : "private",
   "function_name" : "android::hardware::Parcel::readPointer",
   "linker_set_key" : "_ZNK7android8hardware6Parcel11readPointerEv",
   "parameters" :
   [
    {
     "is_this_ptr" : true,
     "referenced_type" : "type-77"
    }
   ],
   "return_type" : "type-7",
   "source_file" : "/system/libhwbinder/include/hwbinder/Parcel.h"
  },
  {
   "access" : "private",
   "function_name" : "android::hardware::Parcel::updateCache",
   "linker_set_key" : "_ZNK7android8hardware6Parcel11updateCacheEv",
   "parameters" :
   [
    {
     "is_this_ptr" : true,
     "referenced_type" : "type-77"
    }
   ],
   "return_type" : "type-17",
   "source_file" : "/system/libhwbinder/include/hwbinder/Parcel.h"
  },
  {
   "function_name" : "android::hardware::Parcel::dataCapacity",
   "linker_set_key" : "_ZNK7android8hardware6Parcel12dataCapacityEv",
   "parameters" :
   [
    {
     "is_this_ptr" : true,
     "referenced_type" : "type-77"
    }
   ],
   "return_type" : "type-7",
   "source_file" : "/system/libhwbinder/include/hwbinder/Parcel.h"
  },
  {
   "function_name" : "android::hardware::Parcel::dataPosition",
   "linker_set_key" : "_ZNK7android8hardware6Parcel12dataPositionEv",
   "parameters" :
   [
    {
     "is_this_ptr" : true,
     "referenced_type" : "type-77"
    }
   ],
   "return_type" : "type-7",
   "source_file" : "/system/libhwbinder/include/hwbinder/Parcel.h"
  },
  {
   "function_name" : "android::hardware::Parcel::objectsCount",
   "linker_set_key" : "_ZNK7android8hardware6Parcel12objectsCountEv",
   "parameters" :
   [
    {
     "is_this_ptr" : true,
     "referenced_type" : "type-77"
    }
   ],
   "return_type" : "type-7",
   "source_file" : "/system/libhwbinder/include/hwbinder/Parcel.h"
  },
  {
   "function_name" : "android::hardware::Parcel::readString16",
   "linker_set_key" : "_ZNK7android8hardware6Parcel12readString16EPNS_8String16E",
   "parameters" :
   [
    {
     "is_this_ptr" : true,
     "referenced_type" : "type-77"
    },
    {
     "referenced_type" : "type-639"
    }
   ],
   "return_type" : "type-9",
   "source_file" : "/system/libhwbinder/include/hwbinder/Parcel.h"
  },
  {
   "function_name" : "android::hardware::Parcel::readString16",
   "linker_set_key" : "_ZNK7android8hardware6Parcel12readString16EPNSt3__110unique_ptrINS_8String16ENS2_14default_deleteIS4_EEEE",
   "parameters" :
   [
    {
     "is_this_ptr" : true,
     "referenced_type" : "type-77"
    },
    {
     "referenced_type" : "type-106"
    }
   ],
   "return_type" : "type-9",
   "source_file" : "/system/libhwbinder/include/hwbinder/Parcel.h"
  },
  {
   "function_name" : "android::hardware::Parcel::readString16",
   "linker_set_key" : "_ZNK7android8hardware6Parcel12readString16Ev",
   "parameters" :
   [
    {
     "is_this_ptr" : true,
     "referenced_type" : "type-77"
    }
   ],
   "return_type" : "type-289",
   "source_file" : "/system/libhwbinder/include/hwbinder/Parcel.h"
  },
  {
   "access" : "private",
   "function_name" : "android::hardware::Parcel::ipcBufferSize",
   "linker_set_key" : "_ZNK7android8hardware6Parcel13ipcBufferSizeEv",
   "parameters" :
   [
    {
     "is_this_ptr" : true,
     "referenced_type" : "type-77"
    }
   ],
   "return_type" : "type-7",
   "source_file" : "/system/libhwbinder/include/hwbinder/Parcel.h"
  },
  {
   "function_name" : "android::hardware::Parcel::readReference",
   "linker_set_key" : "_ZNK7android8hardware6Parcel13readReferenceEPPKvPmPb",
   "parameters" :
   [
    {
     "is_this_ptr" : true,
     "referenced_type" : "type-77"
    },
    {
     "referenced_type" : "type-109"
    },
    {
     "referenced_type" : "type-651"
    },
    {
     "referenced_type" : "type-105"
    }
   ],
   "return_type" : "type-9",
   "source_file" : "/system/libhwbinder/include/hwbinder/Parcel.h"
  },
  {
   "function_name" : "android::hardware::Parcel::readWeakBinder",
   "linker_set_key" : "_ZNK7android8hardware6Parcel14readWeakBinderEv",
   "parameters" :
   [
    {
     "is_this_ptr" : true,
     "referenced_type" : "type-77"
    }
   ],
   "return_type" : "type-52",
   "source_file" : "/system/libhwbinder/include/hwbinder/Parcel.h"
  },
  {
   "access" : "private",
   "function_name" : "android::hardware::Parcel::ipcObjectsCount",
   "linker_set_key" : "_ZNK7android8hardware6Parcel15ipcObjectsCountEv",
   "parameters" :
   [
    {
     "is_this_ptr" : true,
     "referenced_type" : "type-77"
    }
   ],
   "return_type" : "type-7",
   "source_file" : "/system/libhwbinder/include/hwbinder/Parcel.h"
  },
  {
   "function_name" : "android::hardware::Parcel::quickFindBuffer",
   "linker_set_key" : "_ZNK7android8hardware6Parcel15quickFindBufferEPKvPm",
   "parameters" :
   [
    {
     "is_this_ptr" : true,
     "referenced_type" : "type-77"
    },
    {
     "referenced_type" : "type-110"
    },
    {
     "referenced_type" : "type-651"
    }
   ],
   "return_type" : "type-9",
   "source_file" : "/system/libhwbinder/include/hwbinder/Parcel.h"
  },
  {
   "function_name" : "android::hardware::Parcel::setDataPosition",
   "linker_set_key" : "_ZNK7android8hardware6Parcel15setDataPositionEm",
   "parameters" :
   [
    {
     "is_this_ptr" : true,
     "referenced_type" : "type-77"
    },
    {
     "referenced_type" : "type-7"
    }
   ],
   "return_type" : "type-17",
   "source_file" : "/system/libhwbinder/include/hwbinder/Parcel.h"
  },
  {
   "function_name" : "android::hardware::Parcel::enforceInterface",
   "linker_set_key" : "_ZNK7android8hardware6Parcel16enforceInterfaceEPKc",
   "parameters" :
   [
    {
     "is_this_ptr" : true,
     "referenced_type" : "type-77"
    },
    {
     "referenced_type" : "type-383"
    }
   ],
   "return_type" : "type-14",
   "source_file" : "/system/libhwbinder/include/hwbinder/Parcel.h"
  },
  {
   "function_name" : "android::hardware::Parcel::readStrongBinder",
   "linker_set_key" : "_ZNK7android8hardware6Parcel16readStrongBinderEPNS_2spINS0_7IBinderEEE",
   "parameters" :
   [
    {
     "is_this_ptr" : true,
     "referenced_type" : "type-77"
    },
    {
     "referenced_type" : "type-665"
    }
   ],
   "return_type" : "type-9",
   "source_file" : "/system/libhwbinder/include/hwbinder/Parcel.h"
  },
  {
   "function_name" : "android::hardware::Parcel::readStrongBinder",
   "linker_set_key" : "_ZNK7android8hardware6Parcel16readStrongBinderEv",
   "parameters" :
   [
    {
     "is_this_ptr" : true,
     "referenced_type" : "type-77"
    }
   ],
   "return_type" : "type-71",
   "source_file" : "/system/libhwbinder/include/hwbinder/Parcel.h"
  },
  {
   "function_name" : "android::hardware::Parcel::readEmbeddedBuffer",
   "linker_set_key" : "_ZNK7android8hardware6Parcel18readEmbeddedBufferEmPmmmPPKv",
   "parameters" :
   [
    {
     "is_this_ptr" : true,
     "referenced_type" : "type-77"
    },
    {
     "referenced_type" : "type-7"
    },
    {
     "referenced_type" : "type-651"
    },
    {
     "referenced_type" : "type-7"
    },
    {
     "referenced_type" : "type-7"
    },
    {
     "referenced_type" : "type-109"
    }
   ],
   "return_type" : "type-9",
   "source_file" : "/system/libhwbinder/include/hwbinder/Parcel.h"
  },
  {
   "function_name" : "android::hardware::Parcel::readNullableBuffer",
   "linker_set_key" : "_ZNK7android8hardware6Parcel18readNullableBufferEmPmPPKv",
   "parameters" :
   [
    {
     "is_this_ptr" : true,
     "referenced_type" : "type-77"
    },
    {
     "referenced_type" : "type-7"
    },
    {
     "referenced_type" : "type-651"
    },
    {
     "referenced_type" : "type-109"
    }
   ],
   "return_type" : "type-9",
   "source_file" : "/system/libhwbinder/include/hwbinder/Parcel.h"
  },
  {
   "access" : "private",
   "function_name" : "android::hardware::Parcel::verifyBufferObject",
   "linker_set_key" : "_ZNK7android8hardware6Parcel18verifyBufferObjectEPK20binder_buffer_objectmjmm",
   "parameters" :
   [
    {
     "is_this_ptr" : true,
     "referenced_type" : "type-77"
    },
    {
     "referenced_type" : "type-115"
    },
    {
     "referenced_type" : "type-7"
    },
    {
     "referenced_type" : "type-4"
    },
    {
     "referenced_type" : "type-7"
    },
    {
     "referenced_type" : "type-7"
    }
   ],
   "return_type" : "type-14",
   "source_file" : "/system/libhwbinder/include/hwbinder/Parcel.h"
  },
  {
   "function_name" : "android::hardware::Parcel::readString16Inplace",
   "linker_set_key" : "_ZNK7android8hardware6Parcel19readString16InplaceEPm",
   "parameters" :
   [
    {
     "is_this_ptr" : true,
     "referenced_type" : "type-77"
    },
    {
     "referenced_type" : "type-651"
    }
   ],
   "return_type" : "type-290",
   "source_file" : "/system/libhwbinder/include/hwbinder/Parcel.h"
  },
  {
   "access" : "private",
   "function_name" : "android::hardware::Parcel::validateBufferChild",
   "linker_set_key" : "_ZNK7android8hardware6Parcel19validateBufferChildEmm",
   "parameters" :
   [
    {
     "is_this_ptr" : true,
     "referenced_type" : "type-77"
    },
    {
     "referenced_type" : "type-7"
    },
    {
     "referenced_type" : "type-7"
    }
   ],
   "return_type" : "type-14",
   "source_file" : "/system/libhwbinder/include/hwbinder/Parcel.h"
  },
  {
   "access" : "private",
   "function_name" : "android::hardware::Parcel::validateBufferParent",
   "linker_set_key" : "_ZNK7android8hardware6Parcel20validateBufferParentEmm",
   "parameters" :
   [
    {
     "is_this_ptr" : true,
     "referenced_type" : "type-77"
    },
    {
     "referenced_type" : "type-7"
    },
    {
     "referenced_type" : "type-7"
    }
   ],
   "return_type" : "type-14",
   "source_file" : "/system/libhwbinder/include/hwbinder/Parcel.h"
  },
  {
   "function_name" : "android::hardware::Parcel::readEmbeddedReference",
   "linker_set_key" : "_ZNK7android8hardware6Parcel21readEmbeddedReferenceEPPKvPmmmPb",
   "parameters" :
   [
    {
     "is_this_ptr" : true,
     "referenced_type" : "type-77"
    },
    {
     "referenced_type" : "type-109"
    },
    {
     "referenced_type" : "type-651"
    },
    {
     "referenced_type" : "type-7"
    },
    {
     "referenced_type" : "type-7"
    },
    {
     "referenced_type" : "type-105"
    }
   ],
   "return_type" : "type-9",
   "source_file" : "/system/libhwbinder/include/hwbinder/Parcel.h"
  },
  {
   "function_name" : "android::hardware::Parcel::readNativeHandleNoDup",
   "linker_set_key" : "_ZNK7android8hardware6Parcel21readNativeHandleNoDupEPPK13native_handle",
   "parameters" :
   [
    {
     "is_this_ptr" : true,
     "referenced_type" : "type-77"
    },
    {
     "referenced_type" : "type-112"
    }
   ],
   "return_type" : "type-9",
   "source_file" : "/system/libhwbinder/include/hwbinder/Parcel.h"
  },
  {
   "function_name" : "android::hardware::Parcel::readEmbeddedNativeHandle",
   "linker_set_key" : "_ZNK7android8hardware6Parcel24readEmbeddedNativeHandleEmmPPK13native_handle",
   "parameters" :
   [
    {
     "is_this_ptr" : true,
     "referenced_type" : "type-77"
    },
    {
     "referenced_type" : "type-7"
    },
    {
     "referenced_type" : "type-7"
    },
    {
     "referenced_type" : "type-112"
    }
   ],
   "return_type" : "type-9",
   "source_file" : "/system/libhwbinder/include/hwbinder/Parcel.h"
  },
  {
   "function_name" : "android::hardware::Parcel::readNullableStrongBinder",
   "linker_set_key" : "_ZNK7android8hardware6Parcel24readNullableStrongBinderEPNS_2spINS0_7IBinderEEE",
   "parameters" :
   [
    {
     "is_this_ptr" : true,
     "referenced_type" : "type-77"
    },
    {
     "referenced_type" : "type-665"
    }
   ],
   "return_type" : "type-9",
   "source_file" : "/system/libhwbinder/include/hwbinder/Parcel.h"
  },
  {
   "function_name" : "android::hardware::Parcel::readNullableEmbeddedBuffer",
   "linker_set_key" : "_ZNK7android8hardware6Parcel26readNullableEmbeddedBufferEmPmmmPPKv",
   "parameters" :
   [
    {
     "is_this_ptr" : true,
     "referenced_type" : "type-77"
    },
    {
     "referenced_type" : "type-7"
    },
    {
     "referenced_type" : "type-651"
    },
    {
     "referenced_type" : "type-7"
    },
    {
     "referenced_type" : "type-7"
    },
    {
     "referenced_type" : "type-109"
    }
   ],
   "return_type" : "type-9",
   "source_file" : "/system/libhwbinder/include/hwbinder/Parcel.h"
  },
  {
   "function_name" : "android::hardware::Parcel::readNullableNativeHandleNoDup",
   "linker_set_key" : "_ZNK7android8hardware6Parcel29readNullableNativeHandleNoDupEPPK13native_handle",
   "parameters" :
   [
    {
     "is_this_ptr" : true,
     "referenced_type" : "type-77"
    },
    {
     "referenced_type" : "type-112"
    }
   ],
   "return_type" : "type-9",
   "source_file" : "/system/libhwbinder/include/hwbinder/Parcel.h"
  },
  {
   "access" : "private",
   "function_name" : "android::hardware::Parcel::readNullableNativeHandleNoDup",
   "linker_set_key" : "_ZNK7android8hardware6Parcel29readNullableNativeHandleNoDupEPPK13native_handlebmm",
   "parameters" :
   [
    {
     "is_this_ptr" : true,
     "referenced_type" : "type-77"
    },
    {
     "referenced_type" : "type-112"
    },
    {
     "referenced_type" : "type-14"
    },
    {
     "default_arg" : true,
     "referenced_type" : "type-7"
    },
    {
     "default_arg" : true,
     "referenced_type" : "type-7"
    }
   ],
   "return_type" : "type-9",
   "source_file" : "/system/libhwbinder/include/hwbinder/Parcel.h"
  },
  {
   "function_name" : "android::hardware::Parcel::readNullableEmbeddedNativeHandle",
   "linker_set_key" : "_ZNK7android8hardware6Parcel32readNullableEmbeddedNativeHandleEmmPPK13native_handle",
   "parameters" :
   [
    {
     "is_this_ptr" : true,
     "referenced_type" : "type-77"
    },
    {
     "referenced_type" : "type-7"
    },
    {
     "referenced_type" : "type-7"
    },
    {
     "referenced_type" : "type-112"
    }
   ],
   "return_type" : "type-9",
   "source_file" : "/system/libhwbinder/include/hwbinder/Parcel.h"
  },
  {
   "function_name" : "android::hardware::Parcel::data",
   "linker_set_key" : "_ZNK7android8hardware6Parcel4dataEv",
   "parameters" :
   [
    {
     "is_this_ptr" : true,
     "referenced_type" : "type-77"
    }
   ],
   "return_type" : "type-19",
   "source_file" : "/system/libhwbinder/include/hwbinder/Parcel.h"
  },
  {
   "function_name" : "android::hardware::Parcel::read",
   "linker_set_key" : "_ZNK7android8hardware6Parcel4readEPvm",
   "parameters" :
   [
    {
     "is_this_ptr" : true,
     "referenced_type" : "type-77"
    },
    {
     "referenced_type" : "type-23"
    },
    {
     "referenced_type" : "type-7"
    }
   ],
   "return_type" : "type-9",
   "source_file" : "/system/libhwbinder/include/hwbinder/Parcel.h"
  },
  {
   "function_name" : "android::hardware::Parcel::print",
   "linker_set_key" : "_ZNK7android8hardware6Parcel5printERNS0_10TextOutputEj",
   "parameters" :
   [
    {
     "is_this_ptr" : true,
     "referenced_type" : "type-77"
    },
    {
     "referenced_type" : "type-587"
    },
    {
     "default_arg" : true,
     "referenced_type" : "type-4"
    }
   ],
   "return_type" : "type-17",
   "source_file" : "/system/libhwbinder/include/hwbinder/Parcel.h"
  },
  {
   "access" : "private",
   "function_name" : "android::hardware::Parcel::ipcData",
   "linker_set_key" : "_ZNK7android8hardware6Parcel7ipcDataEv",
   "parameters" :
   [
    {
     "is_this_ptr" : true,
     "referenced_type" : "type-77"
    }
   ],
   "return_type" : "type-7",
   "source_file" : "/system/libhwbinder/include/hwbinder/Parcel.h"
  },
  {
   "access" : "private",
   "function_name" : "android::hardware::Parcel::objects",
   "linker_set_key" : "_ZNK7android8hardware6Parcel7objectsEv",
   "parameters" :
   [
    {
     "is_this_ptr" : true,
     "referenced_type" : "type-77"
    }
   ],
   "return_type" : "type-21",
   "source_file" : "/system/libhwbinder/include/hwbinder/Parcel.h"
  },
  {
   "function_name" : "android::hardware::Parcel::dataSize",
   "linker_set_key" : "_ZNK7android8hardware6Parcel8dataSizeEv",
   "parameters" :
   [
    {
     "is_this_ptr" : true,
     "referenced_type" : "type-77"
    }
   ],
   "return_type" : "type-7",
   "source_file" : "/system/libhwbinder/include/hwbinder/Parcel.h"
  },
  {
   "function_name" : "android::hardware::Parcel::readBool",
   "linker_set_key" : "_ZNK7android8hardware6Parcel8readBoolEPb",
   "parameters" :
   [
    {
     "is_this_ptr" : true,
     "referenced_type" : "type-77"
    },
    {
     "referenced_type" : "type-105"
    }
   ],
   "return_type" : "type-9",
   "source_file" : "/system/libhwbinder/include/hwbinder/Parcel.h"
  },
  {
   "function_name" : "android::hardware::Parcel::readBool",
   "linker_set_key" : "_ZNK7android8hardware6Parcel8readBoolEv",
   "parameters" :
   [
    {
     "is_this_ptr" : true,
     "referenced_type" : "type-77"
    }
   ],
   "return_type" : "type-14",
   "source_file" : "/system/libhwbinder/include/hwbinder/Parcel.h"
  },
  {
   "function_name" : "android::hardware::Parcel::readInt8",
   "linker_set_key" : "_ZNK7android8hardware6Parcel8readInt8EPa",
   "parameters" :
   [
    {
     "is_this_ptr" : true,
     "referenced_type" : "type-77"
    },
    {
     "referenced_type" : "type-92"
    }
   ],
   "return_type" : "type-9",
   "source_file" : "/system/libhwbinder/include/hwbinder/Parcel.h"
  },
  {
   "function_name" : "android::hardware::Parcel::dataAvail",
   "linker_set_key" : "_ZNK7android8hardware6Parcel9dataAvailEv",
   "parameters" :
   [
    {
     "is_this_ptr" : true,
     "referenced_type" : "type-77"
    }
   ],
   "return_type" : "type-7",
   "source_file" : "/system/libhwbinder/include/hwbinder/Parcel.h"
  },
  {
   "function_name" : "android::hardware::Parcel::readFloat",
   "linker_set_key" : "_ZNK7android8hardware6Parcel9readFloatEPf",
   "parameters" :
   [
    {
     "is_this_ptr" : true,
     "referenced_type" : "type-77"
    },
    {
     "referenced_type" : "type-101"
    }
   ],
   "return_type" : "type-9",
   "source_file" : "/system/libhwbinder/include/hwbinder/Parcel.h"
  },
  {
   "function_name" : "android::hardware::Parcel::readFloat",
   "linker_set_key" : "_ZNK7android8hardware6Parcel9readFloatEv",
   "parameters" :
   [
    {
     "is_this_ptr" : true,
     "referenced_type" : "type-77"
    }
   ],
   "return_type" : "type-102",
   "source_file" : "/system/libhwbinder/include/hwbinder/Parcel.h"
  },
  {
   "function_name" : "android::hardware::Parcel::readInt16",
   "linker_set_key" : "_ZNK7android8hardware6Parcel9readInt16EPs",
   "parameters" :
   [
    {
     "is_this_ptr" : true,
     "referenced_type" : "type-77"
    },
    {
     "referenced_type" : "type-94"
    }
   ],
   "return_type" : "type-9",
   "source_file" : "/system/libhwbinder/include/hwbinder/Parcel.h"
  },
  {
   "function_name" : "android::hardware::Parcel::readInt32",
   "linker_set_key" : "_ZNK7android8hardware6Parcel9readInt32EPi",
   "parameters" :
   [
    {
     "is_this_ptr" : true,
     "referenced_type" : "type-77"
    },
    {
     "referenced_type" : "type-712"
    }
   ],
   "return_type" : "type-9",
   "source_file" : "/system/libhwbinder/include/hwbinder/Parcel.h"
  },
  {
   "function_name" : "android::hardware::Parcel::readInt32",
   "linker_set_key" : "_ZNK7android8hardware6Parcel9readInt32Ev",
   "parameters" :
   [
    {
     "is_this_ptr" : true,
     "referenced_type" : "type-77"
    }
   ],
   "return_type" : "type-9",
   "source_file" : "/system/libhwbinder/include/hwbinder/Parcel.h"
  },
  {
   "function_name" : "android::hardware::Parcel::readInt64",
   "linker_set_key" : "_ZNK7android8hardware6Parcel9readInt64EPl",
   "parameters" :
   [
    {
     "is_this_ptr" : true,
     "referenced_type" : "type-77"
    },
    {
     "referenced_type" : "type-99"
    }
   ],
   "return_type" : "type-9",
   "source_file" : "/system/libhwbinder/include/hwbinder/Parcel.h"
  },
  {
   "function_name" : "android::hardware::Parcel::readInt64",
   "linker_set_key" : "_ZNK7android8hardware6Parcel9readInt64Ev",
   "parameters" :
   [
    {
     "is_this_ptr" : true,
     "referenced_type" : "type-77"
    }
   ],
   "return_type" : "type-100",
   "source_file" : "/system/libhwbinder/include/hwbinder/Parcel.h"
  },
  {
   "function_name" : "android::hardware::Parcel::readUint8",
   "linker_set_key" : "_ZNK7android8hardware6Parcel9readUint8EPh",
   "parameters" :
   [
    {
     "is_this_ptr" : true,
     "referenced_type" : "type-77"
    },
    {
     "referenced_type" : "type-10"
    }
   ],
   "return_type" : "type-9",
   "source_file" : "/system/libhwbinder/include/hwbinder/Parcel.h"
  },
  {
   "function_name" : "android::hardware::IBinder::checkSubclass",
   "linker_set_key" : "_ZNK7android8hardware7IBinder13checkSubclassEPKv",
   "parameters" :
   [
    {
     "is_this_ptr" : true,
     "referenced_type" : "type-647"
    },
    {
     "referenced_type" : "type-110"
    }
   ],
   "return_type" : "type-14",
   "source_file" : "/system/libhwbinder/include/hwbinder/IBinder.h"
  },
  {
   "function_name" : "android::hardware::BHwBinder::findObject",
   "linker_set_key" : "_ZNK7android8hardware9BHwBinder10findObjectEPKv",
   "parameters" :
   [
    {
     "is_this_ptr" : true,
     "referenced_type" : "type-136"
    },
    {
     "referenced_type" : "type-110"
    }
   ],
   "return_type" : "type-23",
   "source_file" : "/system/libhwbinder/include/hwbinder/Binder.h"
  },
  {
   "access" : "protected",
   "function_name" : "android::hardware::BpHwBinder::onFirstRef",
   "linker_set_key" : "_ZTv0_n32_N7android8hardware10BpHwBinder10onFirstRefEv",
   "parameters" :
   [
    {
     "is_this_ptr" : true,
     "referenced_type" : "type-657"
    }
   ],
   "return_type" : "type-17",
   "source_file" : "/system/libhwbinder/include/hwbinder/BpHwBinder.h"
  },
  {
   "access" : "protected",
   "function_name" : "android::hardware::BpHwRefBase::onFirstRef",
   "linker_set_key" : "_ZTv0_n32_N7android8hardware11BpHwRefBase10onFirstRefEv",
   "parameters" :
   [
    {
     "is_this_ptr" : true,
     "referenced_type" : "type-150"
    }
   ],
   "return_type" : "type-17",
   "source_file" : "/system/libhwbinder/include/hwbinder/Binder.h"
  },
  {
   "access" : "protected",
   "function_name" : "android::hardware::BpHwBinder::onLastStrongRef",
   "linker_set_key" : "_ZTv0_n40_N7android8hardware10BpHwBinder15onLastStrongRefEPKv",
   "parameters" :
   [
    {
     "is_this_ptr" : true,
     "referenced_type" : "type-657"
    },
    {
     "referenced_type" : "type-110"
    }
   ],
   "return_type" : "type-17",
   "source_file" : "/system/libhwbinder/include/hwbinder/BpHwBinder.h"
  },
  {
   "access" : "protected",
   "function_name" : "android::hardware::BpHwRefBase::onLastStrongRef",
   "linker_set_key" : "_ZTv0_n40_N7android8hardware11BpHwRefBase15onLastStrongRefEPKv",
   "parameters" :
   [
    {
     "is_this_ptr" : true,
     "referenced_type" : "type-150"
    },
    {
     "referenced_type" : "type-110"
    }
   ],
   "return_type" : "type-17",
   "source_file" : "/system/libhwbinder/include/hwbinder/Binder.h"
  },
  {
   "access" : "protected",
   "function_name" : "android::hardware::BpHwBinder::onIncStrongAttempted",
   "linker_set_key" : "_ZTv0_n48_N7android8hardware10BpHwBinder20onIncStrongAttemptedEjPKv",
   "parameters" :
   [
    {
     "is_this_ptr" : true,
     "referenced_type" : "type-657"
    },
    {
     "referenced_type" : "type-4"
    },
    {
     "referenced_type" : "type-110"
    }
   ],
   "return_type" : "type-14",
   "source_file" : "/system/libhwbinder/include/hwbinder/BpHwBinder.h"
  },
  {
   "access" : "protected",
   "function_name" : "android::hardware::BpHwRefBase::onIncStrongAttempted",
   "linker_set_key" : "_ZTv0_n48_N7android8hardware11BpHwRefBase20onIncStrongAttemptedEjPKv",
   "parameters" :
   [
    {
     "is_this_ptr" : true,
     "referenced_type" : "type-150"
    },
    {
     "referenced_type" : "type-4"
    },
    {
     "referenced_type" : "type-110"
    }
   ],
   "return_type" : "type-14",
   "source_file" : "/system/libhwbinder/include/hwbinder/Binder.h"
  },
  {
   "function_name" : "android::hardware::getHWBinderKernelReferences",
   "linker_set_key" : "getHWBinderKernelReferences",
   "parameters" :
   [
    {
     "referenced_type" : "type-7"
    },
    {
     "referenced_type" : "type-651"
    }
   ],
   "return_type" : "type-100",
   "source_file" : "/system/libhwbinder/include/hwbinder/Debug.h"
  },
  {
   "function_name" : "android::hardware::printHexData",
   "linker_set_key" : "printHexData",
   "parameters" :
   [
    {
     "referenced_type" : "type-9"
    },
    {
     "referenced_type" : "type-110"
    },
    {
     "referenced_type" : "type-7"
    },
    {
     "default_arg" : true,
     "referenced_type" : "type-7"
    },
    {
     "default_arg" : true,
     "referenced_type" : "type-9"
    },
    {
     "default_arg" : true,
     "referenced_type" : "type-7"
    },
    {
     "default_arg" : true,
     "referenced_type" : "type-14"
    },
    {
     "default_arg" : true,
     "referenced_type" : "type-656"
    },
    {
     "default_arg" : true,
     "referenced_type" : "type-23"
    }
   ],
   "return_type" : "type-17",
   "source_file" : "/system/libhwbinder/include/hwbinder/Debug.h"
  },
  {
   "function_name" : "android::hardware::printTypeCode",
   "linker_set_key" : "printTypeCode",
   "parameters" :
   [
    {
     "referenced_type" : "type-4"
    },
    {
     "default_arg" : true,
     "referenced_type" : "type-656"
    },
    {
     "default_arg" : true,
     "referenced_type" : "type-23"
    }
   ],
   "return_type" : "type-17",
   "source_file" : "/system/libhwbinder/include/hwbinder/Debug.h"
  },
  {
   "function_name" : "android::hardware::stringForIndent",
   "linker_set_key" : "stringForIndent",
   "parameters" :
   [
    {
     "referenced_type" : "type-9"
    }
   ],
   "return_type" : "type-383",
   "source_file" : "/system/libhwbinder/include/hwbinder/Debug.h"
  }
 ],
 "global_vars" :
 [
  {
   "linker_set_key" : "_ZN7android8hardware12gTextBuffersE",
   "name" : "android::hardware::gTextBuffers",
   "referenced_type" : "type-622",
   "source_file" : "/system/libhwbinder/include/hwbinder/Static.h"
  },
  {
   "linker_set_key" : "_ZN7android8hardware13gProcessMutexE",
   "name" : "android::hardware::gProcessMutex",
   "referenced_type" : "type-254",
   "source_file" : "/system/libhwbinder/include/hwbinder/Static.h"
  },
  {
   "linker_set_key" : "_ZN7android8hardware4aerrE",
   "name" : "android::hardware::aerr",
   "referenced_type" : "type-587",
   "source_file" : "/system/libhwbinder/include/hwbinder/TextOutput.h"
  },
  {
   "linker_set_key" : "_ZN7android8hardware4alogE",
   "name" : "android::hardware::alog",
   "referenced_type" : "type-587",
   "source_file" : "/system/libhwbinder/include/hwbinder/TextOutput.h"
  },
  {
   "linker_set_key" : "_ZN7android8hardware4aoutE",
   "name" : "android::hardware::aout",
   "referenced_type" : "type-587",
   "source_file" : "/system/libhwbinder/include/hwbinder/TextOutput.h"
  },
  {
   "linker_set_key" : "_ZN7android8hardware8gProcessE",
   "name" : "android::hardware::gProcess",
   "referenced_type" : "type-827",
   "source_file" : "/system/libhwbinder/include/hwbinder/Static.h"
  }
 ],
 "lvalue_reference_types" :
 [
  {
   "alignment" : 8,
   "linker_set_key" : "android::Mutex &",
   "name" : "android::Mutex &",
   "referenced_type" : "type-64",
   "self_type" : "type-254",
   "size" : 8,
   "source_file" : "/system/core/libutils/include/utils/Mutex.h"
  },
  {
   "alignment" : 8,
   "linker_set_key" : "android::RWLock &",
   "name" : "android::RWLock &",
   "referenced_type" : "type-261",
   "self_type" : "type-267",
   "size" : 8,
   "source_file" : "/system/core/libutils/include/utils/RWLock.h"
  },
  {
   "alignment" : 8,
   "linker_set_key" : "android::RefBase *const &",
   "name" : "android::RefBase *const &",
   "referenced_type" : "type-676",
   "self_type" : "type-699",
   "size" : 8,
   "source_file" : "/system/core/libutils/include/utils/Vector.h"
  },
  {
   "alignment" : 8,
   "linker_set_key" : "android::RefBase::weakref_type *const &",
   "name" : "android::RefBase::weakref_type *const &",
   "referenced_type" : "type-674",
   "self_type" : "type-695",
   "size" : 8,
   "source_file" : "/system/core/libutils/include/utils/Vector.h"
  },
  {
   "alignment" : 8,
   "linker_set_key" : "android::String16 &",
   "name" : "android::String16 &",
   "referenced_type" : "type-289",
   "self_type" : "type-632",
   "size" : 8,
   "source_file" : "/system/core/libutils/include/utils/String16.h"
  },
  {
   "alignment" : 8,
   "linker_set_key" : "android::String8 &",
   "name" : "android::String8 &",
   "referenced_type" : "type-382",
   "self_type" : "type-566",
   "size" : 8,
   "source_file" : "/system/core/libutils/include/utils/String8.h"
  },
  {
   "alignment" : 8,
   "linker_set_key" : "android::hardware::BHwBinder *const &",
   "name" : "android::hardware::BHwBinder *const &",
   "referenced_type" : "type-672",
   "self_type" : "type-691",
   "size" : 8,
   "source_file" : "/system/core/libutils/include/utils/Vector.h"
  },
  {
   "alignment" : 8,
   "linker_set_key" : "android::hardware::HexDump &",
   "name" : "android::hardware::HexDump &",
   "referenced_type" : "type-455",
   "self_type" : "type-596",
   "size" : 8,
   "source_file" : "/system/libhwbinder/include/hwbinder/TextOutput.h"
  },
  {
   "alignment" : 8,
   "linker_set_key" : "android::hardware::ProcessState::handle_entry &",
   "name" : "android::hardware::ProcessState::handle_entry &",
   "referenced_type" : "type-326",
   "self_type" : "type-360",
   "size" : 8,
   "source_file" : "/system/core/libutils/include/utils/Vector.h"
  },
  {
   "alignment" : 8,
   "linker_set_key" : "android::hardware::TextOutput &",
   "name" : "android::hardware::TextOutput &",
   "referenced_type" : "type-161",
   "self_type" : "type-160",
   "size" : 8,
   "source_file" : "/system/libhwbinder/include/hwbinder/Parcel.h"
  },
  {
   "alignment" : 8,
   "linker_set_key" : "android::hardware::TextOutput &",
   "name" : "android::hardware::TextOutput &",
   "referenced_type" : "type-180",
   "self_type" : "type-179",
   "size" : 8,
   "source_file" : "/system/libhwbinder/include/hwbinder/Parcel.h"
  },
  {
   "alignment" : 8,
   "linker_set_key" : "android::hardware::TextOutput &",
   "name" : "android::hardware::TextOutput &",
   "referenced_type" : "type-316",
   "self_type" : "type-315",
   "size" : 8,
   "source_file" : "/system/libhwbinder/include/hwbinder/Parcel.h"
  },
  {
   "alignment" : 8,
   "linker_set_key" : "android::hardware::TextOutput &",
   "name" : "android::hardware::TextOutput &",
   "referenced_type" : "type-388",
   "self_type" : "type-387",
   "size" : 8,
   "source_file" : "/system/libhwbinder/include/hwbinder/Parcel.h"
  },
  {
   "alignment" : 8,
   "linker_set_key" : "android::hardware::TextOutput &",
   "name" : "android::hardware::TextOutput &",
   "referenced_type" : "type-448",
   "self_type" : "type-587",
   "size" : 8,
   "source_file" : "/system/libhwbinder/include/hwbinder/TextOutput.h"
  },
  {
   "alignment" : 8,
   "linker_set_key" : "android::hardware::TextOutput &",
   "name" : "android::hardware::TextOutput &",
   "referenced_type" : "type-541",
   "self_type" : "type-540",
   "size" : 8,
   "source_file" : "/system/libhwbinder/include/hwbinder/Parcel.h"
  },
  {
   "alignment" : 8,
   "linker_set_key" : "android::key_value_pair_t<android::String16, android::sp<android::hardware::IBinder> > &",
   "name" : "android::key_value_pair_t<android::String16, android::sp<android::hardware::IBinder> > &",
   "referenced_type" : "type-323",
   "self_type" : "type-337",
   "size" : 8,
   "source_file" : "/system/core/libutils/include/utils/TypeHelpers.h"
  },
  {
   "alignment" : 8,
   "linker_set_key" : "android::key_value_pair_t<const void *, android::hardware::BpHwBinder::ObjectManager::entry_t> &",
   "name" : "android::key_value_pair_t<const void *, android::hardware::BpHwBinder::ObjectManager::entry_t> &",
   "referenced_type" : "type-487",
   "self_type" : "type-500",
   "size" : 8,
   "source_file" : "/system/core/libutils/include/utils/TypeHelpers.h"
  },
  {
   "alignment" : 8,
   "linker_set_key" : "android::sp<android::hardware::BHwBinder> &",
   "name" : "android::sp<android::hardware::BHwBinder> &",
   "referenced_type" : "type-545",
   "self_type" : "type-705",
   "size" : 8,
   "source_file" : "/system/core/libutils/include/utils/StrongPointer.h"
  },
  {
   "alignment" : 8,
   "linker_set_key" : "android::sp<android::hardware::BufferedTextOutput::BufferState> &",
   "name" : "android::sp<android::hardware::BufferedTextOutput::BufferState> &",
   "referenced_type" : "type-581",
   "self_type" : "type-606",
   "size" : 8,
   "source_file" : "/system/core/libutils/include/utils/StrongPointer.h"
  },
  {
   "alignment" : 8,
   "linker_set_key" : "android::sp<android::hardware::IBinder> &",
   "name" : "android::sp<android::hardware::IBinder> &",
   "referenced_type" : "type-71",
   "self_type" : "type-72",
   "size" : 8,
   "source_file" : "/system/core/libutils/include/utils/StrongPointer.h"
  },
  {
   "alignment" : 8,
   "linker_set_key" : "android::sp<android::hardware::ProcessState> &",
   "name" : "android::sp<android::hardware::ProcessState> &",
   "referenced_type" : "type-373",
   "self_type" : "type-372",
   "size" : 8,
   "source_file" : "/system/core/libutils/include/utils/StrongPointer.h"
  },
  {
   "alignment" : 8,
   "linker_set_key" : "android::wp<android::hardware::IBinder::DeathRecipient> &",
   "name" : "android::wp<android::hardware::IBinder::DeathRecipient> &",
   "referenced_type" : "type-82",
   "self_type" : "type-510",
   "size" : 8,
   "source_file" : "/system/core/libutils/include/utils/RefBase.h"
  },
  {
   "alignment" : 8,
   "linker_set_key" : "android::wp<android::hardware::IBinder> &",
   "name" : "android::wp<android::hardware::IBinder> &",
   "referenced_type" : "type-52",
   "self_type" : "type-59",
   "size" : 8,
   "source_file" : "/system/core/libutils/include/utils/RefBase.h"
  },
  {
   "alignment" : 8,
   "linker_set_key" : "char *const &",
   "name" : "char *const &",
   "referenced_type" : "type-118",
   "self_type" : "type-122",
   "size" : 8,
   "source_file" : "/system/libhwbinder/include/hwbinder/TextOutput.h"
  },
  {
   "alignment" : 8,
   "linker_set_key" : "char const (&)[10]",
   "name" : "char const (&)[10]",
   "referenced_type" : "type-727",
   "self_type" : "type-729",
   "size" : 8,
   "source_file" : "/system/libhwbinder/include/hwbinder/TextOutput.h"
  },
  {
   "alignment" : 8,
   "linker_set_key" : "char const (&)[11]",
   "name" : "char const (&)[11]",
   "referenced_type" : "type-749",
   "self_type" : "type-751",
   "size" : 8,
   "source_file" : "/system/libhwbinder/include/hwbinder/TextOutput.h"
  },
  {
   "alignment" : 8,
   "linker_set_key" : "char const (&)[12]",
   "name" : "char const (&)[12]",
   "referenced_type" : "type-723",
   "self_type" : "type-725",
   "size" : 8,
   "source_file" : "/system/libhwbinder/include/hwbinder/TextOutput.h"
  },
  {
   "alignment" : 8,
   "linker_set_key" : "char const (&)[13]",
   "name" : "char const (&)[13]",
   "referenced_type" : "type-720",
   "self_type" : "type-722",
   "size" : 8,
   "source_file" : "/system/libhwbinder/include/hwbinder/TextOutput.h"
  },
  {
   "alignment" : 8,
   "linker_set_key" : "char const (&)[14]",
   "name" : "char const (&)[14]",
   "referenced_type" : "type-768",
   "self_type" : "type-770",
   "size" : 8,
   "source_file" : "/system/libhwbinder/include/hwbinder/TextOutput.h"
  },
  {
   "alignment" : 8,
   "linker_set_key" : "char const (&)[15]",
   "name" : "char const (&)[15]",
   "referenced_type" : "type-126",
   "self_type" : "type-129",
   "size" : 8,
   "source_file" : "/system/libhwbinder/include/hwbinder/TextOutput.h"
  },
  {
   "alignment" : 8,
   "linker_set_key" : "char const (&)[16]",
   "name" : "char const (&)[16]",
   "referenced_type" : "type-753",
   "self_type" : "type-755",
   "size" : 8,
   "source_file" : "/system/libhwbinder/include/hwbinder/TextOutput.h"
  },
  {
   "alignment" : 8,
   "linker_set_key" : "char const (&)[17]",
   "name" : "char const (&)[17]",
   "referenced_type" : "type-771",
   "self_type" : "type-773",
   "size" : 8,
   "source_file" : "/system/libhwbinder/include/hwbinder/TextOutput.h"
  },
  {
   "alignment" : 8,
   "linker_set_key" : "char const (&)[18]",
   "name" : "char const (&)[18]",
   "referenced_type" : "type-756",
   "self_type" : "type-758",
   "size" : 8,
   "source_file" : "/system/libhwbinder/include/hwbinder/TextOutput.h"
  },
  {
   "alignment" : 8,
   "linker_set_key" : "char const (&)[19]",
   "name" : "char const (&)[19]",
   "referenced_type" : "type-787",
   "self_type" : "type-789",
   "size" : 8,
   "source_file" : "/system/libhwbinder/include/hwbinder/TextOutput.h"
  },
  {
   "alignment" : 8,
   "linker_set_key" : "char const (&)[20]",
   "name" : "char const (&)[20]",
   "referenced_type" : "type-765",
   "self_type" : "type-767",
   "size" : 8,
   "source_file" : "/system/libhwbinder/include/hwbinder/TextOutput.h"
  },
  {
   "alignment" : 8,
   "linker_set_key" : "char const (&)[22]",
   "name" : "char const (&)[22]",
   "referenced_type" : "type-790",
   "self_type" : "type-792",
   "size" : 8,
   "source_file" : "/system/libhwbinder/include/hwbinder/TextOutput.h"
  },
  {
   "alignment" : 8,
   "linker_set_key" : "char const (&)[25]",
   "name" : "char const (&)[25]",
   "referenced_type" : "type-780",
   "self_type" : "type-782",
   "size" : 8,
   "source_file" : "/system/libhwbinder/include/hwbinder/TextOutput.h"
  },
  {
   "alignment" : 8,
   "linker_set_key" : "char const (&)[28]",
   "name" : "char const (&)[28]",
   "referenced_type" : "type-802",
   "self_type" : "type-804",
   "size" : 8,
   "source_file" : "/system/libhwbinder/include/hwbinder/TextOutput.h"
  },
  {
   "alignment" : 8,
   "linker_set_key" : "char const (&)[29]",
   "name" : "char const (&)[29]",
   "referenced_type" : "type-777",
   "self_type" : "type-779",
   "size" : 8,
   "source_file" : "/system/libhwbinder/include/hwbinder/TextOutput.h"
  },
  {
   "alignment" : 8,
   "linker_set_key" : "char const (&)[2]",
   "name" : "char const (&)[2]",
   "referenced_type" : "type-731",
   "self_type" : "type-733",
   "size" : 8,
   "source_file" : "/system/libhwbinder/include/hwbinder/TextOutput.h"
  },
  {
   "alignment" : 8,
   "linker_set_key" : "char const (&)[31]",
   "name" : "char const (&)[31]",
   "referenced_type" : "type-762",
   "self_type" : "type-764",
   "size" : 8,
   "source_file" : "/system/libhwbinder/include/hwbinder/TextOutput.h"
  },
  {
   "alignment" : 8,
   "linker_set_key" : "char const (&)[32]",
   "name" : "char const (&)[32]",
   "referenced_type" : "type-793",
   "self_type" : "type-796",
   "size" : 8,
   "source_file" : "/system/libhwbinder/include/hwbinder/TextOutput.h"
  },
  {
   "alignment" : 8,
   "linker_set_key" : "char const (&)[35]",
   "name" : "char const (&)[35]",
   "referenced_type" : "type-784",
   "self_type" : "type-786",
   "size" : 8,
   "source_file" : "/system/libhwbinder/include/hwbinder/TextOutput.h"
  },
  {
   "alignment" : 8,
   "linker_set_key" : "char const (&)[37]",
   "name" : "char const (&)[37]",
   "referenced_type" : "type-774",
   "self_type" : "type-776",
   "size" : 8,
   "source_file" : "/system/libhwbinder/include/hwbinder/TextOutput.h"
  },
  {
   "alignment" : 8,
   "linker_set_key" : "char const (&)[3]",
   "name" : "char const (&)[3]",
   "referenced_type" : "type-743",
   "self_type" : "type-745",
   "size" : 8,
   "source_file" : "/system/libhwbinder/include/hwbinder/TextOutput.h"
  },
  {
   "alignment" : 8,
   "linker_set_key" : "char const (&)[4]",
   "name" : "char const (&)[4]",
   "referenced_type" : "type-123",
   "self_type" : "type-125",
   "size" : 8,
   "source_file" : "/system/libhwbinder/include/hwbinder/TextOutput.h"
  },
  {
   "alignment" : 8,
   "linker_set_key" : "char const (&)[5]",
   "name" : "char const (&)[5]",
   "referenced_type" : "type-130",
   "self_type" : "type-132",
   "size" : 8,
   "source_file" : "/system/libhwbinder/include/hwbinder/TextOutput.h"
  },
  {
   "alignment" : 8,
   "linker_set_key" : "char const (&)[6]",
   "name" : "char const (&)[6]",
   "referenced_type" : "type-734",
   "self_type" : "type-736",
   "size" : 8,
   "source_file" : "/system/libhwbinder/include/hwbinder/TextOutput.h"
  },
  {
   "alignment" : 8,
   "linker_set_key" : "char const (&)[7]",
   "name" : "char const (&)[7]",
   "referenced_type" : "type-759",
   "self_type" : "type-761",
   "size" : 8,
   "source_file" : "/system/libhwbinder/include/hwbinder/TextOutput.h"
  },
  {
   "alignment" : 8,
   "linker_set_key" : "char const (&)[8]",
   "name" : "char const (&)[8]",
   "referenced_type" : "type-746",
   "self_type" : "type-748",
   "size" : 8,
   "source_file" : "/system/libhwbinder/include/hwbinder/TextOutput.h"
  },
  {
   "alignment" : 8,
   "linker_set_key" : "char const (&)[9]",
   "name" : "char const (&)[9]",
   "referenced_type" : "type-737",
   "self_type" : "type-739",
   "size" : 8,
   "source_file" : "/system/libhwbinder/include/hwbinder/TextOutput.h"
  },
  {
   "alignment" : 8,
   "linker_set_key" : "const android::String16 &",
   "name" : "const android::String16 &",
   "referenced_type" : "type-381",
   "self_type" : "type-380",
   "size" : 8,
   "source_file" : "/system/core/libutils/include/utils/String16.h"
  },
  {
   "alignment" : 8,
   "linker_set_key" : "const android::String8 &",
   "name" : "const android::String8 &",
   "referenced_type" : "type-542",
   "self_type" : "type-555",
   "size" : 8,
   "source_file" : "/system/core/libutils/include/utils/String8.h"
  },
  {
   "alignment" : 8,
   "linker_set_key" : "const android::hardware::BpHwBinder::Obituary &",
   "name" : "const android::hardware::BpHwBinder::Obituary &",
   "referenced_type" : "type-494",
   "self_type" : "type-524",
   "size" : 8,
   "source_file" : "/system/core/libutils/include/utils/Vector.h"
  },
  {
   "alignment" : 8,
   "linker_set_key" : "const android::hardware::BpHwBinder::ObjectManager::entry_t &",
   "name" : "const android::hardware::BpHwBinder::ObjectManager::entry_t &",
   "referenced_type" : "type-501",
   "self_type" : "type-502",
   "size" : 8,
   "source_file" : "/system/core/libutils/include/utils/TypeHelpers.h"
  },
  {
   "alignment" : 8,
   "linker_set_key" : "const android::hardware::HexDump &",
   "name" : "const android::hardware::HexDump &",
   "referenced_type" : "type-454",
   "self_type" : "type-453",
   "size" : 8,
   "source_file" : "/system/libhwbinder/include/hwbinder/TextOutput.h"
  },
  {
   "alignment" : 8,
   "linker_set_key" : "const android::hardware::Parcel &",
   "name" : "const android::hardware::Parcel &",
   "referenced_type" : "type-5",
   "self_type" : "type-45",
   "size" : 8,
   "source_file" : "/system/libhwbinder/include/hwbinder/Binder.h"
  },
  {
   "alignment" : 8,
   "linker_set_key" : "const android::hardware::ProcessState::handle_entry &",
   "name" : "const android::hardware::ProcessState::handle_entry &",
   "referenced_type" : "type-328",
   "self_type" : "type-361",
   "size" : 8,
   "source_file" : "/system/core/libutils/include/utils/Vector.h"
  },
  {
   "alignment" : 8,
   "linker_set_key" : "const android::hardware::TypeCode &",
   "name" : "const android::hardware::TypeCode &",
   "referenced_type" : "type-451",
   "self_type" : "type-450",
   "size" : 8,
   "source_file" : "/system/libhwbinder/include/hwbinder/TextOutput.h"
  },
  {
   "alignment" : 8,
   "linker_set_key" : "const android::key_value_pair_t<android::String16, android::sp<android::hardware::IBinder> > &",
   "name" : "const android::key_value_pair_t<android::String16, android::sp<android::hardware::IBinder> > &",
   "referenced_type" : "type-322",
   "self_type" : "type-324",
   "size" : 8,
   "source_file" : "/system/core/libutils/include/utils/TypeHelpers.h"
  },
  {
   "alignment" : 8,
   "linker_set_key" : "const android::key_value_pair_t<const void *, android::hardware::BpHwBinder::ObjectManager::entry_t> &",
   "name" : "const android::key_value_pair_t<const void *, android::hardware::BpHwBinder::ObjectManager::entry_t> &",
   "referenced_type" : "type-486",
   "self_type" : "type-488",
   "size" : 8,
   "source_file" : "/system/core/libutils/include/utils/TypeHelpers.h"
  },
  {
   "alignment" : 8,
   "linker_set_key" : "const android::sp<android::hardware::BHwBinder> &",
   "name" : "const android::sp<android::hardware::BHwBinder> &",
   "referenced_type" : "type-709",
   "self_type" : "type-718",
   "size" : 8,
   "source_file" : "/system/core/libutils/include/utils/StrongPointer.h"
  },
  {
   "alignment" : 8,
   "linker_set_key" : "const android::sp<android::hardware::BufferedTextOutput::BufferState> &",
   "name" : "const android::sp<android::hardware::BufferedTextOutput::BufferState> &",
   "referenced_type" : "type-605",
   "self_type" : "type-604",
   "size" : 8,
   "source_file" : "/system/core/libutils/include/utils/StrongPointer.h"
  },
  {
   "alignment" : 8,
   "linker_set_key" : "const android::sp<android::hardware::IBinder::DeathRecipient> &",
   "name" : "const android::sp<android::hardware::IBinder::DeathRecipient> &",
   "referenced_type" : "type-147",
   "self_type" : "type-149",
   "size" : 8,
   "source_file" : "/system/libhwbinder/include/hwbinder/Binder.h"
  },
  {
   "alignment" : 8,
   "linker_set_key" : "const android::sp<android::hardware::IBinder::DeathRecipient> &",
   "name" : "const android::sp<android::hardware::IBinder::DeathRecipient> &",
   "referenced_type" : "type-49",
   "self_type" : "type-55",
   "size" : 8,
   "source_file" : "/system/libhwbinder/include/hwbinder/Binder.h"
  },
  {
   "alignment" : 8,
   "linker_set_key" : "const android::sp<android::hardware::IBinder::DeathRecipient> &",
   "name" : "const android::sp<android::hardware::IBinder::DeathRecipient> &",
   "referenced_type" : "type-512",
   "self_type" : "type-514",
   "size" : 8,
   "source_file" : "/system/core/libutils/include/utils/RefBase.h"
  },
  {
   "alignment" : 8,
   "linker_set_key" : "const android::sp<android::hardware::IBinder> &",
   "name" : "const android::sp<android::hardware::IBinder> &",
   "referenced_type" : "type-154",
   "self_type" : "type-153",
   "size" : 8,
   "source_file" : "/system/libhwbinder/include/hwbinder/Binder.h"
  },
  {
   "alignment" : 8,
   "linker_set_key" : "const android::sp<android::hardware::IBinder> &",
   "name" : "const android::sp<android::hardware::IBinder> &",
   "referenced_type" : "type-203",
   "self_type" : "type-205",
   "size" : 8,
   "source_file" : "/system/libhwbinder/include/hwbinder/ProcessState.h"
  },
  {
   "alignment" : 8,
   "linker_set_key" : "const android::sp<android::hardware::IBinder> &",
   "name" : "const android::sp<android::hardware::IBinder> &",
   "referenced_type" : "type-218",
   "self_type" : "type-220",
   "size" : 8,
   "source_file" : "/system/libhwbinder/include/hwbinder/ProcessState.h"
  },
  {
   "alignment" : 8,
   "linker_set_key" : "const android::sp<android::hardware::IBinder> &",
   "name" : "const android::sp<android::hardware::IBinder> &",
   "referenced_type" : "type-633",
   "self_type" : "type-635",
   "size" : 8,
   "source_file" : "/system/libhwbinder/include/hwbinder/ProcessState.h"
  },
  {
   "alignment" : 8,
   "linker_set_key" : "const android::sp<android::hardware::IBinder> &",
   "name" : "const android::sp<android::hardware::IBinder> &",
   "referenced_type" : "type-652",
   "self_type" : "type-654",
   "size" : 8,
   "source_file" : "/system/libhwbinder/include/hwbinder/ProcessState.h"
  },
  {
   "alignment" : 8,
   "linker_set_key" : "const android::sp<android::hardware::IInterface> &",
   "name" : "const android::sp<android::hardware::IInterface> &",
   "referenced_type" : "type-662",
   "self_type" : "type-661",
   "size" : 8,
   "source_file" : "/system/libhwbinder/include/hwbinder/IInterface.h"
  },
  {
   "alignment" : 8,
   "linker_set_key" : "const android::sp<android::hardware::ProcessState> &",
   "name" : "const android::sp<android::hardware::ProcessState> &",
   "referenced_type" : "type-544",
   "self_type" : "type-687",
   "size" : 8,
   "source_file" : "/system/core/libutils/include/utils/StrongPointer.h"
  },
  {
   "alignment" : 8,
   "linker_set_key" : "const android::wp<android::hardware::IBinder::DeathRecipient> &",
   "name" : "const android::wp<android::hardware::IBinder::DeathRecipient> &",
   "referenced_type" : "type-81",
   "self_type" : "type-121",
   "size" : 8,
   "source_file" : "/system/libhwbinder/include/hwbinder/Binder.h"
  },
  {
   "alignment" : 8,
   "linker_set_key" : "const android::wp<android::hardware::IBinder> &",
   "name" : "const android::wp<android::hardware::IBinder> &",
   "referenced_type" : "type-51",
   "self_type" : "type-54",
   "size" : 8,
   "source_file" : "/system/core/libutils/include/utils/RefBase.h"
  },
  {
   "alignment" : 8,
   "linker_set_key" : "const bool &",
   "name" : "const bool &",
   "referenced_type" : "type-63",
   "self_type" : "type-477",
   "size" : 8,
   "source_file" : "/system/core/libutils/include/utils/TypeHelpers.h"
  },
  {
   "alignment" : 8,
   "linker_set_key" : "const char &",
   "name" : "const char &",
   "referenced_type" : "type-384",
   "self_type" : "type-602",
   "size" : 8,
   "source_file" : "/system/libhwbinder/include/hwbinder/TextOutput.h"
  },
  {
   "alignment" : 8,
   "linker_set_key" : "const char *const &",
   "name" : "const char *const &",
   "referenced_type" : "type-589",
   "self_type" : "type-590",
   "size" : 8,
   "source_file" : "/system/libhwbinder/include/hwbinder/TextOutput.h"
  },
  {
   "alignment" : 8,
   "linker_set_key" : "const double &",
   "name" : "const double &",
   "referenced_type" : "type-330",
   "self_type" : "type-503",
   "size" : 8,
   "source_file" : "/system/core/libutils/include/utils/TypeHelpers.h"
  },
  {
   "alignment" : 8,
   "linker_set_key" : "const flat_binder_object &",
   "name" : "const flat_binder_object &",
   "referenced_type" : "type-302",
   "self_type" : "type-304",
   "size" : 8,
   "source_file" : "/system/libhwbinder/include/hwbinder/Parcel.h"
  },
  {
   "alignment" : 8,
   "linker_set_key" : "const flat_binder_object &",
   "name" : "const flat_binder_object &",
   "referenced_type" : "type-85",
   "self_type" : "type-87",
   "size" : 8,
   "source_file" : "/system/libhwbinder/include/hwbinder/Parcel.h"
  },
  {
   "alignment" : 8,
   "linker_set_key" : "const float &",
   "name" : "const float &",
   "referenced_type" : "type-245",
   "self_type" : "type-297",
   "size" : 8,
   "source_file" : "/system/core/libutils/include/utils/TypeHelpers.h"
  },
  {
   "alignment" : 8,
   "linker_set_key" : "const int &",
   "name" : "const int &",
   "referenced_type" : "type-277",
   "self_type" : "type-645",
   "size" : 8,
   "source_file" : "/system/core/libutils/include/utils/TypeHelpers.h"
  },
  {
   "alignment" : 8,
   "linker_set_key" : "const log_msg &",
   "name" : "const log_msg &",
   "referenced_type" : "type-176",
   "self_type" : "type-178",
   "size" : 8,
   "source_file" : "/system/core/liblog/include/log/log_read.h"
  },
  {
   "alignment" : 8,
   "linker_set_key" : "const long &",
   "name" : "const long &",
   "referenced_type" : "type-138",
   "self_type" : "type-175",
   "size" : 8,
   "source_file" : "/system/core/libutils/include/utils/TypeHelpers.h"
  },
  {
   "alignment" : 8,
   "linker_set_key" : "const short &",
   "name" : "const short &",
   "referenced_type" : "type-481",
   "self_type" : "type-482",
   "size" : 8,
   "source_file" : "/system/core/libutils/include/utils/TypeHelpers.h"
  },
  {
   "alignment" : 8,
   "linker_set_key" : "const signed char &",
   "name" : "const signed char &",
   "referenced_type" : "type-478",
   "self_type" : "type-479",
   "size" : 8,
   "source_file" : "/system/core/libutils/include/utils/TypeHelpers.h"
  },
  {
   "alignment" : 8,
   "linker_set_key" : "const std::function<void ()> &",
   "name" : "const std::function<void ()> &",
   "referenced_type" : "type-251",
   "self_type" : "type-255",
   "size" : 8,
   "source_file" : "/system/libhwbinder/include/hwbinder/IPCThreadState.h"
  },
  {
   "alignment" : 8,
   "linker_set_key" : "const std::function<void ()> &",
   "name" : "const std::function<void ()> &",
   "referenced_type" : "type-713",
   "self_type" : "type-715",
   "size" : 8,
   "source_file" : "/system/libhwbinder/include/hwbinder/IPCThreadState.h"
  },
  {
   "alignment" : 8,
   "linker_set_key" : "const std::unique_ptr<android::String16, std::default_delete<android::String16> > &",
   "name" : "const std::unique_ptr<android::String16, std::default_delete<android::String16> > &",
   "referenced_type" : "type-299",
   "self_type" : "type-301",
   "size" : 8,
   "source_file" : "/system/libhwbinder/include/hwbinder/Parcel.h"
  },
  {
   "alignment" : 8,
   "linker_set_key" : "const std::unique_ptr<android::String16, std::default_delete<android::String16> > &",
   "name" : "const std::unique_ptr<android::String16, std::default_delete<android::String16> > &",
   "referenced_type" : "type-78",
   "self_type" : "type-80",
   "size" : 8,
   "source_file" : "/system/libhwbinder/include/hwbinder/Parcel.h"
  },
  {
   "alignment" : 8,
   "linker_set_key" : "const unsigned char &",
   "name" : "const unsigned char &",
   "referenced_type" : "type-20",
   "self_type" : "type-480",
   "size" : 8,
   "source_file" : "/system/core/libutils/include/utils/TypeHelpers.h"
  },
  {
   "alignment" : 8,
   "linker_set_key" : "const unsigned char *const &",
   "name" : "const unsigned char *const &",
   "referenced_type" : "type-797",
   "self_type" : "type-798",
   "size" : 8,
   "source_file" : "/system/libhwbinder/include/hwbinder/TextOutput.h"
  },
  {
   "alignment" : 8,
   "linker_set_key" : "const unsigned int &",
   "name" : "const unsigned int &",
   "referenced_type" : "type-74",
   "self_type" : "type-73",
   "size" : 8,
   "source_file" : "/system/core/libutils/include/utils/TypeHelpers.h"
  },
  {
   "alignment" : 8,
   "linker_set_key" : "const unsigned long &",
   "name" : "const unsigned long &",
   "referenced_type" : "type-187",
   "self_type" : "type-231",
   "size" : 8,
   "source_file" : "/system/core/libutils/include/utils/TypeHelpers.h"
  },
  {
   "alignment" : 8,
   "linker_set_key" : "const unsigned long *const &",
   "name" : "const unsigned long *const &",
   "referenced_type" : "type-799",
   "self_type" : "type-801",
   "size" : 8,
   "source_file" : "/system/libhwbinder/include/hwbinder/TextOutput.h"
  },
  {
   "alignment" : 8,
   "linker_set_key" : "const unsigned long long &",
   "name" : "const unsigned long long &",
   "referenced_type" : "type-22",
   "self_type" : "type-726",
   "size" : 8,
   "source_file" : "/system/libhwbinder/include/hwbinder/TextOutput.h"
  },
  {
   "alignment" : 8,
   "linker_set_key" : "const unsigned short &",
   "name" : "const unsigned short &",
   "referenced_type" : "type-483",
   "self_type" : "type-484",
   "size" : 8,
   "source_file" : "/system/core/libutils/include/utils/TypeHelpers.h"
  },
  {
   "alignment" : 8,
   "linker_set_key" : "const void *const &",
   "name" : "const void *const &",
   "referenced_type" : "type-489",
   "self_type" : "type-490",
   "size" : 8,
   "source_file" : "/system/core/libutils/include/utils/TypeHelpers.h"
  },
  {
   "alignment" : 8,
   "linker_set_key" : "int &",
   "name" : "int &",
   "referenced_type" : "type-9",
   "self_type" : "type-626",
   "size" : 8,
   "source_file" : "/system/core/libutils/include/utils/Vector.h"
  },
  {
   "alignment" : 8,
   "linker_set_key" : "std::basic_ostream<char, std::char_traits<char> > &",
   "name" : "std::basic_ostream<char, std::char_traits<char> > &",
   "referenced_type" : "type-135",
   "self_type" : "type-134",
   "size" : 8,
   "source_file" : "/system/libhwbinder/include/hwbinder/TextOutput.h"
  },
  {
   "alignment" : 8,
   "linker_set_key" : "std::basic_ostream<char, std::char_traits<char> > &",
   "name" : "std::basic_ostream<char, std::char_traits<char> > &",
   "referenced_type" : "type-189",
   "self_type" : "type-188",
   "size" : 8,
   "source_file" : "/system/libhwbinder/include/hwbinder/TextOutput.h"
  },
  {
   "alignment" : 8,
   "linker_set_key" : "std::basic_ostream<char, std::char_traits<char> > &",
   "name" : "std::basic_ostream<char, std::char_traits<char> > &",
   "referenced_type" : "type-265",
   "self_type" : "type-264",
   "size" : 8,
   "source_file" : "/system/libhwbinder/include/hwbinder/TextOutput.h"
  },
  {
   "alignment" : 8,
   "linker_set_key" : "std::basic_ostream<char, std::char_traits<char> > &",
   "name" : "std::basic_ostream<char, std::char_traits<char> > &",
   "referenced_type" : "type-320",
   "self_type" : "type-319",
   "size" : 8,
   "source_file" : "/system/libhwbinder/include/hwbinder/TextOutput.h"
  },
  {
   "alignment" : 8,
   "linker_set_key" : "std::basic_ostream<char, std::char_traits<char> > &",
   "name" : "std::basic_ostream<char, std::char_traits<char> > &",
   "referenced_type" : "type-436",
   "self_type" : "type-435",
   "size" : 8,
   "source_file" : "/system/libhwbinder/include/hwbinder/TextOutput.h"
  },
  {
   "alignment" : 8,
   "linker_set_key" : "std::basic_ostream<char, std::char_traits<char> > &",
   "name" : "std::basic_ostream<char, std::char_traits<char> > &",
   "referenced_type" : "type-458",
   "self_type" : "type-457",
   "size" : 8,
   "source_file" : "/system/libhwbinder/include/hwbinder/TextOutput.h"
  },
  {
   "alignment" : 8,
   "linker_set_key" : "std::basic_ostream<char, std::char_traits<char> > &",
   "name" : "std::basic_ostream<char, std::char_traits<char> > &",
   "referenced_type" : "type-600",
   "self_type" : "type-599",
   "size" : 8,
   "source_file" : "/system/libhwbinder/include/hwbinder/TextOutput.h"
  },
  {
   "alignment" : 8,
   "linker_set_key" : "std::basic_ostream<char, std::char_traits<char> > &",
   "name" : "std::basic_ostream<char, std::char_traits<char> > &",
   "referenced_type" : "type-809",
   "self_type" : "type-808",
   "size" : 8,
   "source_file" : "/system/libhwbinder/include/hwbinder/TextOutput.h"
  },
  {
   "alignment" : 8,
   "linker_set_key" : "void *const &",
   "name" : "void *const &",
   "referenced_type" : "type-740",
   "self_type" : "type-742",
   "size" : 8,
   "source_file" : "/system/libhwbinder/include/hwbinder/TextOutput.h"
  }
 ],
 "pointer_types" :
 [
  {
   "alignment" : 8,
   "linker_set_key" : "android::CallStack *",
   "name" : "android::CallStack *",
   "referenced_type" : "type-810",
   "self_type" : "type-811",
   "size" : 8,
   "source_file" : "/system/core/libutils/include/utils/CallStack.h"
  },
  {
   "alignment" : 8,
   "linker_set_key" : "android::CallStack::StackDeleter *",
   "name" : "android::CallStack::StackDeleter *",
   "referenced_type" : "type-27",
   "self_type" : "type-28",
   "size" : 8,
   "source_file" : "/system/core/libutils/include/utils/CallStack.h"
  },
  {
   "alignment" : 8,
   "linker_set_key" : "android::Condition *",
   "name" : "android::Condition *",
   "referenced_type" : "type-66",
   "self_type" : "type-260",
   "size" : 8,
   "source_file" : "/system/core/libutils/include/utils/Condition.h"
  },
  {
   "alignment" : 8,
   "linker_set_key" : "android::IPCThreadStateBase *",
   "name" : "android::IPCThreadStateBase *",
   "referenced_type" : "type-117",
   "self_type" : "type-116",
   "size" : 8,
   "source_file" : "/system/libhwbinder/include/hwbinder/IPCThreadState.h"
  },
  {
   "alignment" : 8,
   "linker_set_key" : "android::IPCThreadStateBase *",
   "name" : "android::IPCThreadStateBase *",
   "referenced_type" : "type-182",
   "self_type" : "type-181",
   "size" : 8,
   "source_file" : "/system/libhwbinder/include/hwbinder/IPCThreadState.h"
  },
  {
   "alignment" : 8,
   "linker_set_key" : "android::IPCThreadStateBase *",
   "name" : "android::IPCThreadStateBase *",
   "referenced_type" : "type-250",
   "self_type" : "type-249",
   "size" : 8,
   "source_file" : "/system/libhwbinder/include/hwbinder/IPCThreadState.h"
  },
  {
   "alignment" : 8,
   "linker_set_key" : "android::IPCThreadStateBase *",
   "name" : "android::IPCThreadStateBase *",
   "referenced_type" : "type-314",
   "self_type" : "type-313",
   "size" : 8,
   "source_file" : "/system/libhwbinder/include/hwbinder/IPCThreadState.h"
  },
  {
   "alignment" : 8,
   "linker_set_key" : "android::IPCThreadStateBase *",
   "name" : "android::IPCThreadStateBase *",
   "referenced_type" : "type-391",
   "self_type" : "type-390",
   "size" : 8,
   "source_file" : "/system/libhwbinder/include/hwbinder/IPCThreadState.h"
  },
  {
   "alignment" : 8,
   "linker_set_key" : "android::IPCThreadStateBase *",
   "name" : "android::IPCThreadStateBase *",
   "referenced_type" : "type-442",
   "self_type" : "type-441",
   "size" : 8,
   "source_file" : "/system/libhwbinder/include/hwbinder/IPCThreadState.h"
  },
  {
   "alignment" : 8,
   "linker_set_key" : "android::IPCThreadStateBase *",
   "name" : "android::IPCThreadStateBase *",
   "referenced_type" : "type-548",
   "self_type" : "type-547",
   "size" : 8,
   "source_file" : "/system/libhwbinder/include/hwbinder/IPCThreadState.h"
  },
  {
   "alignment" : 8,
   "linker_set_key" : "android::IPCThreadStateBase *",
   "name" : "android::IPCThreadStateBase *",
   "referenced_type" : "type-707",
   "self_type" : "type-706",
   "size" : 8,
   "source_file" : "/system/libhwbinder/include/hwbinder/IPCThreadState.h"
  },
  {
   "alignment" : 8,
   "linker_set_key" : "android::KeyedVector<android::String16, android::sp<android::hardware::IBinder> > *",
   "name" : "android::KeyedVector<android::String16, android::sp<android::hardware::IBinder> > *",
   "referenced_type" : "type-363",
   "self_type" : "type-362",
   "size" : 8,
   "source_file" : "/system/core/libutils/include/utils/KeyedVector.h"
  },
  {
   "alignment" : 8,
   "linker_set_key" : "android::KeyedVector<const void *, android::hardware::BpHwBinder::ObjectManager::entry_t> *",
   "name" : "android::KeyedVector<const void *, android::hardware::BpHwBinder::ObjectManager::entry_t> *",
   "referenced_type" : "type-282",
   "self_type" : "type-528",
   "size" : 8,
   "source_file" : "/system/core/libutils/include/utils/KeyedVector.h"
  },
  {
   "alignment" : 8,
   "linker_set_key" : "android::Mutex *",
   "name" : "android::Mutex *",
   "referenced_type" : "type-64",
   "self_type" : "type-248",
   "size" : 8,
   "source_file" : "/system/core/libutils/include/utils/Mutex.h"
  },
  {
   "alignment" : 8,
   "linker_set_key" : "android::Mutex::Autolock *",
   "name" : "android::Mutex::Autolock *",
   "referenced_type" : "type-253",
   "self_type" : "type-258",
   "size" : 8,
   "source_file" : "/system/core/libutils/include/utils/Mutex.h"
  },
  {
   "alignment" : 8,
   "linker_set_key" : "android::RWLock *",
   "name" : "android::RWLock *",
   "referenced_type" : "type-261",
   "self_type" : "type-263",
   "size" : 8,
   "source_file" : "/system/core/libutils/include/utils/RWLock.h"
  },
  {
   "alignment" : 8,
   "linker_set_key" : "android::RWLock::AutoRLock *",
   "name" : "android::RWLock::AutoRLock *",
   "referenced_type" : "type-266",
   "self_type" : "type-268",
   "size" : 8,
   "source_file" : "/system/core/libutils/include/utils/RWLock.h"
  },
  {
   "alignment" : 8,
   "linker_set_key" : "android::RWLock::AutoWLock *",
   "name" : "android::RWLock::AutoWLock *",
   "referenced_type" : "type-269",
   "self_type" : "type-273",
   "size" : 8,
   "source_file" : "/system/core/libutils/include/utils/RWLock.h"
  },
  {
   "alignment" : 8,
   "linker_set_key" : "android::RefBase *",
   "name" : "android::RefBase *",
   "referenced_type" : "type-31",
   "self_type" : "type-30",
   "size" : 8,
   "source_file" : "/system/core/libutils/include/utils/RefBase.h"
  },
  {
   "alignment" : 8,
   "linker_set_key" : "android::RefBase **",
   "name" : "android::RefBase **",
   "referenced_type" : "type-30",
   "self_type" : "type-671",
   "size" : 8,
   "source_file" : "/system/core/libutils/include/utils/TypeHelpers.h"
  },
  {
   "alignment" : 8,
   "linker_set_key" : "android::RefBase *const *",
   "name" : "android::RefBase *const *",
   "referenced_type" : "type-676",
   "self_type" : "type-677",
   "size" : 8,
   "source_file" : "/system/core/libutils/include/utils/TypeHelpers.h"
  },
  {
   "alignment" : 8,
   "linker_set_key" : "android::RefBase::weakref_impl *",
   "name" : "android::RefBase::weakref_impl *",
   "referenced_type" : "type-142",
   "self_type" : "type-141",
   "size" : 8,
   "source_file" : "/system/core/libutils/include/utils/RefBase.h"
  },
  {
   "alignment" : 8,
   "linker_set_key" : "android::RefBase::weakref_impl *",
   "name" : "android::RefBase::weakref_impl *",
   "referenced_type" : "type-167",
   "self_type" : "type-166",
   "size" : 8,
   "source_file" : "/system/core/libutils/include/utils/RefBase.h"
  },
  {
   "alignment" : 8,
   "linker_set_key" : "android::RefBase::weakref_impl *",
   "name" : "android::RefBase::weakref_impl *",
   "referenced_type" : "type-196",
   "self_type" : "type-195",
   "size" : 8,
   "source_file" : "/system/core/libutils/include/utils/RefBase.h"
  },
  {
   "alignment" : 8,
   "linker_set_key" : "android::RefBase::weakref_impl *",
   "name" : "android::RefBase::weakref_impl *",
   "referenced_type" : "type-211",
   "self_type" : "type-210",
   "size" : 8,
   "source_file" : "/system/core/libutils/include/utils/RefBase.h"
  },
  {
   "alignment" : 8,
   "linker_set_key" : "android::RefBase::weakref_impl *",
   "name" : "android::RefBase::weakref_impl *",
   "referenced_type" : "type-226",
   "self_type" : "type-225",
   "size" : 8,
   "source_file" : "/system/core/libutils/include/utils/RefBase.h"
  },
  {
   "alignment" : 8,
   "linker_set_key" : "android::RefBase::weakref_impl *",
   "name" : "android::RefBase::weakref_impl *",
   "referenced_type" : "type-238",
   "self_type" : "type-237",
   "size" : 8,
   "source_file" : "/system/core/libutils/include/utils/RefBase.h"
  },
  {
   "alignment" : 8,
   "linker_set_key" : "android::RefBase::weakref_impl *",
   "name" : "android::RefBase::weakref_impl *",
   "referenced_type" : "type-271",
   "self_type" : "type-270",
   "size" : 8,
   "source_file" : "/system/core/libutils/include/utils/RefBase.h"
  },
  {
   "alignment" : 8,
   "linker_set_key" : "android::RefBase::weakref_impl *",
   "name" : "android::RefBase::weakref_impl *",
   "referenced_type" : "type-34",
   "self_type" : "type-33",
   "size" : 8,
   "source_file" : "/system/core/libutils/include/utils/RefBase.h"
  },
  {
   "alignment" : 8,
   "linker_set_key" : "android::RefBase::weakref_impl *",
   "name" : "android::RefBase::weakref_impl *",
   "referenced_type" : "type-342",
   "self_type" : "type-341",
   "size" : 8,
   "source_file" : "/system/core/libutils/include/utils/RefBase.h"
  },
  {
   "alignment" : 8,
   "linker_set_key" : "android::RefBase::weakref_impl *",
   "name" : "android::RefBase::weakref_impl *",
   "referenced_type" : "type-427",
   "self_type" : "type-426",
   "size" : 8,
   "source_file" : "/system/core/libutils/include/utils/RefBase.h"
  },
  {
   "alignment" : 8,
   "linker_set_key" : "android::RefBase::weakref_impl *",
   "name" : "android::RefBase::weakref_impl *",
   "referenced_type" : "type-507",
   "self_type" : "type-506",
   "size" : 8,
   "source_file" : "/system/core/libutils/include/utils/RefBase.h"
  },
  {
   "alignment" : 8,
   "linker_set_key" : "android::RefBase::weakref_impl *",
   "name" : "android::RefBase::weakref_impl *",
   "referenced_type" : "type-57",
   "self_type" : "type-56",
   "size" : 8,
   "source_file" : "/system/core/libutils/include/utils/RefBase.h"
  },
  {
   "alignment" : 8,
   "linker_set_key" : "android::RefBase::weakref_impl *",
   "name" : "android::RefBase::weakref_impl *",
   "referenced_type" : "type-608",
   "self_type" : "type-607",
   "size" : 8,
   "source_file" : "/system/core/libutils/include/utils/RefBase.h"
  },
  {
   "alignment" : 8,
   "linker_set_key" : "android::RefBase::weakref_impl *",
   "name" : "android::RefBase::weakref_impl *",
   "referenced_type" : "type-649",
   "self_type" : "type-648",
   "size" : 8,
   "source_file" : "/system/core/libutils/include/utils/RefBase.h"
  },
  {
   "alignment" : 8,
   "linker_set_key" : "android::RefBase::weakref_impl *",
   "name" : "android::RefBase::weakref_impl *",
   "referenced_type" : "type-659",
   "self_type" : "type-658",
   "size" : 8,
   "source_file" : "/system/core/libutils/include/utils/RefBase.h"
  },
  {
   "alignment" : 8,
   "linker_set_key" : "android::RefBase::weakref_impl *",
   "name" : "android::RefBase::weakref_impl *",
   "referenced_type" : "type-685",
   "self_type" : "type-684",
   "size" : 8,
   "source_file" : "/system/core/libutils/include/utils/RefBase.h"
  },
  {
   "alignment" : 8,
   "linker_set_key" : "android::RefBase::weakref_type *",
   "name" : "android::RefBase::weakref_type *",
   "referenced_type" : "type-26",
   "self_type" : "type-25",
   "size" : 8,
   "source_file" : "/system/core/libutils/include/utils/RefBase.h"
  },
  {
   "alignment" : 8,
   "linker_set_key" : "android::RefBase::weakref_type **",
   "name" : "android::RefBase::weakref_type **",
   "referenced_type" : "type-25",
   "self_type" : "type-670",
   "size" : 8,
   "source_file" : "/system/core/libutils/include/utils/TypeHelpers.h"
  },
  {
   "alignment" : 8,
   "linker_set_key" : "android::RefBase::weakref_type *const *",
   "name" : "android::RefBase::weakref_type *const *",
   "referenced_type" : "type-674",
   "self_type" : "type-675",
   "size" : 8,
   "source_file" : "/system/core/libutils/include/utils/TypeHelpers.h"
  },
  {
   "alignment" : 8,
   "linker_set_key" : "android::ReferenceRenamer *",
   "name" : "android::ReferenceRenamer *",
   "referenced_type" : "type-504",
   "self_type" : "type-505",
   "size" : 8,
   "source_file" : "/system/core/libutils/include/utils/RefBase.h"
  },
  {
   "alignment" : 8,
   "linker_set_key" : "android::SortedVector<android::key_value_pair_t<android::String16, android::sp<android::hardware::IBinder> > > *",
   "name" : "android::SortedVector<android::key_value_pair_t<android::String16, android::sp<android::hardware::IBinder> > > *",
   "referenced_type" : "type-351",
   "self_type" : "type-350",
   "size" : 8,
   "source_file" : "/system/core/libutils/include/utils/SortedVector.h"
  },
  {
   "alignment" : 8,
   "linker_set_key" : "android::SortedVector<android::key_value_pair_t<const void *, android::hardware::BpHwBinder::ObjectManager::entry_t> > *",
   "name" : "android::SortedVector<android::key_value_pair_t<const void *, android::hardware::BpHwBinder::ObjectManager::entry_t> > *",
   "referenced_type" : "type-283",
   "self_type" : "type-515",
   "size" : 8,
   "source_file" : "/system/core/libutils/include/utils/SortedVector.h"
  },
  {
   "alignment" : 8,
   "linker_set_key" : "android::String16 *",
   "name" : "android::String16 *",
   "referenced_type" : "type-289",
   "self_type" : "type-639",
   "size" : 8,
   "source_file" : "/system/core/libutils/include/utils/String16.h"
  },
  {
   "alignment" : 8,
   "linker_set_key" : "android::String8 *",
   "name" : "android::String8 *",
   "referenced_type" : "type-382",
   "self_type" : "type-577",
   "size" : 8,
   "source_file" : "/system/core/libutils/include/utils/String8.h"
  },
  {
   "alignment" : 8,
   "linker_set_key" : "android::Thread *",
   "name" : "android::Thread *",
   "referenced_type" : "type-62",
   "self_type" : "type-61",
   "size" : 8,
   "source_file" : "/system/core/libutils/include/utils/StrongPointer.h"
  },
  {
   "alignment" : 8,
   "linker_set_key" : "android::Vector<android::RefBase *> *",
   "name" : "android::Vector<android::RefBase *> *",
   "referenced_type" : "type-527",
   "self_type" : "type-696",
   "size" : 8,
   "source_file" : "/system/core/libutils/include/utils/Vector.h"
  },
  {
   "alignment" : 8,
   "linker_set_key" : "android::Vector<android::RefBase::weakref_type *> *",
   "name" : "android::Vector<android::RefBase::weakref_type *> *",
   "referenced_type" : "type-526",
   "self_type" : "type-692",
   "size" : 8,
   "source_file" : "/system/core/libutils/include/utils/Vector.h"
  },
  {
   "alignment" : 8,
   "linker_set_key" : "android::Vector<android::String8> *",
   "name" : "android::Vector<android::String8> *",
   "referenced_type" : "type-700",
   "self_type" : "type-701",
   "size" : 8,
   "source_file" : "/system/core/libutils/include/utils/Vector.h"
  },
  {
   "alignment" : 8,
   "linker_set_key" : "android::Vector<android::hardware::BHwBinder *> *",
   "name" : "android::Vector<android::hardware::BHwBinder *> *",
   "referenced_type" : "type-525",
   "self_type" : "type-688",
   "size" : 8,
   "source_file" : "/system/core/libutils/include/utils/Vector.h"
  },
  {
   "alignment" : 8,
   "linker_set_key" : "android::Vector<android::hardware::BpHwBinder::Obituary> *",
   "name" : "android::Vector<android::hardware::BpHwBinder::Obituary> *",
   "referenced_type" : "type-158",
   "self_type" : "type-157",
   "size" : 8,
   "source_file" : "/system/libhwbinder/include/hwbinder/BpHwBinder.h"
  },
  {
   "alignment" : 8,
   "linker_set_key" : "android::Vector<android::hardware::BpHwBinder::Obituary> *",
   "name" : "android::Vector<android::hardware::BpHwBinder::Obituary> *",
   "referenced_type" : "type-257",
   "self_type" : "type-256",
   "size" : 8,
   "source_file" : "/system/libhwbinder/include/hwbinder/BpHwBinder.h"
  },
  {
   "alignment" : 8,
   "linker_set_key" : "android::Vector<android::hardware::BpHwBinder::Obituary> *",
   "name" : "android::Vector<android::hardware::BpHwBinder::Obituary> *",
   "referenced_type" : "type-280",
   "self_type" : "type-279",
   "size" : 8,
   "source_file" : "/system/libhwbinder/include/hwbinder/BpHwBinder.h"
  },
  {
   "alignment" : 8,
   "linker_set_key" : "android::Vector<android::hardware::BpHwBinder::Obituary> *",
   "name" : "android::Vector<android::hardware::BpHwBinder::Obituary> *",
   "referenced_type" : "type-296",
   "self_type" : "type-295",
   "size" : 8,
   "source_file" : "/system/libhwbinder/include/hwbinder/BpHwBinder.h"
  },
  {
   "alignment" : 8,
   "linker_set_key" : "android::Vector<android::hardware::BpHwBinder::Obituary> *",
   "name" : "android::Vector<android::hardware::BpHwBinder::Obituary> *",
   "referenced_type" : "type-370",
   "self_type" : "type-369",
   "size" : 8,
   "source_file" : "/system/libhwbinder/include/hwbinder/BpHwBinder.h"
  },
  {
   "alignment" : 8,
   "linker_set_key" : "android::Vector<android::hardware::BpHwBinder::Obituary> *",
   "name" : "android::Vector<android::hardware::BpHwBinder::Obituary> *",
   "referenced_type" : "type-519",
   "self_type" : "type-521",
   "size" : 8,
   "source_file" : "/system/core/libutils/include/utils/Vector.h"
  },
  {
   "alignment" : 8,
   "linker_set_key" : "android::Vector<android::hardware::BpHwBinder::Obituary> *",
   "name" : "android::Vector<android::hardware::BpHwBinder::Obituary> *",
   "referenced_type" : "type-717",
   "self_type" : "type-716",
   "size" : 8,
   "source_file" : "/system/libhwbinder/include/hwbinder/BpHwBinder.h"
  },
  {
   "alignment" : 8,
   "linker_set_key" : "android::Vector<android::hardware::BpHwBinder::Obituary> *",
   "name" : "android::Vector<android::hardware::BpHwBinder::Obituary> *",
   "referenced_type" : "type-76",
   "self_type" : "type-75",
   "size" : 8,
   "source_file" : "/system/libhwbinder/include/hwbinder/BpHwBinder.h"
  },
  {
   "alignment" : 8,
   "linker_set_key" : "android::Vector<android::hardware::ProcessState::handle_entry> *",
   "name" : "android::Vector<android::hardware::ProcessState::handle_entry> *",
   "referenced_type" : "type-356",
   "self_type" : "type-355",
   "size" : 8,
   "source_file" : "/system/core/libutils/include/utils/Vector.h"
  },
  {
   "alignment" : 8,
   "linker_set_key" : "android::Vector<android::sp<android::hardware::BufferedTextOutput::BufferState> > *",
   "name" : "android::Vector<android::sp<android::hardware::BufferedTextOutput::BufferState> > *",
   "referenced_type" : "type-628",
   "self_type" : "type-629",
   "size" : 8,
   "source_file" : "/system/core/libutils/include/utils/Vector.h"
  },
  {
   "alignment" : 8,
   "linker_set_key" : "android::Vector<int> *",
   "name" : "android::Vector<int> *",
   "referenced_type" : "type-622",
   "self_type" : "type-627",
   "size" : 8,
   "source_file" : "/system/core/libutils/include/utils/Vector.h"
  },
  {
   "alignment" : 8,
   "linker_set_key" : "android::VirtualLightRefBase *",
   "name" : "android::VirtualLightRefBase *",
   "referenced_type" : "type-3",
   "self_type" : "type-421",
   "size" : 8,
   "source_file" : "/system/core/libutils/include/utils/LightRefBase.h"
  },
  {
   "alignment" : 8,
   "linker_set_key" : "android::hardware::BHwBinder *",
   "name" : "android::hardware::BHwBinder *",
   "referenced_type" : "type-37",
   "self_type" : "type-36",
   "size" : 8,
   "source_file" : "/system/libhwbinder/include/hwbinder/IBinder.h"
  },
  {
   "alignment" : 8,
   "linker_set_key" : "android::hardware::BHwBinder **",
   "name" : "android::hardware::BHwBinder **",
   "referenced_type" : "type-36",
   "self_type" : "type-669",
   "size" : 8,
   "source_file" : "/system/core/libutils/include/utils/TypeHelpers.h"
  },
  {
   "alignment" : 8,
   "linker_set_key" : "android::hardware::BHwBinder *const *",
   "name" : "android::hardware::BHwBinder *const *",
   "referenced_type" : "type-672",
   "self_type" : "type-673",
   "size" : 8,
   "source_file" : "/system/core/libutils/include/utils/TypeHelpers.h"
  },
  {
   "alignment" : 8,
   "linker_set_key" : "android::hardware::BHwBinder::Extras *",
   "name" : "android::hardware::BHwBinder::Extras *",
   "referenced_type" : "type-140",
   "self_type" : "type-139",
   "size" : 8,
   "source_file" : "/system/libhwbinder/include/hwbinder/Binder.h"
  },
  {
   "alignment" : 8,
   "linker_set_key" : "android::hardware::BHwBinder::Extras *",
   "name" : "android::hardware::BHwBinder::Extras *",
   "referenced_type" : "type-152",
   "self_type" : "type-151",
   "size" : 8,
   "source_file" : "/system/libhwbinder/include/hwbinder/Binder.h"
  },
  {
   "alignment" : 8,
   "linker_set_key" : "android::hardware::BpHwBinder *",
   "name" : "android::hardware::BpHwBinder *",
   "referenced_type" : "type-276",
   "self_type" : "type-657",
   "size" : 8,
   "source_file" : "/system/libhwbinder/include/hwbinder/IBinder.h"
  },
  {
   "alignment" : 8,
   "linker_set_key" : "android::hardware::BpHwBinder::Obituary *",
   "name" : "android::hardware::BpHwBinder::Obituary *",
   "referenced_type" : "type-294",
   "self_type" : "type-492",
   "size" : 8,
   "source_file" : "/system/core/libutils/include/utils/TypeHelpers.h"
  },
  {
   "alignment" : 8,
   "linker_set_key" : "android::hardware::BpHwBinder::ObjectManager *",
   "name" : "android::hardware::BpHwBinder::ObjectManager *",
   "referenced_type" : "type-281",
   "self_type" : "type-536",
   "size" : 8,
   "source_file" : "/system/libhwbinder/include/hwbinder/BpHwBinder.h"
  },
  {
   "alignment" : 8,
   "linker_set_key" : "android::hardware::BpHwRefBase *",
   "name" : "android::hardware::BpHwRefBase *",
   "referenced_type" : "type-144",
   "self_type" : "type-150",
   "size" : 8,
   "source_file" : "/system/libhwbinder/include/hwbinder/Binder.h"
  },
  {
   "alignment" : 8,
   "linker_set_key" : "android::hardware::BufferedTextOutput *",
   "name" : "android::hardware::BufferedTextOutput *",
   "referenced_type" : "type-613",
   "self_type" : "type-614",
   "size" : 8,
   "source_file" : "/system/libhwbinder/include/hwbinder/BufferedTextOutput.h"
  },
  {
   "alignment" : 8,
   "linker_set_key" : "android::hardware::BufferedTextOutput::BufferState *",
   "name" : "android::hardware::BufferedTextOutput::BufferState *",
   "referenced_type" : "type-193",
   "self_type" : "type-192",
   "size" : 8,
   "source_file" : "/system/core/libutils/include/utils/StrongPointer.h"
  },
  {
   "alignment" : 8,
   "linker_set_key" : "android::hardware::BufferedTextOutput::BufferState *",
   "name" : "android::hardware::BufferedTextOutput::BufferState *",
   "referenced_type" : "type-438",
   "self_type" : "type-437",
   "size" : 8,
   "source_file" : "/system/libhwbinder/include/hwbinder/BufferedTextOutput.h"
  },
  {
   "alignment" : 8,
   "linker_set_key" : "android::hardware::BufferedTextOutput::BufferState *",
   "name" : "android::hardware::BufferedTextOutput::BufferState *",
   "referenced_type" : "type-583",
   "self_type" : "type-582",
   "size" : 8,
   "source_file" : "/system/core/libutils/include/utils/StrongPointer.h"
  },
  {
   "alignment" : 8,
   "linker_set_key" : "android::hardware::BufferedTextOutput::ThreadState *",
   "name" : "android::hardware::BufferedTextOutput::ThreadState *",
   "referenced_type" : "type-199",
   "self_type" : "type-198",
   "size" : 8,
   "source_file" : "/system/libhwbinder/include/hwbinder/BufferedTextOutput.h"
  },
  {
   "alignment" : 8,
   "linker_set_key" : "android::hardware::BufferedTextOutput::ThreadState *",
   "name" : "android::hardware::BufferedTextOutput::ThreadState *",
   "referenced_type" : "type-617",
   "self_type" : "type-616",
   "size" : 8,
   "source_file" : "/system/libhwbinder/include/hwbinder/BufferedTextOutput.h"
  },
  {
   "alignment" : 8,
   "linker_set_key" : "android::hardware::HexDump *",
   "name" : "android::hardware::HexDump *",
   "referenced_type" : "type-455",
   "self_type" : "type-595",
   "size" : 8,
   "source_file" : "/system/libhwbinder/include/hwbinder/TextOutput.h"
  },
  {
   "alignment" : 8,
   "linker_set_key" : "android::hardware::IBinder *",
   "name" : "android::hardware::IBinder *",
   "referenced_type" : "type-39",
   "self_type" : "type-53",
   "size" : 8,
   "source_file" : "/system/core/libutils/include/utils/StrongPointer.h"
  },
  {
   "alignment" : 8,
   "linker_set_key" : "android::hardware::IBinder::DeathRecipient *",
   "name" : "android::hardware::IBinder::DeathRecipient *",
   "referenced_type" : "type-84",
   "self_type" : "type-83",
   "size" : 8,
   "source_file" : "/system/core/libutils/include/utils/RefBase.h"
  },
  {
   "alignment" : 8,
   "linker_set_key" : "android::hardware::IInterface *",
   "name" : "android::hardware::IInterface *",
   "referenced_type" : "type-298",
   "self_type" : "type-664",
   "size" : 8,
   "source_file" : "/system/core/libutils/include/utils/StrongPointer.h"
  },
  {
   "alignment" : 8,
   "linker_set_key" : "android::hardware::IPCThreadState *",
   "name" : "android::hardware::IPCThreadState *",
   "referenced_type" : "type-543",
   "self_type" : "type-708",
   "size" : 8,
   "source_file" : "/system/libhwbinder/include/hwbinder/IPCThreadState.h"
  },
  {
   "alignment" : 8,
   "linker_set_key" : "android::hardware::Parcel *",
   "name" : "android::hardware::Parcel *",
   "referenced_type" : "type-6",
   "self_type" : "type-18",
   "size" : 8,
   "source_file" : "/system/libhwbinder/include/hwbinder/Binder.h"
  },
  {
   "alignment" : 8,
   "linker_set_key" : "android::hardware::PoolThread *",
   "name" : "android::hardware::PoolThread *",
   "referenced_type" : "type-349",
   "self_type" : "type-348",
   "size" : 8,
   "source_file" : "/system/core/libutils/include/utils/StrongPointer.h"
  },
  {
   "alignment" : 8,
   "linker_set_key" : "android::hardware::ProcessState *",
   "name" : "android::hardware::ProcessState *",
   "referenced_type" : "type-375",
   "self_type" : "type-374",
   "size" : 8,
   "source_file" : "/system/core/libutils/include/utils/StrongPointer.h"
  },
  {
   "alignment" : 8,
   "linker_set_key" : "android::hardware::ProcessState::handle_entry *",
   "name" : "android::hardware::ProcessState::handle_entry *",
   "referenced_type" : "type-326",
   "self_type" : "type-325",
   "size" : 8,
   "source_file" : "/system/core/libutils/include/utils/TypeHelpers.h"
  },
  {
   "alignment" : 8,
   "linker_set_key" : "android::hardware::TextOutput &(*)(android::hardware::TextOutput &)",
   "name" : "android::hardware::TextOutput &(*)(android::hardware::TextOutput &)",
   "referenced_type" : "type-591",
   "self_type" : "type-592",
   "size" : 8,
   "source_file" : "/system/libhwbinder/include/hwbinder/TextOutput.h"
  },
  {
   "alignment" : 8,
   "linker_set_key" : "android::hardware::TextOutput *",
   "name" : "android::hardware::TextOutput *",
   "referenced_type" : "type-448",
   "self_type" : "type-447",
   "size" : 8,
   "source_file" : "/system/libhwbinder/include/hwbinder/TextOutput.h"
  },
  {
   "alignment" : 8,
   "linker_set_key" : "android::hardware::TextOutput::Bundle *",
   "name" : "android::hardware::TextOutput::Bundle *",
   "referenced_type" : "type-586",
   "self_type" : "type-588",
   "size" : 8,
   "source_file" : "/system/libhwbinder/include/hwbinder/TextOutput.h"
  },
  {
   "alignment" : 8,
   "linker_set_key" : "android::hardware::TypeCode *",
   "name" : "android::hardware::TypeCode *",
   "referenced_type" : "type-452",
   "self_type" : "type-593",
   "size" : 8,
   "source_file" : "/system/libhwbinder/include/hwbinder/TextOutput.h"
  },
  {
   "alignment" : 8,
   "linker_set_key" : "android::key_value_pair_t<android::String16, android::sp<android::hardware::IBinder> > *",
   "name" : "android::key_value_pair_t<android::String16, android::sp<android::hardware::IBinder> > *",
   "referenced_type" : "type-323",
   "self_type" : "type-327",
   "size" : 8,
   "source_file" : "/system/core/libutils/include/utils/TypeHelpers.h"
  },
  {
   "alignment" : 8,
   "linker_set_key" : "android::key_value_pair_t<const void *, android::hardware::BpHwBinder::ObjectManager::entry_t> *",
   "name" : "android::key_value_pair_t<const void *, android::hardware::BpHwBinder::ObjectManager::entry_t> *",
   "referenced_type" : "type-487",
   "self_type" : "type-491",
   "size" : 8,
   "source_file" : "/system/core/libutils/include/utils/TypeHelpers.h"
  },
  {
   "alignment" : 8,
   "linker_set_key" : "android::sp<android::Thread> *",
   "name" : "android::sp<android::Thread> *",
   "referenced_type" : "type-60",
   "self_type" : "type-346",
   "size" : 8,
   "source_file" : "/system/core/libutils/include/utils/StrongPointer.h"
  },
  {
   "alignment" : 8,
   "linker_set_key" : "android::sp<android::hardware::BHwBinder> *",
   "name" : "android::sp<android::hardware::BHwBinder> *",
   "referenced_type" : "type-545",
   "self_type" : "type-704",
   "size" : 8,
   "source_file" : "/system/core/libutils/include/utils/StrongPointer.h"
  },
  {
   "alignment" : 8,
   "linker_set_key" : "android::sp<android::hardware::BufferedTextOutput::BufferState> *",
   "name" : "android::sp<android::hardware::BufferedTextOutput::BufferState> *",
   "referenced_type" : "type-581",
   "self_type" : "type-611",
   "size" : 8,
   "source_file" : "/system/core/libutils/include/utils/TypeHelpers.h"
  },
  {
   "alignment" : 8,
   "linker_set_key" : "android::sp<android::hardware::IBinder::DeathRecipient> *",
   "name" : "android::sp<android::hardware::IBinder::DeathRecipient> *",
   "referenced_type" : "type-513",
   "self_type" : "type-533",
   "size" : 8,
   "source_file" : "/system/core/libutils/include/utils/StrongPointer.h"
  },
  {
   "alignment" : 8,
   "linker_set_key" : "android::sp<android::hardware::IBinder> *",
   "name" : "android::sp<android::hardware::IBinder> *",
   "referenced_type" : "type-71",
   "self_type" : "type-665",
   "size" : 8,
   "source_file" : "/system/core/libutils/include/utils/StrongPointer.h"
  },
  {
   "alignment" : 8,
   "linker_set_key" : "android::sp<android::hardware::ProcessState> *",
   "name" : "android::sp<android::hardware::ProcessState> *",
   "referenced_type" : "type-373",
   "self_type" : "type-550",
   "size" : 8,
   "source_file" : "/system/core/libutils/include/utils/StrongPointer.h"
  },
  {
   "alignment" : 8,
   "linker_set_key" : "android::wp<android::hardware::IBinder::DeathRecipient> *",
   "name" : "android::wp<android::hardware::IBinder::DeathRecipient> *",
   "referenced_type" : "type-82",
   "self_type" : "type-128",
   "size" : 8,
   "source_file" : "/system/libhwbinder/include/hwbinder/Binder.h"
  },
  {
   "alignment" : 8,
   "linker_set_key" : "android::wp<android::hardware::IBinder> *",
   "name" : "android::wp<android::hardware::IBinder> *",
   "referenced_type" : "type-52",
   "self_type" : "type-485",
   "size" : 8,
   "source_file" : "/system/core/libutils/include/utils/RefBase.h"
  },
  {
   "alignment" : 8,
   "linker_set_key" : "android_flex_plane *",
   "name" : "android_flex_plane *",
   "referenced_type" : "type-229",
   "self_type" : "type-234",
   "size" : 8,
   "source_file" : "/system/core/libsystem/include/system/graphics.h"
  },
  {
   "alignment" : 8,
   "linker_set_key" : "bool (*)(const android::String16 &, const android::sp<android::hardware::IBinder> &, void *)",
   "name" : "bool (*)(const android::String16 &, const android::sp<android::hardware::IBinder> &, void *)",
   "referenced_type" : "type-379",
   "self_type" : "type-378",
   "size" : 8,
   "source_file" : "/system/libhwbinder/include/hwbinder/ProcessState.h"
  },
  {
   "alignment" : 8,
   "linker_set_key" : "bool *",
   "name" : "bool *",
   "referenced_type" : "type-14",
   "self_type" : "type-105",
   "size" : 8,
   "source_file" : "/system/libhwbinder/include/hwbinder/Parcel.h"
  },
  {
   "alignment" : 8,
   "linker_set_key" : "char *",
   "name" : "char *",
   "referenced_type" : "type-120",
   "self_type" : "type-119",
   "size" : 8,
   "source_file" : "/system/core/liblog/include/log/log_read.h"
  },
  {
   "alignment" : 8,
   "linker_set_key" : "const android::CallStack *",
   "name" : "const android::CallStack *",
   "referenced_type" : "type-812",
   "self_type" : "type-813",
   "size" : 8,
   "source_file" : "/system/core/libutils/include/utils/CallStack.h"
  },
  {
   "alignment" : 8,
   "linker_set_key" : "const android::KeyedVector<android::String16, android::sp<android::hardware::IBinder> > *",
   "name" : "const android::KeyedVector<android::String16, android::sp<android::hardware::IBinder> > *",
   "referenced_type" : "type-364",
   "self_type" : "type-366",
   "size" : 8,
   "source_file" : "/system/core/libutils/include/utils/KeyedVector.h"
  },
  {
   "alignment" : 8,
   "linker_set_key" : "const android::KeyedVector<const void *, android::hardware::BpHwBinder::ObjectManager::entry_t> *",
   "name" : "const android::KeyedVector<const void *, android::hardware::BpHwBinder::ObjectManager::entry_t> *",
   "referenced_type" : "type-529",
   "self_type" : "type-530",
   "size" : 8,
   "source_file" : "/system/core/libutils/include/utils/KeyedVector.h"
  },
  {
   "alignment" : 8,
   "linker_set_key" : "const android::RefBase *",
   "name" : "const android::RefBase *",
   "referenced_type" : "type-509",
   "self_type" : "type-511",
   "size" : 8,
   "source_file" : "/system/core/libutils/include/utils/RefBase.h"
  },
  {
   "alignment" : 8,
   "linker_set_key" : "const android::SortedVector<android::key_value_pair_t<android::String16, android::sp<android::hardware::IBinder> > > *",
   "name" : "const android::SortedVector<android::key_value_pair_t<android::String16, android::sp<android::hardware::IBinder> > > *",
   "referenced_type" : "type-353",
   "self_type" : "type-354",
   "size" : 8,
   "source_file" : "/system/core/libutils/include/utils/SortedVector.h"
  },
  {
   "alignment" : 8,
   "linker_set_key" : "const android::SortedVector<android::key_value_pair_t<const void *, android::hardware::BpHwBinder::ObjectManager::entry_t> > *",
   "name" : "const android::SortedVector<android::key_value_pair_t<const void *, android::hardware::BpHwBinder::ObjectManager::entry_t> > *",
   "referenced_type" : "type-516",
   "self_type" : "type-517",
   "size" : 8,
   "source_file" : "/system/core/libutils/include/utils/SortedVector.h"
  },
  {
   "alignment" : 8,
   "linker_set_key" : "const android::String16 *",
   "name" : "const android::String16 *",
   "referenced_type" : "type-381",
   "self_type" : "type-615",
   "size" : 8,
   "source_file" : "/system/core/libutils/include/utils/String16.h"
  },
  {
   "alignment" : 8,
   "linker_set_key" : "const android::String8 *",
   "name" : "const android::String8 *",
   "referenced_type" : "type-542",
   "self_type" : "type-549",
   "size" : 8,
   "source_file" : "/system/core/libutils/include/utils/String8.h"
  },
  {
   "alignment" : 8,
   "linker_set_key" : "const android::Vector<android::RefBase *> *",
   "name" : "const android::Vector<android::RefBase *> *",
   "referenced_type" : "type-697",
   "self_type" : "type-698",
   "size" : 8,
   "source_file" : "/system/core/libutils/include/utils/Vector.h"
  },
  {
   "alignment" : 8,
   "linker_set_key" : "const android::Vector<android::RefBase::weakref_type *> *",
   "name" : "const android::Vector<android::RefBase::weakref_type *> *",
   "referenced_type" : "type-693",
   "self_type" : "type-694",
   "size" : 8,
   "source_file" : "/system/core/libutils/include/utils/Vector.h"
  },
  {
   "alignment" : 8,
   "linker_set_key" : "const android::Vector<android::String8> *",
   "name" : "const android::Vector<android::String8> *",
   "referenced_type" : "type-702",
   "self_type" : "type-703",
   "size" : 8,
   "source_file" : "/system/core/libutils/include/utils/Vector.h"
  },
  {
   "alignment" : 8,
   "linker_set_key" : "const android::Vector<android::hardware::BHwBinder *> *",
   "name" : "const android::Vector<android::hardware::BHwBinder *> *",
   "referenced_type" : "type-689",
   "self_type" : "type-690",
   "size" : 8,
   "source_file" : "/system/core/libutils/include/utils/Vector.h"
  },
  {
   "alignment" : 8,
   "linker_set_key" : "const android::Vector<android::hardware::BpHwBinder::Obituary> *",
   "name" : "const android::Vector<android::hardware::BpHwBinder::Obituary> *",
   "referenced_type" : "type-522",
   "self_type" : "type-523",
   "size" : 8,
   "source_file" : "/system/core/libutils/include/utils/Vector.h"
  },
  {
   "alignment" : 8,
   "linker_set_key" : "const android::Vector<android::hardware::ProcessState::handle_entry> *",
   "name" : "const android::Vector<android::hardware::ProcessState::handle_entry> *",
   "referenced_type" : "type-358",
   "self_type" : "type-359",
   "size" : 8,
   "source_file" : "/system/core/libutils/include/utils/Vector.h"
  },
  {
   "alignment" : 8,
   "linker_set_key" : "const android::Vector<android::sp<android::hardware::BufferedTextOutput::BufferState> > *",
   "name" : "const android::Vector<android::sp<android::hardware::BufferedTextOutput::BufferState> > *",
   "referenced_type" : "type-630",
   "self_type" : "type-631",
   "size" : 8,
   "source_file" : "/system/core/libutils/include/utils/Vector.h"
  },
  {
   "alignment" : 8,
   "linker_set_key" : "const android::Vector<int> *",
   "name" : "const android::Vector<int> *",
   "referenced_type" : "type-623",
   "self_type" : "type-624",
   "size" : 8,
   "source_file" : "/system/core/libutils/include/utils/Vector.h"
  },
  {
   "alignment" : 8,
   "linker_set_key" : "const android::VectorImpl *",
   "name" : "const android::VectorImpl *",
   "referenced_type" : "type-185",
   "self_type" : "type-190",
   "size" : 8,
   "source_file" : "/system/core/libutils/include/utils/VectorImpl.h"
  },
  {
   "alignment" : 8,
   "linker_set_key" : "const android::hardware::BHwBinder *",
   "name" : "const android::hardware::BHwBinder *",
   "referenced_type" : "type-133",
   "self_type" : "type-136",
   "size" : 8,
   "source_file" : "/system/libhwbinder/include/hwbinder/Binder.h"
  },
  {
   "alignment" : 8,
   "linker_set_key" : "const android::hardware::BpHwBinder *",
   "name" : "const android::hardware::BpHwBinder *",
   "referenced_type" : "type-275",
   "self_type" : "type-293",
   "size" : 8,
   "source_file" : "/system/libhwbinder/include/hwbinder/BpHwBinder.h"
  },
  {
   "alignment" : 8,
   "linker_set_key" : "const android::hardware::BpHwBinder::Obituary *",
   "name" : "const android::hardware::BpHwBinder::Obituary *",
   "referenced_type" : "type-494",
   "self_type" : "type-495",
   "size" : 8,
   "source_file" : "/system/core/libutils/include/utils/TypeHelpers.h"
  },
  {
   "alignment" : 8,
   "linker_set_key" : "const android::hardware::BpHwBinder::ObjectManager *",
   "name" : "const android::hardware::BpHwBinder::ObjectManager *",
   "referenced_type" : "type-537",
   "self_type" : "type-538",
   "size" : 8,
   "source_file" : "/system/libhwbinder/include/hwbinder/BpHwBinder.h"
  },
  {
   "alignment" : 8,
   "linker_set_key" : "const android::hardware::BpHwRefBase *",
   "name" : "const android::hardware::BpHwRefBase *",
   "referenced_type" : "type-155",
   "self_type" : "type-156",
   "size" : 8,
   "source_file" : "/system/libhwbinder/include/hwbinder/Binder.h"
  },
  {
   "alignment" : 8,
   "linker_set_key" : "const android::hardware::BufferedTextOutput *",
   "name" : "const android::hardware::BufferedTextOutput *",
   "referenced_type" : "type-618",
   "self_type" : "type-619",
   "size" : 8,
   "source_file" : "/system/libhwbinder/include/hwbinder/BufferedTextOutput.h"
  },
  {
   "alignment" : 8,
   "linker_set_key" : "const android::hardware::HexDump *",
   "name" : "const android::hardware::HexDump *",
   "referenced_type" : "type-454",
   "self_type" : "type-597",
   "size" : 8,
   "source_file" : "/system/libhwbinder/include/hwbinder/TextOutput.h"
  },
  {
   "alignment" : 8,
   "linker_set_key" : "const android::hardware::IBinder *",
   "name" : "const android::hardware::IBinder *",
   "referenced_type" : "type-646",
   "self_type" : "type-647",
   "size" : 8,
   "source_file" : "/system/libhwbinder/include/hwbinder/IBinder.h"
  },
  {
   "alignment" : 8,
   "linker_set_key" : "const android::hardware::IBinder::DeathRecipient *",
   "name" : "const android::hardware::IBinder::DeathRecipient *",
   "referenced_type" : "type-531",
   "self_type" : "type-532",
   "size" : 8,
   "source_file" : "/system/core/libutils/include/utils/RefBase.h"
  },
  {
   "alignment" : 8,
   "linker_set_key" : "const android::hardware::IInterface *",
   "name" : "const android::hardware::IInterface *",
   "referenced_type" : "type-667",
   "self_type" : "type-668",
   "size" : 8,
   "source_file" : "/system/core/libutils/include/utils/StrongPointer.h"
  },
  {
   "alignment" : 8,
   "linker_set_key" : "const android::hardware::IPCThreadState *",
   "name" : "const android::hardware::IPCThreadState *",
   "referenced_type" : "type-710",
   "self_type" : "type-711",
   "size" : 8,
   "source_file" : "/system/libhwbinder/include/hwbinder/IPCThreadState.h"
  },
  {
   "alignment" : 8,
   "linker_set_key" : "const android::hardware::Parcel *",
   "name" : "const android::hardware::Parcel *",
   "referenced_type" : "type-5",
   "self_type" : "type-77",
   "size" : 8,
   "source_file" : "/system/libhwbinder/include/hwbinder/Parcel.h"
  },
  {
   "alignment" : 8,
   "linker_set_key" : "const android::hardware::ProcessState *",
   "name" : "const android::hardware::ProcessState *",
   "referenced_type" : "type-392",
   "self_type" : "type-393",
   "size" : 8,
   "source_file" : "/system/core/libutils/include/utils/StrongPointer.h"
  },
  {
   "alignment" : 8,
   "linker_set_key" : "const android::hardware::ProcessState::handle_entry *",
   "name" : "const android::hardware::ProcessState::handle_entry *",
   "referenced_type" : "type-328",
   "self_type" : "type-329",
   "size" : 8,
   "source_file" : "/system/core/libutils/include/utils/TypeHelpers.h"
  },
  {
   "alignment" : 8,
   "linker_set_key" : "const android::hardware::TypeCode *",
   "name" : "const android::hardware::TypeCode *",
   "referenced_type" : "type-451",
   "self_type" : "type-594",
   "size" : 8,
   "source_file" : "/system/libhwbinder/include/hwbinder/TextOutput.h"
  },
  {
   "alignment" : 8,
   "linker_set_key" : "const android::key_value_pair_t<android::String16, android::sp<android::hardware::IBinder> > *",
   "name" : "const android::key_value_pair_t<android::String16, android::sp<android::hardware::IBinder> > *",
   "referenced_type" : "type-322",
   "self_type" : "type-332",
   "size" : 8,
   "source_file" : "/system/core/libutils/include/utils/TypeHelpers.h"
  },
  {
   "alignment" : 8,
   "linker_set_key" : "const android::key_value_pair_t<const void *, android::hardware::BpHwBinder::ObjectManager::entry_t> *",
   "name" : "const android::key_value_pair_t<const void *, android::hardware::BpHwBinder::ObjectManager::entry_t> *",
   "referenced_type" : "type-486",
   "self_type" : "type-493",
   "size" : 8,
   "source_file" : "/system/core/libutils/include/utils/TypeHelpers.h"
  },
  {
   "alignment" : 8,
   "linker_set_key" : "const android::sp<android::Thread> *",
   "name" : "const android::sp<android::Thread> *",
   "referenced_type" : "type-357",
   "self_type" : "type-365",
   "size" : 8,
   "source_file" : "/system/core/libutils/include/utils/StrongPointer.h"
  },
  {
   "alignment" : 8,
   "linker_set_key" : "const android::sp<android::hardware::BHwBinder> *",
   "name" : "const android::sp<android::hardware::BHwBinder> *",
   "referenced_type" : "type-709",
   "self_type" : "type-719",
   "size" : 8,
   "source_file" : "/system/core/libutils/include/utils/StrongPointer.h"
  },
  {
   "alignment" : 8,
   "linker_set_key" : "const android::sp<android::hardware::BufferedTextOutput::BufferState> *",
   "name" : "const android::sp<android::hardware::BufferedTextOutput::BufferState> *",
   "referenced_type" : "type-605",
   "self_type" : "type-612",
   "size" : 8,
   "source_file" : "/system/core/libutils/include/utils/TypeHelpers.h"
  },
  {
   "alignment" : 8,
   "linker_set_key" : "const android::sp<android::hardware::IBinder::DeathRecipient> *",
   "name" : "const android::sp<android::hardware::IBinder::DeathRecipient> *",
   "referenced_type" : "type-512",
   "self_type" : "type-535",
   "size" : 8,
   "source_file" : "/system/core/libutils/include/utils/StrongPointer.h"
  },
  {
   "alignment" : 8,
   "linker_set_key" : "const android::sp<android::hardware::IBinder> *",
   "name" : "const android::sp<android::hardware::IBinder> *",
   "referenced_type" : "type-154",
   "self_type" : "type-806",
   "size" : 8,
   "source_file" : "/system/core/libutils/include/utils/StrongPointer.h"
  },
  {
   "alignment" : 8,
   "linker_set_key" : "const android::sp<android::hardware::IInterface> *",
   "name" : "const android::sp<android::hardware::IInterface> *",
   "referenced_type" : "type-662",
   "self_type" : "type-666",
   "size" : 8,
   "source_file" : "/system/core/libutils/include/utils/StrongPointer.h"
  },
  {
   "alignment" : 8,
   "linker_set_key" : "const android::sp<android::hardware::ProcessState> *",
   "name" : "const android::sp<android::hardware::ProcessState> *",
   "referenced_type" : "type-544",
   "self_type" : "type-551",
   "size" : 8,
   "source_file" : "/system/core/libutils/include/utils/StrongPointer.h"
  },
  {
   "alignment" : 8,
   "linker_set_key" : "const android::wp<android::hardware::IBinder::DeathRecipient> *",
   "name" : "const android::wp<android::hardware::IBinder::DeathRecipient> *",
   "referenced_type" : "type-81",
   "self_type" : "type-520",
   "size" : 8,
   "source_file" : "/system/core/libutils/include/utils/RefBase.h"
  },
  {
   "alignment" : 8,
   "linker_set_key" : "const android::wp<android::hardware::IBinder> *",
   "name" : "const android::wp<android::hardware::IBinder> *",
   "referenced_type" : "type-51",
   "self_type" : "type-69",
   "size" : 8,
   "source_file" : "/system/core/libutils/include/utils/RefBase.h"
  },
  {
   "alignment" : 8,
   "linker_set_key" : "const binder_buffer_object *",
   "name" : "const binder_buffer_object *",
   "referenced_type" : "type-113",
   "self_type" : "type-115",
   "size" : 8,
   "source_file" : "/system/libhwbinder/include/hwbinder/Parcel.h"
  },
  {
   "alignment" : 8,
   "linker_set_key" : "const binder_buffer_object *",
   "name" : "const binder_buffer_object *",
   "referenced_type" : "type-310",
   "self_type" : "type-312",
   "size" : 8,
   "source_file" : "/system/libhwbinder/include/hwbinder/Parcel.h"
  },
  {
   "alignment" : 8,
   "linker_set_key" : "const char *",
   "name" : "const char *",
   "referenced_type" : "type-384",
   "self_type" : "type-383",
   "size" : 8,
   "source_file" : "/system/core/libutils/include/utils/String8.h"
  },
  {
   "alignment" : 8,
   "linker_set_key" : "const char16_t *",
   "name" : "const char16_t *",
   "referenced_type" : "type-291",
   "self_type" : "type-290",
   "size" : 8,
   "source_file" : "/system/core/libutils/include/utils/String16.h"
  },
  {
   "alignment" : 8,
   "linker_set_key" : "const flat_binder_object *",
   "name" : "const flat_binder_object *",
   "referenced_type" : "type-302",
   "self_type" : "type-308",
   "size" : 8,
   "source_file" : "/system/libhwbinder/include/hwbinder/Parcel.h"
  },
  {
   "alignment" : 8,
   "linker_set_key" : "const flat_binder_object *",
   "name" : "const flat_binder_object *",
   "referenced_type" : "type-85",
   "self_type" : "type-108",
   "size" : 8,
   "source_file" : "/system/libhwbinder/include/hwbinder/Parcel.h"
  },
  {
   "alignment" : 8,
   "linker_set_key" : "const int *",
   "name" : "const int *",
   "referenced_type" : "type-277",
   "self_type" : "type-625",
   "size" : 8,
   "source_file" : "/system/core/libutils/include/utils/Vector.h"
  },
  {
   "alignment" : 8,
   "linker_set_key" : "const log_msg *",
   "name" : "const log_msg *",
   "referenced_type" : "type-176",
   "self_type" : "type-177",
   "size" : 8,
   "source_file" : "/system/core/liblog/include/log/log_read.h"
  },
  {
   "alignment" : 8,
   "linker_set_key" : "const native_handle *",
   "name" : "const native_handle *",
   "referenced_type" : "type-88",
   "self_type" : "type-91",
   "size" : 8,
   "source_file" : "/system/libhwbinder/include/hwbinder/Parcel.h"
  },
  {
   "alignment" : 8,
   "linker_set_key" : "const native_handle **",
   "name" : "const native_handle **",
   "referenced_type" : "type-91",
   "self_type" : "type-112",
   "size" : 8,
   "source_file" : "/system/libhwbinder/include/hwbinder/Parcel.h"
  },
  {
   "alignment" : 8,
   "linker_set_key" : "const unsigned char *",
   "name" : "const unsigned char *",
   "referenced_type" : "type-20",
   "self_type" : "type-19",
   "size" : 8,
   "source_file" : "/system/libhwbinder/include/hwbinder/Parcel.h"
  },
  {
   "alignment" : 8,
   "linker_set_key" : "const unsigned long *",
   "name" : "const unsigned long *",
   "referenced_type" : "type-187",
   "self_type" : "type-800",
   "size" : 8,
   "source_file" : "/system/libhwbinder/include/hwbinder/TextOutput.h"
  },
  {
   "alignment" : 8,
   "linker_set_key" : "const unsigned long long *",
   "name" : "const unsigned long long *",
   "referenced_type" : "type-22",
   "self_type" : "type-21",
   "size" : 8,
   "source_file" : "/system/libhwbinder/include/hwbinder/Parcel.h"
  },
  {
   "alignment" : 8,
   "linker_set_key" : "const void *",
   "name" : "const void *",
   "referenced_type" : "type-111",
   "self_type" : "type-110",
   "size" : 8,
   "source_file" : "/system/libhwbinder/include/hwbinder/IBinder.h"
  },
  {
   "alignment" : 8,
   "linker_set_key" : "const void **",
   "name" : "const void **",
   "referenced_type" : "type-110",
   "self_type" : "type-109",
   "size" : 8,
   "source_file" : "/system/libhwbinder/include/hwbinder/Parcel.h"
  },
  {
   "alignment" : 8,
   "linker_set_key" : "double *",
   "name" : "double *",
   "referenced_type" : "type-104",
   "self_type" : "type-103",
   "size" : 8,
   "source_file" : "/system/libhwbinder/include/hwbinder/Parcel.h"
  },
  {
   "alignment" : 8,
   "linker_set_key" : "float *",
   "name" : "float *",
   "referenced_type" : "type-102",
   "self_type" : "type-101",
   "size" : 8,
   "source_file" : "/system/libhwbinder/include/hwbinder/Parcel.h"
  },
  {
   "alignment" : 8,
   "linker_set_key" : "int (*)(void *)",
   "name" : "int (*)(void *)",
   "referenced_type" : "type-243",
   "self_type" : "type-244",
   "size" : 8,
   "source_file" : "/system/core/libutils/include/utils/AndroidThreads.h"
  },
  {
   "alignment" : 8,
   "linker_set_key" : "int *",
   "name" : "int *",
   "referenced_type" : "type-9",
   "self_type" : "type-712",
   "size" : 8,
   "source_file" : "/system/libhwbinder/include/hwbinder/IPCThreadState.h"
  },
  {
   "alignment" : 8,
   "linker_set_key" : "log_msg *",
   "name" : "log_msg *",
   "referenced_type" : "type-172",
   "self_type" : "type-184",
   "size" : 8,
   "source_file" : "/system/core/liblog/include/log/log_read.h"
  },
  {
   "alignment" : 8,
   "linker_set_key" : "long *",
   "name" : "long *",
   "referenced_type" : "type-100",
   "self_type" : "type-99",
   "size" : 8,
   "source_file" : "/system/libhwbinder/include/hwbinder/Parcel.h"
  },
  {
   "alignment" : 8,
   "linker_set_key" : "short *",
   "name" : "short *",
   "referenced_type" : "type-95",
   "self_type" : "type-94",
   "size" : 8,
   "source_file" : "/system/libhwbinder/include/hwbinder/Parcel.h"
  },
  {
   "alignment" : 8,
   "linker_set_key" : "signed char *",
   "name" : "signed char *",
   "referenced_type" : "type-93",
   "self_type" : "type-92",
   "size" : 8,
   "source_file" : "/system/libhwbinder/include/hwbinder/Parcel.h"
  },
  {
   "alignment" : 8,
   "linker_set_key" : "std::__1::basic_ostream<char> &(*)(std::__1::basic_ostream<char> &)",
   "name" : "std::__1::basic_ostream<char> &(*)(std::__1::basic_ostream<char> &)",
   "referenced_type" : "type-598",
   "self_type" : "type-601",
   "size" : 8,
   "source_file" : "/system/libhwbinder/include/hwbinder/TextOutput.h"
  },
  {
   "alignment" : 8,
   "linker_set_key" : "std::unique_ptr<android::String16, std::default_delete<android::String16> > *",
   "name" : "std::unique_ptr<android::String16, std::default_delete<android::String16> > *",
   "referenced_type" : "type-107",
   "self_type" : "type-106",
   "size" : 8,
   "source_file" : "/system/libhwbinder/include/hwbinder/Parcel.h"
  },
  {
   "alignment" : 8,
   "linker_set_key" : "std::unique_ptr<android::String16, std::default_delete<android::String16> > *",
   "name" : "std::unique_ptr<android::String16, std::default_delete<android::String16> > *",
   "referenced_type" : "type-307",
   "self_type" : "type-306",
   "size" : 8,
   "source_file" : "/system/libhwbinder/include/hwbinder/Parcel.h"
  },
  {
   "alignment" : 8,
   "linker_set_key" : "unsigned char *",
   "name" : "unsigned char *",
   "referenced_type" : "type-11",
   "self_type" : "type-10",
   "size" : 8,
   "source_file" : "/system/core/libsystem/include/system/graphics.h"
  },
  {
   "alignment" : 8,
   "linker_set_key" : "unsigned int *",
   "name" : "unsigned int *",
   "referenced_type" : "type-4",
   "self_type" : "type-98",
   "size" : 8,
   "source_file" : "/system/libhwbinder/include/hwbinder/Parcel.h"
  },
  {
   "alignment" : 8,
   "linker_set_key" : "unsigned long *",
   "name" : "unsigned long *",
   "referenced_type" : "type-7",
   "self_type" : "type-651",
   "size" : 8,
   "source_file" : "/system/libhwbinder/include/hwbinder/Debug.h"
  },
  {
   "alignment" : 8,
   "linker_set_key" : "unsigned long long *",
   "name" : "unsigned long long *",
   "referenced_type" : "type-13",
   "self_type" : "type-12",
   "size" : 8,
   "source_file" : "/system/libhwbinder/include/hwbinder/Parcel.h"
  },
  {
   "alignment" : 8,
   "linker_set_key" : "unsigned short *",
   "name" : "unsigned short *",
   "referenced_type" : "type-97",
   "self_type" : "type-96",
   "size" : 8,
   "source_file" : "/system/libhwbinder/include/hwbinder/Parcel.h"
  },
  {
   "alignment" : 8,
   "linker_set_key" : "void (*)(android::hardware::Parcel *, const unsigned char *, unsigned long, const unsigned long long *, unsigned long, void *)",
   "name" : "void (*)(android::hardware::Parcel *, const unsigned char *, unsigned long, const unsigned long long *, unsigned long, void *)",
   "referenced_type" : "type-16",
   "self_type" : "type-15",
   "size" : 8,
   "source_file" : "/system/libhwbinder/include/hwbinder/Parcel.h"
  },
  {
   "alignment" : 8,
   "linker_set_key" : "void (*)(const void *, void *, void *)",
   "name" : "void (*)(const void *, void *, void *)",
   "referenced_type" : "type-288",
   "self_type" : "type-287",
   "size" : 8,
   "source_file" : "/system/libhwbinder/include/hwbinder/Binder.h"
  },
  {
   "alignment" : 8,
   "linker_set_key" : "void (*)(void *, const char *)",
   "name" : "void (*)(void *, const char *)",
   "referenced_type" : "type-655",
   "self_type" : "type-656",
   "size" : 8,
   "source_file" : "/system/libhwbinder/include/hwbinder/Debug.h"
  },
  {
   "alignment" : 8,
   "linker_set_key" : "void *",
   "name" : "void *",
   "referenced_type" : "type-17",
   "self_type" : "type-23",
   "size" : 8,
   "source_file" : "/system/libhwbinder/include/hwbinder/Binder.h"
  },
  {
   "alignment" : 8,
   "linker_set_key" : "void **",
   "name" : "void **",
   "referenced_type" : "type-23",
   "self_type" : "type-246",
   "size" : 8,
   "source_file" : "/system/core/libutils/include/utils/AndroidThreads.h"
  }
 ],
 "qualified_types" :
 [
  {
   "alignment" : 8,
   "is_const" : true,
   "linker_set_key" : "android::RefBase *const",
   "name" : "android::RefBase *const",
   "referenced_type" : "type-30",
   "self_type" : "type-676",
   "size" : 8,
   "source_file" : "/system/core/libutils/include/utils/TypeHelpers.h"
  },
  {
   "alignment" : 8,
   "is_const" : true,
   "linker_set_key" : "android::RefBase::weakref_impl *const",
   "name" : "android::RefBase::weakref_impl *const",
   "referenced_type" : "type-141",
   "self_type" : "type-143",
   "size" : 8,
   "source_file" : "/system/core/libutils/include/utils/RefBase.h"
  },
  {
   "alignment" : 8,
   "is_const" : true,
   "linker_set_key" : "android::RefBase::weakref_impl *const",
   "name" : "android::RefBase::weakref_impl *const",
   "referenced_type" : "type-166",
   "self_type" : "type-168",
   "size" : 8,
   "source_file" : "/system/core/libutils/include/utils/RefBase.h"
  },
  {
   "alignment" : 8,
   "is_const" : true,
   "linker_set_key" : "android::RefBase::weakref_impl *const",
   "name" : "android::RefBase::weakref_impl *const",
   "referenced_type" : "type-195",
   "self_type" : "type-197",
   "size" : 8,
   "source_file" : "/system/core/libutils/include/utils/RefBase.h"
  },
  {
   "alignment" : 8,
   "is_const" : true,
   "linker_set_key" : "android::RefBase::weakref_impl *const",
   "name" : "android::RefBase::weakref_impl *const",
   "referenced_type" : "type-210",
   "self_type" : "type-212",
   "size" : 8,
   "source_file" : "/system/core/libutils/include/utils/RefBase.h"
  },
  {
   "alignment" : 8,
   "is_const" : true,
   "linker_set_key" : "android::RefBase::weakref_impl *const",
   "name" : "android::RefBase::weakref_impl *const",
   "referenced_type" : "type-225",
   "self_type" : "type-227",
   "size" : 8,
   "source_file" : "/system/core/libutils/include/utils/RefBase.h"
  },
  {
   "alignment" : 8,
   "is_const" : true,
   "linker_set_key" : "android::RefBase::weakref_impl *const",
   "name" : "android::RefBase::weakref_impl *const",
   "referenced_type" : "type-237",
   "self_type" : "type-239",
   "size" : 8,
   "source_file" : "/system/core/libutils/include/utils/RefBase.h"
  },
  {
   "alignment" : 8,
   "is_const" : true,
   "linker_set_key" : "android::RefBase::weakref_impl *const",
   "name" : "android::RefBase::weakref_impl *const",
   "referenced_type" : "type-270",
   "self_type" : "type-272",
   "size" : 8,
   "source_file" : "/system/core/libutils/include/utils/RefBase.h"
  },
  {
   "alignment" : 8,
   "is_const" : true,
   "linker_set_key" : "android::RefBase::weakref_impl *const",
   "name" : "android::RefBase::weakref_impl *const",
   "referenced_type" : "type-33",
   "self_type" : "type-32",
   "size" : 8,
   "source_file" : "/system/core/libutils/include/utils/RefBase.h"
  },
  {
   "alignment" : 8,
   "is_const" : true,
   "linker_set_key" : "android::RefBase::weakref_impl *const",
   "name" : "android::RefBase::weakref_impl *const",
   "referenced_type" : "type-341",
   "self_type" : "type-343",
   "size" : 8,
   "source_file" : "/system/core/libutils/include/utils/RefBase.h"
  },
  {
   "alignment" : 8,
   "is_const" : true,
   "linker_set_key" : "android::RefBase::weakref_impl *const",
   "name" : "android::RefBase::weakref_impl *const",
   "referenced_type" : "type-426",
   "self_type" : "type-429",
   "size" : 8,
   "source_file" : "/system/core/libutils/include/utils/RefBase.h"
  },
  {
   "alignment" : 8,
   "is_const" : true,
   "linker_set_key" : "android::RefBase::weakref_impl *const",
   "name" : "android::RefBase::weakref_impl *const",
   "referenced_type" : "type-506",
   "self_type" : "type-508",
   "size" : 8,
   "source_file" : "/system/core/libutils/include/utils/RefBase.h"
  },
  {
   "alignment" : 8,
   "is_const" : true,
   "linker_set_key" : "android::RefBase::weakref_impl *const",
   "name" : "android::RefBase::weakref_impl *const",
   "referenced_type" : "type-56",
   "self_type" : "type-58",
   "size" : 8,
   "source_file" : "/system/core/libutils/include/utils/RefBase.h"
  },
  {
   "alignment" : 8,
   "is_const" : true,
   "linker_set_key" : "android::RefBase::weakref_impl *const",
   "name" : "android::RefBase::weakref_impl *const",
   "referenced_type" : "type-607",
   "self_type" : "type-609",
   "size" : 8,
   "source_file" : "/system/core/libutils/include/utils/RefBase.h"
  },
  {
   "alignment" : 8,
   "is_const" : true,
   "linker_set_key" : "android::RefBase::weakref_impl *const",
   "name" : "android::RefBase::weakref_impl *const",
   "referenced_type" : "type-648",
   "self_type" : "type-650",
   "size" : 8,
   "source_file" : "/system/core/libutils/include/utils/RefBase.h"
  },
  {
   "alignment" : 8,
   "is_const" : true,
   "linker_set_key" : "android::RefBase::weakref_impl *const",
   "name" : "android::RefBase::weakref_impl *const",
   "referenced_type" : "type-658",
   "self_type" : "type-660",
   "size" : 8,
   "source_file" : "/system/core/libutils/include/utils/RefBase.h"
  },
  {
   "alignment" : 8,
   "is_const" : true,
   "linker_set_key" : "android::RefBase::weakref_impl *const",
   "name" : "android::RefBase::weakref_impl *const",
   "referenced_type" : "type-684",
   "self_type" : "type-686",
   "size" : 8,
   "source_file" : "/system/core/libutils/include/utils/RefBase.h"
  },
  {
   "alignment" : 8,
   "is_const" : true,
   "linker_set_key" : "android::RefBase::weakref_type *const",
   "name" : "android::RefBase::weakref_type *const",
   "referenced_type" : "type-25",
   "self_type" : "type-674",
   "size" : 8,
   "source_file" : "/system/core/libutils/include/utils/TypeHelpers.h"
  },
  {
   "alignment" : 8,
   "is_const" : true,
   "linker_set_key" : "android::hardware::BHwBinder *const",
   "name" : "android::hardware::BHwBinder *const",
   "referenced_type" : "type-36",
   "self_type" : "type-672",
   "size" : 8,
   "source_file" : "/system/core/libutils/include/utils/TypeHelpers.h"
  },
  {
   "alignment" : 8,
   "is_const" : true,
   "linker_set_key" : "android::hardware::IBinder *const",
   "name" : "android::hardware::IBinder *const",
   "referenced_type" : "type-53",
   "self_type" : "type-145",
   "size" : 8,
   "source_file" : "/system/libhwbinder/include/hwbinder/Binder.h"
  },
  {
   "alignment" : 8,
   "is_const" : true,
   "linker_set_key" : "char *const",
   "name" : "char *const",
   "referenced_type" : "type-119",
   "self_type" : "type-118",
   "size" : 8,
   "source_file" : "/system/libhwbinder/include/hwbinder/TextOutput.h"
  },
  {
   "alignment" : 1,
   "is_const" : true,
   "linker_set_key" : "char const[10]",
   "name" : "char const[10]",
   "referenced_type" : "type-728",
   "self_type" : "type-727",
   "size" : 10,
   "source_file" : "/system/libhwbinder/include/hwbinder/TextOutput.h"
  },
  {
   "alignment" : 1,
   "is_const" : true,
   "linker_set_key" : "char const[11]",
   "name" : "char const[11]",
   "referenced_type" : "type-750",
   "self_type" : "type-749",
   "size" : 11,
   "source_file" : "/system/libhwbinder/include/hwbinder/TextOutput.h"
  },
  {
   "alignment" : 1,
   "is_const" : true,
   "linker_set_key" : "char const[12]",
   "name" : "char const[12]",
   "referenced_type" : "type-724",
   "self_type" : "type-723",
   "size" : 12,
   "source_file" : "/system/libhwbinder/include/hwbinder/TextOutput.h"
  },
  {
   "alignment" : 1,
   "is_const" : true,
   "linker_set_key" : "char const[13]",
   "name" : "char const[13]",
   "referenced_type" : "type-721",
   "self_type" : "type-720",
   "size" : 13,
   "source_file" : "/system/libhwbinder/include/hwbinder/TextOutput.h"
  },
  {
   "alignment" : 1,
   "is_const" : true,
   "linker_set_key" : "char const[14]",
   "name" : "char const[14]",
   "referenced_type" : "type-769",
   "self_type" : "type-768",
   "size" : 14,
   "source_file" : "/system/libhwbinder/include/hwbinder/TextOutput.h"
  },
  {
   "alignment" : 1,
   "is_const" : true,
   "linker_set_key" : "char const[15]",
   "name" : "char const[15]",
   "referenced_type" : "type-127",
   "self_type" : "type-126",
   "size" : 15,
   "source_file" : "/system/libhwbinder/include/hwbinder/TextOutput.h"
  },
  {
   "alignment" : 1,
   "is_const" : true,
   "linker_set_key" : "char const[16]",
   "name" : "char const[16]",
   "referenced_type" : "type-754",
   "self_type" : "type-753",
   "size" : 16,
   "source_file" : "/system/libhwbinder/include/hwbinder/TextOutput.h"
  },
  {
   "alignment" : 1,
   "is_const" : true,
   "linker_set_key" : "char const[17]",
   "name" : "char const[17]",
   "referenced_type" : "type-772",
   "self_type" : "type-771",
   "size" : 17,
   "source_file" : "/system/libhwbinder/include/hwbinder/TextOutput.h"
  },
  {
   "alignment" : 1,
   "is_const" : true,
   "linker_set_key" : "char const[18]",
   "name" : "char const[18]",
   "referenced_type" : "type-757",
   "self_type" : "type-756",
   "size" : 18,
   "source_file" : "/system/libhwbinder/include/hwbinder/TextOutput.h"
  },
  {
   "alignment" : 1,
   "is_const" : true,
   "linker_set_key" : "char const[19]",
   "name" : "char const[19]",
   "referenced_type" : "type-788",
   "self_type" : "type-787",
   "size" : 19,
   "source_file" : "/system/libhwbinder/include/hwbinder/TextOutput.h"
  },
  {
   "alignment" : 1,
   "is_const" : true,
   "linker_set_key" : "char const[20]",
   "name" : "char const[20]",
   "referenced_type" : "type-766",
   "self_type" : "type-765",
   "size" : 20,
   "source_file" : "/system/libhwbinder/include/hwbinder/TextOutput.h"
  },
  {
   "alignment" : 1,
   "is_const" : true,
   "linker_set_key" : "char const[22]",
   "name" : "char const[22]",
   "referenced_type" : "type-791",
   "self_type" : "type-790",
   "size" : 22,
   "source_file" : "/system/libhwbinder/include/hwbinder/TextOutput.h"
  },
  {
   "alignment" : 1,
   "is_const" : true,
   "linker_set_key" : "char const[25]",
   "name" : "char const[25]",
   "referenced_type" : "type-781",
   "self_type" : "type-780",
   "size" : 25,
   "source_file" : "/system/libhwbinder/include/hwbinder/TextOutput.h"
  },
  {
   "alignment" : 1,
   "is_const" : true,
   "linker_set_key" : "char const[28]",
   "name" : "char const[28]",
   "referenced_type" : "type-803",
   "self_type" : "type-802",
   "size" : 28,
   "source_file" : "/system/libhwbinder/include/hwbinder/TextOutput.h"
  },
  {
   "alignment" : 1,
   "is_const" : true,
   "linker_set_key" : "char const[29]",
   "name" : "char const[29]",
   "referenced_type" : "type-778",
   "self_type" : "type-777",
   "size" : 29,
   "source_file" : "/system/libhwbinder/include/hwbinder/TextOutput.h"
  },
  {
   "alignment" : 1,
   "is_const" : true,
   "linker_set_key" : "char const[2]",
   "name" : "char const[2]",
   "referenced_type" : "type-732",
   "self_type" : "type-731",
   "size" : 2,
   "source_file" : "/system/libhwbinder/include/hwbinder/TextOutput.h"
  },
  {
   "alignment" : 1,
   "is_const" : true,
   "linker_set_key" : "char const[31]",
   "name" : "char const[31]",
   "referenced_type" : "type-763",
   "self_type" : "type-762",
   "size" : 31,
   "source_file" : "/system/libhwbinder/include/hwbinder/TextOutput.h"
  },
  {
   "alignment" : 1,
   "is_const" : true,
   "linker_set_key" : "char const[32]",
   "name" : "char const[32]",
   "referenced_type" : "type-794",
   "self_type" : "type-793",
   "size" : 32,
   "source_file" : "/system/libhwbinder/include/hwbinder/TextOutput.h"
  },
  {
   "alignment" : 1,
   "is_const" : true,
   "linker_set_key" : "char const[35]",
   "name" : "char const[35]",
   "referenced_type" : "type-785",
   "self_type" : "type-784",
   "size" : 35,
   "source_file" : "/system/libhwbinder/include/hwbinder/TextOutput.h"
  },
  {
   "alignment" : 1,
   "is_const" : true,
   "linker_set_key" : "char const[37]",
   "name" : "char const[37]",
   "referenced_type" : "type-775",
   "self_type" : "type-774",
   "size" : 37,
   "source_file" : "/system/libhwbinder/include/hwbinder/TextOutput.h"
  },
  {
   "alignment" : 1,
   "is_const" : true,
   "linker_set_key" : "char const[3]",
   "name" : "char const[3]",
   "referenced_type" : "type-744",
   "self_type" : "type-743",
   "size" : 3,
   "source_file" : "/system/libhwbinder/include/hwbinder/TextOutput.h"
  },
  {
   "alignment" : 1,
   "is_const" : true,
   "linker_set_key" : "char const[4]",
   "name" : "char const[4]",
   "referenced_type" : "type-124",
   "self_type" : "type-123",
   "size" : 4,
   "source_file" : "/system/libhwbinder/include/hwbinder/TextOutput.h"
  },
  {
   "alignment" : 1,
   "is_const" : true,
   "linker_set_key" : "char const[5]",
   "name" : "char const[5]",
   "referenced_type" : "type-131",
   "self_type" : "type-130",
   "size" : 5,
   "source_file" : "/system/libhwbinder/include/hwbinder/TextOutput.h"
  },
  {
   "alignment" : 1,
   "is_const" : true,
   "linker_set_key" : "char const[6]",
   "name" : "char const[6]",
   "referenced_type" : "type-735",
   "self_type" : "type-734",
   "size" : 6,
   "source_file" : "/system/libhwbinder/include/hwbinder/TextOutput.h"
  },
  {
   "alignment" : 1,
   "is_const" : true,
   "linker_set_key" : "char const[7]",
   "name" : "char const[7]",
   "referenced_type" : "type-760",
   "self_type" : "type-759",
   "size" : 7,
   "source_file" : "/system/libhwbinder/include/hwbinder/TextOutput.h"
  },
  {
   "alignment" : 1,
   "is_const" : true,
   "linker_set_key" : "char const[8]",
   "name" : "char const[8]",
   "referenced_type" : "type-747",
   "self_type" : "type-746",
   "size" : 8,
   "source_file" : "/system/libhwbinder/include/hwbinder/TextOutput.h"
  },
  {
   "alignment" : 1,
   "is_const" : true,
   "linker_set_key" : "char const[9]",
   "name" : "char const[9]",
   "referenced_type" : "type-738",
   "self_type" : "type-737",
   "size" : 9,
   "source_file" : "/system/libhwbinder/include/hwbinder/TextOutput.h"
  },
  {
   "alignment" : 8,
   "is_const" : true,
   "linker_set_key" : "const android::CallStack",
   "name" : "const android::CallStack",
   "referenced_type" : "type-810",
   "self_type" : "type-812",
   "size" : 40,
   "source_file" : "/system/core/libutils/include/utils/CallStack.h"
  },
  {
   "alignment" : 8,
   "is_const" : true,
   "linker_set_key" : "const android::KeyedVector<android::String16, android::sp<android::hardware::IBinder> >",
   "name" : "const android::KeyedVector<android::String16, android::sp<android::hardware::IBinder> >",
   "referenced_type" : "type-363",
   "self_type" : "type-364",
   "size" : 40,
   "source_file" : "/system/core/libutils/include/utils/KeyedVector.h"
  },
  {
   "alignment" : 8,
   "is_const" : true,
   "linker_set_key" : "const android::KeyedVector<const void *, android::hardware::BpHwBinder::ObjectManager::entry_t>",
   "name" : "const android::KeyedVector<const void *, android::hardware::BpHwBinder::ObjectManager::entry_t>",
   "referenced_type" : "type-282",
   "self_type" : "type-529",
   "size" : 40,
   "source_file" : "/system/core/libutils/include/utils/KeyedVector.h"
  },
  {
   "alignment" : 8,
   "is_const" : true,
   "linker_set_key" : "const android::RefBase",
   "name" : "const android::RefBase",
   "referenced_type" : "type-31",
   "self_type" : "type-509",
   "size" : 16,
   "source_file" : "/system/core/libutils/include/utils/RefBase.h"
  },
  {
   "alignment" : 8,
   "is_const" : true,
   "linker_set_key" : "const android::SortedVector<android::key_value_pair_t<android::String16, android::sp<android::hardware::IBinder> > >",
   "name" : "const android::SortedVector<android::key_value_pair_t<android::String16, android::sp<android::hardware::IBinder> > >",
   "referenced_type" : "type-351",
   "self_type" : "type-353",
   "size" : 40,
   "source_file" : "/system/core/libutils/include/utils/SortedVector.h"
  },
  {
   "alignment" : 8,
   "is_const" : true,
   "linker_set_key" : "const android::SortedVector<android::key_value_pair_t<const void *, android::hardware::BpHwBinder::ObjectManager::entry_t> >",
   "name" : "const android::SortedVector<android::key_value_pair_t<const void *, android::hardware::BpHwBinder::ObjectManager::entry_t> >",
   "referenced_type" : "type-283",
   "self_type" : "type-516",
   "size" : 40,
   "source_file" : "/system/core/libutils/include/utils/SortedVector.h"
  },
  {
   "alignment" : 8,
   "is_const" : true,
   "linker_set_key" : "const android::String16",
   "name" : "const android::String16",
   "referenced_type" : "type-289",
   "self_type" : "type-381",
   "size" : 8,
   "source_file" : "/system/core/libutils/include/utils/String16.h"
  },
  {
   "alignment" : 8,
   "is_const" : true,
   "linker_set_key" : "const android::String8",
   "name" : "const android::String8",
   "referenced_type" : "type-382",
   "self_type" : "type-542",
   "size" : 8,
   "source_file" : "/system/core/libutils/include/utils/String8.h"
  },
  {
   "alignment" : 8,
   "is_const" : true,
   "linker_set_key" : "const android::Vector<android::RefBase *>",
   "name" : "const android::Vector<android::RefBase *>",
   "referenced_type" : "type-527",
   "self_type" : "type-697",
   "size" : 40,
   "source_file" : "/system/core/libutils/include/utils/Vector.h"
  },
  {
   "alignment" : 8,
   "is_const" : true,
   "linker_set_key" : "const android::Vector<android::RefBase::weakref_type *>",
   "name" : "const android::Vector<android::RefBase::weakref_type *>",
   "referenced_type" : "type-526",
   "self_type" : "type-693",
   "size" : 40,
   "source_file" : "/system/core/libutils/include/utils/Vector.h"
  },
  {
   "alignment" : 8,
   "is_const" : true,
   "linker_set_key" : "const android::Vector<android::String8>",
   "name" : "const android::Vector<android::String8>",
   "referenced_type" : "type-700",
   "self_type" : "type-702",
   "size" : 40,
   "source_file" : "/system/core/libutils/include/utils/Vector.h"
  },
  {
   "alignment" : 8,
   "is_const" : true,
   "linker_set_key" : "const android::Vector<android::hardware::BHwBinder *>",
   "name" : "const android::Vector<android::hardware::BHwBinder *>",
   "referenced_type" : "type-525",
   "self_type" : "type-689",
   "size" : 40,
   "source_file" : "/system/core/libutils/include/utils/Vector.h"
  },
  {
   "alignment" : 8,
   "is_const" : true,
   "linker_set_key" : "const android::Vector<android::hardware::BpHwBinder::Obituary>",
   "name" : "const android::Vector<android::hardware::BpHwBinder::Obituary>",
   "referenced_type" : "type-519",
   "self_type" : "type-522",
   "size" : 40,
   "source_file" : "/system/core/libutils/include/utils/Vector.h"
  },
  {
   "alignment" : 8,
   "is_const" : true,
   "linker_set_key" : "const android::Vector<android::hardware::ProcessState::handle_entry>",
   "name" : "const android::Vector<android::hardware::ProcessState::handle_entry>",
   "referenced_type" : "type-356",
   "self_type" : "type-358",
   "size" : 40,
   "source_file" : "/system/core/libutils/include/utils/Vector.h"
  },
  {
   "alignment" : 8,
   "is_const" : true,
   "linker_set_key" : "const android::Vector<android::sp<android::hardware::BufferedTextOutput::BufferState> >",
   "name" : "const android::Vector<android::sp<android::hardware::BufferedTextOutput::BufferState> >",
   "referenced_type" : "type-628",
   "self_type" : "type-630",
   "size" : 40,
   "source_file" : "/system/core/libutils/include/utils/Vector.h"
  },
  {
   "alignment" : 8,
   "is_const" : true,
   "linker_set_key" : "const android::Vector<int>",
   "name" : "const android::Vector<int>",
   "referenced_type" : "type-622",
   "self_type" : "type-623",
   "size" : 40,
   "source_file" : "/system/core/libutils/include/utils/Vector.h"
  },
  {
   "alignment" : 8,
   "is_const" : true,
   "linker_set_key" : "const android::VectorImpl",
   "name" : "const android::VectorImpl",
   "referenced_type" : "type-186",
   "self_type" : "type-185",
   "size" : 40,
   "source_file" : "/system/core/libutils/include/utils/VectorImpl.h"
  },
  {
   "alignment" : 8,
   "is_const" : true,
   "linker_set_key" : "const android::hardware::BHwBinder",
   "name" : "const android::hardware::BHwBinder",
   "referenced_type" : "type-37",
   "self_type" : "type-133",
   "size" : 48,
   "source_file" : "/system/libhwbinder/include/hwbinder/Binder.h"
  },
  {
   "alignment" : 8,
   "is_const" : true,
   "linker_set_key" : "const android::hardware::BpHwBinder",
   "name" : "const android::hardware::BpHwBinder",
   "referenced_type" : "type-276",
   "self_type" : "type-275",
   "size" : 144,
   "source_file" : "/system/libhwbinder/include/hwbinder/BpHwBinder.h"
  },
  {
   "alignment" : 8,
   "is_const" : true,
   "linker_set_key" : "const android::hardware::BpHwBinder::Obituary",
   "name" : "const android::hardware::BpHwBinder::Obituary",
   "referenced_type" : "type-294",
   "self_type" : "type-494",
   "size" : 32,
   "source_file" : "/system/core/libutils/include/utils/TypeHelpers.h"
  },
  {
   "alignment" : 8,
   "is_const" : true,
   "linker_set_key" : "const android::hardware::BpHwBinder::ObjectManager",
   "name" : "const android::hardware::BpHwBinder::ObjectManager",
   "referenced_type" : "type-281",
   "self_type" : "type-537",
   "size" : 40,
   "source_file" : "/system/libhwbinder/include/hwbinder/BpHwBinder.h"
  },
  {
   "alignment" : 8,
   "is_const" : true,
   "linker_set_key" : "const android::hardware::BpHwBinder::ObjectManager::entry_t",
   "name" : "const android::hardware::BpHwBinder::ObjectManager::entry_t",
   "referenced_type" : "type-286",
   "self_type" : "type-501",
   "size" : 24,
   "source_file" : "/system/core/libutils/include/utils/TypeHelpers.h"
  },
  {
   "alignment" : 8,
   "is_const" : true,
   "linker_set_key" : "const android::hardware::BpHwRefBase",
   "name" : "const android::hardware::BpHwRefBase",
   "referenced_type" : "type-144",
   "self_type" : "type-155",
   "size" : 48,
   "source_file" : "/system/libhwbinder/include/hwbinder/Binder.h"
  },
  {
   "alignment" : 8,
   "is_const" : true,
   "linker_set_key" : "const android::hardware::BufferedTextOutput",
   "name" : "const android::hardware::BufferedTextOutput",
   "referenced_type" : "type-613",
   "self_type" : "type-618",
   "size" : 72,
   "source_file" : "/system/libhwbinder/include/hwbinder/BufferedTextOutput.h"
  },
  {
   "alignment" : 8,
   "is_const" : true,
   "linker_set_key" : "const android::hardware::HexDump",
   "name" : "const android::hardware::HexDump",
   "referenced_type" : "type-455",
   "self_type" : "type-454",
   "size" : 48,
   "source_file" : "/system/libhwbinder/include/hwbinder/TextOutput.h"
  },
  {
   "alignment" : 8,
   "is_const" : true,
   "linker_set_key" : "const android::hardware::IBinder",
   "name" : "const android::hardware::IBinder",
   "referenced_type" : "type-39",
   "self_type" : "type-646",
   "size" : 24,
   "source_file" : "/system/libhwbinder/include/hwbinder/IBinder.h"
  },
  {
   "alignment" : 8,
   "is_const" : true,
   "linker_set_key" : "const android::hardware::IBinder::DeathRecipient",
   "name" : "const android::hardware::IBinder::DeathRecipient",
   "referenced_type" : "type-84",
   "self_type" : "type-531",
   "size" : 24,
   "source_file" : "/system/core/libutils/include/utils/RefBase.h"
  },
  {
   "alignment" : 8,
   "is_const" : true,
   "linker_set_key" : "const android::hardware::IInterface",
   "name" : "const android::hardware::IInterface",
   "referenced_type" : "type-298",
   "self_type" : "type-667",
   "size" : 24,
   "source_file" : "/system/core/libutils/include/utils/StrongPointer.h"
  },
  {
   "alignment" : 8,
   "is_const" : true,
   "linker_set_key" : "const android::hardware::IPCThreadState",
   "name" : "const android::hardware::IPCThreadState",
   "referenced_type" : "type-543",
   "self_type" : "type-710",
   "size" : 528,
   "source_file" : "/system/libhwbinder/include/hwbinder/IPCThreadState.h"
  },
  {
   "alignment" : 8,
   "is_const" : true,
   "linker_set_key" : "const android::hardware::Parcel",
   "name" : "const android::hardware::Parcel",
   "referenced_type" : "type-6",
   "self_type" : "type-5",
   "size" : 136,
   "source_file" : "/system/libhwbinder/include/hwbinder/Binder.h"
  },
  {
   "alignment" : 8,
   "is_const" : true,
   "linker_set_key" : "const android::hardware::ProcessState",
   "name" : "const android::hardware::ProcessState",
   "referenced_type" : "type-375",
   "self_type" : "type-392",
   "size" : 328,
   "source_file" : "/system/core/libutils/include/utils/StrongPointer.h"
  },
  {
   "alignment" : 8,
   "is_const" : true,
   "linker_set_key" : "const android::hardware::ProcessState::handle_entry",
   "name" : "const android::hardware::ProcessState::handle_entry",
   "referenced_type" : "type-326",
   "self_type" : "type-328",
   "size" : 16,
   "source_file" : "/system/core/libutils/include/utils/TypeHelpers.h"
  },
  {
   "alignment" : 4,
   "is_const" : true,
   "linker_set_key" : "const android::hardware::TypeCode",
   "name" : "const android::hardware::TypeCode",
   "referenced_type" : "type-452",
   "self_type" : "type-451",
   "size" : 4,
   "source_file" : "/system/libhwbinder/include/hwbinder/TextOutput.h"
  },
  {
   "alignment" : 8,
   "is_const" : true,
   "linker_set_key" : "const android::key_value_pair_t<android::String16, android::sp<android::hardware::IBinder> >",
   "name" : "const android::key_value_pair_t<android::String16, android::sp<android::hardware::IBinder> >",
   "referenced_type" : "type-323",
   "self_type" : "type-322",
   "size" : 16,
   "source_file" : "/system/core/libutils/include/utils/TypeHelpers.h"
  },
  {
   "alignment" : 8,
   "is_const" : true,
   "linker_set_key" : "const android::key_value_pair_t<const void *, android::hardware::BpHwBinder::ObjectManager::entry_t>",
   "name" : "const android::key_value_pair_t<const void *, android::hardware::BpHwBinder::ObjectManager::entry_t>",
   "referenced_type" : "type-487",
   "self_type" : "type-486",
   "size" : 32,
   "source_file" : "/system/core/libutils/include/utils/TypeHelpers.h"
  },
  {
   "alignment" : 8,
   "is_const" : true,
   "linker_set_key" : "const android::sp<android::Thread>",
   "name" : "const android::sp<android::Thread>",
   "referenced_type" : "type-60",
   "self_type" : "type-357",
   "size" : 8,
   "source_file" : "/system/core/libutils/include/utils/StrongPointer.h"
  },
  {
   "alignment" : 8,
   "is_const" : true,
   "linker_set_key" : "const android::sp<android::hardware::BHwBinder>",
   "name" : "const android::sp<android::hardware::BHwBinder>",
   "referenced_type" : "type-545",
   "self_type" : "type-709",
   "size" : 8,
   "source_file" : "/system/core/libutils/include/utils/StrongPointer.h"
  },
  {
   "alignment" : 8,
   "is_const" : true,
   "linker_set_key" : "const android::sp<android::hardware::BufferedTextOutput::BufferState>",
   "name" : "const android::sp<android::hardware::BufferedTextOutput::BufferState>",
   "referenced_type" : "type-581",
   "self_type" : "type-605",
   "size" : 8,
   "source_file" : "/system/core/libutils/include/utils/TypeHelpers.h"
  },
  {
   "is_const" : true,
   "linker_set_key" : "const android::sp<android::hardware::IBinder::DeathRecipient>",
   "name" : "const android::sp<android::hardware::IBinder::DeathRecipient>",
   "referenced_type" : "type-148",
   "self_type" : "type-147",
   "source_file" : "/system/libhwbinder/include/hwbinder/Binder.h"
  },
  {
   "is_const" : true,
   "linker_set_key" : "const android::sp<android::hardware::IBinder::DeathRecipient>",
   "name" : "const android::sp<android::hardware::IBinder::DeathRecipient>",
   "referenced_type" : "type-50",
   "self_type" : "type-49",
   "source_file" : "/system/libhwbinder/include/hwbinder/Binder.h"
  },
  {
   "alignment" : 8,
   "is_const" : true,
   "linker_set_key" : "const android::sp<android::hardware::IBinder::DeathRecipient>",
   "name" : "const android::sp<android::hardware::IBinder::DeathRecipient>",
   "referenced_type" : "type-513",
   "self_type" : "type-512",
   "size" : 8,
   "source_file" : "/system/core/libutils/include/utils/RefBase.h"
  },
  {
   "is_const" : true,
   "linker_set_key" : "const android::sp<android::hardware::IBinder>",
   "name" : "const android::sp<android::hardware::IBinder>",
   "referenced_type" : "type-204",
   "self_type" : "type-203",
   "source_file" : "/system/libhwbinder/include/hwbinder/ProcessState.h"
  },
  {
   "is_const" : true,
   "linker_set_key" : "const android::sp<android::hardware::IBinder>",
   "name" : "const android::sp<android::hardware::IBinder>",
   "referenced_type" : "type-219",
   "self_type" : "type-218",
   "source_file" : "/system/libhwbinder/include/hwbinder/ProcessState.h"
  },
  {
   "is_const" : true,
   "linker_set_key" : "const android::sp<android::hardware::IBinder>",
   "name" : "const android::sp<android::hardware::IBinder>",
   "referenced_type" : "type-634",
   "self_type" : "type-633",
   "source_file" : "/system/libhwbinder/include/hwbinder/ProcessState.h"
  },
  {
   "is_const" : true,
   "linker_set_key" : "const android::sp<android::hardware::IBinder>",
   "name" : "const android::sp<android::hardware::IBinder>",
   "referenced_type" : "type-653",
   "self_type" : "type-652",
   "source_file" : "/system/libhwbinder/include/hwbinder/ProcessState.h"
  },
  {
   "alignment" : 8,
   "is_const" : true,
   "linker_set_key" : "const android::sp<android::hardware::IBinder>",
   "name" : "const android::sp<android::hardware::IBinder>",
   "referenced_type" : "type-71",
   "self_type" : "type-154",
   "size" : 8,
   "source_file" : "/system/core/libutils/include/utils/StrongPointer.h"
  },
  {
   "alignment" : 8,
   "is_const" : true,
   "linker_set_key" : "const android::sp<android::hardware::IInterface>",
   "name" : "const android::sp<android::hardware::IInterface>",
   "referenced_type" : "type-663",
   "self_type" : "type-662",
   "size" : 8,
   "source_file" : "/system/core/libutils/include/utils/StrongPointer.h"
  },
  {
   "alignment" : 8,
   "is_const" : true,
   "linker_set_key" : "const android::sp<android::hardware::ProcessState>",
   "name" : "const android::sp<android::hardware::ProcessState>",
   "referenced_type" : "type-373",
   "self_type" : "type-544",
   "size" : 8,
   "source_file" : "/system/core/libutils/include/utils/StrongPointer.h"
  },
  {
   "alignment" : 8,
   "is_const" : true,
   "linker_set_key" : "const android::wp<android::hardware::IBinder::DeathRecipient>",
   "name" : "const android::wp<android::hardware::IBinder::DeathRecipient>",
   "referenced_type" : "type-82",
   "self_type" : "type-81",
   "size" : 16,
   "source_file" : "/system/libhwbinder/include/hwbinder/Binder.h"
  },
  {
   "alignment" : 8,
   "is_const" : true,
   "linker_set_key" : "const android::wp<android::hardware::IBinder>",
   "name" : "const android::wp<android::hardware::IBinder>",
   "referenced_type" : "type-52",
   "self_type" : "type-51",
   "size" : 16,
   "source_file" : "/system/core/libutils/include/utils/RefBase.h"
  },
  {
   "alignment" : 8,
   "is_const" : true,
   "linker_set_key" : "const binder_buffer_object",
   "name" : "const binder_buffer_object",
   "referenced_type" : "type-114",
   "self_type" : "type-113",
   "size" : 40,
   "source_file" : "/system/libhwbinder/include/hwbinder/Parcel.h"
  },
  {
   "alignment" : 8,
   "is_const" : true,
   "linker_set_key" : "const binder_buffer_object",
   "name" : "const binder_buffer_object",
   "referenced_type" : "type-311",
   "self_type" : "type-310",
   "size" : 40,
   "source_file" : "/system/libhwbinder/include/hwbinder/Parcel.h"
  },
  {
   "alignment" : 1,
   "is_const" : true,
   "linker_set_key" : "const bool",
   "name" : "const bool",
   "referenced_type" : "type-14",
   "self_type" : "type-63",
   "size" : 1,
   "source_file" : "/system/core/libutils/include/utils/TypeHelpers.h"
  },
  {
   "alignment" : 1,
   "is_const" : true,
   "linker_set_key" : "const char",
   "name" : "const char",
   "referenced_type" : "type-120",
   "self_type" : "type-384",
   "size" : 1,
   "source_file" : "/system/core/libutils/include/utils/String8.h"
  },
  {
   "alignment" : 8,
   "is_const" : true,
   "linker_set_key" : "const char *const",
   "name" : "const char *const",
   "referenced_type" : "type-383",
   "self_type" : "type-589",
   "size" : 8,
   "source_file" : "/system/libhwbinder/include/hwbinder/TextOutput.h"
  },
  {
   "alignment" : 2,
   "is_const" : true,
   "linker_set_key" : "const char16_t",
   "name" : "const char16_t",
   "referenced_type" : "type-292",
   "self_type" : "type-291",
   "size" : 2,
   "source_file" : "/system/core/libutils/include/utils/String16.h"
  },
  {
   "alignment" : 8,
   "is_const" : true,
   "linker_set_key" : "const double",
   "name" : "const double",
   "referenced_type" : "type-104",
   "self_type" : "type-330",
   "size" : 8,
   "source_file" : "/system/core/libutils/include/utils/TypeHelpers.h"
  },
  {
   "alignment" : 8,
   "is_const" : true,
   "linker_set_key" : "const flat_binder_object",
   "name" : "const flat_binder_object",
   "referenced_type" : "type-303",
   "self_type" : "type-302",
   "size" : 24,
   "source_file" : "/system/libhwbinder/include/hwbinder/Parcel.h"
  },
  {
   "alignment" : 8,
   "is_const" : true,
   "linker_set_key" : "const flat_binder_object",
   "name" : "const flat_binder_object",
   "referenced_type" : "type-86",
   "self_type" : "type-85",
   "size" : 24,
   "source_file" : "/system/libhwbinder/include/hwbinder/Parcel.h"
  },
  {
   "alignment" : 4,
   "is_const" : true,
   "linker_set_key" : "const float",
   "name" : "const float",
   "referenced_type" : "type-102",
   "self_type" : "type-245",
   "size" : 4,
   "source_file" : "/system/core/libutils/include/utils/TypeHelpers.h"
  },
  {
   "alignment" : 4,
   "is_const" : true,
   "linker_set_key" : "const int",
   "name" : "const int",
   "referenced_type" : "type-9",
   "self_type" : "type-277",
   "size" : 4,
   "source_file" : "/system/core/libutils/include/utils/TypeHelpers.h"
  },
  {
   "alignment" : 4,
   "is_const" : true,
   "linker_set_key" : "const log_msg",
   "name" : "const log_msg",
   "referenced_type" : "type-172",
   "self_type" : "type-176",
   "size" : 5124,
   "source_file" : "/system/core/liblog/include/log/log_read.h"
  },
  {
   "alignment" : 8,
   "is_const" : true,
   "linker_set_key" : "const long",
   "name" : "const long",
   "referenced_type" : "type-100",
   "self_type" : "type-138",
   "size" : 8,
   "source_file" : "/system/core/libutils/include/utils/TypeHelpers.h"
  },
  {
   "alignment" : 4,
   "is_const" : true,
   "linker_set_key" : "const native_handle",
   "name" : "const native_handle",
   "referenced_type" : "type-89",
   "self_type" : "type-88",
   "size" : 12,
   "source_file" : "/system/libhwbinder/include/hwbinder/Parcel.h"
  },
  {
   "alignment" : 2,
   "is_const" : true,
   "linker_set_key" : "const short",
   "name" : "const short",
   "referenced_type" : "type-95",
   "self_type" : "type-481",
   "size" : 2,
   "source_file" : "/system/core/libutils/include/utils/TypeHelpers.h"
  },
  {
   "alignment" : 1,
   "is_const" : true,
   "linker_set_key" : "const signed char",
   "name" : "const signed char",
   "referenced_type" : "type-93",
   "self_type" : "type-478",
   "size" : 1,
   "source_file" : "/system/core/libutils/include/utils/TypeHelpers.h"
  },
  {
   "alignment" : 16,
   "is_const" : true,
   "linker_set_key" : "const std::function<void ()>",
   "name" : "const std::function<void ()>",
   "referenced_type" : "type-252",
   "self_type" : "type-251",
   "size" : 48,
   "source_file" : "/system/libhwbinder/include/hwbinder/IPCThreadState.h"
  },
  {
   "alignment" : 16,
   "is_const" : true,
   "linker_set_key" : "const std::function<void ()>",
   "name" : "const std::function<void ()>",
   "referenced_type" : "type-714",
   "self_type" : "type-713",
   "size" : 48,
   "source_file" : "/system/libhwbinder/include/hwbinder/IPCThreadState.h"
  },
  {
   "alignment" : 8,
   "is_const" : true,
   "linker_set_key" : "const std::unique_ptr<android::String16, std::default_delete<android::String16> >",
   "name" : "const std::unique_ptr<android::String16, std::default_delete<android::String16> >",
   "referenced_type" : "type-300",
   "self_type" : "type-299",
   "size" : 8,
   "source_file" : "/system/libhwbinder/include/hwbinder/Parcel.h"
  },
  {
   "alignment" : 8,
   "is_const" : true,
   "linker_set_key" : "const std::unique_ptr<android::String16, std::default_delete<android::String16> >",
   "name" : "const std::unique_ptr<android::String16, std::default_delete<android::String16> >",
   "referenced_type" : "type-79",
   "self_type" : "type-78",
   "size" : 8,
   "source_file" : "/system/libhwbinder/include/hwbinder/Parcel.h"
  },
  {
   "alignment" : 1,
   "is_const" : true,
   "linker_set_key" : "const unsigned char",
   "name" : "const unsigned char",
   "referenced_type" : "type-11",
   "self_type" : "type-20",
   "size" : 1,
   "source_file" : "/system/core/libutils/include/utils/TypeHelpers.h"
  },
  {
   "alignment" : 8,
   "is_const" : true,
   "linker_set_key" : "const unsigned char *const",
   "name" : "const unsigned char *const",
   "referenced_type" : "type-19",
   "self_type" : "type-797",
   "size" : 8,
   "source_file" : "/system/libhwbinder/include/hwbinder/TextOutput.h"
  },
  {
   "alignment" : 4,
   "is_const" : true,
   "linker_set_key" : "const unsigned int",
   "name" : "const unsigned int",
   "referenced_type" : "type-4",
   "self_type" : "type-74",
   "size" : 4,
   "source_file" : "/system/core/libutils/include/utils/TypeHelpers.h"
  },
  {
   "alignment" : 8,
   "is_const" : true,
   "linker_set_key" : "const unsigned long",
   "name" : "const unsigned long",
   "referenced_type" : "type-7",
   "self_type" : "type-187",
   "size" : 8,
   "source_file" : "/system/core/libutils/include/utils/TypeHelpers.h"
  },
  {
   "alignment" : 8,
   "is_const" : true,
   "linker_set_key" : "const unsigned long *const",
   "name" : "const unsigned long *const",
   "referenced_type" : "type-800",
   "self_type" : "type-799",
   "size" : 8,
   "source_file" : "/system/libhwbinder/include/hwbinder/TextOutput.h"
  },
  {
   "alignment" : 8,
   "is_const" : true,
   "linker_set_key" : "const unsigned long long",
   "name" : "const unsigned long long",
   "referenced_type" : "type-13",
   "self_type" : "type-22",
   "size" : 8,
   "source_file" : "/system/libhwbinder/include/hwbinder/Parcel.h"
  },
  {
   "alignment" : 2,
   "is_const" : true,
   "linker_set_key" : "const unsigned short",
   "name" : "const unsigned short",
   "referenced_type" : "type-97",
   "self_type" : "type-483",
   "size" : 2,
   "source_file" : "/system/core/libutils/include/utils/TypeHelpers.h"
  },
  {
   "is_const" : true,
   "linker_set_key" : "const void",
   "name" : "const void",
   "referenced_type" : "type-17",
   "self_type" : "type-111",
   "source_file" : "/system/libhwbinder/include/hwbinder/IBinder.h"
  },
  {
   "alignment" : 8,
   "is_const" : true,
   "linker_set_key" : "const void *const",
   "name" : "const void *const",
   "referenced_type" : "type-110",
   "self_type" : "type-489",
   "size" : 8,
   "source_file" : "/system/core/libutils/include/utils/TypeHelpers.h"
  },
  {
   "alignment" : 8,
   "is_const" : true,
   "linker_set_key" : "void *const",
   "name" : "void *const",
   "referenced_type" : "type-23",
   "self_type" : "type-740",
   "size" : 8,
   "source_file" : "/system/libhwbinder/include/hwbinder/TextOutput.h"
  },
  {
   "alignment" : 1,
   "is_volatile" : true,
   "linker_set_key" : "volatile bool",
   "name" : "volatile bool",
   "referenced_type" : "type-14",
   "self_type" : "type-68",
   "size" : 1,
   "source_file" : "/system/core/libutils/include/utils/Thread.h"
  },
  {
   "alignment" : 4,
   "is_volatile" : true,
   "linker_set_key" : "volatile int",
   "name" : "volatile int",
   "referenced_type" : "type-9",
   "self_type" : "type-278",
   "size" : 4,
   "source_file" : "/system/libhwbinder/include/hwbinder/BpHwBinder.h"
  }
 ],
 "record_types" :
 [
  {
   "alignment" : 8,
   "base_specifiers" :
   [
    {
     "referenced_type" : "type-504"
    }
   ],
   "fields" :
   [
    {
     "access" : "private",
     "field_name" : "d_",
     "field_offset" : 64,
     "referenced_type" : "type-611"
    },
    {
     "access" : "private",
     "field_name" : "s_",
     "field_offset" : 128,
     "referenced_type" : "type-612"
    }
   ],
   "linker_set_key" : "Renamer",
   "name" : "Renamer",
   "record_kind" : "class",
   "referenced_type" : "type-610",
   "self_type" : "type-610",
   "size" : 24,
   "source_file" : "/system/core/libutils/include/utils/RefBase.h",
   "unique_id" : "_ZTSZN7android14ReferenceMover15move_referencesINS_8hardware18BufferedTextOutput11BufferStateEEEvPNS_2spIT_EEPKS7_mE7Renamer",
   "vtable_components" :
   [
    {
     "kind" : "offset_to_top"
    },
    {
     "kind" : "rtti",
     "mangled_component_name" : "_ZTIZN7android14ReferenceMover15move_referencesINS_8hardware18BufferedTextOutput11BufferStateEEEvPNS_2spIT_EEPKS7_mE7Renamer"
    },
    {
     "mangled_component_name" : "_ZZN7android14ReferenceMover15move_referencesINS_8hardware18BufferedTextOutput11BufferStateEEEvPNS_2spIT_EEPKS7_mENK7RenamerclEm"
    },
    {
     "kind" : "complete_dtor_pointer",
     "mangled_component_name" : "_ZZN7android14ReferenceMover15move_referencesINS_8hardware18BufferedTextOutput11BufferStateEEEvPNS_2spIT_EEPKS7_mEN7RenamerD1Ev"
    },
    {
     "kind" : "deleting_dtor_pointer",
     "mangled_component_name" : "_ZZN7android14ReferenceMover15move_referencesINS_8hardware18BufferedTextOutput11BufferStateEEEvPNS_2spIT_EEPKS7_mEN7RenamerD0Ev"
    }
   ]
  },
  {
   "alignment" : 8,
   "fields" :
   [
    {
     "access" : "private",
     "field_name" : "mFrameLines",
     "referenced_type" : "type-700"
    }
   ],
   "linker_set_key" : "android::CallStack",
   "name" : "android::CallStack",
   "record_kind" : "class",
   "referenced_type" : "type-810",
   "self_type" : "type-810",
   "size" : 40,
   "source_file" : "/system/core/libutils/include/utils/CallStack.h",
   "unique_id" : "_ZTSN7android9CallStackE"
  },
  {
   "alignment" : 1,
   "linker_set_key" : "android::CallStack::StackDeleter",
   "name" : "android::CallStack::StackDeleter",
   "referenced_type" : "type-27",
   "self_type" : "type-27",
   "size" : 1,
   "source_file" : "/system/core/libutils/include/utils/CallStack.h",
   "unique_id" : "_ZTSN7android9CallStack12StackDeleterE"
  },
  {
   "alignment" : 1,
   "linker_set_key" : "android::CompileTimeAssert<true>",
   "name" : "android::CompileTimeAssert<true>",
   "referenced_type" : "type-137",
   "self_type" : "type-137",
   "size" : 1,
   "source_file" : "/system/core/libutils/include/utils/Debug.h",
   "unique_id" : "_ZTSN7android17CompileTimeAssertILb1EEE"
  },
  {
   "alignment" : 4,
   "fields" :
   [
    {
     "access" : "private",
     "field_name" : "mCond",
     "referenced_type" : "type-67"
    }
   ],
   "linker_set_key" : "android::Condition",
   "name" : "android::Condition",
   "record_kind" : "class",
   "referenced_type" : "type-66",
   "self_type" : "type-66",
   "size" : 48,
   "source_file" : "/system/core/libutils/include/utils/Condition.h",
   "unique_id" : "_ZTSN7android9ConditionE"
  },
  {
   "alignment" : 8,
   "fields" :
   [
    {
     "access" : "private",
     "field_name" : "mVector",
     "referenced_type" : "type-351"
    }
   ],
   "linker_set_key" : "android::KeyedVector<android::String16, android::sp<android::hardware::IBinder> >",
   "name" : "android::KeyedVector<android::String16, android::sp<android::hardware::IBinder> >",
   "record_kind" : "class",
   "referenced_type" : "type-363",
   "self_type" : "type-363",
   "size" : 40,
   "source_file" : "/system/core/libutils/include/utils/KeyedVector.h",
   "template_args" : [ "type-289", "type-71" ],
   "unique_id" : "_ZTSN7android11KeyedVectorINS_8String16ENS_2spINS_8hardware7IBinderEEEEE"
  },
  {
   "alignment" : 8,
   "fields" :
   [
    {
     "access" : "private",
     "field_name" : "mVector",
     "referenced_type" : "type-283"
    }
   ],
   "linker_set_key" : "android::KeyedVector<const void *, android::hardware::BpHwBinder::ObjectManager::entry_t>",
   "name" : "android::KeyedVector<const void *, android::hardware::BpHwBinder::ObjectManager::entry_t>",
   "record_kind" : "class",
   "referenced_type" : "type-282",
   "self_type" : "type-282",
   "size" : 40,
   "source_file" : "/system/core/libutils/include/utils/KeyedVector.h",
   "template_args" : [ "type-110", "type-286" ],
   "unique_id" : "_ZTSN7android11KeyedVectorIPKvNS_8hardware10BpHwBinder13ObjectManager7entry_tEEE"
  },
  {
   "alignment" : 4,
   "fields" :
   [
    {
     "access" : "private",
     "field_name" : "mCount",
     "referenced_type" : "type-2"
    }
   ],
   "linker_set_key" : "android::LightRefBase<android::VirtualLightRefBase>",
   "name" : "android::LightRefBase<android::VirtualLightRefBase>",
   "record_kind" : "class",
   "referenced_type" : "type-1",
   "self_type" : "type-1",
   "size" : 4,
   "source_file" : "/system/core/libutils/include/utils/LightRefBase.h",
   "template_args" : [ "type-3" ],
   "unique_id" : "_ZTSN7android12LightRefBaseINS_19VirtualLightRefBaseEEE"
  },
  {
   "alignment" : 4,
   "fields" :
   [
    {
     "access" : "private",
     "field_name" : "mMutex",
     "referenced_type" : "type-65"
    }
   ],
   "linker_set_key" : "android::Mutex",
   "name" : "android::Mutex",
   "record_kind" : "class",
   "referenced_type" : "type-64",
   "self_type" : "type-64",
   "size" : 40,
   "source_file" : "/system/core/libutils/include/utils/Mutex.h",
   "unique_id" : "_ZTSN7android5MutexE"
  },
  {
   "alignment" : 8,
   "fields" :
   [
    {
     "access" : "private",
     "field_name" : "mLock",
     "referenced_type" : "type-254"
    }
   ],
   "linker_set_key" : "android::Mutex::Autolock",
   "name" : "android::Mutex::Autolock",
   "record_kind" : "class",
   "referenced_type" : "type-253",
   "self_type" : "type-253",
   "size" : 8,
   "source_file" : "/system/core/libutils/include/utils/Mutex.h",
   "unique_id" : "_ZTSN7android5Mutex8AutolockE"
  },
  {
   "alignment" : 4,
   "fields" :
   [
    {
     "access" : "private",
     "field_name" : "mRWLock",
     "referenced_type" : "type-262"
    }
   ],
   "linker_set_key" : "android::RWLock",
   "name" : "android::RWLock",
   "record_kind" : "class",
   "referenced_type" : "type-261",
   "self_type" : "type-261",
   "size" : 56,
   "source_file" : "/system/core/libutils/include/utils/RWLock.h",
   "unique_id" : "_ZTSN7android6RWLockE"
  },
  {
   "alignment" : 8,
   "fields" :
   [
    {
     "access" : "private",
     "field_name" : "mLock",
     "referenced_type" : "type-267"
    }
   ],
   "linker_set_key" : "android::RWLock::AutoRLock",
   "name" : "android::RWLock::AutoRLock",
   "record_kind" : "class",
   "referenced_type" : "type-266",
   "self_type" : "type-266",
   "size" : 8,
   "source_file" : "/system/core/libutils/include/utils/RWLock.h",
   "unique_id" : "_ZTSN7android6RWLock9AutoRLockE"
  },
  {
   "alignment" : 8,
   "fields" :
   [
    {
     "access" : "private",
     "field_name" : "mLock",
     "referenced_type" : "type-267"
    }
   ],
   "linker_set_key" : "android::RWLock::AutoWLock",
   "name" : "android::RWLock::AutoWLock",
   "record_kind" : "class",
   "referenced_type" : "type-269",
   "self_type" : "type-269",
   "size" : 8,
   "source_file" : "/system/core/libutils/include/utils/RWLock.h",
   "unique_id" : "_ZTSN7android6RWLock9AutoWLockE"
  },
  {
   "alignment" : 8,
   "fields" :
   [
    {
     "access" : "private",
     "field_name" : "mRefs",
     "field_offset" : 64,
     "referenced_type" : "type-32"
    }
   ],
   "linker_set_key" : "android::RefBase",
   "name" : "android::RefBase",
   "record_kind" : "class",
   "referenced_type" : "type-31",
   "self_type" : "type-31",
   "size" : 16,
   "source_file" : "/system/core/libutils/include/utils/RefBase.h",
   "unique_id" : "_ZTSN7android7RefBaseE",
   "vtable_components" :
   [
    {
     "kind" : "offset_to_top"
    },
    {
     "kind" : "rtti",
     "mangled_component_name" : "_ZTIN7android7RefBaseE"
    },
    {
     "kind" : "complete_dtor_pointer",
     "mangled_component_name" : "_ZN7android7RefBaseD1Ev"
    },
    {
     "kind" : "deleting_dtor_pointer",
     "mangled_component_name" : "_ZN7android7RefBaseD0Ev"
    },
    {
     "mangled_component_name" : "_ZN7android7RefBase10onFirstRefEv"
    },
    {
     "mangled_component_name" : "_ZN7android7RefBase15onLastStrongRefEPKv"
    },
    {
     "mangled_component_name" : "_ZN7android7RefBase20onIncStrongAttemptedEjPKv"
    },
    {
     "mangled_component_name" : "_ZN7android7RefBase13onLastWeakRefEPKv"
    }
   ]
  },
  {
   "alignment" : 1,
   "linker_set_key" : "android::RefBase::weakref_type",
   "name" : "android::RefBase::weakref_type",
   "record_kind" : "class",
   "referenced_type" : "type-26",
   "self_type" : "type-26",
   "size" : 1,
   "source_file" : "/system/core/libutils/include/utils/RefBase.h",
   "unique_id" : "_ZTSN7android7RefBase12weakref_typeE"
  },
  {
   "alignment" : 1,
   "linker_set_key" : "android::ReferenceMover",
   "name" : "android::ReferenceMover",
   "record_kind" : "class",
   "referenced_type" : "type-518",
   "self_type" : "type-518",
   "size" : 1,
   "source_file" : "/system/core/libutils/include/utils/RefBase.h",
   "unique_id" : "_ZTSN7android14ReferenceMoverE"
  },
  {
   "alignment" : 8,
   "linker_set_key" : "android::ReferenceRenamer",
   "name" : "android::ReferenceRenamer",
   "record_kind" : "class",
   "referenced_type" : "type-504",
   "self_type" : "type-504",
   "size" : 8,
   "source_file" : "/system/core/libutils/include/utils/RefBase.h",
   "unique_id" : "_ZTSN7android16ReferenceRenamerE",
   "vtable_components" :
   [
    {
     "kind" : "offset_to_top"
    },
    {
     "kind" : "rtti",
     "mangled_component_name" : "_ZTIN7android16ReferenceRenamerE"
    },
    {
     "is_pure" : true,
     "mangled_component_name" : "_ZNK7android16ReferenceRenamerclEm"
    }
   ]
  },
  {
   "alignment" : 8,
   "base_specifiers" :
   [
    {
     "access" : "private",
     "referenced_type" : "type-284"
    }
   ],
   "linker_set_key" : "android::SortedVector<android::key_value_pair_t<android::String16, android::sp<android::hardware::IBinder> > >",
   "name" : "android::SortedVector<android::key_value_pair_t<android::String16, android::sp<android::hardware::IBinder> > >",
   "record_kind" : "class",
   "referenced_type" : "type-351",
   "self_type" : "type-351",
   "size" : 40,
   "source_file" : "/system/core/libutils/include/utils/SortedVector.h",
   "template_args" : [ "type-352" ],
   "unique_id" : "_ZTSN7android12SortedVectorINS_16key_value_pair_tINS_8String16ENS_2spINS_8hardware7IBinderEEEEEEE",
   "vtable_components" :
   [
    {
     "kind" : "offset_to_top"
    },
    {
     "kind" : "rtti",
     "mangled_component_name" : "_ZTIN7android12SortedVectorINS_16key_value_pair_tINS_8String16ENS_2spINS_8hardware7IBinderEEEEEEE"
    },
    {
     "kind" : "complete_dtor_pointer",
     "mangled_component_name" : "_ZN7android12SortedVectorINS_16key_value_pair_tINS_8String16ENS_2spINS_8hardware7IBinderEEEEEED1Ev"
    },
    {
     "kind" : "deleting_dtor_pointer",
     "mangled_component_name" : "_ZN7android12SortedVectorINS_16key_value_pair_tINS_8String16ENS_2spINS_8hardware7IBinderEEEEEED0Ev"
    },
    {
     "mangled_component_name" : "_ZNK7android12SortedVectorINS_16key_value_pair_tINS_8String16ENS_2spINS_8hardware7IBinderEEEEEE12do_constructEPvm"
    },
    {
     "mangled_component_name" : "_ZNK7android12SortedVectorINS_16key_value_pair_tINS_8String16ENS_2spINS_8hardware7IBinderEEEEEE10do_destroyEPvm"
    },
    {
     "mangled_component_name" : "_ZNK7android12SortedVectorINS_16key_value_pair_tINS_8String16ENS_2spINS_8hardware7IBinderEEEEEE7do_copyEPvPKvm"
    },
    {
     "mangled_component_name" : "_ZNK7android12SortedVectorINS_16key_value_pair_tINS_8String16ENS_2spINS_8hardware7IBinderEEEEEE8do_splatEPvPKvm"
    },
    {
     "mangled_component_name" : "_ZNK7android12SortedVectorINS_16key_value_pair_tINS_8String16ENS_2spINS_8hardware7IBinderEEEEEE15do_move_forwardEPvPKvm"
    },
    {
     "mangled_component_name" : "_ZNK7android12SortedVectorINS_16key_value_pair_tINS_8String16ENS_2spINS_8hardware7IBinderEEEEEE16do_move_backwardEPvPKvm"
    },
    {
     "mangled_component_name" : "_ZNK7android12SortedVectorINS_16key_value_pair_tINS_8String16ENS_2spINS_8hardware7IBinderEEEEEE10do_compareEPKvSA_"
    }
   ]
  },
  {
   "alignment" : 8,
   "base_specifiers" :
   [
    {
     "access" : "private",
     "referenced_type" : "type-284"
    }
   ],
   "linker_set_key" : "android::SortedVector<android::key_value_pair_t<const void *, android::hardware::BpHwBinder::ObjectManager::entry_t> >",
   "name" : "android::SortedVector<android::key_value_pair_t<const void *, android::hardware::BpHwBinder::ObjectManager::entry_t> >",
   "record_kind" : "class",
   "referenced_type" : "type-283",
   "self_type" : "type-283",
   "size" : 40,
   "source_file" : "/system/core/libutils/include/utils/SortedVector.h",
   "template_args" : [ "type-285" ],
   "unique_id" : "_ZTSN7android12SortedVectorINS_16key_value_pair_tIPKvNS_8hardware10BpHwBinder13ObjectManager7entry_tEEEEE",
   "vtable_components" :
   [
    {
     "kind" : "offset_to_top"
    },
    {
     "kind" : "rtti",
     "mangled_component_name" : "_ZTIN7android12SortedVectorINS_16key_value_pair_tIPKvNS_8hardware10BpHwBinder13ObjectManager7entry_tEEEEE"
    },
    {
     "kind" : "complete_dtor_pointer",
     "mangled_component_name" : "_ZN7android12SortedVectorINS_16key_value_pair_tIPKvNS_8hardware10BpHwBinder13ObjectManager7entry_tEEEED1Ev"
    },
    {
     "kind" : "deleting_dtor_pointer",
     "mangled_component_name" : "_ZN7android12SortedVectorINS_16key_value_pair_tIPKvNS_8hardware10BpHwBinder13ObjectManager7entry_tEEEED0Ev"
    },
    {
     "mangled_component_name" : "_ZNK7android12SortedVectorINS_16key_value_pair_tIPKvNS_8hardware10BpHwBinder13ObjectManager7entry_tEEEE12do_constructEPvm"
    },
    {
     "mangled_component_name" : "_ZNK7android12SortedVectorINS_16key_value_pair_tIPKvNS_8hardware10BpHwBinder13ObjectManager7entry_tEEEE10do_destroyEPvm"
    },
    {
     "mangled_component_name" : "_ZNK7android12SortedVectorINS_16key_value_pair_tIPKvNS_8hardware10BpHwBinder13ObjectManager7entry_tEEEE7do_copyEPvS3_m"
    },
    {
     "mangled_component_name" : "_ZNK7android12SortedVectorINS_16key_value_pair_tIPKvNS_8hardware10BpHwBinder13ObjectManager7entry_tEEEE8do_splatEPvS3_m"
    },
    {
     "mangled_component_name" : "_ZNK7android12SortedVectorINS_16key_value_pair_tIPKvNS_8hardware10BpHwBinder13ObjectManager7entry_tEEEE15do_move_forwardEPvS3_m"
    },
    {
     "mangled_component_name" : "_ZNK7android12SortedVectorINS_16key_value_pair_tIPKvNS_8hardware10BpHwBinder13ObjectManager7entry_tEEEE16do_move_backwardEPvS3_m"
    },
    {
     "mangled_component_name" : "_ZNK7android12SortedVectorINS_16key_value_pair_tIPKvNS_8hardware10BpHwBinder13ObjectManager7entry_tEEEE10do_compareES3_S3_"
    }
   ]
  },
  {
   "alignment" : 8,
   "base_specifiers" :
   [
    {
     "referenced_type" : "type-186"
    }
   ],
   "linker_set_key" : "android::SortedVectorImpl",
   "name" : "android::SortedVectorImpl",
   "record_kind" : "class",
   "referenced_type" : "type-284",
   "self_type" : "type-284",
   "size" : 40,
   "source_file" : "/system/core/libutils/include/utils/VectorImpl.h",
   "unique_id" : "_ZTSN7android16SortedVectorImplE",
   "vtable_components" :
   [
    {
     "kind" : "offset_to_top"
    },
    {
     "kind" : "rtti",
     "mangled_component_name" : "_ZTIN7android16SortedVectorImplE"
    },
    {
     "kind" : "complete_dtor_pointer",
     "mangled_component_name" : "_ZN7android16SortedVectorImplD1Ev"
    },
    {
     "kind" : "deleting_dtor_pointer",
     "mangled_component_name" : "_ZN7android16SortedVectorImplD0Ev"
    },
    {
     "is_pure" : true,
     "mangled_component_name" : "_ZNK7android10VectorImpl12do_constructEPvm"
    },
    {
     "is_pure" : true,
     "mangled_component_name" : "_ZNK7android10VectorImpl10do_destroyEPvm"
    },
    {
     "is_pure" : true,
     "mangled_component_name" : "_ZNK7android10VectorImpl7do_copyEPvPKvm"
    },
    {
     "is_pure" : true,
     "mangled_component_name" : "_ZNK7android10VectorImpl8do_splatEPvPKvm"
    },
    {
     "is_pure" : true,
     "mangled_component_name" : "_ZNK7android10VectorImpl15do_move_forwardEPvPKvm"
    },
    {
     "is_pure" : true,
     "mangled_component_name" : "_ZNK7android10VectorImpl16do_move_backwardEPvPKvm"
    },
    {
     "is_pure" : true,
     "mangled_component_name" : "_ZNK7android16SortedVectorImpl10do_compareEPKvS2_"
    }
   ]
  },
  {
   "alignment" : 8,
   "fields" :
   [
    {
     "access" : "private",
     "field_name" : "mString",
     "referenced_type" : "type-290"
    }
   ],
   "linker_set_key" : "android::String16",
   "name" : "android::String16",
   "record_kind" : "class",
   "referenced_type" : "type-289",
   "self_type" : "type-289",
   "size" : 8,
   "source_file" : "/system/core/libutils/include/utils/String16.h",
   "unique_id" : "_ZTSN7android8String16E"
  },
  {
   "alignment" : 8,
   "fields" :
   [
    {
     "access" : "private",
     "field_name" : "mString",
     "referenced_type" : "type-383"
    }
   ],
   "linker_set_key" : "android::String8",
   "name" : "android::String8",
   "record_kind" : "class",
   "referenced_type" : "type-382",
   "self_type" : "type-382",
   "size" : 8,
   "source_file" : "/system/core/libutils/include/utils/String8.h",
   "unique_id" : "_ZTSN7android7String8E"
  },
  {
   "alignment" : 8,
   "base_specifiers" :
   [
    {
     "is_virtual" : true,
     "referenced_type" : "type-31"
    }
   ],
   "fields" :
   [
    {
     "access" : "private",
     "field_name" : "mCanCallJava",
     "field_offset" : 64,
     "referenced_type" : "type-63"
    },
    {
     "access" : "private",
     "field_name" : "mThread",
     "field_offset" : 128,
     "referenced_type" : "type-23"
    },
    {
     "access" : "private",
     "field_name" : "mLock",
     "field_offset" : 192,
     "referenced_type" : "type-64"
    },
    {
     "access" : "private",
     "field_name" : "mThreadExitedCondition",
     "field_offset" : 512,
     "referenced_type" : "type-66"
    },
    {
     "access" : "private",
     "field_name" : "mStatus",
     "field_offset" : 896,
     "referenced_type" : "type-9"
    },
    {
     "access" : "private",
     "field_name" : "mExitPending",
     "field_offset" : 928,
     "referenced_type" : "type-68"
    },
    {
     "access" : "private",
     "field_name" : "mRunning",
     "field_offset" : 936,
     "referenced_type" : "type-68"
    },
    {
     "access" : "private",
     "field_name" : "mHoldSelf",
     "field_offset" : 960,
     "referenced_type" : "type-60"
    },
    {
     "access" : "private",
     "field_name" : "mTid",
     "field_offset" : 1024,
     "referenced_type" : "type-9"
    }
   ],
   "linker_set_key" : "android::Thread",
   "name" : "android::Thread",
   "record_kind" : "class",
   "referenced_type" : "type-62",
   "self_type" : "type-62",
   "size" : 152,
   "source_file" : "/system/core/libutils/include/utils/Thread.h",
   "unique_id" : "_ZTSN7android6ThreadE",
   "vtable_components" :
   [
    {
     "component_value" : 136,
     "kind" : "vbase_offset"
    },
    {
     "kind" : "offset_to_top"
    },
    {
     "kind" : "rtti",
     "mangled_component_name" : "_ZTIN7android6ThreadE"
    },
    {
     "kind" : "complete_dtor_pointer",
     "mangled_component_name" : "_ZN7android6ThreadD1Ev"
    },
    {
     "kind" : "deleting_dtor_pointer",
     "mangled_component_name" : "_ZN7android6ThreadD0Ev"
    },
    {
     "mangled_component_name" : "_ZN7android6Thread3runEPKcim"
    },
    {
     "mangled_component_name" : "_ZN7android6Thread11requestExitEv"
    },
    {
     "mangled_component_name" : "_ZN7android6Thread10readyToRunEv"
    },
    {
     "is_pure" : true,
     "mangled_component_name" : "_ZN7android6Thread10threadLoopEv"
    },
    {
     "kind" : "vcall_offset"
    },
    {
     "kind" : "vcall_offset"
    },
    {
     "kind" : "vcall_offset"
    },
    {
     "kind" : "vcall_offset"
    },
    {
     "component_value" : -136,
     "kind" : "vcall_offset"
    },
    {
     "component_value" : -136,
     "kind" : "offset_to_top"
    },
    {
     "kind" : "rtti",
     "mangled_component_name" : "_ZTIN7android6ThreadE"
    },
    {
     "kind" : "complete_dtor_pointer",
     "mangled_component_name" : "_ZTv0_n24_N7android6ThreadD1Ev"
    },
    {
     "kind" : "deleting_dtor_pointer",
     "mangled_component_name" : "_ZTv0_n24_N7android6ThreadD0Ev"
    },
    {
     "mangled_component_name" : "_ZN7android7RefBase10onFirstRefEv"
    },
    {
     "mangled_component_name" : "_ZN7android7RefBase15onLastStrongRefEPKv"
    },
    {
     "mangled_component_name" : "_ZN7android7RefBase20onIncStrongAttemptedEjPKv"
    },
    {
     "mangled_component_name" : "_ZN7android7RefBase13onLastWeakRefEPKv"
    }
   ]
  },
  {
   "alignment" : 8,
   "base_specifiers" :
   [
    {
     "access" : "private",
     "referenced_type" : "type-186"
    }
   ],
   "linker_set_key" : "android::Vector<android::RefBase *>",
   "name" : "android::Vector<android::RefBase *>",
   "record_kind" : "class",
   "referenced_type" : "type-527",
   "self_type" : "type-527",
   "size" : 40,
   "source_file" : "/system/core/libutils/include/utils/Vector.h",
   "template_args" : [ "type-30" ],
   "unique_id" : "_ZTSN7android6VectorIPNS_7RefBaseEEE",
   "vtable_components" :
   [
    {
     "kind" : "offset_to_top"
    },
    {
     "kind" : "rtti",
     "mangled_component_name" : "_ZTIN7android6VectorIPNS_7RefBaseEEE"
    },
    {
     "kind" : "complete_dtor_pointer",
     "mangled_component_name" : "_ZN7android6VectorIPNS_7RefBaseEED1Ev"
    },
    {
     "kind" : "deleting_dtor_pointer",
     "mangled_component_name" : "_ZN7android6VectorIPNS_7RefBaseEED0Ev"
    },
    {
     "mangled_component_name" : "_ZNK7android6VectorIPNS_7RefBaseEE12do_constructEPvm"
    },
    {
     "mangled_component_name" : "_ZNK7android6VectorIPNS_7RefBaseEE10do_destroyEPvm"
    },
    {
     "mangled_component_name" : "_ZNK7android6VectorIPNS_7RefBaseEE7do_copyEPvPKvm"
    },
    {
     "mangled_component_name" : "_ZNK7android6VectorIPNS_7RefBaseEE8do_splatEPvPKvm"
    },
    {
     "mangled_component_name" : "_ZNK7android6VectorIPNS_7RefBaseEE15do_move_forwardEPvPKvm"
    },
    {
     "mangled_component_name" : "_ZNK7android6VectorIPNS_7RefBaseEE16do_move_backwardEPvPKvm"
    }
   ]
  },
  {
   "alignment" : 8,
   "base_specifiers" :
   [
    {
     "access" : "private",
     "referenced_type" : "type-186"
    }
   ],
   "linker_set_key" : "android::Vector<android::RefBase::weakref_type *>",
   "name" : "android::Vector<android::RefBase::weakref_type *>",
   "record_kind" : "class",
   "referenced_type" : "type-526",
   "self_type" : "type-526",
   "size" : 40,
   "source_file" : "/system/core/libutils/include/utils/Vector.h",
   "template_args" : [ "type-25" ],
   "unique_id" : "_ZTSN7android6VectorIPNS_7RefBase12weakref_typeEEE",
   "vtable_components" :
   [
    {
     "kind" : "offset_to_top"
    },
    {
     "kind" : "rtti",
     "mangled_component_name" : "_ZTIN7android6VectorIPNS_7RefBase12weakref_typeEEE"
    },
    {
     "kind" : "complete_dtor_pointer",
     "mangled_component_name" : "_ZN7android6VectorIPNS_7RefBase12weakref_typeEED1Ev"
    },
    {
     "kind" : "deleting_dtor_pointer",
     "mangled_component_name" : "_ZN7android6VectorIPNS_7RefBase12weakref_typeEED0Ev"
    },
    {
     "mangled_component_name" : "_ZNK7android6VectorIPNS_7RefBase12weakref_typeEE12do_constructEPvm"
    },
    {
     "mangled_component_name" : "_ZNK7android6VectorIPNS_7RefBase12weakref_typeEE10do_destroyEPvm"
    },
    {
     "mangled_component_name" : "_ZNK7android6VectorIPNS_7RefBase12weakref_typeEE7do_copyEPvPKvm"
    },
    {
     "mangled_component_name" : "_ZNK7android6VectorIPNS_7RefBase12weakref_typeEE8do_splatEPvPKvm"
    },
    {
     "mangled_component_name" : "_ZNK7android6VectorIPNS_7RefBase12weakref_typeEE15do_move_forwardEPvPKvm"
    },
    {
     "mangled_component_name" : "_ZNK7android6VectorIPNS_7RefBase12weakref_typeEE16do_move_backwardEPvPKvm"
    }
   ]
  },
  {
   "alignment" : 8,
   "base_specifiers" :
   [
    {
     "access" : "private",
     "referenced_type" : "type-186"
    }
   ],
   "linker_set_key" : "android::Vector<android::String8>",
   "name" : "android::Vector<android::String8>",
   "record_kind" : "class",
   "referenced_type" : "type-700",
   "self_type" : "type-700",
   "size" : 40,
   "source_file" : "/system/core/libutils/include/utils/Vector.h",
   "template_args" : [ "type-382" ],
   "unique_id" : "_ZTSN7android6VectorINS_7String8EEE",
   "vtable_components" :
   [
    {
     "kind" : "offset_to_top"
    },
    {
     "kind" : "rtti",
     "mangled_component_name" : "_ZTIN7android6VectorINS_7String8EEE"
    },
    {
     "kind" : "complete_dtor_pointer",
     "mangled_component_name" : "_ZN7android6VectorINS_7String8EED1Ev"
    },
    {
     "kind" : "deleting_dtor_pointer",
     "mangled_component_name" : "_ZN7android6VectorINS_7String8EED0Ev"
    },
    {
     "mangled_component_name" : "_ZNK7android6VectorINS_7String8EE12do_constructEPvm"
    },
    {
     "mangled_component_name" : "_ZNK7android6VectorINS_7String8EE10do_destroyEPvm"
    },
    {
     "mangled_component_name" : "_ZNK7android6VectorINS_7String8EE7do_copyEPvPKvm"
    },
    {
     "mangled_component_name" : "_ZNK7android6VectorINS_7String8EE8do_splatEPvPKvm"
    },
    {
     "mangled_component_name" : "_ZNK7android6VectorINS_7String8EE15do_move_forwardEPvPKvm"
    },
    {
     "mangled_component_name" : "_ZNK7android6VectorINS_7String8EE16do_move_backwardEPvPKvm"
    }
   ]
  },
  {
   "alignment" : 8,
   "base_specifiers" :
   [
    {
     "access" : "private",
     "referenced_type" : "type-186"
    }
   ],
   "linker_set_key" : "android::Vector<android::hardware::BHwBinder *>",
   "name" : "android::Vector<android::hardware::BHwBinder *>",
   "record_kind" : "class",
   "referenced_type" : "type-525",
   "self_type" : "type-525",
   "size" : 40,
   "source_file" : "/system/core/libutils/include/utils/Vector.h",
   "template_args" : [ "type-36" ],
   "unique_id" : "_ZTSN7android6VectorIPNS_8hardware9BHwBinderEEE",
   "vtable_components" :
   [
    {
     "kind" : "offset_to_top"
    },
    {
     "kind" : "rtti",
     "mangled_component_name" : "_ZTIN7android6VectorIPNS_8hardware9BHwBinderEEE"
    },
    {
     "kind" : "complete_dtor_pointer",
     "mangled_component_name" : "_ZN7android6VectorIPNS_8hardware9BHwBinderEED1Ev"
    },
    {
     "kind" : "deleting_dtor_pointer",
     "mangled_component_name" : "_ZN7android6VectorIPNS_8hardware9BHwBinderEED0Ev"
    },
    {
     "mangled_component_name" : "_ZNK7android6VectorIPNS_8hardware9BHwBinderEE12do_constructEPvm"
    },
    {
     "mangled_component_name" : "_ZNK7android6VectorIPNS_8hardware9BHwBinderEE10do_destroyEPvm"
    },
    {
     "mangled_component_name" : "_ZNK7android6VectorIPNS_8hardware9BHwBinderEE7do_copyEPvPKvm"
    },
    {
     "mangled_component_name" : "_ZNK7android6VectorIPNS_8hardware9BHwBinderEE8do_splatEPvPKvm"
    },
    {
     "mangled_component_name" : "_ZNK7android6VectorIPNS_8hardware9BHwBinderEE15do_move_forwardEPvPKvm"
    },
    {
     "mangled_component_name" : "_ZNK7android6VectorIPNS_8hardware9BHwBinderEE16do_move_backwardEPvPKvm"
    }
   ]
  },
  {
   "alignment" : 8,
   "base_specifiers" :
   [
    {
     "access" : "private",
     "referenced_type" : "type-186"
    }
   ],
   "linker_set_key" : "android::Vector<android::hardware::BpHwBinder::Obituary>",
   "name" : "android::Vector<android::hardware::BpHwBinder::Obituary>",
   "record_kind" : "class",
   "referenced_type" : "type-519",
   "self_type" : "type-519",
   "size" : 40,
   "source_file" : "/system/core/libutils/include/utils/Vector.h",
   "template_args" : [ "type-294" ],
   "unique_id" : "_ZTSN7android6VectorINS_8hardware10BpHwBinder8ObituaryEEE",
   "vtable_components" :
   [
    {
     "kind" : "offset_to_top"
    },
    {
     "kind" : "rtti",
     "mangled_component_name" : "_ZTIN7android6VectorINS_8hardware10BpHwBinder8ObituaryEEE"
    },
    {
     "kind" : "complete_dtor_pointer",
     "mangled_component_name" : "_ZN7android6VectorINS_8hardware10BpHwBinder8ObituaryEED1Ev"
    },
    {
     "kind" : "deleting_dtor_pointer",
     "mangled_component_name" : "_ZN7android6VectorINS_8hardware10BpHwBinder8ObituaryEED0Ev"
    },
    {
     "mangled_component_name" : "_ZNK7android6VectorINS_8hardware10BpHwBinder8ObituaryEE12do_constructEPvm"
    },
    {
     "mangled_component_name" : "_ZNK7android6VectorINS_8hardware10BpHwBinder8ObituaryEE10do_destroyEPvm"
    },
    {
     "mangled_component_name" : "_ZNK7android6VectorINS_8hardware10BpHwBinder8ObituaryEE7do_copyEPvPKvm"
    },
    {
     "mangled_component_name" : "_ZNK7android6VectorINS_8hardware10BpHwBinder8ObituaryEE8do_splatEPvPKvm"
    },
    {
     "mangled_component_name" : "_ZNK7android6VectorINS_8hardware10BpHwBinder8ObituaryEE15do_move_forwardEPvPKvm"
    },
    {
     "mangled_component_name" : "_ZNK7android6VectorINS_8hardware10BpHwBinder8ObituaryEE16do_move_backwardEPvPKvm"
    }
   ]
  },
  {
   "alignment" : 8,
   "base_specifiers" :
   [
    {
     "access" : "private",
     "referenced_type" : "type-186"
    }
   ],
   "linker_set_key" : "android::Vector<android::hardware::ProcessState::handle_entry>",
   "name" : "android::Vector<android::hardware::ProcessState::handle_entry>",
   "record_kind" : "class",
   "referenced_type" : "type-356",
   "self_type" : "type-356",
   "size" : 40,
   "source_file" : "/system/core/libutils/include/utils/Vector.h",
   "template_args" : [ "type-326" ],
   "unique_id" : "_ZTSN7android6VectorINS_8hardware12ProcessState12handle_entryEEE",
   "vtable_components" :
   [
    {
     "kind" : "offset_to_top"
    },
    {
     "kind" : "rtti",
     "mangled_component_name" : "_ZTIN7android6VectorINS_8hardware12ProcessState12handle_entryEEE"
    },
    {
     "kind" : "complete_dtor_pointer",
     "mangled_component_name" : "_ZN7android6VectorINS_8hardware12ProcessState12handle_entryEED1Ev"
    },
    {
     "kind" : "deleting_dtor_pointer",
     "mangled_component_name" : "_ZN7android6VectorINS_8hardware12ProcessState12handle_entryEED0Ev"
    },
    {
     "mangled_component_name" : "_ZNK7android6VectorINS_8hardware12ProcessState12handle_entryEE12do_constructEPvm"
    },
    {
     "mangled_component_name" : "_ZNK7android6VectorINS_8hardware12ProcessState12handle_entryEE10do_destroyEPvm"
    },
    {
     "mangled_component_name" : "_ZNK7android6VectorINS_8hardware12ProcessState12handle_entryEE7do_copyEPvPKvm"
    },
    {
     "mangled_component_name" : "_ZNK7android6VectorINS_8hardware12ProcessState12handle_entryEE8do_splatEPvPKvm"
    },
    {
     "mangled_component_name" : "_ZNK7android6VectorINS_8hardware12ProcessState12handle_entryEE15do_move_forwardEPvPKvm"
    },
    {
     "mangled_component_name" : "_ZNK7android6VectorINS_8hardware12ProcessState12handle_entryEE16do_move_backwardEPvPKvm"
    }
   ]
  },
  {
   "alignment" : 8,
   "base_specifiers" :
   [
    {
     "access" : "private",
     "referenced_type" : "type-186"
    }
   ],
   "linker_set_key" : "android::Vector<android::sp<android::hardware::BufferedTextOutput::BufferState> >",
   "name" : "android::Vector<android::sp<android::hardware::BufferedTextOutput::BufferState> >",
   "record_kind" : "class",
   "referenced_type" : "type-628",
   "self_type" : "type-628",
   "size" : 40,
   "source_file" : "/system/core/libutils/include/utils/Vector.h",
   "template_args" : [ "type-581" ],
   "unique_id" : "_ZTSN7android6VectorINS_2spINS_8hardware18BufferedTextOutput11BufferStateEEEEE",
   "vtable_components" :
   [
    {
     "kind" : "offset_to_top"
    },
    {
     "kind" : "rtti",
     "mangled_component_name" : "_ZTIN7android6VectorINS_2spINS_8hardware18BufferedTextOutput11BufferStateEEEEE"
    },
    {
     "kind" : "complete_dtor_pointer",
     "mangled_component_name" : "_ZN7android6VectorINS_2spINS_8hardware18BufferedTextOutput11BufferStateEEEED1Ev"
    },
    {
     "kind" : "deleting_dtor_pointer",
     "mangled_component_name" : "_ZN7android6VectorINS_2spINS_8hardware18BufferedTextOutput11BufferStateEEEED0Ev"
    },
    {
     "mangled_component_name" : "_ZNK7android6VectorINS_2spINS_8hardware18BufferedTextOutput11BufferStateEEEE12do_constructEPvm"
    },
    {
     "mangled_component_name" : "_ZNK7android6VectorINS_2spINS_8hardware18BufferedTextOutput11BufferStateEEEE10do_destroyEPvm"
    },
    {
     "mangled_component_name" : "_ZNK7android6VectorINS_2spINS_8hardware18BufferedTextOutput11BufferStateEEEE7do_copyEPvPKvm"
    },
    {
     "mangled_component_name" : "_ZNK7android6VectorINS_2spINS_8hardware18BufferedTextOutput11BufferStateEEEE8do_splatEPvPKvm"
    },
    {
     "mangled_component_name" : "_ZNK7android6VectorINS_2spINS_8hardware18BufferedTextOutput11BufferStateEEEE15do_move_forwardEPvPKvm"
    },
    {
     "mangled_component_name" : "_ZNK7android6VectorINS_2spINS_8hardware18BufferedTextOutput11BufferStateEEEE16do_move_backwardEPvPKvm"
    }
   ]
  },
  {
   "alignment" : 8,
   "base_specifiers" :
   [
    {
     "access" : "private",
     "referenced_type" : "type-186"
    }
   ],
   "linker_set_key" : "android::Vector<int>",
   "name" : "android::Vector<int>",
   "record_kind" : "class",
   "referenced_type" : "type-622",
   "self_type" : "type-622",
   "size" : 40,
   "source_file" : "/system/core/libutils/include/utils/Vector.h",
   "template_args" : [ "type-9" ],
   "unique_id" : "_ZTSN7android6VectorIiEE",
   "vtable_components" :
   [
    {
     "kind" : "offset_to_top"
    },
    {
     "kind" : "rtti",
     "mangled_component_name" : "_ZTIN7android6VectorIiEE"
    },
    {
     "kind" : "complete_dtor_pointer",
     "mangled_component_name" : "_ZN7android6VectorIiED1Ev"
    },
    {
     "kind" : "deleting_dtor_pointer",
     "mangled_component_name" : "_ZN7android6VectorIiED0Ev"
    },
    {
     "mangled_component_name" : "_ZNK7android6VectorIiE12do_constructEPvm"
    },
    {
     "mangled_component_name" : "_ZNK7android6VectorIiE10do_destroyEPvm"
    },
    {
     "mangled_component_name" : "_ZNK7android6VectorIiE7do_copyEPvPKvm"
    },
    {
     "mangled_component_name" : "_ZNK7android6VectorIiE8do_splatEPvPKvm"
    },
    {
     "mangled_component_name" : "_ZNK7android6VectorIiE15do_move_forwardEPvPKvm"
    },
    {
     "mangled_component_name" : "_ZNK7android6VectorIiE16do_move_backwardEPvPKvm"
    }
   ]
  },
  {
   "alignment" : 8,
   "fields" :
   [
    {
     "access" : "private",
     "field_name" : "mStorage",
     "field_offset" : 64,
     "referenced_type" : "type-23"
    },
    {
     "access" : "private",
     "field_name" : "mCount",
     "field_offset" : 128,
     "referenced_type" : "type-7"
    },
    {
     "access" : "private",
     "field_name" : "mFlags",
     "field_offset" : 192,
     "referenced_type" : "type-74"
    },
    {
     "access" : "private",
     "field_name" : "mItemSize",
     "field_offset" : 256,
     "referenced_type" : "type-187"
    }
   ],
   "linker_set_key" : "android::VectorImpl",
   "name" : "android::VectorImpl",
   "record_kind" : "class",
   "referenced_type" : "type-186",
   "self_type" : "type-186",
   "size" : 40,
   "source_file" : "/system/core/libutils/include/utils/VectorImpl.h",
   "unique_id" : "_ZTSN7android10VectorImplE",
   "vtable_components" :
   [
    {
     "kind" : "offset_to_top"
    },
    {
     "kind" : "rtti",
     "mangled_component_name" : "_ZTIN7android10VectorImplE"
    },
    {
     "kind" : "complete_dtor_pointer",
     "mangled_component_name" : "_ZN7android10VectorImplD1Ev"
    },
    {
     "kind" : "deleting_dtor_pointer",
     "mangled_component_name" : "_ZN7android10VectorImplD0Ev"
    },
    {
     "is_pure" : true,
     "mangled_component_name" : "_ZNK7android10VectorImpl12do_constructEPvm"
    },
    {
     "is_pure" : true,
     "mangled_component_name" : "_ZNK7android10VectorImpl10do_destroyEPvm"
    },
    {
     "is_pure" : true,
     "mangled_component_name" : "_ZNK7android10VectorImpl7do_copyEPvPKvm"
    },
    {
     "is_pure" : true,
     "mangled_component_name" : "_ZNK7android10VectorImpl8do_splatEPvPKvm"
    },
    {
     "is_pure" : true,
     "mangled_component_name" : "_ZNK7android10VectorImpl15do_move_forwardEPvPKvm"
    },
    {
     "is_pure" : true,
     "mangled_component_name" : "_ZNK7android10VectorImpl16do_move_backwardEPvPKvm"
    }
   ]
  },
  {
   "alignment" : 8,
   "base_specifiers" :
   [
    {
     "referenced_type" : "type-1"
    }
   ],
   "linker_set_key" : "android::VirtualLightRefBase",
   "name" : "android::VirtualLightRefBase",
   "record_kind" : "class",
   "referenced_type" : "type-3",
   "self_type" : "type-3",
   "size" : 16,
   "source_file" : "/system/core/libutils/include/utils/LightRefBase.h",
   "unique_id" : "_ZTSN7android19VirtualLightRefBaseE",
   "vtable_components" :
   [
    {
     "kind" : "offset_to_top"
    },
    {
     "kind" : "rtti",
     "mangled_component_name" : "_ZTIN7android19VirtualLightRefBaseE"
    },
    {
     "kind" : "complete_dtor_pointer",
     "mangled_component_name" : "_ZN7android19VirtualLightRefBaseD1Ev"
    },
    {
     "kind" : "deleting_dtor_pointer",
     "mangled_component_name" : "_ZN7android19VirtualLightRefBaseD0Ev"
    }
   ]
  },
  {
   "alignment" : 1,
   "linker_set_key" : "android::aggregate_traits<android::String16, android::sp<android::hardware::IBinder> >",
   "name" : "android::aggregate_traits<android::String16, android::sp<android::hardware::IBinder> >",
   "referenced_type" : "type-420",
   "self_type" : "type-420",
   "size" : 1,
   "source_file" : "/system/core/libutils/include/utils/TypeHelpers.h",
   "template_args" : [ "type-289", "type-71" ],
   "unique_id" : "_ZTSN7android16aggregate_traitsINS_8String16ENS_2spINS_8hardware7IBinderEEEEE"
  },
  {
   "alignment" : 1,
   "linker_set_key" : "android::aggregate_traits<const void *, android::hardware::BpHwBinder::ObjectManager::entry_t>",
   "name" : "android::aggregate_traits<const void *, android::hardware::BpHwBinder::ObjectManager::entry_t>",
   "referenced_type" : "type-579",
   "self_type" : "type-579",
   "size" : 1,
   "source_file" : "/system/core/libutils/include/utils/TypeHelpers.h",
   "template_args" : [ "type-110", "type-286" ],
   "unique_id" : "_ZTSN7android16aggregate_traitsIPKvNS_8hardware10BpHwBinder13ObjectManager7entry_tEEE"
  },
  {
   "alignment" : 8,
   "base_specifiers" :
   [
    {
     "referenced_type" : "type-39"
    }
   ],
   "fields" :
   [
    {
     "access" : "protected",
     "field_name" : "mSchedPolicy",
     "field_offset" : 64,
     "referenced_type" : "type-9"
    },
    {
     "access" : "protected",
     "field_name" : "mSchedPriority",
     "field_offset" : 96,
     "referenced_type" : "type-9"
    },
    {
     "access" : "private",
     "field_name" : "mExtras",
     "field_offset" : 128,
     "referenced_type" : "type-38"
    },
    {
     "access" : "private",
     "field_name" : "mReserved0",
     "field_offset" : 192,
     "referenced_type" : "type-23"
    }
   ],
   "linker_set_key" : "android::hardware::BHwBinder",
   "name" : "android::hardware::BHwBinder",
   "record_kind" : "class",
   "referenced_type" : "type-37",
   "self_type" : "type-37",
   "size" : 48,
   "source_file" : "/system/libhwbinder/include/hwbinder/Binder.h",
   "unique_id" : "_ZTSN7android8hardware9BHwBinderE",
   "vtable_components" :
   [
    {
     "component_value" : 32,
     "kind" : "vbase_offset"
    },
    {
     "kind" : "offset_to_top"
    },
    {
     "kind" : "rtti",
     "mangled_component_name" : "_ZTIN7android8hardware9BHwBinderE"
    },
    {
     "mangled_component_name" : "_ZN7android8hardware9BHwBinder8transactEjRKNS0_6ParcelEPS2_jNSt3__18functionIFvRS2_EEE"
    },
    {
     "mangled_component_name" : "_ZN7android8hardware9BHwBinder11linkToDeathERKNS_2spINS0_7IBinder14DeathRecipientEEEPvj"
    },
    {
     "mangled_component_name" : "_ZN7android8hardware9BHwBinder13unlinkToDeathERKNS_2wpINS0_7IBinder14DeathRecipientEEEPvjPS5_"
    },
    {
     "mangled_component_name" : "_ZNK7android8hardware7IBinder13checkSubclassEPKv"
    },
    {
     "mangled_component_name" : "_ZN7android8hardware9BHwBinder12attachObjectEPKvPvS4_PFvS3_S4_S4_E"
    },
    {
     "mangled_component_name" : "_ZNK7android8hardware9BHwBinder10findObjectEPKv"
    },
    {
     "mangled_component_name" : "_ZN7android8hardware9BHwBinder12detachObjectEPKv"
    },
    {
     "mangled_component_name" : "_ZN7android8hardware9BHwBinder11localBinderEv"
    },
    {
     "mangled_component_name" : "_ZN7android8hardware7IBinder12remoteBinderEv"
    },
    {
     "kind" : "complete_dtor_pointer",
     "mangled_component_name" : "_ZN7android8hardware9BHwBinderD1Ev"
    },
    {
     "kind" : "deleting_dtor_pointer",
     "mangled_component_name" : "_ZN7android8hardware9BHwBinderD0Ev"
    },
    {
     "mangled_component_name" : "_ZN7android8hardware9BHwBinder10onTransactEjRKNS0_6ParcelEPS2_jNSt3__18functionIFvRS2_EEE"
    },
    {
     "kind" : "vcall_offset"
    },
    {
     "kind" : "vcall_offset"
    },
    {
     "kind" : "vcall_offset"
    },
    {
     "kind" : "vcall_offset"
    },
    {
     "component_value" : -32,
     "kind" : "vcall_offset"
    },
    {
     "component_value" : -32,
     "kind" : "offset_to_top"
    },
    {
     "kind" : "rtti",
     "mangled_component_name" : "_ZTIN7android8hardware9BHwBinderE"
    },
    {
     "kind" : "complete_dtor_pointer",
     "mangled_component_name" : "_ZTv0_n24_N7android8hardware9BHwBinderD1Ev"
    },
    {
     "kind" : "deleting_dtor_pointer",
     "mangled_component_name" : "_ZTv0_n24_N7android8hardware9BHwBinderD0Ev"
    },
    {
     "mangled_component_name" : "_ZN7android7RefBase10onFirstRefEv"
    },
    {
     "mangled_component_name" : "_ZN7android7RefBase15onLastStrongRefEPKv"
    },
    {
     "mangled_component_name" : "_ZN7android7RefBase20onIncStrongAttemptedEjPKv"
    },
    {
     "mangled_component_name" : "_ZN7android7RefBase13onLastWeakRefEPKv"
    }
   ]
  },
  {
   "alignment" : 8,
   "base_specifiers" :
   [
    {
     "referenced_type" : "type-39"
    }
   ],
   "fields" :
   [
    {
     "access" : "private",
     "field_name" : "mHandle",
     "field_offset" : 64,
     "referenced_type" : "type-277"
    },
    {
     "access" : "private",
     "field_name" : "mLock",
     "field_offset" : 96,
     "referenced_type" : "type-64"
    },
    {
     "access" : "private",
     "field_name" : "mAlive",
     "field_offset" : 416,
     "referenced_type" : "type-278"
    },
    {
     "access" : "private",
     "field_name" : "mObitsSent",
     "field_offset" : 448,
     "referenced_type" : "type-278"
    },
    {
     "access" : "private",
     "field_name" : "mObituaries",
     "field_offset" : 512,
     "referenced_type" : "type-279"
    },
    {
     "access" : "private",
     "field_name" : "mObjects",
     "field_offset" : 576,
     "referenced_type" : "type-281"
    },
    {
     "access" : "private",
     "field_name" : "mConstantData",
     "field_offset" : 896,
     "referenced_type" : "type-18"
    },
    {
     "access" : "private",
     "field_name" : "mDescriptorCache",
     "field_offset" : 960,
     "referenced_type" : "type-289"
    }
   ],
   "linker_set_key" : "android::hardware::BpHwBinder",
   "name" : "android::hardware::BpHwBinder",
   "record_kind" : "class",
   "referenced_type" : "type-276",
   "self_type" : "type-276",
   "size" : 144,
   "source_file" : "/system/libhwbinder/include/hwbinder/BpHwBinder.h",
   "unique_id" : "_ZTSN7android8hardware10BpHwBinderE",
   "vtable_components" :
   [
    {
     "component_value" : 128,
     "kind" : "vbase_offset"
    },
    {
     "kind" : "offset_to_top"
    },
    {
     "kind" : "rtti",
     "mangled_component_name" : "_ZTIN7android8hardware10BpHwBinderE"
    },
    {
     "mangled_component_name" : "_ZN7android8hardware10BpHwBinder8transactEjRKNS0_6ParcelEPS2_jNSt3__18functionIFvRS2_EEE"
    },
    {
     "mangled_component_name" : "_ZN7android8hardware10BpHwBinder11linkToDeathERKNS_2spINS0_7IBinder14DeathRecipientEEEPvj"
    },
    {
     "mangled_component_name" : "_ZN7android8hardware10BpHwBinder13unlinkToDeathERKNS_2wpINS0_7IBinder14DeathRecipientEEEPvjPS5_"
    },
    {
     "mangled_component_name" : "_ZNK7android8hardware7IBinder13checkSubclassEPKv"
    },
    {
     "mangled_component_name" : "_ZN7android8hardware10BpHwBinder12attachObjectEPKvPvS4_PFvS3_S4_S4_E"
    },
    {
     "mangled_component_name" : "_ZNK7android8hardware10BpHwBinder10findObjectEPKv"
    },
    {
     "mangled_component_name" : "_ZN7android8hardware10BpHwBinder12detachObjectEPKv"
    },
    {
     "mangled_component_name" : "_ZN7android8hardware7IBinder11localBinderEv"
    },
    {
     "mangled_component_name" : "_ZN7android8hardware10BpHwBinder12remoteBinderEv"
    },
    {
     "kind" : "complete_dtor_pointer",
     "mangled_component_name" : "_ZN7android8hardware10BpHwBinderD1Ev"
    },
    {
     "kind" : "deleting_dtor_pointer",
     "mangled_component_name" : "_ZN7android8hardware10BpHwBinderD0Ev"
    },
    {
     "mangled_component_name" : "_ZN7android8hardware10BpHwBinder10onFirstRefEv"
    },
    {
     "mangled_component_name" : "_ZN7android8hardware10BpHwBinder15onLastStrongRefEPKv"
    },
    {
     "mangled_component_name" : "_ZN7android8hardware10BpHwBinder20onIncStrongAttemptedEjPKv"
    },
    {
     "kind" : "vcall_offset"
    },
    {
     "component_value" : -128,
     "kind" : "vcall_offset"
    },
    {
     "component_value" : -128,
     "kind" : "vcall_offset"
    },
    {
     "component_value" : -128,
     "kind" : "vcall_offset"
    },
    {
     "component_value" : -128,
     "kind" : "vcall_offset"
    },
    {
     "component_value" : -128,
     "kind" : "offset_to_top"
    },
    {
     "kind" : "rtti",
     "mangled_component_name" : "_ZTIN7android8hardware10BpHwBinderE"
    },
    {
     "kind" : "complete_dtor_pointer",
     "mangled_component_name" : "_ZTv0_n24_N7android8hardware10BpHwBinderD1Ev"
    },
    {
     "kind" : "deleting_dtor_pointer",
     "mangled_component_name" : "_ZTv0_n24_N7android8hardware10BpHwBinderD0Ev"
    },
    {
     "mangled_component_name" : "_ZTv0_n32_N7android8hardware10BpHwBinder10onFirstRefEv"
    },
    {
     "mangled_component_name" : "_ZTv0_n40_N7android8hardware10BpHwBinder15onLastStrongRefEPKv"
    },
    {
     "mangled_component_name" : "_ZTv0_n48_N7android8hardware10BpHwBinder20onIncStrongAttemptedEjPKv"
    },
    {
     "mangled_component_name" : "_ZN7android7RefBase13onLastWeakRefEPKv"
    }
   ]
  },
  {
   "access" : "private",
   "alignment" : 8,
   "fields" :
   [
    {
     "field_name" : "recipient",
     "referenced_type" : "type-82"
    },
    {
     "field_name" : "cookie",
     "field_offset" : 128,
     "referenced_type" : "type-23"
    },
    {
     "field_name" : "flags",
     "field_offset" : 192,
     "referenced_type" : "type-4"
    }
   ],
   "linker_set_key" : "android::hardware::BpHwBinder::Obituary",
   "name" : "android::hardware::BpHwBinder::Obituary",
   "referenced_type" : "type-294",
   "self_type" : "type-294",
   "size" : 32,
   "source_file" : "/system/libhwbinder/include/hwbinder/BpHwBinder.h",
   "unique_id" : "_ZTSN7android8hardware10BpHwBinder8ObituaryE"
  },
  {
   "alignment" : 8,
   "fields" :
   [
    {
     "access" : "private",
     "field_name" : "mObjects",
     "referenced_type" : "type-282"
    }
   ],
   "linker_set_key" : "android::hardware::BpHwBinder::ObjectManager",
   "name" : "android::hardware::BpHwBinder::ObjectManager",
   "record_kind" : "class",
   "referenced_type" : "type-281",
   "self_type" : "type-281",
   "size" : 40,
   "source_file" : "/system/libhwbinder/include/hwbinder/BpHwBinder.h",
   "unique_id" : "_ZTSN7android8hardware10BpHwBinder13ObjectManagerE"
  },
  {
   "access" : "private",
   "alignment" : 8,
   "fields" :
   [
    {
     "field_name" : "object",
     "referenced_type" : "type-23"
    },
    {
     "field_name" : "cleanupCookie",
     "field_offset" : 64,
     "referenced_type" : "type-23"
    },
    {
     "field_name" : "func",
     "field_offset" : 128,
     "referenced_type" : "type-287"
    }
   ],
   "linker_set_key" : "android::hardware::BpHwBinder::ObjectManager::entry_t",
   "name" : "android::hardware::BpHwBinder::ObjectManager::entry_t",
   "referenced_type" : "type-286",
   "self_type" : "type-286",
   "size" : 24,
   "source_file" : "/system/libhwbinder/include/hwbinder/BpHwBinder.h",
   "unique_id" : "_ZTSN7android8hardware10BpHwBinder13ObjectManager7entry_tE"
  },
  {
   "alignment" : 8,
   "base_specifiers" :
   [
    {
     "is_virtual" : true,
     "referenced_type" : "type-31"
    }
   ],
   "fields" :
   [
    {
     "access" : "private",
     "field_name" : "mRemote",
     "field_offset" : 64,
     "referenced_type" : "type-145"
    },
    {
     "access" : "private",
     "field_name" : "mRefs",
     "field_offset" : 128,
     "referenced_type" : "type-25"
    },
    {
     "access" : "private",
     "field_name" : "mState",
     "field_offset" : 192,
     "referenced_type" : "type-146"
    }
   ],
   "linker_set_key" : "android::hardware::BpHwRefBase",
   "name" : "android::hardware::BpHwRefBase",
   "record_kind" : "class",
   "referenced_type" : "type-144",
   "self_type" : "type-144",
   "size" : 48,
   "source_file" : "/system/libhwbinder/include/hwbinder/Binder.h",
   "unique_id" : "_ZTSN7android8hardware11BpHwRefBaseE",
   "vtable_components" :
   [
    {
     "component_value" : 32,
     "kind" : "vbase_offset"
    },
    {
     "kind" : "offset_to_top"
    },
    {
     "kind" : "rtti",
     "mangled_component_name" : "_ZTIN7android8hardware11BpHwRefBaseE"
    },
    {
     "kind" : "complete_dtor_pointer",
     "mangled_component_name" : "_ZN7android8hardware11BpHwRefBaseD1Ev"
    },
    {
     "kind" : "deleting_dtor_pointer",
     "mangled_component_name" : "_ZN7android8hardware11BpHwRefBaseD0Ev"
    },
    {
     "mangled_component_name" : "_ZN7android8hardware11BpHwRefBase10onFirstRefEv"
    },
    {
     "mangled_component_name" : "_ZN7android8hardware11BpHwRefBase15onLastStrongRefEPKv"
    },
    {
     "mangled_component_name" : "_ZN7android8hardware11BpHwRefBase20onIncStrongAttemptedEjPKv"
    },
    {
     "kind" : "vcall_offset"
    },
    {
     "component_value" : -32,
     "kind" : "vcall_offset"
    },
    {
     "component_value" : -32,
     "kind" : "vcall_offset"
    },
    {
     "component_value" : -32,
     "kind" : "vcall_offset"
    },
    {
     "component_value" : -32,
     "kind" : "vcall_offset"
    },
    {
     "component_value" : -32,
     "kind" : "offset_to_top"
    },
    {
     "kind" : "rtti",
     "mangled_component_name" : "_ZTIN7android8hardware11BpHwRefBaseE"
    },
    {
     "kind" : "complete_dtor_pointer",
     "mangled_component_name" : "_ZTv0_n24_N7android8hardware11BpHwRefBaseD1Ev"
    },
    {
     "kind" : "deleting_dtor_pointer",
     "mangled_component_name" : "_ZTv0_n24_N7android8hardware11BpHwRefBaseD0Ev"
    },
    {
     "mangled_component_name" : "_ZTv0_n32_N7android8hardware11BpHwRefBase10onFirstRefEv"
    },
    {
     "mangled_component_name" : "_ZTv0_n40_N7android8hardware11BpHwRefBase15onLastStrongRefEPKv"
    },
    {
     "mangled_component_name" : "_ZTv0_n48_N7android8hardware11BpHwRefBase20onIncStrongAttemptedEjPKv"
    },
    {
     "mangled_component_name" : "_ZN7android7RefBase13onLastWeakRefEPKv"
    }
   ]
  },
  {
   "alignment" : 8,
   "base_specifiers" :
   [
    {
     "referenced_type" : "type-448"
    }
   ],
   "fields" :
   [
    {
     "access" : "private",
     "field_name" : "mFlags",
     "field_offset" : 64,
     "referenced_type" : "type-4"
    },
    {
     "access" : "private",
     "field_name" : "mSeq",
     "field_offset" : 96,
     "referenced_type" : "type-277"
    },
    {
     "access" : "private",
     "field_name" : "mIndex",
     "field_offset" : 128,
     "referenced_type" : "type-277"
    },
    {
     "access" : "private",
     "field_name" : "mLock",
     "field_offset" : 160,
     "referenced_type" : "type-64"
    },
    {
     "access" : "private",
     "field_name" : "mGlobalState",
     "field_offset" : 512,
     "referenced_type" : "type-582"
    }
   ],
   "linker_set_key" : "android::hardware::BufferedTextOutput",
   "name" : "android::hardware::BufferedTextOutput",
   "record_kind" : "class",
   "referenced_type" : "type-613",
   "self_type" : "type-613",
   "size" : 72,
   "source_file" : "/system/libhwbinder/include/hwbinder/BufferedTextOutput.h",
   "unique_id" : "_ZTSN7android8hardware18BufferedTextOutputE",
   "vtable_components" :
   [
    {
     "kind" : "offset_to_top"
    },
    {
     "kind" : "rtti",
     "mangled_component_name" : "_ZTIN7android8hardware18BufferedTextOutputE"
    },
    {
     "kind" : "complete_dtor_pointer",
     "mangled_component_name" : "_ZN7android8hardware18BufferedTextOutputD1Ev"
    },
    {
     "kind" : "deleting_dtor_pointer",
     "mangled_component_name" : "_ZN7android8hardware18BufferedTextOutputD0Ev"
    },
    {
     "mangled_component_name" : "_ZN7android8hardware18BufferedTextOutput5printEPKcm"
    },
    {
     "mangled_component_name" : "_ZN7android8hardware18BufferedTextOutput10moveIndentEi"
    },
    {
     "mangled_component_name" : "_ZN7android8hardware18BufferedTextOutput10pushBundleEv"
    },
    {
     "mangled_component_name" : "_ZN7android8hardware18BufferedTextOutput9popBundleEv"
    },
    {
     "is_pure" : true,
     "mangled_component_name" : "_ZN7android8hardware18BufferedTextOutput10writeLinesERK5iovecm"
    }
   ]
  },
  {
   "alignment" : 8,
   "fields" :
   [
    {
     "access" : "private",
     "field_name" : "mBuffer",
     "referenced_type" : "type-110"
    },
    {
     "access" : "private",
     "field_name" : "mSize",
     "field_offset" : 64,
     "referenced_type" : "type-7"
    },
    {
     "access" : "private",
     "field_name" : "mBytesPerLine",
     "field_offset" : 128,
     "referenced_type" : "type-7"
    },
    {
     "access" : "private",
     "field_name" : "mSingleLineCutoff",
     "field_offset" : 192,
     "referenced_type" : "type-9"
    },
    {
     "access" : "private",
     "field_name" : "mAlignment",
     "field_offset" : 256,
     "referenced_type" : "type-7"
    },
    {
     "access" : "private",
     "field_name" : "mCArrayStyle",
     "field_offset" : 320,
     "referenced_type" : "type-14"
    }
   ],
   "linker_set_key" : "android::hardware::HexDump",
   "name" : "android::hardware::HexDump",
   "record_kind" : "class",
   "referenced_type" : "type-455",
   "self_type" : "type-455",
   "size" : 48,
   "source_file" : "/system/libhwbinder/include/hwbinder/TextOutput.h",
   "unique_id" : "_ZTSN7android8hardware7HexDumpE"
  },
  {
   "alignment" : 8,
   "base_specifiers" :
   [
    {
     "is_virtual" : true,
     "referenced_type" : "type-31"
    }
   ],
   "linker_set_key" : "android::hardware::IBinder",
   "name" : "android::hardware::IBinder",
   "record_kind" : "class",
   "referenced_type" : "type-39",
   "self_type" : "type-39",
   "size" : 24,
   "source_file" : "/system/libhwbinder/include/hwbinder/IBinder.h",
   "unique_id" : "_ZTSN7android8hardware7IBinderE",
   "vtable_components" :
   [
    {
     "component_value" : 8,
     "kind" : "vbase_offset"
    },
    {
     "kind" : "offset_to_top"
    },
    {
     "kind" : "rtti",
     "mangled_component_name" : "_ZTIN7android8hardware7IBinderE"
    },
    {
     "is_pure" : true,
     "mangled_component_name" : "_ZN7android8hardware7IBinder8transactEjRKNS0_6ParcelEPS2_jNSt3__18functionIFvRS2_EEE"
    },
    {
     "is_pure" : true,
     "mangled_component_name" : "_ZN7android8hardware7IBinder11linkToDeathERKNS_2spINS1_14DeathRecipientEEEPvj"
    },
    {
     "is_pure" : true,
     "mangled_component_name" : "_ZN7android8hardware7IBinder13unlinkToDeathERKNS_2wpINS1_14DeathRecipientEEEPvjPS4_"
    },
    {
     "mangled_component_name" : "_ZNK7android8hardware7IBinder13checkSubclassEPKv"
    },
    {
     "is_pure" : true,
     "mangled_component_name" : "_ZN7android8hardware7IBinder12attachObjectEPKvPvS4_PFvS3_S4_S4_E"
    },
    {
     "is_pure" : true,
     "mangled_component_name" : "_ZNK7android8hardware7IBinder10findObjectEPKv"
    },
    {
     "is_pure" : true,
     "mangled_component_name" : "_ZN7android8hardware7IBinder12detachObjectEPKv"
    },
    {
     "mangled_component_name" : "_ZN7android8hardware7IBinder11localBinderEv"
    },
    {
     "mangled_component_name" : "_ZN7android8hardware7IBinder12remoteBinderEv"
    },
    {
     "kind" : "complete_dtor_pointer",
     "mangled_component_name" : "_ZN7android8hardware7IBinderD1Ev"
    },
    {
     "kind" : "deleting_dtor_pointer",
     "mangled_component_name" : "_ZN7android8hardware7IBinderD0Ev"
    },
    {
     "kind" : "vcall_offset"
    },
    {
     "kind" : "vcall_offset"
    },
    {
     "kind" : "vcall_offset"
    },
    {
     "kind" : "vcall_offset"
    },
    {
     "component_value" : -8,
     "kind" : "vcall_offset"
    },
    {
     "component_value" : -8,
     "kind" : "offset_to_top"
    },
    {
     "kind" : "rtti",
     "mangled_component_name" : "_ZTIN7android8hardware7IBinderE"
    },
    {
     "kind" : "complete_dtor_pointer",
     "mangled_component_name" : "_ZTv0_n24_N7android8hardware7IBinderD1Ev"
    },
    {
     "kind" : "deleting_dtor_pointer",
     "mangled_component_name" : "_ZTv0_n24_N7android8hardware7IBinderD0Ev"
    },
    {
     "mangled_component_name" : "_ZN7android7RefBase10onFirstRefEv"
    },
    {
     "mangled_component_name" : "_ZN7android7RefBase15onLastStrongRefEPKv"
    },
    {
     "mangled_component_name" : "_ZN7android7RefBase20onIncStrongAttemptedEjPKv"
    },
    {
     "mangled_component_name" : "_ZN7android7RefBase13onLastWeakRefEPKv"
    }
   ]
  },
  {
   "alignment" : 8,
   "base_specifiers" :
   [
    {
     "is_virtual" : true,
     "referenced_type" : "type-31"
    }
   ],
   "linker_set_key" : "android::hardware::IBinder::DeathRecipient",
   "name" : "android::hardware::IBinder::DeathRecipient",
   "record_kind" : "class",
   "referenced_type" : "type-84",
   "self_type" : "type-84",
   "size" : 24,
   "source_file" : "/system/libhwbinder/include/hwbinder/IBinder.h",
   "unique_id" : "_ZTSN7android8hardware7IBinder14DeathRecipientE",
   "vtable_components" :
   [
    {
     "component_value" : 8,
     "kind" : "vbase_offset"
    },
    {
     "kind" : "offset_to_top"
    },
    {
     "kind" : "rtti",
     "mangled_component_name" : "_ZTIN7android8hardware7IBinder14DeathRecipientE"
    },
    {
     "is_pure" : true,
     "mangled_component_name" : "_ZN7android8hardware7IBinder14DeathRecipient10binderDiedERKNS_2wpIS1_EE"
    },
    {
     "kind" : "complete_dtor_pointer",
     "mangled_component_name" : "_ZN7android8hardware7IBinder14DeathRecipientD1Ev"
    },
    {
     "kind" : "deleting_dtor_pointer",
     "mangled_component_name" : "_ZN7android8hardware7IBinder14DeathRecipientD0Ev"
    },
    {
     "kind" : "vcall_offset"
    },
    {
     "kind" : "vcall_offset"
    },
    {
     "kind" : "vcall_offset"
    },
    {
     "kind" : "vcall_offset"
    },
    {
     "component_value" : -8,
     "kind" : "vcall_offset"
    },
    {
     "component_value" : -8,
     "kind" : "offset_to_top"
    },
    {
     "kind" : "rtti",
     "mangled_component_name" : "_ZTIN7android8hardware7IBinder14DeathRecipientE"
    },
    {
     "kind" : "complete_dtor_pointer",
     "mangled_component_name" : "_ZTv0_n24_N7android8hardware7IBinder14DeathRecipientD1Ev"
    },
    {
     "kind" : "deleting_dtor_pointer",
     "mangled_component_name" : "_ZTv0_n24_N7android8hardware7IBinder14DeathRecipientD0Ev"
    },
    {
     "mangled_component_name" : "_ZN7android7RefBase10onFirstRefEv"
    },
    {
     "mangled_component_name" : "_ZN7android7RefBase15onLastStrongRefEPKv"
    },
    {
     "mangled_component_name" : "_ZN7android7RefBase20onIncStrongAttemptedEjPKv"
    },
    {
     "mangled_component_name" : "_ZN7android7RefBase13onLastWeakRefEPKv"
    }
   ]
  },
  {
   "alignment" : 8,
   "base_specifiers" :
   [
    {
     "is_virtual" : true,
     "referenced_type" : "type-31"
    }
   ],
   "linker_set_key" : "android::hardware::IInterface",
   "name" : "android::hardware::IInterface",
   "record_kind" : "class",
   "referenced_type" : "type-298",
   "self_type" : "type-298",
   "size" : 24,
   "source_file" : "/system/libhwbinder/include/hwbinder/IInterface.h",
   "unique_id" : "_ZTSN7android8hardware10IInterfaceE",
   "vtable_components" :
   [
    {
     "component_value" : 8,
     "kind" : "vbase_offset"
    },
    {
     "kind" : "offset_to_top"
    },
    {
     "kind" : "rtti",
     "mangled_component_name" : "_ZTIN7android8hardware10IInterfaceE"
    },
    {
     "kind" : "complete_dtor_pointer",
     "mangled_component_name" : "_ZN7android8hardware10IInterfaceD1Ev"
    },
    {
     "kind" : "deleting_dtor_pointer",
     "mangled_component_name" : "_ZN7android8hardware10IInterfaceD0Ev"
    },
    {
     "is_pure" : true,
     "mangled_component_name" : "_ZN7android8hardware10IInterface10onAsBinderEv"
    },
    {
     "kind" : "vcall_offset"
    },
    {
     "kind" : "vcall_offset"
    },
    {
     "kind" : "vcall_offset"
    },
    {
     "kind" : "vcall_offset"
    },
    {
     "component_value" : -8,
     "kind" : "vcall_offset"
    },
    {
     "component_value" : -8,
     "kind" : "offset_to_top"
    },
    {
     "kind" : "rtti",
     "mangled_component_name" : "_ZTIN7android8hardware10IInterfaceE"
    },
    {
     "kind" : "complete_dtor_pointer",
     "mangled_component_name" : "_ZTv0_n24_N7android8hardware10IInterfaceD1Ev"
    },
    {
     "kind" : "deleting_dtor_pointer",
     "mangled_component_name" : "_ZTv0_n24_N7android8hardware10IInterfaceD0Ev"
    },
    {
     "mangled_component_name" : "_ZN7android7RefBase10onFirstRefEv"
    },
    {
     "mangled_component_name" : "_ZN7android7RefBase15onLastStrongRefEPKv"
    },
    {
     "mangled_component_name" : "_ZN7android7RefBase20onIncStrongAttemptedEjPKv"
    },
    {
     "mangled_component_name" : "_ZN7android7RefBase13onLastWeakRefEPKv"
    }
   ]
  },
  {
   "alignment" : 8,
   "fields" :
   [
    {
     "access" : "private",
     "field_name" : "mProcess",
     "referenced_type" : "type-544"
    },
    {
     "access" : "private",
     "field_name" : "mPendingStrongDerefs",
     "field_offset" : 64,
     "referenced_type" : "type-525"
    },
    {
     "access" : "private",
     "field_name" : "mPendingWeakDerefs",
     "field_offset" : 384,
     "referenced_type" : "type-526"
    },
    {
     "access" : "private",
     "field_name" : "mPostWriteStrongDerefs",
     "field_offset" : 704,
     "referenced_type" : "type-527"
    },
    {
     "access" : "private",
     "field_name" : "mPostWriteWeakDerefs",
     "field_offset" : 1024,
     "referenced_type" : "type-526"
    },
    {
     "access" : "private",
     "field_name" : "mIn",
     "field_offset" : 1344,
     "referenced_type" : "type-6"
    },
    {
     "access" : "private",
     "field_name" : "mOut",
     "field_offset" : 2432,
     "referenced_type" : "type-6"
    },
    {
     "access" : "private",
     "field_name" : "mLastError",
     "field_offset" : 3520,
     "referenced_type" : "type-9"
    },
    {
     "access" : "private",
     "field_name" : "mCallingPid",
     "field_offset" : 3552,
     "referenced_type" : "type-9"
    },
    {
     "access" : "private",
     "field_name" : "mCallingSid",
     "field_offset" : 3584,
     "referenced_type" : "type-383"
    },
    {
     "access" : "private",
     "field_name" : "mCallingUid",
     "field_offset" : 3648,
     "referenced_type" : "type-4"
    },
    {
     "access" : "private",
     "field_name" : "mStrictModePolicy",
     "field_offset" : 3680,
     "referenced_type" : "type-9"
    },
    {
     "access" : "private",
     "field_name" : "mLastTransactionBinderFlags",
     "field_offset" : 3712,
     "referenced_type" : "type-9"
    },
    {
     "access" : "private",
     "field_name" : "mContextObject",
     "field_offset" : 3776,
     "referenced_type" : "type-545"
    },
    {
     "access" : "private",
     "field_name" : "mIsLooper",
     "field_offset" : 3840,
     "referenced_type" : "type-14"
    },
    {
     "access" : "private",
     "field_name" : "mIsPollingThread",
     "field_offset" : 3848,
     "referenced_type" : "type-14"
    },
    {
     "access" : "private",
     "field_name" : "mPostCommandTasks",
     "field_offset" : 3904,
     "referenced_type" : "type-546"
    },
    {
     "access" : "private",
     "field_name" : "mIPCThreadStateBase",
     "field_offset" : 4096,
     "referenced_type" : "type-547"
    },
    {
     "access" : "private",
     "field_name" : "mCallRestriction",
     "field_offset" : 4160,
     "referenced_type" : "type-385"
    }
   ],
   "linker_set_key" : "android::hardware::IPCThreadState",
   "name" : "android::hardware::IPCThreadState",
   "record_kind" : "class",
   "referenced_type" : "type-543",
   "self_type" : "type-543",
   "size" : 528,
   "source_file" : "/system/libhwbinder/include/hwbinder/IPCThreadState.h",
   "unique_id" : "_ZTSN7android8hardware14IPCThreadStateE"
  },
  {
   "alignment" : 8,
   "fields" :
   [
    {
     "access" : "private",
     "field_name" : "mBufCachePos",
     "referenced_type" : "type-7"
    },
    {
     "access" : "private",
     "field_name" : "mBufCache",
     "field_offset" : 64,
     "referenced_type" : "type-8"
    },
    {
     "access" : "private",
     "field_name" : "mError",
     "field_offset" : 256,
     "referenced_type" : "type-9"
    },
    {
     "access" : "private",
     "field_name" : "mData",
     "field_offset" : 320,
     "referenced_type" : "type-10"
    },
    {
     "access" : "private",
     "field_name" : "mDataSize",
     "field_offset" : 384,
     "referenced_type" : "type-7"
    },
    {
     "access" : "private",
     "field_name" : "mDataCapacity",
     "field_offset" : 448,
     "referenced_type" : "type-7"
    },
    {
     "access" : "private",
     "field_name" : "mDataPos",
     "field_offset" : 512,
     "referenced_type" : "type-7"
    },
    {
     "access" : "private",
     "field_name" : "mObjects",
     "field_offset" : 576,
     "referenced_type" : "type-12"
    },
    {
     "access" : "private",
     "field_name" : "mObjectsSize",
     "field_offset" : 640,
     "referenced_type" : "type-7"
    },
    {
     "access" : "private",
     "field_name" : "mObjectsCapacity",
     "field_offset" : 704,
     "referenced_type" : "type-7"
    },
    {
     "access" : "private",
     "field_name" : "mNextObjectHint",
     "field_offset" : 768,
     "referenced_type" : "type-7"
    },
    {
     "access" : "private",
     "field_name" : "mNumRef",
     "field_offset" : 832,
     "referenced_type" : "type-7"
    },
    {
     "access" : "private",
     "field_name" : "mFdsKnown",
     "field_offset" : 896,
     "referenced_type" : "type-14"
    },
    {
     "access" : "private",
     "field_name" : "mHasFds",
     "field_offset" : 904,
     "referenced_type" : "type-14"
    },
    {
     "access" : "private",
     "field_name" : "mAllowFds",
     "field_offset" : 912,
     "referenced_type" : "type-14"
    },
    {
     "access" : "private",
     "field_name" : "mOwner",
     "field_offset" : 960,
     "referenced_type" : "type-15"
    },
    {
     "access" : "private",
     "field_name" : "mOwnerCookie",
     "field_offset" : 1024,
     "referenced_type" : "type-23"
    }
   ],
   "linker_set_key" : "android::hardware::Parcel",
   "name" : "android::hardware::Parcel",
   "record_kind" : "class",
   "referenced_type" : "type-6",
   "self_type" : "type-6",
   "size" : 136,
   "source_file" : "/system/libhwbinder/include/hwbinder/Parcel.h",
   "unique_id" : "_ZTSN7android8hardware6ParcelE"
  },
  {
   "access" : "private",
   "alignment" : 8,
   "fields" :
   [
    {
     "field_name" : "index",
     "referenced_type" : "type-7"
    },
    {
     "field_name" : "buffer",
     "field_offset" : 64,
     "referenced_type" : "type-13"
    },
    {
     "field_name" : "bufend",
     "field_offset" : 128,
     "referenced_type" : "type-13"
    }
   ],
   "linker_set_key" : "android::hardware::Parcel::BufferInfo",
   "name" : "android::hardware::Parcel::BufferInfo",
   "referenced_type" : "type-309",
   "self_type" : "type-309",
   "size" : 24,
   "source_file" : "/system/libhwbinder/include/hwbinder/Parcel.h",
   "unique_id" : "_ZTSN7android8hardware6Parcel10BufferInfoE"
  },
  {
   "alignment" : 8,
   "base_specifiers" :
   [
    {
     "is_virtual" : true,
     "referenced_type" : "type-31"
    }
   ],
   "fields" :
   [
    {
     "access" : "private",
     "field_name" : "mDriverFD",
     "field_offset" : 64,
     "referenced_type" : "type-9"
    },
    {
     "access" : "private",
     "field_name" : "mVMStart",
     "field_offset" : 128,
     "referenced_type" : "type-23"
    },
    {
     "access" : "private",
     "field_name" : "mThreadCountLock",
     "field_offset" : 192,
     "referenced_type" : "type-376"
    },
    {
     "access" : "private",
     "field_name" : "mThreadCountDecrement",
     "field_offset" : 512,
     "referenced_type" : "type-377"
    },
    {
     "access" : "private",
     "field_name" : "mExecutingThreadsCount",
     "field_offset" : 896,
     "referenced_type" : "type-7"
    },
    {
     "access" : "private",
     "field_name" : "mMaxThreads",
     "field_offset" : 960,
     "referenced_type" : "type-7"
    },
    {
     "access" : "private",
     "field_name" : "mStarvationStartTimeMs",
     "field_offset" : 1024,
     "referenced_type" : "type-100"
    },
    {
     "access" : "private",
     "field_name" : "mLock",
     "field_offset" : 1088,
     "referenced_type" : "type-64"
    },
    {
     "access" : "private",
     "field_name" : "mHandleToObject",
     "field_offset" : 1408,
     "referenced_type" : "type-356"
    },
    {
     "access" : "private",
     "field_name" : "mManagesContexts",
     "field_offset" : 1728,
     "referenced_type" : "type-14"
    },
    {
     "access" : "private",
     "field_name" : "mBinderContextCheckFunc",
     "field_offset" : 1792,
     "referenced_type" : "type-378"
    },
    {
     "access" : "private",
     "field_name" : "mBinderContextUserData",
     "field_offset" : 1856,
     "referenced_type" : "type-23"
    },
    {
     "access" : "private",
     "field_name" : "mContexts",
     "field_offset" : 1920,
     "referenced_type" : "type-363"
    },
    {
     "access" : "private",
     "field_name" : "mRootDir",
     "field_offset" : 2240,
     "referenced_type" : "type-382"
    },
    {
     "access" : "private",
     "field_name" : "mThreadPoolStarted",
     "field_offset" : 2304,
     "referenced_type" : "type-14"
    },
    {
     "access" : "private",
     "field_name" : "mSpawnThreadOnStart",
     "field_offset" : 2312,
     "referenced_type" : "type-14"
    },
    {
     "access" : "private",
     "field_name" : "mThreadPoolSeq",
     "field_offset" : 2336,
     "referenced_type" : "type-278"
    },
    {
     "access" : "private",
     "field_name" : "mMmapSize",
     "field_offset" : 2368,
     "referenced_type" : "type-187"
    },
    {
     "access" : "private",
     "field_name" : "mCallRestriction",
     "field_offset" : 2432,
     "referenced_type" : "type-385"
    }
   ],
   "linker_set_key" : "android::hardware::ProcessState",
   "name" : "android::hardware::ProcessState",
   "record_kind" : "class",
   "referenced_type" : "type-375",
   "self_type" : "type-375",
   "size" : 328,
   "source_file" : "/system/libhwbinder/include/hwbinder/ProcessState.h",
   "unique_id" : "_ZTSN7android8hardware12ProcessStateE",
   "vtable_components" :
   [
    {
     "component_value" : 312,
     "kind" : "vbase_offset"
    },
    {
     "kind" : "offset_to_top"
    },
    {
     "kind" : "rtti",
     "mangled_component_name" : "_ZTIN7android8hardware12ProcessStateE"
    },
    {
     "kind" : "complete_dtor_pointer",
     "mangled_component_name" : "_ZN7android8hardware12ProcessStateD1Ev"
    },
    {
     "kind" : "deleting_dtor_pointer",
     "mangled_component_name" : "_ZN7android8hardware12ProcessStateD0Ev"
    },
    {
     "kind" : "vcall_offset"
    },
    {
     "kind" : "vcall_offset"
    },
    {
     "kind" : "vcall_offset"
    },
    {
     "kind" : "vcall_offset"
    },
    {
     "component_value" : -312,
     "kind" : "vcall_offset"
    },
    {
     "component_value" : -312,
     "kind" : "offset_to_top"
    },
    {
     "kind" : "rtti",
     "mangled_component_name" : "_ZTIN7android8hardware12ProcessStateE"
    },
    {
     "kind" : "complete_dtor_pointer",
     "mangled_component_name" : "_ZTv0_n24_N7android8hardware12ProcessStateD1Ev"
    },
    {
     "kind" : "deleting_dtor_pointer",
     "mangled_component_name" : "_ZTv0_n24_N7android8hardware12ProcessStateD0Ev"
    },
    {
     "mangled_component_name" : "_ZN7android7RefBase10onFirstRefEv"
    },
    {
     "mangled_component_name" : "_ZN7android7RefBase15onLastStrongRefEPKv"
    },
    {
     "mangled_component_name" : "_ZN7android7RefBase20onIncStrongAttemptedEjPKv"
    },
    {
     "mangled_component_name" : "_ZN7android7RefBase13onLastWeakRefEPKv"
    }
   ]
  },
  {
   "access" : "private",
   "alignment" : 8,
   "fields" :
   [
    {
     "field_name" : "binder",
     "referenced_type" : "type-53"
    },
    {
     "field_name" : "refs",
     "field_offset" : 64,
     "referenced_type" : "type-25"
    }
   ],
   "linker_set_key" : "android::hardware::ProcessState::handle_entry",
   "name" : "android::hardware::ProcessState::handle_entry",
   "referenced_type" : "type-326",
   "self_type" : "type-326",
   "size" : 16,
   "source_file" : "/system/libhwbinder/include/hwbinder/ProcessState.h",
   "unique_id" : "_ZTSN7android8hardware12ProcessState12handle_entryE"
  },
  {
   "alignment" : 8,
   "linker_set_key" : "android::hardware::TextOutput",
   "name" : "android::hardware::TextOutput",
   "record_kind" : "class",
   "referenced_type" : "type-448",
   "self_type" : "type-448",
   "size" : 8,
   "source_file" : "/system/libhwbinder/include/hwbinder/TextOutput.h",
   "unique_id" : "_ZTSN7android8hardware10TextOutputE",
   "vtable_components" :
   [
    {
     "kind" : "offset_to_top"
    },
    {
     "kind" : "rtti",
     "mangled_component_name" : "_ZTIN7android8hardware10TextOutputE"
    },
    {
     "kind" : "complete_dtor_pointer",
     "mangled_component_name" : "_ZN7android8hardware10TextOutputD1Ev"
    },
    {
     "kind" : "deleting_dtor_pointer",
     "mangled_component_name" : "_ZN7android8hardware10TextOutputD0Ev"
    },
    {
     "is_pure" : true,
     "mangled_component_name" : "_ZN7android8hardware10TextOutput5printEPKcm"
    },
    {
     "is_pure" : true,
     "mangled_component_name" : "_ZN7android8hardware10TextOutput10moveIndentEi"
    },
    {
     "is_pure" : true,
     "mangled_component_name" : "_ZN7android8hardware10TextOutput10pushBundleEv"
    },
    {
     "is_pure" : true,
     "mangled_component_name" : "_ZN7android8hardware10TextOutput9popBundleEv"
    }
   ]
  },
  {
   "alignment" : 8,
   "fields" :
   [
    {
     "access" : "private",
     "field_name" : "mTO",
     "referenced_type" : "type-587"
    }
   ],
   "linker_set_key" : "android::hardware::TextOutput::Bundle",
   "name" : "android::hardware::TextOutput::Bundle",
   "record_kind" : "class",
   "referenced_type" : "type-586",
   "self_type" : "type-586",
   "size" : 8,
   "source_file" : "/system/libhwbinder/include/hwbinder/TextOutput.h",
   "unique_id" : "_ZTSN7android8hardware10TextOutput6BundleE"
  },
  {
   "alignment" : 4,
   "fields" :
   [
    {
     "access" : "private",
     "field_name" : "mCode",
     "referenced_type" : "type-4"
    }
   ],
   "linker_set_key" : "android::hardware::TypeCode",
   "name" : "android::hardware::TypeCode",
   "record_kind" : "class",
   "referenced_type" : "type-452",
   "self_type" : "type-452",
   "size" : 4,
   "source_file" : "/system/libhwbinder/include/hwbinder/TextOutput.h",
   "unique_id" : "_ZTSN7android8hardware8TypeCodeE"
  },
  {
   "alignment" : 8,
   "fields" :
   [
    {
     "field_name" : "key",
     "referenced_type" : "type-289"
    },
    {
     "field_name" : "value",
     "field_offset" : 64,
     "referenced_type" : "type-71"
    }
   ],
   "linker_set_key" : "android::key_value_pair_t<android::String16, android::sp<android::hardware::IBinder> >",
   "name" : "android::key_value_pair_t<android::String16, android::sp<android::hardware::IBinder> >",
   "referenced_type" : "type-323",
   "self_type" : "type-323",
   "size" : 16,
   "source_file" : "/system/core/libutils/include/utils/TypeHelpers.h",
   "template_args" : [ "type-289", "type-71" ],
   "unique_id" : "_ZTSN7android16key_value_pair_tINS_8String16ENS_2spINS_8hardware7IBinderEEEEE"
  },
  {
   "alignment" : 8,
   "fields" :
   [
    {
     "field_name" : "key",
     "referenced_type" : "type-110"
    },
    {
     "field_name" : "value",
     "field_offset" : 64,
     "referenced_type" : "type-286"
    }
   ],
   "linker_set_key" : "android::key_value_pair_t<const void *, android::hardware::BpHwBinder::ObjectManager::entry_t>",
   "name" : "android::key_value_pair_t<const void *, android::hardware::BpHwBinder::ObjectManager::entry_t>",
   "referenced_type" : "type-487",
   "self_type" : "type-487",
   "size" : 32,
   "source_file" : "/system/core/libutils/include/utils/TypeHelpers.h",
   "template_args" : [ "type-110", "type-286" ],
   "unique_id" : "_ZTSN7android16key_value_pair_tIPKvNS_8hardware10BpHwBinder13ObjectManager7entry_tEEE"
  },
  {
   "alignment" : 8,
   "fields" :
   [
    {
     "access" : "private",
     "field_name" : "m_ptr",
     "referenced_type" : "type-61"
    }
   ],
   "linker_set_key" : "android::sp<android::Thread>",
   "name" : "android::sp<android::Thread>",
   "record_kind" : "class",
   "referenced_type" : "type-60",
   "self_type" : "type-60",
   "size" : 8,
   "source_file" : "/system/core/libutils/include/utils/StrongPointer.h",
   "template_args" : [ "type-62" ],
   "unique_id" : "_ZTSN7android2spINS_6ThreadEEE"
  },
  {
   "alignment" : 8,
   "fields" :
   [
    {
     "access" : "private",
     "field_name" : "m_ptr",
     "referenced_type" : "type-36"
    }
   ],
   "linker_set_key" : "android::sp<android::hardware::BHwBinder>",
   "name" : "android::sp<android::hardware::BHwBinder>",
   "record_kind" : "class",
   "referenced_type" : "type-545",
   "self_type" : "type-545",
   "size" : 8,
   "source_file" : "/system/core/libutils/include/utils/StrongPointer.h",
   "template_args" : [ "type-37" ],
   "unique_id" : "_ZTSN7android2spINS_8hardware9BHwBinderEEE"
  },
  {
   "alignment" : 8,
   "fields" :
   [
    {
     "access" : "private",
     "field_name" : "m_ptr",
     "referenced_type" : "type-582"
    }
   ],
   "linker_set_key" : "android::sp<android::hardware::BufferedTextOutput::BufferState>",
   "name" : "android::sp<android::hardware::BufferedTextOutput::BufferState>",
   "record_kind" : "class",
   "referenced_type" : "type-581",
   "self_type" : "type-581",
   "size" : 8,
   "source_file" : "/system/core/libutils/include/utils/StrongPointer.h",
   "template_args" : [ "type-584" ],
   "unique_id" : "_ZTSN7android2spINS_8hardware18BufferedTextOutput11BufferStateEEE"
  },
  {
   "alignment" : 8,
   "fields" :
   [
    {
     "access" : "private",
     "field_name" : "m_ptr",
     "referenced_type" : "type-83"
    }
   ],
   "linker_set_key" : "android::sp<android::hardware::IBinder::DeathRecipient>",
   "name" : "android::sp<android::hardware::IBinder::DeathRecipient>",
   "record_kind" : "class",
   "referenced_type" : "type-513",
   "self_type" : "type-513",
   "size" : 8,
   "source_file" : "/system/core/libutils/include/utils/StrongPointer.h",
   "template_args" : [ "type-84" ],
   "unique_id" : "_ZTSN7android2spINS_8hardware7IBinder14DeathRecipientEEE"
  },
  {
   "alignment" : 8,
   "fields" :
   [
    {
     "access" : "private",
     "field_name" : "m_ptr",
     "referenced_type" : "type-53"
    }
   ],
   "linker_set_key" : "android::sp<android::hardware::IBinder>",
   "name" : "android::sp<android::hardware::IBinder>",
   "record_kind" : "class",
   "referenced_type" : "type-71",
   "self_type" : "type-71",
   "size" : 8,
   "source_file" : "/system/core/libutils/include/utils/StrongPointer.h",
   "template_args" : [ "type-39" ],
   "unique_id" : "_ZTSN7android2spINS_8hardware7IBinderEEE"
  },
  {
   "alignment" : 8,
   "fields" :
   [
    {
     "access" : "private",
     "field_name" : "m_ptr",
     "referenced_type" : "type-664"
    }
   ],
   "linker_set_key" : "android::sp<android::hardware::IInterface>",
   "name" : "android::sp<android::hardware::IInterface>",
   "record_kind" : "class",
   "referenced_type" : "type-663",
   "self_type" : "type-663",
   "size" : 8,
   "source_file" : "/system/core/libutils/include/utils/StrongPointer.h",
   "template_args" : [ "type-298" ],
   "unique_id" : "_ZTSN7android2spINS_8hardware10IInterfaceEEE"
  },
  {
   "alignment" : 8,
   "fields" :
   [
    {
     "access" : "private",
     "field_name" : "m_ptr",
     "referenced_type" : "type-374"
    }
   ],
   "linker_set_key" : "android::sp<android::hardware::ProcessState>",
   "name" : "android::sp<android::hardware::ProcessState>",
   "record_kind" : "class",
   "referenced_type" : "type-373",
   "self_type" : "type-373",
   "size" : 8,
   "source_file" : "/system/core/libutils/include/utils/StrongPointer.h",
   "template_args" : [ "type-375" ],
   "unique_id" : "_ZTSN7android2spINS_8hardware12ProcessStateEEE"
  },
  {
   "alignment" : 1,
   "linker_set_key" : "android::trait_pointer<android::RefBase *>",
   "name" : "android::trait_pointer<android::RefBase *>",
   "referenced_type" : "type-44",
   "self_type" : "type-44",
   "size" : 1,
   "source_file" : "/system/core/libutils/include/utils/TypeHelpers.h",
   "template_args" : [ "type-30" ],
   "unique_id" : "_ZTSN7android13trait_pointerIPNS_7RefBaseEEE"
  },
  {
   "alignment" : 1,
   "linker_set_key" : "android::trait_pointer<android::RefBase::weakref_type *>",
   "name" : "android::trait_pointer<android::RefBase::weakref_type *>",
   "referenced_type" : "type-43",
   "self_type" : "type-43",
   "size" : 1,
   "source_file" : "/system/core/libutils/include/utils/TypeHelpers.h",
   "template_args" : [ "type-25" ],
   "unique_id" : "_ZTSN7android13trait_pointerIPNS_7RefBase12weakref_typeEEE"
  },
  {
   "alignment" : 1,
   "linker_set_key" : "android::trait_pointer<android::String16>",
   "name" : "android::trait_pointer<android::String16>",
   "referenced_type" : "type-414",
   "self_type" : "type-414",
   "size" : 1,
   "source_file" : "/system/core/libutils/include/utils/TypeHelpers.h",
   "template_args" : [ "type-289" ],
   "unique_id" : "_ZTSN7android13trait_pointerINS_8String16EEE"
  },
  {
   "alignment" : 1,
   "linker_set_key" : "android::trait_pointer<android::hardware::BHwBinder *>",
   "name" : "android::trait_pointer<android::hardware::BHwBinder *>",
   "referenced_type" : "type-42",
   "self_type" : "type-42",
   "size" : 1,
   "source_file" : "/system/core/libutils/include/utils/TypeHelpers.h",
   "template_args" : [ "type-36" ],
   "unique_id" : "_ZTSN7android13trait_pointerIPNS_8hardware9BHwBinderEEE"
  },
  {
   "alignment" : 1,
   "linker_set_key" : "android::trait_pointer<android::hardware::BpHwBinder::Obituary>",
   "name" : "android::trait_pointer<android::hardware::BpHwBinder::Obituary>",
   "referenced_type" : "type-573",
   "self_type" : "type-573",
   "size" : 1,
   "source_file" : "/system/core/libutils/include/utils/TypeHelpers.h",
   "template_args" : [ "type-294" ],
   "unique_id" : "_ZTSN7android13trait_pointerINS_8hardware10BpHwBinder8ObituaryEEE"
  },
  {
   "alignment" : 1,
   "linker_set_key" : "android::trait_pointer<android::hardware::BpHwBinder::ObjectManager::entry_t>",
   "name" : "android::trait_pointer<android::hardware::BpHwBinder::ObjectManager::entry_t>",
   "referenced_type" : "type-572",
   "self_type" : "type-572",
   "size" : 1,
   "source_file" : "/system/core/libutils/include/utils/TypeHelpers.h",
   "template_args" : [ "type-286" ],
   "unique_id" : "_ZTSN7android13trait_pointerINS_8hardware10BpHwBinder13ObjectManager7entry_tEEE"
  },
  {
   "alignment" : 1,
   "linker_set_key" : "android::trait_pointer<android::hardware::ProcessState::handle_entry>",
   "name" : "android::trait_pointer<android::hardware::ProcessState::handle_entry>",
   "referenced_type" : "type-412",
   "self_type" : "type-412",
   "size" : 1,
   "source_file" : "/system/core/libutils/include/utils/TypeHelpers.h",
   "template_args" : [ "type-326" ],
   "unique_id" : "_ZTSN7android13trait_pointerINS_8hardware12ProcessState12handle_entryEEE"
  },
  {
   "alignment" : 1,
   "linker_set_key" : "android::trait_pointer<android::key_value_pair_t<android::String16, android::sp<android::hardware::IBinder> > >",
   "name" : "android::trait_pointer<android::key_value_pair_t<android::String16, android::sp<android::hardware::IBinder> > >",
   "referenced_type" : "type-413",
   "self_type" : "type-413",
   "size" : 1,
   "source_file" : "/system/core/libutils/include/utils/TypeHelpers.h",
   "template_args" : [ "type-323" ],
   "unique_id" : "_ZTSN7android13trait_pointerINS_16key_value_pair_tINS_8String16ENS_2spINS_8hardware7IBinderEEEEEEE"
  },
  {
   "alignment" : 1,
   "linker_set_key" : "android::trait_pointer<android::key_value_pair_t<const void *, android::hardware::BpHwBinder::ObjectManager::entry_t> >",
   "name" : "android::trait_pointer<android::key_value_pair_t<const void *, android::hardware::BpHwBinder::ObjectManager::entry_t> >",
   "referenced_type" : "type-570",
   "self_type" : "type-570",
   "size" : 1,
   "source_file" : "/system/core/libutils/include/utils/TypeHelpers.h",
   "template_args" : [ "type-487" ],
   "unique_id" : "_ZTSN7android13trait_pointerINS_16key_value_pair_tIPKvNS_8hardware10BpHwBinder13ObjectManager7entry_tEEEEE"
  },
  {
   "alignment" : 1,
   "linker_set_key" : "android::trait_pointer<android::sp<android::hardware::BufferedTextOutput::BufferState> >",
   "name" : "android::trait_pointer<android::sp<android::hardware::BufferedTextOutput::BufferState> >",
   "referenced_type" : "type-640",
   "self_type" : "type-640",
   "size" : 1,
   "source_file" : "/system/core/libutils/include/utils/TypeHelpers.h",
   "template_args" : [ "type-581" ],
   "unique_id" : "_ZTSN7android13trait_pointerINS_2spINS_8hardware18BufferedTextOutput11BufferStateEEEEE"
  },
  {
   "alignment" : 1,
   "linker_set_key" : "android::trait_pointer<android::sp<android::hardware::IBinder> >",
   "name" : "android::trait_pointer<android::sp<android::hardware::IBinder> >",
   "referenced_type" : "type-415",
   "self_type" : "type-415",
   "size" : 1,
   "source_file" : "/system/core/libutils/include/utils/TypeHelpers.h",
   "template_args" : [ "type-71" ],
   "unique_id" : "_ZTSN7android13trait_pointerINS_2spINS_8hardware7IBinderEEEEE"
  },
  {
   "alignment" : 1,
   "linker_set_key" : "android::trait_pointer<const void *>",
   "name" : "android::trait_pointer<const void *>",
   "referenced_type" : "type-571",
   "self_type" : "type-571",
   "size" : 1,
   "source_file" : "/system/core/libutils/include/utils/TypeHelpers.h",
   "template_args" : [ "type-110" ],
   "unique_id" : "_ZTSN7android13trait_pointerIPKvEE"
  },
  {
   "alignment" : 1,
   "linker_set_key" : "android::trait_pointer<int>",
   "name" : "android::trait_pointer<int>",
   "referenced_type" : "type-444",
   "self_type" : "type-444",
   "size" : 1,
   "source_file" : "/system/core/libutils/include/utils/TypeHelpers.h",
   "template_args" : [ "type-9" ],
   "unique_id" : "_ZTSN7android13trait_pointerIiEE"
  },
  {
   "alignment" : 1,
   "linker_set_key" : "android::trait_trivial_copy<android::RefBase *>",
   "name" : "android::trait_trivial_copy<android::RefBase *>",
   "referenced_type" : "type-29",
   "self_type" : "type-29",
   "size" : 1,
   "source_file" : "/system/core/libutils/include/utils/TypeHelpers.h",
   "template_args" : [ "type-30" ],
   "unique_id" : "_ZTSN7android18trait_trivial_copyIPNS_7RefBaseEEE"
  },
  {
   "alignment" : 1,
   "linker_set_key" : "android::trait_trivial_copy<android::RefBase::weakref_type *>",
   "name" : "android::trait_trivial_copy<android::RefBase::weakref_type *>",
   "referenced_type" : "type-24",
   "self_type" : "type-24",
   "size" : 1,
   "source_file" : "/system/core/libutils/include/utils/TypeHelpers.h",
   "template_args" : [ "type-25" ],
   "unique_id" : "_ZTSN7android18trait_trivial_copyIPNS_7RefBase12weakref_typeEEE"
  },
  {
   "alignment" : 1,
   "linker_set_key" : "android::trait_trivial_copy<android::String16>",
   "name" : "android::trait_trivial_copy<android::String16>",
   "referenced_type" : "type-405",
   "self_type" : "type-405",
   "size" : 1,
   "source_file" : "/system/core/libutils/include/utils/TypeHelpers.h",
   "template_args" : [ "type-289" ],
   "unique_id" : "_ZTSN7android18trait_trivial_copyINS_8String16EEE"
  },
  {
   "alignment" : 1,
   "linker_set_key" : "android::trait_trivial_copy<android::hardware::BHwBinder *>",
   "name" : "android::trait_trivial_copy<android::hardware::BHwBinder *>",
   "referenced_type" : "type-807",
   "self_type" : "type-807",
   "size" : 1,
   "source_file" : "/system/core/libutils/include/utils/TypeHelpers.h",
   "template_args" : [ "type-36" ],
   "unique_id" : "_ZTSN7android18trait_trivial_copyIPNS_8hardware9BHwBinderEEE"
  },
  {
   "alignment" : 1,
   "linker_set_key" : "android::trait_trivial_copy<android::hardware::BpHwBinder::Obituary>",
   "name" : "android::trait_trivial_copy<android::hardware::BpHwBinder::Obituary>",
   "referenced_type" : "type-564",
   "self_type" : "type-564",
   "size" : 1,
   "source_file" : "/system/core/libutils/include/utils/TypeHelpers.h",
   "template_args" : [ "type-294" ],
   "unique_id" : "_ZTSN7android18trait_trivial_copyINS_8hardware10BpHwBinder8ObituaryEEE"
  },
  {
   "alignment" : 1,
   "linker_set_key" : "android::trait_trivial_copy<android::hardware::BpHwBinder::ObjectManager::entry_t>",
   "name" : "android::trait_trivial_copy<android::hardware::BpHwBinder::ObjectManager::entry_t>",
   "referenced_type" : "type-562",
   "self_type" : "type-562",
   "size" : 1,
   "source_file" : "/system/core/libutils/include/utils/TypeHelpers.h",
   "template_args" : [ "type-286" ],
   "unique_id" : "_ZTSN7android18trait_trivial_copyINS_8hardware10BpHwBinder13ObjectManager7entry_tEEE"
  },
  {
   "alignment" : 1,
   "linker_set_key" : "android::trait_trivial_copy<android::hardware::ProcessState::handle_entry>",
   "name" : "android::trait_trivial_copy<android::hardware::ProcessState::handle_entry>",
   "referenced_type" : "type-404",
   "self_type" : "type-404",
   "size" : 1,
   "source_file" : "/system/core/libutils/include/utils/TypeHelpers.h",
   "template_args" : [ "type-326" ],
   "unique_id" : "_ZTSN7android18trait_trivial_copyINS_8hardware12ProcessState12handle_entryEEE"
  },
  {
   "alignment" : 1,
   "linker_set_key" : "android::trait_trivial_copy<android::key_value_pair_t<android::String16, android::sp<android::hardware::IBinder> > >",
   "name" : "android::trait_trivial_copy<android::key_value_pair_t<android::String16, android::sp<android::hardware::IBinder> > >",
   "referenced_type" : "type-407",
   "self_type" : "type-407",
   "size" : 1,
   "source_file" : "/system/core/libutils/include/utils/TypeHelpers.h",
   "template_args" : [ "type-323" ],
   "unique_id" : "_ZTSN7android18trait_trivial_copyINS_16key_value_pair_tINS_8String16ENS_2spINS_8hardware7IBinderEEEEEEE"
  },
  {
   "alignment" : 1,
   "linker_set_key" : "android::trait_trivial_copy<android::key_value_pair_t<const void *, android::hardware::BpHwBinder::ObjectManager::entry_t> >",
   "name" : "android::trait_trivial_copy<android::key_value_pair_t<const void *, android::hardware::BpHwBinder::ObjectManager::entry_t> >",
   "referenced_type" : "type-563",
   "self_type" : "type-563",
   "size" : 1,
   "source_file" : "/system/core/libutils/include/utils/TypeHelpers.h",
   "template_args" : [ "type-487" ],
   "unique_id" : "_ZTSN7android18trait_trivial_copyINS_16key_value_pair_tIPKvNS_8hardware10BpHwBinder13ObjectManager7entry_tEEEEE"
  },
  {
   "alignment" : 1,
   "linker_set_key" : "android::trait_trivial_copy<android::sp<android::hardware::BufferedTextOutput::BufferState> >",
   "name" : "android::trait_trivial_copy<android::sp<android::hardware::BufferedTextOutput::BufferState> >",
   "referenced_type" : "type-637",
   "self_type" : "type-637",
   "size" : 1,
   "source_file" : "/system/core/libutils/include/utils/TypeHelpers.h",
   "template_args" : [ "type-581" ],
   "unique_id" : "_ZTSN7android18trait_trivial_copyINS_2spINS_8hardware18BufferedTextOutput11BufferStateEEEEE"
  },
  {
   "alignment" : 1,
   "linker_set_key" : "android::trait_trivial_copy<android::sp<android::hardware::IBinder> >",
   "name" : "android::trait_trivial_copy<android::sp<android::hardware::IBinder> >",
   "referenced_type" : "type-406",
   "self_type" : "type-406",
   "size" : 1,
   "source_file" : "/system/core/libutils/include/utils/TypeHelpers.h",
   "template_args" : [ "type-71" ],
   "unique_id" : "_ZTSN7android18trait_trivial_copyINS_2spINS_8hardware7IBinderEEEEE"
  },
  {
   "alignment" : 1,
   "linker_set_key" : "android::trait_trivial_copy<bool>",
   "name" : "android::trait_trivial_copy<bool>",
   "referenced_type" : "type-305",
   "self_type" : "type-305",
   "size" : 1,
   "source_file" : "/system/core/libutils/include/utils/TypeHelpers.h",
   "template_args" : [ "type-14" ],
   "unique_id" : "_ZTSN7android18trait_trivial_copyIbEE"
  },
  {
   "alignment" : 1,
   "linker_set_key" : "android::trait_trivial_copy<char>",
   "name" : "android::trait_trivial_copy<char>",
   "referenced_type" : "type-331",
   "self_type" : "type-331",
   "size" : 1,
   "source_file" : "/system/core/libutils/include/utils/TypeHelpers.h",
   "template_args" : [ "type-120" ],
   "unique_id" : "_ZTSN7android18trait_trivial_copyIcEE"
  },
  {
   "alignment" : 1,
   "linker_set_key" : "android::trait_trivial_copy<const void *>",
   "name" : "android::trait_trivial_copy<const void *>",
   "referenced_type" : "type-561",
   "self_type" : "type-561",
   "size" : 1,
   "source_file" : "/system/core/libutils/include/utils/TypeHelpers.h",
   "template_args" : [ "type-110" ],
   "unique_id" : "_ZTSN7android18trait_trivial_copyIPKvEE"
  },
  {
   "alignment" : 1,
   "linker_set_key" : "android::trait_trivial_copy<double>",
   "name" : "android::trait_trivial_copy<double>",
   "referenced_type" : "type-475",
   "self_type" : "type-475",
   "size" : 1,
   "source_file" : "/system/core/libutils/include/utils/TypeHelpers.h",
   "template_args" : [ "type-104" ],
   "unique_id" : "_ZTSN7android18trait_trivial_copyIdEE"
  },
  {
   "alignment" : 1,
   "linker_set_key" : "android::trait_trivial_copy<float>",
   "name" : "android::trait_trivial_copy<float>",
   "referenced_type" : "type-471",
   "self_type" : "type-471",
   "size" : 1,
   "source_file" : "/system/core/libutils/include/utils/TypeHelpers.h",
   "template_args" : [ "type-102" ],
   "unique_id" : "_ZTSN7android18trait_trivial_copyIfEE"
  },
  {
   "alignment" : 1,
   "linker_set_key" : "android::trait_trivial_copy<int>",
   "name" : "android::trait_trivial_copy<int>",
   "referenced_type" : "type-425",
   "self_type" : "type-425",
   "size" : 1,
   "source_file" : "/system/core/libutils/include/utils/TypeHelpers.h",
   "template_args" : [ "type-9" ],
   "unique_id" : "_ZTSN7android18trait_trivial_copyIiEE"
  },
  {
   "alignment" : 1,
   "linker_set_key" : "android::trait_trivial_copy<long long>",
   "name" : "android::trait_trivial_copy<long long>",
   "referenced_type" : "type-463",
   "self_type" : "type-463",
   "size" : 1,
   "source_file" : "/system/core/libutils/include/utils/TypeHelpers.h",
   "template_args" : [ "type-461" ],
   "unique_id" : "_ZTSN7android18trait_trivial_copyIxEE"
  },
  {
   "alignment" : 1,
   "linker_set_key" : "android::trait_trivial_copy<long>",
   "name" : "android::trait_trivial_copy<long>",
   "referenced_type" : "type-440",
   "self_type" : "type-440",
   "size" : 1,
   "source_file" : "/system/core/libutils/include/utils/TypeHelpers.h",
   "template_args" : [ "type-100" ],
   "unique_id" : "_ZTSN7android18trait_trivial_copyIlEE"
  },
  {
   "alignment" : 1,
   "linker_set_key" : "android::trait_trivial_copy<short>",
   "name" : "android::trait_trivial_copy<short>",
   "referenced_type" : "type-368",
   "self_type" : "type-368",
   "size" : 1,
   "source_file" : "/system/core/libutils/include/utils/TypeHelpers.h",
   "template_args" : [ "type-95" ],
   "unique_id" : "_ZTSN7android18trait_trivial_copyIsEE"
  },
  {
   "alignment" : 1,
   "linker_set_key" : "android::trait_trivial_copy<unsigned char>",
   "name" : "android::trait_trivial_copy<unsigned char>",
   "referenced_type" : "type-344",
   "self_type" : "type-344",
   "size" : 1,
   "source_file" : "/system/core/libutils/include/utils/TypeHelpers.h",
   "template_args" : [ "type-11" ],
   "unique_id" : "_ZTSN7android18trait_trivial_copyIhEE"
  },
  {
   "alignment" : 1,
   "linker_set_key" : "android::trait_trivial_copy<unsigned int>",
   "name" : "android::trait_trivial_copy<unsigned int>",
   "referenced_type" : "type-432",
   "self_type" : "type-432",
   "size" : 1,
   "source_file" : "/system/core/libutils/include/utils/TypeHelpers.h",
   "template_args" : [ "type-4" ],
   "unique_id" : "_ZTSN7android18trait_trivial_copyIjEE"
  },
  {
   "alignment" : 1,
   "linker_set_key" : "android::trait_trivial_copy<unsigned long long>",
   "name" : "android::trait_trivial_copy<unsigned long long>",
   "referenced_type" : "type-467",
   "self_type" : "type-467",
   "size" : 1,
   "source_file" : "/system/core/libutils/include/utils/TypeHelpers.h",
   "template_args" : [ "type-13" ],
   "unique_id" : "_ZTSN7android18trait_trivial_copyIyEE"
  },
  {
   "alignment" : 1,
   "linker_set_key" : "android::trait_trivial_copy<unsigned long>",
   "name" : "android::trait_trivial_copy<unsigned long>",
   "referenced_type" : "type-456",
   "self_type" : "type-456",
   "size" : 1,
   "source_file" : "/system/core/libutils/include/utils/TypeHelpers.h",
   "template_args" : [ "type-7" ],
   "unique_id" : "_ZTSN7android18trait_trivial_copyImEE"
  },
  {
   "alignment" : 1,
   "linker_set_key" : "android::trait_trivial_copy<unsigned short>",
   "name" : "android::trait_trivial_copy<unsigned short>",
   "referenced_type" : "type-394",
   "self_type" : "type-394",
   "size" : 1,
   "source_file" : "/system/core/libutils/include/utils/TypeHelpers.h",
   "template_args" : [ "type-97" ],
   "unique_id" : "_ZTSN7android18trait_trivial_copyItEE"
  },
  {
   "alignment" : 1,
   "linker_set_key" : "android::trait_trivial_copy<void>",
   "name" : "android::trait_trivial_copy<void>",
   "referenced_type" : "type-215",
   "self_type" : "type-215",
   "size" : 1,
   "source_file" : "/system/core/libutils/include/utils/TypeHelpers.h",
   "template_args" : [ "type-17" ],
   "unique_id" : "_ZTSN7android18trait_trivial_copyIvEE"
  },
  {
   "alignment" : 1,
   "linker_set_key" : "android::trait_trivial_ctor<android::RefBase *>",
   "name" : "android::trait_trivial_ctor<android::RefBase *>",
   "referenced_type" : "type-752",
   "self_type" : "type-752",
   "size" : 1,
   "source_file" : "/system/core/libutils/include/utils/TypeHelpers.h",
   "template_args" : [ "type-30" ],
   "unique_id" : "_ZTSN7android18trait_trivial_ctorIPNS_7RefBaseEEE"
  },
  {
   "alignment" : 1,
   "linker_set_key" : "android::trait_trivial_ctor<android::RefBase::weakref_type *>",
   "name" : "android::trait_trivial_ctor<android::RefBase::weakref_type *>",
   "referenced_type" : "type-741",
   "self_type" : "type-741",
   "size" : 1,
   "source_file" : "/system/core/libutils/include/utils/TypeHelpers.h",
   "template_args" : [ "type-25" ],
   "unique_id" : "_ZTSN7android18trait_trivial_ctorIPNS_7RefBase12weakref_typeEEE"
  },
  {
   "alignment" : 1,
   "linker_set_key" : "android::trait_trivial_ctor<android::String16>",
   "name" : "android::trait_trivial_ctor<android::String16>",
   "referenced_type" : "type-397",
   "self_type" : "type-397",
   "size" : 1,
   "source_file" : "/system/core/libutils/include/utils/TypeHelpers.h",
   "template_args" : [ "type-289" ],
   "unique_id" : "_ZTSN7android18trait_trivial_ctorINS_8String16EEE"
  },
  {
   "alignment" : 1,
   "linker_set_key" : "android::trait_trivial_ctor<android::hardware::BHwBinder *>",
   "name" : "android::trait_trivial_ctor<android::hardware::BHwBinder *>",
   "referenced_type" : "type-730",
   "self_type" : "type-730",
   "size" : 1,
   "source_file" : "/system/core/libutils/include/utils/TypeHelpers.h",
   "template_args" : [ "type-36" ],
   "unique_id" : "_ZTSN7android18trait_trivial_ctorIPNS_8hardware9BHwBinderEEE"
  },
  {
   "alignment" : 1,
   "linker_set_key" : "android::trait_trivial_ctor<android::hardware::BpHwBinder::Obituary>",
   "name" : "android::trait_trivial_ctor<android::hardware::BpHwBinder::Obituary>",
   "referenced_type" : "type-556",
   "self_type" : "type-556",
   "size" : 1,
   "source_file" : "/system/core/libutils/include/utils/TypeHelpers.h",
   "template_args" : [ "type-294" ],
   "unique_id" : "_ZTSN7android18trait_trivial_ctorINS_8hardware10BpHwBinder8ObituaryEEE"
  },
  {
   "alignment" : 1,
   "linker_set_key" : "android::trait_trivial_ctor<android::hardware::BpHwBinder::ObjectManager::entry_t>",
   "name" : "android::trait_trivial_ctor<android::hardware::BpHwBinder::ObjectManager::entry_t>",
   "referenced_type" : "type-554",
   "self_type" : "type-554",
   "size" : 1,
   "source_file" : "/system/core/libutils/include/utils/TypeHelpers.h",
   "template_args" : [ "type-286" ],
   "unique_id" : "_ZTSN7android18trait_trivial_ctorINS_8hardware10BpHwBinder13ObjectManager7entry_tEEE"
  },
  {
   "alignment" : 1,
   "linker_set_key" : "android::trait_trivial_ctor<android::hardware::ProcessState::handle_entry>",
   "name" : "android::trait_trivial_ctor<android::hardware::ProcessState::handle_entry>",
   "referenced_type" : "type-395",
   "self_type" : "type-395",
   "size" : 1,
   "source_file" : "/system/core/libutils/include/utils/TypeHelpers.h",
   "template_args" : [ "type-326" ],
   "unique_id" : "_ZTSN7android18trait_trivial_ctorINS_8hardware12ProcessState12handle_entryEEE"
  },
  {
   "alignment" : 1,
   "linker_set_key" : "android::trait_trivial_ctor<android::key_value_pair_t<android::String16, android::sp<android::hardware::IBinder> > >",
   "name" : "android::trait_trivial_ctor<android::key_value_pair_t<android::String16, android::sp<android::hardware::IBinder> > >",
   "referenced_type" : "type-396",
   "self_type" : "type-396",
   "size" : 1,
   "source_file" : "/system/core/libutils/include/utils/TypeHelpers.h",
   "template_args" : [ "type-323" ],
   "unique_id" : "_ZTSN7android18trait_trivial_ctorINS_16key_value_pair_tINS_8String16ENS_2spINS_8hardware7IBinderEEEEEEE"
  },
  {
   "alignment" : 1,
   "linker_set_key" : "android::trait_trivial_ctor<android::key_value_pair_t<const void *, android::hardware::BpHwBinder::ObjectManager::entry_t> >",
   "name" : "android::trait_trivial_ctor<android::key_value_pair_t<const void *, android::hardware::BpHwBinder::ObjectManager::entry_t> >",
   "referenced_type" : "type-552",
   "self_type" : "type-552",
   "size" : 1,
   "source_file" : "/system/core/libutils/include/utils/TypeHelpers.h",
   "template_args" : [ "type-487" ],
   "unique_id" : "_ZTSN7android18trait_trivial_ctorINS_16key_value_pair_tIPKvNS_8hardware10BpHwBinder13ObjectManager7entry_tEEEEE"
  },
  {
   "alignment" : 1,
   "linker_set_key" : "android::trait_trivial_ctor<android::sp<android::hardware::BufferedTextOutput::BufferState> >",
   "name" : "android::trait_trivial_ctor<android::sp<android::hardware::BufferedTextOutput::BufferState> >",
   "referenced_type" : "type-580",
   "self_type" : "type-580",
   "size" : 1,
   "source_file" : "/system/core/libutils/include/utils/TypeHelpers.h",
   "template_args" : [ "type-581" ],
   "unique_id" : "_ZTSN7android18trait_trivial_ctorINS_2spINS_8hardware18BufferedTextOutput11BufferStateEEEEE"
  },
  {
   "alignment" : 1,
   "linker_set_key" : "android::trait_trivial_ctor<android::sp<android::hardware::IBinder> >",
   "name" : "android::trait_trivial_ctor<android::sp<android::hardware::IBinder> >",
   "referenced_type" : "type-398",
   "self_type" : "type-398",
   "size" : 1,
   "source_file" : "/system/core/libutils/include/utils/TypeHelpers.h",
   "template_args" : [ "type-71" ],
   "unique_id" : "_ZTSN7android18trait_trivial_ctorINS_2spINS_8hardware7IBinderEEEEE"
  },
  {
   "alignment" : 1,
   "linker_set_key" : "android::trait_trivial_ctor<bool>",
   "name" : "android::trait_trivial_ctor<bool>",
   "referenced_type" : "type-247",
   "self_type" : "type-247",
   "size" : 1,
   "source_file" : "/system/core/libutils/include/utils/TypeHelpers.h",
   "template_args" : [ "type-14" ],
   "unique_id" : "_ZTSN7android18trait_trivial_ctorIbEE"
  },
  {
   "alignment" : 1,
   "linker_set_key" : "android::trait_trivial_ctor<char>",
   "name" : "android::trait_trivial_ctor<char>",
   "referenced_type" : "type-318",
   "self_type" : "type-318",
   "size" : 1,
   "source_file" : "/system/core/libutils/include/utils/TypeHelpers.h",
   "template_args" : [ "type-120" ],
   "unique_id" : "_ZTSN7android18trait_trivial_ctorIcEE"
  },
  {
   "alignment" : 1,
   "linker_set_key" : "android::trait_trivial_ctor<const void *>",
   "name" : "android::trait_trivial_ctor<const void *>",
   "referenced_type" : "type-553",
   "self_type" : "type-553",
   "size" : 1,
   "source_file" : "/system/core/libutils/include/utils/TypeHelpers.h",
   "template_args" : [ "type-110" ],
   "unique_id" : "_ZTSN7android18trait_trivial_ctorIPKvEE"
  },
  {
   "alignment" : 1,
   "linker_set_key" : "android::trait_trivial_ctor<double>",
   "name" : "android::trait_trivial_ctor<double>",
   "referenced_type" : "type-473",
   "self_type" : "type-473",
   "size" : 1,
   "source_file" : "/system/core/libutils/include/utils/TypeHelpers.h",
   "template_args" : [ "type-104" ],
   "unique_id" : "_ZTSN7android18trait_trivial_ctorIdEE"
  },
  {
   "alignment" : 1,
   "linker_set_key" : "android::trait_trivial_ctor<float>",
   "name" : "android::trait_trivial_ctor<float>",
   "referenced_type" : "type-469",
   "self_type" : "type-469",
   "size" : 1,
   "source_file" : "/system/core/libutils/include/utils/TypeHelpers.h",
   "template_args" : [ "type-102" ],
   "unique_id" : "_ZTSN7android18trait_trivial_ctorIfEE"
  },
  {
   "alignment" : 1,
   "linker_set_key" : "android::trait_trivial_ctor<int>",
   "name" : "android::trait_trivial_ctor<int>",
   "referenced_type" : "type-411",
   "self_type" : "type-411",
   "size" : 1,
   "source_file" : "/system/core/libutils/include/utils/TypeHelpers.h",
   "template_args" : [ "type-9" ],
   "unique_id" : "_ZTSN7android18trait_trivial_ctorIiEE"
  },
  {
   "alignment" : 1,
   "linker_set_key" : "android::trait_trivial_ctor<long long>",
   "name" : "android::trait_trivial_ctor<long long>",
   "referenced_type" : "type-460",
   "self_type" : "type-460",
   "size" : 1,
   "source_file" : "/system/core/libutils/include/utils/TypeHelpers.h",
   "template_args" : [ "type-461" ],
   "unique_id" : "_ZTSN7android18trait_trivial_ctorIxEE"
  },
  {
   "alignment" : 1,
   "linker_set_key" : "android::trait_trivial_ctor<long>",
   "name" : "android::trait_trivial_ctor<long>",
   "referenced_type" : "type-434",
   "self_type" : "type-434",
   "size" : 1,
   "source_file" : "/system/core/libutils/include/utils/TypeHelpers.h",
   "template_args" : [ "type-100" ],
   "unique_id" : "_ZTSN7android18trait_trivial_ctorIlEE"
  },
  {
   "alignment" : 1,
   "linker_set_key" : "android::trait_trivial_ctor<short>",
   "name" : "android::trait_trivial_ctor<short>",
   "referenced_type" : "type-347",
   "self_type" : "type-347",
   "size" : 1,
   "source_file" : "/system/core/libutils/include/utils/TypeHelpers.h",
   "template_args" : [ "type-95" ],
   "unique_id" : "_ZTSN7android18trait_trivial_ctorIsEE"
  },
  {
   "alignment" : 1,
   "linker_set_key" : "android::trait_trivial_ctor<unsigned char>",
   "name" : "android::trait_trivial_ctor<unsigned char>",
   "referenced_type" : "type-339",
   "self_type" : "type-339",
   "size" : 1,
   "source_file" : "/system/core/libutils/include/utils/TypeHelpers.h",
   "template_args" : [ "type-11" ],
   "unique_id" : "_ZTSN7android18trait_trivial_ctorIhEE"
  },
  {
   "alignment" : 1,
   "linker_set_key" : "android::trait_trivial_ctor<unsigned int>",
   "name" : "android::trait_trivial_ctor<unsigned int>",
   "referenced_type" : "type-430",
   "self_type" : "type-430",
   "size" : 1,
   "source_file" : "/system/core/libutils/include/utils/TypeHelpers.h",
   "template_args" : [ "type-4" ],
   "unique_id" : "_ZTSN7android18trait_trivial_ctorIjEE"
  },
  {
   "alignment" : 1,
   "linker_set_key" : "android::trait_trivial_ctor<unsigned long long>",
   "name" : "android::trait_trivial_ctor<unsigned long long>",
   "referenced_type" : "type-465",
   "self_type" : "type-465",
   "size" : 1,
   "source_file" : "/system/core/libutils/include/utils/TypeHelpers.h",
   "template_args" : [ "type-13" ],
   "unique_id" : "_ZTSN7android18trait_trivial_ctorIyEE"
  },
  {
   "alignment" : 1,
   "linker_set_key" : "android::trait_trivial_ctor<unsigned long>",
   "name" : "android::trait_trivial_ctor<unsigned long>",
   "referenced_type" : "type-446",
   "self_type" : "type-446",
   "size" : 1,
   "source_file" : "/system/core/libutils/include/utils/TypeHelpers.h",
   "template_args" : [ "type-7" ],
   "unique_id" : "_ZTSN7android18trait_trivial_ctorImEE"
  },
  {
   "alignment" : 1,
   "linker_set_key" : "android::trait_trivial_ctor<unsigned short>",
   "name" : "android::trait_trivial_ctor<unsigned short>",
   "referenced_type" : "type-386",
   "self_type" : "type-386",
   "size" : 1,
   "source_file" : "/system/core/libutils/include/utils/TypeHelpers.h",
   "template_args" : [ "type-97" ],
   "unique_id" : "_ZTSN7android18trait_trivial_ctorItEE"
  },
  {
   "alignment" : 1,
   "linker_set_key" : "android::trait_trivial_ctor<void>",
   "name" : "android::trait_trivial_ctor<void>",
   "referenced_type" : "type-183",
   "self_type" : "type-183",
   "size" : 1,
   "source_file" : "/system/core/libutils/include/utils/TypeHelpers.h",
   "template_args" : [ "type-17" ],
   "unique_id" : "_ZTSN7android18trait_trivial_ctorIvEE"
  },
  {
   "alignment" : 1,
   "linker_set_key" : "android::trait_trivial_dtor<android::RefBase *>",
   "name" : "android::trait_trivial_dtor<android::RefBase *>",
   "referenced_type" : "type-805",
   "self_type" : "type-805",
   "size" : 1,
   "source_file" : "/system/core/libutils/include/utils/TypeHelpers.h",
   "template_args" : [ "type-30" ],
   "unique_id" : "_ZTSN7android18trait_trivial_dtorIPNS_7RefBaseEEE"
  },
  {
   "alignment" : 1,
   "linker_set_key" : "android::trait_trivial_dtor<android::RefBase::weakref_type *>",
   "name" : "android::trait_trivial_dtor<android::RefBase::weakref_type *>",
   "referenced_type" : "type-795",
   "self_type" : "type-795",
   "size" : 1,
   "source_file" : "/system/core/libutils/include/utils/TypeHelpers.h",
   "template_args" : [ "type-25" ],
   "unique_id" : "_ZTSN7android18trait_trivial_dtorIPNS_7RefBase12weakref_typeEEE"
  },
  {
   "alignment" : 1,
   "linker_set_key" : "android::trait_trivial_dtor<android::String16>",
   "name" : "android::trait_trivial_dtor<android::String16>",
   "referenced_type" : "type-401",
   "self_type" : "type-401",
   "size" : 1,
   "source_file" : "/system/core/libutils/include/utils/TypeHelpers.h",
   "template_args" : [ "type-289" ],
   "unique_id" : "_ZTSN7android18trait_trivial_dtorINS_8String16EEE"
  },
  {
   "alignment" : 1,
   "linker_set_key" : "android::trait_trivial_dtor<android::hardware::BHwBinder *>",
   "name" : "android::trait_trivial_dtor<android::hardware::BHwBinder *>",
   "referenced_type" : "type-783",
   "self_type" : "type-783",
   "size" : 1,
   "source_file" : "/system/core/libutils/include/utils/TypeHelpers.h",
   "template_args" : [ "type-36" ],
   "unique_id" : "_ZTSN7android18trait_trivial_dtorIPNS_8hardware9BHwBinderEEE"
  },
  {
   "alignment" : 1,
   "linker_set_key" : "android::trait_trivial_dtor<android::hardware::BpHwBinder::Obituary>",
   "name" : "android::trait_trivial_dtor<android::hardware::BpHwBinder::Obituary>",
   "referenced_type" : "type-560",
   "self_type" : "type-560",
   "size" : 1,
   "source_file" : "/system/core/libutils/include/utils/TypeHelpers.h",
   "template_args" : [ "type-294" ],
   "unique_id" : "_ZTSN7android18trait_trivial_dtorINS_8hardware10BpHwBinder8ObituaryEEE"
  },
  {
   "alignment" : 1,
   "linker_set_key" : "android::trait_trivial_dtor<android::hardware::BpHwBinder::ObjectManager::entry_t>",
   "name" : "android::trait_trivial_dtor<android::hardware::BpHwBinder::ObjectManager::entry_t>",
   "referenced_type" : "type-558",
   "self_type" : "type-558",
   "size" : 1,
   "source_file" : "/system/core/libutils/include/utils/TypeHelpers.h",
   "template_args" : [ "type-286" ],
   "unique_id" : "_ZTSN7android18trait_trivial_dtorINS_8hardware10BpHwBinder13ObjectManager7entry_tEEE"
  },
  {
   "alignment" : 1,
   "linker_set_key" : "android::trait_trivial_dtor<android::hardware::ProcessState::handle_entry>",
   "name" : "android::trait_trivial_dtor<android::hardware::ProcessState::handle_entry>",
   "referenced_type" : "type-399",
   "self_type" : "type-399",
   "size" : 1,
   "source_file" : "/system/core/libutils/include/utils/TypeHelpers.h",
   "template_args" : [ "type-326" ],
   "unique_id" : "_ZTSN7android18trait_trivial_dtorINS_8hardware12ProcessState12handle_entryEEE"
  },
  {
   "alignment" : 1,
   "linker_set_key" : "android::trait_trivial_dtor<android::key_value_pair_t<android::String16, android::sp<android::hardware::IBinder> > >",
   "name" : "android::trait_trivial_dtor<android::key_value_pair_t<android::String16, android::sp<android::hardware::IBinder> > >",
   "referenced_type" : "type-403",
   "self_type" : "type-403",
   "size" : 1,
   "source_file" : "/system/core/libutils/include/utils/TypeHelpers.h",
   "template_args" : [ "type-323" ],
   "unique_id" : "_ZTSN7android18trait_trivial_dtorINS_16key_value_pair_tINS_8String16ENS_2spINS_8hardware7IBinderEEEEEEE"
  },
  {
   "alignment" : 1,
   "linker_set_key" : "android::trait_trivial_dtor<android::key_value_pair_t<const void *, android::hardware::BpHwBinder::ObjectManager::entry_t> >",
   "name" : "android::trait_trivial_dtor<android::key_value_pair_t<const void *, android::hardware::BpHwBinder::ObjectManager::entry_t> >",
   "referenced_type" : "type-559",
   "self_type" : "type-559",
   "size" : 1,
   "source_file" : "/system/core/libutils/include/utils/TypeHelpers.h",
   "template_args" : [ "type-487" ],
   "unique_id" : "_ZTSN7android18trait_trivial_dtorINS_16key_value_pair_tIPKvNS_8hardware10BpHwBinder13ObjectManager7entry_tEEEEE"
  },
  {
   "alignment" : 1,
   "linker_set_key" : "android::trait_trivial_dtor<android::sp<android::hardware::BufferedTextOutput::BufferState> >",
   "name" : "android::trait_trivial_dtor<android::sp<android::hardware::BufferedTextOutput::BufferState> >",
   "referenced_type" : "type-636",
   "self_type" : "type-636",
   "size" : 1,
   "source_file" : "/system/core/libutils/include/utils/TypeHelpers.h",
   "template_args" : [ "type-581" ],
   "unique_id" : "_ZTSN7android18trait_trivial_dtorINS_2spINS_8hardware18BufferedTextOutput11BufferStateEEEEE"
  },
  {
   "alignment" : 1,
   "linker_set_key" : "android::trait_trivial_dtor<android::sp<android::hardware::IBinder> >",
   "name" : "android::trait_trivial_dtor<android::sp<android::hardware::IBinder> >",
   "referenced_type" : "type-402",
   "self_type" : "type-402",
   "size" : 1,
   "source_file" : "/system/core/libutils/include/utils/TypeHelpers.h",
   "template_args" : [ "type-71" ],
   "unique_id" : "_ZTSN7android18trait_trivial_dtorINS_2spINS_8hardware7IBinderEEEEE"
  },
  {
   "alignment" : 1,
   "linker_set_key" : "android::trait_trivial_dtor<bool>",
   "name" : "android::trait_trivial_dtor<bool>",
   "referenced_type" : "type-274",
   "self_type" : "type-274",
   "size" : 1,
   "source_file" : "/system/core/libutils/include/utils/TypeHelpers.h",
   "template_args" : [ "type-14" ],
   "unique_id" : "_ZTSN7android18trait_trivial_dtorIbEE"
  },
  {
   "alignment" : 1,
   "linker_set_key" : "android::trait_trivial_dtor<char>",
   "name" : "android::trait_trivial_dtor<char>",
   "referenced_type" : "type-321",
   "self_type" : "type-321",
   "size" : 1,
   "source_file" : "/system/core/libutils/include/utils/TypeHelpers.h",
   "template_args" : [ "type-120" ],
   "unique_id" : "_ZTSN7android18trait_trivial_dtorIcEE"
  },
  {
   "alignment" : 1,
   "linker_set_key" : "android::trait_trivial_dtor<const void *>",
   "name" : "android::trait_trivial_dtor<const void *>",
   "referenced_type" : "type-557",
   "self_type" : "type-557",
   "size" : 1,
   "source_file" : "/system/core/libutils/include/utils/TypeHelpers.h",
   "template_args" : [ "type-110" ],
   "unique_id" : "_ZTSN7android18trait_trivial_dtorIPKvEE"
  },
  {
   "alignment" : 1,
   "linker_set_key" : "android::trait_trivial_dtor<double>",
   "name" : "android::trait_trivial_dtor<double>",
   "referenced_type" : "type-474",
   "self_type" : "type-474",
   "size" : 1,
   "source_file" : "/system/core/libutils/include/utils/TypeHelpers.h",
   "template_args" : [ "type-104" ],
   "unique_id" : "_ZTSN7android18trait_trivial_dtorIdEE"
  },
  {
   "alignment" : 1,
   "linker_set_key" : "android::trait_trivial_dtor<float>",
   "name" : "android::trait_trivial_dtor<float>",
   "referenced_type" : "type-470",
   "self_type" : "type-470",
   "size" : 1,
   "source_file" : "/system/core/libutils/include/utils/TypeHelpers.h",
   "template_args" : [ "type-102" ],
   "unique_id" : "_ZTSN7android18trait_trivial_dtorIfEE"
  },
  {
   "alignment" : 1,
   "linker_set_key" : "android::trait_trivial_dtor<int>",
   "name" : "android::trait_trivial_dtor<int>",
   "referenced_type" : "type-424",
   "self_type" : "type-424",
   "size" : 1,
   "source_file" : "/system/core/libutils/include/utils/TypeHelpers.h",
   "template_args" : [ "type-9" ],
   "unique_id" : "_ZTSN7android18trait_trivial_dtorIiEE"
  },
  {
   "alignment" : 1,
   "linker_set_key" : "android::trait_trivial_dtor<long long>",
   "name" : "android::trait_trivial_dtor<long long>",
   "referenced_type" : "type-462",
   "self_type" : "type-462",
   "size" : 1,
   "source_file" : "/system/core/libutils/include/utils/TypeHelpers.h",
   "template_args" : [ "type-461" ],
   "unique_id" : "_ZTSN7android18trait_trivial_dtorIxEE"
  },
  {
   "alignment" : 1,
   "linker_set_key" : "android::trait_trivial_dtor<long>",
   "name" : "android::trait_trivial_dtor<long>",
   "referenced_type" : "type-439",
   "self_type" : "type-439",
   "size" : 1,
   "source_file" : "/system/core/libutils/include/utils/TypeHelpers.h",
   "template_args" : [ "type-100" ],
   "unique_id" : "_ZTSN7android18trait_trivial_dtorIlEE"
  },
  {
   "alignment" : 1,
   "linker_set_key" : "android::trait_trivial_dtor<short>",
   "name" : "android::trait_trivial_dtor<short>",
   "referenced_type" : "type-367",
   "self_type" : "type-367",
   "size" : 1,
   "source_file" : "/system/core/libutils/include/utils/TypeHelpers.h",
   "template_args" : [ "type-95" ],
   "unique_id" : "_ZTSN7android18trait_trivial_dtorIsEE"
  },
  {
   "alignment" : 1,
   "linker_set_key" : "android::trait_trivial_dtor<unsigned char>",
   "name" : "android::trait_trivial_dtor<unsigned char>",
   "referenced_type" : "type-340",
   "self_type" : "type-340",
   "size" : 1,
   "source_file" : "/system/core/libutils/include/utils/TypeHelpers.h",
   "template_args" : [ "type-11" ],
   "unique_id" : "_ZTSN7android18trait_trivial_dtorIhEE"
  },
  {
   "alignment" : 1,
   "linker_set_key" : "android::trait_trivial_dtor<unsigned int>",
   "name" : "android::trait_trivial_dtor<unsigned int>",
   "referenced_type" : "type-431",
   "self_type" : "type-431",
   "size" : 1,
   "source_file" : "/system/core/libutils/include/utils/TypeHelpers.h",
   "template_args" : [ "type-4" ],
   "unique_id" : "_ZTSN7android18trait_trivial_dtorIjEE"
  },
  {
   "alignment" : 1,
   "linker_set_key" : "android::trait_trivial_dtor<unsigned long long>",
   "name" : "android::trait_trivial_dtor<unsigned long long>",
   "referenced_type" : "type-466",
   "self_type" : "type-466",
   "size" : 1,
   "source_file" : "/system/core/libutils/include/utils/TypeHelpers.h",
   "template_args" : [ "type-13" ],
   "unique_id" : "_ZTSN7android18trait_trivial_dtorIyEE"
  },
  {
   "alignment" : 1,
   "linker_set_key" : "android::trait_trivial_dtor<unsigned long>",
   "name" : "android::trait_trivial_dtor<unsigned long>",
   "referenced_type" : "type-449",
   "self_type" : "type-449",
   "size" : 1,
   "source_file" : "/system/core/libutils/include/utils/TypeHelpers.h",
   "template_args" : [ "type-7" ],
   "unique_id" : "_ZTSN7android18trait_trivial_dtorImEE"
  },
  {
   "alignment" : 1,
   "linker_set_key" : "android::trait_trivial_dtor<unsigned short>",
   "name" : "android::trait_trivial_dtor<unsigned short>",
   "referenced_type" : "type-389",
   "self_type" : "type-389",
   "size" : 1,
   "source_file" : "/system/core/libutils/include/utils/TypeHelpers.h",
   "template_args" : [ "type-97" ],
   "unique_id" : "_ZTSN7android18trait_trivial_dtorItEE"
  },
  {
   "alignment" : 1,
   "linker_set_key" : "android::trait_trivial_dtor<void>",
   "name" : "android::trait_trivial_dtor<void>",
   "referenced_type" : "type-191",
   "self_type" : "type-191",
   "size" : 1,
   "source_file" : "/system/core/libutils/include/utils/TypeHelpers.h",
   "template_args" : [ "type-17" ],
   "unique_id" : "_ZTSN7android18trait_trivial_dtorIvEE"
  },
  {
   "alignment" : 1,
   "linker_set_key" : "android::trait_trivial_move<android::RefBase *>",
   "name" : "android::trait_trivial_move<android::RefBase *>",
   "referenced_type" : "type-41",
   "self_type" : "type-41",
   "size" : 1,
   "source_file" : "/system/core/libutils/include/utils/TypeHelpers.h",
   "template_args" : [ "type-30" ],
   "unique_id" : "_ZTSN7android18trait_trivial_moveIPNS_7RefBaseEEE"
  },
  {
   "alignment" : 1,
   "linker_set_key" : "android::trait_trivial_move<android::RefBase::weakref_type *>",
   "name" : "android::trait_trivial_move<android::RefBase::weakref_type *>",
   "referenced_type" : "type-40",
   "self_type" : "type-40",
   "size" : 1,
   "source_file" : "/system/core/libutils/include/utils/TypeHelpers.h",
   "template_args" : [ "type-25" ],
   "unique_id" : "_ZTSN7android18trait_trivial_moveIPNS_7RefBase12weakref_typeEEE"
  },
  {
   "alignment" : 1,
   "linker_set_key" : "android::trait_trivial_move<android::String16>",
   "name" : "android::trait_trivial_move<android::String16>",
   "referenced_type" : "type-644",
   "self_type" : "type-644",
   "size" : 1,
   "source_file" : "/system/core/libutils/include/utils/String16.h",
   "template_args" : [ "type-289" ],
   "unique_id" : "_ZTSN7android18trait_trivial_moveINS_8String16EEE"
  },
  {
   "alignment" : 1,
   "linker_set_key" : "android::trait_trivial_move<android::String8>",
   "name" : "android::trait_trivial_move<android::String8>",
   "referenced_type" : "type-585",
   "self_type" : "type-585",
   "size" : 1,
   "source_file" : "/system/core/libutils/include/utils/String8.h",
   "template_args" : [ "type-382" ],
   "unique_id" : "_ZTSN7android18trait_trivial_moveINS_7String8EEE"
  },
  {
   "alignment" : 1,
   "linker_set_key" : "android::trait_trivial_move<android::hardware::BHwBinder *>",
   "name" : "android::trait_trivial_move<android::hardware::BHwBinder *>",
   "referenced_type" : "type-35",
   "self_type" : "type-35",
   "size" : 1,
   "source_file" : "/system/core/libutils/include/utils/TypeHelpers.h",
   "template_args" : [ "type-36" ],
   "unique_id" : "_ZTSN7android18trait_trivial_moveIPNS_8hardware9BHwBinderEEE"
  },
  {
   "alignment" : 1,
   "linker_set_key" : "android::trait_trivial_move<android::hardware::BpHwBinder::Obituary>",
   "name" : "android::trait_trivial_move<android::hardware::BpHwBinder::Obituary>",
   "referenced_type" : "type-569",
   "self_type" : "type-569",
   "size" : 1,
   "source_file" : "/system/core/libutils/include/utils/TypeHelpers.h",
   "template_args" : [ "type-294" ],
   "unique_id" : "_ZTSN7android18trait_trivial_moveINS_8hardware10BpHwBinder8ObituaryEEE"
  },
  {
   "alignment" : 1,
   "linker_set_key" : "android::trait_trivial_move<android::hardware::BpHwBinder::ObjectManager::entry_t>",
   "name" : "android::trait_trivial_move<android::hardware::BpHwBinder::ObjectManager::entry_t>",
   "referenced_type" : "type-567",
   "self_type" : "type-567",
   "size" : 1,
   "source_file" : "/system/core/libutils/include/utils/TypeHelpers.h",
   "template_args" : [ "type-286" ],
   "unique_id" : "_ZTSN7android18trait_trivial_moveINS_8hardware10BpHwBinder13ObjectManager7entry_tEEE"
  },
  {
   "alignment" : 1,
   "linker_set_key" : "android::trait_trivial_move<android::hardware::ProcessState::handle_entry>",
   "name" : "android::trait_trivial_move<android::hardware::ProcessState::handle_entry>",
   "referenced_type" : "type-408",
   "self_type" : "type-408",
   "size" : 1,
   "source_file" : "/system/core/libutils/include/utils/TypeHelpers.h",
   "template_args" : [ "type-326" ],
   "unique_id" : "_ZTSN7android18trait_trivial_moveINS_8hardware12ProcessState12handle_entryEEE"
  },
  {
   "alignment" : 1,
   "linker_set_key" : "android::trait_trivial_move<android::key_value_pair_t<android::String16, android::sp<android::hardware::IBinder> > >",
   "name" : "android::trait_trivial_move<android::key_value_pair_t<android::String16, android::sp<android::hardware::IBinder> > >",
   "referenced_type" : "type-410",
   "self_type" : "type-410",
   "size" : 1,
   "source_file" : "/system/core/libutils/include/utils/TypeHelpers.h",
   "template_args" : [ "type-323" ],
   "unique_id" : "_ZTSN7android18trait_trivial_moveINS_16key_value_pair_tINS_8String16ENS_2spINS_8hardware7IBinderEEEEEEE"
  },
  {
   "alignment" : 1,
   "linker_set_key" : "android::trait_trivial_move<android::key_value_pair_t<const void *, android::hardware::BpHwBinder::ObjectManager::entry_t> >",
   "name" : "android::trait_trivial_move<android::key_value_pair_t<const void *, android::hardware::BpHwBinder::ObjectManager::entry_t> >",
   "referenced_type" : "type-568",
   "self_type" : "type-568",
   "size" : 1,
   "source_file" : "/system/core/libutils/include/utils/TypeHelpers.h",
   "template_args" : [ "type-487" ],
   "unique_id" : "_ZTSN7android18trait_trivial_moveINS_16key_value_pair_tIPKvNS_8hardware10BpHwBinder13ObjectManager7entry_tEEEEE"
  },
  {
   "alignment" : 1,
   "linker_set_key" : "android::trait_trivial_move<android::sp<android::hardware::BufferedTextOutput::BufferState> >",
   "name" : "android::trait_trivial_move<android::sp<android::hardware::BufferedTextOutput::BufferState> >",
   "referenced_type" : "type-638",
   "self_type" : "type-638",
   "size" : 1,
   "source_file" : "/system/core/libutils/include/utils/TypeHelpers.h",
   "template_args" : [ "type-581" ],
   "unique_id" : "_ZTSN7android18trait_trivial_moveINS_2spINS_8hardware18BufferedTextOutput11BufferStateEEEEE"
  },
  {
   "alignment" : 1,
   "linker_set_key" : "android::trait_trivial_move<android::sp<android::hardware::IBinder> >",
   "name" : "android::trait_trivial_move<android::sp<android::hardware::IBinder> >",
   "referenced_type" : "type-409",
   "self_type" : "type-409",
   "size" : 1,
   "source_file" : "/system/core/libutils/include/utils/TypeHelpers.h",
   "template_args" : [ "type-71" ],
   "unique_id" : "_ZTSN7android18trait_trivial_moveINS_2spINS_8hardware7IBinderEEEEE"
  },
  {
   "alignment" : 1,
   "linker_set_key" : "android::trait_trivial_move<bool>",
   "name" : "android::trait_trivial_move<bool>",
   "referenced_type" : "type-317",
   "self_type" : "type-317",
   "size" : 1,
   "source_file" : "/system/core/libutils/include/utils/TypeHelpers.h",
   "template_args" : [ "type-14" ],
   "unique_id" : "_ZTSN7android18trait_trivial_moveIbEE"
  },
  {
   "alignment" : 1,
   "linker_set_key" : "android::trait_trivial_move<char>",
   "name" : "android::trait_trivial_move<char>",
   "referenced_type" : "type-338",
   "self_type" : "type-338",
   "size" : 1,
   "source_file" : "/system/core/libutils/include/utils/TypeHelpers.h",
   "template_args" : [ "type-120" ],
   "unique_id" : "_ZTSN7android18trait_trivial_moveIcEE"
  },
  {
   "alignment" : 1,
   "linker_set_key" : "android::trait_trivial_move<const void *>",
   "name" : "android::trait_trivial_move<const void *>",
   "referenced_type" : "type-565",
   "self_type" : "type-565",
   "size" : 1,
   "source_file" : "/system/core/libutils/include/utils/TypeHelpers.h",
   "template_args" : [ "type-110" ],
   "unique_id" : "_ZTSN7android18trait_trivial_moveIPKvEE"
  },
  {
   "alignment" : 1,
   "linker_set_key" : "android::trait_trivial_move<double>",
   "name" : "android::trait_trivial_move<double>",
   "referenced_type" : "type-476",
   "self_type" : "type-476",
   "size" : 1,
   "source_file" : "/system/core/libutils/include/utils/TypeHelpers.h",
   "template_args" : [ "type-104" ],
   "unique_id" : "_ZTSN7android18trait_trivial_moveIdEE"
  },
  {
   "alignment" : 1,
   "linker_set_key" : "android::trait_trivial_move<float>",
   "name" : "android::trait_trivial_move<float>",
   "referenced_type" : "type-472",
   "self_type" : "type-472",
   "size" : 1,
   "source_file" : "/system/core/libutils/include/utils/TypeHelpers.h",
   "template_args" : [ "type-102" ],
   "unique_id" : "_ZTSN7android18trait_trivial_moveIfEE"
  },
  {
   "alignment" : 1,
   "linker_set_key" : "android::trait_trivial_move<int>",
   "name" : "android::trait_trivial_move<int>",
   "referenced_type" : "type-428",
   "self_type" : "type-428",
   "size" : 1,
   "source_file" : "/system/core/libutils/include/utils/TypeHelpers.h",
   "template_args" : [ "type-9" ],
   "unique_id" : "_ZTSN7android18trait_trivial_moveIiEE"
  },
  {
   "alignment" : 1,
   "linker_set_key" : "android::trait_trivial_move<long long>",
   "name" : "android::trait_trivial_move<long long>",
   "referenced_type" : "type-464",
   "self_type" : "type-464",
   "size" : 1,
   "source_file" : "/system/core/libutils/include/utils/TypeHelpers.h",
   "template_args" : [ "type-461" ],
   "unique_id" : "_ZTSN7android18trait_trivial_moveIxEE"
  },
  {
   "alignment" : 1,
   "linker_set_key" : "android::trait_trivial_move<long>",
   "name" : "android::trait_trivial_move<long>",
   "referenced_type" : "type-443",
   "self_type" : "type-443",
   "size" : 1,
   "source_file" : "/system/core/libutils/include/utils/TypeHelpers.h",
   "template_args" : [ "type-100" ],
   "unique_id" : "_ZTSN7android18trait_trivial_moveIlEE"
  },
  {
   "alignment" : 1,
   "linker_set_key" : "android::trait_trivial_move<short>",
   "name" : "android::trait_trivial_move<short>",
   "referenced_type" : "type-371",
   "self_type" : "type-371",
   "size" : 1,
   "source_file" : "/system/core/libutils/include/utils/TypeHelpers.h",
   "template_args" : [ "type-95" ],
   "unique_id" : "_ZTSN7android18trait_trivial_moveIsEE"
  },
  {
   "alignment" : 1,
   "linker_set_key" : "android::trait_trivial_move<unsigned char>",
   "name" : "android::trait_trivial_move<unsigned char>",
   "referenced_type" : "type-345",
   "self_type" : "type-345",
   "size" : 1,
   "source_file" : "/system/core/libutils/include/utils/TypeHelpers.h",
   "template_args" : [ "type-11" ],
   "unique_id" : "_ZTSN7android18trait_trivial_moveIhEE"
  },
  {
   "alignment" : 1,
   "linker_set_key" : "android::trait_trivial_move<unsigned int>",
   "name" : "android::trait_trivial_move<unsigned int>",
   "referenced_type" : "type-433",
   "self_type" : "type-433",
   "size" : 1,
   "source_file" : "/system/core/libutils/include/utils/TypeHelpers.h",
   "template_args" : [ "type-4" ],
   "unique_id" : "_ZTSN7android18trait_trivial_moveIjEE"
  },
  {
   "alignment" : 1,
   "linker_set_key" : "android::trait_trivial_move<unsigned long long>",
   "name" : "android::trait_trivial_move<unsigned long long>",
   "referenced_type" : "type-468",
