{
 "array_types" :
 [
  {
   "alignment" : 4,
   "linker_set_key" : "OMX_AUDIO_CHANNELTYPE [16]",
   "name" : "OMX_AUDIO_CHANNELTYPE [16]",
   "referenced_type" : "type-1638",
   "self_type" : "type-1643",
   "size" : 64,
   "source_file" : "/frameworks/native/headers/media_plugin/media/openmax/OMX_Audio.h"
  },
  {
   "linker_set_key" : "OMX_COMPONENTREGISTERTYPE []",
   "name" : "OMX_COMPONENTREGISTERTYPE []",
   "referenced_type" : "type-1503",
   "self_type" : "type-1516",
   "source_file" : "/frameworks/native/headers/media_plugin/media/openmax/OMX_Core.h"
  },
  {
   "alignment" : 8,
   "linker_set_key" : "android::AMessage::Item [64]",
   "name" : "android::AMessage::Item [64]",
   "referenced_type" : "type-266",
   "self_type" : "type-265",
   "size" : 2560,
   "source_file" : "/frameworks/av/media/libstagefright/foundation/include/media/stagefright/foundation/AMessage.h"
  },
  {
   "alignment" : 1,
   "linker_set_key" : "android::MediaImage2::PlaneInfo [4]",
   "name" : "android::MediaImage2::PlaneInfo [4]",
   "referenced_type" : "type-2429",
   "self_type" : "type-2428",
   "size" : 80,
   "source_file" : "/frameworks/native/headers/media_plugin/media/hardware/VideoAPI.h"
  },
  {
   "alignment" : 4,
   "linker_set_key" : "android::MediaImage::PlaneInfo [3]",
   "name" : "android::MediaImage::PlaneInfo [3]",
   "referenced_type" : "type-2423",
   "self_type" : "type-2422",
   "size" : 60,
   "source_file" : "/frameworks/native/headers/media_plugin/media/hardware/VideoAPI.h"
  },
  {
   "alignment" : 1,
   "linker_set_key" : "char [0]",
   "name" : "char [0]",
   "referenced_type" : "type-126",
   "self_type" : "type-889",
   "source_file" : "/system/core/liblog/include/log/log_read.h"
  },
  {
   "alignment" : 4,
   "linker_set_key" : "float [16]",
   "name" : "float [16]",
   "referenced_type" : "type-268",
   "self_type" : "type-485",
   "size" : 64,
   "source_file" : "/system/libhidl/base/include/hidl/HidlSupport.h"
  },
  {
   "linker_set_key" : "float []",
   "name" : "float []",
   "referenced_type" : "type-268",
   "self_type" : "type-303",
   "source_file" : "/system/core/libsystem/include/system/graphics.h"
  },
  {
   "alignment" : 4,
   "linker_set_key" : "int [0]",
   "name" : "int [0]",
   "referenced_type" : "type-4",
   "self_type" : "type-345",
   "source_file" : "/system/core/libcutils/include/cutils/native_handle.h"
  },
  {
   "alignment" : 4,
   "linker_set_key" : "int [3]",
   "name" : "int [3]",
   "referenced_type" : "type-4",
   "self_type" : "type-2207",
   "size" : 12,
   "source_file" : "/frameworks/native/headers/media_plugin/media/openmax/OMX_IVCommon.h"
  },
  {
   "alignment" : 4,
   "linker_set_key" : "int [3][3]",
   "name" : "int [3][3]",
   "referenced_type" : "type-2207",
   "self_type" : "type-2206",
   "size" : 36,
   "source_file" : "/frameworks/native/headers/media_plugin/media/openmax/OMX_IVCommon.h"
  },
  {
   "alignment" : 4,
   "linker_set_key" : "int [4]",
   "name" : "int [4]",
   "referenced_type" : "type-4",
   "self_type" : "type-386",
   "size" : 16,
   "source_file" : "/system/libhidl/base/include/hidl/HidlSupport.h"
  },
  {
   "alignment" : 1,
   "linker_set_key" : "unsigned char [128]",
   "name" : "unsigned char [128]",
   "referenced_type" : "type-92",
   "self_type" : "type-1530",
   "size" : 128,
   "source_file" : "/frameworks/native/headers/media_plugin/media/openmax/OMX_Core.h"
  },
  {
   "alignment" : 1,
   "linker_set_key" : "unsigned char [16]",
   "name" : "unsigned char [16]",
   "referenced_type" : "type-92",
   "self_type" : "type-2316",
   "size" : 16,
   "source_file" : "/frameworks/native/headers/media_plugin/media/openmax/OMX_Image.h"
  },
  {
   "alignment" : 1,
   "linker_set_key" : "unsigned char [1]",
   "name" : "unsigned char [1]",
   "referenced_type" : "type-92",
   "self_type" : "type-1572",
   "size" : 1,
   "source_file" : "/frameworks/native/headers/media_plugin/media/openmax/OMX_Core.h"
  },
  {
   "alignment" : 1,
   "linker_set_key" : "unsigned char [256]",
   "name" : "unsigned char [256]",
   "referenced_type" : "type-92",
   "self_type" : "type-2317",
   "size" : 256,
   "source_file" : "/frameworks/native/headers/media_plugin/media/openmax/OMX_Image.h"
  },
  {
   "alignment" : 1,
   "linker_set_key" : "unsigned char [5121]",
   "name" : "unsigned char [5121]",
   "referenced_type" : "type-92",
   "self_type" : "type-2183",
   "size" : 5121,
   "source_file" : "/system/core/liblog/include/log/log_read.h"
  },
  {
   "alignment" : 1,
   "linker_set_key" : "unsigned char [64]",
   "name" : "unsigned char [64]",
   "referenced_type" : "type-92",
   "self_type" : "type-2313",
   "size" : 64,
   "source_file" : "/frameworks/native/headers/media_plugin/media/openmax/OMX_Image.h"
  },
  {
   "alignment" : 4,
   "linker_set_key" : "unsigned int [10]",
   "name" : "unsigned int [10]",
   "referenced_type" : "type-2",
   "self_type" : "type-492",
   "size" : 40,
   "source_file" : "/system/libhidl/base/include/hidl/HidlSupport.h"
  },
  {
   "alignment" : 4,
   "linker_set_key" : "unsigned int [8]",
   "name" : "unsigned int [8]",
   "referenced_type" : "type-2",
   "self_type" : "type-294",
   "size" : 32,
   "source_file" : "/system/core/libsystem/include/system/graphics.h"
  }
 ],
 "builtin_types" :
 [
  {
   "alignment" : 1,
   "is_integral" : true,
   "is_unsigned" : true,
   "linker_set_key" : "bool",
   "name" : "bool",
   "referenced_type" : "type-95",
   "self_type" : "type-95",
   "size" : 1
  },
  {
   "alignment" : 1,
   "is_integral" : true,
   "linker_set_key" : "char",
   "name" : "char",
   "referenced_type" : "type-126",
   "self_type" : "type-126",
   "size" : 1
  },
  {
   "alignment" : 2,
   "is_integral" : true,
   "is_unsigned" : true,
   "linker_set_key" : "char16_t",
   "name" : "char16_t",
   "referenced_type" : "type-1246",
   "self_type" : "type-1246",
   "size" : 2
  },
  {
   "alignment" : 8,
   "linker_set_key" : "double",
   "name" : "double",
   "referenced_type" : "type-269",
   "self_type" : "type-269",
   "size" : 8
  },
  {
   "alignment" : 4,
   "linker_set_key" : "float",
   "name" : "float",
   "referenced_type" : "type-268",
   "self_type" : "type-268",
   "size" : 4
  },
  {
   "alignment" : 4,
   "is_integral" : true,
   "linker_set_key" : "int",
   "name" : "int",
   "referenced_type" : "type-4",
   "self_type" : "type-4",
   "size" : 4
  },
  {
   "alignment" : 8,
   "is_integral" : true,
   "linker_set_key" : "long",
   "name" : "long",
   "referenced_type" : "type-32",
   "self_type" : "type-32",
   "size" : 8
  },
  {
   "alignment" : 16,
   "linker_set_key" : "long double",
   "name" : "long double",
   "referenced_type" : "type-1457",
   "self_type" : "type-1457",
   "size" : 16
  },
  {
   "alignment" : 8,
   "is_integral" : true,
   "linker_set_key" : "long long",
   "name" : "long long",
   "referenced_type" : "type-156",
   "self_type" : "type-156",
   "size" : 8
  },
  {
   "alignment" : 2,
   "is_integral" : true,
   "linker_set_key" : "short",
   "name" : "short",
   "referenced_type" : "type-498",
   "self_type" : "type-498",
   "size" : 2
  },
  {
   "alignment" : 1,
   "is_integral" : true,
   "linker_set_key" : "signed char",
   "name" : "signed char",
   "referenced_type" : "type-438",
   "self_type" : "type-438",
   "size" : 1
  },
  {
   "alignment" : 1,
   "is_integral" : true,
   "is_unsigned" : true,
   "linker_set_key" : "unsigned char",
   "name" : "unsigned char",
   "referenced_type" : "type-92",
   "self_type" : "type-92",
   "size" : 1
  },
  {
   "alignment" : 4,
   "is_integral" : true,
   "is_unsigned" : true,
   "linker_set_key" : "unsigned int",
   "name" : "unsigned int",
   "referenced_type" : "type-2",
   "self_type" : "type-2",
   "size" : 4
  },
  {
   "alignment" : 8,
   "is_integral" : true,
   "is_unsigned" : true,
   "linker_set_key" : "unsigned long",
   "name" : "unsigned long",
   "referenced_type" : "type-11",
   "self_type" : "type-11",
   "size" : 8
  },
  {
   "alignment" : 8,
   "is_integral" : true,
   "is_unsigned" : true,
   "linker_set_key" : "unsigned long long",
   "name" : "unsigned long long",
   "referenced_type" : "type-94",
   "self_type" : "type-94",
   "size" : 8
  },
  {
   "alignment" : 2,
   "is_integral" : true,
   "is_unsigned" : true,
   "linker_set_key" : "unsigned short",
   "name" : "unsigned short",
   "referenced_type" : "type-500",
   "self_type" : "type-500",
   "size" : 2
  },
  {
   "linker_set_key" : "void",
   "name" : "void",
   "referenced_type" : "type-9",
   "self_type" : "type-9"
  }
 ],
 "elf_functions" :
 [
  {
   "name" : "_ZN7android10BufferItem15scalingModeNameEj"
  },
  {
   "name" : "_ZN7android10BufferItem9unflattenERPKvRmRPKiS4_"
  },
  {
   "name" : "_ZN7android10BufferItemC1Ev"
  },
  {
   "name" : "_ZN7android10BufferItemC2Ev"
  },
  {
   "name" : "_ZN7android10BufferItemD1Ev"
  },
  {
   "name" : "_ZN7android10BufferItemD2Ev"
  },
  {
   "name" : "_ZN7android10GLConsumer22computeTransformMatrixEPfRKNS_2spINS_13GraphicBufferEEERKNS_4RectEjb"
  },
  {
   "name" : "_ZN7android10conversion10getFdCountERKNS_8hardware8graphics11bufferqueue4V1_022IGraphicBufferProducer16FrameEventsDeltaE"
  },
  {
   "name" : "_ZN7android10conversion10getFdCountERKNS_8hardware8graphics11bufferqueue4V1_022IGraphicBufferProducer16QueueBufferInputE"
  },
  {
   "name" : "_ZN7android10conversion10getFdCountERKNS_8hardware8graphics11bufferqueue4V1_022IGraphicBufferProducer17FenceTimeSnapshotE"
  },
  {
   "name" : "_ZN7android10conversion10getFdCountERKNS_8hardware8graphics11bufferqueue4V1_022IGraphicBufferProducer22FrameEventHistoryDeltaE"
  },
  {
   "name" : "_ZN7android10conversion11inHidlBytesEPKvm"
  },
  {
   "name" : "_ZN7android10conversion11toHidlBytesEPKvm"
  },
  {
   "name" : "_ZN7android10conversion12flattenFenceERKNS_8hardware11hidl_handleERPvRmRPiS7_"
  },
  {
   "name" : "_ZN7android10conversion12inHidlHandleEPK13native_handle"
  },
  {
   "name" : "_ZN7android10conversion14toBinderStatusERKNS_8hardware6ReturnIvEE"
  },
  {
   "name" : "_ZN7android10conversion14toRawDataspaceERKNS_8hardware8graphics6common4V1_09DataspaceE"
  },
  {
   "name" : "_ZN7android10conversion14unflattenFenceEPNS_8hardware11hidl_handleEPP13native_handleRPKvRmRPKiSA_"
  },
  {
   "name" : "_ZN7android10conversion15getFenceFdCountERKNS_8hardware11hidl_handleE"
  },
  {
   "name" : "_ZN7android10conversion16getFlattenedSizeERKNS_8hardware8graphics11bufferqueue4V1_022IGraphicBufferProducer16FrameEventsDeltaE"
  },
  {
   "name" : "_ZN7android10conversion16getFlattenedSizeERKNS_8hardware8graphics11bufferqueue4V1_022IGraphicBufferProducer16QueueBufferInputE"
  },
  {
   "name" : "_ZN7android10conversion16getFlattenedSizeERKNS_8hardware8graphics11bufferqueue4V1_022IGraphicBufferProducer17FenceTimeSnapshotE"
  },
  {
   "name" : "_ZN7android10conversion16getFlattenedSizeERKNS_8hardware8graphics11bufferqueue4V1_022IGraphicBufferProducer22FrameEventHistoryDeltaE"
  },
  {
   "name" : "_ZN7android10conversion16getFlattenedSizeERKNS_8hardware8hidl_vecINS1_5media4V1_04RectEEE"
  },
  {
   "name" : "_ZN7android10conversion19toGuiDisconnectModeENS_8hardware8graphics11bufferqueue4V1_022IGraphicBufferProducer14DisconnectModeE"
  },
  {
   "name" : "_ZN7android10conversion19toHardwareDataspaceEi"
  },
  {
   "name" : "_ZN7android10conversion20toHidlDisconnectModeENS_22IGraphicBufferProducer14DisconnectModeE"
  },
  {
   "name" : "_ZN7android10conversion21getFenceFlattenedSizeERKNS_8hardware11hidl_handleE"
  },
  {
   "name" : "_ZN7android10conversion21native_handle_read_fdEPK13native_handlei"
  },
  {
   "name" : "_ZN7android10conversion28native_handle_create_from_fdEi"
  },
  {
   "name" : "_ZN7android10conversion6wrapAsEPNS_8hardware11hidl_handleEPP13native_handleRKNS_5FenceE"
  },
  {
   "name" : "_ZN7android10conversion6wrapAsEPNS_8hardware5media4V1_09AnwBufferERKNS_13GraphicBufferE"
  },
  {
   "name" : "_ZN7android10conversion6wrapAsEPNS_8hardware8graphics11bufferqueue4V1_022IGraphicBufferProducer16QueueBufferInputEPP13native_handleRKNS_22IGraphicBufferProducer16QueueBufferInputE"
  },
  {
   "name" : "_ZN7android10conversion6wrapAsEPNS_8hardware8graphics11bufferqueue4V1_022IGraphicBufferProducer17QueueBufferOutputEPNSt3__16vectorINS9_IP13native_handleNS8_9allocatorISB_EEEENSC_ISE_EEEERKNS_22IGraphicBufferProducer17QueueBufferOutputE"
  },
  {
   "name" : "_ZN7android10conversion6wrapAsEPNS_8hardware8graphics11bufferqueue4V1_022IGraphicBufferProducer22FrameEventHistoryDeltaEPNSt3__16vectorINS9_IP13native_handleNS8_9allocatorISB_EEEENSC_ISE_EEEERKNS_22FrameEventHistoryDeltaE"
  },
  {
   "name" : "_ZN7android10conversion7flattenERKNS_8hardware8graphics11bufferqueue4V1_022IGraphicBufferProducer16FrameEventsDeltaERPvRmRPim"
  },
  {
   "name" : "_ZN7android10conversion7flattenERKNS_8hardware8graphics11bufferqueue4V1_022IGraphicBufferProducer16QueueBufferInputEPP13native_handleRPvRmRPiSE_"
  },
  {
   "name" : "_ZN7android10conversion7flattenERKNS_8hardware8graphics11bufferqueue4V1_022IGraphicBufferProducer17FenceTimeSnapshotERPvRmRPiSB_"
  },
  {
   "name" : "_ZN7android10conversion7flattenERKNS_8hardware8graphics11bufferqueue4V1_022IGraphicBufferProducer22FrameEventHistoryDeltaERPvRmRPiSB_"
  },
  {
   "name" : "_ZN7android10conversion7flattenERKNS_8hardware8hidl_vecINS1_5media4V1_04RectEEERPvRm"
  },
  {
   "name" : "_ZN7android10conversion9convertToEPNS_13GraphicBufferERKNS_8hardware5media4V1_09AnwBufferE"
  },
  {
   "name" : "_ZN7android10conversion9convertToEPNS_22FrameEventHistoryDeltaERKNS_8hardware8graphics11bufferqueue4V1_022IGraphicBufferProducer22FrameEventHistoryDeltaE"
  },
  {
   "name" : "_ZN7android10conversion9convertToEPNS_22IGraphicBufferProducer16QueueBufferInputERKNS_8hardware8graphics11bufferqueue4V1_022IGraphicBufferProducer16QueueBufferInputE"
  },
  {
   "name" : "_ZN7android10conversion9convertToEPNS_22IGraphicBufferProducer17QueueBufferOutputERKNS_8hardware8graphics11bufferqueue4V1_022IGraphicBufferProducer17QueueBufferOutputE"
  },
  {
   "name" : "_ZN7android10conversion9convertToEPNS_5FenceERKNS_8hardware11hidl_handleE"
  },
  {
   "name" : "_ZN7android10conversion9convertToEPNS_6RegionERKNS_8hardware8hidl_vecINS3_5media4V1_04RectEEE"
  },
  {
   "name" : "_ZN7android10conversion9convertToEPNS_8hardware8hidl_vecINS1_5media4V1_04RectEEERKNS_6RegionE"
  },
  {
   "name" : "_ZN7android10conversion9toStatusTERKNS_8hardware6ReturnIvEE"
  },
  {
   "name" : "_ZN7android10conversion9unflattenEPNS_8hardware8graphics11bufferqueue4V1_022IGraphicBufferProducer16FrameEventsDeltaEPNSt3__16vectorIP13native_handleNS8_9allocatorISB_EEEERPKvRmRPKiSJ_"
  },
  {
   "name" : "_ZN7android10conversion9unflattenEPNS_8hardware8graphics11bufferqueue4V1_022IGraphicBufferProducer16QueueBufferInputEPP13native_handleRPKvRmRPKiSE_"
  },
  {
   "name" : "_ZN7android10conversion9unflattenEPNS_8hardware8graphics11bufferqueue4V1_022IGraphicBufferProducer17FenceTimeSnapshotEPP13native_handleRPKvRmRPKiSE_"
  },
  {
   "name" : "_ZN7android10conversion9unflattenEPNS_8hardware8graphics11bufferqueue4V1_022IGraphicBufferProducer22FrameEventHistoryDeltaEPNSt3__16vectorINS9_IP13native_handleNS8_9allocatorISB_EEEENSC_ISE_EEEERPKvRmRPKiSL_"
  },
  {
   "name" : "_ZN7android10conversion9unflattenEPNS_8hardware8hidl_vecINS1_5media4V1_04RectEEERPKvRm"
  },
  {
   "binding" : "weak",
   "name" : "_ZN7android11BnInterfaceINS_17IConsumerListenerEE10onAsBinderEv"
  },
  {
   "binding" : "weak",
   "name" : "_ZN7android11BnInterfaceINS_17IProducerListenerEE10onAsBinderEv"
  },
  {
   "binding" : "weak",
   "name" : "_ZN7android11BnInterfaceINS_22IGraphicBufferConsumerEE10onAsBinderEv"
  },
  {
   "binding" : "weak",
   "name" : "_ZN7android11BnInterfaceINS_22IGraphicBufferProducerEE10onAsBinderEv"
  },
  {
   "name" : "_ZN7android11BufferQueue17createBufferQueueEPNS_2spINS_22IGraphicBufferProducerEEEPNS1_INS_22IGraphicBufferConsumerEEEb"
  },
  {
   "name" : "_ZN7android11BufferQueue21ProxyConsumerListener12onDisconnectEv"
  },
  {
   "name" : "_ZN7android11BufferQueue21ProxyConsumerListener15onFrameReplacedERKNS_10BufferItemE"
  },
  {
   "name" : "_ZN7android11BufferQueue21ProxyConsumerListener16onFrameAvailableERKNS_10BufferItemE"
  },
  {
   "name" : "_ZN7android11BufferQueue21ProxyConsumerListener17onBuffersReleasedEv"
  },
  {
   "name" : "_ZN7android11BufferQueue21ProxyConsumerListener23onSidebandStreamChangedEv"
  },
  {
   "name" : "_ZN7android11BufferQueue21ProxyConsumerListener24addAndGetFrameTimestampsEPKNS_19NewFrameEventsEntryEPNS_22FrameEventHistoryDeltaE"
  },
  {
   "name" : "_ZN7android11BufferQueue21ProxyConsumerListenerC1ERKNS_2wpINS_16ConsumerListenerEEE"
  },
  {
   "name" : "_ZN7android11BufferQueue21ProxyConsumerListenerC2ERKNS_2wpINS_16ConsumerListenerEEE"
  },
  {
   "name" : "_ZN7android11BufferQueue21ProxyConsumerListenerD0Ev"
  },
  {
   "name" : "_ZN7android11BufferQueue21ProxyConsumerListenerD1Ev"
  },
  {
   "name" : "_ZN7android11BufferQueue21ProxyConsumerListenerD2Ev"
  },
  {
   "name" : "_ZN7android11FrameEvents24checkFencesForCompletionEv"
  },
  {
   "name" : "_ZN7android11HdrMetadata9unflattenEPKvm"
  },
  {
   "binding" : "weak",
   "name" : "_ZN7android11HpInterfaceINS_18BpProducerListenerENS_8hardware8graphics11bufferqueue4V1_05utils19H2BProducerListenerEJNS4_4V2_05utils19H2BProducerListenerEEEC2ERKNS_2spINS_7IBinderEEE"
  },
  {
   "binding" : "weak",
   "name" : "_ZN7android11HpInterfaceINS_23BpGraphicBufferProducerENS_8hardware8graphics11bufferqueue4V1_05utils24H2BGraphicBufferProducerEJNS4_4V2_05utils24H2BGraphicBufferProducerEEEC2ERKNS_2spINS_7IBinderEEE"
  },
  {
   "name" : "_ZN7android12FrameDropper10shouldDropEl"
  },
  {
   "name" : "_ZN7android12FrameDropper15setMaxFrameRateEf"
  },
  {
   "name" : "_ZN7android12FrameDropperC1Ev"
  },
  {
   "name" : "_ZN7android12FrameDropperC2Ev"
  },
  {
   "name" : "_ZN7android12FrameDropperD0Ev"
  },
  {
   "name" : "_ZN7android12FrameDropperD1Ev"
  },
  {
   "name" : "_ZN7android12FrameDropperD2Ev"
  },
  {
   "binding" : "weak",
   "name" : "_ZN7android12H2BConverterINS_8hardware8graphics11bufferqueue4V1_017IProducerListenerENS_18BnProducerListenerEE10onTransactEjRKNS_6ParcelEPS8_j"
  },
  {
   "binding" : "weak",
   "name" : "_ZN7android12H2BConverterINS_8hardware8graphics11bufferqueue4V1_017IProducerListenerENS_18BnProducerListenerEE11linkToDeathERKNS_2spINS_7IBinder14DeathRecipientEEEPvj"
  },
  {
   "binding" : "weak",
   "name" : "_ZN7android12H2BConverterINS_8hardware8graphics11bufferqueue4V1_017IProducerListenerENS_18BnProducerListenerEE13unlinkToDeathERKNS_2wpINS_7IBinder14DeathRecipientEEEPvjPSB_"
  },
  {
   "binding" : "weak",
   "name" : "_ZN7android12H2BConverterINS_8hardware8graphics11bufferqueue4V1_022IGraphicBufferProducerENS_23BnGraphicBufferProducerEE10onTransactEjRKNS_6ParcelEPS8_j"
  },
  {
   "binding" : "weak",
   "name" : "_ZN7android12H2BConverterINS_8hardware8graphics11bufferqueue4V1_022IGraphicBufferProducerENS_23BnGraphicBufferProducerEE11linkToDeathERKNS_2spINS_7IBinder14DeathRecipientEEEPvj"
  },
  {
   "binding" : "weak",
   "name" : "_ZN7android12H2BConverterINS_8hardware8graphics11bufferqueue4V1_022IGraphicBufferProducerENS_23BnGraphicBufferProducerEE13unlinkToDeathERKNS_2wpINS_7IBinder14DeathRecipientEEEPvjPSB_"
  },
  {
   "binding" : "weak",
   "name" : "_ZN7android12H2BConverterINS_8hardware8graphics11bufferqueue4V2_017IProducerListenerENS_18BnProducerListenerEE10onTransactEjRKNS_6ParcelEPS8_j"
  },
  {
   "binding" : "weak",
   "name" : "_ZN7android12H2BConverterINS_8hardware8graphics11bufferqueue4V2_017IProducerListenerENS_18BnProducerListenerEE11linkToDeathERKNS_2spINS_7IBinder14DeathRecipientEEEPvj"
  },
  {
   "binding" : "weak",
   "name" : "_ZN7android12H2BConverterINS_8hardware8graphics11bufferqueue4V2_017IProducerListenerENS_18BnProducerListenerEE13unlinkToDeathERKNS_2wpINS_7IBinder14DeathRecipientEEEPvjPSB_"
  },
  {
   "binding" : "weak",
   "name" : "_ZN7android12H2BConverterINS_8hardware8graphics11bufferqueue4V2_022IGraphicBufferProducerENS_23BnGraphicBufferProducerEE10onTransactEjRKNS_6ParcelEPS8_j"
  },
  {
   "binding" : "weak",
   "name" : "_ZN7android12H2BConverterINS_8hardware8graphics11bufferqueue4V2_022IGraphicBufferProducerENS_23BnGraphicBufferProducerEE11linkToDeathERKNS_2spINS_7IBinder14DeathRecipientEEEPvj"
  },
  {
   "binding" : "weak",
   "name" : "_ZN7android12H2BConverterINS_8hardware8graphics11bufferqueue4V2_022IGraphicBufferProducerENS_23BnGraphicBufferProducerEE13unlinkToDeathERKNS_2wpINS_7IBinder14DeathRecipientEEEPvjPSB_"
  },
  {
   "name" : "_ZN7android15BufferQueueCore20freeAllBuffersLockedEv"
  },
  {
   "name" : "_ZN7android15BufferQueueCore21clearBufferSlotLockedEi"
  },
  {
   "name" : "_ZN7android15BufferQueueCore24discardFreeBuffersLockedEv"
  },
  {
   "name" : "_ZN7android15BufferQueueCore26adjustAvailableSlotsLockedEi"
  },
  {
   "name" : "_ZN7android15BufferQueueCoreC1Ev"
  },
  {
   "name" : "_ZN7android15BufferQueueCoreC2Ev"
  },
  {
   "name" : "_ZN7android15BufferQueueCoreD0Ev"
  },
  {
   "name" : "_ZN7android15BufferQueueCoreD1Ev"
  },
  {
   "name" : "_ZN7android15BufferQueueCoreD2Ev"
  },
  {
   "name" : "_ZN7android16ConsumerListenerD0Ev"
  },
  {
   "name" : "_ZN7android16ConsumerListenerD1Ev"
  },
  {
   "name" : "_ZN7android16ConsumerListenerD2Ev"
  },
  {
   "name" : "_ZN7android16FrameEventsDelta9unflattenERPKvRmRPKiS4_"
  },
  {
   "name" : "_ZN7android16FrameEventsDeltaC1EmRKNS_11FrameEventsERKNS_21FrameEventDirtyFieldsE"
  },
  {
   "name" : "_ZN7android16FrameEventsDeltaC2EmRKNS_11FrameEventsERKNS_21FrameEventDirtyFieldsE"
  },
  {
   "name" : "_ZN7android16OccupancyTracker17getSegmentHistoryEb"
  },
  {
   "name" : "_ZN7android16OccupancyTracker20recordPendingSegmentEv"
  },
  {
   "name" : "_ZN7android16OccupancyTracker23registerOccupancyChangeEm"
  },
  {
   "name" : "_ZN7android16OccupancyTracker7Segment14readFromParcelEPKNS_6ParcelE"
  },
  {
   "name" : "_ZN7android16ProducerListenerD0Ev"
  },
  {
   "name" : "_ZN7android16ProducerListenerD1Ev"
  },
  {
   "name" : "_ZN7android16ProducerListenerD2Ev"
  },
  {
   "name" : "_ZN7android17FrameEventHistory24checkFencesForCompletionEv"
  },
  {
   "name" : "_ZN7android17FrameEventHistory8getFrameEm"
  },
  {
   "name" : "_ZN7android17FrameEventHistory8getFrameEmPm"
  },
  {
   "name" : "_ZN7android17FrameEventHistoryD0Ev"
  },
  {
   "name" : "_ZN7android17FrameEventHistoryD1Ev"
  },
  {
   "name" : "_ZN7android17FrameEventHistoryD2Ev"
  },
  {
   "name" : "_ZN7android17IConsumerListener11asInterfaceERKNS_2spINS_7IBinderEEE"
  },
  {
   "name" : "_ZN7android17IConsumerListener14getDefaultImplEv"
  },
  {
   "name" : "_ZN7android17IConsumerListener14setDefaultImplENSt3__110unique_ptrIS0_NS1_14default_deleteIS0_EEEE"
  },
  {
   "name" : "_ZN7android17IConsumerListenerC2Ev"
  },
  {
   "name" : "_ZN7android17IConsumerListenerD0Ev"
  },
  {
   "name" : "_ZN7android17IConsumerListenerD1Ev"
  },
  {
   "name" : "_ZN7android17IConsumerListenerD2Ev"
  },
  {
   "name" : "_ZN7android17IProducerListener11asInterfaceERKNS_2spINS_7IBinderEEE"
  },
  {
   "name" : "_ZN7android17IProducerListenerC2Ev"
  },
  {
   "name" : "_ZN7android17IProducerListenerD0Ev"
  },
  {
   "name" : "_ZN7android17IProducerListenerD1Ev"
  },
  {
   "name" : "_ZN7android17IProducerListenerD2Ev"
  },
  {
   "name" : "_ZN7android18BnConsumerListener10onTransactEjRKNS_6ParcelEPS1_j"
  },
  {
   "name" : "_ZN7android18BnProducerListener10onTransactEjRKNS_6ParcelEPS1_j"
  },
  {
   "name" : "_ZN7android18BnProducerListener18needsReleaseNotifyEv"
  },
  {
   "name" : "_ZN7android18BnProducerListener18onBuffersDiscardedERKNSt3__16vectorIiNS1_9allocatorIiEEEE"
  },
  {
   "name" : "_ZN7android18BpConsumerListenerD0Ev"
  },
  {
   "name" : "_ZN7android18BpConsumerListenerD1Ev"
  },
  {
   "name" : "_ZN7android18BpConsumerListenerD2Ev"
  },
  {
   "name" : "_ZN7android18BpProducerListenerD0Ev"
  },
  {
   "name" : "_ZN7android18BpProducerListenerD1Ev"
  },
  {
   "name" : "_ZN7android18BpProducerListenerD2Ev"
  },
  {
   "name" : "_ZN7android18LWProducerListener16onBufferReleasedEv"
  },
  {
   "name" : "_ZN7android18LWProducerListener18needsReleaseNotifyEv"
  },
  {
   "name" : "_ZN7android18LWProducerListenerC1ERKNS_2spINS_8hardware8graphics11bufferqueue4V1_017IProducerListenerEEE"
  },
  {
   "name" : "_ZN7android18LWProducerListenerC2ERKNS_2spINS_8hardware8graphics11bufferqueue4V1_017IProducerListenerEEE"
  },
  {
   "name" : "_ZN7android18TWProducerListener16onBufferReleasedEv"
  },
  {
   "name" : "_ZN7android18TWProducerListener18needsReleaseNotifyEv"
  },
  {
   "name" : "_ZN7android18TWProducerListenerC1ERKNS_2spINS_17IProducerListenerEEE"
  },
  {
   "name" : "_ZN7android18TWProducerListenerC2ERKNS_2spINS_17IProducerListenerEEE"
  },
  {
   "name" : "_ZN7android19BufferQueueConsumer10disconnectEv"
  },
  {
   "name" : "_ZN7android19BufferQueueConsumer12attachBufferEPiRKNS_2spINS_13GraphicBufferEEE"
  },
  {
   "name" : "_ZN7android19BufferQueueConsumer12detachBufferEi"
  },
  {
   "name" : "_ZN7android19BufferQueueConsumer13acquireBufferEPNS_10BufferItemElm"
  },
  {
   "name" : "_ZN7android19BufferQueueConsumer13releaseBufferEimRKNS_2spINS_5FenceEEEPvS6_"
  },
  {
   "name" : "_ZN7android19BufferQueueConsumer15setConsumerNameERKNS_7String8E"
  },
  {
   "name" : "_ZN7android19BufferQueueConsumer16setTransformHintEj"
  },
  {
   "name" : "_ZN7android19BufferQueueConsumer17setMaxBufferCountEi"
  },
  {
   "name" : "_ZN7android19BufferQueueConsumer18discardFreeBuffersEv"
  },
  {
   "name" : "_ZN7android19BufferQueueConsumer18getReleasedBuffersEPm"
  },
  {
   "name" : "_ZN7android19BufferQueueConsumer19getOccupancyHistoryEbPNSt3__16vectorINS_16OccupancyTracker7SegmentENS1_9allocatorIS4_EEEE"
  },
  {
   "name" : "_ZN7android19BufferQueueConsumer20setConsumerUsageBitsEm"
  },
  {
   "name" : "_ZN7android19BufferQueueConsumer20setDefaultBufferSizeEjj"
  },
  {
   "name" : "_ZN7android19BufferQueueConsumer22setConsumerIsProtectedEb"
  },
  {
   "name" : "_ZN7android19BufferQueueConsumer22setDefaultBufferFormatEi"
  },
  {
   "name" : "_ZN7android19BufferQueueConsumer25setDefaultBufferDataSpaceE19android_dataspace_t"
  },
  {
   "name" : "_ZN7android19BufferQueueConsumer25setMaxAcquiredBufferCountEi"
  },
  {
   "name" : "_ZN7android19BufferQueueConsumer7connectERKNS_2spINS_17IConsumerListenerEEEb"
  },
  {
   "name" : "_ZN7android19BufferQueueConsumerC1ERKNS_2spINS_15BufferQueueCoreEEE"
  },
  {
   "name" : "_ZN7android19BufferQueueConsumerC2ERKNS_2spINS_15BufferQueueCoreEEE"
  },
  {
   "name" : "_ZN7android19BufferQueueConsumerD0Ev"
  },
  {
   "name" : "_ZN7android19BufferQueueConsumerD1Ev"
  },
  {
   "name" : "_ZN7android19BufferQueueConsumerD2Ev"
  },
  {
   "name" : "_ZN7android19BufferQueueProducer10binderDiedERKNS_2wpINS_7IBinderEEE"
  },
  {
   "name" : "_ZN7android19BufferQueueProducer10disconnectEiNS_22IGraphicBufferProducer14DisconnectModeE"
  },
  {
   "name" : "_ZN7android19BufferQueueProducer11queueBufferEiRKNS_22IGraphicBufferProducer16QueueBufferInputEPNS1_17QueueBufferOutputE"
  },
  {
   "name" : "_ZN7android19BufferQueueProducer12attachBufferEPiRKNS_2spINS_13GraphicBufferEEE"
  },
  {
   "name" : "_ZN7android19BufferQueueProducer12cancelBufferEiRKNS_2spINS_5FenceEEE"
  },
  {
   "name" : "_ZN7android19BufferQueueProducer12detachBufferEi"
  },
  {
   "name" : "_ZN7android19BufferQueueProducer12setAsyncModeEb"
  },
  {
   "name" : "_ZN7android19BufferQueueProducer13dequeueBufferEPiPNS_2spINS_5FenceEEEjjimPmPNS_22FrameEventHistoryDeltaE"
  },
  {
   "name" : "_ZN7android19BufferQueueProducer13requestBufferEiPNS_2spINS_13GraphicBufferEEE"
  },
  {
   "name" : "_ZN7android19BufferQueueProducer14setAutoRefreshEb"
  },
  {
   "name" : "_ZN7android19BufferQueueProducer15allocateBuffersEjjim"
  },
  {
   "name" : "_ZN7android19BufferQueueProducer15allowAllocationEb"
  },
  {
   "name" : "_ZN7android19BufferQueueProducer16detachNextBufferEPNS_2spINS_13GraphicBufferEEEPNS1_INS_5FenceEEE"
  },
  {
   "name" : "_ZN7android19BufferQueueProducer17setDequeueTimeoutEl"
  },
  {
   "name" : "_ZN7android19BufferQueueProducer17setSidebandStreamERKNS_2spINS_12NativeHandleEEE"
  },
  {
   "name" : "_ZN7android19BufferQueueProducer18getFrameTimestampsEPNS_22FrameEventHistoryDeltaE"
  },
  {
   "name" : "_ZN7android19BufferQueueProducer19getLastQueuedBufferEPNS_2spINS_13GraphicBufferEEEPNS1_INS_5FenceEEEPf"
  },
  {
   "name" : "_ZN7android19BufferQueueProducer19setGenerationNumberEj"
  },
  {
   "name" : "_ZN7android19BufferQueueProducer19setLegacyBufferDropEb"
  },
  {
   "name" : "_ZN7android19BufferQueueProducer19setSharedBufferModeEb"
  },
  {
   "name" : "_ZN7android19BufferQueueProducer24addAndGetFrameTimestampsEPKNS_19NewFrameEventsEntryEPNS_22FrameEventHistoryDeltaE"
  },
  {
   "name" : "_ZN7android19BufferQueueProducer25setMaxDequeuedBufferCountEi"
  },
  {
   "name" : "_ZN7android19BufferQueueProducer5queryEiPi"
  },
  {
   "name" : "_ZN7android19BufferQueueProducer7connectERKNS_2spINS_17IProducerListenerEEEibPNS_22IGraphicBufferProducer17QueueBufferOutputE"
  },
  {
   "name" : "_ZN7android19BufferQueueProducerC1ERKNS_2spINS_15BufferQueueCoreEEEb"
  },
  {
   "name" : "_ZN7android19BufferQueueProducerC2ERKNS_2spINS_15BufferQueueCoreEEEb"
  },
  {
   "name" : "_ZN7android19BufferQueueProducerD0Ev"
  },
  {
   "name" : "_ZN7android19BufferQueueProducerD1Ev"
  },
  {
   "name" : "_ZN7android19BufferQueueProducerD2Ev"
  },
  {
   "name" : "_ZN7android19GraphicBufferSource10setSuspendEbl"
  },
  {
   "name" : "_ZN7android19GraphicBufferSource13setStopTimeUsEl"
  },
  {
   "name" : "_ZN7android19GraphicBufferSource14setStartTimeUsEl"
  },
  {
   "name" : "_ZN7android19GraphicBufferSource14submitBuffer_lERKNS0_11VideoBufferE"
  },
  {
   "name" : "_ZN7android19GraphicBufferSource15acquireBuffer_lEPNS0_11VideoBufferE"
  },
  {
   "name" : "_ZN7android19GraphicBufferSource15setColorAspectsEi"
  },
  {
   "name" : "_ZN7android19GraphicBufferSource15setTimeOffsetUsEl"
  },
  {
   "name" : "_ZN7android19GraphicBufferSource16onFrameAvailableERKNS_10BufferItemE"
  },
  {
   "name" : "_ZN7android19GraphicBufferSource17fillCodecBuffer_lEv"
  },
  {
   "name" : "_ZN7android19GraphicBufferSource17onBuffersReleasedEv"
  },
  {
   "name" : "_ZN7android19GraphicBufferSource17onMessageReceivedERKNS_2spINS_8AMessageEEE"
  },
  {
   "name" : "_ZN7android19GraphicBufferSource17setLatestBuffer_lERKNS0_11VideoBufferE"
  },
  {
   "name" : "_ZN7android19GraphicBufferSource18onBufferAcquired_lERKNS0_11VideoBufferE"
  },
  {
   "name" : "_ZN7android19GraphicBufferSource18onInputBufferAddedEi"
  },
  {
   "name" : "_ZN7android19GraphicBufferSource18queueFrameRepeat_lEv"
  },
  {
   "name" : "_ZN7android19GraphicBufferSource18setTimeLapseConfigEdd"
  },
  {
   "name" : "_ZN7android19GraphicBufferSource19getStopTimeOffsetUsEPl"
  },
  {
   "name" : "_ZN7android19GraphicBufferSource20onDataspaceChanged_lE19android_dataspace_t22android_pixel_format_t"
  },
  {
   "name" : "_ZN7android19GraphicBufferSource20onInputBufferEmptiedEii"
  },
  {
   "name" : "_ZN7android19GraphicBufferSource20repeatLatestBuffer_lEv"
  },
  {
   "name" : "_ZN7android19GraphicBufferSource21discardBufferInSlot_lEi"
  },
  {
   "name" : "_ZN7android19GraphicBufferSource22signalEndOfInputStreamEv"
  },
  {
   "name" : "_ZN7android19GraphicBufferSource23onSidebandStreamChangedEv"
  },
  {
   "name" : "_ZN7android19GraphicBufferSource24submitEndOfInputStream_lEv"
  },
  {
   "name" : "_ZN7android19GraphicBufferSource25calculateCodecTimestamp_lElPl"
  },
  {
   "name" : "_ZN7android19GraphicBufferSource26discardBufferAtSlotIndex_lEl"
  },
  {
   "name" : "_ZN7android19GraphicBufferSource28releaseAllAvailableBuffers_lEv"
  },
  {
   "name" : "_ZN7android19GraphicBufferSource29setRepeatPreviousFrameDelayUsEl"
  },
  {
   "name" : "_ZN7android19GraphicBufferSource33areWeDiscardingAvailableBuffers_lEv"
  },
  {
   "name" : "_ZN7android19GraphicBufferSource4stopEv"
  },
  {
   "name" : "_ZN7android19GraphicBufferSource5startEv"
  },
  {
   "name" : "_ZN7android19GraphicBufferSource7releaseEv"
  },
  {
   "name" : "_ZN7android19GraphicBufferSource9configureERKNS_2spINS_16ComponentWrapperEEEiijjj"
  },
  {
   "name" : "_ZN7android19GraphicBufferSource9setMaxFpsEf"
  },
  {
   "name" : "_ZN7android19GraphicBufferSourceC1Ev"
  },
  {
   "name" : "_ZN7android19GraphicBufferSourceC2Ev"
  },
  {
   "name" : "_ZN7android19GraphicBufferSourceD0Ev"
  },
  {
   "name" : "_ZN7android19GraphicBufferSourceD1Ev"
  },
  {
   "name" : "_ZN7android19GraphicBufferSourceD2Ev"
  },
  {
   "name" : "_ZN7android21DummyProducerListenerD0Ev"
  },
  {
   "name" : "_ZN7android21DummyProducerListenerD1Ev"
  },
  {
   "name" : "_ZN7android21DummyProducerListenerD2Ev"
  },
  {
   "name" : "_ZN7android22BufferQueueThreadState13getCallingPidEv"
  },
  {
   "name" : "_ZN7android22BufferQueueThreadState13getCallingUidEv"
  },
  {
   "name" : "_ZN7android22FrameEventHistoryDelta9unflattenERPKvRmRPKiS4_"
  },
  {
   "name" : "_ZN7android22FrameEventHistoryDeltaaSEOS0_"
  },
  {
   "name" : "_ZN7android22IGraphicBufferConsumer11asInterfaceERKNS_2spINS_7IBinderEEE"
  },
  {
   "name" : "_ZN7android22IGraphicBufferConsumer14getDefaultImplEv"
  },
  {
   "name" : "_ZN7android22IGraphicBufferConsumer14setDefaultImplENSt3__110unique_ptrIS0_NS1_14default_deleteIS0_EEEE"
  },
  {
   "name" : "_ZN7android22IGraphicBufferConsumerC2Ev"
  },
  {
   "name" : "_ZN7android22IGraphicBufferConsumerD0Ev"
  },
  {
   "name" : "_ZN7android22IGraphicBufferConsumerD1Ev"
  },
  {
   "name" : "_ZN7android22IGraphicBufferConsumerD2Ev"
  },
  {
   "name" : "_ZN7android22IGraphicBufferProducer11asInterfaceERKNS_2spINS_7IBinderEEE"
  },
  {
   "name" : "_ZN7android22IGraphicBufferProducer14exportToParcelEPNS_6ParcelE"
  },
  {
   "name" : "_ZN7android22IGraphicBufferProducer14exportToParcelERKNS_2spIS0_EEPNS_6ParcelE"
  },
  {
   "name" : "_ZN7android22IGraphicBufferProducer16QueueBufferInput9unflattenERPKvRmRPKiS5_"
  },
  {
   "name" : "_ZN7android22IGraphicBufferProducer16createFromParcelEPKNS_6ParcelE"
  },
  {
   "name" : "_ZN7android22IGraphicBufferProducer17QueueBufferOutput9unflattenERPKvRmRPKiS5_"
  },
  {
   "name" : "_ZN7android22IGraphicBufferProducer19setLegacyBufferDropEb"
  },
  {
   "name" : "_ZN7android22IGraphicBufferProducerC2Ev"
  },
  {
   "name" : "_ZN7android22IGraphicBufferProducerD0Ev"
  },
  {
   "name" : "_ZN7android22IGraphicBufferProducerD1Ev"
  },
  {
   "name" : "_ZN7android22IGraphicBufferProducerD2Ev"
  },
  {
   "name" : "_ZN7android23BnGraphicBufferConsumer10onTransactEjRKNS_6ParcelEPS1_j"
  },
  {
   "name" : "_ZN7android23BnGraphicBufferProducer10onTransactEjRKNS_6ParcelEPS1_j"
  },
  {
   "name" : "_ZN7android23BpGraphicBufferConsumerD0Ev"
  },
  {
   "name" : "_ZN7android23BpGraphicBufferConsumerD1Ev"
  },
  {
   "name" : "_ZN7android23BpGraphicBufferConsumerD2Ev"
  },
  {
   "name" : "_ZN7android23BpGraphicBufferProducerD0Ev"
  },
  {
   "name" : "_ZN7android23BpGraphicBufferProducerD1Ev"
  },
  {
   "name" : "_ZN7android23BpGraphicBufferProducerD2Ev"
  },
  {
   "name" : "_ZN7android25ConsumerFrameEventHistory10addReleaseEmlONSt3__110shared_ptrINS_9FenceTimeEEE"
  },
  {
   "name" : "_ZN7android25ConsumerFrameEventHistory12onDisconnectEv"
  },
  {
   "name" : "_ZN7android25ConsumerFrameEventHistory13getFrameDeltaEPNS_22FrameEventHistoryDeltaERKPNS_11FrameEventsE"
  },
  {
   "name" : "_ZN7android25ConsumerFrameEventHistory16getAndResetDeltaEPNS_22FrameEventHistoryDeltaE"
  },
  {
   "name" : "_ZN7android25ConsumerFrameEventHistory17addPreCompositionEml"
  },
  {
   "name" : "_ZN7android25ConsumerFrameEventHistory18addPostCompositionEmRKNSt3__110shared_ptrINS_9FenceTimeEEES6_RKNS_16CompositorTimingE"
  },
  {
   "name" : "_ZN7android25ConsumerFrameEventHistory26initializeCompositorTimingERKNS_16CompositorTimingE"
  },
  {
   "name" : "_ZN7android25ConsumerFrameEventHistory8addLatchEml"
  },
  {
   "name" : "_ZN7android25ConsumerFrameEventHistory8addQueueERKNS_19NewFrameEventsEntryE"
  },
  {
   "name" : "_ZN7android25ConsumerFrameEventHistoryD0Ev"
  },
  {
   "name" : "_ZN7android25ConsumerFrameEventHistoryD1Ev"
  },
  {
   "name" : "_ZN7android25ConsumerFrameEventHistoryD2Ev"
  },
  {
   "name" : "_ZN7android25ProducerFrameEventHistory10applyDeltaERKNS_22FrameEventHistoryDeltaE"
  },
  {
   "name" : "_ZN7android25ProducerFrameEventHistory14snapToNextTickElll"
  },
  {
   "name" : "_ZN7android25ProducerFrameEventHistory17updateSignalTimesEv"
  },
  {
   "name" : "_ZN7android25ProducerFrameEventHistory18updateAcquireFenceEmONSt3__110shared_ptrINS_9FenceTimeEEE"
  },
  {
   "name" : "_ZN7android25ProducerFrameEventHistoryD0Ev"
  },
  {
   "name" : "_ZN7android25ProducerFrameEventHistoryD1Ev"
  },
  {
   "name" : "_ZN7android25ProducerFrameEventHistoryD2Ev"
  },
  {
   "binding" : "weak",
   "name" : "_ZN7android2spINS_5FenceEEaSEPS1_"
  },
  {
   "binding" : "weak",
   "name" : "_ZN7android2spINS_5FenceEEaSERKS2_"
  },
  {
   "name" : "_ZN7android8hardware8graphics11bufferqueue4V1_05utils19B2HProducerListener16onBufferReleasedEv"
  },
  {
   "name" : "_ZN7android8hardware8graphics11bufferqueue4V1_05utils19B2HProducerListener18needsReleaseNotifyEv"
  },
  {
   "name" : "_ZN7android8hardware8graphics11bufferqueue4V1_05utils19B2HProducerListenerC1ERKNS_2spINS_17IProducerListenerEEE"
  },
  {
   "name" : "_ZN7android8hardware8graphics11bufferqueue4V1_05utils19B2HProducerListenerC2ERKNS_2spINS_17IProducerListenerEEE"
  },
  {
   "name" : "_ZN7android8hardware8graphics11bufferqueue4V1_05utils19H2BProducerListener16onBufferReleasedEv"
  },
  {
   "name" : "_ZN7android8hardware8graphics11bufferqueue4V1_05utils19H2BProducerListener18needsReleaseNotifyEv"
  },
  {
   "name" : "_ZN7android8hardware8graphics11bufferqueue4V1_05utils19H2BProducerListenerC1ERKNS_2spINS3_17IProducerListenerEEE"
  },
  {
   "name" : "_ZN7android8hardware8graphics11bufferqueue4V1_05utils19H2BProducerListenerC2ERKNS_2spINS3_17IProducerListenerEEE"
  },
  {
   "name" : "_ZN7android8hardware8graphics11bufferqueue4V1_05utils24H2BGraphicBufferProducer10disconnectEiNS_22IGraphicBufferProducer14DisconnectModeE"
  },
  {
   "name" : "_ZN7android8hardware8graphics11bufferqueue4V1_05utils24H2BGraphicBufferProducer11queueBufferEiRKNS_22IGraphicBufferProducer16QueueBufferInputEPNS6_17QueueBufferOutputE"
  },
  {
   "name" : "_ZN7android8hardware8graphics11bufferqueue4V1_05utils24H2BGraphicBufferProducer12attachBufferEPiRKNS_2spINS_13GraphicBufferEEE"
  },
  {
   "name" : "_ZN7android8hardware8graphics11bufferqueue4V1_05utils24H2BGraphicBufferProducer12cancelBufferEiRKNS_2spINS_5FenceEEE"
  },
  {
   "name" : "_ZN7android8hardware8graphics11bufferqueue4V1_05utils24H2BGraphicBufferProducer12detachBufferEi"
  },
  {
   "name" : "_ZN7android8hardware8graphics11bufferqueue4V1_05utils24H2BGraphicBufferProducer12setAsyncModeEb"
  },
  {
   "name" : "_ZN7android8hardware8graphics11bufferqueue4V1_05utils24H2BGraphicBufferProducer13dequeueBufferEPiPNS_2spINS_5FenceEEEjjimPmPNS_22FrameEventHistoryDeltaE"
  },
  {
   "name" : "_ZN7android8hardware8graphics11bufferqueue4V1_05utils24H2BGraphicBufferProducer13requestBufferEiPNS_2spINS_13GraphicBufferEEE"
  },
  {
   "name" : "_ZN7android8hardware8graphics11bufferqueue4V1_05utils24H2BGraphicBufferProducer14setAutoRefreshEb"
  },
  {
   "name" : "_ZN7android8hardware8graphics11bufferqueue4V1_05utils24H2BGraphicBufferProducer15allocateBuffersEjjim"
  },
  {
   "name" : "_ZN7android8hardware8graphics11bufferqueue4V1_05utils24H2BGraphicBufferProducer15allowAllocationEb"
  },
  {
   "name" : "_ZN7android8hardware8graphics11bufferqueue4V1_05utils24H2BGraphicBufferProducer16detachNextBufferEPNS_2spINS_13GraphicBufferEEEPNS6_INS_5FenceEEE"
  },
  {
   "name" : "_ZN7android8hardware8graphics11bufferqueue4V1_05utils24H2BGraphicBufferProducer17setDequeueTimeoutEl"
  },
  {
   "name" : "_ZN7android8hardware8graphics11bufferqueue4V1_05utils24H2BGraphicBufferProducer17setSidebandStreamERKNS_2spINS_12NativeHandleEEE"
  },
  {
   "name" : "_ZN7android8hardware8graphics11bufferqueue4V1_05utils24H2BGraphicBufferProducer18getFrameTimestampsEPNS_22FrameEventHistoryDeltaE"
  },
  {
   "name" : "_ZN7android8hardware8graphics11bufferqueue4V1_05utils24H2BGraphicBufferProducer19getLastQueuedBufferEPNS_2spINS_13GraphicBufferEEEPNS6_INS_5FenceEEEPf"
  },
  {
   "name" : "_ZN7android8hardware8graphics11bufferqueue4V1_05utils24H2BGraphicBufferProducer19setGenerationNumberEj"
  },
  {
   "name" : "_ZN7android8hardware8graphics11bufferqueue4V1_05utils24H2BGraphicBufferProducer19setSharedBufferModeEb"
  },
  {
   "name" : "_ZN7android8hardware8graphics11bufferqueue4V1_05utils24H2BGraphicBufferProducer25setMaxDequeuedBufferCountEi"
  },
  {
   "name" : "_ZN7android8hardware8graphics11bufferqueue4V1_05utils24H2BGraphicBufferProducer5queryEiPi"
  },
  {
   "name" : "_ZN7android8hardware8graphics11bufferqueue4V1_05utils24H2BGraphicBufferProducer7connectERKNS_2spINS_17IProducerListenerEEEibPNS_22IGraphicBufferProducer17QueueBufferOutputE"
  },
  {
   "name" : "_ZN7android8hardware8graphics11bufferqueue4V2_05utils13HFenceWrapper3setEP13native_handle"
  },
  {
   "name" : "_ZN7android8hardware8graphics11bufferqueue4V2_05utils13HFenceWrapperC1EP13native_handle"
  },
  {
   "name" : "_ZN7android8hardware8graphics11bufferqueue4V2_05utils13HFenceWrapperC2EP13native_handle"
  },
  {
   "name" : "_ZN7android8hardware8graphics11bufferqueue4V2_05utils13HFenceWrapperD1Ev"
  },
  {
   "name" : "_ZN7android8hardware8graphics11bufferqueue4V2_05utils13HFenceWrapperD2Ev"
  },
  {
   "name" : "_ZN7android8hardware8graphics11bufferqueue4V2_05utils13HFenceWrapperaSEP13native_handle"
  },
  {
   "name" : "_ZN7android8hardware8graphics11bufferqueue4V2_05utils19B2HProducerListener17onBuffersReleasedEj"
  },
  {
   "name" : "_ZN7android8hardware8graphics11bufferqueue4V2_05utils19B2HProducerListenerC1ERKNS_2spINS_17IProducerListenerEEE"
  },
  {
   "name" : "_ZN7android8hardware8graphics11bufferqueue4V2_05utils19B2HProducerListenerC2ERKNS_2spINS_17IProducerListenerEEE"
  },
  {
   "name" : "_ZN7android8hardware8graphics11bufferqueue4V2_05utils19H2BProducerListener16onBufferReleasedEv"
  },
  {
   "name" : "_ZN7android8hardware8graphics11bufferqueue4V2_05utils19H2BProducerListener18needsReleaseNotifyEv"
  },
  {
   "name" : "_ZN7android8hardware8graphics11bufferqueue4V2_05utils19H2BProducerListenerC1ERKNS_2spINS3_17IProducerListenerEEE"
  },
  {
   "name" : "_ZN7android8hardware8graphics11bufferqueue4V2_05utils19H2BProducerListenerC2ERKNS_2spINS3_17IProducerListenerEEE"
  },
  {
   "name" : "_ZN7android8hardware8graphics11bufferqueue4V2_05utils24B2HGraphicBufferProducer10disconnectENS3_14ConnectionTypeE"
  },
  {
   "name" : "_ZN7android8hardware8graphics11bufferqueue4V2_05utils24B2HGraphicBufferProducer11getUniqueIdEv"
  },
  {
   "name" : "_ZN7android8hardware8graphics11bufferqueue4V2_05utils24B2HGraphicBufferProducer11queueBufferEiRKNS3_22IGraphicBufferProducer16QueueBufferInputENSt3__18functionIFvNS3_6StatusERKNS6_17QueueBufferOutputEEEE"
  },
  {
   "name" : "_ZN7android8hardware8graphics11bufferqueue4V2_05utils24B2HGraphicBufferProducer12attachBufferERKNS1_6common4V1_214HardwareBufferEjNSt3__18functionIFvNS3_6StatusEibEEE"
  },
  {
   "name" : "_ZN7android8hardware8graphics11bufferqueue4V2_05utils24B2HGraphicBufferProducer12cancelBufferEiRKNS0_11hidl_handleE"
  },
  {
   "name" : "_ZN7android8hardware8graphics11bufferqueue4V2_05utils24B2HGraphicBufferProducer12detachBufferEi"
  },
  {
   "name" : "_ZN7android8hardware8graphics11bufferqueue4V2_05utils24B2HGraphicBufferProducer12setAsyncModeEb"
  },
  {
   "name" : "_ZN7android8hardware8graphics11bufferqueue4V2_05utils24B2HGraphicBufferProducer13dequeueBufferERKNS3_22IGraphicBufferProducer18DequeueBufferInputENSt3__18functionIFvNS3_6StatusEiRKNS6_19DequeueBufferOutputEEEE"
  },
  {
   "name" : "_ZN7android8hardware8graphics11bufferqueue4V2_05utils24B2HGraphicBufferProducer13requestBufferEiNSt3__18functionIFvNS3_6StatusERKNS1_6common4V1_214HardwareBufferEjEEE"
  },
  {
   "name" : "_ZN7android8hardware8graphics11bufferqueue4V2_05utils24B2HGraphicBufferProducer15allocateBuffersEjjjm"
  },
  {
   "name" : "_ZN7android8hardware8graphics11bufferqueue4V2_05utils24B2HGraphicBufferProducer15allowAllocationEb"
  },
  {
   "name" : "_ZN7android8hardware8graphics11bufferqueue4V2_05utils24B2HGraphicBufferProducer15getConsumerNameENSt3__18functionIFvRKNS0_11hidl_stringEEEE"
  },
  {
   "name" : "_ZN7android8hardware8graphics11bufferqueue4V2_05utils24B2HGraphicBufferProducer16detachNextBufferENSt3__18functionIFvNS3_6StatusERKNS1_6common4V1_214HardwareBufferERKNS0_11hidl_handleEEEE"
  },
  {
   "name" : "_ZN7android8hardware8graphics11bufferqueue4V2_05utils24B2HGraphicBufferProducer17setDequeueTimeoutEl"
  },
  {
   "name" : "_ZN7android8hardware8graphics11bufferqueue4V2_05utils24B2HGraphicBufferProducer19setGenerationNumberEj"
  },
  {
   "name" : "_ZN7android8hardware8graphics11bufferqueue4V2_05utils24B2HGraphicBufferProducer25setMaxDequeuedBufferCountEi"
  },
  {
   "name" : "_ZN7android8hardware8graphics11bufferqueue4V2_05utils24B2HGraphicBufferProducer5queryEiNSt3__18functionIFviiEEE"
  },
  {
   "name" : "_ZN7android8hardware8graphics11bufferqueue4V2_05utils24B2HGraphicBufferProducer7connectERKNS_2spINS3_17IProducerListenerEEENS3_14ConnectionTypeEbNSt3__18functionIFvNS3_6StatusERKNS3_22IGraphicBufferProducer17QueueBufferOutputEEEE"
  },
  {
   "name" : "_ZN7android8hardware8graphics11bufferqueue4V2_05utils24B2HGraphicBufferProducerC1ERKNS_2spINS_22IGraphicBufferProducerEEE"
  },
  {
   "name" : "_ZN7android8hardware8graphics11bufferqueue4V2_05utils24B2HGraphicBufferProducerC2ERKNS_2spINS_22IGraphicBufferProducerEEE"
  },
  {
   "name" : "_ZN7android8hardware8graphics11bufferqueue4V2_05utils24H2BGraphicBufferProducer10disconnectEiNS_22IGraphicBufferProducer14DisconnectModeE"
  },
  {
   "name" : "_ZN7android8hardware8graphics11bufferqueue4V2_05utils24H2BGraphicBufferProducer11queueBufferEiRKNS_22IGraphicBufferProducer16QueueBufferInputEPNS6_17QueueBufferOutputE"
  },
  {
   "name" : "_ZN7android8hardware8graphics11bufferqueue4V2_05utils24H2BGraphicBufferProducer12attachBufferEPiRKNS_2spINS_13GraphicBufferEEE"
  },
  {
   "name" : "_ZN7android8hardware8graphics11bufferqueue4V2_05utils24H2BGraphicBufferProducer12cancelBufferEiRKNS_2spINS_5FenceEEE"
  },
  {
   "name" : "_ZN7android8hardware8graphics11bufferqueue4V2_05utils24H2BGraphicBufferProducer12detachBufferEi"
  },
  {
   "name" : "_ZN7android8hardware8graphics11bufferqueue4V2_05utils24H2BGraphicBufferProducer12setAsyncModeEb"
  },
  {
   "name" : "_ZN7android8hardware8graphics11bufferqueue4V2_05utils24H2BGraphicBufferProducer13dequeueBufferEPiPNS_2spINS_5FenceEEEjjimPmPNS_22FrameEventHistoryDeltaE"
  },
  {
   "name" : "_ZN7android8hardware8graphics11bufferqueue4V2_05utils24H2BGraphicBufferProducer13requestBufferEiPNS_2spINS_13GraphicBufferEEE"
  },
  {
   "name" : "_ZN7android8hardware8graphics11bufferqueue4V2_05utils24H2BGraphicBufferProducer14setAutoRefreshEb"
  },
  {
   "name" : "_ZN7android8hardware8graphics11bufferqueue4V2_05utils24H2BGraphicBufferProducer15allocateBuffersEjjim"
  },
  {
   "name" : "_ZN7android8hardware8graphics11bufferqueue4V2_05utils24H2BGraphicBufferProducer15allowAllocationEb"
  },
  {
   "name" : "_ZN7android8hardware8graphics11bufferqueue4V2_05utils24H2BGraphicBufferProducer16detachNextBufferEPNS_2spINS_13GraphicBufferEEEPNS6_INS_5FenceEEE"
  },
  {
   "name" : "_ZN7android8hardware8graphics11bufferqueue4V2_05utils24H2BGraphicBufferProducer17setDequeueTimeoutEl"
  },
  {
   "name" : "_ZN7android8hardware8graphics11bufferqueue4V2_05utils24H2BGraphicBufferProducer17setSidebandStreamERKNS_2spINS_12NativeHandleEEE"
  },
  {
   "name" : "_ZN7android8hardware8graphics11bufferqueue4V2_05utils24H2BGraphicBufferProducer18getFrameTimestampsEPNS_22FrameEventHistoryDeltaE"
  },
  {
   "name" : "_ZN7android8hardware8graphics11bufferqueue4V2_05utils24H2BGraphicBufferProducer19getLastQueuedBufferEPNS_2spINS_13GraphicBufferEEEPNS6_INS_5FenceEEEPf"
  },
  {
   "name" : "_ZN7android8hardware8graphics11bufferqueue4V2_05utils24H2BGraphicBufferProducer19setGenerationNumberEj"
  },
  {
   "name" : "_ZN7android8hardware8graphics11bufferqueue4V2_05utils24H2BGraphicBufferProducer19setSharedBufferModeEb"
  },
  {
   "name" : "_ZN7android8hardware8graphics11bufferqueue4V2_05utils24H2BGraphicBufferProducer25setMaxDequeuedBufferCountEi"
  },
  {
   "name" : "_ZN7android8hardware8graphics11bufferqueue4V2_05utils24H2BGraphicBufferProducer5queryEiPi"
  },
  {
   "name" : "_ZN7android8hardware8graphics11bufferqueue4V2_05utils24H2BGraphicBufferProducer7connectERKNS_2spINS_17IProducerListenerEEEibPNS_22IGraphicBufferProducer17QueueBufferOutputE"
  },
  {
   "name" : "_ZN7android8hardware8graphics11bufferqueue4V2_05utils3b2hERKNS_2spINS_13GraphicBufferEEEPNS1_6common4V1_214HardwareBufferEPj"
  },
  {
   "name" : "_ZN7android8hardware8graphics11bufferqueue4V2_05utils3b2hERKNS_2spINS_5FenceEEEPNS4_13HFenceWrapperE"
  },
  {
   "name" : "_ZN7android8hardware8graphics11bufferqueue4V2_05utils3b2hERKNS_4RectEPNS0_10hidl_arrayIiLm4EJEEE"
  },
  {
   "name" : "_ZN7android8hardware8graphics11bufferqueue4V2_05utils3b2hERKNS_6RegionEPNS0_8hidl_vecINS0_10hidl_arrayIiLm4EJEEEEE"
  },
  {
   "name" : "_ZN7android8hardware8graphics11bufferqueue4V2_05utils3b2hEiPNS3_14ConnectionTypeE"
  },
  {
   "name" : "_ZN7android8hardware8graphics11bufferqueue4V2_05utils3b2hEiPNS3_6StatusEPbS7_"
  },
  {
   "name" : "_ZN7android8hardware8graphics11bufferqueue4V2_05utils3h2bENS3_14ConnectionTypeEPi"
  },
  {
   "name" : "_ZN7android8hardware8graphics11bufferqueue4V2_05utils3h2bENS3_6StatusEPi"
  },
  {
   "name" : "_ZN7android8hardware8graphics11bufferqueue4V2_05utils3h2bEPK13native_handlePNS_2spINS_5FenceEEE"
  },
  {
   "name" : "_ZN7android8hardware8graphics11bufferqueue4V2_05utils3h2bERKNS0_10hidl_arrayIiLm4EJEEEPNS_4RectE"
  },
  {
   "name" : "_ZN7android8hardware8graphics11bufferqueue4V2_05utils3h2bERKNS0_8hidl_vecINS0_10hidl_arrayIiLm4EJEEEEEPNS_6RegionE"
  },
  {
   "name" : "_ZN7android8hardware8graphics11bufferqueue4V2_05utils3h2bERKNS1_6common4V1_214HardwareBufferEPNS_2spINS_13GraphicBufferEEE"
  },
  {
   "name" : "_ZNK7android10BufferItem10getFdCountEv"
  },
  {
   "name" : "_ZNK7android10BufferItem10getPodSizeEv"
  },
  {
   "name" : "_ZNK7android10BufferItem16getFlattenedSizeEv"
  },
  {
   "name" : "_ZNK7android10BufferItem7flattenERPvRmRPiS3_"
  },
  {
   "name" : "_ZNK7android11BufferState6stringEv"
  },
  {
   "name" : "_ZNK7android11FrameEvents12hasLatchInfoEv"
  },
  {
   "name" : "_ZNK7android11FrameEvents13hasPostedInfoEv"
  },
  {
   "name" : "_ZNK7android11FrameEvents14hasAcquireInfoEv"
  },
  {
   "name" : "_ZNK7android11FrameEvents14hasReleaseInfoEv"
  },
  {
   "name" : "_ZNK7android11FrameEvents19hasDequeueReadyInfoEv"
  },
  {
   "name" : "_ZNK7android11FrameEvents21hasDisplayPresentInfoEv"
  },
  {
   "name" : "_ZNK7android11FrameEvents23hasLastRefreshStartInfoEv"
  },
  {
   "name" : "_ZNK7android11FrameEvents23hasRequestedPresentInfoEv"
  },
  {
   "name" : "_ZNK7android11FrameEvents24hasFirstRefreshStartInfoEv"
  },
  {
   "name" : "_ZNK7android11FrameEvents25hasGpuCompositionDoneInfoEv"
  },
  {
   "name" : "_ZNK7android11FrameEvents4dumpERNSt3__112basic_stringIcNS1_11char_traitsIcEENS1_9allocatorIcEEEE"
  },
  {
   "name" : "_ZNK7android11HdrMetadata16getFlattenedSizeEv"
  },
  {
   "name" : "_ZNK7android11HdrMetadata7flattenEPvm"
  },
  {
   "name" : "_ZNK7android11HdrMetadataeqERKS0_"
  },
  {
   "binding" : "weak",
   "name" : "_ZNK7android12SortedVectorINS_16key_value_pair_tIiNSt3__110shared_ptrINS_19GraphicBufferSource12CachedBufferEEEEEE10do_compareEPKvSA_"
  },
  {
   "binding" : "weak",
   "name" : "_ZNK7android12SortedVectorINS_16key_value_pair_tIiNSt3__110shared_ptrINS_19GraphicBufferSource12CachedBufferEEEEEE10do_destroyEPvm"
  },
  {
   "binding" : "weak",
   "name" : "_ZNK7android12SortedVectorINS_16key_value_pair_tIiNSt3__110shared_ptrINS_19GraphicBufferSource12CachedBufferEEEEEE12do_constructEPvm"
  },
  {
   "binding" : "weak",
   "name" : "_ZNK7android12SortedVectorINS_16key_value_pair_tIiNSt3__110shared_ptrINS_19GraphicBufferSource12CachedBufferEEEEEE15do_move_forwardEPvPKvm"
  },
  {
   "binding" : "weak",
   "name" : "_ZNK7android12SortedVectorINS_16key_value_pair_tIiNSt3__110shared_ptrINS_19GraphicBufferSource12CachedBufferEEEEEE16do_move_backwardEPvPKvm"
  },
  {
   "binding" : "weak",
   "name" : "_ZNK7android12SortedVectorINS_16key_value_pair_tIiNSt3__110shared_ptrINS_19GraphicBufferSource12CachedBufferEEEEEE7do_copyEPvPKvm"
  },
  {
   "binding" : "weak",
   "name" : "_ZNK7android12SortedVectorINS_16key_value_pair_tIiNSt3__110shared_ptrINS_19GraphicBufferSource12CachedBufferEEEEEE8do_splatEPvPKvm"
  },
  {
   "binding" : "weak",
   "name" : "_ZNK7android12SortedVectorINS_16key_value_pair_tIiNSt3__110shared_ptrINS_19GraphicBufferSource14AcquiredBufferEEEEEE10do_compareEPKvSA_"
  },
  {
   "binding" : "weak",
   "name" : "_ZNK7android12SortedVectorINS_16key_value_pair_tIiNSt3__110shared_ptrINS_19GraphicBufferSource14AcquiredBufferEEEEEE10do_destroyEPvm"
  },
  {
   "binding" : "weak",
   "name" : "_ZNK7android12SortedVectorINS_16key_value_pair_tIiNSt3__110shared_ptrINS_19GraphicBufferSource14AcquiredBufferEEEEEE12do_constructEPvm"
  },
  {
   "binding" : "weak",
   "name" : "_ZNK7android12SortedVectorINS_16key_value_pair_tIiNSt3__110shared_ptrINS_19GraphicBufferSource14AcquiredBufferEEEEEE15do_move_forwardEPvPKvm"
  },
  {
   "binding" : "weak",
   "name" : "_ZNK7android12SortedVectorINS_16key_value_pair_tIiNSt3__110shared_ptrINS_19GraphicBufferSource14AcquiredBufferEEEEEE16do_move_backwardEPvPKvm"
  },
  {
   "binding" : "weak",
   "name" : "_ZNK7android12SortedVectorINS_16key_value_pair_tIiNSt3__110shared_ptrINS_19GraphicBufferSource14AcquiredBufferEEEEEE7do_copyEPvPKvm"
  },
  {
   "binding" : "weak",
   "name" : "_ZNK7android12SortedVectorINS_16key_value_pair_tIiNSt3__110shared_ptrINS_19GraphicBufferSource14AcquiredBufferEEEEEE8do_splatEPvPKvm"
  },
  {
   "binding" : "weak",
   "name" : "_ZNK7android12SortedVectorINS_16key_value_pair_tIjjEEE10do_compareEPKvS5_"
  },
  {
   "binding" : "weak",
   "name" : "_ZNK7android12SortedVectorINS_16key_value_pair_tIjjEEE10do_destroyEPvm"
  },
  {
   "binding" : "weak",
   "name" : "_ZNK7android12SortedVectorINS_16key_value_pair_tIjjEEE12do_constructEPvm"
  },
  {
   "binding" : "weak",
   "name" : "_ZNK7android12SortedVectorINS_16key_value_pair_tIjjEEE15do_move_forwardEPvPKvm"
  },
  {
   "binding" : "weak",
   "name" : "_ZNK7android12SortedVectorINS_16key_value_pair_tIjjEEE16do_move_backwardEPvPKvm"
  },
  {
   "binding" : "weak",
   "name" : "_ZNK7android12SortedVectorINS_16key_value_pair_tIjjEEE7do_copyEPvPKvm"
  },
  {
   "binding" : "weak",
   "name" : "_ZNK7android12SortedVectorINS_16key_value_pair_tIjjEEE8do_splatEPvPKvm"
  },
  {
   "name" : "_ZNK7android15BufferQueueCore23getMaxBufferCountLockedEbbi"
  },
  {
   "name" : "_ZNK7android15BufferQueueCore23getMaxBufferCountLockedEv"
  },
  {
   "name" : "_ZNK7android15BufferQueueCore25waitWhileAllocatingLockedERNSt3__111unique_lockINS1_5mutexEEE"
  },
  {
   "name" : "_ZNK7android15BufferQueueCore26getMinMaxBufferCountLockedEv"
  },
  {
   "name" : "_ZNK7android15BufferQueueCore33getMinUndequeuedBufferCountLockedEv"
  },
  {
   "name" : "_ZNK7android15BufferQueueCore9dumpStateERKNS_7String8EPS1_"
  },
  {
   "name" : "_ZNK7android16FrameEventsDelta10getFdCountEv"
  },
  {
   "name" : "_ZNK7android16FrameEventsDelta16getFlattenedSizeEv"
  },
  {
   "name" : "_ZNK7android16FrameEventsDelta7flattenERPvRmRPiS3_"
  },
  {
   "name" : "_ZNK7android16OccupancyTracker7Segment13writeToParcelEPNS_6ParcelE"
  },
  {
   "name" : "_ZNK7android17FrameEventHistory4dumpERNSt3__112basic_stringIcNS1_11char_traitsIcEENS1_9allocatorIcEEEE"
  },
  {
   "name" : "_ZNK7android17IConsumerListener22getInterfaceDescriptorEv"
  },
  {
   "name" : "_ZNK7android17IProducerListener11getHalIndexEv"
  },
  {
   "name" : "_ZNK7android17IProducerListener13getHalVariantEv"
  },
  {
   "name" : "_ZNK7android17IProducerListener22getInterfaceDescriptorEv"
  },
  {
   "name" : "_ZNK7android19BufferQueueConsumer17getSidebandStreamEPNS_2spINS_12NativeHandleEEE"
  },
  {
   "name" : "_ZNK7android19BufferQueueConsumer9dumpStateERKNS_7String8EPS1_"
  },
  {
   "name" : "_ZNK7android19BufferQueueProducer11getUniqueIdEPm"
  },
  {
   "name" : "_ZNK7android19BufferQueueProducer15getConsumerNameEv"
  },
  {
   "name" : "_ZNK7android19BufferQueueProducer16getConsumerUsageEPm"
  },
  {
   "name" : "_ZNK7android19BufferQueueProducer17getFreeSlotLockedEv"
  },
  {
   "name" : "_ZNK7android19BufferQueueProducer19getFreeBufferLockedEv"
  },
  {
   "name" : "_ZNK7android19BufferQueueProducer25waitForFreeSlotThenRelockENS0_14FreeSlotCallerERNSt3__111unique_lockINS2_5mutexEEEPi"
  },
  {
   "name" : "_ZNK7android19GraphicBufferSource25getHGraphicBufferProducerEv"
  },
  {
   "name" : "_ZNK7android19GraphicBufferSource25getIGraphicBufferProducerEv"
  },
  {
   "name" : "_ZNK7android19GraphicBufferSource30getHGraphicBufferProducer_V1_0Ev"
  },
  {
   "name" : "_ZNK7android22FrameEventHistoryDelta10getFdCountEv"
  },
  {
   "name" : "_ZNK7android22FrameEventHistoryDelta16getFlattenedSizeEv"
  },
  {
   "name" : "_ZNK7android22FrameEventHistoryDelta7flattenERPvRmRPiS3_"
  },
  {
   "name" : "_ZNK7android22IGraphicBufferConsumer22getInterfaceDescriptorEv"
  },
  {
   "name" : "_ZNK7android22IGraphicBufferProducer11getHalIndexEv"
  },
  {
   "name" : "_ZNK7android22IGraphicBufferProducer13getHalVariantEv"
  },
  {
   "name" : "_ZNK7android22IGraphicBufferProducer16QueueBufferInput10getFdCountEv"
  },
  {
   "name" : "_ZNK7android22IGraphicBufferProducer16QueueBufferInput16getFlattenedSizeEv"
  },
  {
   "name" : "_ZNK7android22IGraphicBufferProducer16QueueBufferInput7flattenERPvRmRPiS4_"
  },
  {
   "name" : "_ZNK7android22IGraphicBufferProducer17QueueBufferOutput10getFdCountEv"
  },
  {
   "name" : "_ZNK7android22IGraphicBufferProducer17QueueBufferOutput16getFlattenedSizeEv"
  },
  {
   "name" : "_ZNK7android22IGraphicBufferProducer17QueueBufferOutput7flattenERPvRmRPiS4_"
  },
  {
   "name" : "_ZNK7android22IGraphicBufferProducer22getInterfaceDescriptorEv"
  },
  {
   "name" : "_ZNK7android25ProducerFrameEventHistory15applyFenceDeltaEPNS_13FenceTimelineEPNSt3__110shared_ptrINS_9FenceTimeEEERKNS5_8SnapshotE"
  },
  {
   "name" : "_ZNK7android25ProducerFrameEventHistory15createFenceTimeERKNS_2spINS_5FenceEEE"
  },
  {
   "name" : "_ZNK7android25ProducerFrameEventHistory24getNextCompositeDeadlineEl"
  },
  {
   "binding" : "weak",
   "name" : "_ZNK7android6Parcel20readParcelableVectorINS_16OccupancyTracker7SegmentEEEiPNSt3__16vectorIT_NS4_9allocatorIS6_EEEE"
  },
  {
   "binding" : "weak",
   "name" : "_ZNK7android6Parcel24readNullableStrongBinderINS_17IConsumerListenerEEEiPNS_2spIT_EE"
  },
  {
   "binding" : "weak",
   "name" : "_ZNK7android6VectorINS_10BufferItemEE10do_destroyEPvm"
  },
  {
   "binding" : "weak",
   "name" : "_ZNK7android6VectorINS_10BufferItemEE12do_constructEPvm"
  },
  {
   "binding" : "weak",
   "name" : "_ZNK7android6VectorINS_10BufferItemEE15do_move_forwardEPvPKvm"
  },
  {
   "binding" : "weak",
   "name" : "_ZNK7android6VectorINS_10BufferItemEE16do_move_backwardEPvPKvm"
  },
  {
   "binding" : "weak",
   "name" : "_ZNK7android6VectorINS_10BufferItemEE7do_copyEPvPKvm"
  },
  {
   "binding" : "weak",
   "name" : "_ZNK7android6VectorINS_10BufferItemEE8do_splatEPvPKvm"
  },
  {
   "binding" : "weak",
   "name" : "_ZNK7android6VectorINS_2spINS_13GraphicBufferEEEE10do_destroyEPvm"
  },
  {
   "binding" : "weak",
   "name" : "_ZNK7android6VectorINS_2spINS_13GraphicBufferEEEE12do_constructEPvm"
  },
  {
   "binding" : "weak",
   "name" : "_ZNK7android6VectorINS_2spINS_13GraphicBufferEEEE15do_move_forwardEPvPKvm"
  },
  {
   "binding" : "weak",
   "name" : "_ZNK7android6VectorINS_2spINS_13GraphicBufferEEEE16do_move_backwardEPvPKvm"
  },
  {
   "binding" : "weak",
   "name" : "_ZNK7android6VectorINS_2spINS_13GraphicBufferEEEE7do_copyEPvPKvm"
  },
  {
   "binding" : "weak",
   "name" : "_ZNK7android6VectorINS_2spINS_13GraphicBufferEEEE8do_splatEPvPKvm"
  },
  {
   "binding" : "weak",
   "name" : "_ZNK7android6VectorIiE10do_destroyEPvm"
  },
  {
   "binding" : "weak",
   "name" : "_ZNK7android6VectorIiE12do_constructEPvm"
  },
  {
   "binding" : "weak",
   "name" : "_ZNK7android6VectorIiE15do_move_forwardEPvPKvm"
  },
  {
   "binding" : "weak",
   "name" : "_ZNK7android6VectorIiE16do_move_backwardEPvPKvm"
  },
  {
   "binding" : "weak",
   "name" : "_ZNK7android6VectorIiE7do_copyEPvPKvm"
  },
  {
   "binding" : "weak",
   "name" : "_ZNK7android6VectorIiE8do_splatEPvPKvm"
  },
  {
   "name" : "_ZNK7android8hardware8graphics11bufferqueue4V1_05utils24H2BGraphicBufferProducer11getUniqueIdEPm"
  },
  {
   "name" : "_ZNK7android8hardware8graphics11bufferqueue4V1_05utils24H2BGraphicBufferProducer15getConsumerNameEv"
  },
  {
   "name" : "_ZNK7android8hardware8graphics11bufferqueue4V1_05utils24H2BGraphicBufferProducer16getConsumerUsageEPm"
  },
  {
   "name" : "_ZNK7android8hardware8graphics11bufferqueue4V2_05utils13HFenceWrapper9getHandleEv"
  },
  {
   "name" : "_ZNK7android8hardware8graphics11bufferqueue4V2_05utils13HFenceWrappercvNS0_11hidl_handleEEv"
  },
  {
   "name" : "_ZNK7android8hardware8graphics11bufferqueue4V2_05utils24H2BGraphicBufferProducer11getUniqueIdEPm"
  },
  {
   "name" : "_ZNK7android8hardware8graphics11bufferqueue4V2_05utils24H2BGraphicBufferProducer15getConsumerNameEv"
  },
  {
   "name" : "_ZNK7android8hardware8graphics11bufferqueue4V2_05utils24H2BGraphicBufferProducer16getConsumerUsageEPm"
  },
  {
   "binding" : "weak",
   "name" : "_ZNSt3__112__deque_baseIN7android16OccupancyTracker7SegmentENS_9allocatorIS3_EEE5clearEv"
  },
  {
   "binding" : "weak",
   "name" : "_ZNSt3__112__deque_baseINS_8weak_ptrIN7android9FenceTimeEEENS_9allocatorIS4_EEE5clearEv"
  },
  {
   "binding" : "weak",
   "name" : "_ZNSt3__112__hash_tableINS_17__hash_value_typeImlEENS_22__unordered_map_hasherImS2_NS_4hashImEELb1EEENS_21__unordered_map_equalImS2_NS_8equal_toImEELb1EEENS_9allocatorIS2_EEE25__emplace_unique_key_argsImJRKNS_21piecewise_construct_tENS_5tupleIJRKmEEENSI_IJEEEEEENS_4pairINS_15__hash_iteratorIPNS_11__hash_nodeIS2_PvEEEEbEERKT_DpOT0_"
  },
  {
   "binding" : "weak",
   "name" : "_ZNSt3__112__hash_tableINS_17__hash_value_typeImlEENS_22__unordered_map_hasherImS2_NS_4hashImEELb1EEENS_21__unordered_map_equalImS2_NS_8equal_toImEELb1EEENS_9allocatorIS2_EEE6rehashEm"
  },
  {
   "binding" : "weak",
   "name" : "_ZNSt3__112__hash_tableINS_17__hash_value_typeImlEENS_22__unordered_map_hasherImS2_NS_4hashImEELb1EEENS_21__unordered_map_equalImS2_NS_8equal_toImEELb1EEENS_9allocatorIS2_EEE8__rehashEm"
  },
  {
   "binding" : "weak",
   "name" : "_ZNSt3__113__tree_removeIPNS_16__tree_node_baseIPvEEEEvT_S5_"
  },
  {
   "binding" : "weak",
   "name" : "_ZNSt3__114__split_bufferIPN7android16OccupancyTracker7SegmentENS_9allocatorIS4_EEE10push_frontEOS4_"
  },
  {
   "binding" : "weak",
   "name" : "_ZNSt3__114__split_bufferIPN7android16OccupancyTracker7SegmentENS_9allocatorIS4_EEE10push_frontERKS4_"
  },
  {
   "binding" : "weak",
   "name" : "_ZNSt3__114__split_bufferIPN7android16OccupancyTracker7SegmentENS_9allocatorIS4_EEE9push_backEOS4_"
  },
  {
   "binding" : "weak",
   "name" : "_ZNSt3__114__split_bufferIPN7android16OccupancyTracker7SegmentERNS_9allocatorIS4_EEE9push_backEOS4_"
  },
  {
   "binding" : "weak",
   "name" : "_ZNSt3__120__shared_ptr_emplaceIN7android19GraphicBufferSource12CachedBuffer10AcquirableENS_9allocatorIS4_EEE16__on_zero_sharedEv"
  },
  {
   "binding" : "weak",
   "name" : "_ZNSt3__120__shared_ptr_emplaceIN7android19GraphicBufferSource12CachedBuffer10AcquirableENS_9allocatorIS4_EEE21__on_zero_shared_weakEv"
  },
  {
   "binding" : "weak",
   "name" : "_ZNSt3__120__shared_ptr_emplaceIN7android19GraphicBufferSource12CachedBufferENS_9allocatorIS3_EEE16__on_zero_sharedEv"
  },
  {
   "binding" : "weak",
   "name" : "_ZNSt3__120__shared_ptr_emplaceIN7android19GraphicBufferSource12CachedBufferENS_9allocatorIS3_EEE21__on_zero_shared_weakEv"
  },
  {
   "binding" : "weak",
   "name" : "_ZNSt3__120__shared_ptr_emplaceIN7android19GraphicBufferSource14AcquiredBufferENS_9allocatorIS3_EEE16__on_zero_sharedEv"
  },
  {
   "binding" : "weak",
   "name" : "_ZNSt3__120__shared_ptr_emplaceIN7android19GraphicBufferSource14AcquiredBufferENS_9allocatorIS3_EEE21__on_zero_shared_weakEv"
  },
  {
   "binding" : "weak",
   "name" : "_ZNSt3__120__shared_ptr_emplaceIN7android9FenceTimeENS_9allocatorIS2_EEE16__on_zero_sharedEv"
  },
  {
   "binding" : "weak",
   "name" : "_ZNSt3__120__shared_ptr_emplaceIN7android9FenceTimeENS_9allocatorIS2_EEE21__on_zero_shared_weakEv"
  },
  {
   "binding" : "weak",
   "name" : "_ZNSt3__124__put_character_sequenceIcNS_11char_traitsIcEEEERNS_13basic_ostreamIT_T0_EES7_PKS4_m"
  },
  {
   "binding" : "weak",
   "name" : "_ZNSt3__127__tree_balance_after_insertIPNS_16__tree_node_baseIPvEEEEvT_S5_"
  },
  {
   "binding" : "weak",
   "name" : "_ZNSt3__14listIiNS_9allocatorIiEEE6removeERKi"
  },
  {
   "binding" : "weak",
   "name" : "_ZNSt3__15dequeIN7android16OccupancyTracker7SegmentENS_9allocatorIS3_EEE20__add_front_capacityEv"
  },
  {
   "binding" : "weak",
   "name" : "_ZNSt3__16__treeIiNS_4lessIiEENS_9allocatorIiEEE14__erase_uniqueIiEEmRKT_"
  },
  {
   "binding" : "weak",
   "name" : "_ZNSt3__16__treeIiNS_4lessIiEENS_9allocatorIiEEE7destroyEPNS_11__tree_nodeIiPvEE"
  },
  {
   "binding" : "weak",
   "name" : "_ZNSt3__16vectorIN7android16FrameEventsDeltaENS_9allocatorIS2_EEE24__emplace_back_slow_pathIJRmRNS1_11FrameEventsERNS1_21FrameEventDirtyFieldsEEEEvDpOT_"
  },
  {
   "binding" : "weak",
   "name" : "_ZNSt3__16vectorIN7android16FrameEventsDeltaENS_9allocatorIS2_EEE7reserveEm"
  },
  {
   "binding" : "weak",
   "name" : "_ZNSt3__16vectorIN7android16FrameEventsDeltaENS_9allocatorIS2_EEE8__appendEm"
  },
  {
   "binding" : "weak",
   "name" : "_ZNSt3__16vectorIN7android16OccupancyTracker7SegmentENS_9allocatorIS3_EEE8__appendEm"
  },
  {
   "binding" : "weak",
   "name" : "_ZNSt3__16vectorIN7android2spINS1_12H2BConverterINS1_8hardware8graphics11bufferqueue4V1_017IProducerListenerENS1_18BnProducerListenerEE8ObituaryEEENS_9allocatorISC_EEE21__push_back_slow_pathISC_EEvOT_"
  },
  {
   "binding" : "weak",
   "name" : "_ZNSt3__16vectorIN7android2spINS1_12H2BConverterINS1_8hardware8graphics11bufferqueue4V1_022IGraphicBufferProducerENS1_23BnGraphicBufferProducerEE8ObituaryEEENS_9allocatorISC_EEE21__push_back_slow_pathISC_EEvOT_"
  },
  {
   "binding" : "weak",
   "name" : "_ZNSt3__16vectorIN7android2spINS1_12H2BConverterINS1_8hardware8graphics11bufferqueue4V2_017IProducerListenerENS1_18BnProducerListenerEE8ObituaryEEENS_9allocatorISC_EEE21__push_back_slow_pathISC_EEvOT_"
  },
  {
   "binding" : "weak",
   "name" : "_ZNSt3__16vectorIN7android2spINS1_12H2BConverterINS1_8hardware8graphics11bufferqueue4V2_022IGraphicBufferProducerENS1_23BnGraphicBufferProducerEE8ObituaryEEENS_9allocatorISC_EEE21__push_back_slow_pathISC_EEvOT_"
  },
  {
   "binding" : "weak",
   "name" : "_ZNSt3__16vectorINS0_IP13native_handleNS_9allocatorIS2_EEEENS3_IS5_EEE8__appendEm"
  },
  {
   "binding" : "weak",
   "name" : "_ZNSt3__16vectorIP13native_handleNS_9allocatorIS2_EEE8__appendEm"
  },
  {
   "binding" : "weak",
   "name" : "_ZNSt3__16vectorIhNS_9allocatorIhEEE6assignIPhEENS_9enable_ifIXaasr21__is_forward_iteratorIT_EE5valuesr16is_constructibleIhNS_15iterator_traitsIS7_E9referenceEEE5valueEvE4typeES7_S7_"
  },
  {
   "binding" : "weak",
   "name" : "_ZNSt3__16vectorIhNS_9allocatorIhEEE8__appendEm"
  },
  {
   "name" : "_ZThn16_N7android11BufferQueue21ProxyConsumerListenerD0Ev"
  },
  {
   "name" : "_ZThn16_N7android11BufferQueue21ProxyConsumerListenerD1Ev"
  },
  {
   "binding" : "weak",
   "name" : "_ZThn16_N7android12H2BConverterINS_8hardware8graphics11bufferqueue4V1_017IProducerListenerENS_18BnProducerListenerEE10onTransactEjRKNS_6ParcelEPS8_j"
  },
  {
   "binding" : "weak",
   "name" : "_ZThn16_N7android12H2BConverterINS_8hardware8graphics11bufferqueue4V1_017IProducerListenerENS_18BnProducerListenerEE11linkToDeathERKNS_2spINS_7IBinder14DeathRecipientEEEPvj"
  },
  {
   "binding" : "weak",
   "name" : "_ZThn16_N7android12H2BConverterINS_8hardware8graphics11bufferqueue4V1_017IProducerListenerENS_18BnProducerListenerEE13unlinkToDeathERKNS_2wpINS_7IBinder14DeathRecipientEEEPvjPSB_"
  },
  {
   "binding" : "weak",
   "name" : "_ZThn16_N7android12H2BConverterINS_8hardware8graphics11bufferqueue4V2_017IProducerListenerENS_18BnProducerListenerEE10onTransactEjRKNS_6ParcelEPS8_j"
  },
  {
   "binding" : "weak",
   "name" : "_ZThn16_N7android12H2BConverterINS_8hardware8graphics11bufferqueue4V2_017IProducerListenerENS_18BnProducerListenerEE11linkToDeathERKNS_2spINS_7IBinder14DeathRecipientEEEPvj"
  },
  {
   "binding" : "weak",
   "name" : "_ZThn16_N7android12H2BConverterINS_8hardware8graphics11bufferqueue4V2_017IProducerListenerENS_18BnProducerListenerEE13unlinkToDeathERKNS_2wpINS_7IBinder14DeathRecipientEEEPvjPSB_"
  },
  {
   "name" : "_ZThn16_N7android18BnConsumerListener10onTransactEjRKNS_6ParcelEPS1_j"
  },
  {
   "name" : "_ZThn16_N7android18BnProducerListener10onTransactEjRKNS_6ParcelEPS1_j"
  },
  {
   "name" : "_ZThn16_N7android18BpConsumerListenerD0Ev"
  },
  {
   "name" : "_ZThn16_N7android18BpConsumerListenerD1Ev"
  },
  {
   "name" : "_ZThn16_N7android18BpProducerListenerD0Ev"
  },
  {
   "name" : "_ZThn16_N7android18BpProducerListenerD1Ev"
  },
  {
   "name" : "_ZThn16_N7android21DummyProducerListenerD0Ev"
  },
  {
   "name" : "_ZThn16_N7android21DummyProducerListenerD1Ev"
  },
  {
   "name" : "_ZThn32_N7android19BufferQueueProducer10binderDiedERKNS_2wpINS_7IBinderEEE"
  },
  {
   "name" : "_ZThn32_N7android19BufferQueueProducerD0Ev"
  },
  {
   "name" : "_ZThn32_N7android19BufferQueueProducerD1Ev"
  },
  {
   "binding" : "weak",
   "name" : "_ZThn8_N7android11BnInterfaceINS_17IConsumerListenerEE10onAsBinderEv"
  },
  {
   "binding" : "weak",
   "name" : "_ZThn8_N7android11BnInterfaceINS_17IProducerListenerEE10onAsBinderEv"
  },
  {
   "name" : "_ZThn8_N7android11BufferQueue21ProxyConsumerListenerD0Ev"
  },
  {
   "name" : "_ZThn8_N7android11BufferQueue21ProxyConsumerListenerD1Ev"
  },
  {
   "binding" : "weak",
   "name" : "_ZThn8_N7android12H2BConverterINS_8hardware8graphics11bufferqueue4V1_022IGraphicBufferProducerENS_23BnGraphicBufferProducerEE10onTransactEjRKNS_6ParcelEPS8_j"
  },
  {
   "binding" : "weak",
   "name" : "_ZThn8_N7android12H2BConverterINS_8hardware8graphics11bufferqueue4V1_022IGraphicBufferProducerENS_23BnGraphicBufferProducerEE11linkToDeathERKNS_2spINS_7IBinder14DeathRecipientEEEPvj"
  },
  {
   "binding" : "weak",
   "name" : "_ZThn8_N7android12H2BConverterINS_8hardware8graphics11bufferqueue4V1_022IGraphicBufferProducerENS_23BnGraphicBufferProducerEE13unlinkToDeathERKNS_2wpINS_7IBinder14DeathRecipientEEEPvjPSB_"
  },
  {
   "binding" : "weak",
   "name" : "_ZThn8_N7android12H2BConverterINS_8hardware8graphics11bufferqueue4V2_022IGraphicBufferProducerENS_23BnGraphicBufferProducerEE10onTransactEjRKNS_6ParcelEPS8_j"
  },
  {
   "binding" : "weak",
   "name" : "_ZThn8_N7android12H2BConverterINS_8hardware8graphics11bufferqueue4V2_022IGraphicBufferProducerENS_23BnGraphicBufferProducerEE11linkToDeathERKNS_2spINS_7IBinder14DeathRecipientEEEPvj"
  },
  {
   "binding" : "weak",
   "name" : "_ZThn8_N7android12H2BConverterINS_8hardware8graphics11bufferqueue4V2_022IGraphicBufferProducerENS_23BnGraphicBufferProducerEE13unlinkToDeathERKNS_2wpINS_7IBinder14DeathRecipientEEEPvjPSB_"
  },
  {
   "name" : "_ZThn8_N7android17IConsumerListenerD0Ev"
  },
  {
   "name" : "_ZThn8_N7android17IConsumerListenerD1Ev"
  },
  {
   "name" : "_ZThn8_N7android17IProducerListenerD0Ev"
  },
  {
   "name" : "_ZThn8_N7android17IProducerListenerD1Ev"
  },
  {
   "name" : "_ZThn8_N7android18BpConsumerListenerD0Ev"
  },
  {
   "name" : "_ZThn8_N7android18BpConsumerListenerD1Ev"
  },
  {
   "name" : "_ZThn8_N7android18BpProducerListenerD0Ev"
  },
  {
   "name" : "_ZThn8_N7android18BpProducerListenerD1Ev"
  },
  {
   "name" : "_ZThn8_N7android19BufferQueueConsumerD0Ev"
  },
  {
   "name" : "_ZThn8_N7android19BufferQueueConsumerD1Ev"
  },
  {
   "name" : "_ZThn8_N7android19BufferQueueProducerD0Ev"
  },
  {
   "name" : "_ZThn8_N7android19BufferQueueProducerD1Ev"
  },
  {
   "name" : "_ZThn8_N7android21DummyProducerListenerD0Ev"
  },
  {
   "name" : "_ZThn8_N7android21DummyProducerListenerD1Ev"
  },
  {
   "name" : "_ZThn8_N7android23BnGraphicBufferConsumer10onTransactEjRKNS_6ParcelEPS1_j"
  },
  {
   "name" : "_ZThn8_N7android23BnGraphicBufferProducer10onTransactEjRKNS_6ParcelEPS1_j"
  },
  {
   "name" : "_ZThn8_N7android23BpGraphicBufferConsumerD0Ev"
  },
  {
   "name" : "_ZThn8_N7android23BpGraphicBufferConsumerD1Ev"
  },
  {
   "name" : "_ZThn8_N7android23BpGraphicBufferProducerD0Ev"
  },
  {
   "name" : "_ZThn8_N7android23BpGraphicBufferProducerD1Ev"
  },
  {
   "name" : "_ZTv0_n24_N7android11BufferQueue21ProxyConsumerListenerD0Ev"
  },
  {
   "name" : "_ZTv0_n24_N7android11BufferQueue21ProxyConsumerListenerD1Ev"
  },
  {
   "name" : "_ZTv0_n24_N7android15BufferQueueCoreD0Ev"
  },
  {
   "name" : "_ZTv0_n24_N7android15BufferQueueCoreD1Ev"
  },
  {
   "name" : "_ZTv0_n24_N7android16ConsumerListenerD0Ev"
  },
  {
   "name" : "_ZTv0_n24_N7android16ConsumerListenerD1Ev"
  },
  {
   "name" : "_ZTv0_n24_N7android16ProducerListenerD0Ev"
  },
  {
   "name" : "_ZTv0_n24_N7android16ProducerListenerD1Ev"
  },
  {
   "name" : "_ZTv0_n24_N7android17IConsumerListenerD0Ev"
  },
  {
   "name" : "_ZTv0_n24_N7android17IConsumerListenerD1Ev"
  },
  {
   "name" : "_ZTv0_n24_N7android17IProducerListenerD0Ev"
  },
  {
   "name" : "_ZTv0_n24_N7android17IProducerListenerD1Ev"
  },
  {
   "name" : "_ZTv0_n24_N7android18BpConsumerListenerD0Ev"
  },
  {
   "name" : "_ZTv0_n24_N7android18BpConsumerListenerD1Ev"
  },
  {
   "name" : "_ZTv0_n24_N7android18BpProducerListenerD0Ev"
  },
  {
   "name" : "_ZTv0_n24_N7android18BpProducerListenerD1Ev"
  },
  {
   "name" : "_ZTv0_n24_N7android19BufferQueueConsumerD0Ev"
  },
  {
   "name" : "_ZTv0_n24_N7android19BufferQueueConsumerD1Ev"
  },
  {
   "name" : "_ZTv0_n24_N7android19BufferQueueProducerD0Ev"
  },
  {
   "name" : "_ZTv0_n24_N7android19BufferQueueProducerD1Ev"
  },
  {
   "name" : "_ZTv0_n24_N7android21DummyProducerListenerD0Ev"
  },
  {
   "name" : "_ZTv0_n24_N7android21DummyProducerListenerD1Ev"
  },
  {
   "name" : "_ZTv0_n24_N7android22IGraphicBufferConsumerD0Ev"
  },
  {
   "name" : "_ZTv0_n24_N7android22IGraphicBufferConsumerD1Ev"
  },
  {
   "name" : "_ZTv0_n24_N7android22IGraphicBufferProducerD0Ev"
  },
  {
   "name" : "_ZTv0_n24_N7android22IGraphicBufferProducerD1Ev"
  },
  {
   "name" : "_ZTv0_n24_N7android23BpGraphicBufferConsumerD0Ev"
  },
  {
   "name" : "_ZTv0_n24_N7android23BpGraphicBufferConsumerD1Ev"
  },
  {
   "name" : "_ZTv0_n24_N7android23BpGraphicBufferProducerD0Ev"
  },
  {
   "name" : "_ZTv0_n24_N7android23BpGraphicBufferProducerD1Ev"
  },
  {
   "name" : "__addtf3"
  },
  {
   "name" : "__cmptf2"
  },
  {
   "name" : "__eqtf2"
  },
  {
   "name" : "__fe_getround"
  },
  {
   "name" : "__fe_raise_inexact"
  },
  {
   "name" : "__floatditf"
  },
  {
   "name" : "__getf2"
  },
  {
   "name" : "__gttf2"
  },
  {
   "name" : "__letf2"
  },
  {
   "name" : "__lttf2"
  },
  {
   "name" : "__multf3"
  },
  {
   "name" : "__netf2"
  },
  {
   "name" : "__subtf3"
  },
  {
   "name" : "__unordtf2"
  }
 ],
 "elf_objects" :
 [
  {
   "name" : "_ZN7android17IConsumerListener10descriptorE"
  },
  {
   "name" : "_ZN7android17IConsumerListener12default_implE"
  },
  {
   "name" : "_ZN7android17IProducerListener10descriptorE"
  },
  {
   "binding" : "weak",
   "name" : "_ZN7android17IProducerListener27sGetHalTokenTransactionCodeE"
  },
  {
   "name" : "_ZN7android22IGraphicBufferConsumer10descriptorE"
  },
  {
   "name" : "_ZN7android22IGraphicBufferConsumer12default_implE"
  },
  {
   "name" : "_ZN7android22IGraphicBufferProducer10descriptorE"
  },
  {
   "binding" : "weak",
   "name" : "_ZN7android22IGraphicBufferProducer27sGetHalTokenTransactionCodeE"
  },
  {
   "name" : "_ZTCN7android11BufferQueue21ProxyConsumerListenerE0_NS_11BnInterfaceINS_17IConsumerListenerEEE"
  },
  {
   "name" : "_ZTCN7android11BufferQueue21ProxyConsumerListenerE0_NS_15SafeBnInterfaceINS_17IConsumerListenerEEE"
  },
  {
   "name" : "_ZTCN7android11BufferQueue21ProxyConsumerListenerE0_NS_16ConsumerListenerE"
  },
  {
   "name" : "_ZTCN7android11BufferQueue21ProxyConsumerListenerE0_NS_17IConsumerListenerE"
  },
  {
   "name" : "_ZTCN7android11BufferQueue21ProxyConsumerListenerE0_NS_18BnConsumerListenerE"
  },
  {
   "name" : "_ZTCN7android11BufferQueue21ProxyConsumerListenerE16_NS_7BBinderE"
  },
  {
   "name" : "_ZTCN7android11BufferQueue21ProxyConsumerListenerE16_NS_7IBinderE"
  },
  {
   "name" : "_ZTCN7android11BufferQueue21ProxyConsumerListenerE8_NS_10IInterfaceE"
  },
  {
   "name" : "_ZTCN7android17IConsumerListenerE0_NS_16ConsumerListenerE"
  },
  {
   "name" : "_ZTCN7android17IConsumerListenerE8_NS_10IInterfaceE"
  },
  {
   "name" : "_ZTCN7android17IProducerListenerE0_NS_16ProducerListenerE"
  },
  {
   "name" : "_ZTCN7android17IProducerListenerE8_NS_10IInterfaceE"
  },
  {
   "name" : "_ZTCN7android18BnConsumerListenerE0_NS_11BnInterfaceINS_17IConsumerListenerEEE"
  },
  {
   "name" : "_ZTCN7android18BnConsumerListenerE0_NS_15SafeBnInterfaceINS_17IConsumerListenerEEE"
  },
  {
   "name" : "_ZTCN7android18BnConsumerListenerE0_NS_16ConsumerListenerE"
  },
  {
   "name" : "_ZTCN7android18BnConsumerListenerE0_NS_17IConsumerListenerE"
  },
  {
   "name" : "_ZTCN7android18BnConsumerListenerE16_NS_7BBinderE"
  },
  {
   "name" : "_ZTCN7android18BnConsumerListenerE16_NS_7IBinderE"
  },
  {
   "name" : "_ZTCN7android18BnConsumerListenerE8_NS_10IInterfaceE"
  },
  {
   "name" : "_ZTCN7android18BnProducerListenerE0_NS_11BnInterfaceINS_17IProducerListenerEEE"
  },
  {
   "name" : "_ZTCN7android18BnProducerListenerE0_NS_16ProducerListenerE"
  },
  {
   "name" : "_ZTCN7android18BnProducerListenerE0_NS_17IProducerListenerE"
  },
  {
   "name" : "_ZTCN7android18BnProducerListenerE16_NS_7BBinderE"
  },
  {
   "name" : "_ZTCN7android18BnProducerListenerE16_NS_7IBinderE"
  },
  {
   "name" : "_ZTCN7android18BnProducerListenerE8_NS_10IInterfaceE"
  },
  {
   "name" : "_ZTCN7android18BpConsumerListenerE0_NS_11BpInterfaceINS_17IConsumerListenerEEE"
  },
  {
   "name" : "_ZTCN7android18BpConsumerListenerE0_NS_15SafeBpInterfaceINS_17IConsumerListenerEEE"
  },
  {
   "name" : "_ZTCN7android18BpConsumerListenerE0_NS_16ConsumerListenerE"
  },
  {
   "name" : "_ZTCN7android18BpConsumerListenerE0_NS_17IConsumerListenerE"
  },
  {
   "name" : "_ZTCN7android18BpConsumerListenerE16_NS_9BpRefBaseE"
  },
  {
   "name" : "_ZTCN7android18BpConsumerListenerE8_NS_10IInterfaceE"
  },
  {
   "name" : "_ZTCN7android18BpProducerListenerE0_NS_11BpInterfaceINS_17IProducerListenerEEE"
  },
  {
   "name" : "_ZTCN7android18BpProducerListenerE0_NS_16ProducerListenerE"
  },
  {
   "name" : "_ZTCN7android18BpProducerListenerE0_NS_17IProducerListenerE"
  },
  {
   "name" : "_ZTCN7android18BpProducerListenerE16_NS_9BpRefBaseE"
  },
  {
   "name" : "_ZTCN7android18BpProducerListenerE8_NS_10IInterfaceE"
  },
  {
   "binding" : "weak",
   "name" : "_ZTCN7android18HpProducerListenerE0_NS_11HpInterfaceINS_18BpProducerListenerENS_8hardware8graphics11bufferqueue4V1_05utils19H2BProducerListenerEJNS4_4V2_05utils19H2BProducerListenerEEEE"
  },
  {
   "binding" : "weak",
   "name" : "_ZTCN7android18HpProducerListenerE0_NS_16ProducerListenerE"
  },
  {
   "binding" : "weak",
   "name" : "_ZTCN7android18HpProducerListenerE0_NS_17IProducerListenerE"
  },
  {
   "binding" : "weak",
   "name" : "_ZTCN7android18HpProducerListenerE8_NS_10IInterfaceE"
  },
  {
   "name" : "_ZTCN7android18LWProducerListenerE0_NS_11BnInterfaceINS_17IProducerListenerEEE"
  },
  {
   "name" : "_ZTCN7android18LWProducerListenerE0_NS_16ProducerListenerE"
  },
  {
   "name" : "_ZTCN7android18LWProducerListenerE0_NS_17IProducerListenerE"
  },
  {
   "name" : "_ZTCN7android18LWProducerListenerE0_NS_18BnProducerListenerE"
  },
  {
   "name" : "_ZTCN7android18LWProducerListenerE16_NS_7BBinderE"
  },
  {
   "name" : "_ZTCN7android18LWProducerListenerE16_NS_7IBinderE"
  },
  {
   "name" : "_ZTCN7android18LWProducerListenerE8_NS_10IInterfaceE"
  },
  {
   "name" : "_ZTCN7android18TWProducerListenerE0_NS_4hidl4base4V1_05IBaseE"
  },
  {
   "name" : "_ZTCN7android18TWProducerListenerE0_NS_8hardware8graphics11bufferqueue4V1_017IProducerListenerE"
  },
  {
   "name" : "_ZTCN7android19BufferQueueConsumerE0_NS_10IInterfaceE"
  },
  {
   "name" : "_ZTCN7android19BufferQueueConsumerE0_NS_11BnInterfaceINS_22IGraphicBufferConsumerEEE"
  },
  {
   "name" : "_ZTCN7android19BufferQueueConsumerE0_NS_15SafeBnInterfaceINS_22IGraphicBufferConsumerEEE"
  },
  {
   "name" : "_ZTCN7android19BufferQueueConsumerE0_NS_22IGraphicBufferConsumerE"
  },
  {
   "name" : "_ZTCN7android19BufferQueueConsumerE0_NS_23BnGraphicBufferConsumerE"
  },
  {
   "name" : "_ZTCN7android19BufferQueueConsumerE8_NS_7BBinderE"
  },
  {
   "name" : "_ZTCN7android19BufferQueueConsumerE8_NS_7IBinderE"
  },
  {
   "name" : "_ZTCN7android19BufferQueueProducerE0_NS_10IInterfaceE"
  },
  {
   "name" : "_ZTCN7android19BufferQueueProducerE0_NS_11BnInterfaceINS_22IGraphicBufferProducerEEE"
  },
  {
   "name" : "_ZTCN7android19BufferQueueProducerE0_NS_22IGraphicBufferProducerE"
  },
  {
   "name" : "_ZTCN7android19BufferQueueProducerE0_NS_23BnGraphicBufferProducerE"
  },
  {
   "name" : "_ZTCN7android19BufferQueueProducerE32_NS_7IBinder14DeathRecipientE"
  },
  {
   "name" : "_ZTCN7android19BufferQueueProducerE8_NS_7BBinderE"
  },
  {
   "name" : "_ZTCN7android19BufferQueueProducerE8_NS_7IBinderE"
  },
  {
   "binding" : "weak",
   "name" : "_ZTCN7android19GraphicBufferSource13ConsumerProxyE0_NS_16ConsumerListenerE"
  },
  {
   "name" : "_ZTCN7android21DummyProducerListenerE0_NS_11BnInterfaceINS_17IProducerListenerEEE"
  },
  {
   "name" : "_ZTCN7android21DummyProducerListenerE0_NS_16ProducerListenerE"
  },
  {
   "name" : "_ZTCN7android21DummyProducerListenerE0_NS_17IProducerListenerE"
  },
  {
   "name" : "_ZTCN7android21DummyProducerListenerE0_NS_18BnProducerListenerE"
  },
  {
   "name" : "_ZTCN7android21DummyProducerListenerE16_NS_7BBinderE"
  },
  {
   "name" : "_ZTCN7android21DummyProducerListenerE16_NS_7IBinderE"
  },
  {
   "name" : "_ZTCN7android21DummyProducerListenerE8_NS_10IInterfaceE"
  },
  {
   "name" : "_ZTCN7android22IGraphicBufferConsumerE0_NS_10IInterfaceE"
  },
  {
   "name" : "_ZTCN7android22IGraphicBufferProducerE0_NS_10IInterfaceE"
  },
  {
   "name" : "_ZTCN7android23BnGraphicBufferConsumerE0_NS_10IInterfaceE"
  },
  {
   "name" : "_ZTCN7android23BnGraphicBufferConsumerE0_NS_11BnInterfaceINS_22IGraphicBufferConsumerEEE"
  },
  {
   "name" : "_ZTCN7android23BnGraphicBufferConsumerE0_NS_15SafeBnInterfaceINS_22IGraphicBufferConsumerEEE"
  },
  {
   "name" : "_ZTCN7android23BnGraphicBufferConsumerE0_NS_22IGraphicBufferConsumerE"
  },
  {
   "name" : "_ZTCN7android23BnGraphicBufferConsumerE8_NS_7BBinderE"
  },
  {
   "name" : "_ZTCN7android23BnGraphicBufferConsumerE8_NS_7IBinderE"
  },
  {
   "name" : "_ZTCN7android23BnGraphicBufferProducerE0_NS_10IInterfaceE"
  },
  {
   "name" : "_ZTCN7android23BnGraphicBufferProducerE0_NS_11BnInterfaceINS_22IGraphicBufferProducerEEE"
  },
  {
   "name" : "_ZTCN7android23BnGraphicBufferProducerE0_NS_22IGraphicBufferProducerE"
  },
  {
   "name" : "_ZTCN7android23BnGraphicBufferProducerE8_NS_7BBinderE"
  },
  {
   "name" : "_ZTCN7android23BnGraphicBufferProducerE8_NS_7IBinderE"
  },
  {
   "name" : "_ZTCN7android23BpGraphicBufferConsumerE0_NS_10IInterfaceE"
  },
  {
   "name" : "_ZTCN7android23BpGraphicBufferConsumerE0_NS_11BpInterfaceINS_22IGraphicBufferConsumerEEE"
  },
  {
   "name" : "_ZTCN7android23BpGraphicBufferConsumerE0_NS_15SafeBpInterfaceINS_22IGraphicBufferConsumerEEE"
  },
  {
   "name" : "_ZTCN7android23BpGraphicBufferConsumerE0_NS_22IGraphicBufferConsumerE"
  },
  {
   "name" : "_ZTCN7android23BpGraphicBufferConsumerE8_NS_9BpRefBaseE"
  },
  {
   "name" : "_ZTCN7android23BpGraphicBufferProducerE0_NS_10IInterfaceE"
  },
  {
   "name" : "_ZTCN7android23BpGraphicBufferProducerE0_NS_11BpInterfaceINS_22IGraphicBufferProducerEEE"
  },
  {
   "name" : "_ZTCN7android23BpGraphicBufferProducerE0_NS_22IGraphicBufferProducerE"
  },
  {
   "name" : "_ZTCN7android23BpGraphicBufferProducerE8_NS_9BpRefBaseE"
  },
  {
   "binding" : "weak",
   "name" : "_ZTCN7android23HpGraphicBufferProducerE0_NS_10IInterfaceE"
  },
  {
   "binding" : "weak",
   "name" : "_ZTCN7android23HpGraphicBufferProducerE0_NS_11HpInterfaceINS_23BpGraphicBufferProducerENS_8hardware8graphics11bufferqueue4V1_05utils24H2BGraphicBufferProducerEJNS4_4V2_05utils24H2BGraphicBufferProducerEEEE"
  },
  {
   "binding" : "weak",
   "name" : "_ZTCN7android23HpGraphicBufferProducerE0_NS_22IGraphicBufferProducerE"
  },
  {
   "name" : "_ZTCN7android8hardware8graphics11bufferqueue4V1_05utils19B2HProducerListenerE0_NS3_17IProducerListenerE"
  },
  {
   "name" : "_ZTCN7android8hardware8graphics11bufferqueue4V1_05utils19B2HProducerListenerE0_NS_4hidl4base4V1_05IBaseE"
  },
  {
   "name" : "_ZTCN7android8hardware8graphics11bufferqueue4V1_05utils19H2BProducerListenerE0_NS_11BnInterfaceINS_17IProducerListenerEEE"
  },
  {
   "name" : "_ZTCN7android8hardware8graphics11bufferqueue4V1_05utils19H2BProducerListenerE0_NS_12H2BConverterINS3_17IProducerListenerENS_18BnProducerListenerEEE"
  },
  {
   "name" : "_ZTCN7android8hardware8graphics11bufferqueue4V1_05utils19H2BProducerListenerE0_NS_16ProducerListenerE"
  },
  {
   "name" : "_ZTCN7android8hardware8graphics11bufferqueue4V1_05utils19H2BProducerListenerE0_NS_17IProducerListenerE"
  },
  {
   "name" : "_ZTCN7android8hardware8graphics11bufferqueue4V1_05utils19H2BProducerListenerE0_NS_18BnProducerListenerE"
  },
  {
   "name" : "_ZTCN7android8hardware8graphics11bufferqueue4V1_05utils19H2BProducerListenerE16_NS_7BBinderE"
  },
  {
   "name" : "_ZTCN7android8hardware8graphics11bufferqueue4V1_05utils19H2BProducerListenerE16_NS_7IBinderE"
  },
  {
   "name" : "_ZTCN7android8hardware8graphics11bufferqueue4V1_05utils19H2BProducerListenerE8_NS_10IInterfaceE"
  },
  {
   "name" : "_ZTCN7android8hardware8graphics11bufferqueue4V1_05utils24H2BGraphicBufferProducerE0_NS_10IInterfaceE"
  },
  {
   "name" : "_ZTCN7android8hardware8graphics11bufferqueue4V1_05utils24H2BGraphicBufferProducerE0_NS_11BnInterfaceINS_22IGraphicBufferProducerEEE"
  },
  {
   "name" : "_ZTCN7android8hardware8graphics11bufferqueue4V1_05utils24H2BGraphicBufferProducerE0_NS_12H2BConverterINS3_22IGraphicBufferProducerENS_23BnGraphicBufferProducerEEE"
  },
  {
   "name" : "_ZTCN7android8hardware8graphics11bufferqueue4V1_05utils24H2BGraphicBufferProducerE0_NS_22IGraphicBufferProducerE"
  },
  {
   "name" : "_ZTCN7android8hardware8graphics11bufferqueue4V1_05utils24H2BGraphicBufferProducerE0_NS_23BnGraphicBufferProducerE"
  },
  {
   "name" : "_ZTCN7android8hardware8graphics11bufferqueue4V1_05utils24H2BGraphicBufferProducerE8_NS_7BBinderE"
  },
  {
   "name" : "_ZTCN7android8hardware8graphics11bufferqueue4V1_05utils24H2BGraphicBufferProducerE8_NS_7IBinderE"
  },
  {
   "name" : "_ZTCN7android8hardware8graphics11bufferqueue4V2_05utils19B2HProducerListenerE0_NS3_17IProducerListenerE"
  },
  {
   "name" : "_ZTCN7android8hardware8graphics11bufferqueue4V2_05utils19B2HProducerListenerE0_NS_4hidl4base4V1_05IBaseE"
  },
  {
   "name" : "_ZTCN7android8hardware8graphics11bufferqueue4V2_05utils19H2BProducerListenerE0_NS_11BnInterfaceINS_17IProducerListenerEEE"
  },
  {
   "name" : "_ZTCN7android8hardware8graphics11bufferqueue4V2_05utils19H2BProducerListenerE0_NS_12H2BConverterINS3_17IProducerListenerENS_18BnProducerListenerEEE"
  },
  {
   "name" : "_ZTCN7android8hardware8graphics11bufferqueue4V2_05utils19H2BProducerListenerE0_NS_16ProducerListenerE"
  },
  {
   "name" : "_ZTCN7android8hardware8graphics11bufferqueue4V2_05utils19H2BProducerListenerE0_NS_17IProducerListenerE"
  },
  {
   "name" : "_ZTCN7android8hardware8graphics11bufferqueue4V2_05utils19H2BProducerListenerE0_NS_18BnProducerListenerE"
  },
  {
   "name" : "_ZTCN7android8hardware8graphics11bufferqueue4V2_05utils19H2BProducerListenerE16_NS_7BBinderE"
  },
  {
   "name" : "_ZTCN7android8hardware8graphics11bufferqueue4V2_05utils19H2BProducerListenerE16_NS_7IBinderE"
  },
  {
   "name" : "_ZTCN7android8hardware8graphics11bufferqueue4V2_05utils19H2BProducerListenerE8_NS_10IInterfaceE"
  },
  {
   "name" : "_ZTCN7android8hardware8graphics11bufferqueue4V2_05utils24B2HGraphicBufferProducerE0_NS3_22IGraphicBufferProducerE"
  },
  {
   "name" : "_ZTCN7android8hardware8graphics11bufferqueue4V2_05utils24B2HGraphicBufferProducerE0_NS_4hidl4base4V1_05IBaseE"
  },
  {
   "name" : "_ZTCN7android8hardware8graphics11bufferqueue4V2_05utils24H2BGraphicBufferProducerE0_NS_10IInterfaceE"
  },
  {
   "name" : "_ZTCN7android8hardware8graphics11bufferqueue4V2_05utils24H2BGraphicBufferProducerE0_NS_11BnInterfaceINS_22IGraphicBufferProducerEEE"
  },
  {
   "name" : "_ZTCN7android8hardware8graphics11bufferqueue4V2_05utils24H2BGraphicBufferProducerE0_NS_12H2BConverterINS3_22IGraphicBufferProducerENS_23BnGraphicBufferProducerEEE"
  },
  {
   "name" : "_ZTCN7android8hardware8graphics11bufferqueue4V2_05utils24H2BGraphicBufferProducerE0_NS_22IGraphicBufferProducerE"
  },
  {
   "name" : "_ZTCN7android8hardware8graphics11bufferqueue4V2_05utils24H2BGraphicBufferProducerE0_NS_23BnGraphicBufferProducerE"
  },
  {
   "name" : "_ZTCN7android8hardware8graphics11bufferqueue4V2_05utils24H2BGraphicBufferProducerE8_NS_7BBinderE"
  },
  {
   "name" : "_ZTCN7android8hardware8graphics11bufferqueue4V2_05utils24H2BGraphicBufferProducerE8_NS_7IBinderE"
  },
  {
   "name" : "_ZTTN7android11BufferQueue21ProxyConsumerListenerE"
  },
  {
   "name" : "_ZTTN7android15BufferQueueCoreE"
  },
  {
   "name" : "_ZTTN7android16ConsumerListenerE"
  },
  {
   "name" : "_ZTTN7android16ProducerListenerE"
  },
  {
   "name" : "_ZTTN7android17IConsumerListenerE"
  },
  {
   "name" : "_ZTTN7android17IProducerListenerE"
  },
  {
   "name" : "_ZTTN7android18BnConsumerListenerE"
  },
  {
   "name" : "_ZTTN7android18BnProducerListenerE"
  },
  {
   "name" : "_ZTTN7android18BpConsumerListenerE"
  },
  {
   "name" : "_ZTTN7android18BpProducerListenerE"
  },
  {
   "binding" : "weak",
   "name" : "_ZTTN7android18HpProducerListenerE"
  },
  {
   "name" : "_ZTTN7android18LWProducerListenerE"
  },
  {
   "name" : "_ZTTN7android18TWProducerListenerE"
  },
  {
   "name" : "_ZTTN7android19BufferQueueConsumerE"
  },
  {
   "name" : "_ZTTN7android19BufferQueueProducerE"
  },
  {
   "binding" : "weak",
   "name" : "_ZTTN7android19GraphicBufferSource13ConsumerProxyE"
  },
  {
   "name" : "_ZTTN7android21DummyProducerListenerE"
  },
  {
   "name" : "_ZTTN7android22IGraphicBufferConsumerE"
  },
  {
   "name" : "_ZTTN7android22IGraphicBufferProducerE"
  },
  {
   "name" : "_ZTTN7android23BnGraphicBufferConsumerE"
  },
  {
   "name" : "_ZTTN7android23BnGraphicBufferProducerE"
  },
  {
   "name" : "_ZTTN7android23BpGraphicBufferConsumerE"
  },
  {
   "name" : "_ZTTN7android23BpGraphicBufferProducerE"
  },
  {
   "binding" : "weak",
   "name" : "_ZTTN7android23HpGraphicBufferProducerE"
  },
  {
   "name" : "_ZTTN7android8hardware8graphics11bufferqueue4V1_05utils19B2HProducerListenerE"
  },
  {
   "name" : "_ZTTN7android8hardware8graphics11bufferqueue4V1_05utils19H2BProducerListenerE"
  },
  {
   "name" : "_ZTTN7android8hardware8graphics11bufferqueue4V1_05utils24H2BGraphicBufferProducerE"
  },
  {
   "name" : "_ZTTN7android8hardware8graphics11bufferqueue4V2_05utils19B2HProducerListenerE"
  },
  {
   "name" : "_ZTTN7android8hardware8graphics11bufferqueue4V2_05utils19H2BProducerListenerE"
  },
  {
   "name" : "_ZTTN7android8hardware8graphics11bufferqueue4V2_05utils24B2HGraphicBufferProducerE"
  },
  {
   "name" : "_ZTTN7android8hardware8graphics11bufferqueue4V2_05utils24H2BGraphicBufferProducerE"
  },
  {
   "name" : "_ZTVN7android11BufferQueue21ProxyConsumerListenerE"
  },
  {
   "name" : "_ZTVN7android12FrameDropperE"
  },
  {
   "binding" : "weak",
   "name" : "_ZTVN7android12H2BConverterINS_8hardware8graphics11bufferqueue4V1_017IProducerListenerENS_18BnProducerListenerEE8ObituaryE"
  },
  {
   "binding" : "weak",
   "name" : "_ZTVN7android12H2BConverterINS_8hardware8graphics11bufferqueue4V1_022IGraphicBufferProducerENS_23BnGraphicBufferProducerEE8ObituaryE"
  },
  {
   "binding" : "weak",
   "name" : "_ZTVN7android12H2BConverterINS_8hardware8graphics11bufferqueue4V2_017IProducerListenerENS_18BnProducerListenerEE8ObituaryE"
  },
  {
   "binding" : "weak",
   "name" : "_ZTVN7android12H2BConverterINS_8hardware8graphics11bufferqueue4V2_022IGraphicBufferProducerENS_23BnGraphicBufferProducerEE8ObituaryE"
  },
  {
   "binding" : "weak",
   "name" : "_ZTVN7android12SortedVectorINS_16key_value_pair_tIiNSt3__110shared_ptrINS_19GraphicBufferSource12CachedBufferEEEEEEE"
  },
  {
   "binding" : "weak",
   "name" : "_ZTVN7android12SortedVectorINS_16key_value_pair_tIiNSt3__110shared_ptrINS_19GraphicBufferSource14AcquiredBufferEEEEEEE"
  },
  {
   "binding" : "weak",
   "name" : "_ZTVN7android12SortedVectorINS_16key_value_pair_tIjjEEEE"
  },
  {
   "name" : "_ZTVN7android15BufferQueueCoreE"
  },
  {
   "name" : "_ZTVN7android16ConsumerListenerE"
  },
  {
   "name" : "_ZTVN7android16OccupancyTracker7SegmentE"
  },
  {
   "name" : "_ZTVN7android16ProducerListenerE"
  },
  {
   "binding" : "weak",
   "name" : "_ZTVN7android17AHandlerReflectorINS_19GraphicBufferSourceEEE"
  },
  {
   "name" : "_ZTVN7android17FrameEventHistoryE"
  },
  {
   "name" : "_ZTVN7android17IConsumerListenerE"
  },
  {
   "name" : "_ZTVN7android17IProducerListenerE"
  },
  {
   "name" : "_ZTVN7android18BnConsumerListenerE"
  },
  {
   "name" : "_ZTVN7android18BnProducerListenerE"
  },
  {
   "name" : "_ZTVN7android18BpConsumerListenerE"
  },
  {
   "name" : "_ZTVN7android18BpProducerListenerE"
  },
  {
   "binding" : "weak",
   "name" : "_ZTVN7android18HpProducerListenerE"
  },
  {
   "name" : "_ZTVN7android18LWProducerListenerE"
  },
  {
   "name" : "_ZTVN7android18TWProducerListenerE"
  },
  {
   "name" : "_ZTVN7android19BufferQueueConsumerE"
  },
  {
   "name" : "_ZTVN7android19BufferQueueProducerE"
  },
  {
   "binding" : "weak",
   "name" : "_ZTVN7android19GraphicBufferSource13ConsumerProxyE"
  },
  {
   "name" : "_ZTVN7android19GraphicBufferSourceE"
  },
  {
   "name" : "_ZTVN7android21DummyProducerListenerE"
  },
  {
   "name" : "_ZTVN7android22IGraphicBufferConsumerE"
  },
  {
   "name" : "_ZTVN7android22IGraphicBufferProducerE"
  },
  {
   "name" : "_ZTVN7android23BnGraphicBufferConsumerE"
  },
  {
   "name" : "_ZTVN7android23BnGraphicBufferProducerE"
  },
  {
   "name" : "_ZTVN7android23BpGraphicBufferConsumerE"
  },
  {
   "name" : "_ZTVN7android23BpGraphicBufferProducerE"
  },
  {
   "binding" : "weak",
   "name" : "_ZTVN7android23HpGraphicBufferProducerE"
  },
  {
   "binding" : "weak",
   "name" : "_ZTVN7android23TWGraphicBufferProducerINS_8hardware8graphics11bufferqueue4V1_022IGraphicBufferProducerEvEE"
  },
  {
   "name" : "_ZTVN7android25ConsumerFrameEventHistoryE"
  },
  {
   "name" : "_ZTVN7android25ProducerFrameEventHistoryE"
  },
  {
   "binding" : "weak",
   "name" : "_ZTVN7android4ListINS_19GraphicBufferSource10ActionItemEEE"
  },
  {
   "binding" : "weak",
   "name" : "_ZTVN7android4ListINS_19GraphicBufferSource11VideoBufferEEE"
  },
  {
   "binding" : "weak",
   "name" : "_ZTVN7android4ListIiEE"
  },
  {
   "binding" : "weak",
   "name" : "_ZTVN7android6Parcel17FlattenableHelperINS_10BufferItemEEE"
  },
  {
   "binding" : "weak",
   "name" : "_ZTVN7android6Parcel17FlattenableHelperINS_13GraphicBufferEEE"
  },
  {
   "binding" : "weak",
   "name" : "_ZTVN7android6Parcel17FlattenableHelperINS_22FrameEventHistoryDeltaEEE"
  },
  {
   "binding" : "weak",
   "name" : "_ZTVN7android6Parcel17FlattenableHelperINS_22IGraphicBufferProducer16QueueBufferInputEEE"
  },
  {
   "binding" : "weak",
   "name" : "_ZTVN7android6Parcel17FlattenableHelperINS_22IGraphicBufferProducer17QueueBufferOutputEEE"
  },
  {
   "binding" : "weak",
   "name" : "_ZTVN7android6Parcel17FlattenableHelperINS_5FenceEEE"
  },
  {
   "binding" : "weak",
   "name" : "_ZTVN7android6VectorINS_10BufferItemEEE"
  },
  {
   "binding" : "weak",
   "name" : "_ZTVN7android6VectorINS_2spINS_13GraphicBufferEEEEE"
  },
  {
   "binding" : "weak",
   "name" : "_ZTVN7android6VectorIiEE"
  },
  {
   "binding" : "weak",
   "name" : "_ZTVN7android8AHandlerE"
  },
  {
   "name" : "_ZTVN7android8hardware8graphics11bufferqueue4V1_05utils19B2HProducerListenerE"
  },
  {
   "name" : "_ZTVN7android8hardware8graphics11bufferqueue4V1_05utils19H2BProducerListenerE"
  },
  {
   "name" : "_ZTVN7android8hardware8graphics11bufferqueue4V1_05utils24H2BGraphicBufferProducerE"
  },
  {
   "name" : "_ZTVN7android8hardware8graphics11bufferqueue4V2_05utils19B2HProducerListenerE"
  },
  {
   "name" : "_ZTVN7android8hardware8graphics11bufferqueue4V2_05utils19H2BProducerListenerE"
  },
  {
   "name" : "_ZTVN7android8hardware8graphics11bufferqueue4V2_05utils24B2HGraphicBufferProducerE"
  },
  {
   "name" : "_ZTVN7android8hardware8graphics11bufferqueue4V2_05utils24H2BGraphicBufferProducerE"
  },
  {
   "binding" : "weak",
   "name" : "_ZTVNSt3__120__shared_ptr_emplaceIN7android19GraphicBufferSource12CachedBuffer10AcquirableENS_9allocatorIS4_EEEE"
  },
  {
   "binding" : "weak",
   "name" : "_ZTVNSt3__120__shared_ptr_emplaceIN7android19GraphicBufferSource12CachedBufferENS_9allocatorIS3_EEEE"
  },
  {
   "binding" : "weak",
   "name" : "_ZTVNSt3__120__shared_ptr_emplaceIN7android19GraphicBufferSource14AcquiredBufferENS_9allocatorIS3_EEEE"
  },
  {
   "binding" : "weak",
   "name" : "_ZTVNSt3__120__shared_ptr_emplaceIN7android9FenceTimeENS_9allocatorIS2_EEEE"
  }
 ],
 "enum_types" :
 [
  {
   "alignment" : 4,
   "enum_fields" :
   [
    {
     "enum_field_value" : 0,
     "name" : "OMX_AUDIO_AACObjectNull"
    },
    {
     "enum_field_value" : 1,
     "name" : "OMX_AUDIO_AACObjectMain"
    },
    {
     "enum_field_value" : 2,
     "name" : "OMX_AUDIO_AACObjectLC"
    },
    {
     "enum_field_value" : 3,
     "name" : "OMX_AUDIO_AACObjectSSR"
    },
    {
     "enum_field_value" : 4,
     "name" : "OMX_AUDIO_AACObjectLTP"
    },
    {
     "enum_field_value" : 5,
     "name" : "OMX_AUDIO_AACObjectHE"
    },
    {
     "enum_field_value" : 6,
     "name" : "OMX_AUDIO_AACObjectScalable"
    },
    {
     "enum_field_value" : 17,
     "name" : "OMX_AUDIO_AACObjectERLC"
    },
    {
     "enum_field_value" : 20,
     "name" : "OMX_AUDIO_AACObjectER_Scalable"
    },
    {
     "enum_field_value" : 23,
     "name" : "OMX_AUDIO_AACObjectLD"
    },
    {
     "enum_field_value" : 29,
     "name" : "OMX_AUDIO_AACObjectHE_PS"
    },
    {
     "enum_field_value" : 39,
     "name" : "OMX_AUDIO_AACObjectELD"
    },
    {
     "enum_field_value" : 42,
     "name" : "OMX_AUDIO_AACObjectXHE"
    },
    {
     "enum_field_value" : 1862270976,
     "name" : "OMX_AUDIO_AACObjectKhronosExtensions"
    },
    {
     "enum_field_value" : 2130706432,
     "name" : "OMX_AUDIO_AACObjectVendorStartUnused"
    },
    {
     "enum_field_value" : 2147483647,
     "name" : "OMX_AUDIO_AACObjectMax"
    }
   ],
   "linker_set_key" : "OMX_AUDIO_AACPROFILETYPE",
   "name" : "OMX_AUDIO_AACPROFILETYPE",
   "referenced_type" : "type-1675",
   "self_type" : "type-1675",
   "size" : 4,
   "source_file" : "/frameworks/native/headers/media_plugin/media/openmax/OMX_Audio.h",
   "underlying_type" : "type-2",
   "unique_id" : "OMX_AUDIO_AACPROFILETYPE"
  },
  {
   "alignment" : 4,
   "enum_fields" :
   [
    {
     "enum_field_value" : 0,
     "name" : "OMX_AUDIO_AACStreamFormatMP2ADTS"
    },
    {
     "enum_field_value" : 1,
     "name" : "OMX_AUDIO_AACStreamFormatMP4ADTS"
    },
    {
     "enum_field_value" : 2,
     "name" : "OMX_AUDIO_AACStreamFormatMP4LOAS"
    },
    {
     "enum_field_value" : 3,
     "name" : "OMX_AUDIO_AACStreamFormatMP4LATM"
    },
    {
     "enum_field_value" : 4,
     "name" : "OMX_AUDIO_AACStreamFormatADIF"
    },
    {
     "enum_field_value" : 5,
     "name" : "OMX_AUDIO_AACStreamFormatMP4FF"
    },
    {
     "enum_field_value" : 6,
     "name" : "OMX_AUDIO_AACStreamFormatRAW"
    },
    {
     "enum_field_value" : 1862270976,
     "name" : "OMX_AUDIO_AACStreamFormatKhronosExtensions"
    },
    {
     "enum_field_value" : 2130706432,
     "name" : "OMX_AUDIO_AACStreamFormatVendorStartUnused"
    },
    {
     "enum_field_value" : 2147483647,
     "name" : "OMX_AUDIO_AACStreamFormatMax"
    }
   ],
   "linker_set_key" : "OMX_AUDIO_AACSTREAMFORMATTYPE",
   "name" : "OMX_AUDIO_AACSTREAMFORMATTYPE",
   "referenced_type" : "type-1671",
   "self_type" : "type-1671",
   "size" : 4,
   "source_file" : "/frameworks/native/headers/media_plugin/media/openmax/OMX_Audio.h",
   "underlying_type" : "type-2",
   "unique_id" : "OMX_AUDIO_AACSTREAMFORMATTYPE"
  },
  {
   "alignment" : 4,
   "enum_fields" :
   [
    {
     "enum_field_value" : 0,
     "name" : "OMX_AUDIO_AMRBandModeUnused"
    },
    {
     "enum_field_value" : 1,
     "name" : "OMX_AUDIO_AMRBandModeNB0"
    },
    {
     "enum_field_value" : 2,
     "name" : "OMX_AUDIO_AMRBandModeNB1"
    },
    {
     "enum_field_value" : 3,
     "name" : "OMX_AUDIO_AMRBandModeNB2"
    },
    {
     "enum_field_value" : 4,
     "name" : "OMX_AUDIO_AMRBandModeNB3"
    },
    {
     "enum_field_value" : 5,
     "name" : "OMX_AUDIO_AMRBandModeNB4"
    },
    {
     "enum_field_value" : 6,
     "name" : "OMX_AUDIO_AMRBandModeNB5"
    },
    {
     "enum_field_value" : 7,
     "name" : "OMX_AUDIO_AMRBandModeNB6"
    },
    {
     "enum_field_value" : 8,
     "name" : "OMX_AUDIO_AMRBandModeNB7"
    },
    {
     "enum_field_value" : 9,
     "name" : "OMX_AUDIO_AMRBandModeWB0"
    },
    {
     "enum_field_value" : 10,
     "name" : "OMX_AUDIO_AMRBandModeWB1"
    },
    {
     "enum_field_value" : 11,
     "name" : "OMX_AUDIO_AMRBandModeWB2"
    },
    {
     "enum_field_value" : 12,
     "name" : "OMX_AUDIO_AMRBandModeWB3"
    },
    {
     "enum_field_value" : 13,
     "name" : "OMX_AUDIO_AMRBandModeWB4"
    },
    {
     "enum_field_value" : 14,
     "name" : "OMX_AUDIO_AMRBandModeWB5"
    },
    {
     "enum_field_value" : 15,
     "name" : "OMX_AUDIO_AMRBandModeWB6"
    },
    {
     "enum_field_value" : 16,
     "name" : "OMX_AUDIO_AMRBandModeWB7"
    },
    {
     "enum_field_value" : 17,
     "name" : "OMX_AUDIO_AMRBandModeWB8"
    },
    {
     "enum_field_value" : 1862270976,
     "name" : "OMX_AUDIO_AMRBandModeKhronosExtensions"
    },
    {
     "enum_field_value" : 2130706432,
     "name" : "OMX_AUDIO_AMRBandModeVendorStartUnused"
    },
    {
     "enum_field_value" : 2147483647,
     "name" : "OMX_AUDIO_AMRBandModeMax"
    }
   ],
   "linker_set_key" : "OMX_AUDIO_AMRBANDMODETYPE",
   "name" : "OMX_AUDIO_AMRBANDMODETYPE",
   "referenced_type" : "type-1883",
   "self_type" : "type-1883",
   "size" : 4,
   "source_file" : "/frameworks/native/headers/media_plugin/media/openmax/OMX_Audio.h",
   "underlying_type" : "type-2",
   "unique_id" : "OMX_AUDIO_AMRBANDMODETYPE"
  },
  {
   "alignment" : 4,
   "enum_fields" :
   [
    {
     "enum_field_value" : 0,
     "name" : "OMX_AUDIO_AMRDTXModeOff"
    },
    {
     "enum_field_value" : 1,
     "name" : "OMX_AUDIO_AMRDTXModeOnVAD1"
    },
    {
     "enum_field_value" : 2,
     "name" : "OMX_AUDIO_AMRDTXModeOnVAD2"
    },
    {
     "enum_field_value" : 3,
     "name" : "OMX_AUDIO_AMRDTXModeOnAuto"
    },
    {
     "enum_field_value" : 4,
     "name" : "OMX_AUDIO_AMRDTXasEFR"
    },
    {
     "enum_field_value" : 1862270976,
     "name" : "OMX_AUDIO_AMRDTXModeKhronosExtensions"
    },
    {
     "enum_field_value" : 2130706432,
     "name" : "OMX_AUDIO_AMRDTXModeVendorStartUnused"
    },
    {
     "enum_field_value" : 2147483647,
     "name" : "OMX_AUDIO_AMRDTXModeMax"
    }
   ],
   "linker_set_key" : "OMX_AUDIO_AMRDTXMODETYPE",
   "name" : "OMX_AUDIO_AMRDTXMODETYPE",
   "referenced_type" : "type-1896",
   "self_type" : "type-1896",
   "size" : 4,
   "source_file" : "/frameworks/native/headers/media_plugin/media/openmax/OMX_Audio.h",
   "underlying_type" : "type-2",
   "unique_id" : "OMX_AUDIO_AMRDTXMODETYPE"
  },
  {
   "alignment" : 4,
   "enum_fields" :
   [
    {
     "enum_field_value" : 0,
     "name" : "OMX_AUDIO_AMRFrameFormatConformance"
    },
    {
     "enum_field_value" : 1,
     "name" : "OMX_AUDIO_AMRFrameFormatIF1"
    },
    {
     "enum_field_value" : 2,
     "name" : "OMX_AUDIO_AMRFrameFormatIF2"
    },
    {
     "enum_field_value" : 3,
     "name" : "OMX_AUDIO_AMRFrameFormatFSF"
    },
    {
     "enum_field_value" : 4,
     "name" : "OMX_AUDIO_AMRFrameFormatRTPPayload"
    },
    {
     "enum_field_value" : 5,
     "name" : "OMX_AUDIO_AMRFrameFormatITU"
    },
    {
     "enum_field_value" : 1862270976,
     "name" : "OMX_AUDIO_AMRFrameFormatKhronosExtensions"
    },
    {
     "enum_field_value" : 2130706432,
     "name" : "OMX_AUDIO_AMRFrameFormatVendorStartUnused"
    },
    {
     "enum_field_value" : 2147483647,
     "name" : "OMX_AUDIO_AMRFrameFormatMax"
    }
   ],
   "linker_set_key" : "OMX_AUDIO_AMRFRAMEFORMATTYPE",
   "name" : "OMX_AUDIO_AMRFRAMEFORMATTYPE",
   "referenced_type" : "type-1873",
   "self_type" : "type-1873",
   "size" : 4,
   "source_file" : "/frameworks/native/headers/media_plugin/media/openmax/OMX_Audio.h",
   "underlying_type" : "type-2",
   "unique_id" : "OMX_AUDIO_AMRFRAMEFORMATTYPE"
  },
  {
   "alignment" : 4,
   "enum_fields" :
   [
    {
     "enum_field_value" : 0,
     "name" : "OMX_AUDIO_CDMARateBlank"
    },
    {
     "enum_field_value" : 1,
     "name" : "OMX_AUDIO_CDMARateFull"
    },
    {
     "enum_field_value" : 2,
     "name" : "OMX_AUDIO_CDMARateHalf"
    },
    {
     "enum_field_value" : 3,
     "name" : "OMX_AUDIO_CDMARateQuarter"
    },
    {
     "enum_field_value" : 4,
     "name" : "OMX_AUDIO_CDMARateEighth"
    },
    {
     "enum_field_value" : 5,
     "name" : "OMX_AUDIO_CDMARateErasure"
    },
    {
     "enum_field_value" : 1862270976,
     "name" : "OMX_AUDIO_CDMARateKhronosExtensions"
    },
    {
     "enum_field_value" : 2130706432,
     "name" : "OMX_AUDIO_CDMARateVendorStartUnused"
    },
    {
     "enum_field_value" : 2147483647,
     "name" : "OMX_AUDIO_CDMARateMax"
    }
   ],
   "linker_set_key" : "OMX_AUDIO_CDMARATETYPE",
   "name" : "OMX_AUDIO_CDMARATETYPE",
   "referenced_type" : "type-2017",
   "self_type" : "type-2017",
   "size" : 4,
   "source_file" : "/frameworks/native/headers/media_plugin/media/openmax/OMX_Audio.h",
   "underlying_type" : "type-2",
   "unique_id" : "OMX_AUDIO_CDMARATETYPE"
  },
  {
   "alignment" : 4,
   "enum_fields" :
   [
    {
     "enum_field_value" : 0,
     "name" : "OMX_AUDIO_ChannelModeStereo"
    },
    {
     "enum_field_value" : 1,
     "name" : "OMX_AUDIO_ChannelModeJointStereo"
    },
    {
     "enum_field_value" : 2,
     "name" : "OMX_AUDIO_ChannelModeDual"
    },
    {
     "enum_field_value" : 3,
     "name" : "OMX_AUDIO_ChannelModeMono"
    },
    {
     "enum_field_value" : 1862270976,
     "name" : "OMX_AUDIO_ChannelModeKhronosExtensions"
    },
    {
     "enum_field_value" : 2130706432,
     "name" : "OMX_AUDIO_ChannelModeVendorStartUnused"
    },
    {
     "enum_field_value" : 2147483647,
     "name" : "OMX_AUDIO_ChannelModeMax"
    }
   ],
   "linker_set_key" : "OMX_AUDIO_CHANNELMODETYPE",
   "name" : "OMX_AUDIO_CHANNELMODETYPE",
   "referenced_type" : "type-1652",
   "self_type" : "type-1652",
   "size" : 4,
   "source_file" : "/frameworks/native/headers/media_plugin/media/openmax/OMX_Audio.h",
   "underlying_type" : "type-2",
   "unique_id" : "OMX_AUDIO_CHANNELMODETYPE"
  },
  {
   "alignment" : 4,
   "enum_fields" :
   [
    {
     "enum_field_value" : 0,
     "name" : "OMX_AUDIO_ChannelNone"
    },
    {
     "enum_field_value" : 1,
     "name" : "OMX_AUDIO_ChannelLF"
    },
    {
     "enum_field_value" : 2,
     "name" : "OMX_AUDIO_ChannelRF"
    },
    {
     "enum_field_value" : 3,
     "name" : "OMX_AUDIO_ChannelCF"
    },
    {
     "enum_field_value" : 4,
     "name" : "OMX_AUDIO_ChannelLS"
    },
    {
     "enum_field_value" : 5,
     "name" : "OMX_AUDIO_ChannelRS"
    },
    {
     "enum_field_value" : 6,
     "name" : "OMX_AUDIO_ChannelLFE"
    },
    {
     "enum_field_value" : 7,
     "name" : "OMX_AUDIO_ChannelCS"
    },
    {
     "enum_field_value" : 8,
     "name" : "OMX_AUDIO_ChannelLR"
    },
    {
     "enum_field_value" : 9,
     "name" : "OMX_AUDIO_ChannelRR"
    },
    {
     "enum_field_value" : 1862270976,
     "name" : "OMX_AUDIO_ChannelKhronosExtensions"
    },
    {
     "enum_field_value" : 2130706432,
     "name" : "OMX_AUDIO_ChannelVendorStartUnused"
    },
    {
     "enum_field_value" : 2147483647,
     "name" : "OMX_AUDIO_ChannelMax"
    }
   ],
   "linker_set_key" : "OMX_AUDIO_CHANNELTYPE",
   "name" : "OMX_AUDIO_CHANNELTYPE",
   "referenced_type" : "type-1638",
   "self_type" : "type-1638",
   "size" : 4,
   "source_file" : "/frameworks/native/headers/media_plugin/media/openmax/OMX_Audio.h",
   "underlying_type" : "type-2",
   "unique_id" : "OMX_AUDIO_CHANNELTYPE"
  },
  {
   "alignment" : 4,
   "enum_fields" :
   [
    {
     "enum_field_value" : 0,
     "name" : "OMX_AUDIO_CodingUnused"
    },
    {
     "enum_field_value" : 1,
     "name" : "OMX_AUDIO_CodingAutoDetect"
    },
    {
     "enum_field_value" : 2,
     "name" : "OMX_AUDIO_CodingPCM"
    },
    {
     "enum_field_value" : 3,
     "name" : "OMX_AUDIO_CodingADPCM"
    },
    {
     "enum_field_value" : 4,
     "name" : "OMX_AUDIO_CodingAMR"
    },
    {
     "enum_field_value" : 5,
     "name" : "OMX_AUDIO_CodingGSMFR"
    },
    {
     "enum_field_value" : 6,
     "name" : "OMX_AUDIO_CodingGSMEFR"
    },
    {
     "enum_field_value" : 7,
     "name" : "OMX_AUDIO_CodingGSMHR"
    },
    {
     "enum_field_value" : 8,
     "name" : "OMX_AUDIO_CodingPDCFR"
    },
    {
     "enum_field_value" : 9,
     "name" : "OMX_AUDIO_CodingPDCEFR"
    },
    {
     "enum_field_value" : 10,
     "name" : "OMX_AUDIO_CodingPDCHR"
    },
    {
     "enum_field_value" : 11,
     "name" : "OMX_AUDIO_CodingTDMAFR"
    },
    {
     "enum_field_value" : 12,
     "name" : "OMX_AUDIO_CodingTDMAEFR"
    },
    {
     "enum_field_value" : 13,
     "name" : "OMX_AUDIO_CodingQCELP8"
    },
    {
     "enum_field_value" : 14,
     "name" : "OMX_AUDIO_CodingQCELP13"
    },
    {
     "enum_field_value" : 15,
     "name" : "OMX_AUDIO_CodingEVRC"
    },
    {
     "enum_field_value" : 16,
     "name" : "OMX_AUDIO_CodingSMV"
    },
    {
     "enum_field_value" : 17,
     "name" : "OMX_AUDIO_CodingG711"
    },
    {
     "enum_field_value" : 18,
     "name" : "OMX_AUDIO_CodingG723"
    },
    {
     "enum_field_value" : 19,
     "name" : "OMX_AUDIO_CodingG726"
    },
    {
     "enum_field_value" : 20,
     "name" : "OMX_AUDIO_CodingG729"
    },
    {
     "enum_field_value" : 21,
     "name" : "OMX_AUDIO_CodingAAC"
    },
    {
     "enum_field_value" : 22,
     "name" : "OMX_AUDIO_CodingMP3"
    },
    {
     "enum_field_value" : 23,
     "name" : "OMX_AUDIO_CodingSBC"
    },
    {
     "enum_field_value" : 24,
     "name" : "OMX_AUDIO_CodingVORBIS"
    },
    {
     "enum_field_value" : 25,
     "name" : "OMX_AUDIO_CodingWMA"
    },
    {
     "enum_field_value" : 26,
     "name" : "OMX_AUDIO_CodingRA"
    },
    {
     "enum_field_value" : 27,
     "name" : "OMX_AUDIO_CodingMIDI"
    },
    {
     "enum_field_value" : 28,
     "name" : "OMX_AUDIO_CodingFLAC"
    },
    {
     "enum_field_value" : 1862270976,
     "name" : "OMX_AUDIO_CodingKhronosExtensions"
    },
    {
     "enum_field_value" : 2130706432,
     "name" : "OMX_AUDIO_CodingVendorStartUnused"
    },
    {
     "enum_field_value" : 2147483647,
     "name" : "OMX_AUDIO_CodingMax"
    }
   ],
   "linker_set_key" : "OMX_AUDIO_CODINGTYPE",
   "name" : "OMX_AUDIO_CODINGTYPE",
   "referenced_type" : "type-1619",
   "self_type" : "type-1619",
   "size" : 4,
   "source_file" : "/frameworks/native/headers/media_plugin/media/openmax/OMX_Audio.h",
   "underlying_type" : "type-2",
   "unique_id" : "OMX_AUDIO_CODINGTYPE"
  },
  {
   "alignment" : 4,
   "enum_fields" :
   [
    {
     "enum_field_value" : 0,
     "name" : "OMX_AUDIO_EchoCanOff"
    },
    {
     "enum_field_value" : 1,
     "name" : "OMX_AUDIO_EchoCanNormal"
    },
    {
     "enum_field_value" : 2,
     "name" : "OMX_AUDIO_EchoCanHFree"
    },
    {
     "enum_field_value" : 3,
     "name" : "OMX_AUDIO_EchoCanCarKit"
    },
    {
     "enum_field_value" : 1862270976,
     "name" : "OMX_AUDIO_EchoCanKhronosExtensions"
    },
    {
     "enum_field_value" : 2130706432,
     "name" : "OMX_AUDIO_EchoCanVendorStartUnused"
    },
    {
     "enum_field_value" : 2147483647,
     "name" : "OMX_AUDIO_EchoCanMax"
    }
   ],
   "linker_set_key" : "OMX_AUDIO_ECHOCANTYPE",
   "name" : "OMX_AUDIO_ECHOCANTYPE",
   "referenced_type" : "type-2201",
   "self_type" : "type-2201",
   "size" : 4,
   "source_file" : "/frameworks/native/headers/media_plugin/media/openmax/OMX_Audio.h",
   "underlying_type" : "type-2",
   "unique_id" : "OMX_AUDIO_ECHOCANTYPE"
  },
  {
   "alignment" : 4,
   "enum_fields" :
   [
    {
     "enum_field_value" : 0,
     "name" : "OMX_AUDIO_G723ModeUnused"
    },
    {
     "enum_field_value" : 1,
     "name" : "OMX_AUDIO_G723ModeLow"
    },
    {
     "enum_field_value" : 2,
     "name" : "OMX_AUDIO_G723ModeHigh"
    },
    {
     "enum_field_value" : 1862270976,
     "name" : "OMX_AUDIO_G723ModeKhronosExtensions"
    },
    {
     "enum_field_value" : 2130706432,
     "name" : "OMX_AUDIO_G723ModeVendorStartUnused"
    },
    {
     "enum_field_value" : 2147483647,
     "name" : "OMX_AUDIO_G723ModeMax"
    }
   ],
   "linker_set_key" : "OMX_AUDIO_G723RATE",
   "name" : "OMX_AUDIO_G723RATE",
   "referenced_type" : "type-1804",
   "self_type" : "type-1804",
   "size" : 4,
   "source_file" : "/frameworks/native/headers/media_plugin/media/openmax/OMX_Audio.h",
   "underlying_type" : "type-2",
   "unique_id" : "OMX_AUDIO_G723RATE"
  },
  {
   "alignment" : 4,
   "enum_fields" :
   [
    {
     "enum_field_value" : 0,
     "name" : "OMX_AUDIO_G726ModeUnused"
    },
    {
     "enum_field_value" : 1,
     "name" : "OMX_AUDIO_G726Mode16"
    },
    {
     "enum_field_value" : 2,
     "name" : "OMX_AUDIO_G726Mode24"
    },
    {
     "enum_field_value" : 3,
     "name" : "OMX_AUDIO_G726Mode32"
    },
    {
     "enum_field_value" : 4,
     "name" : "OMX_AUDIO_G726Mode40"
    },
    {
     "enum_field_value" : 1862270976,
     "name" : "OMX_AUDIO_G726ModeKhronosExtensions"
    },
    {
     "enum_field_value" : 2130706432,
     "name" : "OMX_AUDIO_G726ModeVendorStartUnused"
    },
    {
     "enum_field_value" : 2147483647,
     "name" : "OMX_AUDIO_G726ModeMax"
    }
   ],
   "linker_set_key" : "OMX_AUDIO_G726MODE",
   "name" : "OMX_AUDIO_G726MODE",
   "referenced_type" : "type-1824",
   "self_type" : "type-1824",
   "size" : 4,
   "source_file" : "/frameworks/native/headers/media_plugin/media/openmax/OMX_Audio.h",
   "underlying_type" : "type-2",
   "unique_id" : "OMX_AUDIO_G726MODE"
  },
  {
   "alignment" : 4,
   "enum_fields" :
   [
    {
     "enum_field_value" : 0,
     "name" : "OMX_AUDIO_G729"
    },
    {
     "enum_field_value" : 1,
     "name" : "OMX_AUDIO_G729A"
    },
    {
     "enum_field_value" : 2,
     "name" : "OMX_AUDIO_G729B"
    },
    {
     "enum_field_value" : 3,
     "name" : "OMX_AUDIO_G729AB"
    },
    {
     "enum_field_value" : 1862270976,
     "name" : "OMX_AUDIO_G729KhronosExtensions"
    },
    {
     "enum_field_value" : 2130706432,
     "name" : "OMX_AUDIO_G729VendorStartUnused"
    },
    {
     "enum_field_value" : 2147483647,
     "name" : "OMX_AUDIO_G729Max"
    }
   ],
   "linker_set_key" : "OMX_AUDIO_G729TYPE",
   "name" : "OMX_AUDIO_G729TYPE",
   "referenced_type" : "type-1847",
   "self_type" : "type-1847",
   "size" : 4,
   "source_file" : "/frameworks/native/headers/media_plugin/media/openmax/OMX_Audio.h",
   "underlying_type" : "type-2",
   "unique_id" : "OMX_AUDIO_G729TYPE"
  },
  {
   "alignment" : 4,
   "enum_fields" :
   [
    {
     "enum_field_value" : 0,
     "name" : "OMX_AUDIO_MIDIFormatUnknown"
    },
    {
     "enum_field_value" : 1,
     "name" : "OMX_AUDIO_MIDIFormatSMF0"
    },
    {
     "enum_field_value" : 2,
     "name" : "OMX_AUDIO_MIDIFormatSMF1"
    },
    {
     "enum_field_value" : 3,
     "name" : "OMX_AUDIO_MIDIFormatSMF2"
    },
    {
     "enum_field_value" : 4,
     "name" : "OMX_AUDIO_MIDIFormatSPMIDI"
    },
    {
     "enum_field_value" : 5,
     "name" : "OMX_AUDIO_MIDIFormatXMF0"
    },
    {
     "enum_field_value" : 6,
     "name" : "OMX_AUDIO_MIDIFormatXMF1"
    },
    {
     "enum_field_value" : 7,
     "name" : "OMX_AUDIO_MIDIFormatMobileXMF"
    },
    {
     "enum_field_value" : 1862270976,
     "name" : "OMX_AUDIO_MIDIFormatKhronosExtensions"
    },
    {
     "enum_field_value" : 2130706432,
     "name" : "OMX_AUDIO_MIDIFormatVendorStartUnused"
    },
    {
     "enum_field_value" : 2147483647,
     "name" : "OMX_AUDIO_MIDIFormatMax"
    }
   ],
   "linker_set_key" : "OMX_AUDIO_MIDIFORMATTYPE",
   "name" : "OMX_AUDIO_MIDIFORMATTYPE",
   "referenced_type" : "type-2083",
   "self_type" : "type-2083",
   "size" : 4,
   "source_file" : "/frameworks/native/headers/media_plugin/media/openmax/OMX_Audio.h",
   "underlying_type" : "type-2",
   "unique_id" : "OMX_AUDIO_MIDIFORMATTYPE"
  },
  {
   "alignment" : 4,
   "enum_fields" :
   [
    {
     "enum_field_value" : 0,
     "name" : "OMX_AUDIO_MIDIPlayBackStateUnknown"
    },
    {
     "enum_field_value" : 1,
     "name" : "OMX_AUDIO_MIDIPlayBackStateClosedEngaged"
    },
    {
     "enum_field_value" : 2,
     "name" : "OMX_AUDIO_MIDIPlayBackStateParsing"
    },
    {
     "enum_field_value" : 3,
     "name" : "OMX_AUDIO_MIDIPlayBackStateOpenEngaged"
    },
    {
     "enum_field_value" : 4,
     "name" : "OMX_AUDIO_MIDIPlayBackStatePlaying"
    },
    {
     "enum_field_value" : 5,
     "name" : "OMX_AUDIO_MIDIPlayBackStatePlayingPartially"
    },
    {
     "enum_field_value" : 6,
     "name" : "OMX_AUDIO_MIDIPlayBackStatePlayingSilently"
    },
    {
     "enum_field_value" : 1862270976,
     "name" : "OMX_AUDIO_MIDIPlayBackStateKhronosExtensions"
    },
    {
     "enum_field_value" : 2130706432,
     "name" : "OMX_AUDIO_MIDIPlayBackStateVendorStartUnused"
    },
    {
     "enum_field_value" : 2147483647,
     "name" : "OMX_AUDIO_MIDIPlayBackStateMax"
    }
   ],
   "linker_set_key" : "OMX_AUDIO_MIDIPLAYBACKSTATETYPE",
   "name" : "OMX_AUDIO_MIDIPLAYBACKSTATETYPE",
   "referenced_type" : "type-2170",
   "self_type" : "type-2170",
   "size" : 4,
   "source_file" : "/frameworks/native/headers/media_plugin/media/openmax/OMX_Audio.h",
   "underlying_type" : "type-2",
   "unique_id" : "OMX_AUDIO_MIDIPLAYBACKSTATETYPE"
  },
  {
   "alignment" : 4,
   "enum_fields" :
   [
    {
     "enum_field_value" : 0,
     "name" : "OMX_AUDIO_MIDISoundBankLayoutUnused"
    },
    {
     "enum_field_value" : 1,
     "name" : "OMX_AUDIO_MIDISoundBankLayoutGM"
    },
    {
     "enum_field_value" : 2,
     "name" : "OMX_AUDIO_MIDISoundBankLayoutGM2"
    },
    {
     "enum_field_value" : 3,
     "name" : "OMX_AUDIO_MIDISoundBankLayoutUser"
    },
    {
     "enum_field_value" : 1862270976,
     "name" : "OMX_AUDIO_MIDISoundBankLayoutKhronosExtensions"
    },
    {
     "enum_field_value" : 2130706432,
     "name" : "OMX_AUDIO_MIDISoundBankLayoutVendorStartUnused"
    },
    {
     "enum_field_value" : 2147483647,
     "name" : "OMX_AUDIO_MIDISoundBankLayoutMax"
    }
   ],
   "linker_set_key" : "OMX_AUDIO_MIDISOUNDBANKLAYOUTTYPE",
   "name" : "OMX_AUDIO_MIDISOUNDBANKLAYOUTTYPE",
   "referenced_type" : "type-2117",
   "self_type" : "type-2117",
   "size" : 4,
   "source_file" : "/frameworks/native/headers/media_plugin/media/openmax/OMX_Audio.h",
   "underlying_type" : "type-2",
   "unique_id" : "OMX_AUDIO_MIDISOUNDBANKLAYOUTTYPE"
  },
  {
   "alignment" : 4,
   "enum_fields" :
   [
    {
     "enum_field_value" : 0,
     "name" : "OMX_AUDIO_MIDISoundBankUnused"
    },
    {
     "enum_field_value" : 1,
     "name" : "OMX_AUDIO_MIDISoundBankDLS1"
    },
    {
     "enum_field_value" : 2,
     "name" : "OMX_AUDIO_MIDISoundBankDLS2"
    },
    {
     "enum_field_value" : 3,
     "name" : "OMX_AUDIO_MIDISoundBankMobileDLSBase"
    },
    {
     "enum_field_value" : 4,
     "name" : "OMX_AUDIO_MIDISoundBankMobileDLSPlusOptions"
    },
    {
     "enum_field_value" : 1862270976,
     "name" : "OMX_AUDIO_MIDISoundBankKhronosExtensions"
    },
    {
     "enum_field_value" : 2130706432,
     "name" : "OMX_AUDIO_MIDISoundBankVendorStartUnused"
    },
    {
     "enum_field_value" : 2147483647,
     "name" : "OMX_AUDIO_MIDISoundBankMax"
    }
   ],
   "linker_set_key" : "OMX_AUDIO_MIDISOUNDBANKTYPE",
   "name" : "OMX_AUDIO_MIDISOUNDBANKTYPE",
   "referenced_type" : "type-2105",
   "self_type" : "type-2105",
   "size" : 4,
   "source_file" : "/frameworks/native/headers/media_plugin/media/openmax/OMX_Audio.h",
   "underlying_type" : "type-2",
   "unique_id" : "OMX_AUDIO_MIDISOUNDBANKTYPE"
  },
  {
   "alignment" : 4,
   "enum_fields" :
   [
    {
     "enum_field_value" : 0,
     "name" : "OMX_AUDIO_MP3StreamFormatMP1Layer3"
    },
    {
     "enum_field_value" : 1,
     "name" : "OMX_AUDIO_MP3StreamFormatMP2Layer3"
    },
    {
     "enum_field_value" : 2,
     "name" : "OMX_AUDIO_MP3StreamFormatMP2_5Layer3"
    },
    {
     "enum_field_value" : 1862270976,
     "name" : "OMX_AUDIO_MP3StreamFormatKhronosExtensions"
    },
    {
     "enum_field_value" : 2130706432,
     "name" : "OMX_AUDIO_MP3StreamFormatVendorStartUnused"
    },
    {
     "enum_field_value" : 2147483647,
     "name" : "OMX_AUDIO_MP3StreamFormatMax"
    }
   ],
   "linker_set_key" : "OMX_AUDIO_MP3STREAMFORMATTYPE",
   "name" : "OMX_AUDIO_MP3STREAMFORMATTYPE",
   "referenced_type" : "type-1657",
   "self_type" : "type-1657",
   "size" : 4,
   "source_file" : "/frameworks/native/headers/media_plugin/media/openmax/OMX_Audio.h",
   "underlying_type" : "type-2",
   "unique_id" : "OMX_AUDIO_MP3STREAMFORMATTYPE"
  },
  {
   "alignment" : 4,
   "enum_fields" :
   [
    {
     "enum_field_value" : 0,
     "name" : "OMX_AUDIO_PCMModeLinear"
    },
    {
     "enum_field_value" : 1,
     "name" : "OMX_AUDIO_PCMModeALaw"
    },
    {
     "enum_field_value" : 2,
     "name" : "OMX_AUDIO_PCMModeMULaw"
    },
    {
     "enum_field_value" : 1862270976,
     "name" : "OMX_AUDIO_PCMModeKhronosExtensions"
    },
    {
     "enum_field_value" : 2130706432,
     "name" : "OMX_AUDIO_PCMModeVendorStartUnused"
    },
    {
     "enum_field_value" : 2147483647,
     "name" : "OMX_AUDIO_PCMModeMax"
    }
   ],
   "linker_set_key" : "OMX_AUDIO_PCMMODETYPE",
   "name" : "OMX_AUDIO_PCMMODETYPE",
   "referenced_type" : "type-1632",
   "self_type" : "type-1632",
   "size" : 4,
   "source_file" : "/frameworks/native/headers/media_plugin/media/openmax/OMX_Audio.h",
   "underlying_type" : "type-2",
   "unique_id" : "OMX_AUDIO_PCMMODETYPE"
  },
  {
   "alignment" : 4,
   "enum_fields" :
   [
    {
     "enum_field_value" : 0,
     "name" : "OMX_AUDIO_RAFormatUnused"
    },
    {
     "enum_field_value" : 1,
     "name" : "OMX_AUDIO_RA8"
    },
    {
     "enum_field_value" : 2,
     "name" : "OMX_AUDIO_RA9"
    },
    {
     "enum_field_value" : 3,
     "name" : "OMX_AUDIO_RA10_AAC"
    },
    {
     "enum_field_value" : 4,
     "name" : "OMX_AUDIO_RA10_CODEC"
    },
    {
     "enum_field_value" : 5,
     "name" : "OMX_AUDIO_RA10_LOSSLESS"
    },
    {
     "enum_field_value" : 6,
     "name" : "OMX_AUDIO_RA10_MULTICHANNEL"
    },
    {
     "enum_field_value" : 7,
     "name" : "OMX_AUDIO_RA10_VOICE"
    },
    {
     "enum_field_value" : 1862270976,
     "name" : "OMX_AUDIO_RAFormatKhronosExtensions"
    },
    {
     "enum_field_value" : 2130706432,
     "name" : "OMX_AUDIO_RAFormatVendorStartUnused"
    },
    {
     "enum_field_value" : 2147483647,
     "name" : "OMX_VIDEO_RAFormatMax"
    }
   ],
   "linker_set_key" : "OMX_AUDIO_RAFORMATTYPE",
   "name" : "OMX_AUDIO_RAFORMATTYPE",
   "referenced_type" : "type-1748",
   "self_type" : "type-1748",
   "size" : 4,
   "source_file" : "/frameworks/native/headers/media_plugin/media/openmax/OMX_Audio.h",
   "underlying_type" : "type-2",
   "unique_id" : "OMX_AUDIO_RAFORMATTYPE"
  },
  {
   "alignment" : 4,
   "enum_fields" :
   [
    {
     "enum_field_value" : 0,
     "name" : "OMX_AUDIO_SBCAllocMethodLoudness"
    },
    {
     "enum_field_value" : 1,
     "name" : "OMX_AUDIO_SBCAllocMethodSNR"
    },
    {
     "enum_field_value" : 1862270976,
     "name" : "OMX_AUDIO_SBCAllocMethodKhronosExtensions"
    },
    {
     "enum_field_value" : 2130706432,
     "name" : "OMX_AUDIO_SBCAllocMethodVendorStartUnused"
    },
    {
     "enum_field_value" : 2147483647,
     "name" : "OMX_AUDIO_SBCAllocMethodMax"
    }
   ],
   "linker_set_key" : "OMX_AUDIO_SBCALLOCMETHODTYPE",
   "name" : "OMX_AUDIO_SBCALLOCMETHODTYPE",
   "referenced_type" : "type-1771",
   "self_type" : "type-1771",
   "size" : 4,
   "source_file" : "/frameworks/native/headers/media_plugin/media/openmax/OMX_Audio.h",
   "underlying_type" : "type-2",
   "unique_id" : "OMX_AUDIO_SBCALLOCMETHODTYPE"
  },
  {
   "alignment" : 4,
   "enum_fields" :
   [
    {
     "enum_field_value" : 0,
     "name" : "OMX_AUDIO_StereoWideningHeadphones"
    },
    {
     "enum_field_value" : 1,
     "name" : "OMX_AUDIO_StereoWideningLoudspeakers"
    },
    {
     "enum_field_value" : 1862270976,
     "name" : "OMX_AUDIO_StereoWideningKhronosExtensions"
    },
    {
     "enum_field_value" : 2130706432,
     "name" : "OMX_AUDIO_StereoWideningVendorStartUnused"
    },
    {
     "enum_field_value" : 2147483647,
     "name" : "OMX_AUDIO_StereoWideningMax"
    }
   ],
   "linker_set_key" : "OMX_AUDIO_STEREOWIDENINGTYPE",
   "name" : "OMX_AUDIO_STEREOWIDENINGTYPE",
   "referenced_type" : "type-2197",
   "self_type" : "type-2197",
   "size" : 4,
   "source_file" : "/frameworks/native/headers/media_plugin/media/openmax/OMX_Audio.h",
   "underlying_type" : "type-2",
   "unique_id" : "OMX_AUDIO_STEREOWIDENINGTYPE"
  },
  {
   "alignment" : 4,
   "enum_fields" :
   [
    {
     "enum_field_value" : 0,
     "name" : "OMX_AUDIO_WMAFormatUnused"
    },
    {
     "enum_field_value" : 1,
     "name" : "OMX_AUDIO_WMAFormat7"
    },
    {
     "enum_field_value" : 2,
     "name" : "OMX_AUDIO_WMAFormat8"
    },
    {
     "enum_field_value" : 3,
     "name" : "OMX_AUDIO_WMAFormat9"
    },
    {
     "enum_field_value" : 1862270976,
     "name" : "OMX_AUDIO_WMAFormatKhronosExtensions"
    },
    {
     "enum_field_value" : 2130706432,
     "name" : "OMX_AUDIO_WMAFormatVendorStartUnused"
    },
    {
     "enum_field_value" : 2147483647,
     "name" : "OMX_AUDIO_WMAFormatMax"
    }
   ],
   "linker_set_key" : "OMX_AUDIO_WMAFORMATTYPE",
   "name" : "OMX_AUDIO_WMAFORMATTYPE",
   "referenced_type" : "type-1715",
   "self_type" : "type-1715",
   "size" : 4,
   "source_file" : "/frameworks/native/headers/media_plugin/media/openmax/OMX_Audio.h",
   "underlying_type" : "type-2",
   "unique_id" : "OMX_AUDIO_WMAFORMATTYPE"
  },
  {
   "alignment" : 4,
   "enum_fields" :
   [
    {
     "enum_field_value" : 0,
     "name" : "OMX_AUDIO_WMAProfileUnused"
    },
    {
     "enum_field_value" : 1,
     "name" : "OMX_AUDIO_WMAProfileL1"
    },
    {
     "enum_field_value" : 2,
     "name" : "OMX_AUDIO_WMAProfileL2"
    },
    {
     "enum_field_value" : 3,
     "name" : "OMX_AUDIO_WMAProfileL3"
    },
    {
     "enum_field_value" : 1862270976,
     "name" : "OMX_AUDIO_WMAProfileKhronosExtensions"
    },
    {
     "enum_field_value" : 2130706432,
     "name" : "OMX_AUDIO_WMAProfileVendorStartUnused"
    },
    {
     "enum_field_value" : 2147483647,
     "name" : "OMX_AUDIO_WMAProfileMax"
    }
   ],
   "linker_set_key" : "OMX_AUDIO_WMAPROFILETYPE",
   "name" : "OMX_AUDIO_WMAPROFILETYPE",
   "referenced_type" : "type-1725",
   "self_type" : "type-1725",
   "size" : 4,
   "source_file" : "/frameworks/native/headers/media_plugin/media/openmax/OMX_Audio.h",
   "underlying_type" : "type-2",
   "unique_id" : "OMX_AUDIO_WMAPROFILETYPE"
  },
  {
   "alignment" : 4,
   "enum_fields" :
   [
    {
     "enum_field_value" : 0,
     "name" : "OMX_FALSE"
    },
    {
     "enum_field_value" : 1,
     "name" : "OMX_TRUE"
    },
    {
     "enum_field_value" : 2147483647,
     "name" : "OMX_BOOL_MAX"
    }
   ],
   "linker_set_key" : "OMX_BOOL",
   "name" : "OMX_BOOL",
   "referenced_type" : "type-1301",
   "self_type" : "type-1301",
   "size" : 4,
   "source_file" : "/frameworks/native/headers/media_plugin/media/openmax/OMX_Types.h",
   "underlying_type" : "type-2",
   "unique_id" : "OMX_BOOL"
  },
  {
   "alignment" : 4,
   "enum_fields" :
   [
    {
     "enum_field_value" : 0,
     "name" : "OMX_BufferSupplyUnspecified"
    },
    {
     "enum_field_value" : 1,
     "name" : "OMX_BufferSupplyInput"
    },
    {
     "enum_field_value" : 2,
     "name" : "OMX_BufferSupplyOutput"
    },
    {
     "enum_field_value" : 1862270976,
     "name" : "OMX_BufferSupplyKhronosExtensions"
    },
    {
     "enum_field_value" : 2130706432,
     "name" : "OMX_BufferSupplyVendorStartUnused"
    },
    {
     "enum_field_value" : 2147483647,
     "name" : "OMX_BufferSupplyMax"
    }
   ],
   "linker_set_key" : "OMX_BUFFERSUPPLIERTYPE",
   "name" : "OMX_BUFFERSUPPLIERTYPE",
   "referenced_type" : "type-1600",
   "self_type" : "type-1600",
   "size" : 4,
   "source_file" : "/frameworks/native/headers/media_plugin/media/openmax/OMX_Core.h",
   "underlying_type" : "type-2",
   "unique_id" : "OMX_BUFFERSUPPLIERTYPE"
  },
  {
   "alignment" : 4,
   "enum_fields" :
   [
    {
     "enum_field_value" : 0,
     "name" : "OMX_ColorBlendNone"
    },
    {
     "enum_field_value" : 1,
     "name" : "OMX_ColorBlendAlphaConstant"
    },
    {
     "enum_field_value" : 2,
     "name" : "OMX_ColorBlendAlphaPerPixel"
    },
    {
     "enum_field_value" : 3,
     "name" : "OMX_ColorBlendAlternate"
    },
    {
     "enum_field_value" : 4,
     "name" : "OMX_ColorBlendAnd"
    },
    {
     "enum_field_value" : 5,
     "name" : "OMX_ColorBlendOr"
    },
    {
     "enum_field_value" : 6,
     "name" : "OMX_ColorBlendInvert"
    },
    {
     "enum_field_value" : 1862270976,
     "name" : "OMX_ColorBlendKhronosExtensions"
    },
    {
     "enum_field_value" : 2130706432,
     "name" : "OMX_ColorBlendVendorStartUnused"
    },
    {
     "enum_field_value" : 2147483647,
     "name" : "OMX_ColorBlendMax"
    }
   ],
   "linker_set_key" : "OMX_COLORBLENDTYPE",
   "name" : "OMX_COLORBLENDTYPE",
   "referenced_type" : "type-2214",
   "self_type" : "type-2214",
   "size" : 4,
   "source_file" : "/frameworks/native/headers/media_plugin/media/openmax/OMX_IVCommon.h",
   "underlying_type" : "type-2",
   "unique_id" : "OMX_COLORBLENDTYPE"
  },
  {
   "alignment" : 4,
   "enum_fields" :
   [
    {
     "enum_field_value" : 0,
     "name" : "OMX_COLOR_FormatUnused"
    },
    {
     "enum_field_value" : 1,
     "name" : "OMX_COLOR_FormatMonochrome"
    },
    {
     "enum_field_value" : 2,
     "name" : "OMX_COLOR_Format8bitRGB332"
    },
    {
     "enum_field_value" : 3,
     "name" : "OMX_COLOR_Format12bitRGB444"
    },
    {
     "enum_field_value" : 4,
     "name" : "OMX_COLOR_Format16bitARGB4444"
    },
    {
     "enum_field_value" : 5,
     "name" : "OMX_COLOR_Format16bitARGB1555"
    },
    {
     "enum_field_value" : 6,
     "name" : "OMX_COLOR_Format16bitRGB565"
    },
    {
     "enum_field_value" : 7,
     "name" : "OMX_COLOR_Format16bitBGR565"
    },
    {
     "enum_field_value" : 8,
     "name" : "OMX_COLOR_Format18bitRGB666"
    },
    {
     "enum_field_value" : 9,
     "name" : "OMX_COLOR_Format18bitARGB1665"
    },
    {
     "enum_field_value" : 10,
     "name" : "OMX_COLOR_Format19bitARGB1666"
    },
    {
     "enum_field_value" : 11,
     "name" : "OMX_COLOR_Format24bitRGB888"
    },
    {
     "enum_field_value" : 12,
     "name" : "OMX_COLOR_Format24bitBGR888"
    },
    {
     "enum_field_value" : 13,
     "name" : "OMX_COLOR_Format24bitARGB1887"
    },
    {
     "enum_field_value" : 14,
     "name" : "OMX_COLOR_Format25bitARGB1888"
    },
    {
     "enum_field_value" : 15,
     "name" : "OMX_COLOR_Format32bitBGRA8888"
    },
    {
     "enum_field_value" : 16,
     "name" : "OMX_COLOR_Format32bitARGB8888"
    },
    {
     "enum_field_value" : 17,
     "name" : "OMX_COLOR_FormatYUV411Planar"
    },
    {
     "enum_field_value" : 18,
     "name" : "OMX_COLOR_FormatYUV411PackedPlanar"
    },
    {
     "enum_field_value" : 19,
     "name" : "OMX_COLOR_FormatYUV420Planar"
    },
    {
     "enum_field_value" : 20,
     "name" : "OMX_COLOR_FormatYUV420PackedPlanar"
    },
    {
     "enum_field_value" : 21,
     "name" : "OMX_COLOR_FormatYUV420SemiPlanar"
    },
    {
     "enum_field_value" : 22,
     "name" : "OMX_COLOR_FormatYUV422Planar"
    },
    {
     "enum_field_value" : 23,
     "name" : "OMX_COLOR_FormatYUV422PackedPlanar"
    },
    {
     "enum_field_value" : 24,
     "name" : "OMX_COLOR_FormatYUV422SemiPlanar"
    },
    {
     "enum_field_value" : 25,
     "name" : "OMX_COLOR_FormatYCbYCr"
    },
    {
     "enum_field_value" : 26,
     "name" : "OMX_COLOR_FormatYCrYCb"
    },
    {
     "enum_field_value" : 27,
     "name" : "OMX_COLOR_FormatCbYCrY"
    },
    {
     "enum_field_value" : 28,
     "name" : "OMX_COLOR_FormatCrYCbY"
    },
    {
     "enum_field_value" : 29,
     "name" : "OMX_COLOR_FormatYUV444Interleaved"
    },
    {
     "enum_field_value" : 30,
     "name" : "OMX_COLOR_FormatRawBayer8bit"
    },
    {
     "enum_field_value" : 31,
     "name" : "OMX_COLOR_FormatRawBayer10bit"
    },
    {
     "enum_field_value" : 32,
     "name" : "OMX_COLOR_FormatRawBayer8bitcompressed"
    },
    {
     "enum_field_value" : 33,
     "name" : "OMX_COLOR_FormatL2"
    },
    {
     "enum_field_value" : 34,
     "name" : "OMX_COLOR_FormatL4"
    },
    {
     "enum_field_value" : 35,
     "name" : "OMX_COLOR_FormatL8"
    },
    {
     "enum_field_value" : 36,
     "name" : "OMX_COLOR_FormatL16"
    },
    {
     "enum_field_value" : 37,
     "name" : "OMX_COLOR_FormatL24"
    },
    {
     "enum_field_value" : 38,
     "name" : "OMX_COLOR_FormatL32"
    },
    {
     "enum_field_value" : 39,
     "name" : "OMX_COLOR_FormatYUV420PackedSemiPlanar"
    },
    {
     "enum_field_value" : 40,
     "name" : "OMX_COLOR_FormatYUV422PackedSemiPlanar"
    },
    {
     "enum_field_value" : 41,
     "name" : "OMX_COLOR_Format18BitBGR666"
    },
    {
     "enum_field_value" : 42,
     "name" : "OMX_COLOR_Format24BitARGB6666"
    },
    {
     "enum_field_value" : 43,
     "name" : "OMX_COLOR_Format24BitABGR6666"
    },
    {
     "enum_field_value" : 1862270976,
     "name" : "OMX_COLOR_FormatKhronosExtensions"
    },
    {
     "enum_field_value" : 2130706432,
     "name" : "OMX_COLOR_FormatVendorStartUnused"
    },
    {
     "enum_field_value" : 2130708361,
     "name" : "OMX_COLOR_FormatAndroidOpaque"
    },
    {
     "enum_field_value" : 2130747392,
     "name" : "OMX_COLOR_Format32BitRGBA8888"
    },
    {
     "enum_field_value" : 2135033992,
     "name" : "OMX_COLOR_FormatYUV420Flexible"
    },
    {
     "enum_field_value" : 2135032171,
     "name" : "OMX_COLOR_FormatYUV420Planar16"
    },
    {
     "enum_field_value" : 2135181994,
     "name" : "OMX_COLOR_FormatYUV444Y410"
    },
    {
     "enum_field_value" : 2130706688,
     "name" : "OMX_TI_COLOR_FormatYUV420PackedSemiPlanar"
    },
    {
     "enum_field_value" : 2141391872,
     "name" : "OMX_QCOM_COLOR_FormatYVU420SemiPlanar"
    },
    {
     "enum_field_value" : 2141391875,
     "name" : "OMX_QCOM_COLOR_FormatYUV420PackedSemiPlanar64x32Tile2m8ka"
    },
    {
     "enum_field_value" : 2143289346,
     "name" : "OMX_SEC_COLOR_FormatNV12Tiled"
    },
    {
     "enum_field_value" : 2141391876,
     "name" : "OMX_QCOM_COLOR_FormatYUV420PackedSemiPlanar32m"
    },
    {
     "enum_field_value" : 2147483647,
     "name" : "OMX_COLOR_FormatMax"
    }
   ],
   "linker_set_key" : "OMX_COLOR_FORMATTYPE",
   "name" : "OMX_COLOR_FORMATTYPE",
   "referenced_type" : "type-2204",
   "self_type" : "type-2204",
   "size" : 4,
   "source_file" : "/frameworks/native/headers/media_plugin/media/openmax/OMX_IVCommon.h",
   "underlying_type" : "type-2",
   "unique_id" : "OMX_COLOR_FORMATTYPE"
  },
  {
   "alignment" : 4,
   "enum_fields" :
   [
    {
     "enum_field_value" : 0,
     "name" : "OMX_CommandStateSet"
    },
    {
     "enum_field_value" : 1,
     "name" : "OMX_CommandFlush"
    },
    {
     "enum_field_value" : 2,
     "name" : "OMX_CommandPortDisable"
    },
    {
     "enum_field_value" : 3,
     "name" : "OMX_CommandPortEnable"
    },
    {
     "enum_field_value" : 4,
     "name" : "OMX_CommandMarkBuffer"
    },
    {
     "enum_field_value" : 1862270976,
     "name" : "OMX_CommandKhronosExtensions"
    },
    {
     "enum_field_value" : 2130706432,
     "name" : "OMX_CommandVendorStartUnused"
    },
    {
     "enum_field_value" : 2147483647,
     "name" : "OMX_CommandMax"
    }
   ],
   "linker_set_key" : "OMX_COMMANDTYPE",
   "name" : "OMX_COMMANDTYPE",
   "referenced_type" : "type-1489",
   "self_type" : "type-1489",
   "size" : 4,
   "source_file" : "/frameworks/native/headers/media_plugin/media/openmax/OMX_Core.h",
   "underlying_type" : "type-2",
   "unique_id" : "OMX_COMMANDTYPE"
  },
  {
   "alignment" : 4,
   "enum_fields" :
   [
    {
     "enum_field_value" : 0,
     "name" : "OMX_DataEncapsulationElementaryStream"
    },
    {
     "enum_field_value" : 1,
     "name" : "OMX_DataEncapsulationGenericPayload"
    },
    {
     "enum_field_value" : 2,
     "name" : "OMX_DataEncapsulationRtpPayload"
    },
    {
     "enum_field_value" : 1862270976,
     "name" : "OMX_DataEncapsulationKhronosExtensions"
    },
    {
     "enum_field_value" : 2130706432,
     "name" : "OMX_DataEncapsulationVendorStartUnused"
    },
    {
     "enum_field_value" : 2147483647,
     "name" : "OMX_DataEncapsulationMax"
    }
   ],
   "linker_set_key" : "OMX_DATAUNITENCAPSULATIONTYPE",
   "name" : "OMX_DATAUNITENCAPSULATIONTYPE",
   "referenced_type" : "type-2241",
   "self_type" : "type-2241",
   "size" : 4,
   "source_file" : "/frameworks/native/headers/media_plugin/media/openmax/OMX_IVCommon.h",
   "underlying_type" : "type-2",
   "unique_id" : "OMX_DATAUNITENCAPSULATIONTYPE"
  },
  {
   "alignment" : 4,
   "enum_fields" :
   [
    {
     "enum_field_value" : 0,
     "name" : "OMX_DataUnitCodedPicture"
    },
    {
     "enum_field_value" : 1,
     "name" : "OMX_DataUnitVideoSegment"
    },
    {
     "enum_field_value" : 2,
     "name" : "OMX_DataUnitSeveralSegments"
    },
    {
     "enum_field_value" : 3,
     "name" : "OMX_DataUnitArbitraryStreamSection"
    },
    {
     "enum_field_value" : 1862270976,
     "name" : "OMX_DataUnitKhronosExtensions"
    },
    {
     "enum_field_value" : 2130706432,
     "name" : "OMX_DataUnitVendorStartUnused"
    },
    {
     "enum_field_value" : 2147483647,
     "name" : "OMX_DataUnitMax"
    }
   ],
   "linker_set_key" : "OMX_DATAUNITTYPE",
   "name" : "OMX_DATAUNITTYPE",
   "referenced_type" : "type-2240",
   "self_type" : "type-2240",
   "size" : 4,
   "source_file" : "/frameworks/native/headers/media_plugin/media/openmax/OMX_IVCommon.h",
   "underlying_type" : "type-2",
   "unique_id" : "OMX_DATAUNITTYPE"
  },
  {
   "alignment" : 4,
   "enum_fields" :
   [
    {
     "enum_field_value" : 0,
     "name" : "OMX_DirInput"
    },
    {
     "enum_field_value" : 1,
     "name" : "OMX_DirOutput"
    },
    {
     "enum_field_value" : 2147483647,
     "name" : "OMX_DirMax"
    }
   ],
   "linker_set_key" : "OMX_DIRTYPE",
   "name" : "OMX_DIRTYPE",
   "referenced_type" : "type-1456",
   "self_type" : "type-1456",
   "size" : 4,
   "source_file" : "/frameworks/native/headers/media_plugin/media/openmax/OMX_Types.h",
   "underlying_type" : "type-2",
   "unique_id" : "OMX_DIRTYPE"
  },
  {
   "alignment" : 4,
   "enum_fields" :
   [
    {
     "enum_field_value" : 0,
     "name" : "OMX_DitherNone"
    },
    {
     "enum_field_value" : 1,
     "name" : "OMX_DitherOrdered"
    },
    {
     "enum_field_value" : 2,
     "name" : "OMX_DitherErrorDiffusion"
    },
    {
     "enum_field_value" : 3,
     "name" : "OMX_DitherOther"
    },
    {
     "enum_field_value" : 1862270976,
     "name" : "OMX_DitherKhronosExtensions"
    },
    {
     "enum_field_value" : 2130706432,
     "name" : "OMX_DitherVendorStartUnused"
    },
    {
     "enum_field_value" : 2147483647,
     "name" : "OMX_DitherMax"
    }
   ],
   "linker_set_key" : "OMX_DITHERTYPE",
   "name" : "OMX_DITHERTYPE",
   "referenced_type" : "type-2243",
   "self_type" : "type-2243",
   "size" : 4,
   "source_file" : "/frameworks/native/headers/media_plugin/media/openmax/OMX_IVCommon.h",
   "underlying_type" : "type-2",
   "unique_id" : "OMX_DITHERTYPE"
  },
  {
   "alignment" : 4,
   "enum_fields" :
   [
    {
     "enum_field_value" : 0,
     "name" : "OMX_EndianBig"
    },
    {
     "enum_field_value" : 1,
     "name" : "OMX_EndianLittle"
    },
    {
     "enum_field_value" : 2147483647,
     "name" : "OMX_EndianMax"
    }
   ],
   "linker_set_key" : "OMX_ENDIANTYPE",
   "name" : "OMX_ENDIANTYPE",
   "referenced_type" : "type-1462",
   "self_type" : "type-1462",
   "size" : 4,
   "source_file" : "/frameworks/native/headers/media_plugin/media/openmax/OMX_Types.h",
   "underlying_type" : "type-2",
   "unique_id" : "OMX_ENDIANTYPE"
  },
  {
   "alignment" : 4,
   "enum_fields" :
   [
    {
     "enum_field_value" : 0,
     "name" : "OMX_ErrorNone"
    },
    {
     "enum_field_value" : -2147479552,
     "name" : "OMX_ErrorInsufficientResources"
    },
    {
     "enum_field_value" : -2147479551,
     "name" : "OMX_ErrorUndefined"
    },
    {
     "enum_field_value" : -2147479550,
     "name" : "OMX_ErrorInvalidComponentName"
    },
    {
     "enum_field_value" : -2147479549,
     "name" : "OMX_ErrorComponentNotFound"
    },
    {
     "enum_field_value" : -2147479548,
     "name" : "OMX_ErrorInvalidComponent"
    },
    {
     "enum_field_value" : -2147479547,
     "name" : "OMX_ErrorBadParameter"
    },
    {
     "enum_field_value" : -2147479546,
     "name" : "OMX_ErrorNotImplemented"
    },
    {
     "enum_field_value" : -2147479545,
     "name" : "OMX_ErrorUnderflow"
    },
    {
     "enum_field_value" : -2147479544,
     "name" : "OMX_ErrorOverflow"
    },
    {
     "enum_field_value" : -2147479543,
     "name" : "OMX_ErrorHardware"
    },
    {
     "enum_field_value" : -2147479542,
     "name" : "OMX_ErrorInvalidState"
    },
    {
     "enum_field_value" : -2147479541,
     "name" : "OMX_ErrorStreamCorrupt"
    },
    {
     "enum_field_value" : -2147479540,
     "name" : "OMX_ErrorPortsNotCompatible"
    },
    {
     "enum_field_value" : -2147479539,
     "name" : "OMX_ErrorResourcesLost"
    },
    {
     "enum_field_value" : -2147479538,
     "name" : "OMX_ErrorNoMore"
    },
    {
     "enum_field_value" : -2147479537,
     "name" : "OMX_ErrorVersionMismatch"
    },
    {
     "enum_field_value" : -2147479536,
     "name" : "OMX_ErrorNotReady"
    },
    {
     "enum_field_value" : -2147479535,
     "name" : "OMX_ErrorTimeout"
    },
    {
     "enum_field_value" : -2147479534,
     "name" : "OMX_ErrorSameState"
    },
    {
     "enum_field_value" : -2147479533,
     "name" : "OMX_ErrorResourcesPreempted"
    },
    {
     "enum_field_value" : -2147479532,
     "name" : "OMX_ErrorPortUnresponsiveDuringAllocation"
    },
    {
     "enum_field_value" : -2147479531,
     "name" : "OMX_ErrorPortUnresponsiveDuringDeallocation"
    },
    {
     "enum_field_value" : -2147479530,
     "name" : "OMX_ErrorPortUnresponsiveDuringStop"
    },
    {
     "enum_field_value" : -2147479529,
     "name" : "OMX_ErrorIncorrectStateTransition"
    },
    {
     "enum_field_value" : -2147479528,
     "name" : "OMX_ErrorIncorrectStateOperation"
    },
    {
     "enum_field_value" : -2147479527,
     "name" : "OMX_ErrorUnsupportedSetting"
    },
    {
     "enum_field_value" : -2147479526,
     "name" : "OMX_ErrorUnsupportedIndex"
    },
    {
     "enum_field_value" : -2147479525,
     "name" : "OMX_ErrorBadPortIndex"
    },
    {
     "enum_field_value" : -2147479524,
     "name" : "OMX_ErrorPortUnpopulated"
    },
    {
     "enum_field_value" : -2147479523,
     "name" : "OMX_ErrorComponentSuspended"
    },
    {
     "enum_field_value" : -2147479522,
     "name" : "OMX_ErrorDynamicResourcesUnavailable"
    },
    {
     "enum_field_value" : -2147479521,
     "name" : "OMX_ErrorMbErrorsInFrame"
    },
    {
     "enum_field_value" : -2147479520,
     "name" : "OMX_ErrorFormatNotDetected"
    },
    {
     "enum_field_value" : -2147479519,
     "name" : "OMX_ErrorContentPipeOpenFailed"
    },
    {
     "enum_field_value" : -2147479518,
     "name" : "OMX_ErrorContentPipeCreationFailed"
    },
    {
     "enum_field_value" : -2147479517,
     "name" : "OMX_ErrorSeperateTablesUsed"
    },
    {
     "enum_field_value" : -2147479516,
     "name" : "OMX_ErrorTunnelingUnsupported"
    },
    {
     "enum_field_value" : -1895825408,
     "name" : "OMX_ErrorKhronosExtensions"
    },
    {
     "enum_field_value" : -1879048192,
     "name" : "OMX_ErrorVendorStartUnused"
    },
    {
     "enum_field_value" : 2147483647,
     "name" : "OMX_ErrorMax"
    }
   ],
   "linker_set_key" : "OMX_ERRORTYPE",
   "name" : "OMX_ERRORTYPE",
   "referenced_type" : "type-1497",
   "self_type" : "type-1497",
   "size" : 4,
   "source_file" : "/frameworks/native/headers/media_plugin/media/openmax/OMX_Core.h",
   "underlying_type" : "type-4",
   "unique_id" : "OMX_ERRORTYPE"
  },
  {
   "alignment" : 4,
   "enum_fields" :
   [
    {
     "enum_field_value" : 0,
     "name" : "OMX_EventCmdComplete"
    },
    {
     "enum_field_value" : 1,
     "name" : "OMX_EventError"
    },
    {
     "enum_field_value" : 2,
     "name" : "OMX_EventMark"
    },
    {
     "enum_field_value" : 3,
     "name" : "OMX_EventPortSettingsChanged"
    },
    {
     "enum_field_value" : 4,
     "name" : "OMX_EventBufferFlag"
    },
    {
     "enum_field_value" : 5,
     "name" : "OMX_EventResourcesAcquired"
    },
    {
     "enum_field_value" : 6,
     "name" : "OMX_EventComponentResumed"
    },
    {
     "enum_field_value" : 7,
     "name" : "OMX_EventDynamicResourcesAvailable"
    },
    {
     "enum_field_value" : 8,
     "name" : "OMX_EventPortFormatDetected"
    },
    {
     "enum_field_value" : 1862270976,
     "name" : "OMX_EventKhronosExtensions"
    },
    {
     "enum_field_value" : 2130706432,
     "name" : "OMX_EventVendorStartUnused"
    },
    {
     "enum_field_value" : 2130706433,
     "name" : "OMX_EventOutputRendered"
    },
    {
     "enum_field_value" : 2130706434,
     "name" : "OMX_EventDataSpaceChanged"
    },
    {
     "enum_field_value" : 2130706435,
     "name" : "OMX_EventConfigUpdate"
    },
    {
     "enum_field_value" : 2147483647,
     "name" : "OMX_EventMax"
    }
   ],
   "linker_set_key" : "OMX_EVENTTYPE",
   "name" : "OMX_EVENTTYPE",
   "referenced_type" : "type-1591",
   "self_type" : "type-1591",
   "size" : 4,
   "source_file" : "/frameworks/native/headers/media_plugin/media/openmax/OMX_Core.h",
   "underlying_type" : "type-2",
   "unique_id" : "OMX_EVENTTYPE"
  },
  {
   "alignment" : 4,
   "enum_fields" :
   [
    {
     "enum_field_value" : 0,
     "name" : "OMX_ExposureControlOff"
    },
    {
     "enum_field_value" : 1,
     "name" : "OMX_ExposureControlAuto"
    },
    {
     "enum_field_value" : 2,
     "name" : "OMX_ExposureControlNight"
    },
    {
     "enum_field_value" : 3,
     "name" : "OMX_ExposureControlBackLight"
    },
    {
     "enum_field_value" : 4,
     "name" : "OMX_ExposureControlSpotLight"
    },
    {
     "enum_field_value" : 5,
     "name" : "OMX_ExposureControlSports"
    },
    {
     "enum_field_value" : 6,
     "name" : "OMX_ExposureControlSnow"
    },
    {
     "enum_field_value" : 7,
     "name" : "OMX_ExposureControlBeach"
    },
    {
     "enum_field_value" : 8,
     "name" : "OMX_ExposureControlLargeAperture"
    },
    {
     "enum_field_value" : 9,
     "name" : "OMX_ExposureControlSmallApperture"
    },
    {
     "enum_field_value" : 1862270976,
     "name" : "OMX_ExposureControlKhronosExtensions"
    },
    {
     "enum_field_value" : 2130706432,
     "name" : "OMX_ExposureControlVendorStartUnused"
    },
    {
     "enum_field_value" : 2147483647,
     "name" : "OMX_ExposureControlMax"
    }
   ],
   "linker_set_key" : "OMX_EXPOSURECONTROLTYPE",
   "name" : "OMX_EXPOSURECONTROLTYPE",
   "referenced_type" : "type-2226",
   "self_type" : "type-2226",
   "size" : 4,
   "source_file" : "/frameworks/native/headers/media_plugin/media/openmax/OMX_IVCommon.h",
   "underlying_type" : "type-2",
   "unique_id" : "OMX_EXPOSURECONTROLTYPE"
  },
  {
   "alignment" : 4,
   "enum_fields" :
   [
    {
     "enum_field_value" : 0,
     "name" : "OMX_ExtraDataNone"
    },
    {
     "enum_field_value" : 1,
     "name" : "OMX_ExtraDataQuantization"
    },
    {
     "enum_field_value" : 1862270976,
     "name" : "OMX_ExtraDataKhronosExtensions"
    },
    {
     "enum_field_value" : 2130706432,
     "name" : "OMX_ExtraDataVendorStartUnused"
    },
    {
     "enum_field_value" : 2147483647,
     "name" : "OMX_ExtraDataMax"
    }
   ],
   "linker_set_key" : "OMX_EXTRADATATYPE",
   "name" : "OMX_EXTRADATATYPE",
   "referenced_type" : "type-1559",
   "self_type" : "type-1559",
   "size" : 4,
   "source_file" : "/frameworks/native/headers/media_plugin/media/openmax/OMX_Core.h",
   "underlying_type" : "type-2",
   "unique_id" : "OMX_EXTRADATATYPE"
  },
  {
   "alignment" : 4,
   "enum_fields" :
   [
    {
     "enum_field_value" : 0,
     "name" : "OMX_FocusStatusOff"
    },
    {
     "enum_field_value" : 1,
     "name" : "OMX_FocusStatusRequest"
    },
    {
     "enum_field_value" : 2,
     "name" : "OMX_FocusStatusReached"
    },
    {
     "enum_field_value" : 3,
     "name" : "OMX_FocusStatusUnableToReach"
    },
    {
     "enum_field_value" : 4,
     "name" : "OMX_FocusStatusLost"
    },
    {
     "enum_field_value" : 1862270976,
     "name" : "OMX_FocusStatusKhronosExtensions"
    },
    {
     "enum_field_value" : 2130706432,
     "name" : "OMX_FocusStatusVendorStartUnused"
    },
    {
     "enum_field_value" : 2147483647,
     "name" : "OMX_FocusStatusMax"
    }
   ],
   "linker_set_key" : "OMX_FOCUSSTATUSTYPE",
   "name" : "OMX_FOCUSSTATUSTYPE",
   "referenced_type" : "type-2251",
   "self_type" : "type-2251",
   "size" : 4,
   "source_file" : "/frameworks/native/headers/media_plugin/media/openmax/OMX_IVCommon.h",
   "underlying_type" : "type-2",
   "unique_id" : "OMX_FOCUSSTATUSTYPE"
  },
  {
   "alignment" : 4,
   "enum_fields" :
   [
    {
     "enum_field_value" : 0,
     "name" : "OMX_ImageFilterNone"
    },
    {
     "enum_field_value" : 1,
     "name" : "OMX_ImageFilterNoise"
    },
    {
     "enum_field_value" : 2,
     "name" : "OMX_ImageFilterEmboss"
    },
    {
     "enum_field_value" : 3,
     "name" : "OMX_ImageFilterNegative"
    },
    {
     "enum_field_value" : 4,
     "name" : "OMX_ImageFilterSketch"
    },
    {
     "enum_field_value" : 5,
     "name" : "OMX_ImageFilterOilPaint"
    },
    {
     "enum_field_value" : 6,
     "name" : "OMX_ImageFilterHatch"
    },
    {
     "enum_field_value" : 7,
     "name" : "OMX_ImageFilterGpen"
    },
    {
     "enum_field_value" : 8,
     "name" : "OMX_ImageFilterAntialias"
    },
    {
     "enum_field_value" : 9,
     "name" : "OMX_ImageFilterDeRing"
    },
    {
     "enum_field_value" : 10,
     "name" : "OMX_ImageFilterSolarize"
    },
    {
     "enum_field_value" : 1862270976,
     "name" : "OMX_ImageFilterKhronosExtensions"
    },
    {
     "enum_field_value" : 2130706432,
     "name" : "OMX_ImageFilterVendorStartUnused"
    },
    {
     "enum_field_value" : 2147483647,
     "name" : "OMX_ImageFilterMax"
    }
   ],
   "linker_set_key" : "OMX_IMAGEFILTERTYPE",
   "name" : "OMX_IMAGEFILTERTYPE",
   "referenced_type" : "type-2210",
   "self_type" : "type-2210",
   "size" : 4,
   "source_file" : "/frameworks/native/headers/media_plugin/media/openmax/OMX_IVCommon.h",
   "underlying_type" : "type-2",
   "unique_id" : "OMX_IMAGEFILTERTYPE"
  },
  {
   "alignment" : 4,
   "enum_fields" :
   [
    {
     "enum_field_value" : 0,
     "name" : "OMX_IMAGE_CodingUnused"
    },
    {
     "enum_field_value" : 1,
     "name" : "OMX_IMAGE_CodingAutoDetect"
    },
    {
     "enum_field_value" : 2,
     "name" : "OMX_IMAGE_CodingJPEG"
    },
    {
     "enum_field_value" : 3,
     "name" : "OMX_IMAGE_CodingJPEG2K"
    },
    {
     "enum_field_value" : 4,
     "name" : "OMX_IMAGE_CodingEXIF"
    },
    {
     "enum_field_value" : 5,
     "name" : "OMX_IMAGE_CodingTIFF"
    },
    {
     "enum_field_value" : 6,
     "name" : "OMX_IMAGE_CodingGIF"
    },
    {
     "enum_field_value" : 7,
     "name" : "OMX_IMAGE_CodingPNG"
    },
    {
     "enum_field_value" : 8,
     "name" : "OMX_IMAGE_CodingLZW"
    },
    {
     "enum_field_value" : 9,
     "name" : "OMX_IMAGE_CodingBMP"
    },
    {
     "enum_field_value" : 1862270976,
     "name" : "OMX_IMAGE_CodingKhronosExtensions"
    },
    {
     "enum_field_value" : 2130706432,
     "name" : "OMX_IMAGE_CodingVendorStartUnused"
    },
    {
     "enum_field_value" : 2147483647,
     "name" : "OMX_IMAGE_CodingMax"
    }
   ],
   "linker_set_key" : "OMX_IMAGE_CODINGTYPE",
   "name" : "OMX_IMAGE_CODINGTYPE",
   "referenced_type" : "type-2302",
   "self_type" : "type-2302",
   "size" : 4,
   "source_file" : "/frameworks/native/headers/media_plugin/media/openmax/OMX_Image.h",
   "underlying_type" : "type-2",
   "unique_id" : "OMX_IMAGE_CODINGTYPE"
  },
  {
   "alignment" : 4,
   "enum_fields" :
   [
    {
     "enum_field_value" : 0,
     "name" : "OMX_IMAGE_FlashControlOn"
    },
    {
     "enum_field_value" : 1,
     "name" : "OMX_IMAGE_FlashControlOff"
    },
    {
     "enum_field_value" : 2,
     "name" : "OMX_IMAGE_FlashControlAuto"
    },
    {
     "enum_field_value" : 3,
     "name" : "OMX_IMAGE_FlashControlRedEyeReduction"
    },
    {
     "enum_field_value" : 4,
     "name" : "OMX_IMAGE_FlashControlFillin"
    },
    {
     "enum_field_value" : 5,
     "name" : "OMX_IMAGE_FlashControlTorch"
    },
    {
     "enum_field_value" : 1862270976,
     "name" : "OMX_IMAGE_FlashControlKhronosExtensions"
    },
    {
     "enum_field_value" : 2130706432,
     "name" : "OMX_IMAGE_FlashControlVendorStartUnused"
    },
    {
     "enum_field_value" : 2147483647,
     "name" : "OMX_IMAGE_FlashControlMax"
    }
   ],
   "linker_set_key" : "OMX_IMAGE_FLASHCONTROLTYPE",
   "name" : "OMX_IMAGE_FLASHCONTROLTYPE",
   "referenced_type" : "type-2305",
   "self_type" : "type-2305",
   "size" : 4,
   "source_file" : "/frameworks/native/headers/media_plugin/media/openmax/OMX_Image.h",
   "underlying_type" : "type-2",
   "unique_id" : "OMX_IMAGE_FLASHCONTROLTYPE"
  },
  {
   "alignment" : 4,
   "enum_fields" :
   [
    {
     "enum_field_value" : 0,
     "name" : "OMX_IMAGE_FocusControlOn"
    },
    {
     "enum_field_value" : 1,
     "name" : "OMX_IMAGE_FocusControlOff"
    },
    {
     "enum_field_value" : 2,
     "name" : "OMX_IMAGE_FocusControlAuto"
    },
    {
     "enum_field_value" : 3,
     "name" : "OMX_IMAGE_FocusControlAutoLock"
    },
    {
     "enum_field_value" : 1862270976,
     "name" : "OMX_IMAGE_FocusControlKhronosExtensions"
    },
    {
     "enum_field_value" : 2130706432,
     "name" : "OMX_IMAGE_FocusControlVendorStartUnused"
    },
    {
     "enum_field_value" : 2147483647,
     "name" : "OMX_IMAGE_FocusControlMax"
    }
   ],
   "linker_set_key" : "OMX_IMAGE_FOCUSCONTROLTYPE",
   "name" : "OMX_IMAGE_FOCUSCONTROLTYPE",
   "referenced_type" : "type-2308",
   "self_type" : "type-2308",
   "size" : 4,
   "source_file" : "/frameworks/native/headers/media_plugin/media/openmax/OMX_Image.h",
   "underlying_type" : "type-2",
   "unique_id" : "OMX_IMAGE_FOCUSCONTROLTYPE"
  },
  {
   "alignment" : 4,
   "enum_fields" :
   [
    {
     "enum_field_value" : 0,
     "name" : "OMX_IMAGE_HuffmanTableAC"
    },
    {
     "enum_field_value" : 1,
     "name" : "OMX_IMAGE_HuffmanTableDC"
    },
    {
     "enum_field_value" : 2,
     "name" : "OMX_IMAGE_HuffmanTableACLuma"
    },
    {
     "enum_field_value" : 3,
     "name" : "OMX_IMAGE_HuffmanTableACChroma"
    },
    {
     "enum_field_value" : 4,
     "name" : "OMX_IMAGE_HuffmanTableDCLuma"
    },
    {
     "enum_field_value" : 5,
     "name" : "OMX_IMAGE_HuffmanTableDCChroma"
    },
    {
     "enum_field_value" : 1862270976,
     "name" : "OMX_IMAGE_HuffmanTableKhronosExtensions"
    },
    {
     "enum_field_value" : 2130706432,
     "name" : "OMX_IMAGE_HuffmanTableVendorStartUnused"
    },
    {
     "enum_field_value" : 2147483647,
     "name" : "OMX_IMAGE_HuffmanTableMax"
    }
   ],
   "linker_set_key" : "OMX_IMAGE_HUFFMANTABLETYPE",
   "name" : "OMX_IMAGE_HUFFMANTABLETYPE",
   "referenced_type" : "type-2314",
   "self_type" : "type-2314",
   "size" : 4,
   "source_file" : "/frameworks/native/headers/media_plugin/media/openmax/OMX_Image.h",
   "underlying_type" : "type-2",
   "unique_id" : "OMX_IMAGE_HUFFMANTABLETYPE"
  },
  {
   "alignment" : 4,
   "enum_fields" :
   [
    {
     "enum_field_value" : 0,
     "name" : "OMX_IMAGE_QuantizationTableLuma"
    },
    {
     "enum_field_value" : 1,
     "name" : "OMX_IMAGE_QuantizationTableChroma"
    },
    {
     "enum_field_value" : 2,
     "name" : "OMX_IMAGE_QuantizationTableChromaCb"
    },
    {
     "enum_field_value" : 3,
     "name" : "OMX_IMAGE_QuantizationTableChromaCr"
    },
    {
     "enum_field_value" : 1862270976,
     "name" : "OMX_IMAGE_QuantizationTableKhronosExtensions"
    },
    {
     "enum_field_value" : 2130706432,
     "name" : "OMX_IMAGE_QuantizationTableVendorStartUnused"
    },
    {
     "enum_field_value" : 2147483647,
     "name" : "OMX_IMAGE_QuantizationTableMax"
    }
   ],
   "linker_set_key" : "OMX_IMAGE_QUANTIZATIONTABLETYPE",
   "name" : "OMX_IMAGE_QUANTIZATIONTABLETYPE",
   "referenced_type" : "type-2311",
   "self_type" : "type-2311",
   "size" : 4,
   "source_file" : "/frameworks/native/headers/media_plugin/media/openmax/OMX_Image.h",
   "underlying_type" : "type-2",
   "unique_id" : "OMX_IMAGE_QUANTIZATIONTABLETYPE"
  },
  {
   "alignment" : 4,
   "enum_fields" :
   [
    {
     "enum_field_value" : 16777216,
     "name" : "OMX_IndexComponentStartUnused"
    },
    {
     "enum_field_value" : 16777217,
     "name" : "OMX_IndexParamPriorityMgmt"
    },
    {
     "enum_field_value" : 16777218,
     "name" : "OMX_IndexParamAudioInit"
    },
    {
     "enum_field_value" : 16777219,
     "name" : "OMX_IndexParamImageInit"
    },
    {
     "enum_field_value" : 16777220,
     "name" : "OMX_IndexParamVideoInit"
    },
    {
     "enum_field_value" : 16777221,
     "name" : "OMX_IndexParamOtherInit"
    },
    {
     "enum_field_value" : 16777222,
     "name" : "OMX_IndexParamNumAvailableStreams"
    },
    {
     "enum_field_value" : 16777223,
     "name" : "OMX_IndexParamActiveStream"
    },
    {
     "enum_field_value" : 16777224,
     "name" : "OMX_IndexParamSuspensionPolicy"
    },
    {
     "enum_field_value" : 16777225,
     "name" : "OMX_IndexParamComponentSuspended"
    },
    {
     "enum_field_value" : 16777226,
     "name" : "OMX_IndexConfigCapturing"
    },
    {
     "enum_field_value" : 16777227,
     "name" : "OMX_IndexConfigCaptureMode"
    },
    {
     "enum_field_value" : 16777228,
     "name" : "OMX_IndexAutoPauseAfterCapture"
    },
    {
     "enum_field_value" : 16777229,
     "name" : "OMX_IndexParamContentURI"
    },
    {
     "enum_field_value" : 16777230,
     "name" : "OMX_IndexParamCustomContentPipe"
    },
    {
     "enum_field_value" : 16777231,
     "name" : "OMX_IndexParamDisableResourceConcealment"
    },
    {
     "enum_field_value" : 16777232,
     "name" : "OMX_IndexConfigMetadataItemCount"
    },
    {
     "enum_field_value" : 16777233,
     "name" : "OMX_IndexConfigContainerNodeCount"
    },
    {
     "enum_field_value" : 16777234,
     "name" : "OMX_IndexConfigMetadataItem"
    },
    {
     "enum_field_value" : 16777235,
     "name" : "OMX_IndexConfigCounterNodeID"
    },
    {
     "enum_field_value" : 16777236,
     "name" : "OMX_IndexParamMetadataFilterType"
    },
    {
     "enum_field_value" : 16777237,
     "name" : "OMX_IndexParamMetadataKeyFilter"
    },
    {
     "enum_field_value" : 16777238,
     "name" : "OMX_IndexConfigPriorityMgmt"
    },
    {
     "enum_field_value" : 16777239,
     "name" : "OMX_IndexParamStandardComponentRole"
    },
    {
     "enum_field_value" : 16777240,
     "name" : "OMX_IndexComponentEndUnused"
    },
    {
     "enum_field_value" : 33554432,
     "name" : "OMX_IndexPortStartUnused"
    },
    {
     "enum_field_value" : 33554433,
     "name" : "OMX_IndexParamPortDefinition"
    },
    {
     "enum_field_value" : 33554434,
     "name" : "OMX_IndexParamCompBufferSupplier"
    },
    {
     "enum_field_value" : 33554435,
     "name" : "OMX_IndexPortEndUnused"
    },
    {
     "enum_field_value" : 50331648,
     "name" : "OMX_IndexReservedStartUnused"
    },
    {
     "enum_field_value" : 67108864,
     "name" : "OMX_IndexAudioStartUnused"
    },
    {
     "enum_field_value" : 67108865,
     "name" : "OMX_IndexParamAudioPortFormat"
    },
    {
     "enum_field_value" : 67108866,
     "name" : "OMX_IndexParamAudioPcm"
    },
    {
     "enum_field_value" : 67108867,
     "name" : "OMX_IndexParamAudioAac"
    },
    {
     "enum_field_value" : 67108868,
     "name" : "OMX_IndexParamAudioRa"
    },
    {
     "enum_field_value" : 67108869,
     "name" : "OMX_IndexParamAudioMp3"
    },
    {
     "enum_field_value" : 67108870,
     "name" : "OMX_IndexParamAudioAdpcm"
    },
    {
     "enum_field_value" : 67108871,
     "name" : "OMX_IndexParamAudioG723"
    },
    {
     "enum_field_value" : 67108872,
     "name" : "OMX_IndexParamAudioG729"
    },
    {
     "enum_field_value" : 67108873,
     "name" : "OMX_IndexParamAudioAmr"
    },
    {
     "enum_field_value" : 67108874,
     "name" : "OMX_IndexParamAudioWma"
    },
    {
     "enum_field_value" : 67108875,
     "name" : "OMX_IndexParamAudioSbc"
    },
    {
     "enum_field_value" : 67108876,
     "name" : "OMX_IndexParamAudioMidi"
    },
    {
     "enum_field_value" : 67108877,
     "name" : "OMX_IndexParamAudioGsm_FR"
    },
    {
     "enum_field_value" : 67108878,
     "name" : "OMX_IndexParamAudioMidiLoadUserSound"
    },
    {
     "enum_field_value" : 67108879,
     "name" : "OMX_IndexParamAudioG726"
    },
    {
     "enum_field_value" : 67108880,
     "name" : "OMX_IndexParamAudioGsm_EFR"
    },
    {
     "enum_field_value" : 67108881,
     "name" : "OMX_IndexParamAudioGsm_HR"
    },
    {
     "enum_field_value" : 67108882,
     "name" : "OMX_IndexParamAudioPdc_FR"
    },
    {
     "enum_field_value" : 67108883,
     "name" : "OMX_IndexParamAudioPdc_EFR"
    },
    {
     "enum_field_value" : 67108884,
     "name" : "OMX_IndexParamAudioPdc_HR"
    },
    {
     "enum_field_value" : 67108885,
     "name" : "OMX_IndexParamAudioTdma_FR"
    },
    {
     "enum_field_value" : 67108886,
     "name" : "OMX_IndexParamAudioTdma_EFR"
    },
    {
     "enum_field_value" : 67108887,
     "name" : "OMX_IndexParamAudioQcelp8"
    },
    {
     "enum_field_value" : 67108888,
     "name" : "OMX_IndexParamAudioQcelp13"
    },
    {
     "enum_field_value" : 67108889,
     "name" : "OMX_IndexParamAudioEvrc"
    },
    {
     "enum_field_value" : 67108890,
     "name" : "OMX_IndexParamAudioSmv"
    },
    {
     "enum_field_value" : 67108891,
     "name" : "OMX_IndexParamAudioVorbis"
    },
    {
     "enum_field_value" : 67108892,
     "name" : "OMX_IndexParamAudioFlac"
    },
    {
     "enum_field_value" : 67108893,
     "name" : "OMX_IndexAudioEndUnused"
    },
    {
     "enum_field_value" : 67108894,
     "name" : "OMX_IndexConfigAudioMidiImmediateEvent"
    },
    {
     "enum_field_value" : 67108895,
     "name" : "OMX_IndexConfigAudioMidiControl"
    },
    {
     "enum_field_value" : 67108896,
     "name" : "OMX_IndexConfigAudioMidiSoundBankProgram"
    },
    {
     "enum_field_value" : 67108897,
     "name" : "OMX_IndexConfigAudioMidiStatus"
    },
    {
     "enum_field_value" : 67108898,
     "name" : "OMX_IndexConfigAudioMidiMetaEvent"
    },
    {
     "enum_field_value" : 67108899,
     "name" : "OMX_IndexConfigAudioMidiMetaEventData"
    },
    {
     "enum_field_value" : 67108900,
     "name" : "OMX_IndexConfigAudioVolume"
    },
    {
     "enum_field_value" : 67108901,
     "name" : "OMX_IndexConfigAudioBalance"
    },
    {
     "enum_field_value" : 67108902,
     "name" : "OMX_IndexConfigAudioChannelMute"
    },
    {
     "enum_field_value" : 67108903,
     "name" : "OMX_IndexConfigAudioMute"
    },
    {
     "enum_field_value" : 67108904,
     "name" : "OMX_IndexConfigAudioLoudness"
    },
    {
     "enum_field_value" : 67108905,
     "name" : "OMX_IndexConfigAudioEchoCancelation"
    },
    {
     "enum_field_value" : 67108906,
     "name" : "OMX_IndexConfigAudioNoiseReduction"
    },
    {
     "enum_field_value" : 67108907,
     "name" : "OMX_IndexConfigAudioBass"
    },
    {
     "enum_field_value" : 67108908,
     "name" : "OMX_IndexConfigAudioTreble"
    },
    {
     "enum_field_value" : 67108909,
     "name" : "OMX_IndexConfigAudioStereoWidening"
    },
    {
     "enum_field_value" : 67108910,
     "name" : "OMX_IndexConfigAudioChorus"
    },
    {
     "enum_field_value" : 67108911,
     "name" : "OMX_IndexConfigAudioEqualizer"
    },
    {
     "enum_field_value" : 67108912,
     "name" : "OMX_IndexConfigAudioReverberation"
    },
    {
     "enum_field_value" : 67108913,
     "name" : "OMX_IndexConfigAudioChannelVolume"
    },
    {
     "enum_field_value" : 83886080,
     "name" : "OMX_IndexImageStartUnused"
    },
    {
     "enum_field_value" : 83886081,
     "name" : "OMX_IndexParamImagePortFormat"
    },
    {
     "enum_field_value" : 83886082,
     "name" : "OMX_IndexParamFlashControl"
    },
    {
     "enum_field_value" : 83886083,
     "name" : "OMX_IndexConfigFocusControl"
    },
    {
     "enum_field_value" : 83886084,
     "name" : "OMX_IndexParamQFactor"
    },
    {
     "enum_field_value" : 83886085,
     "name" : "OMX_IndexParamQuantizationTable"
    },
    {
     "enum_field_value" : 83886086,
     "name" : "OMX_IndexParamHuffmanTable"
    },
    {
     "enum_field_value" : 83886087,
     "name" : "OMX_IndexConfigFlashControl"
    },
    {
     "enum_field_value" : 100663296,
     "name" : "OMX_IndexVideoStartUnused"
    },
    {
     "enum_field_value" : 100663297,
     "name" : "OMX_IndexParamVideoPortFormat"
    },
    {
     "enum_field_value" : 100663298,
     "name" : "OMX_IndexParamVideoQuantization"
    },
    {
     "enum_field_value" : 100663299,
     "name" : "OMX_IndexParamVideoFastUpdate"
    },
    {
     "enum_field_value" : 100663300,
     "name" : "OMX_IndexParamVideoBitrate"
    },
    {
     "enum_field_value" : 100663301,
     "name" : "OMX_IndexParamVideoMotionVector"
    },
    {
     "enum_field_value" : 100663302,
     "name" : "OMX_IndexParamVideoIntraRefresh"
    },
    {
     "enum_field_value" : 100663303,
     "name" : "OMX_IndexParamVideoErrorCorrection"
    },
    {
     "enum_field_value" : 100663304,
     "name" : "OMX_IndexParamVideoVBSMC"
    },
    {
     "enum_field_value" : 100663305,
     "name" : "OMX_IndexParamVideoMpeg2"
    },
    {
     "enum_field_value" : 100663306,
     "name" : "OMX_IndexParamVideoMpeg4"
    },
    {
     "enum_field_value" : 100663307,
     "name" : "OMX_IndexParamVideoWmv"
    },
    {
     "enum_field_value" : 100663308,
     "name" : "OMX_IndexParamVideoRv"
    },
    {
     "enum_field_value" : 100663309,
     "name" : "OMX_IndexParamVideoAvc"
    },
    {
     "enum_field_value" : 100663310,
     "name" : "OMX_IndexParamVideoH263"
    },
    {
     "enum_field_value" : 100663311,
     "name" : "OMX_IndexParamVideoProfileLevelQuerySupported"
    },
    {
     "enum_field_value" : 100663312,
     "name" : "OMX_IndexParamVideoProfileLevelCurrent"
    },
    {
     "enum_field_value" : 100663313,
     "name" : "OMX_IndexConfigVideoBitrate"
    },
    {
     "enum_field_value" : 100663314,
     "name" : "OMX_IndexConfigVideoFramerate"
    },
    {
     "enum_field_value" : 100663315,
     "name" : "OMX_IndexConfigVideoIntraVOPRefresh"
    },
    {
     "enum_field_value" : 100663316,
     "name" : "OMX_IndexConfigVideoIntraMBRefresh"
    },
    {
     "enum_field_value" : 100663317,
     "name" : "OMX_IndexConfigVideoMBErrorReporting"
    },
    {
     "enum_field_value" : 100663318,
     "name" : "OMX_IndexParamVideoMacroblocksPerFrame"
    },
    {
     "enum_field_value" : 100663319,
     "name" : "OMX_IndexConfigVideoMacroBlockErrorMap"
    },
    {
     "enum_field_value" : 100663320,
     "name" : "OMX_IndexParamVideoSliceFMO"
    },
    {
     "enum_field_value" : 100663321,
     "name" : "OMX_IndexConfigVideoAVCIntraPeriod"
    },
    {
     "enum_field_value" : 100663322,
     "name" : "OMX_IndexConfigVideoNalSize"
    },
    {
     "enum_field_value" : 100663323,
     "name" : "OMX_IndexVideoEndUnused"
    },
    {
     "enum_field_value" : 117440512,
     "name" : "OMX_IndexCommonStartUnused"
    },
    {
     "enum_field_value" : 117440513,
     "name" : "OMX_IndexParamCommonDeblocking"
    },
    {
     "enum_field_value" : 117440514,
     "name" : "OMX_IndexParamCommonSensorMode"
    },
    {
     "enum_field_value" : 117440515,
     "name" : "OMX_IndexParamCommonInterleave"
    },
    {
     "enum_field_value" : 117440516,
     "name" : "OMX_IndexConfigCommonColorFormatConversion"
    },
    {
     "enum_field_value" : 117440517,
     "name" : "OMX_IndexConfigCommonScale"
    },
    {
     "enum_field_value" : 117440518,
     "name" : "OMX_IndexConfigCommonImageFilter"
    },
    {
     "enum_field_value" : 117440519,
     "name" : "OMX_IndexConfigCommonColorEnhancement"
    },
    {
     "enum_field_value" : 117440520,
     "name" : "OMX_IndexConfigCommonColorKey"
    },
    {
     "enum_field_value" : 117440521,
     "name" : "OMX_IndexConfigCommonColorBlend"
    },
    {
     "enum_field_value" : 117440522,
     "name" : "OMX_IndexConfigCommonFrameStabilisation"
    },
    {
     "enum_field_value" : 117440523,
     "name" : "OMX_IndexConfigCommonRotate"
    },
    {
     "enum_field_value" : 117440524,
     "name" : "OMX_IndexConfigCommonMirror"
    },
    {
     "enum_field_value" : 117440525,
     "name" : "OMX_IndexConfigCommonOutputPosition"
    },
    {
     "enum_field_value" : 117440526,
     "name" : "OMX_IndexConfigCommonInputCrop"
    },
    {
     "enum_field_value" : 117440527,
     "name" : "OMX_IndexConfigCommonOutputCrop"
    },
    {
     "enum_field_value" : 117440528,
     "name" : "OMX_IndexConfigCommonDigitalZoom"
    },
    {
     "enum_field_value" : 117440529,
     "name" : "OMX_IndexConfigCommonOpticalZoom"
    },
    {
     "enum_field_value" : 117440530,
     "name" : "OMX_IndexConfigCommonWhiteBalance"
    },
    {
     "enum_field_value" : 117440531,
     "name" : "OMX_IndexConfigCommonExposure"
    },
    {
     "enum_field_value" : 117440532,
     "name" : "OMX_IndexConfigCommonContrast"
    },
    {
     "enum_field_value" : 117440533,
     "name" : "OMX_IndexConfigCommonBrightness"
    },
    {
     "enum_field_value" : 117440534,
     "name" : "OMX_IndexConfigCommonBacklight"
    },
    {
     "enum_field_value" : 117440535,
     "name" : "OMX_IndexConfigCommonGamma"
    },
    {
     "enum_field_value" : 117440536,
     "name" : "OMX_IndexConfigCommonSaturation"
    },
    {
     "enum_field_value" : 117440537,
     "name" : "OMX_IndexConfigCommonLightness"
    },
    {
     "enum_field_value" : 117440538,
     "name" : "OMX_IndexConfigCommonExclusionRect"
    },
    {
     "enum_field_value" : 117440539,
     "name" : "OMX_IndexConfigCommonDithering"
    },
    {
     "enum_field_value" : 117440540,
     "name" : "OMX_IndexConfigCommonPlaneBlend"
    },
    {
     "enum_field_value" : 117440541,
     "name" : "OMX_IndexConfigCommonExposureValue"
    },
    {
     "enum_field_value" : 117440542,
     "name" : "OMX_IndexConfigCommonOutputSize"
    },
    {
     "enum_field_value" : 117440543,
     "name" : "OMX_IndexParamCommonExtraQuantData"
    },
    {
     "enum_field_value" : 117440544,
     "name" : "OMX_IndexConfigCommonFocusRegion"
    },
    {
     "enum_field_value" : 117440545,
     "name" : "OMX_IndexConfigCommonFocusStatus"
    },
    {
     "enum_field_value" : 117440546,
     "name" : "OMX_IndexConfigCommonTransitionEffect"
    },
    {
     "enum_field_value" : 117440547,
     "name" : "OMX_IndexCommonEndUnused"
    },
    {
     "enum_field_value" : 134217728,
     "name" : "OMX_IndexOtherStartUnused"
    },
    {
     "enum_field_value" : 134217729,
     "name" : "OMX_IndexParamOtherPortFormat"
    },
    {
     "enum_field_value" : 134217730,
     "name" : "OMX_IndexConfigOtherPower"
    },
    {
     "enum_field_value" : 134217731,
     "name" : "OMX_IndexConfigOtherStats"
    },
    {
     "enum_field_value" : 150994944,
     "name" : "OMX_IndexTimeStartUnused"
    },
    {
     "enum_field_value" : 150994945,
     "name" : "OMX_IndexConfigTimeScale"
    },
    {
     "enum_field_value" : 150994946,
     "name" : "OMX_IndexConfigTimeClockState"
    },
    {
     "enum_field_value" : 150994947,
     "name" : "OMX_IndexConfigTimeActiveRefClock"
    },
    {
     "enum_field_value" : 150994948,
     "name" : "OMX_IndexConfigTimeCurrentMediaTime"
    },
    {
     "enum_field_value" : 150994949,
     "name" : "OMX_IndexConfigTimeCurrentWallTime"
    },
    {
     "enum_field_value" : 150994950,
     "name" : "OMX_IndexConfigTimeCurrentAudioReference"
    },
    {
     "enum_field_value" : 150994951,
     "name" : "OMX_IndexConfigTimeCurrentVideoReference"
    },
    {
     "enum_field_value" : 150994952,
     "name" : "OMX_IndexConfigTimeMediaTimeRequest"
    },
    {
     "enum_field_value" : 150994953,
     "name" : "OMX_IndexConfigTimeClientStartTime"
    },
    {
     "enum_field_value" : 150994954,
     "name" : "OMX_IndexConfigTimePosition"
    },
    {
     "enum_field_value" : 150994955,
     "name" : "OMX_IndexConfigTimeSeekMode"
    },
    {
     "enum_field_value" : 1862270976,
     "name" : "OMX_IndexKhronosExtensions"
    },
    {
     "enum_field_value" : 2130706432,
     "name" : "OMX_IndexVendorStartUnused"
    },
    {
     "enum_field_value" : 2147483647,
     "name" : "OMX_IndexMax"
    }
   ],
   "linker_set_key" : "OMX_INDEXTYPE",
   "name" : "OMX_INDEXTYPE",
   "referenced_type" : "type-1487",
   "self_type" : "type-1487",
   "size" : 4,
   "source_file" : "/frameworks/native/headers/media_plugin/media/openmax/OMX_Index.h",
   "underlying_type" : "type-2",
   "unique_id" : "OMX_INDEXTYPE"
  },
  {
   "alignment" : 4,
   "enum_fields" :
   [
    {
     "enum_field_value" : 0,
     "name" : "OMX_MetadataCharsetUnknown"
    },
    {
     "enum_field_value" : 1,
     "name" : "OMX_MetadataCharsetASCII"
    },
    {
     "enum_field_value" : 2,
     "name" : "OMX_MetadataCharsetBinary"
    },
    {
     "enum_field_value" : 3,
     "name" : "OMX_MetadataCharsetCodePage1252"
    },
    {
     "enum_field_value" : 4,
     "name" : "OMX_MetadataCharsetUTF8"
    },
    {
     "enum_field_value" : 5,
     "name" : "OMX_MetadataCharsetJavaConformantUTF8"
    },
    {
     "enum_field_value" : 6,
     "name" : "OMX_MetadataCharsetUTF7"
    },
    {
     "enum_field_value" : 7,
     "name" : "OMX_MetadataCharsetImapUTF7"
    },
    {
     "enum_field_value" : 8,
     "name" : "OMX_MetadataCharsetUTF16LE"
    },
    {
     "enum_field_value" : 9,
     "name" : "OMX_MetadataCharsetUTF16BE"
    },
    {
     "enum_field_value" : 10,
     "name" : "OMX_MetadataCharsetGB12345"
    },
    {
     "enum_field_value" : 11,
     "name" : "OMX_MetadataCharsetHZGB2312"
    },
    {
     "enum_field_value" : 12,
     "name" : "OMX_MetadataCharsetGB2312"
    },
    {
     "enum_field_value" : 13,
     "name" : "OMX_MetadataCharsetGB18030"
    },
    {
     "enum_field_value" : 14,
     "name" : "OMX_MetadataCharsetGBK"
    },
    {
     "enum_field_value" : 15,
     "name" : "OMX_MetadataCharsetBig5"
    },
    {
     "enum_field_value" : 16,
     "name" : "OMX_MetadataCharsetISO88591"
    },
    {
     "enum_field_value" : 17,
     "name" : "OMX_MetadataCharsetISO88592"
    },
    {
     "enum_field_value" : 18,
     "name" : "OMX_MetadataCharsetISO88593"
    },
    {
     "enum_field_value" : 19,
     "name" : "OMX_MetadataCharsetISO88594"
    },
    {
     "enum_field_value" : 20,
     "name" : "OMX_MetadataCharsetISO88595"
    },
    {
     "enum_field_value" : 21,
     "name" : "OMX_MetadataCharsetISO88596"
    },
    {
     "enum_field_value" : 22,
     "name" : "OMX_MetadataCharsetISO88597"
    },
    {
     "enum_field_value" : 23,
     "name" : "OMX_MetadataCharsetISO88598"
    },
    {
     "enum_field_value" : 24,
     "name" : "OMX_MetadataCharsetISO88599"
    },
    {
     "enum_field_value" : 25,
     "name" : "OMX_MetadataCharsetISO885910"
    },
    {
     "enum_field_value" : 26,
     "name" : "OMX_MetadataCharsetISO885913"
    },
    {
     "enum_field_value" : 27,
     "name" : "OMX_MetadataCharsetISO885914"
    },
    {
     "enum_field_value" : 28,
     "name" : "OMX_MetadataCharsetISO885915"
    },
    {
     "enum_field_value" : 29,
     "name" : "OMX_MetadataCharsetShiftJIS"
    },
    {
     "enum_field_value" : 30,
     "name" : "OMX_MetadataCharsetISO2022JP"
    },
    {
     "enum_field_value" : 31,
     "name" : "OMX_MetadataCharsetISO2022JP1"
    },
    {
     "enum_field_value" : 32,
     "name" : "OMX_MetadataCharsetISOEUCJP"
    },
    {
     "enum_field_value" : 33,
     "name" : "OMX_MetadataCharsetSMS7Bit"
    },
    {
     "enum_field_value" : 1862270976,
     "name" : "OMX_MetadataCharsetKhronosExtensions"
    },
    {
     "enum_field_value" : 2130706432,
     "name" : "OMX_MetadataCharsetVendorStartUnused"
    },
    {
     "enum_field_value" : 2147483647,
     "name" : "OMX_MetadataCharsetTypeMax"
    }
   ],
   "linker_set_key" : "OMX_METADATACHARSETTYPE",
   "name" : "OMX_METADATACHARSETTYPE",
   "referenced_type" : "type-2350",
   "self_type" : "type-2350",
   "size" : 4,
   "source_file" : "/frameworks/native/headers/media_plugin/media/openmax/OMX_Component.h",
   "underlying_type" : "type-2",
   "unique_id" : "OMX_METADATACHARSETTYPE"
  },
  {
   "alignment" : 4,
   "enum_fields" :
   [
    {
     "enum_field_value" : 0,
     "name" : "OMX_MetadataScopeAllLevels"
    },
    {
     "enum_field_value" : 1,
     "name" : "OMX_MetadataScopeTopLevel"
    },
    {
     "enum_field_value" : 2,
     "name" : "OMX_MetadataScopePortLevel"
    },
    {
     "enum_field_value" : 3,
     "name" : "OMX_MetadataScopeNodeLevel"
    },
    {
     "enum_field_value" : 1862270976,
     "name" : "OMX_MetadataScopeKhronosExtensions"
    },
    {
     "enum_field_value" : 2130706432,
     "name" : "OMX_MetadataScopeVendorStartUnused"
    },
    {
     "enum_field_value" : 2147483647,
     "name" : "OMX_MetadataScopeTypeMax"
    }
   ],
   "linker_set_key" : "OMX_METADATASCOPETYPE",
   "name" : "OMX_METADATASCOPETYPE",
   "referenced_type" : "type-2351",
   "self_type" : "type-2351",
   "size" : 4,
   "source_file" : "/frameworks/native/headers/media_plugin/media/openmax/OMX_Component.h",
   "underlying_type" : "type-2",
   "unique_id" : "OMX_METADATASCOPETYPE"
  },
  {
   "alignment" : 4,
   "enum_fields" :
   [
    {
     "enum_field_value" : 0,
     "name" : "OMX_MetadataSearchValueSizeByIndex"
    },
    {
     "enum_field_value" : 1,
     "name" : "OMX_MetadataSearchItemByIndex"
    },
    {
     "enum_field_value" : 2,
     "name" : "OMX_MetadataSearchNextItemByKey"
    },
    {
     "enum_field_value" : 1862270976,
     "name" : "OMX_MetadataSearchKhronosExtensions"
    },
    {
     "enum_field_value" : 2130706432,
     "name" : "OMX_MetadataSearchVendorStartUnused"
    },
    {
     "enum_field_value" : 2147483647,
     "name" : "OMX_MetadataSearchTypeMax"
    }
   ],
   "linker_set_key" : "OMX_METADATASEARCHMODETYPE",
   "name" : "OMX_METADATASEARCHMODETYPE",
   "referenced_type" : "type-2352",
   "self_type" : "type-2352",
   "size" : 4,
   "source_file" : "/frameworks/native/headers/media_plugin/media/openmax/OMX_Component.h",
   "underlying_type" : "type-2",
   "unique_id" : "OMX_METADATASEARCHMODETYPE"
  },
  {
   "alignment" : 4,
   "enum_fields" :
   [
    {
     "enum_field_value" : 0,
     "name" : "OMX_MeteringModeAverage"
    },
    {
     "enum_field_value" : 1,
     "name" : "OMX_MeteringModeSpot"
    },
    {
     "enum_field_value" : 2,
     "name" : "OMX_MeteringModeMatrix"
    },
    {
     "enum_field_value" : 1862270976,
     "name" : "OMX_MeteringKhronosExtensions"
    },
    {
     "enum_field_value" : 2130706432,
     "name" : "OMX_MeteringVendorStartUnused"
    },
    {
     "enum_field_value" : 2147483647,
     "name" : "OMX_EVModeMax"
    }
   ],
   "linker_set_key" : "OMX_METERINGTYPE",
   "name" : "OMX_METERINGTYPE",
   "referenced_type" : "type-2247",
   "self_type" : "type-2247",
   "size" : 4,
   "source_file" : "/frameworks/native/headers/media_plugin/media/openmax/OMX_IVCommon.h",
   "underlying_type" : "type-2",
   "unique_id" : "OMX_METERINGTYPE"
  },
  {
   "alignment" : 4,
   "enum_fields" :
   [
    {
     "enum_field_value" : 0,
     "name" : "OMX_MirrorNone"
    },
    {
     "enum_field_value" : 1,
     "name" : "OMX_MirrorVertical"
    },
    {
     "enum_field_value" : 2,
     "name" : "OMX_MirrorHorizontal"
    },
    {
     "enum_field_value" : 3,
     "name" : "OMX_MirrorBoth"
    },
    {
     "enum_field_value" : 1862270976,
     "name" : "OMX_MirrorKhronosExtensions"
    },
    {
     "enum_field_value" : 2130706432,
     "name" : "OMX_MirrorVendorStartUnused"
    },
    {
     "enum_field_value" : 2147483647,
     "name" : "OMX_MirrorMax"
    }
   ],
   "linker_set_key" : "OMX_MIRRORTYPE",
   "name" : "OMX_MIRRORTYPE",
   "referenced_type" : "type-2218",
   "self_type" : "type-2218",
   "size" : 4,
   "source_file" : "/frameworks/native/headers/media_plugin/media/openmax/OMX_IVCommon.h",
   "underlying_type" : "type-2",
   "unique_id" : "OMX_MIRRORTYPE"
  },
  {
   "alignment" : 4,
   "enum_fields" :
   [
    {
     "enum_field_value" : 0,
     "name" : "OMX_NumericalDataSigned"
    },
    {
     "enum_field_value" : 1,
     "name" : "OMX_NumericalDataUnsigned"
    },
    {
     "enum_field_value" : 2130706433,
     "name" : "OMX_NumericalDataFloat"
    },
    {
     "enum_field_value" : 2147483647,
     "name" : "OMX_NumercialDataMax"
    }
   ],
   "linker_set_key" : "OMX_NUMERICALDATATYPE",
   "name" : "OMX_NUMERICALDATATYPE",
   "referenced_type" : "type-1468",
   "self_type" : "type-1468",
   "size" : 4,
   "source_file" : "/frameworks/native/headers/media_plugin/media/openmax/OMX_Types.h",
   "underlying_type" : "type-2",
   "unique_id" : "OMX_NUMERICALDATATYPE"
  },
  {
   "alignment" : 4,
   "enum_fields" :
   [
    {
     "enum_field_value" : 0,
     "name" : "OMX_OTHER_FormatTime"
    },
    {
     "enum_field_value" : 1,
     "name" : "OMX_OTHER_FormatPower"
    },
    {
     "enum_field_value" : 2,
     "name" : "OMX_OTHER_FormatStats"
    },
    {
     "enum_field_value" : 3,
     "name" : "OMX_OTHER_FormatBinary"
    },
    {
     "enum_field_value" : 1000,
     "name" : "OMX_OTHER_FormatVendorReserved"
    },
    {
     "enum_field_value" : 1862270976,
     "name" : "OMX_OTHER_FormatKhronosExtensions"
    },
    {
     "enum_field_value" : 2130706432,
     "name" : "OMX_OTHER_FormatVendorStartUnused"
    },
    {
     "enum_field_value" : 2147483647,
     "name" : "OMX_OTHER_FormatMax"
    }
   ],
   "linker_set_key" : "OMX_OTHER_FORMATTYPE",
   "name" : "OMX_OTHER_FORMATTYPE",
   "referenced_type" : "type-2319",
   "self_type" : "type-2319",
   "size" : 4,
   "source_file" : "/frameworks/native/headers/media_plugin/media/openmax/OMX_Other.h",
   "underlying_type" : "type-2",
   "unique_id" : "OMX_OTHER_FORMATTYPE"
  },
  {
   "alignment" : 4,
   "enum_fields" :
   [
    {
     "enum_field_value" : 0,
     "name" : "OMX_PortDomainAudio"
    },
    {
     "enum_field_value" : 1,
     "name" : "OMX_PortDomainVideo"
    },
    {
     "enum_field_value" : 2,
     "name" : "OMX_PortDomainImage"
    },
    {
     "enum_field_value" : 3,
     "name" : "OMX_PortDomainOther"
    },
    {
     "enum_field_value" : 1862270976,
     "name" : "OMX_PortDomainKhronosExtensions"
    },
    {
     "enum_field_value" : 2130706432,
     "name" : "OMX_PortDomainVendorStartUnused"
    },
    {
     "enum_field_value" : 134217727,
     "name" : "OMX_PortDomainMax"
    }
   ],
   "linker_set_key" : "OMX_PORTDOMAINTYPE",
   "name" : "OMX_PORTDOMAINTYPE",
   "referenced_type" : "type-2337",
   "self_type" : "type-2337",
   "size" : 4,
   "source_file" : "/frameworks/native/headers/media_plugin/media/openmax/OMX_Component.h",
   "underlying_type" : "type-2",
   "unique_id" : "OMX_PORTDOMAINTYPE"
  },
  {
   "alignment" : 4,
   "enum_fields" :
   [
    {
     "enum_field_value" : 0,
     "name" : "OMX_StateInvalid"
    },
    {
     "enum_field_value" : 1,
     "name" : "OMX_StateLoaded"
    },
    {
     "enum_field_value" : 2,
     "name" : "OMX_StateIdle"
    },
    {
     "enum_field_value" : 3,
     "name" : "OMX_StateExecuting"
    },
    {
     "enum_field_value" : 4,
     "name" : "OMX_StatePause"
    },
    {
     "enum_field_value" : 5,
     "name" : "OMX_StateWaitForResources"
    },
    {
     "enum_field_value" : 1862270976,
     "name" : "OMX_StateKhronosExtensions"
    },
    {
     "enum_field_value" : 2130706432,
     "name" : "OMX_StateVendorStartUnused"
    },
    {
     "enum_field_value" : 2147483647,
     "name" : "OMX_StateMax"
    }
   ],
   "linker_set_key" : "OMX_STATETYPE",
   "name" : "OMX_STATETYPE",
   "referenced_type" : "type-1491",
   "self_type" : "type-1491",
   "size" : 4,
   "source_file" : "/frameworks/native/headers/media_plugin/media/openmax/OMX_Core.h",
   "underlying_type" : "type-2",
   "unique_id" : "OMX_STATETYPE"
  },
  {
   "alignment" : 4,
   "enum_fields" :
   [
    {
     "enum_field_value" : 0,
     "name" : "OMX_SuspensionDisabled"
    },
    {
     "enum_field_value" : 1,
     "name" : "OMX_SuspensionEnabled"
    },
    {
     "enum_field_value" : 1862270976,
     "name" : "OMX_SuspensionPolicyKhronosExtensions"
    },
    {
     "enum_field_value" : 2130706432,
     "name" : "OMX_SuspensionPolicyStartUnused"
    },
    {
     "enum_field_value" : 2147483647,
     "name" : "OMX_SuspensionPolicyMax"
    }
   ],
   "linker_set_key" : "OMX_SUSPENSIONPOLICYTYPE",
   "name" : "OMX_SUSPENSIONPOLICYTYPE",
   "referenced_type" : "type-2341",
   "self_type" : "type-2341",
   "size" : 4,
   "source_file" : "/frameworks/native/headers/media_plugin/media/openmax/OMX_Component.h",
   "underlying_type" : "type-2",
   "unique_id" : "OMX_SUSPENSIONPOLICYTYPE"
  },
  {
   "alignment" : 4,
   "enum_fields" :
   [
    {
     "enum_field_value" : 0,
     "name" : "OMX_NotSuspended"
    },
    {
     "enum_field_value" : 1,
     "name" : "OMX_Suspended"
    },
    {
     "enum_field_value" : 1862270976,
     "name" : "OMX_SuspensionKhronosExtensions"
    },
    {
     "enum_field_value" : 2130706432,
     "name" : "OMX_SuspensionVendorStartUnused"
    },
    {
     "enum_field_value" : 2147483647,
     "name" : "OMX_SuspendMax"
    }
   ],
   "linker_set_key" : "OMX_SUSPENSIONTYPE",
   "name" : "OMX_SUSPENSIONTYPE",
   "referenced_type" : "type-2343",
   "self_type" : "type-2343",
   "size" : 4,
   "source_file" : "/frameworks/native/headers/media_plugin/media/openmax/OMX_Component.h",
   "underlying_type" : "type-2",
   "unique_id" : "OMX_SUSPENSIONTYPE"
  },
  {
   "alignment" : 4,
   "enum_fields" :
   [
    {
     "enum_field_value" : 0,
     "name" : "OMX_TIME_ClockStateRunning"
    },
    {
     "enum_field_value" : 1,
     "name" : "OMX_TIME_ClockStateWaitingForStartTime"
    },
    {
     "enum_field_value" : 2,
     "name" : "OMX_TIME_ClockStateStopped"
    },
    {
     "enum_field_value" : 1862270976,
     "name" : "OMX_TIME_ClockStateKhronosExtensions"
    },
    {
     "enum_field_value" : 2130706432,
     "name" : "OMX_TIME_ClockStateVendorStartUnused"
    },
    {
     "enum_field_value" : 2147483647,
     "name" : "OMX_TIME_ClockStateMax"
    }
   ],
   "linker_set_key" : "OMX_TIME_CLOCKSTATE",
   "name" : "OMX_TIME_CLOCKSTATE",
   "referenced_type" : "type-2326",
   "self_type" : "type-2326",
   "size" : 4,
   "source_file" : "/frameworks/native/headers/media_plugin/media/openmax/OMX_Other.h",
   "underlying_type" : "type-2",
   "unique_id" : "OMX_TIME_CLOCKSTATE"
  },
  {
   "alignment" : 4,
   "enum_fields" :
   [
    {
     "enum_field_value" : 0,
     "name" : "OMX_TIME_RefClockNone"
    },
    {
     "enum_field_value" : 1,
     "name" : "OMX_TIME_RefClockAudio"
    },
    {
     "enum_field_value" : 2,
     "name" : "OMX_TIME_RefClockVideo"
    },
    {
     "enum_field_value" : 1862270976,
     "name" : "OMX_TIME_RefClockKhronosExtensions"
    },
    {
     "enum_field_value" : 2130706432,
     "name" : "OMX_TIME_RefClockVendorStartUnused"
    },
    {
     "enum_field_value" : 2147483647,
     "name" : "OMX_TIME_RefClockMax"
    }
   ],
   "linker_set_key" : "OMX_TIME_REFCLOCKTYPE",
   "name" : "OMX_TIME_REFCLOCKTYPE",
   "referenced_type" : "type-2325",
   "self_type" : "type-2325",
   "size" : 4,
   "source_file" : "/frameworks/native/headers/media_plugin/media/openmax/OMX_Other.h",
   "underlying_type" : "type-2",
   "unique_id" : "OMX_TIME_REFCLOCKTYPE"
  },
  {
   "alignment" : 4,
   "enum_fields" :
   [
    {
     "enum_field_value" : 0,
     "name" : "OMX_TIME_SeekModeFast"
    },
    {
     "enum_field_value" : 1,
     "name" : "OMX_TIME_SeekModeAccurate"
    },
    {
     "enum_field_value" : 1862270976,
     "name" : "OMX_TIME_SeekModeKhronosExtensions"
    },
    {
     "enum_field_value" : 2130706432,
     "name" : "OMX_TIME_SeekModeVendorStartUnused"
    },
    {
     "enum_field_value" : 2147483647,
     "name" : "OMX_TIME_SeekModeMax"
    }
   ],
   "linker_set_key" : "OMX_TIME_SEEKMODETYPE",
   "name" : "OMX_TIME_SEEKMODETYPE",
   "referenced_type" : "type-2320",
   "self_type" : "type-2320",
   "size" : 4,
   "source_file" : "/frameworks/native/headers/media_plugin/media/openmax/OMX_Other.h",
   "underlying_type" : "type-2",
   "unique_id" : "OMX_TIME_SEEKMODETYPE"
  },
  {
   "alignment" : 4,
   "enum_fields" :
   [
    {
     "enum_field_value" : 0,
     "name" : "OMX_TIME_UpdateRequestFulfillment"
    },
    {
     "enum_field_value" : 1,
     "name" : "OMX_TIME_UpdateScaleChanged"
    },
    {
     "enum_field_value" : 2,
     "name" : "OMX_TIME_UpdateClockStateChanged"
    },
    {
     "enum_field_value" : 1862270976,
     "name" : "OMX_TIME_UpdateKhronosExtensions"
    },
    {
     "enum_field_value" : 2130706432,
     "name" : "OMX_TIME_UpdateVendorStartUnused"
    },
    {
     "enum_field_value" : 2147483647,
     "name" : "OMX_TIME_UpdateMax"
    }
   ],
   "linker_set_key" : "OMX_TIME_UPDATETYPE",
   "name" : "OMX_TIME_UPDATETYPE",
   "referenced_type" : "type-2323",
   "self_type" : "type-2323",
   "size" : 4,
   "source_file" : "/frameworks/native/headers/media_plugin/media/openmax/OMX_Other.h",
   "underlying_type" : "type-2",
   "unique_id" : "OMX_TIME_UPDATETYPE"
  },
  {
   "alignment" : 4,
   "enum_fields" :
   [
    {
     "enum_field_value" : 0,
     "name" : "OMX_EffectNone"
    },
    {
     "enum_field_value" : 1,
     "name" : "OMX_EffectFadeFromBlack"
    },
    {
     "enum_field_value" : 2,
     "name" : "OMX_EffectFadeToBlack"
    },
    {
     "enum_field_value" : 3,
     "name" : "OMX_EffectUnspecifiedThroughConstantColor"
    },
    {
     "enum_field_value" : 4,
     "name" : "OMX_EffectDissolve"
    },
    {
     "enum_field_value" : 5,
     "name" : "OMX_EffectWipe"
    },
    {
     "enum_field_value" : 6,
     "name" : "OMX_EffectUnspecifiedMixOfTwoScenes"
    },
    {
     "enum_field_value" : 1862270976,
     "name" : "OMX_EffectKhronosExtensions"
    },
    {
     "enum_field_value" : 2130706432,
     "name" : "OMX_EffectVendorStartUnused"
    },
    {
     "enum_field_value" : 2147483647,
     "name" : "OMX_EffectMax"
    }
   ],
   "linker_set_key" : "OMX_TRANSITIONEFFECTTYPE",
   "name" : "OMX_TRANSITIONEFFECTTYPE",
   "referenced_type" : "type-2238",
   "self_type" : "type-2238",
   "size" : 4,
   "source_file" : "/frameworks/native/headers/media_plugin/media/openmax/OMX_IVCommon.h",
   "underlying_type" : "type-2",
   "unique_id" : "OMX_TRANSITIONEFFECTTYPE"
  },
  {
   "alignment" : 4,
   "enum_fields" :
   [
    {
     "enum_field_value" : 1,
     "name" : "OMX_VIDEO_AVCLevel1"
    },
    {
     "enum_field_value" : 2,
     "name" : "OMX_VIDEO_AVCLevel1b"
    },
    {
     "enum_field_value" : 4,
     "name" : "OMX_VIDEO_AVCLevel11"
    },
    {
     "enum_field_value" : 8,
     "name" : "OMX_VIDEO_AVCLevel12"
    },
    {
     "enum_field_value" : 16,
     "name" : "OMX_VIDEO_AVCLevel13"
    },
    {
     "enum_field_value" : 32,
     "name" : "OMX_VIDEO_AVCLevel2"
    },
    {
     "enum_field_value" : 64,
     "name" : "OMX_VIDEO_AVCLevel21"
    },
    {
     "enum_field_value" : 128,
     "name" : "OMX_VIDEO_AVCLevel22"
    },
    {
     "enum_field_value" : 256,
     "name" : "OMX_VIDEO_AVCLevel3"
    },
    {
     "enum_field_value" : 512,
     "name" : "OMX_VIDEO_AVCLevel31"
    },
    {
     "enum_field_value" : 1024,
     "name" : "OMX_VIDEO_AVCLevel32"
    },
    {
     "enum_field_value" : 2048,
     "name" : "OMX_VIDEO_AVCLevel4"
    },
    {
     "enum_field_value" : 4096,
     "name" : "OMX_VIDEO_AVCLevel41"
    },
    {
     "enum_field_value" : 8192,
     "name" : "OMX_VIDEO_AVCLevel42"
    },
    {
     "enum_field_value" : 16384,
     "name" : "OMX_VIDEO_AVCLevel5"
    },
    {
     "enum_field_value" : 32768,
     "name" : "OMX_VIDEO_AVCLevel51"
    },
    {
     "enum_field_value" : 65536,
     "name" : "OMX_VIDEO_AVCLevel52"
    },
    {
     "enum_field_value" : 131072,
     "name" : "OMX_VIDEO_AVCLevel6"
    },
    {
     "enum_field_value" : 262144,
     "name" : "OMX_VIDEO_AVCLevel61"
    },
    {
     "enum_field_value" : 524288,
     "name" : "OMX_VIDEO_AVCLevel62"
    },
    {
     "enum_field_value" : 1862270976,
     "name" : "OMX_VIDEO_AVCLevelKhronosExtensions"
    },
    {
     "enum_field_value" : 2130706432,
     "name" : "OMX_VIDEO_AVCLevelVendorStartUnused"
    },
    {
     "enum_field_value" : 2147483647,
     "name" : "OMX_VIDEO_AVCLevelMax"
    }
   ],
   "linker_set_key" : "OMX_VIDEO_AVCLEVELTYPE",
   "name" : "OMX_VIDEO_AVCLEVELTYPE",
   "referenced_type" : "type-2286",
   "self_type" : "type-2286",
   "size" : 4,
   "source_file" : "/frameworks/native/headers/media_plugin/media/openmax/OMX_Video.h",
   "underlying_type" : "type-2",
   "unique_id" : "OMX_VIDEO_AVCLEVELTYPE"
  },
  {
   "alignment" : 4,
   "enum_fields" :
   [
    {
     "enum_field_value" : 0,
     "name" : "OMX_VIDEO_AVCLoopFilterEnable"
    },
    {
     "enum_field_value" : 1,
     "name" : "OMX_VIDEO_AVCLoopFilterDisable"
    },
    {
     "enum_field_value" : 2,
     "name" : "OMX_VIDEO_AVCLoopFilterDisableSliceBoundary"
    },
    {
     "enum_field_value" : 1862270976,
     "name" : "OMX_VIDEO_AVCLoopFilterKhronosExtensions"
    },
    {
     "enum_field_value" : 2130706432,
     "name" : "OMX_VIDEO_AVCLoopFilterVendorStartUnused"
    },
    {
     "enum_field_value" : 2147483647,
     "name" : "OMX_VIDEO_AVCLoopFilterMax"
    }
   ],
   "linker_set_key" : "OMX_VIDEO_AVCLOOPFILTERTYPE",
   "name" : "OMX_VIDEO_AVCLOOPFILTERTYPE",
   "referenced_type" : "type-2287",
   "self_type" : "type-2287",
   "size" : 4,
   "source_file" : "/frameworks/native/headers/media_plugin/media/openmax/OMX_Video.h",
   "underlying_type" : "type-2",
   "unique_id" : "OMX_VIDEO_AVCLOOPFILTERTYPE"
  },
  {
   "alignment" : 4,
   "enum_fields" :
   [
    {
     "enum_field_value" : 1,
     "name" : "OMX_VIDEO_AVCProfileBaseline"
    },
    {
     "enum_field_value" : 2,
     "name" : "OMX_VIDEO_AVCProfileMain"
    },
    {
     "enum_field_value" : 4,
     "name" : "OMX_VIDEO_AVCProfileExtended"
    },
    {
     "enum_field_value" : 8,
     "name" : "OMX_VIDEO_AVCProfileHigh"
    },
    {
     "enum_field_value" : 16,
     "name" : "OMX_VIDEO_AVCProfileHigh10"
    },
    {
     "enum_field_value" : 32,
     "name" : "OMX_VIDEO_AVCProfileHigh422"
    },
    {
     "enum_field_value" : 64,
     "name" : "OMX_VIDEO_AVCProfileHigh444"
    },
    {
     "enum_field_value" : 1862270976,
     "name" : "OMX_VIDEO_AVCProfileKhronosExtensions"
    },
    {
     "enum_field_value" : 2130706432,
     "name" : "OMX_VIDEO_AVCProfileVendorStartUnused"
    },
    {
     "enum_field_value" : 2147483647,
     "name" : "OMX_VIDEO_AVCProfileMax"
    }
   ],
   "linker_set_key" : "OMX_VIDEO_AVCPROFILETYPE",
   "name" : "OMX_VIDEO_AVCPROFILETYPE",
   "referenced_type" : "type-2284",
   "self_type" : "type-2284",
   "size" : 4,
   "source_file" : "/frameworks/native/headers/media_plugin/media/openmax/OMX_Video.h",
   "underlying_type" : "type-2",
   "unique_id" : "OMX_VIDEO_AVCPROFILETYPE"
  },
  {
   "alignment" : 4,
   "enum_fields" :
   [
    {
     "enum_field_value" : 0,
     "name" : "OMX_VIDEO_SLICEMODE_AVCDefault"
    },
    {
     "enum_field_value" : 1,
     "name" : "OMX_VIDEO_SLICEMODE_AVCMBSlice"
    },
    {
     "enum_field_value" : 2,
     "name" : "OMX_VIDEO_SLICEMODE_AVCByteSlice"
    },
    {
     "enum_field_value" : 1862270976,
     "name" : "OMX_VIDEO_SLICEMODE_AVCKhronosExtensions"
    },
    {
     "enum_field_value" : 2130706432,
     "name" : "OMX_VIDEO_SLICEMODE_AVCVendorStartUnused"
    },
    {
     "enum_field_value" : 2147483647,
     "name" : "OMX_VIDEO_SLICEMODE_AVCLevelMax"
    }
   ],
   "linker_set_key" : "OMX_VIDEO_AVCSLICEMODETYPE",
   "name" : "OMX_VIDEO_AVCSLICEMODETYPE",
   "referenced_type" : "type-2298",
   "self_type" : "type-2298",
   "size" : 4,
   "source_file" : "/frameworks/native/headers/media_plugin/media/openmax/OMX_Video.h",
   "underlying_type" : "type-2",
   "unique_id" : "OMX_VIDEO_AVCSLICEMODETYPE"
  },
  {
   "alignment" : 4,
   "enum_fields" :
   [
    {
     "enum_field_value" : 0,
     "name" : "OMX_VIDEO_CodingUnused"
    },
    {
     "enum_field_value" : 1,
     "name" : "OMX_VIDEO_CodingAutoDetect"
    },
    {
     "enum_field_value" : 2,
     "name" : "OMX_VIDEO_CodingMPEG2"
    },
    {
     "enum_field_value" : 3,
     "name" : "OMX_VIDEO_CodingH263"
    },
    {
     "enum_field_value" : 4,
     "name" : "OMX_VIDEO_CodingMPEG4"
    },
    {
     "enum_field_value" : 5,
     "name" : "OMX_VIDEO_CodingWMV"
    },
    {
     "enum_field_value" : 6,
     "name" : "OMX_VIDEO_CodingRV"
    },
    {
     "enum_field_value" : 7,
     "name" : "OMX_VIDEO_CodingAVC"
    },
    {
     "enum_field_value" : 8,
     "name" : "OMX_VIDEO_CodingMJPEG"
    },
    {
     "enum_field_value" : 9,
     "name" : "OMX_VIDEO_CodingVP8"
    },
    {
     "enum_field_value" : 10,
     "name" : "OMX_VIDEO_CodingVP9"
    },
    {
     "enum_field_value" : 11,
     "name" : "OMX_VIDEO_CodingHEVC"
    },
    {
     "enum_field_value" : 12,
     "name" : "OMX_VIDEO_CodingDolbyVision"
    },
    {
     "enum_field_value" : 13,
     "name" : "OMX_VIDEO_CodingImageHEIC"
    },
    {
     "enum_field_value" : 1862270976,
     "name" : "OMX_VIDEO_CodingKhronosExtensions"
    },
    {
     "enum_field_value" : 2130706432,
     "name" : "OMX_VIDEO_CodingVendorStartUnused"
    },
    {
     "enum_field_value" : 2147483647,
     "name" : "OMX_VIDEO_CodingMax"
    }
   ],
   "linker_set_key" : "OMX_VIDEO_CODINGTYPE",
   "name" : "OMX_VIDEO_CODINGTYPE",
   "referenced_type" : "type-2253",
   "self_type" : "type-2253",
   "size" : 4,
   "source_file" : "/frameworks/native/headers/media_plugin/media/openmax/OMX_Video.h",
   "underlying_type" : "type-2",
   "unique_id" : "OMX_VIDEO_CODINGTYPE"
  },
  {
   "alignment" : 4,
   "enum_fields" :
   [
    {
     "enum_field_value" : 0,
     "name" : "OMX_Video_ControlRateDisable"
    },
    {
     "enum_field_value" : 1,
     "name" : "OMX_Video_ControlRateVariable"
    },
    {
     "enum_field_value" : 2,
     "name" : "OMX_Video_ControlRateConstant"
    },
    {
     "enum_field_value" : 3,
     "name" : "OMX_Video_ControlRateVariableSkipFrames"
    },
    {
     "enum_field_value" : 4,
     "name" : "OMX_Video_ControlRateConstantSkipFrames"
    },
    {
     "enum_field_value" : 5,
     "name" : "OMX_Video_ControlRateConstantQuality"
    },
    {
     "enum_field_value" : 1862270976,
     "name" : "OMX_Video_ControlRateKhronosExtensions"
    },
    {
     "enum_field_value" : 2130706432,
     "name" : "OMX_Video_ControlRateVendorStartUnused"
    },
    {
     "enum_field_value" : 2147483647,
     "name" : "OMX_Video_ControlRateMax"
    }
   ],
   "linker_set_key" : "OMX_VIDEO_CONTROLRATETYPE",
   "name" : "OMX_VIDEO_CONTROLRATETYPE",
   "referenced_type" : "type-2258",
   "self_type" : "type-2258",
   "size" : 4,
   "source_file" : "/frameworks/native/headers/media_plugin/media/openmax/OMX_Video.h",
   "underlying_type" : "type-2",
   "unique_id" : "OMX_VIDEO_CONTROLRATETYPE"
  },
  {
   "alignment" : 4,
   "enum_fields" :
   [
    {
     "enum_field_value" : 1,
     "name" : "OMX_VIDEO_H263Level10"
    },
    {
     "enum_field_value" : 2,
     "name" : "OMX_VIDEO_H263Level20"
    },
    {
     "enum_field_value" : 4,
     "name" : "OMX_VIDEO_H263Level30"
    },
    {
     "enum_field_value" : 8,
     "name" : "OMX_VIDEO_H263Level40"
    },
    {
     "enum_field_value" : 16,
     "name" : "OMX_VIDEO_H263Level45"
    },
    {
     "enum_field_value" : 32,
     "name" : "OMX_VIDEO_H263Level50"
    },
    {
     "enum_field_value" : 64,
     "name" : "OMX_VIDEO_H263Level60"
    },
    {
     "enum_field_value" : 128,
     "name" : "OMX_VIDEO_H263Level70"
    },
    {
     "enum_field_value" : 1862270976,
     "name" : "OMX_VIDEO_H263LevelKhronosExtensions"
    },
    {
     "enum_field_value" : 2130706432,
     "name" : "OMX_VIDEO_H263LevelVendorStartUnused"
    },
    {
     "enum_field_value" : 2147483647,
     "name" : "OMX_VIDEO_H263LevelMax"
    }
   ],
   "linker_set_key" : "OMX_VIDEO_H263LEVELTYPE",
   "name" : "OMX_VIDEO_H263LEVELTYPE",
   "referenced_type" : "type-2269",
   "self_type" : "type-2269",
   "size" : 4,
   "source_file" : "/frameworks/native/headers/media_plugin/media/openmax/OMX_Video.h",
   "underlying_type" : "type-2",
   "unique_id" : "OMX_VIDEO_H263LEVELTYPE"
  },
  {
   "alignment" : 4,
   "enum_fields" :
   [
    {
     "enum_field_value" : 1,
     "name" : "OMX_VIDEO_H263ProfileBaseline"
    },
    {
     "enum_field_value" : 2,
     "name" : "OMX_VIDEO_H263ProfileH320Coding"
    },
    {
     "enum_field_value" : 4,
     "name" : "OMX_VIDEO_H263ProfileBackwardCompatible"
    },
    {
     "enum_field_value" : 8,
     "name" : "OMX_VIDEO_H263ProfileISWV2"
    },
    {
     "enum_field_value" : 16,
     "name" : "OMX_VIDEO_H263ProfileISWV3"
    },
    {
     "enum_field_value" : 32,
     "name" : "OMX_VIDEO_H263ProfileHighCompression"
    },
    {
     "enum_field_value" : 64,
     "name" : "OMX_VIDEO_H263ProfileInternet"
    },
    {
     "enum_field_value" : 128,
     "name" : "OMX_VIDEO_H263ProfileInterlace"
    },
    {
     "enum_field_value" : 256,
     "name" : "OMX_VIDEO_H263ProfileHighLatency"
    },
    {
     "enum_field_value" : 1862270976,
     "name" : "OMX_VIDEO_H263ProfileKhronosExtensions"
    },
    {
     "enum_field_value" : 2130706432,
     "name" : "OMX_VIDEO_H263ProfileVendorStartUnused"
    },
    {
     "enum_field_value" : 2147483647,
     "name" : "OMX_VIDEO_H263ProfileMax"
    }
   ],
   "linker_set_key" : "OMX_VIDEO_H263PROFILETYPE",
   "name" : "OMX_VIDEO_H263PROFILETYPE",
   "referenced_type" : "type-2268",
   "self_type" : "type-2268",
   "size" : 4,
   "source_file" : "/frameworks/native/headers/media_plugin/media/openmax/OMX_Video.h",
   "underlying_type" : "type-2",
   "unique_id" : "OMX_VIDEO_H263PROFILETYPE"
  },
  {
   "alignment" : 4,
   "enum_fields" :
   [
    {
     "enum_field_value" : 0,
     "name" : "OMX_VIDEO_IntraRefreshCyclic"
    },
    {
     "enum_field_value" : 1,
     "name" : "OMX_VIDEO_IntraRefreshAdaptive"
    },
    {
     "enum_field_value" : 2,
     "name" : "OMX_VIDEO_IntraRefreshBoth"
    },
    {
     "enum_field_value" : 1862270976,
     "name" : "OMX_VIDEO_IntraRefreshKhronosExtensions"
    },
    {
     "enum_field_value" : 2130706432,
     "name" : "OMX_VIDEO_IntraRefreshVendorStartUnused"
    },
    {
     "enum_field_value" : 2147483647,
     "name" : "OMX_VIDEO_IntraRefreshMax"
    }
   ],
   "linker_set_key" : "OMX_VIDEO_INTRAREFRESHTYPE",
   "name" : "OMX_VIDEO_INTRAREFRESHTYPE",
   "referenced_type" : "type-2264",
   "self_type" : "type-2264",
   "size" : 4,
   "source_file" : "/frameworks/native/headers/media_plugin/media/openmax/OMX_Video.h",
   "underlying_type" : "type-2",
   "unique_id" : "OMX_VIDEO_INTRAREFRESHTYPE"
  },
  {
   "alignment" : 4,
   "enum_fields" :
   [
    {
     "enum_field_value" : 0,
     "name" : "OMX_Video_MotionVectorPixel"
    },
    {
     "enum_field_value" : 1,
     "name" : "OMX_Video_MotionVectorHalfPel"
    },
    {
     "enum_field_value" : 2,
     "name" : "OMX_Video_MotionVectorQuarterPel"
    },
    {
     "enum_field_value" : 3,
     "name" : "OMX_Video_MotionVectorEighthPel"
    },
    {
     "enum_field_value" : 1862270976,
     "name" : "OMX_Video_MotionVectorKhronosExtensions"
    },
    {
     "enum_field_value" : 2130706432,
     "name" : "OMX_Video_MotionVectorVendorStartUnused"
    },
    {
     "enum_field_value" : 2147483647,
     "name" : "OMX_Video_MotionVectorMax"
    }
   ],
   "linker_set_key" : "OMX_VIDEO_MOTIONVECTORTYPE",
   "name" : "OMX_VIDEO_MOTIONVECTORTYPE",
   "referenced_type" : "type-2262",
   "self_type" : "type-2262",
   "size" : 4,
   "source_file" : "/frameworks/native/headers/media_plugin/media/openmax/OMX_Video.h",
   "underlying_type" : "type-2",
   "unique_id" : "OMX_VIDEO_MOTIONVECTORTYPE"
  },
  {
   "alignment" : 4,
   "enum_fields" :
   [
    {
     "enum_field_value" : 0,
     "name" : "OMX_VIDEO_MPEG2LevelLL"
    },
    {
     "enum_field_value" : 1,
     "name" : "OMX_VIDEO_MPEG2LevelML"
    },
    {
     "enum_field_value" : 2,
     "name" : "OMX_VIDEO_MPEG2LevelH14"
    },
    {
     "enum_field_value" : 3,
     "name" : "OMX_VIDEO_MPEG2LevelHL"
    },
    {
     "enum_field_value" : 4,
     "name" : "OMX_VIDEO_MPEG2LevelHP"
    },
    {
     "enum_field_value" : 1862270976,
     "name" : "OMX_VIDEO_MPEG2LevelKhronosExtensions"
    },
    {
     "enum_field_value" : 2130706432,
     "name" : "OMX_VIDEO_MPEG2LevelVendorStartUnused"
    },
    {
     "enum_field_value" : 2147483647,
     "name" : "OMX_VIDEO_MPEG2LevelMax"
    }
   ],
   "linker_set_key" : "OMX_VIDEO_MPEG2LEVELTYPE",
   "name" : "OMX_VIDEO_MPEG2LEVELTYPE",
   "referenced_type" : "type-2274",
   "self_type" : "type-2274",
   "size" : 4,
   "source_file" : "/frameworks/native/headers/media_plugin/media/openmax/OMX_Video.h",
   "underlying_type" : "type-2",
   "unique_id" : "OMX_VIDEO_MPEG2LEVELTYPE"
  },
  {
   "alignment" : 4,
   "enum_fields" :
   [
    {
     "enum_field_value" : 0,
     "name" : "OMX_VIDEO_MPEG2ProfileSimple"
    },
    {
     "enum_field_value" : 1,
     "name" : "OMX_VIDEO_MPEG2ProfileMain"
    },
    {
     "enum_field_value" : 2,
     "name" : "OMX_VIDEO_MPEG2Profile422"
    },
    {
     "enum_field_value" : 3,
     "name" : "OMX_VIDEO_MPEG2ProfileSNR"
    },
    {
     "enum_field_value" : 4,
     "name" : "OMX_VIDEO_MPEG2ProfileSpatial"
    },
    {
     "enum_field_value" : 5,
     "name" : "OMX_VIDEO_MPEG2ProfileHigh"
    },
    {
     "enum_field_value" : 1862270976,
     "name" : "OMX_VIDEO_MPEG2ProfileKhronosExtensions"
    },
    {
     "enum_field_value" : 2130706432,
     "name" : "OMX_VIDEO_MPEG2ProfileVendorStartUnused"
    },
    {
     "enum_field_value" : 2147483647,
     "name" : "OMX_VIDEO_MPEG2ProfileMax"
    }
   ],
   "linker_set_key" : "OMX_VIDEO_MPEG2PROFILETYPE",
   "name" : "OMX_VIDEO_MPEG2PROFILETYPE",
   "referenced_type" : "type-2273",
   "self_type" : "type-2273",
   "size" : 4,
   "source_file" : "/frameworks/native/headers/media_plugin/media/openmax/OMX_Video.h",
   "underlying_type" : "type-2",
   "unique_id" : "OMX_VIDEO_MPEG2PROFILETYPE"
  },
  {
   "alignment" : 4,
   "enum_fields" :
   [
    {
     "enum_field_value" : 1,
     "name" : "OMX_VIDEO_MPEG4Level0"
    },
    {
     "enum_field_value" : 2,
     "name" : "OMX_VIDEO_MPEG4Level0b"
    },
    {
     "enum_field_value" : 4,
     "name" : "OMX_VIDEO_MPEG4Level1"
    },
    {
     "enum_field_value" : 8,
     "name" : "OMX_VIDEO_MPEG4Level2"
    },
    {
     "enum_field_value" : 16,
     "name" : "OMX_VIDEO_MPEG4Level3"
    },
    {
     "enum_field_value" : 24,
     "name" : "OMX_VIDEO_MPEG4Level3b"
    },
    {
     "enum_field_value" : 32,
     "name" : "OMX_VIDEO_MPEG4Level4"
    },
    {
     "enum_field_value" : 64,
     "name" : "OMX_VIDEO_MPEG4Level4a"
    },
    {
     "enum_field_value" : 128,
     "name" : "OMX_VIDEO_MPEG4Level5"
    },
    {
     "enum_field_value" : 256,
     "name" : "OMX_VIDEO_MPEG4Level6"
    },
    {
     "enum_field_value" : 1862270976,
     "name" : "OMX_VIDEO_MPEG4LevelKhronosExtensions"
    },
    {
     "enum_field_value" : 2130706432,
     "name" : "OMX_VIDEO_MPEG4LevelVendorStartUnused"
    },
    {
     "enum_field_value" : 2147483647,
     "name" : "OMX_VIDEO_MPEG4LevelMax"
    }
   ],
   "linker_set_key" : "OMX_VIDEO_MPEG4LEVELTYPE",
   "name" : "OMX_VIDEO_MPEG4LEVELTYPE",
   "referenced_type" : "type-2277",
   "self_type" : "type-2277",
   "size" : 4,
   "source_file" : "/frameworks/native/headers/media_plugin/media/openmax/OMX_Video.h",
   "underlying_type" : "type-2",
   "unique_id" : "OMX_VIDEO_MPEG4LEVELTYPE"
  },
  {
   "alignment" : 4,
   "enum_fields" :
   [
    {
     "enum_field_value" : 1,
     "name" : "OMX_VIDEO_MPEG4ProfileSimple"
    },
    {
     "enum_field_value" : 2,
     "name" : "OMX_VIDEO_MPEG4ProfileSimpleScalable"
    },
    {
     "enum_field_value" : 4,
     "name" : "OMX_VIDEO_MPEG4ProfileCore"
    },
    {
     "enum_field_value" : 8,
     "name" : "OMX_VIDEO_MPEG4ProfileMain"
    },
    {
     "enum_field_value" : 16,
     "name" : "OMX_VIDEO_MPEG4ProfileNbit"
    },
    {
     "enum_field_value" : 32,
     "name" : "OMX_VIDEO_MPEG4ProfileScalableTexture"
    },
    {
     "enum_field_value" : 64,
     "name" : "OMX_VIDEO_MPEG4ProfileSimpleFace"
    },
    {
     "enum_field_value" : 128,
     "name" : "OMX_VIDEO_MPEG4ProfileSimpleFBA"
    },
    {
     "enum_field_value" : 256,
     "name" : "OMX_VIDEO_MPEG4ProfileBasicAnimated"
    },
    {
     "enum_field_value" : 512,
     "name" : "OMX_VIDEO_MPEG4ProfileHybrid"
    },
    {
     "enum_field_value" : 1024,
     "name" : "OMX_VIDEO_MPEG4ProfileAdvancedRealTime"
    },
    {
     "enum_field_value" : 2048,
     "name" : "OMX_VIDEO_MPEG4ProfileCoreScalable"
    },
    {
     "enum_field_value" : 4096,
     "name" : "OMX_VIDEO_MPEG4ProfileAdvancedCoding"
    },
    {
     "enum_field_value" : 8192,
     "name" : "OMX_VIDEO_MPEG4ProfileAdvancedCore"
    },
    {
     "enum_field_value" : 16384,
     "name" : "OMX_VIDEO_MPEG4ProfileAdvancedScalable"
    },
    {
     "enum_field_value" : 32768,
     "name" : "OMX_VIDEO_MPEG4ProfileAdvancedSimple"
    },
    {
     "enum_field_value" : 1862270976,
     "name" : "OMX_VIDEO_MPEG4ProfileKhronosExtensions"
    },
    {
     "enum_field_value" : 2130706432,
     "name" : "OMX_VIDEO_MPEG4ProfileVendorStartUnused"
    },
    {
     "enum_field_value" : 2147483647,
     "name" : "OMX_VIDEO_MPEG4ProfileMax"
    }
   ],
   "linker_set_key" : "OMX_VIDEO_MPEG4PROFILETYPE",
   "name" : "OMX_VIDEO_MPEG4PROFILETYPE",
   "referenced_type" : "type-2276",
   "self_type" : "type-2276",
   "size" : 4,
   "source_file" : "/frameworks/native/headers/media_plugin/media/openmax/OMX_Video.h",
   "underlying_type" : "type-2",
   "unique_id" : "OMX_VIDEO_MPEG4PROFILETYPE"
  },
  {
   "alignment" : 4,
   "enum_fields" :
   [
    {
     "enum_field_value" : 1,
     "name" : "OMX_VIDEO_PictureTypeI"
    },
    {
     "enum_field_value" : 2,
     "name" : "OMX_VIDEO_PictureTypeP"
    },
    {
     "enum_field_value" : 4,
     "name" : "OMX_VIDEO_PictureTypeB"
    },
    {
     "enum_field_value" : 8,
     "name" : "OMX_VIDEO_PictureTypeSI"
    },
    {
     "enum_field_value" : 16,
     "name" : "OMX_VIDEO_PictureTypeSP"
    },
    {
     "enum_field_value" : 17,
     "name" : "OMX_VIDEO_PictureTypeEI"
    },
    {
     "enum_field_value" : 18,
     "name" : "OMX_VIDEO_PictureTypeEP"
    },
    {
     "enum_field_value" : 20,
     "name" : "OMX_VIDEO_PictureTypeS"
    },
    {
     "enum_field_value" : 1862270976,
     "name" : "OMX_VIDEO_PictureTypeKhronosExtensions"
    },
    {
     "enum_field_value" : 2130706432,
     "name" : "OMX_VIDEO_PictureTypeVendorStartUnused"
    },
    {
     "enum_field_value" : 2147483647,
     "name" : "OMX_VIDEO_PictureTypeMax"
    }
   ],
   "linker_set_key" : "OMX_VIDEO_PICTURETYPE",
   "name" : "OMX_VIDEO_PICTURETYPE",
   "referenced_type" : "type-2270",
   "self_type" : "type-2270",
   "size" : 4,
   "source_file" : "/frameworks/native/headers/media_plugin/media/openmax/OMX_Video.h",
   "underlying_type" : "type-2",
   "unique_id" : "OMX_VIDEO_PICTURETYPE"
  },
  {
   "alignment" : 4,
   "enum_fields" :
   [
    {
     "enum_field_value" : 0,
     "name" : "OMX_VIDEO_RVFormatUnused"
    },
    {
     "enum_field_value" : 1,
     "name" : "OMX_VIDEO_RVFormat8"
    },
    {
     "enum_field_value" : 2,
     "name" : "OMX_VIDEO_RVFormat9"
    },
    {
     "enum_field_value" : 3,
     "name" : "OMX_VIDEO_RVFormatG2"
    },
    {
     "enum_field_value" : 1862270976,
     "name" : "OMX_VIDEO_RVFormatKhronosExtensions"
    },
    {
     "enum_field_value" : 2130706432,
     "name" : "OMX_VIDEO_RVFormatVendorStartUnused"
    },
    {
     "enum_field_value" : 2147483647,
     "name" : "OMX_VIDEO_RVFormatMax"
    }
   ],
   "linker_set_key" : "OMX_VIDEO_RVFORMATTYPE",
   "name" : "OMX_VIDEO_RVFORMATTYPE",
   "referenced_type" : "type-2281",
   "self_type" : "type-2281",
   "size" : 4,
   "source_file" : "/frameworks/native/headers/media_plugin/media/openmax/OMX_Video.h",
   "underlying_type" : "type-2",
   "unique_id" : "OMX_VIDEO_RVFORMATTYPE"
  },
  {
   "alignment" : 4,
   "enum_fields" :
   [
    {
     "enum_field_value" : 1,
     "name" : "OMX_VIDEO_WMVFormatUnused"
    },
    {
     "enum_field_value" : 2,
     "name" : "OMX_VIDEO_WMVFormat7"
    },
    {
     "enum_field_value" : 4,
     "name" : "OMX_VIDEO_WMVFormat8"
    },
    {
     "enum_field_value" : 8,
     "name" : "OMX_VIDEO_WMVFormat9"
    },
    {
     "enum_field_value" : 1862270976,
     "name" : "OMX_VIDEO_WMFFormatKhronosExtensions"
    },
    {
     "enum_field_value" : 2130706432,
     "name" : "OMX_VIDEO_WMFFormatVendorStartUnused"
    },
    {
     "enum_field_value" : 2147483647,
     "name" : "OMX_VIDEO_WMVFormatMax"
    }
   ],
   "linker_set_key" : "OMX_VIDEO_WMVFORMATTYPE",
   "name" : "OMX_VIDEO_WMVFORMATTYPE",
   "referenced_type" : "type-2279",
   "self_type" : "type-2279",
   "size" : 4,
   "source_file" : "/frameworks/native/headers/media_plugin/media/openmax/OMX_Video.h",
   "underlying_type" : "type-2",
   "unique_id" : "OMX_VIDEO_WMVFORMATTYPE"
  },
  {
   "alignment" : 4,
   "enum_fields" :
   [
    {
     "enum_field_value" : 0,
     "name" : "OMX_WhiteBalControlOff"
    },
    {
     "enum_field_value" : 1,
     "name" : "OMX_WhiteBalControlAuto"
    },
    {
     "enum_field_value" : 2,
     "name" : "OMX_WhiteBalControlSunLight"
    },
    {
     "enum_field_value" : 3,
     "name" : "OMX_WhiteBalControlCloudy"
    },
    {
     "enum_field_value" : 4,
     "name" : "OMX_WhiteBalControlShade"
    },
    {
     "enum_field_value" : 5,
     "name" : "OMX_WhiteBalControlTungsten"
    },
    {
     "enum_field_value" : 6,
     "name" : "OMX_WhiteBalControlFluorescent"
    },
    {
     "enum_field_value" : 7,
     "name" : "OMX_WhiteBalControlIncandescent"
    },
    {
     "enum_field_value" : 8,
     "name" : "OMX_WhiteBalControlFlash"
    },
    {
     "enum_field_value" : 9,
     "name" : "OMX_WhiteBalControlHorizon"
    },
    {
     "enum_field_value" : 1862270976,
     "name" : "OMX_WhiteBalControlKhronosExtensions"
    },
    {
     "enum_field_value" : 2130706432,
     "name" : "OMX_WhiteBalControlVendorStartUnused"
    },
    {
     "enum_field_value" : 2147483647,
     "name" : "OMX_WhiteBalControlMax"
    }
   ],
   "linker_set_key" : "OMX_WHITEBALCONTROLTYPE",
   "name" : "OMX_WHITEBALCONTROLTYPE",
   "referenced_type" : "type-2224",
   "self_type" : "type-2224",
   "size" : 4,
   "source_file" : "/frameworks/native/headers/media_plugin/media/openmax/OMX_IVCommon.h",
   "underlying_type" : "type-2",
   "unique_id" : "OMX_WHITEBALCONTROLTYPE"
  },
  {
   "alignment" : 4,
   "enum_fields" :
   [
    {
     "enum_field_value" : 0,
     "name" : "android::ADebug::kDebugNone"
    },
    {
     "enum_field_value" : 1,
     "name" : "android::ADebug::kDebugLifeCycle"
    },
    {
     "enum_field_value" : 2,
     "name" : "android::ADebug::kDebugState"
    },
    {
     "enum_field_value" : 3,
     "name" : "android::ADebug::kDebugConfig"
    },
    {
     "enum_field_value" : 4,
     "name" : "android::ADebug::kDebugInternalState"
    },
    {
     "enum_field_value" : 5,
     "name" : "android::ADebug::kDebugAll"
    },
    {
     "enum_field_value" : 5,
     "name" : "android::ADebug::kDebugMax"
    }
   ],
   "linker_set_key" : "android::ADebug::Level",
   "name" : "android::ADebug::Level",
   "referenced_type" : "type-2296",
   "self_type" : "type-2296",
   "size" : 4,
   "source_file" : "/frameworks/av/media/libstagefright/foundation/include/media/stagefright/foundation/ADebug.h",
   "underlying_type" : "type-2",
   "unique_id" : "_ZTSN7android6ADebug5LevelE"
  },
  {
   "alignment" : 4,
   "enum_fields" :
   [
    {
     "enum_field_value" : 0,
     "name" : "android::AMessage::kTypeInt32"
    },
    {
     "enum_field_value" : 1,
     "name" : "android::AMessage::kTypeInt64"
    },
    {
     "enum_field_value" : 2,
     "name" : "android::AMessage::kTypeSize"
    },
    {
     "enum_field_value" : 3,
     "name" : "android::AMessage::kTypeFloat"
    },
    {
     "enum_field_value" : 4,
     "name" : "android::AMessage::kTypeDouble"
    },
    {
     "enum_field_value" : 5,
     "name" : "android::AMessage::kTypePointer"
    },
    {
     "enum_field_value" : 6,
     "name" : "android::AMessage::kTypeString"
    },
    {
     "enum_field_value" : 7,
     "name" : "android::AMessage::kTypeObject"
    },
    {
     "enum_field_value" : 8,
     "name" : "android::AMessage::kTypeMessage"
    },
    {
     "enum_field_value" : 9,
     "name" : "android::AMessage::kTypeRect"
    },
    {
     "enum_field_value" : 10,
     "name" : "android::AMessage::kTypeBuffer"
    }
   ],
   "linker_set_key" : "android::AMessage::Type",
   "name" : "android::AMessage::Type",
   "referenced_type" : "type-273",
   "self_type" : "type-273",
   "size" : 4,
   "source_file" : "/frameworks/av/media/libstagefright/foundation/include/media/stagefright/foundation/AMessage.h",
   "underlying_type" : "type-2",
   "unique_id" : "_ZTSN7android8AMessage4TypeE"
  },
  {
   "alignment" : 4,
   "enum_fields" :
   [
    {
     "enum_field_value" : 0,
     "name" : "android::ColorAspects::MatrixUnspecified"
    },
    {
     "enum_field_value" : 1,
     "name" : "android::ColorAspects::MatrixBT709_5"
    },
    {
     "enum_field_value" : 2,
     "name" : "android::ColorAspects::MatrixBT470_6M"
    },
    {
     "enum_field_value" : 3,
     "name" : "android::ColorAspects::MatrixBT601_6"
    },
    {
     "enum_field_value" : 4,
     "name" : "android::ColorAspects::MatrixSMPTE240M"
    },
    {
     "enum_field_value" : 5,
     "name" : "android::ColorAspects::MatrixBT2020"
    },
    {
     "enum_field_value" : 6,
     "name" : "android::ColorAspects::MatrixBT2020Constant"
    },
    {
     "enum_field_value" : 255,
     "name" : "android::ColorAspects::MatrixOther"
    }
   ],
   "linker_set_key" : "android::ColorAspects::MatrixCoeffs",
   "name" : "android::ColorAspects::MatrixCoeffs",
   "referenced_type" : "type-2437",
   "self_type" : "type-2437",
   "size" : 4,
   "source_file" : "/frameworks/native/headers/media_plugin/media/hardware/VideoAPI.h",
   "underlying_type" : "type-2",
   "unique_id" : "_ZTSN7android12ColorAspects12MatrixCoeffsE"
  },
  {
   "alignment" : 4,
   "enum_fields" :
   [
    {
     "enum_field_value" : 0,
     "name" : "android::ColorAspects::PrimariesUnspecified"
    },
    {
     "enum_field_value" : 1,
     "name" : "android::ColorAspects::PrimariesBT709_5"
    },
    {
     "enum_field_value" : 2,
     "name" : "android::ColorAspects::PrimariesBT470_6M"
    },
    {
     "enum_field_value" : 3,
     "name" : "android::ColorAspects::PrimariesBT601_6_625"
    },
    {
     "enum_field_value" : 4,
     "name" : "android::ColorAspects::PrimariesBT601_6_525"
    },
    {
     "enum_field_value" : 5,
     "name" : "android::ColorAspects::PrimariesGenericFilm"
    },
    {
     "enum_field_value" : 6,
     "name" : "android::ColorAspects::PrimariesBT2020"
    },
    {
     "enum_field_value" : 255,
     "name" : "android::ColorAspects::PrimariesOther"
    }
   ],
   "linker_set_key" : "android::ColorAspects::Primaries",
   "name" : "android::ColorAspects::Primaries",
   "referenced_type" : "type-2435",
   "self_type" : "type-2435",
   "size" : 4,
   "source_file" : "/frameworks/native/headers/media_plugin/media/hardware/VideoAPI.h",
   "underlying_type" : "type-2",
   "unique_id" : "_ZTSN7android12ColorAspects9PrimariesE"
  },
  {
   "alignment" : 4,
   "enum_fields" :
   [
    {
     "enum_field_value" : 0,
     "name" : "android::ColorAspects::RangeUnspecified"
    },
    {
     "enum_field_value" : 1,
     "name" : "android::ColorAspects::RangeFull"
    },
    {
     "enum_field_value" : 2,
     "name" : "android::ColorAspects::RangeLimited"
    },
    {
     "enum_field_value" : 255,
     "name" : "android::ColorAspects::RangeOther"
    }
   ],
   "linker_set_key" : "android::ColorAspects::Range",
   "name" : "android::ColorAspects::Range",
   "referenced_type" : "type-2434",
   "self_type" : "type-2434",
   "size" : 4,
   "source_file" : "/frameworks/native/headers/media_plugin/media/hardware/VideoAPI.h",
   "underlying_type" : "type-2",
   "unique_id" : "_ZTSN7android12ColorAspects5RangeE"
  },
  {
   "alignment" : 4,
   "enum_fields" :
   [
    {
     "enum_field_value" : 0,
     "name" : "android::ColorAspects::StandardUnspecified"
    },
    {
     "enum_field_value" : 1,
     "name" : "android::ColorAspects::StandardBT709"
    },
    {
     "enum_field_value" : 2,
     "name" : "android::ColorAspects::StandardBT601_625"
    },
    {
     "enum_field_value" : 3,
     "name" : "android::ColorAspects::StandardBT601_625_Unadjusted"
    },
    {
     "enum_field_value" : 4,
     "name" : "android::ColorAspects::StandardBT601_525"
    },
    {
     "enum_field_value" : 5,
     "name" : "android::ColorAspects::StandardBT601_525_Unadjusted"
    },
    {
     "enum_field_value" : 6,
     "name" : "android::ColorAspects::StandardBT2020"
    },
    {
     "enum_field_value" : 7,
     "name" : "android::ColorAspects::StandardBT2020Constant"
    },
    {
     "enum_field_value" : 8,
     "name" : "android::ColorAspects::StandardBT470M"
    },
    {
     "enum_field_value" : 9,
     "name" : "android::ColorAspects::StandardFilm"
    },
    {
     "enum_field_value" : 255,
     "name" : "android::ColorAspects::StandardOther"
    }
   ],
   "linker_set_key" : "android::ColorAspects::Standard",
   "name" : "android::ColorAspects::Standard",
   "referenced_type" : "type-138",
   "self_type" : "type-138",
   "size" : 4,
   "source_file" : "/frameworks/native/headers/media_plugin/media/hardware/VideoAPI.h",
   "underlying_type" : "type-2",
   "unique_id" : "_ZTSN7android12ColorAspects8StandardE"
  },
  {
   "alignment" : 4,
   "enum_fields" :
   [
    {
     "enum_field_value" : 0,
     "name" : "android::ColorAspects::TransferUnspecified"
    },
    {
     "enum_field_value" : 1,
     "name" : "android::ColorAspects::TransferLinear"
    },
    {
     "enum_field_value" : 2,
     "name" : "android::ColorAspects::TransferSRGB"
    },
    {
     "enum_field_value" : 3,
     "name" : "android::ColorAspects::TransferSMPTE170M"
    },
    {
     "enum_field_value" : 4,
     "name" : "android::ColorAspects::TransferGamma22"
    },
    {
     "enum_field_value" : 5,
     "name" : "android::ColorAspects::TransferGamma28"
    },
    {
     "enum_field_value" : 6,
     "name" : "android::ColorAspects::TransferST2084"
    },
    {
     "enum_field_value" : 7,
     "name" : "android::ColorAspects::TransferHLG"
    },
    {
     "enum_field_value" : 64,
     "name" : "android::ColorAspects::TransferSMPTE240M"
    },
    {
     "enum_field_value" : 65,
     "name" : "android::ColorAspects::TransferXvYCC"
    },
    {
     "enum_field_value" : 66,
     "name" : "android::ColorAspects::TransferBT1361"
    },
    {
     "enum_field_value" : 67,
     "name" : "android::ColorAspects::TransferST428"
    },
    {
     "enum_field_value" : 255,
     "name" : "android::ColorAspects::TransferOther"
    }
   ],
   "linker_set_key" : "android::ColorAspects::Transfer",
   "name" : "android::ColorAspects::Transfer",
   "referenced_type" : "type-2436",
   "self_type" : "type-2436",
   "size" : 4,
   "source_file" : "/frameworks/native/headers/media_plugin/media/hardware/VideoAPI.h",
   "underlying_type" : "type-2",
   "unique_id" : "_ZTSN7android12ColorAspects8TransferE"
  },
  {
   "alignment" : 4,
   "enum_fields" :
   [
    {
     "enum_field_value" : 0,
     "name" : "android::ColorUtils::kColorRangeUnspecified"
    },
    {
     "enum_field_value" : 1,
     "name" : "android::ColorUtils::kColorRangeFull"
    },
    {
     "enum_field_value" : 2,
     "name" : "android::ColorUtils::kColorRangeLimited"
    },
    {
     "enum_field_value" : 8,
     "name" : "android::ColorUtils::kColorRangeExtendedStart"
    },
    {
     "enum_field_value" : 65536,
     "name" : "android::ColorUtils::kColorRangeVendorStart"
    }
   ],
   "linker_set_key" : "android::ColorUtils::ColorRange",
   "name" : "android::ColorUtils::ColorRange",
   "referenced_type" : "type-1201",
   "self_type" : "type-1201",
   "size" : 4,
   "source_file" : "/frameworks/av/media/libstagefright/foundation/include/media/stagefright/foundation/ColorUtils.h",
   "underlying_type" : "type-2",
   "unique_id" : "_ZTSN7android10ColorUtils10ColorRangeE"
  },
  {
   "alignment" : 4,
   "enum_fields" :
   [
    {
     "enum_field_value" : 0,
     "name" : "android::ColorUtils::kColorStandardUnspecified"
    },
    {
     "enum_field_value" : 1,
     "name" : "android::ColorUtils::kColorStandardBT709"
    },
    {
     "enum_field_value" : 2,
     "name" : "android::ColorUtils::kColorStandardBT601_625"
    },
    {
     "enum_field_value" : 3,
     "name" : "android::ColorUtils::kColorStandardBT601_625_Unadjusted"
    },
    {
     "enum_field_value" : 4,
     "name" : "android::ColorUtils::kColorStandardBT601_525"
    },
    {
     "enum_field_value" : 5,
     "name" : "android::ColorUtils::kColorStandardBT601_525_Unadjusted"
    },
    {
     "enum_field_value" : 6,
     "name" : "android::ColorUtils::kColorStandardBT2020"
    },
    {
     "enum_field_value" : 7,
     "name" : "android::ColorUtils::kColorStandardBT2020Constant"
    },
    {
     "enum_field_value" : 8,
     "name" : "android::ColorUtils::kColorStandardBT470M"
    },
    {
     "enum_field_value" : 9,
     "name" : "android::ColorUtils::kColorStandardFilm"
    },
    {
     "enum_field_value" : 10,
     "name" : "android::ColorUtils::kColorStandardDCI_P3"
    },
    {
     "enum_field_value" : 64,
     "name" : "android::ColorUtils::kColorStandardExtendedStart"
    },
    {
     "enum_field_value" : 65536,
     "name" : "android::ColorUtils::kColorStandardVendorStart"
    }
   ],
   "linker_set_key" : "android::ColorUtils::ColorStandard",
   "name" : "android::ColorUtils::ColorStandard",
   "referenced_type" : "type-1191",
   "self_type" : "type-1191",
   "size" : 4,
   "source_file" : "/frameworks/av/media/libstagefright/foundation/include/media/stagefright/foundation/ColorUtils.h",
   "underlying_type" : "type-2",
   "unique_id" : "_ZTSN7android10ColorUtils13ColorStandardE"
  },
  {
   "alignment" : 4,
   "enum_fields" :
   [
    {
     "enum_field_value" : 0,
     "name" : "android::ColorUtils::kColorTransferUnspecified"
    },
    {
     "enum_field_value" : 1,
     "name" : "android::ColorUtils::kColorTransferLinear"
    },
    {
     "enum_field_value" : 2,
     "name" : "android::ColorUtils::kColorTransferSRGB"
    },
    {
     "enum_field_value" : 3,
     "name" : "android::ColorUtils::kColorTransferSMPTE_170M"
    },
    {
     "enum_field_value" : 4,
     "name" : "android::ColorUtils::kColorTransferGamma22"
    },
    {
     "enum_field_value" : 5,
     "name" : "android::ColorUtils::kColorTransferGamma28"
    },
    {
     "enum_field_value" : 6,
     "name" : "android::ColorUtils::kColorTransferST2084"
    },
    {
     "enum_field_value" : 7,
     "name" : "android::ColorUtils::kColorTransferHLG"
    },
    {
     "enum_field_value" : 8,
     "name" : "android::ColorUtils::kColorTransferGamma26"
    },
    {
     "enum_field_value" : 32,
     "name" : "android::ColorUtils::kColorTransferExtendedStart"
    },
    {
     "enum_field_value" : 65536,
     "name" : "android::ColorUtils::kColorTransferVendorStart"
    }
   ],
   "linker_set_key" : "android::ColorUtils::ColorTransfer",
   "name" : "android::ColorUtils::ColorTransfer",
   "referenced_type" : "type-1195",
   "self_type" : "type-1195",
   "size" : 4,
   "source_file" : "/frameworks/av/media/libstagefright/foundation/include/media/stagefright/foundation/ColorUtils.h",
   "underlying_type" : "type-2",
   "unique_id" : "_ZTSN7android10ColorUtils13ColorTransferE"
  },
  {
   "alignment" : 4,
   "enum_fields" :
   [
    {
     "enum_field_value" : 0,
     "name" : "android::Condition::WAKE_UP_ONE"
    },
    {
     "enum_field_value" : 1,
     "name" : "android::Condition::WAKE_UP_ALL"
    }
   ],
   "linker_set_key" : "android::Condition::WakeUpType",
   "name" : "android::Condition::WakeUpType",
   "referenced_type" : "type-315",
   "self_type" : "type-315",
   "size" : 4,
   "source_file" : "/system/core/libutils/include/utils/Condition.h",
   "underlying_type" : "type-2",
   "unique_id" : "_ZTSN7android9Condition10WakeUpTypeE"
  },
  {
   "alignment" : 4,
   "enum_fields" :
   [
    {
     "enum_field_value" : 0,
     "name" : "android::GraphicBufferSource::ActionItem::PAUSE"
    },
    {
     "enum_field_value" : 1,
     "name" : "android::GraphicBufferSource::ActionItem::RESUME"
    },
    {
     "enum_field_value" : 2,
     "name" : "android::GraphicBufferSource::ActionItem::STOP"
    }
   ],
   "linker_set_key" : "android::GraphicBufferSource::ActionItem::ActionType",
   "name" : "android::GraphicBufferSource::ActionItem::ActionType",
   "referenced_type" : "type-225",
   "self_type" : "type-225",
   "size" : 4,
   "source_file" : "/frameworks/av/media/libstagefright/bqhelper/include/media/stagefright/bqhelper/GraphicBufferSource.h",
   "underlying_type" : "type-2",
   "unique_id" : "_ZTSN7android19GraphicBufferSource10ActionItem10ActionTypeE"
  },
  {
   "alignment" : 1,
   "enum_fields" :
   [
    {
     "enum_field_value" : 0,
     "name" : "android::HDRStaticInfo::kType1"
    }
   ],
   "linker_set_key" : "android::HDRStaticInfo::ID",
   "name" : "android::HDRStaticInfo::ID",
   "referenced_type" : "type-2441",
   "self_type" : "type-2441",
   "size" : 1,
   "source_file" : "/frameworks/native/headers/media_plugin/media/hardware/VideoAPI.h",
   "underlying_type" : "type-92",
   "unique_id" : "_ZTSN7android13HDRStaticInfo2IDE"
  },
  {
   "alignment" : 4,
   "enum_fields" :
   [
    {
     "enum_field_value" : 0,
     "name" : "android::MediaImage2::Y"
    },
    {
     "enum_field_value" : 1,
     "name" : "android::MediaImage2::U"
    },
    {
     "enum_field_value" : 2,
     "name" : "android::MediaImage2::V"
    },
    {
     "enum_field_value" : 0,
     "name" : "android::MediaImage2::R"
    },
    {
     "enum_field_value" : 1,
     "name" : "android::MediaImage2::G"
    },
    {
     "enum_field_value" : 2,
     "name" : "android::MediaImage2::B"
    },
    {
     "enum_field_value" : 3,
     "name" : "android::MediaImage2::A"
    },
    {
     "enum_field_value" : 4,
     "name" : "android::MediaImage2::MAX_NUM_PLANES"
    }
   ],
   "linker_set_key" : "android::MediaImage2::PlaneIndex",
   "name" : "android::MediaImage2::PlaneIndex",
   "referenced_type" : "type-137",
   "self_type" : "type-137",
   "size" : 4,
   "source_file" : "/frameworks/native/headers/media_plugin/media/hardware/VideoAPI.h",
   "underlying_type" : "type-2",
   "unique_id" : "_ZTSN7android11MediaImage210PlaneIndexE"
  },
  {
   "alignment" : 4,
   "enum_fields" :
   [
    {
     "enum_field_value" : 0,
     "name" : "android::MediaImage2::MEDIA_IMAGE_TYPE_UNKNOWN"
    },
    {
     "enum_field_value" : 1,
     "name" : "android::MediaImage2::MEDIA_IMAGE_TYPE_YUV"
    },
    {
     "enum_field_value" : 2,
     "name" : "android::MediaImage2::MEDIA_IMAGE_TYPE_YUVA"
    },
    {
     "enum_field_value" : 3,
     "name" : "android::MediaImage2::MEDIA_IMAGE_TYPE_RGB"
    },
    {
     "enum_field_value" : 4,
     "name" : "android::MediaImage2::MEDIA_IMAGE_TYPE_RGBA"
    },
    {
     "enum_field_value" : 5,
     "name" : "android::MediaImage2::MEDIA_IMAGE_TYPE_Y"
    }
   ],
   "linker_set_key" : "android::MediaImage2::Type",
   "name" : "android::MediaImage2::Type",
   "referenced_type" : "type-2427",
   "self_type" : "type-2427",
   "size" : 4,
   "source_file" : "/frameworks/native/headers/media_plugin/media/hardware/VideoAPI.h",
   "underlying_type" : "type-2",
   "unique_id" : "_ZTSN7android11MediaImage24TypeE"
  },
  {
   "alignment" : 4,
   "enum_fields" :
   [
    {
     "enum_field_value" : 0,
     "name" : "android::MediaImage::Y"
    },
    {
     "enum_field_value" : 1,
     "name" : "android::MediaImage::U"
    },
    {
     "enum_field_value" : 2,
     "name" : "android::MediaImage::V"
    },
    {
     "enum_field_value" : 3,
     "name" : "android::MediaImage::MAX_NUM_PLANES"
    }
   ],
   "linker_set_key" : "android::MediaImage::PlaneIndex",
   "name" : "android::MediaImage::PlaneIndex",
   "referenced_type" : "type-136",
   "self_type" : "type-136",
   "size" : 4,
   "source_file" : "/frameworks/native/headers/media_plugin/media/hardware/VideoAPI.h",
   "underlying_type" : "type-2",
   "unique_id" : "_ZTSN7android10MediaImage10PlaneIndexE"
  },
  {
   "alignment" : 4,
   "enum_fields" :
   [
    {
     "enum_field_value" : 0,
     "name" : "android::MediaImage::MEDIA_IMAGE_TYPE_UNKNOWN"
    },
    {
     "enum_field_value" : 1,
     "name" : "android::MediaImage::MEDIA_IMAGE_TYPE_YUV"
    }
   ],
   "linker_set_key" : "android::MediaImage::Type",
   "name" : "android::MediaImage::Type",
   "referenced_type" : "type-2421",
   "self_type" : "type-2421",
   "size" : 4,
   "source_file" : "/frameworks/native/headers/media_plugin/media/hardware/VideoAPI.h",
   "underlying_type" : "type-2",
   "unique_id" : "_ZTSN7android10MediaImage4TypeE"
  },
  {
   "alignment" : 4,
   "enum_fields" :
   [
    {
     "enum_field_value" : 0,
     "name" : "android::kMetadataBufferTypeCameraSource"
    },
    {
     "enum_field_value" : 1,
     "name" : "android::kMetadataBufferTypeGrallocSource"
    },
    {
     "enum_field_value" : 2,
     "name" : "android::kMetadataBufferTypeANWBuffer"
    },
    {
     "enum_field_value" : 3,
     "name" : "android::kMetadataBufferTypeNativeHandleSource"
    },
    {
     "enum_field_value" : -1,
     "name" : "android::kMetadataBufferTypeInvalid"
    }
   ],
   "linker_set_key" : "android::MetadataBufferType",
   "name" : "android::MetadataBufferType",
   "referenced_type" : "type-1238",
   "self_type" : "type-1238",
   "size" : 4,
   "source_file" : "/frameworks/native/headers/media_plugin/media/hardware/MetadataBufferType.h",
   "underlying_type" : "type-4",
   "unique_id" : "android::MetadataBufferType"
  },
  {
   "alignment" : 4,
   "enum_fields" :
   [
    {
     "enum_field_value" : 0,
     "name" : "android::ProcessState::CallRestriction::NONE"
    },
    {
     "enum_field_value" : 1,
     "name" : "android::ProcessState::CallRestriction::ERROR_IF_NOT_ONEWAY"
    },
    {
     "enum_field_value" : 2,
     "name" : "android::ProcessState::CallRestriction::FATAL_IF_NOT_ONEWAY"
    }
   ],
   "linker_set_key" : "android::ProcessState::CallRestriction",
   "name" : "android::ProcessState::CallRestriction",
   "referenced_type" : "type-1259",
   "self_type" : "type-1259",
   "size" : 4,
   "source_file" : "/frameworks/native/libs/binder/include/binder/ProcessState.h",
   "underlying_type" : "type-4",
   "unique_id" : "_ZTSN7android12ProcessState15CallRestrictionE"
  },
  {
   "alignment" : 4,
   "enum_fields" :
   [
    {
     "enum_field_value" : 0,
     "name" : "android::String16::kEmptyString"
    }
   ],
   "linker_set_key" : "android::String16::StaticLinkage",
   "name" : "android::String16::StaticLinkage",
   "referenced_type" : "type-2662",
   "self_type" : "type-2662",
   "size" : 4,
   "source_file" : "/system/core/libutils/include/utils/String16.h",
   "underlying_type" : "type-2",
   "unique_id" : "_ZTSN7android8String1613StaticLinkageE"
  },
  {
   "alignment" : 4,
   "enum_fields" :
   [
    {
     "enum_field_value" : 0,
     "name" : "android::String8::kEmptyString"
    }
   ],
   "linker_set_key" : "android::String8::StaticLinkage",
   "name" : "android::String8::StaticLinkage",
   "referenced_type" : "type-2657",
   "self_type" : "type-2657",
   "size" : 4,
   "source_file" : "/system/core/libutils/include/utils/String8.h",
   "underlying_type" : "type-2",
   "unique_id" : "_ZTSN7android7String813StaticLinkageE"
  },
  {
   "alignment" : 4,
   "enum_fields" :
   [
    {
     "enum_field_value" : 0,
     "name" : "android::base::DEFAULT"
    },
    {
     "enum_field_value" : 1,
     "name" : "android::base::MAIN"
    },
    {
     "enum_field_value" : 2,
     "name" : "android::base::SYSTEM"
    }
   ],
   "linker_set_key" : "android::base::LogId",
   "name" : "android::base::LogId",
   "referenced_type" : "type-4714",
   "self_type" : "type-4714",
   "size" : 4,
   "source_file" : "/system/core/base/include/android-base/logging.h",
   "underlying_type" : "type-2",
   "unique_id" : "_ZTSN7android4base5LogIdE"
  },
  {
   "alignment" : 4,
   "enum_fields" :
   [
    {
     "enum_field_value" : 0,
     "name" : "android::base::VERBOSE"
    },
    {
     "enum_field_value" : 1,
     "name" : "android::base::DEBUG"
    },
    {
     "enum_field_value" : 2,
     "name" : "android::base::INFO"
    },
    {
     "enum_field_value" : 3,
     "name" : "android::base::WARNING"
    },
    {
     "enum_field_value" : 4,
     "name" : "android::base::ERROR"
    },
    {
     "enum_field_value" : 5,
     "name" : "android::base::FATAL_WITHOUT_ABORT"
    },
    {
     "enum_field_value" : 6,
     "name" : "android::base::FATAL"
    }
   ],
   "linker_set_key" : "android::base::LogSeverity",
   "name" : "android::base::LogSeverity",
   "referenced_type" : "type-4664",
   "self_type" : "type-4664",
   "size" : 4,
   "source_file" : "/system/core/base/include/android-base/logging.h",
   "underlying_type" : "type-2",
   "unique_id" : "_ZTSN7android4base11LogSeverityE"
  },
  {
   "alignment" : 4,
   "enum_fields" :
   [
    {
     "enum_field_value" : 0,
     "name" : "android::binder::Status::EX_NONE"
    },
    {
     "enum_field_value" : -1,
     "name" : "android::binder::Status::EX_SECURITY"
    },
    {
     "enum_field_value" : -2,
     "name" : "android::binder::Status::EX_BAD_PARCELABLE"
    },
    {
     "enum_field_value" : -3,
     "name" : "android::binder::Status::EX_ILLEGAL_ARGUMENT"
    },
    {
     "enum_field_value" : -4,
     "name" : "android::binder::Status::EX_NULL_POINTER"
    },
    {
     "enum_field_value" : -5,
     "name" : "android::binder::Status::EX_ILLEGAL_STATE"
    },
    {
     "enum_field_value" : -6,
     "name" : "android::binder::Status::EX_NETWORK_MAIN_THREAD"
    },
    {
     "enum_field_value" : -7,
     "name" : "android::binder::Status::EX_UNSUPPORTED_OPERATION"
    },
    {
     "enum_field_value" : -8,
     "name" : "android::binder::Status::EX_SERVICE_SPECIFIC"
    },
    {
     "enum_field_value" : -9,
     "name" : "android::binder::Status::EX_PARCELABLE"
    },
    {
     "enum_field_value" : -128,
     "name" : "android::binder::Status::EX_HAS_REPLY_HEADER"
    },
    {
     "enum_field_value" : -129,
     "name" : "android::binder::Status::EX_TRANSACTION_FAILED"
    }
   ],
   "linker_set_key" : "android::binder::Status::Exception",
   "name" : "android::binder::Status::Exception",
   "referenced_type" : "type-127",
   "self_type" : "type-127",
   "size" : 4,
   "source_file" : "/frameworks/native/libs/binder/include/binder/Status.h",
   "underlying_type" : "type-4",
   "unique_id" : "_ZTSN7android6binder6Status9ExceptionE"
  },
  {
   "alignment" : 4,
   "enum_fields" :
   [
    {
     "enum_field_value" : 0,
     "name" : "android::hardware::HidlReturnRestriction::NONE"
    },
    {
     "enum_field_value" : 1,
     "name" : "android::hardware::HidlReturnRestriction::ERROR_IF_UNCHECKED"
    },
    {
     "enum_field_value" : 2,
     "name" : "android::hardware::HidlReturnRestriction::FATAL_IF_UNCHECKED"
    }
   ],
   "linker_set_key" : "android::hardware::HidlReturnRestriction",
   "name" : "android::hardware::HidlReturnRestriction",
   "referenced_type" : "type-429",
   "self_type" : "type-429",
   "size" : 4,
   "source_file" : "/system/libhidl/base/include/hidl/Status.h",
   "underlying_type" : "type-4",
   "unique_id" : "_ZTSN7android8hardware21HidlReturnRestrictionE"
  },
  {
   "alignment" : 4,
   "enum_fields" :
   [
    {
     "enum_field_value" : 1,
     "name" : "android::hardware::kSynchronizedReadWrite"
    },
    {
     "enum_field_value" : 2,
     "name" : "android::hardware::kUnsynchronizedWrite"
    }
   ],
   "linker_set_key" : "android::hardware::MQFlavor",
   "name" : "android::hardware::MQFlavor",
   "referenced_type" : "type-519",
   "self_type" : "type-519",
   "size" : 4,
   "source_file" : "/system/libhidl/base/include/hidl/MQDescriptor.h",
   "underlying_type" : "type-2",
   "unique_id" : "_ZTSN7android8hardware8MQFlavorE"
  },
  {
   "alignment" : 4,
   "enum_fields" :
   [
    {
     "enum_field_value" : 0,
     "name" : "android::hardware::ProcessState::CallRestriction::NONE"
    },
    {
     "enum_field_value" : 1,
     "name" : "android::hardware::ProcessState::CallRestriction::ERROR_IF_NOT_ONEWAY"
    },
    {
     "enum_field_value" : 2,
     "name" : "android::hardware::ProcessState::CallRestriction::FATAL_IF_NOT_ONEWAY"
    }
   ],
   "linker_set_key" : "android::hardware::ProcessState::CallRestriction",
   "name" : "android::hardware::ProcessState::CallRestriction",
   "referenced_type" : "type-1395",
   "self_type" : "type-1395",
   "size" : 4,
   "source_file" : "/system/libhwbinder/include/hwbinder/ProcessState.h",
   "underlying_type" : "type-4",
   "unique_id" : "_ZTSN7android8hardware12ProcessState15CallRestrictionE"
  },
  {
   "alignment" : 4,
   "enum_fields" :
   [
    {
     "enum_field_value" : 0,
     "name" : "android::hardware::Status::EX_NONE"
    },
    {
     "enum_field_value" : -1,
     "name" : "android::hardware::Status::EX_SECURITY"
    },
    {
     "enum_field_value" : -2,
     "name" : "android::hardware::Status::EX_BAD_PARCELABLE"
    },
    {
     "enum_field_value" : -3,
     "name" : "android::hardware::Status::EX_ILLEGAL_ARGUMENT"
    },
    {
     "enum_field_value" : -4,
     "name" : "android::hardware::Status::EX_NULL_POINTER"
    },
    {
     "enum_field_value" : -5,
     "name" : "android::hardware::Status::EX_ILLEGAL_STATE"
    },
    {
     "enum_field_value" : -6,
     "name" : "android::hardware::Status::EX_NETWORK_MAIN_THREAD"
    },
    {
     "enum_field_value" : -7,
     "name" : "android::hardware::Status::EX_UNSUPPORTED_OPERATION"
    },
    {
     "enum_field_value" : -128,
     "name" : "android::hardware::Status::EX_HAS_REPLY_HEADER"
    },
    {
     "enum_field_value" : -129,
     "name" : "android::hardware::Status::EX_TRANSACTION_FAILED"
    }
   ],
   "linker_set_key" : "android::hardware::Status::Exception",
   "name" : "android::hardware::Status::Exception",
   "referenced_type" : "type-406",
   "self_type" : "type-406",
   "size" : 4,
   "source_file" : "/system/libhidl/base/include/hidl/Status.h",
   "underlying_type" : "type-4",
   "unique_id" : "_ZTSN7android8hardware6Status9ExceptionE"
  },
  {
   "alignment" : 4,
   "enum_fields" :
   [
    {
     "enum_field_value" : 0,
     "name" : "android::hardware::details::HidlInstrumentor::SERVER_API_ENTRY"
    },
    {
     "enum_field_value" : 1,
     "name" : "android::hardware::details::HidlInstrumentor::SERVER_API_EXIT"
    },
    {
     "enum_field_value" : 2,
     "name" : "android::hardware::details::HidlInstrumentor::CLIENT_API_ENTRY"
    },
    {
     "enum_field_value" : 3,
     "name" : "android::hardware::details::HidlInstrumentor::CLIENT_API_EXIT"
    },
    {
     "enum_field_value" : 4,
     "name" : "android::hardware::details::HidlInstrumentor::SYNC_CALLBACK_ENTRY"
    },
    {
     "enum_field_value" : 5,
     "name" : "android::hardware::details::HidlInstrumentor::SYNC_CALLBACK_EXIT"
    },
    {
     "enum_field_value" : 6,
     "name" : "android::hardware::details::HidlInstrumentor::ASYNC_CALLBACK_ENTRY"
    },
    {
     "enum_field_value" : 7,
     "name" : "android::hardware::details::HidlInstrumentor::ASYNC_CALLBACK_EXIT"
    },
    {
     "enum_field_value" : 8,
     "name" : "android::hardware::details::HidlInstrumentor::PASSTHROUGH_ENTRY"
    },
    {
     "enum_field_value" : 9,
     "name" : "android::hardware::details::HidlInstrumentor::PASSTHROUGH_EXIT"
    }
   ],
   "linker_set_key" : "android::hardware::details::HidlInstrumentor::InstrumentationEvent",
   "name" : "android::hardware::details::HidlInstrumentor::InstrumentationEvent",
   "referenced_type" : "type-398",
   "self_type" : "type-398",
   "size" : 4,
   "source_file" : "/system/libhidl/base/include/hidl/HidlInternal.h",
   "underlying_type" : "type-2",
   "unique_id" : "_ZTSN7android8hardware7details16HidlInstrumentor20InstrumentationEventE"
  },
  {
   "alignment" : 4,
   "enum_fields" :
   [
    {
     "enum_field_value" : 0,
     "name" : "android::hardware::graphics::bufferqueue::V1_0::IGraphicBufferProducer::DisconnectMode::API"
    },
    {
     "enum_field_value" : 1,
     "name" : "android::hardware::graphics::bufferqueue::V1_0::IGraphicBufferProducer::DisconnectMode::ALL_LOCAL"
    }
   ],
   "linker_set_key" : "android::hardware::graphics::bufferqueue::V1_0::IGraphicBufferProducer::DisconnectMode",
   "name" : "android::hardware::graphics::bufferqueue::V1_0::IGraphicBufferProducer::DisconnectMode",
   "referenced_type" : "type-590",
   "self_type" : "type-590",
   "size" : 4,
   "source_file" : "/out/soong/.intermediates/hardware/interfaces/graphics/bufferqueue/1.0/android.hardware.graphics.bufferqueue@1.0_genc++_headers/gen/android/hardware/graphics/bufferqueue/1.0/IGraphicBufferProducer.h",
   "underlying_type" : "type-4",
   "unique_id" : "_ZTSN7android8hardware8graphics11bufferqueue4V1_022IGraphicBufferProducer14DisconnectModeE"
  },
  {
   "alignment" : 4,
   "enum_fields" :
   [
    {
     "enum_field_value" : 0,
     "name" : "android::hardware::graphics::bufferqueue::V1_0::IGraphicBufferProducer::FenceTimeSnapshot::State::EMPTY"
    },
    {
     "enum_field_value" : 1,
     "name" : "android::hardware::graphics::bufferqueue::V1_0::IGraphicBufferProducer::FenceTimeSnapshot::State::FENCE"
    },
    {
     "enum_field_value" : 2,
     "name" : "android::hardware::graphics::bufferqueue::V1_0::IGraphicBufferProducer::FenceTimeSnapshot::State::SIGNAL_TIME"
    }
   ],
   "linker_set_key" : "android::hardware::graphics::bufferqueue::V1_0::IGraphicBufferProducer::FenceTimeSnapshot::State",
   "name" : "android::hardware::graphics::bufferqueue::V1_0::IGraphicBufferProducer::FenceTimeSnapshot::State",
   "referenced_type" : "type-362",
   "self_type" : "type-362",
   "size" : 4,
   "source_file" : "/out/soong/.intermediates/hardware/interfaces/graphics/bufferqueue/1.0/android.hardware.graphics.bufferqueue@1.0_genc++_headers/gen/android/hardware/graphics/bufferqueue/1.0/IGraphicBufferProducer.h",
   "underlying_type" : "type-4",
   "unique_id" : "_ZTSN7android8hardware8graphics11bufferqueue4V1_022IGraphicBufferProducer17FenceTimeSnapshot5StateE"
  },
  {
   "alignment" : 4,
   "enum_fields" :
   [
    {
     "enum_field_value" : -1,
     "name" : "android::hardware::graphics::bufferqueue::V2_0::ConnectionType::CURRENTLY_CONNECTED"
    },
    {
     "enum_field_value" : 1,
     "name" : "android::hardware::graphics::bufferqueue::V2_0::ConnectionType::EGL"
    },
    {
     "enum_field_value" : 2,
     "name" : "android::hardware::graphics::bufferqueue::V2_0::ConnectionType::CPU"
    },
    {
     "enum_field_value" : 3,
     "name" : "android::hardware::graphics::bufferqueue::V2_0::ConnectionType::MEDIA"
    },
    {
     "enum_field_value" : 4,
     "name" : "android::hardware::graphics::bufferqueue::V2_0::ConnectionType::CAMERA"
    }
   ],
   "linker_set_key" : "android::hardware::graphics::bufferqueue::V2_0::ConnectionType",
   "name" : "android::hardware::graphics::bufferqueue::V2_0::ConnectionType",
   "referenced_type" : "type-609",
   "self_type" : "type-609",
   "size" : 4,
   "source_file" : "/out/soong/.intermediates/hardware/interfaces/graphics/bufferqueue/2.0/android.hardware.graphics.bufferqueue@2.0_genc++_headers/gen/android/hardware/graphics/bufferqueue/2.0/types.h",
   "underlying_type" : "type-4",
   "unique_id" : "_ZTSN7android8hardware8graphics11bufferqueue4V2_014ConnectionTypeE"
  },
  {
   "alignment" : 4,
   "enum_fields" :
   [
    {
     "enum_field_value" : -1,
     "name" : "android::hardware::graphics::bufferqueue::V2_0::SlotIndex::INVALID"
    },
    {
     "enum_field_value" : -1,
     "name" : "android::hardware::graphics::bufferqueue::V2_0::SlotIndex::UNSPECIFIED"
    }
   ],
   "linker_set_key" : "android::hardware::graphics::bufferqueue::V2_0::SlotIndex",
   "name" : "android::hardware::graphics::bufferqueue::V2_0::SlotIndex",
   "referenced_type" : "type-608",
   "self_type" : "type-608",
   "size" : 4,
   "source_file" : "/out/soong/.intermediates/hardware/interfaces/graphics/bufferqueue/2.0/android.hardware.graphics.bufferqueue@2.0_genc++_headers/gen/android/hardware/graphics/bufferqueue/2.0/types.h",
   "underlying_type" : "type-4",
   "unique_id" : "_ZTSN7android8hardware8graphics11bufferqueue4V2_09SlotIndexE"
  },
  {
   "alignment" : 4,
   "enum_fields" :
   [
    {
     "enum_field_value" : 0,
     "name" : "android::hardware::graphics::bufferqueue::V2_0::Status::OK"
    },
    {
     "enum_field_value" : -12,
     "name" : "android::hardware::graphics::bufferqueue::V2_0::Status::NO_MEMORY"
    },
    {
     "enum_field_value" : -19,
     "name" : "android::hardware::graphics::bufferqueue::V2_0::Status::NO_INIT"
    },
    {
     "enum_field_value" : -22,
     "name" : "android::hardware::graphics::bufferqueue::V2_0::Status::BAD_VALUE"
    },
    {
     "enum_field_value" : -32,
     "name" : "android::hardware::graphics::bufferqueue::V2_0::Status::DEAD_OBJECT"
    },
    {
     "enum_field_value" : -38,
     "name" : "android::hardware::graphics::bufferqueue::V2_0::Status::INVALID_OPERATION"
    },
    {
     "enum_field_value" : -110,
     "name" : "android::hardware::graphics::bufferqueue::V2_0::Status::TIMED_OUT"
    },
    {
     "enum_field_value" : -5,
     "name" : "android::hardware::graphics::bufferqueue::V2_0::Status::WOULD_BLOCK"
    },
    {
     "enum_field_value" : -1,
     "name" : "android::hardware::graphics::bufferqueue::V2_0::Status::UNKNOWN_ERROR"
    }
   ],
   "linker_set_key" : "android::hardware::graphics::bufferqueue::V2_0::Status",
   "name" : "android::hardware::graphics::bufferqueue::V2_0::Status",
   "referenced_type" : "type-607",
   "self_type" : "type-607",
   "size" : 4,
   "source_file" : "/out/soong/.intermediates/hardware/interfaces/graphics/bufferqueue/2.0/android.hardware.graphics.bufferqueue@2.0_genc++_headers/gen/android/hardware/graphics/bufferqueue/2.0/types.h",
   "underlying_type" : "type-4",
   "unique_id" : "_ZTSN7android8hardware8graphics11bufferqueue4V2_06StatusE"
  },
  {
   "alignment" : 8,
   "enum_fields" :
   [
    {
     "enum_field_value" : 15,
     "name" : "android::hardware::graphics::common::V1_0::BufferUsage::CPU_READ_MASK"
    },
    {
     "enum_field_value" : 0,
     "name" : "android::hardware::graphics::common::V1_0::BufferUsage::CPU_READ_NEVER"
    },
    {
     "enum_field_value" : 2,
     "name" : "android::hardware::graphics::common::V1_0::BufferUsage::CPU_READ_RARELY"
    },
    {
     "enum_field_value" : 3,
     "name" : "android::hardware::graphics::common::V1_0::BufferUsage::CPU_READ_OFTEN"
    },
    {
     "enum_field_value" : 240,
     "name" : "android::hardware::graphics::common::V1_0::BufferUsage::CPU_WRITE_MASK"
    },
    {
     "enum_field_value" : 0,
     "name" : "android::hardware::graphics::common::V1_0::BufferUsage::CPU_WRITE_NEVER"
    },
    {
     "enum_field_value" : 32,
     "name" : "android::hardware::graphics::common::V1_0::BufferUsage::CPU_WRITE_RARELY"
    },
    {
     "enum_field_value" : 48,
     "name" : "android::hardware::graphics::common::V1_0::BufferUsage::CPU_WRITE_OFTEN"
    },
    {
     "enum_field_value" : 256,
     "name" : "android::hardware::graphics::common::V1_0::BufferUsage::GPU_TEXTURE"
    },
    {
     "enum_field_value" : 512,
     "name" : "android::hardware::graphics::common::V1_0::BufferUsage::GPU_RENDER_TARGET"
    },
    {
     "enum_field_value" : 2048,
     "name" : "android::hardware::graphics::common::V1_0::BufferUsage::COMPOSER_OVERLAY"
    },
    {
     "enum_field_value" : 4096,
     "name" : "android::hardware::graphics::common::V1_0::BufferUsage::COMPOSER_CLIENT_TARGET"
    },
    {
     "enum_field_value" : 16384,
     "name" : "android::hardware::graphics::common::V1_0::BufferUsage::PROTECTED"
    },
    {
     "enum_field_value" : 32768,
     "name" : "android::hardware::graphics::common::V1_0::BufferUsage::COMPOSER_CURSOR"
    },
    {
     "enum_field_value" : 65536,
     "name" : "android::hardware::graphics::common::V1_0::BufferUsage::VIDEO_ENCODER"
    },
    {
     "enum_field_value" : 131072,
     "name" : "android::hardware::graphics::common::V1_0::BufferUsage::CAMERA_OUTPUT"
    },
    {
     "enum_field_value" : 262144,
     "name" : "android::hardware::graphics::common::V1_0::BufferUsage::CAMERA_INPUT"
    },
    {
     "enum_field_value" : 1048576,
     "name" : "android::hardware::graphics::common::V1_0::BufferUsage::RENDERSCRIPT"
    },
    {
     "enum_field_value" : 4194304,
     "name" : "android::hardware::graphics::common::V1_0::BufferUsage::VIDEO_DECODER"
    },
    {
     "enum_field_value" : 8388608,
     "name" : "android::hardware::graphics::common::V1_0::BufferUsage::SENSOR_DIRECT_DATA"
    },
    {
     "enum_field_value" : 16777216,
     "name" : "android::hardware::graphics::common::V1_0::BufferUsage::GPU_DATA_BUFFER"
    },
    {
     "enum_field_value" : -268435456,
     "name" : "android::hardware::graphics::common::V1_0::BufferUsage::VENDOR_MASK"
    },
    {
     "enum_field_value" : 0,
     "name" : "android::hardware::graphics::common::V1_0::BufferUsage::VENDOR_MASK_HI"
    }
   ],
   "linker_set_key" : "android::hardware::graphics::common::V1_0::BufferUsage",
   "name" : "android::hardware::graphics::common::V1_0::BufferUsage",
   "referenced_type" : "type-537",
   "self_type" : "type-537",
   "size" : 8,
   "source_file" : "/out/soong/.intermediates/hardware/interfaces/graphics/common/1.0/android.hardware.graphics.common@1.0_genc++_headers/gen/android/hardware/graphics/common/1.0/types.h",
   "underlying_type" : "type-11",
   "unique_id" : "_ZTSN7android8hardware8graphics6common4V1_011BufferUsageE"
  },
  {
   "alignment" : 4,
   "enum_fields" :
   [
    {
     "enum_field_value" : 0,
     "name" : "android::hardware::graphics::common::V1_0::ColorMode::NATIVE"
    },
    {
     "enum_field_value" : 1,
     "name" : "android::hardware::graphics::common::V1_0::ColorMode::STANDARD_BT601_625"
    },
    {
     "enum_field_value" : 2,
     "name" : "android::hardware::graphics::common::V1_0::ColorMode::STANDARD_BT601_625_UNADJUSTED"
    },
    {
     "enum_field_value" : 3,
     "name" : "android::hardware::graphics::common::V1_0::ColorMode::STANDARD_BT601_525"
    },
    {
     "enum_field_value" : 4,
     "name" : "android::hardware::graphics::common::V1_0::ColorMode::STANDARD_BT601_525_UNADJUSTED"
    },
    {
     "enum_field_value" : 5,
     "name" : "android::hardware::graphics::common::V1_0::ColorMode::STANDARD_BT709"
    },
    {
     "enum_field_value" : 6,
     "name" : "android::hardware::graphics::common::V1_0::ColorMode::DCI_P3"
    },
    {
     "enum_field_value" : 7,
     "name" : "android::hardware::graphics::common::V1_0::ColorMode::SRGB"
    },
    {
     "enum_field_value" : 8,
     "name" : "android::hardware::graphics::common::V1_0::ColorMode::ADOBE_RGB"
    },
    {
     "enum_field_value" : 9,
     "name" : "android::hardware::graphics::common::V1_0::ColorMode::DISPLAY_P3"
    }
   ],
   "linker_set_key" : "android::hardware::graphics::common::V1_0::ColorMode",
   "name" : "android::hardware::graphics::common::V1_0::ColorMode",
   "referenced_type" : "type-540",
   "self_type" : "type-540",
   "size" : 4,
   "source_file" : "/out/soong/.intermediates/hardware/interfaces/graphics/common/1.0/android.hardware.graphics.common@1.0_genc++_headers/gen/android/hardware/graphics/common/1.0/types.h",
   "underlying_type" : "type-4",
   "unique_id" : "_ZTSN7android8hardware8graphics6common4V1_09ColorModeE"
  },
  {
   "alignment" : 4,
   "enum_fields" :
   [
    {
     "enum_field_value" : 0,
     "name" : "android::hardware::graphics::common::V1_0::ColorTransform::IDENTITY"
    },
    {
     "enum_field_value" : 1,
     "name" : "android::hardware::graphics::common::V1_0::ColorTransform::ARBITRARY_MATRIX"
    },
    {
     "enum_field_value" : 2,
     "name" : "android::hardware::graphics::common::V1_0::ColorTransform::VALUE_INVERSE"
    },
    {
     "enum_field_value" : 3,
     "name" : "android::hardware::graphics::common::V1_0::ColorTransform::GRAYSCALE"
    },
    {
     "enum_field_value" : 4,
     "name" : "android::hardware::graphics::common::V1_0::ColorTransform::CORRECT_PROTANOPIA"
    },
    {
     "enum_field_value" : 5,
     "name" : "android::hardware::graphics::common::V1_0::ColorTransform::CORRECT_DEUTERANOPIA"
    },
    {
     "enum_field_value" : 6,
     "name" : "android::hardware::graphics::common::V1_0::ColorTransform::CORRECT_TRITANOPIA"
    }
   ],
   "linker_set_key" : "android::hardware::graphics::common::V1_0::ColorTransform",
   "name" : "android::hardware::graphics::common::V1_0::ColorTransform",
   "referenced_type" : "type-541",
   "self_type" : "type-541",
   "size" : 4,
   "source_file" : "/out/soong/.intermediates/hardware/interfaces/graphics/common/1.0/android.hardware.graphics.common@1.0_genc++_headers/gen/android/hardware/graphics/common/1.0/types.h",
   "underlying_type" : "type-4",
   "unique_id" : "_ZTSN7android8hardware8graphics6common4V1_014ColorTransformE"
  },
  {
   "alignment" : 4,
   "enum_fields" :
   [
    {
     "enum_field_value" : 0,
     "name" : "android::hardware::graphics::common::V1_0::Dataspace::UNKNOWN"
    },
    {
     "enum_field_value" : 1,
     "name" : "android::hardware::graphics::common::V1_0::Dataspace::ARBITRARY"
    },
    {
     "enum_field_value" : 16,
     "name" : "android::hardware::graphics::common::V1_0::Dataspace::STANDARD_SHIFT"
    },
    {
     "enum_field_value" : 4128768,
     "name" : "android::hardware::graphics::common::V1_0::Dataspace::STANDARD_MASK"
    },
    {
     "enum_field_value" : 0,
     "name" : "android::hardware::graphics::common::V1_0::Dataspace::STANDARD_UNSPECIFIED"
    },
    {
     "enum_field_value" : 65536,
     "name" : "android::hardware::graphics::common::V1_0::Dataspace::STANDARD_BT709"
    },
    {
     "enum_field_value" : 131072,
     "name" : "android::hardware::graphics::common::V1_0::Dataspace::STANDARD_BT601_625"
    },
    {
     "enum_field_value" : 196608,
     "name" : "android::hardware::graphics::common::V1_0::Dataspace::STANDARD_BT601_625_UNADJUSTED"
    },
    {
     "enum_field_value" : 262144,
     "name" : "android::hardware::graphics::common::V1_0::Dataspace::STANDARD_BT601_525"
    },
    {
     "enum_field_value" : 327680,
     "name" : "android::hardware::graphics::common::V1_0::Dataspace::STANDARD_BT601_525_UNADJUSTED"
    },
    {
     "enum_field_value" : 393216,
     "name" : "android::hardware::graphics::common::V1_0::Dataspace::STANDARD_BT2020"
    },
    {
     "enum_field_value" : 458752,
     "name" : "android::hardware::graphics::common::V1_0::Dataspace::STANDARD_BT2020_CONSTANT_LUMINANCE"
    },
    {
     "enum_field_value" : 524288,
     "name" : "android::hardware::graphics::common::V1_0::Dataspace::STANDARD_BT470M"
    },
    {
     "enum_field_value" : 589824,
     "name" : "android::hardware::graphics::common::V1_0::Dataspace::STANDARD_FILM"
    },
    {
     "enum_field_value" : 655360,
     "name" : "android::hardware::graphics::common::V1_0::Dataspace::STANDARD_DCI_P3"
    },
    {
     "enum_field_value" : 720896,
     "name" : "android::hardware::graphics::common::V1_0::Dataspace::STANDARD_ADOBE_RGB"
    },
    {
     "enum_field_value" : 22,
     "name" : "android::hardware::graphics::common::V1_0::Dataspace::TRANSFER_SHIFT"
    },
    {
     "enum_field_value" : 130023424,
     "name" : "android::hardware::graphics::common::V1_0::Dataspace::TRANSFER_MASK"
    },
    {
     "enum_field_value" : 0,
     "name" : "android::hardware::graphics::common::V1_0::Dataspace::TRANSFER_UNSPECIFIED"
    },
    {
     "enum_field_value" : 4194304,
     "name" : "android::hardware::graphics::common::V1_0::Dataspace::TRANSFER_LINEAR"
    },
    {
     "enum_field_value" : 8388608,
     "name" : "android::hardware::graphics::common::V1_0::Dataspace::TRANSFER_SRGB"
    },
    {
     "enum_field_value" : 12582912,
     "name" : "android::hardware::graphics::common::V1_0::Dataspace::TRANSFER_SMPTE_170M"
    },
    {
     "enum_field_value" : 16777216,
     "name" : "android::hardware::graphics::common::V1_0::Dataspace::TRANSFER_GAMMA2_2"
    },
    {
     "enum_field_value" : 20971520,
     "name" : "android::hardware::graphics::common::V1_0::Dataspace::TRANSFER_GAMMA2_6"
    },
    {
     "enum_field_value" : 25165824,
     "name" : "android::hardware::graphics::common::V1_0::Dataspace::TRANSFER_GAMMA2_8"
    },
    {
     "enum_field_value" : 29360128,
     "name" : "android::hardware::graphics::common::V1_0::Dataspace::TRANSFER_ST2084"
    },
    {
     "enum_field_value" : 33554432,
     "name" : "android::hardware::graphics::common::V1_0::Dataspace::TRANSFER_HLG"
    },
    {
     "enum_field_value" : 27,
     "name" : "android::hardware::graphics::common::V1_0::Dataspace::RANGE_SHIFT"
    },
    {
     "enum_field_value" : 939524096,
     "name" : "android::hardware::graphics::common::V1_0::Dataspace::RANGE_MASK"
    },
    {
     "enum_field_value" : 0,
     "name" : "android::hardware::graphics::common::V1_0::Dataspace::RANGE_UNSPECIFIED"
    },
    {
     "enum_field_value" : 134217728,
     "name" : "android::hardware::graphics::common::V1_0::Dataspace::RANGE_FULL"
    },
    {
     "enum_field_value" : 268435456,
     "name" : "android::hardware::graphics::common::V1_0::Dataspace::RANGE_LIMITED"
    },
    {
     "enum_field_value" : 402653184,
     "name" : "android::hardware::graphics::common::V1_0::Dataspace::RANGE_EXTENDED"
    },
    {
     "enum_field_value" : 512,
     "name" : "android::hardware::graphics::common::V1_0::Dataspace::SRGB_LINEAR"
    },
    {
     "enum_field_value" : 138477568,
     "name" : "android::hardware::graphics::common::V1_0::Dataspace::V0_SRGB_LINEAR"
    },
    {
     "enum_field_value" : 406913024,
     "name" : "android::hardware::graphics::common::V1_0::Dataspace::V0_SCRGB_LINEAR"
    },
    {
     "enum_field_value" : 513,
     "name" : "android::hardware::graphics::common::V1_0::Dataspace::SRGB"
    },
    {
     "enum_field_value" : 142671872,
     "name" : "android::hardware::graphics::common::V1_0::Dataspace::V0_SRGB"
    },
    {
     "enum_field_value" : 411107328,
     "name" : "android::hardware::graphics::common::V1_0::Dataspace::V0_SCRGB"
    },
    {
     "enum_field_value" : 257,
     "name" : "android::hardware::graphics::common::V1_0::Dataspace::JFIF"
    },
    {
     "enum_field_value" : 146931712,
     "name" : "android::hardware::graphics::common::V1_0::Dataspace::V0_JFIF"
    },
    {
     "enum_field_value" : 258,
     "name" : "android::hardware::graphics::common::V1_0::Dataspace::BT601_625"
    },
    {
     "enum_field_value" : 281149440,
     "name" : "android::hardware::graphics::common::V1_0::Dataspace::V0_BT601_625"
    },
    {
     "enum_field_value" : 259,
     "name" : "android::hardware::graphics::common::V1_0::Dataspace::BT601_525"
    },
    {
     "enum_field_value" : 281280512,
     "name" : "android::hardware::graphics::common::V1_0::Dataspace::V0_BT601_525"
    },
    {
     "enum_field_value" : 260,
     "name" : "android::hardware::graphics::common::V1_0::Dataspace::BT709"
    },
    {
     "enum_field_value" : 281083904,
     "name" : "android::hardware::graphics::common::V1_0::Dataspace::V0_BT709"
    },
    {
     "enum_field_value" : 139067392,
     "name" : "android::hardware::graphics::common::V1_0::Dataspace::DCI_P3_LINEAR"
    },
    {
     "enum_field_value" : 155844608,
     "name" : "android::hardware::graphics::common::V1_0::Dataspace::DCI_P3"
    },
    {
     "enum_field_value" : 139067392,
     "name" : "android::hardware::graphics::common::V1_0::Dataspace::DISPLAY_P3_LINEAR"
    },
    {
     "enum_field_value" : 143261696,
     "name" : "android::hardware::graphics::common::V1_0::Dataspace::DISPLAY_P3"
    },
    {
     "enum_field_value" : 151715840,
     "name" : "android::hardware::graphics::common::V1_0::Dataspace::ADOBE_RGB"
    },
    {
     "enum_field_value" : 138805248,
     "name" : "android::hardware::graphics::common::V1_0::Dataspace::BT2020_LINEAR"
    },
    {
     "enum_field_value" : 147193856,
     "name" : "android::hardware::graphics::common::V1_0::Dataspace::BT2020"
    },
    {
     "enum_field_value" : 163971072,
     "name" : "android::hardware::graphics::common::V1_0::Dataspace::BT2020_PQ"
    },
    {
     "enum_field_value" : 4096,
     "name" : "android::hardware::graphics::common::V1_0::Dataspace::DEPTH"
    },
    {
     "enum_field_value" : 4097,
     "name" : "android::hardware::graphics::common::V1_0::Dataspace::SENSOR"
    }
   ],
   "linker_set_key" : "android::hardware::graphics::common::V1_0::Dataspace",
   "name" : "android::hardware::graphics::common::V1_0::Dataspace",
   "referenced_type" : "type-539",
   "self_type" : "type-539",
   "size" : 4,
   "source_file" : "/out/soong/.intermediates/hardware/interfaces/graphics/common/1.0/android.hardware.graphics.common@1.0_genc++_headers/gen/android/hardware/graphics/common/1.0/types.h",
   "underlying_type" : "type-4",
   "unique_id" : "_ZTSN7android8hardware8graphics6common4V1_09DataspaceE"
  },
  {
   "alignment" : 4,
   "enum_fields" :
   [
    {
     "enum_field_value" : 1,
     "name" : "android::hardware::graphics::common::V1_0::Hdr::DOLBY_VISION"
    },
    {
     "enum_field_value" : 2,
     "name" : "android::hardware::graphics::common::V1_0::Hdr::HDR10"
    },
    {
     "enum_field_value" : 3,
     "name" : "android::hardware::graphics::common::V1_0::Hdr::HLG"
    }
   ],
   "linker_set_key" : "android::hardware::graphics::common::V1_0::Hdr",
   "name" : "android::hardware::graphics::common::V1_0::Hdr",
   "referenced_type" : "type-542",
   "self_type" : "type-542",
   "size" : 4,
   "source_file" : "/out/soong/.intermediates/hardware/interfaces/graphics/common/1.0/android.hardware.graphics.common@1.0_genc++_headers/gen/android/hardware/graphics/common/1.0/types.h",
   "underlying_type" : "type-4",
   "unique_id" : "_ZTSN7android8hardware8graphics6common4V1_03HdrE"
  },
  {
   "alignment" : 4,
   "enum_fields" :
   [
    {
     "enum_field_value" : 1,
     "name" : "android::hardware::graphics::common::V1_0::PixelFormat::RGBA_8888"
    },
    {
     "enum_field_value" : 2,
     "name" : "android::hardware::graphics::common::V1_0::PixelFormat::RGBX_8888"
    },
    {
     "enum_field_value" : 3,
     "name" : "android::hardware::graphics::common::V1_0::PixelFormat::RGB_888"
    },
    {
     "enum_field_value" : 4,
     "name" : "android::hardware::graphics::common::V1_0::PixelFormat::RGB_565"
    },
    {
     "enum_field_value" : 5,
     "name" : "android::hardware::graphics::common::V1_0::PixelFormat::BGRA_8888"
    },
    {
     "enum_field_value" : 16,
     "name" : "android::hardware::graphics::common::V1_0::PixelFormat::YCBCR_422_SP"
    },
    {
     "enum_field_value" : 17,
     "name" : "android::hardware::graphics::common::V1_0::PixelFormat::YCRCB_420_SP"
    },
    {
     "enum_field_value" : 20,
     "name" : "android::hardware::graphics::common::V1_0::PixelFormat::YCBCR_422_I"
    },
    {
     "enum_field_value" : 22,
     "name" : "android::hardware::graphics::common::V1_0::PixelFormat::RGBA_FP16"
    },
    {
     "enum_field_value" : 32,
     "name" : "android::hardware::graphics::common::V1_0::PixelFormat::RAW16"
    },
    {
     "enum_field_value" : 33,
     "name" : "android::hardware::graphics::common::V1_0::PixelFormat::BLOB"
    },
    {
     "enum_field_value" : 34,
     "name" : "android::hardware::graphics::common::V1_0::PixelFormat::IMPLEMENTATION_DEFINED"
    },
    {
     "enum_field_value" : 35,
     "name" : "android::hardware::graphics::common::V1_0::PixelFormat::YCBCR_420_888"
    },
    {
     "enum_field_value" : 36,
     "name" : "android::hardware::graphics::common::V1_0::PixelFormat::RAW_OPAQUE"
    },
    {
     "enum_field_value" : 37,
     "name" : "android::hardware::graphics::common::V1_0::PixelFormat::RAW10"
    },
    {
     "enum_field_value" : 38,
     "name" : "android::hardware::graphics::common::V1_0::PixelFormat::RAW12"
    },
    {
     "enum_field_value" : 43,
     "name" : "android::hardware::graphics::common::V1_0::PixelFormat::RGBA_1010102"
    },
    {
     "enum_field_value" : 538982489,
     "name" : "android::hardware::graphics::common::V1_0::PixelFormat::Y8"
    },
    {
     "enum_field_value" : 540422489,
     "name" : "android::hardware::graphics::common::V1_0::PixelFormat::Y16"
    },
    {
     "enum_field_value" : 842094169,
     "name" : "android::hardware::graphics::common::V1_0::PixelFormat::YV12"
    }
   ],
   "linker_set_key" : "android::hardware::graphics::common::V1_0::PixelFormat",
   "name" : "android::hardware::graphics::common::V1_0::PixelFormat",
   "referenced_type" : "type-536",
   "self_type" : "type-536",
   "size" : 4,
   "source_file" : "/out/soong/.intermediates/hardware/interfaces/graphics/common/1.0/android.hardware.graphics.common@1.0_genc++_headers/gen/android/hardware/graphics/common/1.0/types.h",
   "underlying_type" : "type-4",
   "unique_id" : "_ZTSN7android8hardware8graphics6common4V1_011PixelFormatE"
  },
  {
   "alignment" : 4,
   "enum_fields" :
   [
    {
     "enum_field_value" : 1,
     "name" : "android::hardware::graphics::common::V1_0::Transform::FLIP_H"
    },
    {
     "enum_field_value" : 2,
     "name" : "android::hardware::graphics::common::V1_0::Transform::FLIP_V"
    },
    {
     "enum_field_value" : 4,
     "name" : "android::hardware::graphics::common::V1_0::Transform::ROT_90"
    },
    {
     "enum_field_value" : 3,
     "name" : "android::hardware::graphics::common::V1_0::Transform::ROT_180"
    },
    {
     "enum_field_value" : 7,
     "name" : "android::hardware::graphics::common::V1_0::Transform::ROT_270"
    }
   ],
   "linker_set_key" : "android::hardware::graphics::common::V1_0::Transform",
   "name" : "android::hardware::graphics::common::V1_0::Transform",
   "referenced_type" : "type-538",
   "self_type" : "type-538",
   "size" : 4,
   "source_file" : "/out/soong/.intermediates/hardware/interfaces/graphics/common/1.0/android.hardware.graphics.common@1.0_genc++_headers/gen/android/hardware/graphics/common/1.0/types.h",
   "underlying_type" : "type-4",
   "unique_id" : "_ZTSN7android8hardware8graphics6common4V1_09TransformE"
  },
  {
   "alignment" : 8,
   "enum_fields" :
   [
    {
     "enum_field_value" : 15,
     "name" : "android::hardware::graphics::common::V1_1::BufferUsage::CPU_READ_MASK"
    },
    {
     "enum_field_value" : 0,
     "name" : "android::hardware::graphics::common::V1_1::BufferUsage::CPU_READ_NEVER"
    },
    {
     "enum_field_value" : 2,
     "name" : "android::hardware::graphics::common::V1_1::BufferUsage::CPU_READ_RARELY"
    },
    {
     "enum_field_value" : 3,
     "name" : "android::hardware::graphics::common::V1_1::BufferUsage::CPU_READ_OFTEN"
    },
    {
     "enum_field_value" : 240,
     "name" : "android::hardware::graphics::common::V1_1::BufferUsage::CPU_WRITE_MASK"
    },
    {
     "enum_field_value" : 0,
     "name" : "android::hardware::graphics::common::V1_1::BufferUsage::CPU_WRITE_NEVER"
    },
    {
     "enum_field_value" : 32,
     "name" : "android::hardware::graphics::common::V1_1::BufferUsage::CPU_WRITE_RARELY"
    },
    {
     "enum_field_value" : 48,
     "name" : "android::hardware::graphics::common::V1_1::BufferUsage::CPU_WRITE_OFTEN"
    },
    {
     "enum_field_value" : 256,
     "name" : "android::hardware::graphics::common::V1_1::BufferUsage::GPU_TEXTURE"
    },
    {
     "enum_field_value" : 512,
     "name" : "android::hardware::graphics::common::V1_1::BufferUsage::GPU_RENDER_TARGET"
    },
    {
     "enum_field_value" : 2048,
     "name" : "android::hardware::graphics::common::V1_1::BufferUsage::COMPOSER_OVERLAY"
    },
    {
     "enum_field_value" : 4096,
     "name" : "android::hardware::graphics::common::V1_1::BufferUsage::COMPOSER_CLIENT_TARGET"
    },
    {
     "enum_field_value" : 16384,
     "name" : "android::hardware::graphics::common::V1_1::BufferUsage::PROTECTED"
    },
    {
     "enum_field_value" : 32768,
     "name" : "android::hardware::graphics::common::V1_1::BufferUsage::COMPOSER_CURSOR"
    },
    {
     "enum_field_value" : 65536,
     "name" : "android::hardware::graphics::common::V1_1::BufferUsage::VIDEO_ENCODER"
    },
    {
     "enum_field_value" : 131072,
     "name" : "android::hardware::graphics::common::V1_1::BufferUsage::CAMERA_OUTPUT"
    },
    {
     "enum_field_value" : 262144,
     "name" : "android::hardware::graphics::common::V1_1::BufferUsage::CAMERA_INPUT"
    },
    {
     "enum_field_value" : 1048576,
     "name" : "android::hardware::graphics::common::V1_1::BufferUsage::RENDERSCRIPT"
    },
    {
     "enum_field_value" : 4194304,
     "name" : "android::hardware::graphics::common::V1_1::BufferUsage::VIDEO_DECODER"
    },
    {
     "enum_field_value" : 8388608,
     "name" : "android::hardware::graphics::common::V1_1::BufferUsage::SENSOR_DIRECT_DATA"
    },
    {
     "enum_field_value" : 16777216,
     "name" : "android::hardware::graphics::common::V1_1::BufferUsage::GPU_DATA_BUFFER"
    },
    {
     "enum_field_value" : -268435456,
     "name" : "android::hardware::graphics::common::V1_1::BufferUsage::VENDOR_MASK"
    },
    {
     "enum_field_value" : 0,
     "name" : "android::hardware::graphics::common::V1_1::BufferUsage::VENDOR_MASK_HI"
    },
    {
     "enum_field_value" : 33554432,
     "name" : "android::hardware::graphics::common::V1_1::BufferUsage::GPU_CUBE_MAP"
    },
    {
     "enum_field_value" : 67108864,
     "name" : "android::hardware::graphics::common::V1_1::BufferUsage::GPU_MIPMAP_COMPLETE"
    }
   ],
   "linker_set_key" : "android::hardware::graphics::common::V1_1::BufferUsage",
   "name" : "android::hardware::graphics::common::V1_1::BufferUsage",
   "referenced_type" : "type-620",
   "self_type" : "type-620",
   "size" : 8,
   "source_file" : "/out/soong/.intermediates/hardware/interfaces/graphics/common/1.1/android.hardware.graphics.common@1.1_genc++_headers/gen/android/hardware/graphics/common/1.1/types.h",
   "underlying_type" : "type-11",
   "unique_id" : "_ZTSN7android8hardware8graphics6common4V1_111BufferUsageE"
  },
  {
   "alignment" : 4,
   "enum_fields" :
   [
    {
     "enum_field_value" : 0,
     "name" : "android::hardware::graphics::common::V1_1::ColorMode::NATIVE"
    },
    {
     "enum_field_value" : 1,
     "name" : "android::hardware::graphics::common::V1_1::ColorMode::STANDARD_BT601_625"
    },
    {
     "enum_field_value" : 2,
     "name" : "android::hardware::graphics::common::V1_1::ColorMode::STANDARD_BT601_625_UNADJUSTED"
    },
    {
     "enum_field_value" : 3,
     "name" : "android::hardware::graphics::common::V1_1::ColorMode::STANDARD_BT601_525"
    },
    {
     "enum_field_value" : 4,
     "name" : "android::hardware::graphics::common::V1_1::ColorMode::STANDARD_BT601_525_UNADJUSTED"
    },
    {
     "enum_field_value" : 5,
     "name" : "android::hardware::graphics::common::V1_1::ColorMode::STANDARD_BT709"
    },
    {
     "enum_field_value" : 6,
     "name" : "android::hardware::graphics::common::V1_1::ColorMode::DCI_P3"
    },
    {
     "enum_field_value" : 7,
     "name" : "android::hardware::graphics::common::V1_1::ColorMode::SRGB"
    },
    {
     "enum_field_value" : 8,
     "name" : "android::hardware::graphics::common::V1_1::ColorMode::ADOBE_RGB"
    },
    {
     "enum_field_value" : 9,
     "name" : "android::hardware::graphics::common::V1_1::ColorMode::DISPLAY_P3"
    },
    {
     "enum_field_value" : 10,
     "name" : "android::hardware::graphics::common::V1_1::ColorMode::BT2020"
    },
    {
     "enum_field_value" : 11,
     "name" : "android::hardware::graphics::common::V1_1::ColorMode::BT2100_PQ"
    },
    {
     "enum_field_value" : 12,
     "name" : "android::hardware::graphics::common::V1_1::ColorMode::BT2100_HLG"
    }
   ],
   "linker_set_key" : "android::hardware::graphics::common::V1_1::ColorMode",
   "name" : "android::hardware::graphics::common::V1_1::ColorMode",
   "referenced_type" : "type-630",
   "self_type" : "type-630",
   "size" : 4,
   "source_file" : "/out/soong/.intermediates/hardware/interfaces/graphics/common/1.1/android.hardware.graphics.common@1.1_genc++_headers/gen/android/hardware/graphics/common/1.1/types.h",
   "underlying_type" : "type-4",
   "unique_id" : "_ZTSN7android8hardware8graphics6common4V1_19ColorModeE"
  },
  {
   "alignment" : 4,
   "enum_fields" :
   [
    {
     "enum_field_value" : 0,
     "name" : "android::hardware::graphics::common::V1_1::Dataspace::UNKNOWN"
    },
    {
     "enum_field_value" : 1,
     "name" : "android::hardware::graphics::common::V1_1::Dataspace::ARBITRARY"
    },
    {
     "enum_field_value" : 16,
     "name" : "android::hardware::graphics::common::V1_1::Dataspace::STANDARD_SHIFT"
    },
    {
     "enum_field_value" : 4128768,
     "name" : "android::hardware::graphics::common::V1_1::Dataspace::STANDARD_MASK"
    },
    {
     "enum_field_value" : 0,
     "name" : "android::hardware::graphics::common::V1_1::Dataspace::STANDARD_UNSPECIFIED"
    },
    {
     "enum_field_value" : 65536,
     "name" : "android::hardware::graphics::common::V1_1::Dataspace::STANDARD_BT709"
    },
    {
     "enum_field_value" : 131072,
     "name" : "android::hardware::graphics::common::V1_1::Dataspace::STANDARD_BT601_625"
    },
    {
     "enum_field_value" : 196608,
     "name" : "android::hardware::graphics::common::V1_1::Dataspace::STANDARD_BT601_625_UNADJUSTED"
    },
    {
     "enum_field_value" : 262144,
     "name" : "android::hardware::graphics::common::V1_1::Dataspace::STANDARD_BT601_525"
    },
    {
     "enum_field_value" : 327680,
     "name" : "android::hardware::graphics::common::V1_1::Dataspace::STANDARD_BT601_525_UNADJUSTED"
    },
    {
     "enum_field_value" : 393216,
     "name" : "android::hardware::graphics::common::V1_1::Dataspace::STANDARD_BT2020"
    },
    {
     "enum_field_value" : 458752,
     "name" : "android::hardware::graphics::common::V1_1::Dataspace::STANDARD_BT2020_CONSTANT_LUMINANCE"
    },
    {
     "enum_field_value" : 524288,
     "name" : "android::hardware::graphics::common::V1_1::Dataspace::STANDARD_BT470M"
    },
    {
     "enum_field_value" : 589824,
     "name" : "android::hardware::graphics::common::V1_1::Dataspace::STANDARD_FILM"
    },
    {
     "enum_field_value" : 655360,
     "name" : "android::hardware::graphics::common::V1_1::Dataspace::STANDARD_DCI_P3"
    },
    {
     "enum_field_value" : 720896,
     "name" : "android::hardware::graphics::common::V1_1::Dataspace::STANDARD_ADOBE_RGB"
    },
    {
     "enum_field_value" : 22,
     "name" : "android::hardware::graphics::common::V1_1::Dataspace::TRANSFER_SHIFT"
    },
    {
     "enum_field_value" : 130023424,
     "name" : "android::hardware::graphics::common::V1_1::Dataspace::TRANSFER_MASK"
    },
    {
     "enum_field_value" : 0,
     "name" : "android::hardware::graphics::common::V1_1::Dataspace::TRANSFER_UNSPECIFIED"
    },
    {
     "enum_field_value" : 4194304,
     "name" : "android::hardware::graphics::common::V1_1::Dataspace::TRANSFER_LINEAR"
    },
    {
     "enum_field_value" : 8388608,
     "name" : "android::hardware::graphics::common::V1_1::Dataspace::TRANSFER_SRGB"
    },
    {
     "enum_field_value" : 12582912,
     "name" : "android::hardware::graphics::common::V1_1::Dataspace::TRANSFER_SMPTE_170M"
    },
    {
     "enum_field_value" : 16777216,
     "name" : "android::hardware::graphics::common::V1_1::Dataspace::TRANSFER_GAMMA2_2"
    },
    {
     "enum_field_value" : 20971520,
     "name" : "android::hardware::graphics::common::V1_1::Dataspace::TRANSFER_GAMMA2_6"
    },
    {
     "enum_field_value" : 25165824,
     "name" : "android::hardware::graphics::common::V1_1::Dataspace::TRANSFER_GAMMA2_8"
    },
    {
     "enum_field_value" : 29360128,
     "name" : "android::hardware::graphics::common::V1_1::Dataspace::TRANSFER_ST2084"
    },
    {
     "enum_field_value" : 33554432,
     "name" : "android::hardware::graphics::common::V1_1::Dataspace::TRANSFER_HLG"
    },
    {
     "enum_field_value" : 27,
     "name" : "android::hardware::graphics::common::V1_1::Dataspace::RANGE_SHIFT"
    },
    {
     "enum_field_value" : 939524096,
     "name" : "android::hardware::graphics::common::V1_1::Dataspace::RANGE_MASK"
    },
    {
     "enum_field_value" : 0,
     "name" : "android::hardware::graphics::common::V1_1::Dataspace::RANGE_UNSPECIFIED"
    },
    {
     "enum_field_value" : 134217728,
     "name" : "android::hardware::graphics::common::V1_1::Dataspace::RANGE_FULL"
    },
    {
     "enum_field_value" : 268435456,
     "name" : "android::hardware::graphics::common::V1_1::Dataspace::RANGE_LIMITED"
    },
    {
     "enum_field_value" : 402653184,
     "name" : "android::hardware::graphics::common::V1_1::Dataspace::RANGE_EXTENDED"
    },
    {
     "enum_field_value" : 512,
     "name" : "android::hardware::graphics::common::V1_1::Dataspace::SRGB_LINEAR"
    },
    {
     "enum_field_value" : 138477568,
     "name" : "android::hardware::graphics::common::V1_1::Dataspace::V0_SRGB_LINEAR"
    },
    {
     "enum_field_value" : 406913024,
     "name" : "android::hardware::graphics::common::V1_1::Dataspace::V0_SCRGB_LINEAR"
    },
    {
     "enum_field_value" : 513,
     "name" : "android::hardware::graphics::common::V1_1::Dataspace::SRGB"
    },
    {
     "enum_field_value" : 142671872,
     "name" : "android::hardware::graphics::common::V1_1::Dataspace::V0_SRGB"
    },
    {
     "enum_field_value" : 411107328,
     "name" : "android::hardware::graphics::common::V1_1::Dataspace::V0_SCRGB"
    },
    {
     "enum_field_value" : 257,
     "name" : "android::hardware::graphics::common::V1_1::Dataspace::JFIF"
    },
    {
     "enum_field_value" : 146931712,
     "name" : "android::hardware::graphics::common::V1_1::Dataspace::V0_JFIF"
    },
    {
     "enum_field_value" : 258,
     "name" : "android::hardware::graphics::common::V1_1::Dataspace::BT601_625"
    },
    {
     "enum_field_value" : 281149440,
     "name" : "android::hardware::graphics::common::V1_1::Dataspace::V0_BT601_625"
    },
    {
     "enum_field_value" : 259,
     "name" : "android::hardware::graphics::common::V1_1::Dataspace::BT601_525"
    },
    {
     "enum_field_value" : 281280512,
     "name" : "android::hardware::graphics::common::V1_1::Dataspace::V0_BT601_525"
    },
    {
     "enum_field_value" : 260,
     "name" : "android::hardware::graphics::common::V1_1::Dataspace::BT709"
    },
    {
     "enum_field_value" : 281083904,
     "name" : "android::hardware::graphics::common::V1_1::Dataspace::V0_BT709"
    },
    {
     "enum_field_value" : 139067392,
     "name" : "android::hardware::graphics::common::V1_1::Dataspace::DCI_P3_LINEAR"
    },
    {
     "enum_field_value" : 155844608,
     "name" : "android::hardware::graphics::common::V1_1::Dataspace::DCI_P3"
    },
    {
     "enum_field_value" : 139067392,
     "name" : "android::hardware::graphics::common::V1_1::Dataspace::DISPLAY_P3_LINEAR"
    },
    {
     "enum_field_value" : 143261696,
     "name" : "android::hardware::graphics::common::V1_1::Dataspace::DISPLAY_P3"
    },
    {
     "enum_field_value" : 151715840,
     "name" : "android::hardware::graphics::common::V1_1::Dataspace::ADOBE_RGB"
    },
    {
     "enum_field_value" : 138805248,
     "name" : "android::hardware::graphics::common::V1_1::Dataspace::BT2020_LINEAR"
    },
    {
     "enum_field_value" : 147193856,
     "name" : "android::hardware::graphics::common::V1_1::Dataspace::BT2020"
    },
    {
     "enum_field_value" : 163971072,
     "name" : "android::hardware::graphics::common::V1_1::Dataspace::BT2020_PQ"
    },
    {
     "enum_field_value" : 4096,
     "name" : "android::hardware::graphics::common::V1_1::Dataspace::DEPTH"
    },
    {
     "enum_field_value" : 4097,
     "name" : "android::hardware::graphics::common::V1_1::Dataspace::SENSOR"
    },
    {
     "enum_field_value" : 281411584,
     "name" : "android::hardware::graphics::common::V1_1::Dataspace::BT2020_ITU"
    },
    {
     "enum_field_value" : 298188800,
     "name" : "android::hardware::graphics::common::V1_1::Dataspace::BT2020_ITU_PQ"
    },
    {
     "enum_field_value" : 302383104,
     "name" : "android::hardware::graphics::common::V1_1::Dataspace::BT2020_ITU_HLG"
    },
    {
     "enum_field_value" : 168165376,
     "name" : "android::hardware::graphics::common::V1_1::Dataspace::BT2020_HLG"
    }
   ],
   "linker_set_key" : "android::hardware::graphics::common::V1_1::Dataspace",
   "name" : "android::hardware::graphics::common::V1_1::Dataspace",
   "referenced_type" : "type-621",
   "self_type" : "type-621",
   "size" : 4,
   "source_file" : "/out/soong/.intermediates/hardware/interfaces/graphics/common/1.1/android.hardware.graphics.common@1.1_genc++_headers/gen/android/hardware/graphics/common/1.1/types.h",
   "underlying_type" : "type-4",
   "unique_id" : "_ZTSN7android8hardware8graphics6common4V1_19DataspaceE"
  },
  {
   "alignment" : 4,
   "enum_fields" :
   [
    {
     "enum_field_value" : 1,
     "name" : "android::hardware::graphics::common::V1_1::PixelFormat::RGBA_8888"
    },
    {
     "enum_field_value" : 2,
     "name" : "android::hardware::graphics::common::V1_1::PixelFormat::RGBX_8888"
    },
    {
     "enum_field_value" : 3,
     "name" : "android::hardware::graphics::common::V1_1::PixelFormat::RGB_888"
    },
    {
     "enum_field_value" : 4,
     "name" : "android::hardware::graphics::common::V1_1::PixelFormat::RGB_565"
    },
    {
     "enum_field_value" : 5,
     "name" : "android::hardware::graphics::common::V1_1::PixelFormat::BGRA_8888"
    },
    {
     "enum_field_value" : 16,
     "name" : "android::hardware::graphics::common::V1_1::PixelFormat::YCBCR_422_SP"
    },
    {
     "enum_field_value" : 17,
     "name" : "android::hardware::graphics::common::V1_1::PixelFormat::YCRCB_420_SP"
    },
    {
     "enum_field_value" : 20,
     "name" : "android::hardware::graphics::common::V1_1::PixelFormat::YCBCR_422_I"
    },
    {
     "enum_field_value" : 22,
     "name" : "android::hardware::graphics::common::V1_1::PixelFormat::RGBA_FP16"
    },
    {
     "enum_field_value" : 32,
     "name" : "android::hardware::graphics::common::V1_1::PixelFormat::RAW16"
    },
    {
     "enum_field_value" : 33,
     "name" : "android::hardware::graphics::common::V1_1::PixelFormat::BLOB"
    },
    {
     "enum_field_value" : 34,
     "name" : "android::hardware::graphics::common::V1_1::PixelFormat::IMPLEMENTATION_DEFINED"
    },
    {
     "enum_field_value" : 35,
     "name" : "android::hardware::graphics::common::V1_1::PixelFormat::YCBCR_420_888"
    },
    {
     "enum_field_value" : 36,
     "name" : "android::hardware::graphics::common::V1_1::PixelFormat::RAW_OPAQUE"
    },
    {
     "enum_field_value" : 37,
     "name" : "android::hardware::graphics::common::V1_1::PixelFormat::RAW10"
    },
    {
     "enum_field_value" : 38,
     "name" : "android::hardware::graphics::common::V1_1::PixelFormat::RAW12"
    },
    {
     "enum_field_value" : 43,
     "name" : "android::hardware::graphics::common::V1_1::PixelFormat::RGBA_1010102"
    },
    {
     "enum_field_value" : 538982489,
     "name" : "android::hardware::graphics::common::V1_1::PixelFormat::Y8"
    },
    {
     "enum_field_value" : 540422489,
     "name" : "android::hardware::graphics::common::V1_1::PixelFormat::Y16"
    },
    {
     "enum_field_value" : 842094169,
     "name" : "android::hardware::graphics::common::V1_1::PixelFormat::YV12"
    },
    {
     "enum_field_value" : 48,
     "name" : "android::hardware::graphics::common::V1_1::PixelFormat::DEPTH_16"
    },
    {
     "enum_field_value" : 49,
     "name" : "android::hardware::graphics::common::V1_1::PixelFormat::DEPTH_24"
    },
    {
     "enum_field_value" : 50,
     "name" : "android::hardware::graphics::common::V1_1::PixelFormat::DEPTH_24_STENCIL_8"
    },
    {
     "enum_field_value" : 51,
     "name" : "android::hardware::graphics::common::V1_1::PixelFormat::DEPTH_32F"
    },
    {
     "enum_field_value" : 52,
     "name" : "android::hardware::graphics::common::V1_1::PixelFormat::DEPTH_32F_STENCIL_8"
    },
    {
     "enum_field_value" : 53,
     "name" : "android::hardware::graphics::common::V1_1::PixelFormat::STENCIL_8"
    },
    {
     "enum_field_value" : 54,
     "name" : "android::hardware::graphics::common::V1_1::PixelFormat::YCBCR_P010"
    }
   ],
   "linker_set_key" : "android::hardware::graphics::common::V1_1::PixelFormat",
   "name" : "android::hardware::graphics::common::V1_1::PixelFormat",
   "referenced_type" : "type-619",
   "self_type" : "type-619",
   "size" : 4,
   "source_file" : "/out/soong/.intermediates/hardware/interfaces/graphics/common/1.1/android.hardware.graphics.common@1.1_genc++_headers/gen/android/hardware/graphics/common/1.1/types.h",
   "underlying_type" : "type-4",
   "unique_id" : "_ZTSN7android8hardware8graphics6common4V1_111PixelFormatE"
  },
  {
   "alignment" : 4,
   "enum_fields" :
   [
    {
     "enum_field_value" : 0,
     "name" : "android::hardware::graphics::common::V1_1::RenderIntent::COLORIMETRIC"
    },
    {
     "enum_field_value" : 1,
     "name" : "android::hardware::graphics::common::V1_1::RenderIntent::ENHANCE"
    },
    {
     "enum_field_value" : 2,
     "name" : "android::hardware::graphics::common::V1_1::RenderIntent::TONE_MAP_COLORIMETRIC"
    },
    {
     "enum_field_value" : 3,
     "name" : "android::hardware::graphics::common::V1_1::RenderIntent::TONE_MAP_ENHANCE"
    }
   ],
   "linker_set_key" : "android::hardware::graphics::common::V1_1::RenderIntent",
   "name" : "android::hardware::graphics::common::V1_1::RenderIntent",
   "referenced_type" : "type-631",
   "self_type" : "type-631",
   "size" : 4,
   "source_file" : "/out/soong/.intermediates/hardware/interfaces/graphics/common/1.1/android.hardware.graphics.common@1.1_genc++_headers/gen/android/hardware/graphics/common/1.1/types.h",
   "underlying_type" : "type-4",
   "unique_id" : "_ZTSN7android8hardware8graphics6common4V1_112RenderIntentE"
  },
  {
   "alignment" : 8,
   "enum_fields" :
   [
    {
     "enum_field_value" : 15,
     "name" : "android::hardware::graphics::common::V1_2::BufferUsage::CPU_READ_MASK"
    },
    {
     "enum_field_value" : 0,
     "name" : "android::hardware::graphics::common::V1_2::BufferUsage::CPU_READ_NEVER"
    },
    {
     "enum_field_value" : 2,
     "name" : "android::hardware::graphics::common::V1_2::BufferUsage::CPU_READ_RARELY"
    },
    {
     "enum_field_value" : 3,
     "name" : "android::hardware::graphics::common::V1_2::BufferUsage::CPU_READ_OFTEN"
    },
    {
     "enum_field_value" : 240,
     "name" : "android::hardware::graphics::common::V1_2::BufferUsage::CPU_WRITE_MASK"
    },
    {
     "enum_field_value" : 0,
     "name" : "android::hardware::graphics::common::V1_2::BufferUsage::CPU_WRITE_NEVER"
    },
    {
     "enum_field_value" : 32,
     "name" : "android::hardware::graphics::common::V1_2::BufferUsage::CPU_WRITE_RARELY"
    },
    {
     "enum_field_value" : 48,
     "name" : "android::hardware::graphics::common::V1_2::BufferUsage::CPU_WRITE_OFTEN"
    },
    {
     "enum_field_value" : 256,
     "name" : "android::hardware::graphics::common::V1_2::BufferUsage::GPU_TEXTURE"
    },
    {
     "enum_field_value" : 512,
     "name" : "android::hardware::graphics::common::V1_2::BufferUsage::GPU_RENDER_TARGET"
    },
    {
     "enum_field_value" : 2048,
     "name" : "android::hardware::graphics::common::V1_2::BufferUsage::COMPOSER_OVERLAY"
    },
    {
     "enum_field_value" : 4096,
     "name" : "android::hardware::graphics::common::V1_2::BufferUsage::COMPOSER_CLIENT_TARGET"
    },
    {
     "enum_field_value" : 16384,
     "name" : "android::hardware::graphics::common::V1_2::BufferUsage::PROTECTED"
    },
    {
     "enum_field_value" : 32768,
     "name" : "android::hardware::graphics::common::V1_2::BufferUsage::COMPOSER_CURSOR"
    },
    {
     "enum_field_value" : 65536,
     "name" : "android::hardware::graphics::common::V1_2::BufferUsage::VIDEO_ENCODER"
    },
    {
     "enum_field_value" : 131072,
     "name" : "android::hardware::graphics::common::V1_2::BufferUsage::CAMERA_OUTPUT"
    },
    {
     "enum_field_value" : 262144,
     "name" : "android::hardware::graphics::common::V1_2::BufferUsage::CAMERA_INPUT"
    },
    {
     "enum_field_value" : 1048576,
     "name" : "android::hardware::graphics::common::V1_2::BufferUsage::RENDERSCRIPT"
    },
    {
     "enum_field_value" : 4194304,
     "name" : "android::hardware::graphics::common::V1_2::BufferUsage::VIDEO_DECODER"
    },
    {
     "enum_field_value" : 8388608,
     "name" : "android::hardware::graphics::common::V1_2::BufferUsage::SENSOR_DIRECT_DATA"
    },
    {
     "enum_field_value" : 16777216,
     "name" : "android::hardware::graphics::common::V1_2::BufferUsage::GPU_DATA_BUFFER"
    },
    {
     "enum_field_value" : -268435456,
     "name" : "android::hardware::graphics::common::V1_2::BufferUsage::VENDOR_MASK"
    },
    {
     "enum_field_value" : 0,
     "name" : "android::hardware::graphics::common::V1_2::BufferUsage::VENDOR_MASK_HI"
    },
    {
     "enum_field_value" : 33554432,
     "name" : "android::hardware::graphics::common::V1_2::BufferUsage::GPU_CUBE_MAP"
    },
    {
     "enum_field_value" : 67108864,
     "name" : "android::hardware::graphics::common::V1_2::BufferUsage::GPU_MIPMAP_COMPLETE"
    },
    {
     "enum_field_value" : 134217728,
     "name" : "android::hardware::graphics::common::V1_2::BufferUsage::HW_IMAGE_ENCODER"
    }
   ],
   "linker_set_key" : "android::hardware::graphics::common::V1_2::BufferUsage",
   "name" : "android::hardware::graphics::common::V1_2::BufferUsage",
   "referenced_type" : "type-654",
   "self_type" : "type-654",
   "size" : 8,
   "source_file" : "/out/soong/.intermediates/hardware/interfaces/graphics/common/1.2/android.hardware.graphics.common@1.2_genc++_headers/gen/android/hardware/graphics/common/1.2/types.h",
   "underlying_type" : "type-11",
   "unique_id" : "_ZTSN7android8hardware8graphics6common4V1_211BufferUsageE"
  },
  {
   "alignment" : 4,
   "enum_fields" :
   [
    {
     "enum_field_value" : 0,
     "name" : "android::hardware::graphics::common::V1_2::ColorMode::NATIVE"
    },
    {
     "enum_field_value" : 1,
     "name" : "android::hardware::graphics::common::V1_2::ColorMode::STANDARD_BT601_625"
    },
    {
     "enum_field_value" : 2,
     "name" : "android::hardware::graphics::common::V1_2::ColorMode::STANDARD_BT601_625_UNADJUSTED"
    },
    {
     "enum_field_value" : 3,
     "name" : "android::hardware::graphics::common::V1_2::ColorMode::STANDARD_BT601_525"
    },
    {
     "enum_field_value" : 4,
     "name" : "android::hardware::graphics::common::V1_2::ColorMode::STANDARD_BT601_525_UNADJUSTED"
    },
    {
     "enum_field_value" : 5,
     "name" : "android::hardware::graphics::common::V1_2::ColorMode::STANDARD_BT709"
    },
    {
     "enum_field_value" : 6,
     "name" : "android::hardware::graphics::common::V1_2::ColorMode::DCI_P3"
    },
    {
     "enum_field_value" : 7,
     "name" : "android::hardware::graphics::common::V1_2::ColorMode::SRGB"
    },
    {
     "enum_field_value" : 8,
     "name" : "android::hardware::graphics::common::V1_2::ColorMode::ADOBE_RGB"
    },
    {
     "enum_field_value" : 9,
     "name" : "android::hardware::graphics::common::V1_2::ColorMode::DISPLAY_P3"
    },
    {
     "enum_field_value" : 10,
     "name" : "android::hardware::graphics::common::V1_2::ColorMode::BT2020"
    },
    {
     "enum_field_value" : 11,
     "name" : "android::hardware::graphics::common::V1_2::ColorMode::BT2100_PQ"
    },
    {
     "enum_field_value" : 12,
     "name" : "android::hardware::graphics::common::V1_2::ColorMode::BT2100_HLG"
    },
    {
     "enum_field_value" : 13,
     "name" : "android::hardware::graphics::common::V1_2::ColorMode::DISPLAY_BT2020"
    }
   ],
   "linker_set_key" : "android::hardware::graphics::common::V1_2::ColorMode",
   "name" : "android::hardware::graphics::common::V1_2::ColorMode",
   "referenced_type" : "type-653",
   "self_type" : "type-653",
   "size" : 4,
   "source_file" : "/out/soong/.intermediates/hardware/interfaces/graphics/common/1.2/android.hardware.graphics.common@1.2_genc++_headers/gen/android/hardware/graphics/common/1.2/types.h",
   "underlying_type" : "type-4",
   "unique_id" : "_ZTSN7android8hardware8graphics6common4V1_29ColorModeE"
  },
  {
   "alignment" : 4,
   "enum_fields" :
   [
    {
     "enum_field_value" : 0,
     "name" : "android::hardware::graphics::common::V1_2::Dataspace::UNKNOWN"
    },
    {
     "enum_field_value" : 1,
     "name" : "android::hardware::graphics::common::V1_2::Dataspace::ARBITRARY"
    },
    {
     "enum_field_value" : 16,
     "name" : "android::hardware::graphics::common::V1_2::Dataspace::STANDARD_SHIFT"
    },
    {
     "enum_field_value" : 4128768,
     "name" : "android::hardware::graphics::common::V1_2::Dataspace::STANDARD_MASK"
    },
    {
     "enum_field_value" : 0,
     "name" : "android::hardware::graphics::common::V1_2::Dataspace::STANDARD_UNSPECIFIED"
    },
    {
     "enum_field_value" : 65536,
     "name" : "android::hardware::graphics::common::V1_2::Dataspace::STANDARD_BT709"
    },
    {
     "enum_field_value" : 131072,
     "name" : "android::hardware::graphics::common::V1_2::Dataspace::STANDARD_BT601_625"
    },
    {
     "enum_field_value" : 196608,
     "name" : "android::hardware::graphics::common::V1_2::Dataspace::STANDARD_BT601_625_UNADJUSTED"
    },
    {
     "enum_field_value" : 262144,
     "name" : "android::hardware::graphics::common::V1_2::Dataspace::STANDARD_BT601_525"
    },
    {
     "enum_field_value" : 327680,
     "name" : "android::hardware::graphics::common::V1_2::Dataspace::STANDARD_BT601_525_UNADJUSTED"
    },
    {
     "enum_field_value" : 393216,
     "name" : "android::hardware::graphics::common::V1_2::Dataspace::STANDARD_BT2020"
    },
    {
     "enum_field_value" : 458752,
     "name" : "android::hardware::graphics::common::V1_2::Dataspace::STANDARD_BT2020_CONSTANT_LUMINANCE"
    },
    {
     "enum_field_value" : 524288,
     "name" : "android::hardware::graphics::common::V1_2::Dataspace::STANDARD_BT470M"
    },
    {
     "enum_field_value" : 589824,
     "name" : "android::hardware::graphics::common::V1_2::Dataspace::STANDARD_FILM"
    },
    {
     "enum_field_value" : 655360,
     "name" : "android::hardware::graphics::common::V1_2::Dataspace::STANDARD_DCI_P3"
    },
    {
     "enum_field_value" : 720896,
     "name" : "android::hardware::graphics::common::V1_2::Dataspace::STANDARD_ADOBE_RGB"
    },
    {
     "enum_field_value" : 22,
     "name" : "android::hardware::graphics::common::V1_2::Dataspace::TRANSFER_SHIFT"
    },
    {
     "enum_field_value" : 130023424,
     "name" : "android::hardware::graphics::common::V1_2::Dataspace::TRANSFER_MASK"
    },
    {
     "enum_field_value" : 0,
     "name" : "android::hardware::graphics::common::V1_2::Dataspace::TRANSFER_UNSPECIFIED"
    },
    {
     "enum_field_value" : 4194304,
     "name" : "android::hardware::graphics::common::V1_2::Dataspace::TRANSFER_LINEAR"
    },
    {
     "enum_field_value" : 8388608,
     "name" : "android::hardware::graphics::common::V1_2::Dataspace::TRANSFER_SRGB"
    },
    {
     "enum_field_value" : 12582912,
     "name" : "android::hardware::graphics::common::V1_2::Dataspace::TRANSFER_SMPTE_170M"
    },
    {
     "enum_field_value" : 16777216,
     "name" : "android::hardware::graphics::common::V1_2::Dataspace::TRANSFER_GAMMA2_2"
    },
    {
     "enum_field_value" : 20971520,
     "name" : "android::hardware::graphics::common::V1_2::Dataspace::TRANSFER_GAMMA2_6"
    },
    {
     "enum_field_value" : 25165824,
     "name" : "android::hardware::graphics::common::V1_2::Dataspace::TRANSFER_GAMMA2_8"
    },
    {
     "enum_field_value" : 29360128,
     "name" : "android::hardware::graphics::common::V1_2::Dataspace::TRANSFER_ST2084"
    },
    {
     "enum_field_value" : 33554432,
     "name" : "android::hardware::graphics::common::V1_2::Dataspace::TRANSFER_HLG"
    },
    {
     "enum_field_value" : 27,
     "name" : "android::hardware::graphics::common::V1_2::Dataspace::RANGE_SHIFT"
    },
    {
     "enum_field_value" : 939524096,
     "name" : "android::hardware::graphics::common::V1_2::Dataspace::RANGE_MASK"
    },
    {
     "enum_field_value" : 0,
     "name" : "android::hardware::graphics::common::V1_2::Dataspace::RANGE_UNSPECIFIED"
    },
    {
     "enum_field_value" : 134217728,
     "name" : "android::hardware::graphics::common::V1_2::Dataspace::RANGE_FULL"
    },
    {
     "enum_field_value" : 268435456,
     "name" : "android::hardware::graphics::common::V1_2::Dataspace::RANGE_LIMITED"
    },
    {
     "enum_field_value" : 402653184,
     "name" : "android::hardware::graphics::common::V1_2::Dataspace::RANGE_EXTENDED"
    },
    {
     "enum_field_value" : 512,
     "name" : "android::hardware::graphics::common::V1_2::Dataspace::SRGB_LINEAR"
    },
    {
     "enum_field_value" : 138477568,
     "name" : "android::hardware::graphics::common::V1_2::Dataspace::V0_SRGB_LINEAR"
    },
    {
     "enum_field_value" : 406913024,
     "name" : "android::hardware::graphics::common::V1_2::Dataspace::V0_SCRGB_LINEAR"
    },
    {
     "enum_field_value" : 513,
     "name" : "android::hardware::graphics::common::V1_2::Dataspace::SRGB"
    },
    {
     "enum_field_value" : 142671872,
     "name" : "android::hardware::graphics::common::V1_2::Dataspace::V0_SRGB"
    },
    {
     "enum_field_value" : 411107328,
     "name" : "android::hardware::graphics::common::V1_2::Dataspace::V0_SCRGB"
    },
    {
     "enum_field_value" : 257,
     "name" : "android::hardware::graphics::common::V1_2::Dataspace::JFIF"
    },
    {
     "enum_field_value" : 146931712,
     "name" : "android::hardware::graphics::common::V1_2::Dataspace::V0_JFIF"
    },
    {
     "enum_field_value" : 258,
     "name" : "android::hardware::graphics::common::V1_2::Dataspace::BT601_625"
    },
    {
     "enum_field_value" : 281149440,
     "name" : "android::hardware::graphics::common::V1_2::Dataspace::V0_BT601_625"
    },
    {
     "enum_field_value" : 259,
     "name" : "android::hardware::graphics::common::V1_2::Dataspace::BT601_525"
    },
    {
     "enum_field_value" : 281280512,
     "name" : "android::hardware::graphics::common::V1_2::Dataspace::V0_BT601_525"
    },
    {
     "enum_field_value" : 260,
     "name" : "android::hardware::graphics::common::V1_2::Dataspace::BT709"
    },
    {
     "enum_field_value" : 281083904,
     "name" : "android::hardware::graphics::common::V1_2::Dataspace::V0_BT709"
    },
    {
     "enum_field_value" : 139067392,
     "name" : "android::hardware::graphics::common::V1_2::Dataspace::DCI_P3_LINEAR"
    },
    {
     "enum_field_value" : 155844608,
     "name" : "android::hardware::graphics::common::V1_2::Dataspace::DCI_P3"
    },
    {
     "enum_field_value" : 139067392,
     "name" : "android::hardware::graphics::common::V1_2::Dataspace::DISPLAY_P3_LINEAR"
    },
    {
     "enum_field_value" : 143261696,
     "name" : "android::hardware::graphics::common::V1_2::Dataspace::DISPLAY_P3"
    },
    {
     "enum_field_value" : 151715840,
     "name" : "android::hardware::graphics::common::V1_2::Dataspace::ADOBE_RGB"
    },
    {
     "enum_field_value" : 138805248,
     "name" : "android::hardware::graphics::common::V1_2::Dataspace::BT2020_LINEAR"
    },
    {
     "enum_field_value" : 147193856,
     "name" : "android::hardware::graphics::common::V1_2::Dataspace::BT2020"
    },
    {
     "enum_field_value" : 163971072,
     "name" : "android::hardware::graphics::common::V1_2::Dataspace::BT2020_PQ"
    },
    {
     "enum_field_value" : 4096,
     "name" : "android::hardware::graphics::common::V1_2::Dataspace::DEPTH"
    },
    {
     "enum_field_value" : 4097,
     "name" : "android::hardware::graphics::common::V1_2::Dataspace::SENSOR"
    },
    {
     "enum_field_value" : 281411584,
     "name" : "android::hardware::graphics::common::V1_2::Dataspace::BT2020_ITU"
    },
    {
     "enum_field_value" : 298188800,
     "name" : "android::hardware::graphics::common::V1_2::Dataspace::BT2020_ITU_PQ"
    },
    {
     "enum_field_value" : 302383104,
     "name" : "android::hardware::graphics::common::V1_2::Dataspace::BT2020_ITU_HLG"
    },
    {
     "enum_field_value" : 168165376,
     "name" : "android::hardware::graphics::common::V1_2::Dataspace::BT2020_HLG"
    },
    {
     "enum_field_value" : 142999552,
     "name" : "android::hardware::graphics::common::V1_2::Dataspace::DISPLAY_BT2020"
    },
    {
     "enum_field_value" : 4098,
     "name" : "android::hardware::graphics::common::V1_2::Dataspace::DYNAMIC_DEPTH"
    },
    {
     "enum_field_value" : 4099,
     "name" : "android::hardware::graphics::common::V1_2::Dataspace::JPEG_APP_SEGMENTS"
    },
    {
     "enum_field_value" : 4100,
     "name" : "android::hardware::graphics::common::V1_2::Dataspace::HEIF"
    }
   ],
   "linker_set_key" : "android::hardware::graphics::common::V1_2::Dataspace",
   "name" : "android::hardware::graphics::common::V1_2::Dataspace",
   "referenced_type" : "type-652",
   "self_type" : "type-652",
   "size" : 4,
   "source_file" : "/out/soong/.intermediates/hardware/interfaces/graphics/common/1.2/android.hardware.graphics.common@1.2_genc++_headers/gen/android/hardware/graphics/common/1.2/types.h",
   "underlying_type" : "type-4",
   "unique_id" : "_ZTSN7android8hardware8graphics6common4V1_29DataspaceE"
  },
  {
   "alignment" : 4,
   "enum_fields" :
   [
    {
     "enum_field_value" : 1,
     "name" : "android::hardware::graphics::common::V1_2::Hdr::DOLBY_VISION"
    },
    {
     "enum_field_value" : 2,
     "name" : "android::hardware::graphics::common::V1_2::Hdr::HDR10"
    },
    {
     "enum_field_value" : 3,
     "name" : "android::hardware::graphics::common::V1_2::Hdr::HLG"
    },
    {
     "enum_field_value" : 4,
     "name" : "android::hardware::graphics::common::V1_2::Hdr::HDR10_PLUS"
    }
   ],
   "linker_set_key" : "android::hardware::graphics::common::V1_2::Hdr",
   "name" : "android::hardware::graphics::common::V1_2::Hdr",
   "referenced_type" : "type-651",
   "self_type" : "type-651",
   "size" : 4,
   "source_file" : "/out/soong/.intermediates/hardware/interfaces/graphics/common/1.2/android.hardware.graphics.common@1.2_genc++_headers/gen/android/hardware/graphics/common/1.2/types.h",
   "underlying_type" : "type-4",
   "unique_id" : "_ZTSN7android8hardware8graphics6common4V1_23HdrE"
  },
  {
   "alignment" : 4,
   "enum_fields" :
   [
    {
     "enum_field_value" : 1,
     "name" : "android::hardware::graphics::common::V1_2::PixelFormat::RGBA_8888"
    },
    {
     "enum_field_value" : 2,
     "name" : "android::hardware::graphics::common::V1_2::PixelFormat::RGBX_8888"
    },
    {
     "enum_field_value" : 3,
     "name" : "android::hardware::graphics::common::V1_2::PixelFormat::RGB_888"
    },
    {
     "enum_field_value" : 4,
     "name" : "android::hardware::graphics::common::V1_2::PixelFormat::RGB_565"
    },
    {
     "enum_field_value" : 5,
     "name" : "android::hardware::graphics::common::V1_2::PixelFormat::BGRA_8888"
    },
    {
     "enum_field_value" : 16,
     "name" : "android::hardware::graphics::common::V1_2::PixelFormat::YCBCR_422_SP"
    },
    {
     "enum_field_value" : 17,
     "name" : "android::hardware::graphics::common::V1_2::PixelFormat::YCRCB_420_SP"
    },
    {
     "enum_field_value" : 20,
     "name" : "android::hardware::graphics::common::V1_2::PixelFormat::YCBCR_422_I"
    },
    {
     "enum_field_value" : 22,
     "name" : "android::hardware::graphics::common::V1_2::PixelFormat::RGBA_FP16"
    },
    {
     "enum_field_value" : 32,
     "name" : "android::hardware::graphics::common::V1_2::PixelFormat::RAW16"
    },
    {
     "enum_field_value" : 33,
     "name" : "android::hardware::graphics::common::V1_2::PixelFormat::BLOB"
    },
    {
     "enum_field_value" : 34,
     "name" : "android::hardware::graphics::common::V1_2::PixelFormat::IMPLEMENTATION_DEFINED"
    },
    {
     "enum_field_value" : 35,
     "name" : "android::hardware::graphics::common::V1_2::PixelFormat::YCBCR_420_888"
    },
    {
     "enum_field_value" : 36,
     "name" : "android::hardware::graphics::common::V1_2::PixelFormat::RAW_OPAQUE"
    },
    {
     "enum_field_value" : 37,
     "name" : "android::hardware::graphics::common::V1_2::PixelFormat::RAW10"
    },
    {
     "enum_field_value" : 38,
     "name" : "android::hardware::graphics::common::V1_2::PixelFormat::RAW12"
    },
    {
     "enum_field_value" : 43,
     "name" : "android::hardware::graphics::common::V1_2::PixelFormat::RGBA_1010102"
    },
    {
     "enum_field_value" : 538982489,
     "name" : "android::hardware::graphics::common::V1_2::PixelFormat::Y8"
    },
    {
     "enum_field_value" : 540422489,
     "name" : "android::hardware::graphics::common::V1_2::PixelFormat::Y16"
    },
    {
     "enum_field_value" : 842094169,
     "name" : "android::hardware::graphics::common::V1_2::PixelFormat::YV12"
    },
    {
     "enum_field_value" : 48,
     "name" : "android::hardware::graphics::common::V1_2::PixelFormat::DEPTH_16"
    },
    {
     "enum_field_value" : 49,
     "name" : "android::hardware::graphics::common::V1_2::PixelFormat::DEPTH_24"
    },
    {
     "enum_field_value" : 50,
     "name" : "android::hardware::graphics::common::V1_2::PixelFormat::DEPTH_24_STENCIL_8"
    },
    {
     "enum_field_value" : 51,
     "name" : "android::hardware::graphics::common::V1_2::PixelFormat::DEPTH_32F"
    },
    {
     "enum_field_value" : 52,
     "name" : "android::hardware::graphics::common::V1_2::PixelFormat::DEPTH_32F_STENCIL_8"
    },
    {
     "enum_field_value" : 53,
     "name" : "android::hardware::graphics::common::V1_2::PixelFormat::STENCIL_8"
    },
    {
     "enum_field_value" : 54,
     "name" : "android::hardware::graphics::common::V1_2::PixelFormat::YCBCR_P010"
    },
    {
     "enum_field_value" : 55,
     "name" : "android::hardware::graphics::common::V1_2::PixelFormat::HSV_888"
    }
   ],
   "linker_set_key" : "android::hardware::graphics::common::V1_2::PixelFormat",
   "name" : "android::hardware::graphics::common::V1_2::PixelFormat",
   "referenced_type" : "type-656",
   "self_type" : "type-656",
   "size" : 4,
   "source_file" : "/out/soong/.intermediates/hardware/interfaces/graphics/common/1.2/android.hardware.graphics.common@1.2_genc++_headers/gen/android/hardware/graphics/common/1.2/types.h",
   "underlying_type" : "type-4",
   "unique_id" : "_ZTSN7android8hardware8graphics6common4V1_211PixelFormatE"
  },
  {
   "alignment" : 4,
   "enum_fields" :
   [
    {
     "enum_field_value" : 0,
     "name" : "android::hidl::base::V1_0::DebugInfo::Architecture::UNKNOWN"
    },
    {
     "enum_field_value" : 1,
     "name" : "android::hidl::base::V1_0::DebugInfo::Architecture::IS_64BIT"
    },
    {
     "enum_field_value" : 2,
     "name" : "android::hidl::base::V1_0::DebugInfo::Architecture::IS_32BIT"
    }
   ],
   "linker_set_key" : "android::hidl::base::V1_0::DebugInfo::Architecture",
   "name" : "android::hidl::base::V1_0::DebugInfo::Architecture",
   "referenced_type" : "type-526",
   "self_type" : "type-526",
   "size" : 4,
   "source_file" : "/out/soong/.intermediates/system/libhidl/transport/base/1.0/android.hidl.base@1.0_genc++_headers/gen/android/hidl/base/1.0/types.h",
   "underlying_type" : "type-4",
   "unique_id" : "_ZTSN7android4hidl4base4V1_09DebugInfo12ArchitectureE"
  },
  {
   "alignment" : 4,
   "enum_fields" :
   [
    {
     "enum_field_value" : 0,
     "name" : "ANDROID_LOG_UNKNOWN"
    },
    {
     "enum_field_value" : 1,
     "name" : "ANDROID_LOG_DEFAULT"
    },
    {
     "enum_field_value" : 2,
     "name" : "ANDROID_LOG_VERBOSE"
    },
    {
     "enum_field_value" : 3,
     "name" : "ANDROID_LOG_DEBUG"
    },
    {
     "enum_field_value" : 4,
     "name" : "ANDROID_LOG_INFO"
    },
    {
     "enum_field_value" : 5,
     "name" : "ANDROID_LOG_WARN"
    },
    {
     "enum_field_value" : 6,
     "name" : "ANDROID_LOG_ERROR"
    },
    {
     "enum_field_value" : 7,
     "name" : "ANDROID_LOG_FATAL"
    },
    {
     "enum_field_value" : 8,
     "name" : "ANDROID_LOG_SILENT"
    }
   ],
   "linker_set_key" : "android_LogPriority",
   "name" : "android_LogPriority",
   "referenced_type" : "type-1",
   "self_type" : "type-1",
   "size" : 4,
   "source_file" : "/system/core/liblog/include/android/log.h",
   "underlying_type" : "type-2",
   "unique_id" : "android_LogPriority"
  },
  {
   "alignment" : 4,
   "enum_fields" :
   [
    {
     "enum_field_value" : 0,
     "name" : "HAL_COLOR_MODE_NATIVE"
    },
    {
     "enum_field_value" : 1,
     "name" : "HAL_COLOR_MODE_STANDARD_BT601_625"
    },
    {
     "enum_field_value" : 2,
     "name" : "HAL_COLOR_MODE_STANDARD_BT601_625_UNADJUSTED"
    },
    {
     "enum_field_value" : 3,
     "name" : "HAL_COLOR_MODE_STANDARD_BT601_525"
    },
    {
     "enum_field_value" : 4,
     "name" : "HAL_COLOR_MODE_STANDARD_BT601_525_UNADJUSTED"
    },
    {
     "enum_field_value" : 5,
     "name" : "HAL_COLOR_MODE_STANDARD_BT709"
    },
    {
     "enum_field_value" : 6,
     "name" : "HAL_COLOR_MODE_DCI_P3"
    },
    {
     "enum_field_value" : 7,
     "name" : "HAL_COLOR_MODE_SRGB"
    },
    {
     "enum_field_value" : 8,
     "name" : "HAL_COLOR_MODE_ADOBE_RGB"
    },
    {
     "enum_field_value" : 9,
     "name" : "HAL_COLOR_MODE_DISPLAY_P3"
    }
   ],
   "linker_set_key" : "android_color_mode_t",
   "name" : "android_color_mode_t",
   "referenced_type" : "type-280",
   "self_type" : "type-280",
   "size" : 4,
   "source_file" : "/system/core/libsystem/include/system/graphics-base-v1.0.h",
   "underlying_type" : "type-2",
   "unique_id" : "android_color_mode_t"
  },
  {
   "alignment" : 4,
   "enum_fields" :
   [
    {
     "enum_field_value" : 10,
     "name" : "HAL_COLOR_MODE_BT2020"
    },
    {
     "enum_field_value" : 11,
     "name" : "HAL_COLOR_MODE_BT2100_PQ"
    },
    {
     "enum_field_value" : 12,
     "name" : "HAL_COLOR_MODE_BT2100_HLG"
    }
   ],
   "linker_set_key" : "android_color_mode_v1_1_t",
   "name" : "android_color_mode_v1_1_t",
   "referenced_type" : "type-286",
   "self_type" : "type-286",
   "size" : 4,
   "source_file" : "/system/core/libsystem/include/system/graphics-base-v1.1.h",
   "underlying_type" : "type-2",
   "unique_id" : "android_color_mode_v1_1_t"
  },
  {
   "alignment" : 4,
   "enum_fields" :
   [
    {
     "enum_field_value" : 0,
     "name" : "HAL_COLOR_TRANSFORM_IDENTITY"
    },
    {
     "enum_field_value" : 1,
     "name" : "HAL_COLOR_TRANSFORM_ARBITRARY_MATRIX"
    },
    {
     "enum_field_value" : 2,
     "name" : "HAL_COLOR_TRANSFORM_VALUE_INVERSE"
    },
    {
     "enum_field_value" : 3,
     "name" : "HAL_COLOR_TRANSFORM_GRAYSCALE"
    },
    {
     "enum_field_value" : 4,
     "name" : "HAL_COLOR_TRANSFORM_CORRECT_PROTANOPIA"
    },
    {
     "enum_field_value" : 5,
     "name" : "HAL_COLOR_TRANSFORM_CORRECT_DEUTERANOPIA"
    },
    {
     "enum_field_value" : 6,
     "name" : "HAL_COLOR_TRANSFORM_CORRECT_TRITANOPIA"
    }
   ],
   "linker_set_key" : "android_color_transform_t",
   "name" : "android_color_transform_t",
   "referenced_type" : "type-281",
   "self_type" : "type-281",
   "size" : 4,
   "source_file" : "/system/core/libsystem/include/system/graphics-base-v1.0.h",
   "underlying_type" : "type-2",
   "unique_id" : "android_color_transform_t"
  },
  {
   "alignment" : 4,
   "enum_fields" :
   [
    {
     "enum_field_value" : 0,
     "name" : "HAL_DATASPACE_UNKNOWN"
    },
    {
     "enum_field_value" : 1,
     "name" : "HAL_DATASPACE_ARBITRARY"
    },
    {
     "enum_field_value" : 16,
     "name" : "HAL_DATASPACE_STANDARD_SHIFT"
    },
    {
     "enum_field_value" : 4128768,
     "name" : "HAL_DATASPACE_STANDARD_MASK"
    },
    {
     "enum_field_value" : 0,
     "name" : "HAL_DATASPACE_STANDARD_UNSPECIFIED"
    },
    {
     "enum_field_value" : 65536,
     "name" : "HAL_DATASPACE_STANDARD_BT709"
    },
    {
     "enum_field_value" : 131072,
     "name" : "HAL_DATASPACE_STANDARD_BT601_625"
    },
    {
     "enum_field_value" : 196608,
     "name" : "HAL_DATASPACE_STANDARD_BT601_625_UNADJUSTED"
    },
    {
     "enum_field_value" : 262144,
     "name" : "HAL_DATASPACE_STANDARD_BT601_525"
    },
    {
     "enum_field_value" : 327680,
     "name" : "HAL_DATASPACE_STANDARD_BT601_525_UNADJUSTED"
    },
    {
     "enum_field_value" : 393216,
     "name" : "HAL_DATASPACE_STANDARD_BT2020"
    },
    {
     "enum_field_value" : 458752,
     "name" : "HAL_DATASPACE_STANDARD_BT2020_CONSTANT_LUMINANCE"
    },
    {
     "enum_field_value" : 524288,
     "name" : "HAL_DATASPACE_STANDARD_BT470M"
    },
    {
     "enum_field_value" : 589824,
     "name" : "HAL_DATASPACE_STANDARD_FILM"
    },
    {
     "enum_field_value" : 655360,
     "name" : "HAL_DATASPACE_STANDARD_DCI_P3"
    },
    {
     "enum_field_value" : 720896,
     "name" : "HAL_DATASPACE_STANDARD_ADOBE_RGB"
    },
    {
     "enum_field_value" : 22,
     "name" : "HAL_DATASPACE_TRANSFER_SHIFT"
    },
    {
     "enum_field_value" : 130023424,
     "name" : "HAL_DATASPACE_TRANSFER_MASK"
    },
    {
     "enum_field_value" : 0,
     "name" : "HAL_DATASPACE_TRANSFER_UNSPECIFIED"
    },
    {
     "enum_field_value" : 4194304,
     "name" : "HAL_DATASPACE_TRANSFER_LINEAR"
    },
    {
     "enum_field_value" : 8388608,
     "name" : "HAL_DATASPACE_TRANSFER_SRGB"
    },
    {
     "enum_field_value" : 12582912,
     "name" : "HAL_DATASPACE_TRANSFER_SMPTE_170M"
    },
    {
     "enum_field_value" : 16777216,
     "name" : "HAL_DATASPACE_TRANSFER_GAMMA2_2"
    },
    {
     "enum_field_value" : 20971520,
     "name" : "HAL_DATASPACE_TRANSFER_GAMMA2_6"
    },
    {
     "enum_field_value" : 25165824,
     "name" : "HAL_DATASPACE_TRANSFER_GAMMA2_8"
    },
    {
     "enum_field_value" : 29360128,
     "name" : "HAL_DATASPACE_TRANSFER_ST2084"
    },
    {
     "enum_field_value" : 33554432,
     "name" : "HAL_DATASPACE_TRANSFER_HLG"
    },
    {
     "enum_field_value" : 27,
     "name" : "HAL_DATASPACE_RANGE_SHIFT"
    },
    {
     "enum_field_value" : 939524096,
     "name" : "HAL_DATASPACE_RANGE_MASK"
    },
    {
     "enum_field_value" : 0,
     "name" : "HAL_DATASPACE_RANGE_UNSPECIFIED"
    },
    {
     "enum_field_value" : 134217728,
     "name" : "HAL_DATASPACE_RANGE_FULL"
    },
    {
     "enum_field_value" : 268435456,
     "name" : "HAL_DATASPACE_RANGE_LIMITED"
    },
    {
     "enum_field_value" : 402653184,
     "name" : "HAL_DATASPACE_RANGE_EXTENDED"
    },
    {
     "enum_field_value" : 512,
     "name" : "HAL_DATASPACE_SRGB_LINEAR"
    },
    {
     "enum_field_value" : 138477568,
     "name" : "HAL_DATASPACE_V0_SRGB_LINEAR"
    },
    {
     "enum_field_value" : 406913024,
     "name" : "HAL_DATASPACE_V0_SCRGB_LINEAR"
    },
    {
     "enum_field_value" : 513,
     "name" : "HAL_DATASPACE_SRGB"
    },
    {
     "enum_field_value" : 142671872,
     "name" : "HAL_DATASPACE_V0_SRGB"
    },
    {
     "enum_field_value" : 411107328,
     "name" : "HAL_DATASPACE_V0_SCRGB"
    },
    {
     "enum_field_value" : 257,
     "name" : "HAL_DATASPACE_JFIF"
    },
    {
     "enum_field_value" : 146931712,
     "name" : "HAL_DATASPACE_V0_JFIF"
    },
    {
     "enum_field_value" : 258,
     "name" : "HAL_DATASPACE_BT601_625"
    },
    {
     "enum_field_value" : 281149440,
     "name" : "HAL_DATASPACE_V0_BT601_625"
    },
    {
     "enum_field_value" : 259,
     "name" : "HAL_DATASPACE_BT601_525"
    },
    {
     "enum_field_value" : 281280512,
     "name" : "HAL_DATASPACE_V0_BT601_525"
    },
    {
     "enum_field_value" : 260,
     "name" : "HAL_DATASPACE_BT709"
    },
    {
     "enum_field_value" : 281083904,
     "name" : "HAL_DATASPACE_V0_BT709"
    },
    {
     "enum_field_value" : 139067392,
     "name" : "HAL_DATASPACE_DCI_P3_LINEAR"
    },
    {
     "enum_field_value" : 155844608,
     "name" : "HAL_DATASPACE_DCI_P3"
    },
    {
     "enum_field_value" : 139067392,
     "name" : "HAL_DATASPACE_DISPLAY_P3_LINEAR"
    },
    {
     "enum_field_value" : 143261696,
     "name" : "HAL_DATASPACE_DISPLAY_P3"
    },
    {
     "enum_field_value" : 151715840,
     "name" : "HAL_DATASPACE_ADOBE_RGB"
    },
    {
     "enum_field_value" : 138805248,
     "name" : "HAL_DATASPACE_BT2020_LINEAR"
    },
    {
     "enum_field_value" : 147193856,
     "name" : "HAL_DATASPACE_BT2020"
    },
    {
     "enum_field_value" : 163971072,
     "name" : "HAL_DATASPACE_BT2020_PQ"
    },
    {
     "enum_field_value" : 4096,
     "name" : "HAL_DATASPACE_DEPTH"
    },
    {
     "enum_field_value" : 4097,
     "name" : "HAL_DATASPACE_SENSOR"
    }
   ],
   "linker_set_key" : "android_dataspace_t",
   "name" : "android_dataspace_t",
   "referenced_type" : "type-173",
   "self_type" : "type-173",
   "size" : 4,
   "source_file" : "/system/core/libsystem/include/system/graphics-base-v1.0.h",
   "underlying_type" : "type-2",
   "unique_id" : "android_dataspace_t"
  },
  {
   "alignment" : 4,
   "enum_fields" :
   [
    {
     "enum_field_value" : 281411584,
     "name" : "HAL_DATASPACE_BT2020_ITU"
    },
    {
     "enum_field_value" : 298188800,
     "name" : "HAL_DATASPACE_BT2020_ITU_PQ"
    },
    {
     "enum_field_value" : 302383104,
     "name" : "HAL_DATASPACE_BT2020_ITU_HLG"
    },
    {
     "enum_field_value" : 168165376,
     "name" : "HAL_DATASPACE_BT2020_HLG"
    }
   ],
   "linker_set_key" : "android_dataspace_v1_1_t",
   "name" : "android_dataspace_v1_1_t",
   "referenced_type" : "type-284",
   "self_type" : "type-284",
   "size" : 4,
   "source_file" : "/system/core/libsystem/include/system/graphics-base-v1.1.h",
   "underlying_type" : "type-2",
   "unique_id" : "android_dataspace_v1_1_t"
  },
  {
   "alignment" : 4,
   "enum_fields" :
   [
    {
     "enum_field_value" : 142999552,
     "name" : "HAL_DATASPACE_DISPLAY_BT2020"
    },
    {
     "enum_field_value" : 4098,
     "name" : "HAL_DATASPACE_DYNAMIC_DEPTH"
    },
    {
     "enum_field_value" : 4099,
     "name" : "HAL_DATASPACE_JPEG_APP_SEGMENTS"
    },
    {
     "enum_field_value" : 4100,
     "name" : "HAL_DATASPACE_HEIF"
    }
   ],
   "linker_set_key" : "android_dataspace_v1_2_t",
   "name" : "android_dataspace_v1_2_t",
   "referenced_type" : "type-290",
   "self_type" : "type-290",
   "size" : 4,
   "source_file" : "/system/core/libsystem/include/system/graphics-base-v1.2.h",
   "underlying_type" : "type-2",
   "unique_id" : "android_dataspace_v1_2_t"
  },
  {
   "alignment" : 4,
   "enum_fields" :
   [
    {
     "enum_field_value" : 1,
     "name" : "FLEX_COMPONENT_Y"
    },
    {
     "enum_field_value" : 2,
     "name" : "FLEX_COMPONENT_Cb"
    },
    {
     "enum_field_value" : 4,
     "name" : "FLEX_COMPONENT_Cr"
    },
    {
     "enum_field_value" : 1024,
     "name" : "FLEX_COMPONENT_R"
    },
    {
     "enum_field_value" : 2048,
     "name" : "FLEX_COMPONENT_G"
    },
    {
     "enum_field_value" : 4096,
     "name" : "FLEX_COMPONENT_B"
    },
    {
     "enum_field_value" : 1073741824,
     "name" : "FLEX_COMPONENT_A"
    }
   ],
   "linker_set_key" : "android_flex_component",
   "name" : "android_flex_component",
   "referenced_type" : "type-295",
   "self_type" : "type-295",
   "size" : 4,
   "source_file" : "/system/core/libsystem/include/system/graphics.h",
   "underlying_type" : "type-2",
   "unique_id" : "android_flex_component"
  },
  {
   "alignment" : 4,
   "enum_fields" :
   [
    {
     "enum_field_value" : 0,
     "name" : "FLEX_FORMAT_INVALID"
    },
    {
     "enum_field_value" : 1,
     "name" : "FLEX_FORMAT_Y"
    },
    {
     "enum_field_value" : 7,
     "name" : "FLEX_FORMAT_YCbCr"
    },
    {
     "enum_field_value" : 1073741831,
     "name" : "FLEX_FORMAT_YCbCrA"
    },
    {
     "enum_field_value" : 7168,
     "name" : "FLEX_FORMAT_RGB"
    },
    {
     "enum_field_value" : 1073748992,
     "name" : "FLEX_FORMAT_RGBA"
    }
   ],
   "linker_set_key" : "android_flex_format",
   "name" : "android_flex_format",
   "referenced_type" : "type-298",
   "self_type" : "type-298",
   "size" : 4,
   "source_file" : "/system/core/libsystem/include/system/graphics.h",
   "underlying_type" : "type-2",
   "unique_id" : "android_flex_format"
  },
  {
   "alignment" : 4,
   "enum_fields" :
   [
    {
     "enum_field_value" : 1,
     "name" : "HAL_HDR_DOLBY_VISION"
    },
    {
     "enum_field_value" : 2,
     "name" : "HAL_HDR_HDR10"
    },
    {
     "enum_field_value" : 3,
     "name" : "HAL_HDR_HLG"
    }
   ],
   "linker_set_key" : "android_hdr_t",
   "name" : "android_hdr_t",
   "referenced_type" : "type-282",
   "self_type" : "type-282",
   "size" : 4,
   "source_file" : "/system/core/libsystem/include/system/graphics-base-v1.0.h",
   "underlying_type" : "type-2",
   "unique_id" : "android_hdr_t"
  },
  {
   "alignment" : 4,
   "enum_fields" :
   [
    {
     "enum_field_value" : 4,
     "name" : "HAL_HDR_HDR10_PLUS"
    }
   ],
   "linker_set_key" : "android_hdr_v1_2_t",
   "name" : "android_hdr_v1_2_t",
   "referenced_type" : "type-289",
   "self_type" : "type-289",
   "size" : 4,
   "source_file" : "/system/core/libsystem/include/system/graphics-base-v1.2.h",
   "underlying_type" : "type-2",
   "unique_id" : "android_hdr_v1_2_t"
  },
  {
   "alignment" : 4,
   "enum_fields" :
   [
    {
     "enum_field_value" : 39,
     "name" : "HAL_PIXEL_FORMAT_YCBCR_422_888"
    },
    {
     "enum_field_value" : 40,
     "name" : "HAL_PIXEL_FORMAT_YCBCR_444_888"
    },
    {
     "enum_field_value" : 41,
     "name" : "HAL_PIXEL_FORMAT_FLEX_RGB_888"
    },
    {
     "enum_field_value" : 42,
     "name" : "HAL_PIXEL_FORMAT_FLEX_RGBA_8888"
    }
   ],
   "linker_set_key" : "android_pixel_format_sw_t",
   "name" : "android_pixel_format_sw_t",
   "referenced_type" : "type-292",
   "self_type" : "type-292",
   "size" : 4,
   "source_file" : "/system/core/libsystem/include/system/graphics-sw.h",
   "underlying_type" : "type-2",
   "unique_id" : "_ZTS25android_pixel_format_sw_t"
  },
  {
   "alignment" : 4,
   "enum_fields" :
   [
    {
     "enum_field_value" : 1,
     "name" : "HAL_PIXEL_FORMAT_RGBA_8888"
    },
    {
     "enum_field_value" : 2,
     "name" : "HAL_PIXEL_FORMAT_RGBX_8888"
    },
    {
     "enum_field_value" : 3,
     "name" : "HAL_PIXEL_FORMAT_RGB_888"
    },
    {
     "enum_field_value" : 4,
     "name" : "HAL_PIXEL_FORMAT_RGB_565"
    },
    {
     "enum_field_value" : 5,
     "name" : "HAL_PIXEL_FORMAT_BGRA_8888"
    },
    {
     "enum_field_value" : 16,
     "name" : "HAL_PIXEL_FORMAT_YCBCR_422_SP"
    },
    {
     "enum_field_value" : 17,
     "name" : "HAL_PIXEL_FORMAT_YCRCB_420_SP"
    },
    {
     "enum_field_value" : 20,
     "name" : "HAL_PIXEL_FORMAT_YCBCR_422_I"
    },
    {
     "enum_field_value" : 22,
     "name" : "HAL_PIXEL_FORMAT_RGBA_FP16"
    },
    {
     "enum_field_value" : 32,
     "name" : "HAL_PIXEL_FORMAT_RAW16"
    },
    {
     "enum_field_value" : 33,
     "name" : "HAL_PIXEL_FORMAT_BLOB"
    },
    {
     "enum_field_value" : 34,
     "name" : "HAL_PIXEL_FORMAT_IMPLEMENTATION_DEFINED"
    },
    {
     "enum_field_value" : 35,
     "name" : "HAL_PIXEL_FORMAT_YCBCR_420_888"
    },
    {
     "enum_field_value" : 36,
     "name" : "HAL_PIXEL_FORMAT_RAW_OPAQUE"
    },
    {
     "enum_field_value" : 37,
     "name" : "HAL_PIXEL_FORMAT_RAW10"
    },
    {
     "enum_field_value" : 38,
     "name" : "HAL_PIXEL_FORMAT_RAW12"
    },
    {
     "enum_field_value" : 43,
     "name" : "HAL_PIXEL_FORMAT_RGBA_1010102"
    },
    {
     "enum_field_value" : 538982489,
     "name" : "HAL_PIXEL_FORMAT_Y8"
    },
    {
     "enum_field_value" : 540422489,
     "name" : "HAL_PIXEL_FORMAT_Y16"
    },
    {
     "enum_field_value" : 842094169,
     "name" : "HAL_PIXEL_FORMAT_YV12"
    }
   ],
   "linker_set_key" : "android_pixel_format_t",
   "name" : "android_pixel_format_t",
   "referenced_type" : "type-278",
   "self_type" : "type-278",
   "size" : 4,
   "source_file" : "/system/core/libsystem/include/system/graphics-base-v1.0.h",
   "underlying_type" : "type-2",
   "unique_id" : "android_pixel_format_t"
  },
  {
   "alignment" : 4,
   "enum_fields" :
   [
    {
     "enum_field_value" : 48,
     "name" : "HAL_PIXEL_FORMAT_DEPTH_16"
    },
    {
     "enum_field_value" : 49,
     "name" : "HAL_PIXEL_FORMAT_DEPTH_24"
    },
    {
     "enum_field_value" : 50,
     "name" : "HAL_PIXEL_FORMAT_DEPTH_24_STENCIL_8"
    },
    {
     "enum_field_value" : 51,
     "name" : "HAL_PIXEL_FORMAT_DEPTH_32F"
    },
    {
     "enum_field_value" : 52,
     "name" : "HAL_PIXEL_FORMAT_DEPTH_32F_STENCIL_8"
    },
    {
     "enum_field_value" : 53,
     "name" : "HAL_PIXEL_FORMAT_STENCIL_8"
    },
    {
     "enum_field_value" : 54,
     "name" : "HAL_PIXEL_FORMAT_YCBCR_P010"
    }
   ],
   "linker_set_key" : "android_pixel_format_v1_1_t",
   "name" : "android_pixel_format_v1_1_t",
   "referenced_type" : "type-283",
   "self_type" : "type-283",
   "size" : 4,
   "source_file" : "/system/core/libsystem/include/system/graphics-base-v1.1.h",
   "underlying_type" : "type-2",
   "unique_id" : "android_pixel_format_v1_1_t"
  },
  {
   "alignment" : 4,
   "enum_fields" :
   [
    {
     "enum_field_value" : 55,
     "name" : "HAL_PIXEL_FORMAT_HSV_888"
    }
   ],
   "linker_set_key" : "android_pixel_format_v1_2_t",
   "name" : "android_pixel_format_v1_2_t",
   "referenced_type" : "type-291",
   "self_type" : "type-291",
   "size" : 4,
   "source_file" : "/system/core/libsystem/include/system/graphics-base-v1.2.h",
   "underlying_type" : "type-2",
   "unique_id" : "android_pixel_format_v1_2_t"
  },
  {
   "alignment" : 4,
   "enum_fields" :
   [
    {
     "enum_field_value" : 0,
     "name" : "HAL_RENDER_INTENT_COLORIMETRIC"
    },
    {
     "enum_field_value" : 1,
     "name" : "HAL_RENDER_INTENT_ENHANCE"
    },
    {
     "enum_field_value" : 2,
     "name" : "HAL_RENDER_INTENT_TONE_MAP_COLORIMETRIC"
    },
    {
     "enum_field_value" : 3,
     "name" : "HAL_RENDER_INTENT_TONE_MAP_ENHANCE"
    }
   ],
   "linker_set_key" : "android_render_intent_v1_1_t",
   "name" : "android_render_intent_v1_1_t",
   "referenced_type" : "type-287",
   "self_type" : "type-287",
   "size" : 4,
   "source_file" : "/system/core/libsystem/include/system/graphics-base-v1.1.h",
   "underlying_type" : "type-2",
   "unique_id" : "android_render_intent_v1_1_t"
  },
  {
   "alignment" : 4,
   "enum_fields" :
   [
    {
     "enum_field_value" : 1,
     "name" : "HAL_TRANSFORM_FLIP_H"
    },
    {
     "enum_field_value" : 2,
     "name" : "HAL_TRANSFORM_FLIP_V"
    },
    {
     "enum_field_value" : 4,
     "name" : "HAL_TRANSFORM_ROT_90"
    },
    {
     "enum_field_value" : 3,
     "name" : "HAL_TRANSFORM_ROT_180"
    },
    {
     "enum_field_value" : 7,
     "name" : "HAL_TRANSFORM_ROT_270"
    }
   ],
   "linker_set_key" : "android_transform_t",
   "name" : "android_transform_t",
   "referenced_type" : "type-279",
   "self_type" : "type-279",
   "size" : 4,
   "source_file" : "/system/core/libsystem/include/system/graphics-base-v1.0.h",
   "underlying_type" : "type-2",
   "unique_id" : "android_transform_t"
  },
  {
   "alignment" : 4,
   "enum_fields" :
   [
    {
     "enum_field_value" : 0,
     "name" : "LOG_ID_MIN"
    },
    {
     "enum_field_value" : 0,
     "name" : "LOG_ID_MAIN"
    },
    {
     "enum_field_value" : 1,
     "name" : "LOG_ID_RADIO"
    },
    {
     "enum_field_value" : 2,
     "name" : "LOG_ID_EVENTS"
    },
    {
     "enum_field_value" : 3,
     "name" : "LOG_ID_SYSTEM"
    },
    {
     "enum_field_value" : 4,
     "name" : "LOG_ID_CRASH"
    },
    {
     "enum_field_value" : 5,
     "name" : "LOG_ID_STATS"
    },
    {
     "enum_field_value" : 6,
     "name" : "LOG_ID_SECURITY"
    },
    {
     "enum_field_value" : 7,
     "name" : "LOG_ID_KERNEL"
    },
    {
     "enum_field_value" : 8,
     "name" : "LOG_ID_MAX"
    }
   ],
   "linker_set_key" : "log_id",
   "name" : "log_id",
   "referenced_type" : "type-2416",
   "self_type" : "type-2416",
   "size" : 4,
   "source_file" : "/system/core/liblog/include/android/log.h",
   "underlying_type" : "type-2",
   "unique_id" : "log_id"
  }
 ],
 "function_types" :
 [
  {
   "alignment" : 4,
   "linker_set_key" : "OMX_ERRORTYPE (void *)",
   "name" : "OMX_ERRORTYPE (void *)",
   "parameters" :
   [
    {
     "referenced_type" : "type-8"
    }
   ],
   "referenced_type" : "type-1505",
   "return_type" : "type-1497",
   "self_type" : "type-1505",
   "source_file" : "/frameworks/native/headers/media_plugin/media/openmax/OMX_Core.h"
  },
  {
   "alignment" : 4,
   "linker_set_key" : "OMX_ERRORTYPE (void *, OMX_BUFFERHEADERTYPE *)",
   "name" : "OMX_ERRORTYPE (void *, OMX_BUFFERHEADERTYPE *)",
   "parameters" :
   [
    {
     "referenced_type" : "type-8"
    },
    {
     "referenced_type" : "type-1599"
    }
   ],
   "referenced_type" : "type-2387",
   "return_type" : "type-1497",
   "self_type" : "type-2387",
   "source_file" : "/frameworks/native/headers/media_plugin/media/openmax/OMX_Component.h"
  },
  {
   "alignment" : 4,
   "linker_set_key" : "OMX_ERRORTYPE (void *, OMX_BUFFERHEADERTYPE **, unsigned int, void *, unsigned int)",
   "name" : "OMX_ERRORTYPE (void *, OMX_BUFFERHEADERTYPE **, unsigned int, void *, unsigned int)",
   "parameters" :
   [
    {
     "referenced_type" : "type-8"
    },
    {
     "referenced_type" : "type-2381"
    },
    {
     "referenced_type" : "type-2"
    },
    {
     "referenced_type" : "type-8"
    },
    {
     "referenced_type" : "type-2"
    }
   ],
   "referenced_type" : "type-2383",
   "return_type" : "type-1497",
   "self_type" : "type-2383",
   "source_file" : "/frameworks/native/headers/media_plugin/media/openmax/OMX_Component.h"
  },
  {
   "alignment" : 4,
   "linker_set_key" : "OMX_ERRORTYPE (void *, OMX_BUFFERHEADERTYPE **, unsigned int, void *, unsigned int, unsigned char *)",
   "name" : "OMX_ERRORTYPE (void *, OMX_BUFFERHEADERTYPE **, unsigned int, void *, unsigned int, unsigned char *)",
   "parameters" :
   [
    {
     "referenced_type" : "type-8"
    },
    {
     "referenced_type" : "type-2381"
    },
    {
     "referenced_type" : "type-2"
    },
    {
     "referenced_type" : "type-8"
    },
    {
     "referenced_type" : "type-2"
    },
    {
     "referenced_type" : "type-91"
    }
   ],
   "referenced_type" : "type-2380",
   "return_type" : "type-1497",
   "self_type" : "type-2380",
   "source_file" : "/frameworks/native/headers/media_plugin/media/openmax/OMX_Component.h"
  },
  {
   "alignment" : 4,
   "linker_set_key" : "OMX_ERRORTYPE (void *, OMX_BUFFERHEADERTYPE **, unsigned int, void *, void *)",
   "name" : "OMX_ERRORTYPE (void *, OMX_BUFFERHEADERTYPE **, unsigned int, void *, void *)",
   "parameters" :
   [
    {
     "referenced_type" : "type-8"
    },
    {
     "referenced_type" : "type-2381"
    },
    {
     "referenced_type" : "type-2"
    },
    {
     "referenced_type" : "type-8"
    },
    {
     "referenced_type" : "type-8"
    }
   ],
   "referenced_type" : "type-2392",
   "return_type" : "type-1497",
   "self_type" : "type-2392",
   "source_file" : "/frameworks/native/headers/media_plugin/media/openmax/OMX_Component.h"
  },
  {
   "alignment" : 4,
   "linker_set_key" : "OMX_ERRORTYPE (void *, OMX_CALLBACKTYPE *, void *)",
   "name" : "OMX_ERRORTYPE (void *, OMX_CALLBACKTYPE *, void *)",
   "parameters" :
   [
    {
     "referenced_type" : "type-8"
    },
    {
     "referenced_type" : "type-2390"
    },
    {
     "referenced_type" : "type-8"
    }
   ],
   "referenced_type" : "type-2389",
   "return_type" : "type-1497",
   "self_type" : "type-2389",
   "source_file" : "/frameworks/native/headers/media_plugin/media/openmax/OMX_Component.h"
  },
  {
   "alignment" : 4,
   "linker_set_key" : "OMX_ERRORTYPE (void *, OMX_COMMANDTYPE, unsigned int, void *)",
   "name" : "OMX_ERRORTYPE (void *, OMX_COMMANDTYPE, unsigned int, void *)",
   "parameters" :
   [
    {
     "referenced_type" : "type-8"
    },
    {
     "referenced_type" : "type-1489"
    },
    {
     "referenced_type" : "type-2"
    },
    {
     "referenced_type" : "type-8"
    }
   ],
   "referenced_type" : "type-2367",
   "return_type" : "type-1497",
   "self_type" : "type-2367",
   "source_file" : "/frameworks/native/headers/media_plugin/media/openmax/OMX_Component.h"
  },
  {
   "alignment" : 4,
   "linker_set_key" : "OMX_ERRORTYPE (void *, OMX_INDEXTYPE, void *)",
   "name" : "OMX_ERRORTYPE (void *, OMX_INDEXTYPE, void *)",
   "parameters" :
   [
    {
     "referenced_type" : "type-8"
    },
    {
     "referenced_type" : "type-1487"
    },
    {
     "referenced_type" : "type-8"
    }
   ],
   "referenced_type" : "type-2369",
   "return_type" : "type-1497",
   "self_type" : "type-2369",
   "source_file" : "/frameworks/native/headers/media_plugin/media/openmax/OMX_Component.h"
  },
  {
   "alignment" : 4,
   "linker_set_key" : "OMX_ERRORTYPE (void *, OMX_STATETYPE *)",
   "name" : "OMX_ERRORTYPE (void *, OMX_STATETYPE *)",
   "parameters" :
   [
    {
     "referenced_type" : "type-8"
    },
    {
     "referenced_type" : "type-2375"
    }
   ],
   "referenced_type" : "type-2374",
   "return_type" : "type-1497",
   "self_type" : "type-2374",
   "source_file" : "/frameworks/native/headers/media_plugin/media/openmax/OMX_Component.h"
  },
  {
   "alignment" : 4,
   "linker_set_key" : "OMX_ERRORTYPE (void *, char *, OMX_INDEXTYPE *)",
   "name" : "OMX_ERRORTYPE (void *, char *, OMX_INDEXTYPE *)",
   "parameters" :
   [
    {
     "referenced_type" : "type-8"
    },
    {
     "referenced_type" : "type-254"
    },
    {
     "referenced_type" : "type-2372"
    }
   ],
   "referenced_type" : "type-2371",
   "return_type" : "type-1497",
   "self_type" : "type-2371",
   "source_file" : "/frameworks/native/headers/media_plugin/media/openmax/OMX_Component.h"
  },
  {
   "alignment" : 4,
   "linker_set_key" : "OMX_ERRORTYPE (void *, char *, OMX_VERSIONTYPE *, OMX_VERSIONTYPE *, unsigned char (*)[128])",
   "name" : "OMX_ERRORTYPE (void *, char *, OMX_VERSIONTYPE *, OMX_VERSIONTYPE *, unsigned char (*)[128])",
   "parameters" :
   [
    {
     "referenced_type" : "type-8"
    },
    {
     "referenced_type" : "type-254"
    },
    {
     "referenced_type" : "type-2364"
    },
    {
     "referenced_type" : "type-2364"
    },
    {
     "referenced_type" : "type-2365"
    }
   ],
   "referenced_type" : "type-2363",
   "return_type" : "type-1497",
   "self_type" : "type-2363",
   "source_file" : "/frameworks/native/headers/media_plugin/media/openmax/OMX_Component.h"
  },
  {
   "alignment" : 4,
   "linker_set_key" : "OMX_ERRORTYPE (void *, unsigned char *, unsigned int)",
   "name" : "OMX_ERRORTYPE (void *, unsigned char *, unsigned int)",
   "parameters" :
   [
    {
     "referenced_type" : "type-8"
    },
    {
     "referenced_type" : "type-91"
    },
    {
     "referenced_type" : "type-2"
    }
   ],
   "referenced_type" : "type-2394",
   "return_type" : "type-1497",
   "self_type" : "type-2394",
   "source_file" : "/frameworks/native/headers/media_plugin/media/openmax/OMX_Component.h"
  },
  {
   "alignment" : 4,
   "linker_set_key" : "OMX_ERRORTYPE (void *, unsigned int, OMX_BUFFERHEADERTYPE *)",
   "name" : "OMX_ERRORTYPE (void *, unsigned int, OMX_BUFFERHEADERTYPE *)",
   "parameters" :
   [
    {
     "referenced_type" : "type-8"
    },
    {
     "referenced_type" : "type-2"
    },
    {
     "referenced_type" : "type-1599"
    }
   ],
   "referenced_type" : "type-2385",
   "return_type" : "type-1497",
   "self_type" : "type-2385",
   "source_file" : "/frameworks/native/headers/media_plugin/media/openmax/OMX_Component.h"
  },
  {
   "alignment" : 4,
   "linker_set_key" : "OMX_ERRORTYPE (void *, unsigned int, void *, unsigned int, OMX_TUNNELSETUPTYPE *)",
   "name" : "OMX_ERRORTYPE (void *, unsigned int, void *, unsigned int, OMX_TUNNELSETUPTYPE *)",
   "parameters" :
   [
    {
     "referenced_type" : "type-8"
    },
    {
     "referenced_type" : "type-2"
    },
    {
     "referenced_type" : "type-8"
    },
    {
     "referenced_type" : "type-2"
    },
    {
     "referenced_type" : "type-2378"
    }
   ],
   "referenced_type" : "type-2377",
   "return_type" : "type-1497",
   "self_type" : "type-2377",
   "source_file" : "/frameworks/native/headers/media_plugin/media/openmax/OMX_Component.h"
  },
  {
   "alignment" : 4,
   "linker_set_key" : "OMX_ERRORTYPE (void *, void *, OMX_BUFFERHEADERTYPE *)",
   "name" : "OMX_ERRORTYPE (void *, void *, OMX_BUFFERHEADERTYPE *)",
   "parameters" :
   [
    {
     "referenced_type" : "type-8"
    },
    {
     "referenced_type" : "type-8"
    },
    {
     "referenced_type" : "type-1599"
    }
   ],
   "referenced_type" : "type-1598",
   "return_type" : "type-1497",
   "self_type" : "type-1598",
   "source_file" : "/frameworks/native/headers/media_plugin/media/openmax/OMX_Core.h"
  },
  {
   "alignment" : 4,
   "linker_set_key" : "OMX_ERRORTYPE (void *, void *, OMX_EVENTTYPE, unsigned int, unsigned int, void *)",
   "name" : "OMX_ERRORTYPE (void *, void *, OMX_EVENTTYPE, unsigned int, unsigned int, void *)",
   "parameters" :
   [
    {
     "referenced_type" : "type-8"
    },
    {
     "referenced_type" : "type-8"
    },
    {
     "referenced_type" : "type-1591"
    },
    {
     "referenced_type" : "type-2"
    },
    {
     "referenced_type" : "type-2"
    },
    {
     "referenced_type" : "type-8"
    }
   ],
   "referenced_type" : "type-1596",
   "return_type" : "type-1497",
   "self_type" : "type-1596",
   "source_file" : "/frameworks/native/headers/media_plugin/media/openmax/OMX_Core.h"
  },
  {
   "alignment" : 4,
   "linker_set_key" : "bool (const android::String16 &, const android::sp<android::IBinder> &, void *)",
   "name" : "bool (const android::String16 &, const android::sp<android::IBinder> &, void *)",
   "parameters" :
   [
    {
     "referenced_type" : "type-1250"
    },
    {
     "referenced_type" : "type-1042"
    },
    {
     "referenced_type" : "type-8"
    }
   ],
   "referenced_type" : "type-1249",
   "return_type" : "type-95",
   "self_type" : "type-1249",
   "source_file" : "/frameworks/native/libs/binder/include/binder/ProcessState.h"
  },
  {
   "alignment" : 4,
   "linker_set_key" : "bool (const android::String16 &, const android::sp<android::hardware::IBinder> &, void *)",
   "name" : "bool (const android::String16 &, const android::sp<android::hardware::IBinder> &, void *)",
   "parameters" :
   [
    {
     "referenced_type" : "type-1250"
    },
    {
     "referenced_type" : "type-1392"
    },
    {
     "referenced_type" : "type-8"
    }
   ],
   "referenced_type" : "type-1391",
   "return_type" : "type-95",
   "self_type" : "type-1391",
   "source_file" : "/system/libhwbinder/include/hwbinder/ProcessState.h"
  },
  {
   "alignment" : 4,
   "linker_set_key" : "int (void *)",
   "name" : "int (void *)",
   "parameters" :
   [
    {
     "referenced_type" : "type-8"
    }
   ],
   "referenced_type" : "type-308",
   "return_type" : "type-4",
   "self_type" : "type-308",
   "source_file" : "/system/core/libutils/include/utils/AndroidThreads.h"
  },
  {
   "alignment" : 4,
   "linker_set_key" : "void (android::Parcel *, const unsigned char *, unsigned long, const unsigned long long *, unsigned long, void *)",
   "name" : "void (android::Parcel *, const unsigned char *, unsigned long, const unsigned long long *, unsigned long, void *)",
   "parameters" :
   [
    {
     "referenced_type" : "type-98"
    },
    {
     "referenced_type" : "type-99"
    },
    {
     "referenced_type" : "type-11"
    },
    {
     "referenced_type" : "type-101"
    },
    {
     "referenced_type" : "type-11"
    },
    {
     "referenced_type" : "type-8"
    }
   ],
   "referenced_type" : "type-97",
   "return_type" : "type-9",
   "self_type" : "type-97",
   "source_file" : "/frameworks/native/libs/binder/include/binder/Parcel.h"
  },
  {
   "alignment" : 4,
   "linker_set_key" : "void (android::hardware::Parcel *, const unsigned char *, unsigned long, const unsigned long long *, unsigned long, void *)",
   "name" : "void (android::hardware::Parcel *, const unsigned char *, unsigned long, const unsigned long long *, unsigned long, void *)",
   "parameters" :
   [
    {
     "referenced_type" : "type-1385"
    },
    {
     "referenced_type" : "type-99"
    },
    {
     "referenced_type" : "type-11"
    },
    {
     "referenced_type" : "type-101"
    },
    {
     "referenced_type" : "type-11"
    },
    {
     "referenced_type" : "type-8"
    }
   ],
   "referenced_type" : "type-1384",
   "return_type" : "type-9",
   "self_type" : "type-1384",
   "source_file" : "/system/libhwbinder/include/hwbinder/Parcel.h"
  }
 ],
 "functions" :
 [
  {
   "access" : "protected",
   "function_name" : "android::BnInterface<android::IConsumerListener>::onAsBinder",
   "linker_set_key" : "_ZN7android11BnInterfaceINS_17IConsumerListenerEE10onAsBinderEv",
   "parameters" :
   [
    {
     "is_this_ptr" : true,
     "referenced_type" : "type-744"
    }
   ],
   "return_type" : "type-52",
   "source_file" : "/frameworks/native/libs/binder/include/binder/IInterface.h"
  },
  {
   "access" : "protected",
   "function_name" : "android::BnInterface<android::IProducerListener>::onAsBinder",
   "linker_set_key" : "_ZN7android11BnInterfaceINS_17IProducerListenerEE10onAsBinderEv",
   "parameters" :
   [
    {
     "is_this_ptr" : true,
     "referenced_type" : "type-4509"
    }
   ],
   "return_type" : "type-52",
   "source_file" : "/frameworks/native/libs/binder/include/binder/IInterface.h"
  },
  {
   "access" : "protected",
   "function_name" : "android::BnInterface<android::IGraphicBufferConsumer>::onAsBinder",
   "linker_set_key" : "_ZN7android11BnInterfaceINS_22IGraphicBufferConsumerEE10onAsBinderEv",
   "parameters" :
   [
    {
     "is_this_ptr" : true,
     "referenced_type" : "type-708"
    }
   ],
   "return_type" : "type-52",
   "source_file" : "/frameworks/native/libs/binder/include/binder/IInterface.h"
  },
  {
   "access" : "protected",
   "function_name" : "android::BnInterface<android::IGraphicBufferProducer>::onAsBinder",
   "linker_set_key" : "_ZN7android11BnInterfaceINS_22IGraphicBufferProducerEE10onAsBinderEv",
   "parameters" :
   [
    {
     "is_this_ptr" : true,
     "referenced_type" : "type-1275"
    }
   ],
   "return_type" : "type-52",
   "source_file" : "/frameworks/native/libs/binder/include/binder/IInterface.h"
  },
  {
   "function_name" : "android::FrameDropper::shouldDrop",
   "linker_set_key" : "_ZN7android12FrameDropper10shouldDropEl",
   "parameters" :
   [
    {
     "is_this_ptr" : true,
     "referenced_type" : "type-579"
    },
    {
     "referenced_type" : "type-32"
    }
   ],
   "return_type" : "type-95",
   "source_file" : "/frameworks/av/media/libstagefright/bqhelper/include/media/stagefright/bqhelper/FrameDropper.h"
  },
  {
   "function_name" : "android::FrameDropper::setMaxFrameRate",
   "linker_set_key" : "_ZN7android12FrameDropper15setMaxFrameRateEf",
   "parameters" :
   [
    {
     "is_this_ptr" : true,
     "referenced_type" : "type-579"
    },
    {
     "referenced_type" : "type-268"
    }
   ],
   "return_type" : "type-4",
   "source_file" : "/frameworks/av/media/libstagefright/bqhelper/include/media/stagefright/bqhelper/FrameDropper.h"
  },
  {
   "function_name" : "android::FrameDropper::FrameDropper",
   "linker_set_key" : "_ZN7android12FrameDropperC1Ev",
   "parameters" :
   [
    {
     "is_this_ptr" : true,
     "referenced_type" : "type-579"
    }
   ],
   "return_type" : "type-9",
   "source_file" : "/frameworks/av/media/libstagefright/bqhelper/include/media/stagefright/bqhelper/FrameDropper.h"
  },
  {
   "function_name" : "android::FrameDropper::FrameDropper",
   "linker_set_key" : "_ZN7android12FrameDropperC2Ev",
   "parameters" :
   [
    {
     "is_this_ptr" : true,
     "referenced_type" : "type-579"
    }
   ],
   "return_type" : "type-9",
   "source_file" : "/frameworks/av/media/libstagefright/bqhelper/include/media/stagefright/bqhelper/FrameDropper.h"
  },
  {
   "access" : "protected",
   "function_name" : "android::FrameDropper::~FrameDropper",
   "linker_set_key" : "_ZN7android12FrameDropperD0Ev",
   "parameters" :
   [
    {
     "is_this_ptr" : true,
     "referenced_type" : "type-579"
    }
   ],
   "return_type" : "type-9",
   "source_file" : "/frameworks/av/media/libstagefright/bqhelper/include/media/stagefright/bqhelper/FrameDropper.h"
  },
  {
   "access" : "protected",
   "function_name" : "android::FrameDropper::~FrameDropper",
   "linker_set_key" : "_ZN7android12FrameDropperD1Ev",
   "parameters" :
   [
    {
     "is_this_ptr" : true,
     "referenced_type" : "type-579"
    }
   ],
   "return_type" : "type-9",
   "source_file" : "/frameworks/av/media/libstagefright/bqhelper/include/media/stagefright/bqhelper/FrameDropper.h"
  },
  {
   "access" : "protected",
   "function_name" : "android::FrameDropper::~FrameDropper",
   "linker_set_key" : "_ZN7android12FrameDropperD2Ev",
   "parameters" :
   [
    {
     "is_this_ptr" : true,
     "referenced_type" : "type-579"
    }
   ],
   "return_type" : "type-9",
   "source_file" : "/frameworks/av/media/libstagefright/bqhelper/include/media/stagefright/bqhelper/FrameDropper.h"
  },
  {
   "function_name" : "android::GraphicBufferSource::setSuspend",
   "linker_set_key" : "_ZN7android19GraphicBufferSource10setSuspendEbl",
   "parameters" :
   [
    {
     "is_this_ptr" : true,
     "referenced_type" : "type-565"
    },
    {
     "referenced_type" : "type-95"
    },
    {
     "referenced_type" : "type-32"
    }
   ],
   "return_type" : "type-4",
   "source_file" : "/frameworks/av/media/libstagefright/bqhelper/include/media/stagefright/bqhelper/GraphicBufferSource.h"
  },
  {
   "function_name" : "android::GraphicBufferSource::setStopTimeUs",
   "linker_set_key" : "_ZN7android19GraphicBufferSource13setStopTimeUsEl",
   "parameters" :
   [
    {
     "is_this_ptr" : true,
     "referenced_type" : "type-565"
    },
    {
     "referenced_type" : "type-32"
    }
   ],
   "return_type" : "type-4",
   "source_file" : "/frameworks/av/media/libstagefright/bqhelper/include/media/stagefright/bqhelper/GraphicBufferSource.h"
  },
  {
   "function_name" : "android::GraphicBufferSource::setStartTimeUs",
   "linker_set_key" : "_ZN7android19GraphicBufferSource14setStartTimeUsEl",
   "parameters" :
   [
    {
     "is_this_ptr" : true,
     "referenced_type" : "type-565"
    },
    {
     "referenced_type" : "type-32"
    }
   ],
   "return_type" : "type-4",
   "source_file" : "/frameworks/av/media/libstagefright/bqhelper/include/media/stagefright/bqhelper/GraphicBufferSource.h"
  },
  {
   "access" : "private",
   "function_name" : "android::GraphicBufferSource::submitBuffer_l",
   "linker_set_key" : "_ZN7android19GraphicBufferSource14submitBuffer_lERKNS0_11VideoBufferE",
   "parameters" :
   [
    {
     "is_this_ptr" : true,
     "referenced_type" : "type-565"
    },
    {
     "referenced_type" : "type-177"
    }
   ],
   "return_type" : "type-4",
   "source_file" : "/frameworks/av/media/libstagefright/bqhelper/include/media/stagefright/bqhelper/GraphicBufferSource.h"
  },
  {
   "access" : "private",
   "function_name" : "android::GraphicBufferSource::acquireBuffer_l",
   "linker_set_key" : "_ZN7android19GraphicBufferSource15acquireBuffer_lEPNS0_11VideoBufferE",
   "parameters" :
   [
    {
     "is_this_ptr" : true,
     "referenced_type" : "type-565"
    },
    {
     "referenced_type" : "type-684"
    }
   ],
   "return_type" : "type-4",
   "source_file" : "/frameworks/av/media/libstagefright/bqhelper/include/media/stagefright/bqhelper/GraphicBufferSource.h"
  },
  {
   "function_name" : "android::GraphicBufferSource::setColorAspects",
   "linker_set_key" : "_ZN7android19GraphicBufferSource15setColorAspectsEi",
   "parameters" :
   [
    {
     "is_this_ptr" : true,
     "referenced_type" : "type-565"
    },
    {
     "referenced_type" : "type-4"
    }
   ],
   "return_type" : "type-4",
   "source_file" : "/frameworks/av/media/libstagefright/bqhelper/include/media/stagefright/bqhelper/GraphicBufferSource.h"
  },
  {
   "function_name" : "android::GraphicBufferSource::setTimeOffsetUs",
   "linker_set_key" : "_ZN7android19GraphicBufferSource15setTimeOffsetUsEl",
   "parameters" :
   [
    {
     "is_this_ptr" : true,
     "referenced_type" : "type-565"
    },
    {
     "referenced_type" : "type-32"
    }
   ],
   "return_type" : "type-4",
   "source_file" : "/frameworks/av/media/libstagefright/bqhelper/include/media/stagefright/bqhelper/GraphicBufferSource.h"
  },
  {
   "access" : "protected",
   "function_name" : "android::GraphicBufferSource::onFrameAvailable",
   "linker_set_key" : "_ZN7android19GraphicBufferSource16onFrameAvailableERKNS_10BufferItemE",
   "parameters" :
   [
    {
     "is_this_ptr" : true,
     "referenced_type" : "type-565"
    },
    {
     "referenced_type" : "type-683"
    }
   ],
   "return_type" : "type-9",
   "source_file" : "/frameworks/av/media/libstagefright/bqhelper/include/media/stagefright/bqhelper/GraphicBufferSource.h"
  },
  {
   "access" : "private",
   "function_name" : "android::GraphicBufferSource::fillCodecBuffer_l",
   "linker_set_key" : "_ZN7android19GraphicBufferSource17fillCodecBuffer_lEv",
   "parameters" :
   [
    {
     "is_this_ptr" : true,
     "referenced_type" : "type-565"
    }
   ],
   "return_type" : "type-95",
   "source_file" : "/frameworks/av/media/libstagefright/bqhelper/include/media/stagefright/bqhelper/GraphicBufferSource.h"
  },
  {
   "access" : "protected",
   "function_name" : "android::GraphicBufferSource::onBuffersReleased",
   "linker_set_key" : "_ZN7android19GraphicBufferSource17onBuffersReleasedEv",
   "parameters" :
   [
    {
     "is_this_ptr" : true,
     "referenced_type" : "type-565"
    }
   ],
   "return_type" : "type-9",
   "source_file" : "/frameworks/av/media/libstagefright/bqhelper/include/media/stagefright/bqhelper/GraphicBufferSource.h"
  },
  {
   "access" : "private",
   "function_name" : "android::GraphicBufferSource::onMessageReceived",
   "linker_set_key" : "_ZN7android19GraphicBufferSource17onMessageReceivedERKNS_2spINS_8AMessageEEE",
   "parameters" :
   [
    {
     "is_this_ptr" : true,
     "referenced_type" : "type-565"
    },
    {
     "referenced_type" : "type-2195"
    }
   ],
   "return_type" : "type-9",
   "source_file" : "/frameworks/av/media/libstagefright/bqhelper/include/media/stagefright/bqhelper/GraphicBufferSource.h"
  },
  {
   "access" : "private",
   "function_name" : "android::GraphicBufferSource::setLatestBuffer_l",
   "linker_set_key" : "_ZN7android19GraphicBufferSource17setLatestBuffer_lERKNS0_11VideoBufferE",
   "parameters" :
   [
    {
     "is_this_ptr" : true,
     "referenced_type" : "type-565"
    },
    {
     "referenced_type" : "type-177"
    }
   ],
   "return_type" : "type-9",
   "source_file" : "/frameworks/av/media/libstagefright/bqhelper/include/media/stagefright/bqhelper/GraphicBufferSource.h"
  },
  {
   "access" : "private",
   "function_name" : "android::GraphicBufferSource::onBufferAcquired_l",
   "linker_set_key" : "_ZN7android19GraphicBufferSource18onBufferAcquired_lERKNS0_11VideoBufferE",
   "parameters" :
   [
    {
     "is_this_ptr" : true,
     "referenced_type" : "type-565"
    },
    {
     "referenced_type" : "type-177"
    }
   ],
   "return_type" : "type-9",
   "source_file" : "/frameworks/av/media/libstagefright/bqhelper/include/media/stagefright/bqhelper/GraphicBufferSource.h"
  },
  {
   "function_name" : "android::GraphicBufferSource::onInputBufferAdded",
   "linker_set_key" : "_ZN7android19GraphicBufferSource18onInputBufferAddedEi",
   "parameters" :
   [
    {
     "is_this_ptr" : true,
     "referenced_type" : "type-565"
    },
    {
     "referenced_type" : "type-4"
    }
   ],
   "return_type" : "type-122",
   "source_file" : "/frameworks/av/media/libstagefright/bqhelper/include/media/stagefright/bqhelper/GraphicBufferSource.h"
  },
  {
   "access" : "private",
   "function_name" : "android::GraphicBufferSource::queueFrameRepeat_l",
   "linker_set_key" : "_ZN7android19GraphicBufferSource18queueFrameRepeat_lEv",
   "parameters" :
   [
    {
     "is_this_ptr" : true,
     "referenced_type" : "type-565"
    }
   ],
   "return_type" : "type-9",
   "source_file" : "/frameworks/av/media/libstagefright/bqhelper/include/media/stagefright/bqhelper/GraphicBufferSource.h"
  },
  {
   "function_name" : "android::GraphicBufferSource::setTimeLapseConfig",
   "linker_set_key" : "_ZN7android19GraphicBufferSource18setTimeLapseConfigEdd",
   "parameters" :
   [
    {
     "is_this_ptr" : true,
     "referenced_type" : "type-565"
    },
    {
     "referenced_type" : "type-269"
    },
    {
     "referenced_type" : "type-269"
    }
   ],
   "return_type" : "type-4",
   "source_file" : "/frameworks/av/media/libstagefright/bqhelper/include/media/stagefright/bqhelper/GraphicBufferSource.h"
  },
  {
   "function_name" : "android::GraphicBufferSource::getStopTimeOffsetUs",
   "linker_set_key" : "_ZN7android19GraphicBufferSource19getStopTimeOffsetUsEPl",
   "parameters" :
   [
    {
     "is_this_ptr" : true,
     "referenced_type" : "type-565"
    },
    {
     "referenced_type" : "type-679"
    }
   ],
   "return_type" : "type-4",
   "source_file" : "/frameworks/av/media/libstagefright/bqhelper/include/media/stagefright/bqhelper/GraphicBufferSource.h"
  },
  {
   "access" : "private",
   "function_name" : "android::GraphicBufferSource::onDataspaceChanged_l",
   "linker_set_key" : "_ZN7android19GraphicBufferSource20onDataspaceChanged_lE19android_dataspace_t22android_pixel_format_t",
   "parameters" :
   [
    {
     "is_this_ptr" : true,
     "referenced_type" : "type-565"
    },
    {
     "referenced_type" : "type-173"
    },
    {
     "referenced_type" : "type-278"
    }
   ],
   "return_type" : "type-9",
   "source_file" : "/frameworks/av/media/libstagefright/bqhelper/include/media/stagefright/bqhelper/GraphicBufferSource.h"
  },
  {
   "function_name" : "android::GraphicBufferSource::onInputBufferEmptied",
   "linker_set_key" : "_ZN7android19GraphicBufferSource20onInputBufferEmptiedEii",
   "parameters" :
   [
    {
     "is_this_ptr" : true,
     "referenced_type" : "type-565"
    },
    {
     "referenced_type" : "type-4"
    },
    {
     "referenced_type" : "type-4"
    }
   ],
   "return_type" : "type-122",
   "source_file" : "/frameworks/av/media/libstagefright/bqhelper/include/media/stagefright/bqhelper/GraphicBufferSource.h"
  },
  {
   "access" : "private",
   "function_name" : "android::GraphicBufferSource::repeatLatestBuffer_l",
   "linker_set_key" : "_ZN7android19GraphicBufferSource20repeatLatestBuffer_lEv",
   "parameters" :
   [
    {
     "is_this_ptr" : true,
     "referenced_type" : "type-565"
    }
   ],
   "return_type" : "type-95",
   "source_file" : "/frameworks/av/media/libstagefright/bqhelper/include/media/stagefright/bqhelper/GraphicBufferSource.h"
  },
  {
   "access" : "private",
   "function_name" : "android::GraphicBufferSource::discardBufferInSlot_l",
   "linker_set_key" : "_ZN7android19GraphicBufferSource21discardBufferInSlot_lEi",
   "parameters" :
   [
    {
     "is_this_ptr" : true,
     "referenced_type" : "type-565"
    },
    {
     "referenced_type" : "type-4"
    }
   ],
   "return_type" : "type-95",
   "source_file" : "/frameworks/av/media/libstagefright/bqhelper/include/media/stagefright/bqhelper/GraphicBufferSource.h"
  },
  {
   "function_name" : "android::GraphicBufferSource::signalEndOfInputStream",
   "linker_set_key" : "_ZN7android19GraphicBufferSource22signalEndOfInputStreamEv",
   "parameters" :
   [
    {
     "is_this_ptr" : true,
     "referenced_type" : "type-565"
    }
   ],
   "return_type" : "type-4",
   "source_file" : "/frameworks/av/media/libstagefright/bqhelper/include/media/stagefright/bqhelper/GraphicBufferSource.h"
  },
  {
   "access" : "protected",
   "function_name" : "android::GraphicBufferSource::onSidebandStreamChanged",
   "linker_set_key" : "_ZN7android19GraphicBufferSource23onSidebandStreamChangedEv",
   "parameters" :
   [
    {
     "is_this_ptr" : true,
     "referenced_type" : "type-565"
    }
   ],
   "return_type" : "type-9",
   "source_file" : "/frameworks/av/media/libstagefright/bqhelper/include/media/stagefright/bqhelper/GraphicBufferSource.h"
  },
  {
   "access" : "private",
   "function_name" : "android::GraphicBufferSource::submitEndOfInputStream_l",
   "linker_set_key" : "_ZN7android19GraphicBufferSource24submitEndOfInputStream_lEv",
   "parameters" :
   [
    {
     "is_this_ptr" : true,
     "referenced_type" : "type-565"
    }
   ],
   "return_type" : "type-9",
   "source_file" : "/frameworks/av/media/libstagefright/bqhelper/include/media/stagefright/bqhelper/GraphicBufferSource.h"
  },
  {
   "access" : "private",
   "function_name" : "android::GraphicBufferSource::calculateCodecTimestamp_l",
   "linker_set_key" : "_ZN7android19GraphicBufferSource25calculateCodecTimestamp_lElPl",
   "parameters" :
   [
    {
     "is_this_ptr" : true,
     "referenced_type" : "type-565"
    },
    {
     "referenced_type" : "type-32"
    },
    {
     "referenced_type" : "type-679"
    }
   ],
   "return_type" : "type-95",
   "source_file" : "/frameworks/av/media/libstagefright/bqhelper/include/media/stagefright/bqhelper/GraphicBufferSource.h"
  },
  {
   "access" : "private",
   "function_name" : "android::GraphicBufferSource::discardBufferAtSlotIndex_l",
   "linker_set_key" : "_ZN7android19GraphicBufferSource26discardBufferAtSlotIndex_lEl",
   "parameters" :
   [
    {
     "is_this_ptr" : true,
     "referenced_type" : "type-565"
    },
    {
     "referenced_type" : "type-32"
    }
   ],
   "return_type" : "type-9",
   "source_file" : "/frameworks/av/media/libstagefright/bqhelper/include/media/stagefright/bqhelper/GraphicBufferSource.h"
  },
  {
   "access" : "private",
   "function_name" : "android::GraphicBufferSource::releaseAllAvailableBuffers_l",
   "linker_set_key" : "_ZN7android19GraphicBufferSource28releaseAllAvailableBuffers_lEv",
   "parameters" :
   [
    {
     "is_this_ptr" : true,
     "referenced_type" : "type-565"
    }
   ],
   "return_type" : "type-9",
   "source_file" : "/frameworks/av/media/libstagefright/bqhelper/include/media/stagefright/bqhelper/GraphicBufferSource.h"
  },
  {
   "function_name" : "android::GraphicBufferSource::setRepeatPreviousFrameDelayUs",
   "linker_set_key" : "_ZN7android19GraphicBufferSource29setRepeatPreviousFrameDelayUsEl",
   "parameters" :
   [
    {
     "is_this_ptr" : true,
     "referenced_type" : "type-565"
    },
    {
     "referenced_type" : "type-32"
    }
   ],
   "return_type" : "type-4",
   "source_file" : "/frameworks/av/media/libstagefright/bqhelper/include/media/stagefright/bqhelper/GraphicBufferSource.h"
  },
  {
   "access" : "private",
   "function_name" : "android::GraphicBufferSource::areWeDiscardingAvailableBuffers_l",
   "linker_set_key" : "_ZN7android19GraphicBufferSource33areWeDiscardingAvailableBuffers_lEv",
   "parameters" :
   [
    {
     "is_this_ptr" : true,
     "referenced_type" : "type-565"
    }
   ],
   "return_type" : "type-95",
   "source_file" : "/frameworks/av/media/libstagefright/bqhelper/include/media/stagefright/bqhelper/GraphicBufferSource.h"
  },
  {
   "function_name" : "android::GraphicBufferSource::stop",
   "linker_set_key" : "_ZN7android19GraphicBufferSource4stopEv",
   "parameters" :
   [
    {
     "is_this_ptr" : true,
     "referenced_type" : "type-565"
    }
   ],
   "return_type" : "type-122",
   "source_file" : "/frameworks/av/media/libstagefright/bqhelper/include/media/stagefright/bqhelper/GraphicBufferSource.h"
  },
  {
   "function_name" : "android::GraphicBufferSource::start",
   "linker_set_key" : "_ZN7android19GraphicBufferSource5startEv",
   "parameters" :
   [
    {
     "is_this_ptr" : true,
     "referenced_type" : "type-565"
    }
   ],
   "return_type" : "type-122",
   "source_file" : "/frameworks/av/media/libstagefright/bqhelper/include/media/stagefright/bqhelper/GraphicBufferSource.h"
  },
  {
   "function_name" : "android::GraphicBufferSource::release",
   "linker_set_key" : "_ZN7android19GraphicBufferSource7releaseEv",
   "parameters" :
   [
    {
     "is_this_ptr" : true,
     "referenced_type" : "type-565"
    }
   ],
   "return_type" : "type-122",
   "source_file" : "/frameworks/av/media/libstagefright/bqhelper/include/media/stagefright/bqhelper/GraphicBufferSource.h"
  },
  {
   "function_name" : "android::GraphicBufferSource::configure",
   "linker_set_key" : "_ZN7android19GraphicBufferSource9configureERKNS_2spINS_16ComponentWrapperEEEiijjj",
   "parameters" :
   [
    {
     "is_this_ptr" : true,
     "referenced_type" : "type-565"
    },
    {
     "referenced_type" : "type-2497"
    },
    {
     "referenced_type" : "type-4"
    },
    {
     "referenced_type" : "type-4"
    },
    {
     "referenced_type" : "type-2"
    },
    {
     "referenced_type" : "type-2"
    },
    {
     "referenced_type" : "type-2"
    }
   ],
   "return_type" : "type-4",
   "source_file" : "/frameworks/av/media/libstagefright/bqhelper/include/media/stagefright/bqhelper/GraphicBufferSource.h"
  },
  {
   "function_name" : "android::GraphicBufferSource::setMaxFps",
   "linker_set_key" : "_ZN7android19GraphicBufferSource9setMaxFpsEf",
   "parameters" :
   [
    {
     "is_this_ptr" : true,
     "referenced_type" : "type-565"
    },
    {
     "referenced_type" : "type-268"
    }
   ],
   "return_type" : "type-4",
   "source_file" : "/frameworks/av/media/libstagefright/bqhelper/include/media/stagefright/bqhelper/GraphicBufferSource.h"
  },
  {
   "function_name" : "android::GraphicBufferSource::GraphicBufferSource",
   "linker_set_key" : "_ZN7android19GraphicBufferSourceC1Ev",
   "parameters" :
   [
    {
     "is_this_ptr" : true,
     "referenced_type" : "type-565"
    }
   ],
   "return_type" : "type-9",
   "source_file" : "/frameworks/av/media/libstagefright/bqhelper/include/media/stagefright/bqhelper/GraphicBufferSource.h"
  },
  {
   "function_name" : "android::GraphicBufferSource::GraphicBufferSource",
   "linker_set_key" : "_ZN7android19GraphicBufferSourceC2Ev",
   "parameters" :
   [
    {
     "is_this_ptr" : true,
     "referenced_type" : "type-565"
    }
   ],
   "return_type" : "type-9",
   "source_file" : "/frameworks/av/media/libstagefright/bqhelper/include/media/stagefright/bqhelper/GraphicBufferSource.h"
  },
  {
   "function_name" : "android::GraphicBufferSource::~GraphicBufferSource",
   "linker_set_key" : "_ZN7android19GraphicBufferSourceD0Ev",
   "parameters" :
   [
    {
     "is_this_ptr" : true,
     "referenced_type" : "type-565"
    }
   ],
   "return_type" : "type-9",
   "source_file" : "/frameworks/av/media/libstagefright/bqhelper/include/media/stagefright/bqhelper/GraphicBufferSource.h"
  },
  {
   "function_name" : "android::GraphicBufferSource::~GraphicBufferSource",
   "linker_set_key" : "_ZN7android19GraphicBufferSourceD1Ev",
   "parameters" :
   [
    {
     "is_this_ptr" : true,
     "referenced_type" : "type-565"
    }
   ],
   "return_type" : "type-9",
   "source_file" : "/frameworks/av/media/libstagefright/bqhelper/include/media/stagefright/bqhelper/GraphicBufferSource.h"
  },
  {
   "function_name" : "android::GraphicBufferSource::~GraphicBufferSource",
   "linker_set_key" : "_ZN7android19GraphicBufferSourceD2Ev",
   "parameters" :
   [
    {
     "is_this_ptr" : true,
     "referenced_type" : "type-565"
    }
   ],
   "return_type" : "type-9",
   "source_file" : "/frameworks/av/media/libstagefright/bqhelper/include/media/stagefright/bqhelper/GraphicBufferSource.h"
  },
  {
   "function_name" : "android::sp<android::Fence>::operator=",
   "linker_set_key" : "_ZN7android2spINS_5FenceEEaSEPS1_",
   "parameters" :
   [
    {
     "is_this_ptr" : true,
     "referenced_type" : "type-2527"
    },
    {
     "referenced_type" : "type-725"
    }
   ],
   "return_type" : "type-2531",
   "source_file" : "/system/core/libutils/include/utils/StrongPointer.h"
  },
  {
   "function_name" : "android::sp<android::Fence>::operator=",
   "linker_set_key" : "_ZN7android2spINS_5FenceEEaSERKS2_",
   "parameters" :
   [
    {
     "is_this_ptr" : true,
     "referenced_type" : "type-2527"
    },
    {
     "referenced_type" : "type-1867"
    }
   ],
   "return_type" : "type-2531",
   "source_file" : "/system/core/libutils/include/utils/StrongPointer.h"
  },
  {
   "access" : "protected",
   "function_name" : "android::SortedVector<android::key_value_pair_t<int, std::__1::shared_ptr<android::GraphicBufferSource::CachedBuffer> > >::do_compare",
   "linker_set_key" : "_ZNK7android12SortedVectorINS_16key_value_pair_tIiNSt3__110shared_ptrINS_19GraphicBufferSource12CachedBufferEEEEEE10do_compareEPKvSA_",
   "parameters" :
   [
    {
     "is_this_ptr" : true,
     "referenced_type" : "type-2678"
    },
    {
     "referenced_type" : "type-12"
    },
    {
     "referenced_type" : "type-12"
    }
   ],
   "return_type" : "type-4",
   "source_file" : "/system/core/libutils/include/utils/SortedVector.h"
  },
  {
   "access" : "protected",
   "function_name" : "android::SortedVector<android::key_value_pair_t<int, std::__1::shared_ptr<android::GraphicBufferSource::CachedBuffer> > >::do_destroy",
   "linker_set_key" : "_ZNK7android12SortedVectorINS_16key_value_pair_tIiNSt3__110shared_ptrINS_19GraphicBufferSource12CachedBufferEEEEEE10do_destroyEPvm",
   "parameters" :
   [
    {
     "is_this_ptr" : true,
     "referenced_type" : "type-2678"
    },
    {
     "referenced_type" : "type-8"
    },
    {
     "referenced_type" : "type-11"
    }
   ],
   "return_type" : "type-9",
   "source_file" : "/system/core/libutils/include/utils/SortedVector.h"
  },
  {
   "access" : "protected",
   "function_name" : "android::SortedVector<android::key_value_pair_t<int, std::__1::shared_ptr<android::GraphicBufferSource::CachedBuffer> > >::do_construct",
   "linker_set_key" : "_ZNK7android12SortedVectorINS_16key_value_pair_tIiNSt3__110shared_ptrINS_19GraphicBufferSource12CachedBufferEEEEEE12do_constructEPvm",
   "parameters" :
   [
    {
     "is_this_ptr" : true,
     "referenced_type" : "type-2678"
    },
    {
     "referenced_type" : "type-8"
    },
    {
     "referenced_type" : "type-11"
    }
   ],
   "return_type" : "type-9",
   "source_file" : "/system/core/libutils/include/utils/SortedVector.h"
  },
  {
   "access" : "protected",
   "function_name" : "android::SortedVector<android::key_value_pair_t<int, std::__1::shared_ptr<android::GraphicBufferSource::CachedBuffer> > >::do_move_forward",
   "linker_set_key" : "_ZNK7android12SortedVectorINS_16key_value_pair_tIiNSt3__110shared_ptrINS_19GraphicBufferSource12CachedBufferEEEEEE15do_move_forwardEPvPKvm",
   "parameters" :
   [
    {
     "is_this_ptr" : true,
     "referenced_type" : "type-2678"
    },
    {
     "referenced_type" : "type-8"
    },
    {
     "referenced_type" : "type-12"
    },
    {
     "referenced_type" : "type-11"
    }
   ],
   "return_type" : "type-9",
   "source_file" : "/system/core/libutils/include/utils/SortedVector.h"
  },
  {
   "access" : "protected",
   "function_name" : "android::SortedVector<android::key_value_pair_t<int, std::__1::shared_ptr<android::GraphicBufferSource::CachedBuffer> > >::do_move_backward",
   "linker_set_key" : "_ZNK7android12SortedVectorINS_16key_value_pair_tIiNSt3__110shared_ptrINS_19GraphicBufferSource12CachedBufferEEEEEE16do_move_backwardEPvPKvm",
   "parameters" :
   [
    {
     "is_this_ptr" : true,
     "referenced_type" : "type-2678"
    },
    {
     "referenced_type" : "type-8"
    },
    {
     "referenced_type" : "type-12"
    },
    {
     "referenced_type" : "type-11"
    }
   ],
   "return_type" : "type-9",
   "source_file" : "/system/core/libutils/include/utils/SortedVector.h"
  },
  {
   "access" : "protected",
   "function_name" : "android::SortedVector<android::key_value_pair_t<int, std::__1::shared_ptr<android::GraphicBufferSource::CachedBuffer> > >::do_copy",
   "linker_set_key" : "_ZNK7android12SortedVectorINS_16key_value_pair_tIiNSt3__110shared_ptrINS_19GraphicBufferSource12CachedBufferEEEEEE7do_copyEPvPKvm",
   "parameters" :
   [
    {
     "is_this_ptr" : true,
     "referenced_type" : "type-2678"
    },
    {
     "referenced_type" : "type-8"
    },
    {
     "referenced_type" : "type-12"
    },
    {
     "referenced_type" : "type-11"
    }
   ],
   "return_type" : "type-9",
   "source_file" : "/system/core/libutils/include/utils/SortedVector.h"
  },
  {
   "access" : "protected",
   "function_name" : "android::SortedVector<android::key_value_pair_t<int, std::__1::shared_ptr<android::GraphicBufferSource::CachedBuffer> > >::do_splat",
   "linker_set_key" : "_ZNK7android12SortedVectorINS_16key_value_pair_tIiNSt3__110shared_ptrINS_19GraphicBufferSource12CachedBufferEEEEEE8do_splatEPvPKvm",
   "parameters" :
   [
    {
     "is_this_ptr" : true,
     "referenced_type" : "type-2678"
    },
    {
     "referenced_type" : "type-8"
    },
    {
     "referenced_type" : "type-12"
    },
    {
     "referenced_type" : "type-11"
    }
   ],
   "return_type" : "type-9",
   "source_file" : "/system/core/libutils/include/utils/SortedVector.h"
  },
  {
   "access" : "protected",
   "function_name" : "android::SortedVector<android::key_value_pair_t<int, std::__1::shared_ptr<android::GraphicBufferSource::AcquiredBuffer> > >::do_compare",
   "linker_set_key" : "_ZNK7android12SortedVectorINS_16key_value_pair_tIiNSt3__110shared_ptrINS_19GraphicBufferSource14AcquiredBufferEEEEEE10do_compareEPKvSA_",
   "parameters" :
   [
    {
     "is_this_ptr" : true,
     "referenced_type" : "type-2681"
    },
    {
     "referenced_type" : "type-12"
    },
    {
     "referenced_type" : "type-12"
    }
   ],
   "return_type" : "type-4",
   "source_file" : "/system/core/libutils/include/utils/SortedVector.h"
  },
  {
   "access" : "protected",
   "function_name" : "android::SortedVector<android::key_value_pair_t<int, std::__1::shared_ptr<android::GraphicBufferSource::AcquiredBuffer> > >::do_destroy",
   "linker_set_key" : "_ZNK7android12SortedVectorINS_16key_value_pair_tIiNSt3__110shared_ptrINS_19GraphicBufferSource14AcquiredBufferEEEEEE10do_destroyEPvm",
   "parameters" :
   [
    {
     "is_this_ptr" : true,
     "referenced_type" : "type-2681"
    },
    {
     "referenced_type" : "type-8"
    },
    {
     "referenced_type" : "type-11"
    }
   ],
   "return_type" : "type-9",
   "source_file" : "/system/core/libutils/include/utils/SortedVector.h"
  },
  {
   "access" : "protected",
   "function_name" : "android::SortedVector<android::key_value_pair_t<int, std::__1::shared_ptr<android::GraphicBufferSource::AcquiredBuffer> > >::do_construct",
   "linker_set_key" : "_ZNK7android12SortedVectorINS_16key_value_pair_tIiNSt3__110shared_ptrINS_19GraphicBufferSource14AcquiredBufferEEEEEE12do_constructEPvm",
   "parameters" :
   [
    {
     "is_this_ptr" : true,
     "referenced_type" : "type-2681"
    },
    {
     "referenced_type" : "type-8"
    },
    {
     "referenced_type" : "type-11"
    }
   ],
   "return_type" : "type-9",
   "source_file" : "/system/core/libutils/include/utils/SortedVector.h"
  },
  {
   "access" : "protected",
   "function_name" : "android::SortedVector<android::key_value_pair_t<int, std::__1::shared_ptr<android::GraphicBufferSource::AcquiredBuffer> > >::do_move_forward",
   "linker_set_key" : "_ZNK7android12SortedVectorINS_16key_value_pair_tIiNSt3__110shared_ptrINS_19GraphicBufferSource14AcquiredBufferEEEEEE15do_move_forwardEPvPKvm",
   "parameters" :
   [
    {
     "is_this_ptr" : true,
     "referenced_type" : "type-2681"
    },
    {
     "referenced_type" : "type-8"
    },
    {
     "referenced_type" : "type-12"
    },
    {
     "referenced_type" : "type-11"
    }
   ],
   "return_type" : "type-9",
   "source_file" : "/system/core/libutils/include/utils/SortedVector.h"
  },
  {
   "access" : "protected",
   "function_name" : "android::SortedVector<android::key_value_pair_t<int, std::__1::shared_ptr<android::GraphicBufferSource::AcquiredBuffer> > >::do_move_backward",
   "linker_set_key" : "_ZNK7android12SortedVectorINS_16key_value_pair_tIiNSt3__110shared_ptrINS_19GraphicBufferSource14AcquiredBufferEEEEEE16do_move_backwardEPvPKvm",
   "parameters" :
   [
    {
     "is_this_ptr" : true,
     "referenced_type" : "type-2681"
    },
    {
     "referenced_type" : "type-8"
    },
    {
     "referenced_type" : "type-12"
    },
    {
     "referenced_type" : "type-11"
    }
   ],
   "return_type" : "type-9",
   "source_file" : "/system/core/libutils/include/utils/SortedVector.h"
  },
  {
   "access" : "protected",
   "function_name" : "android::SortedVector<android::key_value_pair_t<int, std::__1::shared_ptr<android::GraphicBufferSource::AcquiredBuffer> > >::do_copy",
   "linker_set_key" : "_ZNK7android12SortedVectorINS_16key_value_pair_tIiNSt3__110shared_ptrINS_19GraphicBufferSource14AcquiredBufferEEEEEE7do_copyEPvPKvm",
   "parameters" :
   [
    {
     "is_this_ptr" : true,
     "referenced_type" : "type-2681"
    },
    {
     "referenced_type" : "type-8"
    },
    {
     "referenced_type" : "type-12"
    },
    {
     "referenced_type" : "type-11"
    }
   ],
   "return_type" : "type-9",
   "source_file" : "/system/core/libutils/include/utils/SortedVector.h"
  },
  {
   "access" : "protected",
   "function_name" : "android::SortedVector<android::key_value_pair_t<int, std::__1::shared_ptr<android::GraphicBufferSource::AcquiredBuffer> > >::do_splat",
   "linker_set_key" : "_ZNK7android12SortedVectorINS_16key_value_pair_tIiNSt3__110shared_ptrINS_19GraphicBufferSource14AcquiredBufferEEEEEE8do_splatEPvPKvm",
   "parameters" :
   [
    {
     "is_this_ptr" : true,
     "referenced_type" : "type-2681"
    },
    {
     "referenced_type" : "type-8"
    },
    {
     "referenced_type" : "type-12"
    },
    {
     "referenced_type" : "type-11"
    }
   ],
   "return_type" : "type-9",
   "source_file" : "/system/core/libutils/include/utils/SortedVector.h"
  },
  {
   "access" : "protected",
   "function_name" : "android::SortedVector<android::key_value_pair_t<unsigned int, unsigned int> >::do_compare",
   "linker_set_key" : "_ZNK7android12SortedVectorINS_16key_value_pair_tIjjEEE10do_compareEPKvS5_",
   "parameters" :
   [
    {
     "is_this_ptr" : true,
     "referenced_type" : "type-2673"
    },
    {
     "referenced_type" : "type-12"
    },
    {
     "referenced_type" : "type-12"
    }
   ],
   "return_type" : "type-4",
   "source_file" : "/system/core/libutils/include/utils/SortedVector.h"
  },
  {
   "access" : "protected",
   "function_name" : "android::SortedVector<android::key_value_pair_t<unsigned int, unsigned int> >::do_destroy",
   "linker_set_key" : "_ZNK7android12SortedVectorINS_16key_value_pair_tIjjEEE10do_destroyEPvm",
   "parameters" :
   [
    {
     "is_this_ptr" : true,
     "referenced_type" : "type-2673"
    },
    {
     "referenced_type" : "type-8"
    },
    {
     "referenced_type" : "type-11"
    }
   ],
   "return_type" : "type-9",
   "source_file" : "/system/core/libutils/include/utils/SortedVector.h"
  },
  {
   "access" : "protected",
   "function_name" : "android::SortedVector<android::key_value_pair_t<unsigned int, unsigned int> >::do_construct",
   "linker_set_key" : "_ZNK7android12SortedVectorINS_16key_value_pair_tIjjEEE12do_constructEPvm",
   "parameters" :
   [
    {
     "is_this_ptr" : true,
     "referenced_type" : "type-2673"
    },
    {
     "referenced_type" : "type-8"
    },
    {
     "referenced_type" : "type-11"
    }
   ],
   "return_type" : "type-9",
   "source_file" : "/system/core/libutils/include/utils/SortedVector.h"
  },
  {
   "access" : "protected",
   "function_name" : "android::SortedVector<android::key_value_pair_t<unsigned int, unsigned int> >::do_move_forward",
   "linker_set_key" : "_ZNK7android12SortedVectorINS_16key_value_pair_tIjjEEE15do_move_forwardEPvPKvm",
   "parameters" :
   [
    {
     "is_this_ptr" : true,
     "referenced_type" : "type-2673"
    },
    {
     "referenced_type" : "type-8"
    },
    {
     "referenced_type" : "type-12"
    },
    {
     "referenced_type" : "type-11"
    }
   ],
   "return_type" : "type-9",
   "source_file" : "/system/core/libutils/include/utils/SortedVector.h"
  },
  {
   "access" : "protected",
   "function_name" : "android::SortedVector<android::key_value_pair_t<unsigned int, unsigned int> >::do_move_backward",
   "linker_set_key" : "_ZNK7android12SortedVectorINS_16key_value_pair_tIjjEEE16do_move_backwardEPvPKvm",
   "parameters" :
   [
    {
     "is_this_ptr" : true,
     "referenced_type" : "type-2673"
    },
    {
     "referenced_type" : "type-8"
    },
    {
     "referenced_type" : "type-12"
    },
    {
     "referenced_type" : "type-11"
    }
   ],
   "return_type" : "type-9",
   "source_file" : "/system/core/libutils/include/utils/SortedVector.h"
  },
  {
   "access" : "protected",
   "function_name" : "android::SortedVector<android::key_value_pair_t<unsigned int, unsigned int> >::do_copy",
   "linker_set_key" : "_ZNK7android12SortedVectorINS_16key_value_pair_tIjjEEE7do_copyEPvPKvm",
   "parameters" :
   [
    {
     "is_this_ptr" : true,
     "referenced_type" : "type-2673"
    },
    {
     "referenced_type" : "type-8"
    },
    {
     "referenced_type" : "type-12"
    },
    {
     "referenced_type" : "type-11"
    }
   ],
   "return_type" : "type-9",
   "source_file" : "/system/core/libutils/include/utils/SortedVector.h"
  },
  {
   "access" : "protected",
   "function_name" : "android::SortedVector<android::key_value_pair_t<unsigned int, unsigned int> >::do_splat",
   "linker_set_key" : "_ZNK7android12SortedVectorINS_16key_value_pair_tIjjEEE8do_splatEPvPKvm",
   "parameters" :
   [
    {
     "is_this_ptr" : true,
     "referenced_type" : "type-2673"
    },
    {
     "referenced_type" : "type-8"
    },
    {
     "referenced_type" : "type-12"
    },
    {
     "referenced_type" : "type-11"
    }
   ],
   "return_type" : "type-9",
   "source_file" : "/system/core/libutils/include/utils/SortedVector.h"
  },
  {
   "function_name" : "android::GraphicBufferSource::getHGraphicBufferProducer",
   "linker_set_key" : "_ZNK7android19GraphicBufferSource25getHGraphicBufferProducerEv",
   "parameters" :
   [
    {
     "is_this_ptr" : true,
     "referenced_type" : "type-2552"
    }
   ],
   "return_type" : "type-2481",
   "source_file" : "/frameworks/av/media/libstagefright/bqhelper/include/media/stagefright/bqhelper/GraphicBufferSource.h"
  },
  {
   "function_name" : "android::GraphicBufferSource::getIGraphicBufferProducer",
   "linker_set_key" : "_ZNK7android19GraphicBufferSource25getIGraphicBufferProducerEv",
   "parameters" :
   [
    {
     "is_this_ptr" : true,
     "referenced_type" : "type-2552"
    }
   ],
   "return_type" : "type-570",
   "source_file" : "/frameworks/av/media/libstagefright/bqhelper/include/media/stagefright/bqhelper/GraphicBufferSource.h"
  },
  {
   "function_name" : "android::GraphicBufferSource::getHGraphicBufferProducer_V1_0",
   "linker_set_key" : "_ZNK7android19GraphicBufferSource30getHGraphicBufferProducer_V1_0Ev",
   "parameters" :
   [
    {
     "is_this_ptr" : true,
     "referenced_type" : "type-2552"
    }
   ],
   "return_type" : "type-2468",
   "source_file" : "/frameworks/av/media/libstagefright/bqhelper/include/media/stagefright/bqhelper/GraphicBufferSource.h"
  },
  {
   "function_name" : "android::Parcel::readParcelableVector",
   "linker_set_key" : "_ZNK7android6Parcel20readParcelableVectorINS_16OccupancyTracker7SegmentEEEiPNSt3__16vectorIT_NS4_9allocatorIS6_EEEE",
   "parameters" :
   [
    {
     "is_this_ptr" : true,
     "referenced_type" : "type-1518"
    },
    {
     "referenced_type" : "type-1653"
    }
   ],
   "return_type" : "type-4",
   "source_file" : "/frameworks/native/libs/binder/include/binder/Parcel.h",
   "template_args" : [ "type-3131" ]
  },
  {
   "function_name" : "android::Parcel::readNullableStrongBinder",
   "linker_set_key" : "_ZNK7android6Parcel24readNullableStrongBinderINS_17IConsumerListenerEEEiPNS_2spIT_EE",
   "parameters" :
   [
    {
     "is_this_ptr" : true,
     "referenced_type" : "type-1518"
    },
    {
     "referenced_type" : "type-2539"
    }
   ],
   "return_type" : "type-4",
   "source_file" : "/frameworks/native/libs/binder/include/binder/Parcel.h",
   "template_args" : [ "type-3134" ]
  },
  {
   "access" : "protected",
   "function_name" : "android::Vector<android::BufferItem>::do_destroy",
   "linker_set_key" : "_ZNK7android6VectorINS_10BufferItemEE10do_destroyEPvm",
   "parameters" :
   [
    {
     "is_this_ptr" : true,
     "referenced_type" : "type-981"
    },
    {
     "referenced_type" : "type-8"
    },
    {
     "referenced_type" : "type-11"
    }
   ],
   "return_type" : "type-9",
   "source_file" : "/system/core/libutils/include/utils/Vector.h"
  },
  {
   "access" : "protected",
   "function_name" : "android::Vector<android::BufferItem>::do_construct",
   "linker_set_key" : "_ZNK7android6VectorINS_10BufferItemEE12do_constructEPvm",
   "parameters" :
   [
    {
     "is_this_ptr" : true,
     "referenced_type" : "type-981"
    },
    {
     "referenced_type" : "type-8"
    },
    {
     "referenced_type" : "type-11"
    }
   ],
   "return_type" : "type-9",
   "source_file" : "/system/core/libutils/include/utils/Vector.h"
  },
  {
   "access" : "protected",
   "function_name" : "android::Vector<android::BufferItem>::do_move_forward",
   "linker_set_key" : "_ZNK7android6VectorINS_10BufferItemEE15do_move_forwardEPvPKvm",
   "parameters" :
   [
    {
     "is_this_ptr" : true,
     "referenced_type" : "type-981"
    },
    {
     "referenced_type" : "type-8"
    },
    {
     "referenced_type" : "type-12"
    },
    {
     "referenced_type" : "type-11"
    }
   ],
   "return_type" : "type-9",
   "source_file" : "/system/core/libutils/include/utils/Vector.h"
  },
  {
   "access" : "protected",
   "function_name" : "android::Vector<android::BufferItem>::do_move_backward",
   "linker_set_key" : "_ZNK7android6VectorINS_10BufferItemEE16do_move_backwardEPvPKvm",
   "parameters" :
   [
    {
     "is_this_ptr" : true,
     "referenced_type" : "type-981"
    },
    {
     "referenced_type" : "type-8"
    },
    {
     "referenced_type" : "type-12"
    },
    {
     "referenced_type" : "type-11"
    }
   ],
   "return_type" : "type-9",
   "source_file" : "/system/core/libutils/include/utils/Vector.h"
  },
  {
   "access" : "protected",
   "function_name" : "android::Vector<android::BufferItem>::do_copy",
   "linker_set_key" : "_ZNK7android6VectorINS_10BufferItemEE7do_copyEPvPKvm",
   "parameters" :
   [
    {
     "is_this_ptr" : true,
     "referenced_type" : "type-981"
    },
    {
     "referenced_type" : "type-8"
    },
    {
     "referenced_type" : "type-12"
    },
    {
     "referenced_type" : "type-11"
    }
   ],
   "return_type" : "type-9",
   "source_file" : "/system/core/libutils/include/utils/Vector.h"
  },
  {
   "access" : "protected",
   "function_name" : "android::Vector<android::BufferItem>::do_splat",
   "linker_set_key" : "_ZNK7android6VectorINS_10BufferItemEE8do_splatEPvPKvm",
   "parameters" :
   [
    {
     "is_this_ptr" : true,
     "referenced_type" : "type-981"
    },
    {
     "referenced_type" : "type-8"
    },
    {
     "referenced_type" : "type-12"
    },
    {
     "referenced_type" : "type-11"
    }
   ],
   "return_type" : "type-9",
   "source_file" : "/system/core/libutils/include/utils/Vector.h"
  },
  {
   "access" : "protected",
   "function_name" : "android::Vector<android::sp<android::GraphicBuffer> >::do_destroy",
   "linker_set_key" : "_ZNK7android6VectorINS_2spINS_13GraphicBufferEEEE10do_destroyEPvm",
   "parameters" :
   [
    {
     "is_this_ptr" : true,
     "referenced_type" : "type-1232"
    },
    {
     "referenced_type" : "type-8"
    },
    {
     "referenced_type" : "type-11"
    }
   ],
   "return_type" : "type-9",
   "source_file" : "/system/core/libutils/include/utils/Vector.h"
  },
  {
   "access" : "protected",
   "function_name" : "android::Vector<android::sp<android::GraphicBuffer> >::do_construct",
   "linker_set_key" : "_ZNK7android6VectorINS_2spINS_13GraphicBufferEEEE12do_constructEPvm",
   "parameters" :
   [
    {
     "is_this_ptr" : true,
     "referenced_type" : "type-1232"
    },
    {
     "referenced_type" : "type-8"
    },
    {
     "referenced_type" : "type-11"
    }
   ],
   "return_type" : "type-9",
   "source_file" : "/system/core/libutils/include/utils/Vector.h"
  },
  {
   "access" : "protected",
   "function_name" : "android::Vector<android::sp<android::GraphicBuffer> >::do_move_forward",
   "linker_set_key" : "_ZNK7android6VectorINS_2spINS_13GraphicBufferEEEE15do_move_forwardEPvPKvm",
   "parameters" :
   [
    {
     "is_this_ptr" : true,
     "referenced_type" : "type-1232"
    },
    {
     "referenced_type" : "type-8"
    },
    {
     "referenced_type" : "type-12"
    },
    {
     "referenced_type" : "type-11"
    }
   ],
   "return_type" : "type-9",
   "source_file" : "/system/core/libutils/include/utils/Vector.h"
  },
  {
   "access" : "protected",
   "function_name" : "android::Vector<android::sp<android::GraphicBuffer> >::do_move_backward",
   "linker_set_key" : "_ZNK7android6VectorINS_2spINS_13GraphicBufferEEEE16do_move_backwardEPvPKvm",
   "parameters" :
   [
    {
     "is_this_ptr" : true,
     "referenced_type" : "type-1232"
    },
    {
     "referenced_type" : "type-8"
    },
    {
     "referenced_type" : "type-12"
    },
    {
     "referenced_type" : "type-11"
    }
   ],
   "return_type" : "type-9",
   "source_file" : "/system/core/libutils/include/utils/Vector.h"
  },
  {
   "access" : "protected",
   "function_name" : "android::Vector<android::sp<android::GraphicBuffer> >::do_copy",
   "linker_set_key" : "_ZNK7android6VectorINS_2spINS_13GraphicBufferEEEE7do_copyEPvPKvm",
   "parameters" :
   [
    {
     "is_this_ptr" : true,
     "referenced_type" : "type-1232"
    },
    {
     "referenced_type" : "type-8"
    },
    {
     "referenced_type" : "type-12"
    },
    {
     "referenced_type" : "type-11"
    }
   ],
   "return_type" : "type-9",
   "source_file" : "/system/core/libutils/include/utils/Vector.h"
  },
  {
   "access" : "protected",
   "function_name" : "android::Vector<android::sp<android::GraphicBuffer> >::do_splat",
   "linker_set_key" : "_ZNK7android6VectorINS_2spINS_13GraphicBufferEEEE8do_splatEPvPKvm",
   "parameters" :
   [
    {
     "is_this_ptr" : true,
     "referenced_type" : "type-1232"
    },
    {
     "referenced_type" : "type-8"
    },
    {
     "referenced_type" : "type-12"
    },
    {
     "referenced_type" : "type-11"
    }
   ],
   "return_type" : "type-9",
   "source_file" : "/system/core/libutils/include/utils/Vector.h"
  },
  {
   "access" : "protected",
   "function_name" : "android::Vector<int>::do_destroy",
   "linker_set_key" : "_ZNK7android6VectorIiE10do_destroyEPvm",
   "parameters" :
   [
    {
     "is_this_ptr" : true,
     "referenced_type" : "type-2694"
    },
    {
     "referenced_type" : "type-8"
    },
    {
     "referenced_type" : "type-11"
    }
   ],
   "return_type" : "type-9",
   "source_file" : "/system/core/libutils/include/utils/Vector.h"
  },
  {
   "access" : "protected",
   "function_name" : "android::Vector<int>::do_construct",
   "linker_set_key" : "_ZNK7android6VectorIiE12do_constructEPvm",
   "parameters" :
   [
    {
     "is_this_ptr" : true,
     "referenced_type" : "type-2694"
    },
    {
     "referenced_type" : "type-8"
    },
    {
     "referenced_type" : "type-11"
    }
   ],
   "return_type" : "type-9",
   "source_file" : "/system/core/libutils/include/utils/Vector.h"
  },
  {
   "access" : "protected",
   "function_name" : "android::Vector<int>::do_move_forward",
   "linker_set_key" : "_ZNK7android6VectorIiE15do_move_forwardEPvPKvm",
   "parameters" :
   [
    {
     "is_this_ptr" : true,
     "referenced_type" : "type-2694"
    },
    {
     "referenced_type" : "type-8"
    },
    {
     "referenced_type" : "type-12"
    },
    {
     "referenced_type" : "type-11"
    }
   ],
   "return_type" : "type-9",
   "source_file" : "/system/core/libutils/include/utils/Vector.h"
  },
  {
   "access" : "protected",
   "function_name" : "android::Vector<int>::do_move_backward",
   "linker_set_key" : "_ZNK7android6VectorIiE16do_move_backwardEPvPKvm",
   "parameters" :
   [
    {
     "is_this_ptr" : true,
     "referenced_type" : "type-2694"
    },
    {
     "referenced_type" : "type-8"
    },
    {
     "referenced_type" : "type-12"
    },
    {
     "referenced_type" : "type-11"
    }
   ],
   "return_type" : "type-9",
   "source_file" : "/system/core/libutils/include/utils/Vector.h"
  },
  {
   "access" : "protected",
   "function_name" : "android::Vector<int>::do_copy",
   "linker_set_key" : "_ZNK7android6VectorIiE7do_copyEPvPKvm",
   "parameters" :
   [
    {
     "is_this_ptr" : true,
     "referenced_type" : "type-2694"
    },
    {
     "referenced_type" : "type-8"
    },
    {
     "referenced_type" : "type-12"
    },
    {
     "referenced_type" : "type-11"
    }
   ],
   "return_type" : "type-9",
   "source_file" : "/system/core/libutils/include/utils/Vector.h"
  },
  {
   "access" : "protected",
   "function_name" : "android::Vector<int>::do_splat",
   "linker_set_key" : "_ZNK7android6VectorIiE8do_splatEPvPKvm",
   "parameters" :
   [
    {
     "is_this_ptr" : true,
     "referenced_type" : "type-2694"
    },
    {
     "referenced_type" : "type-8"
    },
    {
     "referenced_type" : "type-12"
    },
    {
     "referenced_type" : "type-11"
    }
   ],
   "return_type" : "type-9",
   "source_file" : "/system/core/libutils/include/utils/Vector.h"
  },
  {
   "access" : "protected",
   "function_name" : "android::BnInterface<android::IConsumerListener>::onAsBinder",
   "linker_set_key" : "_ZThn8_N7android11BnInterfaceINS_17IConsumerListenerEE10onAsBinderEv",
   "parameters" :
   [
    {
     "is_this_ptr" : true,
     "referenced_type" : "type-744"
    }
   ],
   "return_type" : "type-52",
   "source_file" : "/frameworks/native/libs/binder/include/binder/IInterface.h"
  },
  {
   "access" : "protected",
   "function_name" : "android::BnInterface<android::IProducerListener>::onAsBinder",
   "linker_set_key" : "_ZThn8_N7android11BnInterfaceINS_17IProducerListenerEE10onAsBinderEv",
   "parameters" :
   [
    {
     "is_this_ptr" : true,
     "referenced_type" : "type-4509"
    }
   ],
   "return_type" : "type-52",
   "source_file" : "/frameworks/native/libs/binder/include/binder/IInterface.h"
  }
 ],
 "global_vars" : [],
 "lvalue_reference_types" :
 [
  {
   "alignment" : 8,
   "linker_set_key" : "android::BufferItem &",
   "name" : "android::BufferItem &",
   "referenced_type" : "type-1227",
   "self_type" : "type-1226",
   "size" : 8,
   "source_file" : "/system/core/libutils/include/utils/Vector.h"
  },
  {
   "alignment" : 8,
   "linker_set_key" : "android::BufferItem &",
   "name" : "android::BufferItem &",
   "referenced_type" : "type-3803",
   "self_type" : "type-3802",
   "size" : 8,
   "source_file" : "/system/core/libutils/include/utils/Vector.h"
  },
  {
   "alignment" : 8,
   "linker_set_key" : "android::BufferItem &",
   "name" : "android::BufferItem &",
   "referenced_type" : "type-5892",
   "self_type" : "type-5891",
   "size" : 8,
   "source_file" : "/system/core/libutils/include/utils/Vector.h"
  },
  {
   "alignment" : 8,
   "linker_set_key" : "android::BufferItem &",
   "name" : "android::BufferItem &",
   "referenced_type" : "type-6441",
   "self_type" : "type-6440",
   "size" : 8,
   "source_file" : "/system/core/libutils/include/utils/Vector.h"
  },
  {
   "alignment" : 8,
   "linker_set_key" : "android::BufferItem *&",
   "name" : "android::BufferItem *&",
   "referenced_type" : "type-1673",
   "self_type" : "type-1859",
   "size" : 8,
   "source_file" : "/frameworks/native/libs/binder/include/binder/SafeInterface.h"
  },
  {
   "alignment" : 8,
   "linker_set_key" : "android::BufferItem *&",
   "name" : "android::BufferItem *&",
   "referenced_type" : "type-4132",
   "self_type" : "type-4141",
   "size" : 8,
   "source_file" : "/frameworks/native/libs/binder/include/binder/SafeInterface.h"
  },
  {
   "alignment" : 8,
   "linker_set_key" : "android::BufferItem *&",
   "name" : "android::BufferItem *&",
   "referenced_type" : "type-6735",
   "self_type" : "type-6750",
   "size" : 8,
   "source_file" : "/frameworks/native/libs/binder/include/binder/SafeInterface.h"
  },
  {
   "alignment" : 8,
   "linker_set_key" : "android::CompositorTiming &",
   "name" : "android::CompositorTiming &",
   "referenced_type" : "type-1435",
   "self_type" : "type-1434",
   "size" : 8,
   "source_file" : "/system/core/libutils/include/utils/Flattenable.h"
  },
  {
   "alignment" : 8,
   "linker_set_key" : "android::CompositorTiming &",
   "name" : "android::CompositorTiming &",
   "referenced_type" : "type-3969",
   "self_type" : "type-3968",
   "size" : 8,
   "source_file" : "/system/core/libutils/include/utils/Flattenable.h"
  },
  {
   "alignment" : 8,
   "linker_set_key" : "android::CompositorTiming &",
   "name" : "android::CompositorTiming &",
   "referenced_type" : "type-6577",
   "self_type" : "type-6576",
   "size" : 8,
   "source_file" : "/system/core/libutils/include/utils/Flattenable.h"
  },
  {
   "alignment" : 8,
   "linker_set_key" : "android::Fence &",
   "name" : "android::Fence &",
   "referenced_type" : "type-2533",
   "self_type" : "type-2532",
   "size" : 8,
   "source_file" : "/system/core/libutils/include/utils/StrongPointer.h"
  },
  {
   "alignment" : 8,
   "linker_set_key" : "android::Fence &",
   "name" : "android::Fence &",
   "referenced_type" : "type-4420",
   "self_type" : "type-4419",
   "size" : 8,
   "source_file" : "/system/core/libutils/include/utils/StrongPointer.h"
  },
  {
   "alignment" : 8,
   "linker_set_key" : "android::Fence &",
   "name" : "android::Fence &",
   "referenced_type" : "type-4681",
   "self_type" : "type-4680",
   "size" : 8,
   "source_file" : "/system/core/libutils/include/utils/StrongPointer.h"
  },
  {
   "alignment" : 8,
   "linker_set_key" : "android::Fence &",
   "name" : "android::Fence &",
   "referenced_type" : "type-4948",
   "self_type" : "type-4947",
   "size" : 8,
   "source_file" : "/system/core/libutils/include/utils/StrongPointer.h"
  },
  {
   "alignment" : 8,
   "linker_set_key" : "android::Fence &",
   "name" : "android::Fence &",
   "referenced_type" : "type-6035",
   "self_type" : "type-6034",
   "size" : 8,
   "source_file" : "/system/core/libutils/include/utils/StrongPointer.h"
  },
  {
   "alignment" : 8,
   "linker_set_key" : "android::Fence &",
   "name" : "android::Fence &",
   "referenced_type" : "type-7041",
   "self_type" : "type-7040",
   "size" : 8,
   "source_file" : "/system/core/libutils/include/utils/StrongPointer.h"
  },
  {
   "alignment" : 8,
   "linker_set_key" : "android::Fence &",
   "name" : "android::Fence &",
   "referenced_type" : "type-7226",
   "self_type" : "type-7225",
   "size" : 8,
   "source_file" : "/system/core/libutils/include/utils/StrongPointer.h"
  },
  {
   "alignment" : 8,
   "linker_set_key" : "android::Fence &",
   "name" : "android::Fence &",
   "referenced_type" : "type-7338",
   "self_type" : "type-7337",
   "size" : 8,
   "source_file" : "/system/core/libutils/include/utils/StrongPointer.h"
  },
  {
   "alignment" : 8,
   "linker_set_key" : "android::FenceTime::Snapshot::State &",
   "name" : "android::FenceTime::Snapshot::State &",
   "referenced_type" : "type-4594",
   "self_type" : "type-4593",
   "size" : 8,
   "source_file" : "/system/core/libutils/include/utils/Flattenable.h"
  },
  {
   "alignment" : 8,
   "linker_set_key" : "android::FenceTime::Snapshot::State &",
   "name" : "android::FenceTime::Snapshot::State &",
   "referenced_type" : "type-7248",
   "self_type" : "type-7247",
   "size" : 8,
   "source_file" : "/system/core/libutils/include/utils/Flattenable.h"
  },
  {
   "alignment" : 8,
   "linker_set_key" : "android::Flattenable<android::BufferItem> &",
   "name" : "android::Flattenable<android::BufferItem> &",
   "referenced_type" : "type-22",
   "self_type" : "type-1519",
   "size" : 8,
   "source_file" : "/frameworks/native/libs/binder/include/binder/Parcel.h"
  },
  {
   "alignment" : 8,
   "linker_set_key" : "android::Flattenable<android::Fence> &",
   "name" : "android::Flattenable<android::Fence> &",
   "referenced_type" : "type-17",
   "self_type" : "type-1656",
   "size" : 8,
   "source_file" : "/frameworks/native/libs/binder/include/binder/Parcel.h"
  },
  {
   "alignment" : 8,
   "linker_set_key" : "android::Flattenable<android::FrameEventHistoryDelta> &",
   "name" : "android::Flattenable<android::FrameEventHistoryDelta> &",
   "referenced_type" : "type-26",
   "self_type" : "type-4334",
   "size" : 8,
   "source_file" : "/frameworks/native/libs/binder/include/binder/Parcel.h"
  },
  {
   "alignment" : 8,
   "linker_set_key" : "android::Flattenable<android::GraphicBuffer> &",
   "name" : "android::Flattenable<android::GraphicBuffer> &",
   "referenced_type" : "type-15",
   "self_type" : "type-1655",
   "size" : 8,
   "source_file" : "/frameworks/native/libs/binder/include/binder/Parcel.h"
  },
  {
   "alignment" : 8,
   "linker_set_key" : "android::Flattenable<android::IGraphicBufferProducer::QueueBufferInput> &",
   "name" : "android::Flattenable<android::IGraphicBufferProducer::QueueBufferInput> &",
   "referenced_type" : "type-33",
   "self_type" : "type-4336",
   "size" : 8,
   "source_file" : "/frameworks/native/libs/binder/include/binder/Parcel.h"
  },
  {
   "alignment" : 8,
   "linker_set_key" : "android::Flattenable<android::IGraphicBufferProducer::QueueBufferOutput> &",
   "name" : "android::Flattenable<android::IGraphicBufferProducer::QueueBufferOutput> &",
   "referenced_type" : "type-35",
   "self_type" : "type-4335",
   "size" : 8,
   "source_file" : "/frameworks/native/libs/binder/include/binder/Parcel.h"
  },
  {
   "alignment" : 8,
   "linker_set_key" : "android::GraphicBuffer &",
   "name" : "android::GraphicBuffer &",
   "referenced_type" : "type-2396",
   "self_type" : "type-2395",
   "size" : 8,
   "source_file" : "/system/core/libutils/include/utils/StrongPointer.h"
  },
  {
   "alignment" : 8,
   "linker_set_key" : "android::GraphicBuffer &",
   "name" : "android::GraphicBuffer &",
   "referenced_type" : "type-4226",
   "self_type" : "type-4225",
   "size" : 8,
   "source_file" : "/system/core/libutils/include/utils/StrongPointer.h"
  },
  {
   "alignment" : 8,
   "linker_set_key" : "android::GraphicBuffer &",
   "name" : "android::GraphicBuffer &",
   "referenced_type" : "type-4688",
   "self_type" : "type-4687",
   "size" : 8,
   "source_file" : "/system/core/libutils/include/utils/StrongPointer.h"
  },
  {
   "alignment" : 8,
   "linker_set_key" : "android::GraphicBuffer &",
   "name" : "android::GraphicBuffer &",
   "referenced_type" : "type-4774",
   "self_type" : "type-4773",
   "size" : 8,
   "source_file" : "/system/core/libutils/include/utils/StrongPointer.h"
  },
  {
   "alignment" : 8,
   "linker_set_key" : "android::GraphicBuffer &",
   "name" : "android::GraphicBuffer &",
   "referenced_type" : "type-6009",
   "self_type" : "type-6008",
   "size" : 8,
   "source_file" : "/system/core/libutils/include/utils/StrongPointer.h"
  },
  {
   "alignment" : 8,
   "linker_set_key" : "android::GraphicBuffer &",
   "name" : "android::GraphicBuffer &",
   "referenced_type" : "type-6837",
   "self_type" : "type-6836",
   "size" : 8,
   "source_file" : "/system/core/libutils/include/utils/StrongPointer.h"
  },
  {
   "alignment" : 8,
   "linker_set_key" : "android::GraphicBuffer &",
   "name" : "android::GraphicBuffer &",
   "referenced_type" : "type-6859",
   "self_type" : "type-6858",
   "size" : 8,
   "source_file" : "/system/core/libutils/include/utils/StrongPointer.h"
  },
  {
   "alignment" : 8,
   "linker_set_key" : "android::GraphicBuffer &",
   "name" : "android::GraphicBuffer &",
   "referenced_type" : "type-7345",
   "self_type" : "type-7344",
   "size" : 8,
   "source_file" : "/system/core/libutils/include/utils/StrongPointer.h"
  },
  {
   "alignment" : 8,
   "linker_set_key" : "android::GraphicBufferMapper &",
   "name" : "android::GraphicBufferMapper &",
   "referenced_type" : "type-1090",
   "self_type" : "type-1089",
   "size" : 8,
   "source_file" : "/system/core/libutils/include/utils/Singleton.h"
  },
  {
   "alignment" : 8,
   "linker_set_key" : "android::GraphicBufferMapper &",
   "name" : "android::GraphicBufferMapper &",
   "referenced_type" : "type-1271",
   "self_type" : "type-1270",
   "size" : 8,
   "source_file" : "/system/core/libutils/include/utils/Singleton.h"
  },
  {
   "alignment" : 8,
   "linker_set_key" : "android::GraphicBufferMapper &",
   "name" : "android::GraphicBufferMapper &",
   "referenced_type" : "type-1414",
   "self_type" : "type-1413",
   "size" : 8,
   "source_file" : "/system/core/libutils/include/utils/Singleton.h"
  },
  {
   "alignment" : 8,
   "linker_set_key" : "android::GraphicBufferMapper &",
   "name" : "android::GraphicBufferMapper &",
   "referenced_type" : "type-1450",
   "self_type" : "type-1449",
   "size" : 8,
   "source_file" : "/system/core/libutils/include/utils/Singleton.h"
  },
  {
   "alignment" : 8,
   "linker_set_key" : "android::GraphicBufferMapper &",
   "name" : "android::GraphicBufferMapper &",
   "referenced_type" : "type-2178",
   "self_type" : "type-2177",
   "size" : 8,
   "source_file" : "/system/core/libutils/include/utils/Singleton.h"
  },
  {
   "alignment" : 8,
   "linker_set_key" : "android::GraphicBufferMapper &",
   "name" : "android::GraphicBufferMapper &",
   "referenced_type" : "type-3254",
   "self_type" : "type-3253",
   "size" : 8,
   "source_file" : "/system/core/libutils/include/utils/Singleton.h"
  },
  {
   "alignment" : 8,
   "linker_set_key" : "android::GraphicBufferMapper &",
   "name" : "android::GraphicBufferMapper &",
   "referenced_type" : "type-333",
   "self_type" : "type-332",
   "size" : 8,
   "source_file" : "/system/core/libutils/include/utils/Singleton.h"
  },
  {
   "alignment" : 8,
   "linker_set_key" : "android::GraphicBufferMapper &",
   "name" : "android::GraphicBufferMapper &",
   "referenced_type" : "type-3466",
   "self_type" : "type-3465",
   "size" : 8,
   "source_file" : "/system/core/libutils/include/utils/Singleton.h"
  },
  {
   "alignment" : 8,
   "linker_set_key" : "android::GraphicBufferMapper &",
   "name" : "android::GraphicBufferMapper &",
   "referenced_type" : "type-3533",
   "self_type" : "type-3532",
   "size" : 8,
   "source_file" : "/system/core/libutils/include/utils/Singleton.h"
  },
  {
   "alignment" : 8,
   "linker_set_key" : "android::GraphicBufferMapper &",
   "name" : "android::GraphicBufferMapper &",
   "referenced_type" : "type-3644",
   "self_type" : "type-3643",
   "size" : 8,
   "source_file" : "/system/core/libutils/include/utils/Singleton.h"
  },
  {
   "alignment" : 8,
   "linker_set_key" : "android::GraphicBufferMapper &",
   "name" : "android::GraphicBufferMapper &",
   "referenced_type" : "type-3704",
   "self_type" : "type-3703",
   "size" : 8,
   "source_file" : "/system/core/libutils/include/utils/Singleton.h"
  },
  {
   "alignment" : 8,
   "linker_set_key" : "android::GraphicBufferMapper &",
   "name" : "android::GraphicBufferMapper &",
   "referenced_type" : "type-3828",
   "self_type" : "type-3827",
   "size" : 8,
   "source_file" : "/system/core/libutils/include/utils/Singleton.h"
  },
  {
   "alignment" : 8,
   "linker_set_key" : "android::GraphicBufferMapper &",
   "name" : "android::GraphicBufferMapper &",
   "referenced_type" : "type-3945",
   "self_type" : "type-3944",
   "size" : 8,
   "source_file" : "/system/core/libutils/include/utils/Singleton.h"
  },
  {
   "alignment" : 8,
   "linker_set_key" : "android::GraphicBufferMapper &",
   "name" : "android::GraphicBufferMapper &",
   "referenced_type" : "type-3986",
   "self_type" : "type-3985",
   "size" : 8,
   "source_file" : "/system/core/libutils/include/utils/Singleton.h"
  },
  {
   "alignment" : 8,
   "linker_set_key" : "android::GraphicBufferMapper &",
   "name" : "android::GraphicBufferMapper &",
   "referenced_type" : "type-4217",
   "self_type" : "type-4216",
   "size" : 8,
   "source_file" : "/system/core/libutils/include/utils/Singleton.h"
  },
  {
   "alignment" : 8,
   "linker_set_key" : "android::GraphicBufferMapper &",
   "name" : "android::GraphicBufferMapper &",
   "referenced_type" : "type-4395",
   "self_type" : "type-4394",
   "size" : 8,
   "source_file" : "/system/core/libutils/include/utils/Singleton.h"
  },
  {
   "alignment" : 8,
   "linker_set_key" : "android::GraphicBufferMapper &",
   "name" : "android::GraphicBufferMapper &",
   "referenced_type" : "type-4608",
   "self_type" : "type-4607",
   "size" : 8,
   "source_file" : "/system/core/libutils/include/utils/Singleton.h"
  },
  {
   "alignment" : 8,
   "linker_set_key" : "android::GraphicBufferMapper &",
   "name" : "android::GraphicBufferMapper &",
   "referenced_type" : "type-4776",
   "self_type" : "type-4775",
   "size" : 8,
   "source_file" : "/system/core/libutils/include/utils/Singleton.h"
  },
  {
   "alignment" : 8,
   "linker_set_key" : "android::GraphicBufferMapper &",
   "name" : "android::GraphicBufferMapper &",
   "referenced_type" : "type-5111",
   "self_type" : "type-5110",
   "size" : 8,
   "source_file" : "/system/core/libutils/include/utils/Singleton.h"
  },
  {
   "alignment" : 8,
   "linker_set_key" : "android::GraphicBufferMapper &",
   "name" : "android::GraphicBufferMapper &",
   "referenced_type" : "type-5181",
   "self_type" : "type-5180",
   "size" : 8,
   "source_file" : "/system/core/libutils/include/utils/Singleton.h"
  },
  {
   "alignment" : 8,
   "linker_set_key" : "android::GraphicBufferMapper &",
   "name" : "android::GraphicBufferMapper &",
   "referenced_type" : "type-5343",
   "self_type" : "type-5342",
   "size" : 8,
   "source_file" : "/system/core/libutils/include/utils/Singleton.h"
  },
  {
   "alignment" : 8,
   "linker_set_key" : "android::GraphicBufferMapper &",
   "name" : "android::GraphicBufferMapper &",
   "referenced_type" : "type-5555",
   "self_type" : "type-5554",
   "size" : 8,
   "source_file" : "/system/core/libutils/include/utils/Singleton.h"
  },
  {
   "alignment" : 8,
   "linker_set_key" : "android::GraphicBufferMapper &",
   "name" : "android::GraphicBufferMapper &",
   "referenced_type" : "type-5622",
   "self_type" : "type-5621",
   "size" : 8,
   "source_file" : "/system/core/libutils/include/utils/Singleton.h"
  },
  {
   "alignment" : 8,
   "linker_set_key" : "android::GraphicBufferMapper &",
   "name" : "android::GraphicBufferMapper &",
   "referenced_type" : "type-5733",
   "self_type" : "type-5732",
   "size" : 8,
   "source_file" : "/system/core/libutils/include/utils/Singleton.h"
  },
  {
   "alignment" : 8,
   "linker_set_key" : "android::GraphicBufferMapper &",
   "name" : "android::GraphicBufferMapper &",
   "referenced_type" : "type-5793",
   "self_type" : "type-5792",
   "size" : 8,
   "source_file" : "/system/core/libutils/include/utils/Singleton.h"
  },
  {
   "alignment" : 8,
   "linker_set_key" : "android::GraphicBufferMapper &",
   "name" : "android::GraphicBufferMapper &",
   "referenced_type" : "type-5917",
   "self_type" : "type-5916",
   "size" : 8,
   "source_file" : "/system/core/libutils/include/utils/Singleton.h"
  },
  {
   "alignment" : 8,
   "linker_set_key" : "android::GraphicBufferMapper &",
   "name" : "android::GraphicBufferMapper &",
   "referenced_type" : "type-6078",
   "self_type" : "type-6077",
   "size" : 8,
   "source_file" : "/system/core/libutils/include/utils/Singleton.h"
  },
  {
   "alignment" : 8,
   "linker_set_key" : "android::GraphicBufferMapper &",
   "name" : "android::GraphicBufferMapper &",
   "referenced_type" : "type-6161",
   "self_type" : "type-6160",
   "size" : 8,
   "source_file" : "/system/core/libutils/include/utils/Singleton.h"
  },
  {
   "alignment" : 8,
   "linker_set_key" : "android::GraphicBufferMapper &",
   "name" : "android::GraphicBufferMapper &",
   "referenced_type" : "type-6213",
   "self_type" : "type-6212",
   "size" : 8,
   "source_file" : "/system/core/libutils/include/utils/Singleton.h"
  },
  {
   "alignment" : 8,
   "linker_set_key" : "android::GraphicBufferMapper &",
   "name" : "android::GraphicBufferMapper &",
   "referenced_type" : "type-6307",
   "self_type" : "type-6306",
   "size" : 8,
   "source_file" : "/system/core/libutils/include/utils/Singleton.h"
  },
  {
   "alignment" : 8,
   "linker_set_key" : "android::GraphicBufferMapper &",
   "name" : "android::GraphicBufferMapper &",
   "referenced_type" : "type-6354",
   "self_type" : "type-6353",
   "size" : 8,
   "source_file" : "/system/core/libutils/include/utils/Singleton.h"
  },
  {
   "alignment" : 8,
   "linker_set_key" : "android::GraphicBufferMapper &",
   "name" : "android::GraphicBufferMapper &",
   "referenced_type" : "type-6450",
   "self_type" : "type-6449",
   "size" : 8,
   "source_file" : "/system/core/libutils/include/utils/Singleton.h"
  },
  {
   "alignment" : 8,
   "linker_set_key" : "android::GraphicBufferMapper &",
   "name" : "android::GraphicBufferMapper &",
   "referenced_type" : "type-6555",
   "self_type" : "type-6554",
   "size" : 8,
   "source_file" : "/system/core/libutils/include/utils/Singleton.h"
  },
  {
   "alignment" : 8,
   "linker_set_key" : "android::GraphicBufferMapper &",
   "name" : "android::GraphicBufferMapper &",
   "referenced_type" : "type-6592",
   "self_type" : "type-6591",
   "size" : 8,
   "source_file" : "/system/core/libutils/include/utils/Singleton.h"
  },
  {
   "alignment" : 8,
   "linker_set_key" : "android::GraphicBufferMapper &",
   "name" : "android::GraphicBufferMapper &",
   "referenced_type" : "type-6839",
   "self_type" : "type-6838",
   "size" : 8,
   "source_file" : "/system/core/libutils/include/utils/Singleton.h"
  },
  {
   "alignment" : 8,
   "linker_set_key" : "android::GraphicBufferMapper &",
   "name" : "android::GraphicBufferMapper &",
   "referenced_type" : "type-7012",
   "self_type" : "type-7011",
   "size" : 8,
   "source_file" : "/system/core/libutils/include/utils/Singleton.h"
  },
  {
   "alignment" : 8,
   "linker_set_key" : "android::GraphicBufferMapper &",
   "name" : "android::GraphicBufferMapper &",
   "referenced_type" : "type-7265",
   "self_type" : "type-7264",
   "size" : 8,
   "source_file" : "/system/core/libutils/include/utils/Singleton.h"
  },
  {
   "alignment" : 8,
   "linker_set_key" : "android::GraphicBufferMapper &",
   "name" : "android::GraphicBufferMapper &",
   "referenced_type" : "type-7402",
   "self_type" : "type-7401",
   "size" : 8,
   "source_file" : "/system/core/libutils/include/utils/Singleton.h"
  },
  {
   "alignment" : 8,
   "linker_set_key" : "android::GraphicBufferMapper &",
   "name" : "android::GraphicBufferMapper &",
   "referenced_type" : "type-756",
   "self_type" : "type-755",
   "size" : 8,
   "source_file" : "/system/core/libutils/include/utils/Singleton.h"
  },
  {
   "alignment" : 8,
   "linker_set_key" : "android::GraphicBufferMapper &",
   "name" : "android::GraphicBufferMapper &",
   "referenced_type" : "type-7625",
   "self_type" : "type-7624",
   "size" : 8,
   "source_file" : "/system/core/libutils/include/utils/Singleton.h"
  },
  {
   "alignment" : 8,
   "linker_set_key" : "android::GraphicBufferMapper &",
   "name" : "android::GraphicBufferMapper &",
   "referenced_type" : "type-841",
   "self_type" : "type-840",
   "size" : 8,
   "source_file" : "/system/core/libutils/include/utils/Singleton.h"
  },
  {
   "alignment" : 8,
   "linker_set_key" : "android::GraphicBufferMapper &",
   "name" : "android::GraphicBufferMapper &",
   "referenced_type" : "type-989",
   "self_type" : "type-988",
   "size" : 8,
   "source_file" : "/system/core/libutils/include/utils/Singleton.h"
  },
  {
   "alignment" : 8,
   "linker_set_key" : "android::GraphicBufferSource::ActionItem &",
   "name" : "android::GraphicBufferSource::ActionItem &",
   "referenced_type" : "type-224",
   "self_type" : "type-227",
   "size" : 8,
   "source_file" : "/system/core/libutils/include/utils/List.h"
  },
  {
   "alignment" : 8,
   "linker_set_key" : "android::GraphicBufferSource::VideoBuffer &",
   "name" : "android::GraphicBufferSource::VideoBuffer &",
   "referenced_type" : "type-171",
   "self_type" : "type-178",
   "size" : 8,
   "source_file" : "/system/core/libutils/include/utils/List.h"
  },
  {
   "alignment" : 8,
   "linker_set_key" : "android::List<ActionItem>::_ListIterator<android::GraphicBufferSource::ActionItem, android::List<ActionItem>::NON_CONST_ITERATOR> &",
   "name" : "android::List<ActionItem>::_ListIterator<android::GraphicBufferSource::ActionItem, android::List<ActionItem>::NON_CONST_ITERATOR> &",
   "referenced_type" : "type-234",
   "self_type" : "type-240",
   "size" : 8,
   "source_file" : "/system/core/libutils/include/utils/List.h"
  },
  {
   "alignment" : 8,
   "linker_set_key" : "android::List<VideoBuffer>::_ListIterator<android::GraphicBufferSource::VideoBuffer, android::List<VideoBuffer>::CONST_ITERATOR> &",
   "name" : "android::List<VideoBuffer>::_ListIterator<android::GraphicBufferSource::VideoBuffer, android::List<VideoBuffer>::CONST_ITERATOR> &",
   "referenced_type" : "type-189",
   "self_type" : "type-195",
   "size" : 8,
   "source_file" : "/system/core/libutils/include/utils/List.h"
  },
  {
   "alignment" : 8,
   "linker_set_key" : "android::List<int>::_ListIterator<int, android::List<int>::CONST_ITERATOR> &",
   "name" : "android::List<int>::_ListIterator<int, android::List<int>::CONST_ITERATOR> &",
   "referenced_type" : "type-212",
   "self_type" : "type-218",
   "size" : 8,
   "source_file" : "/system/core/libutils/include/utils/List.h"
  },
  {
   "alignment" : 8,
   "linker_set_key" : "android::Mutex &",
   "name" : "android::Mutex &",
   "referenced_type" : "type-249",
   "self_type" : "type-313",
   "size" : 8,
   "source_file" : "/system/core/libutils/include/utils/Mutex.h"
  },
  {
   "alignment" : 8,
   "linker_set_key" : "android::RWLock &",
   "name" : "android::RWLock &",
   "referenced_type" : "type-317",
   "self_type" : "type-325",
   "size" : 8,
   "source_file" : "/system/core/libutils/include/utils/RWLock.h"
  },
  {
   "alignment" : 8,
   "linker_set_key" : "android::Rect &",
   "name" : "android::Rect &",
   "referenced_type" : "type-3476",
   "self_type" : "type-3475",
   "size" : 8,
   "source_file" : "/system/core/libutils/include/utils/Flattenable.h"
  },
  {
   "alignment" : 8,
   "linker_set_key" : "android::Rect &",
   "name" : "android::Rect &",
   "referenced_type" : "type-4312",
   "self_type" : "type-4311",
   "size" : 8,
   "source_file" : "/system/core/libutils/include/utils/Flattenable.h"
  },
  {
   "alignment" : 8,
   "linker_set_key" : "android::Rect &",
   "name" : "android::Rect &",
   "referenced_type" : "type-4765",
   "self_type" : "type-4764",
   "size" : 8,
   "source_file" : "/system/core/libutils/include/utils/Flattenable.h"
  },
  {
   "alignment" : 8,
   "linker_set_key" : "android::Rect &",
   "name" : "android::Rect &",
   "referenced_type" : "type-5565",
   "self_type" : "type-5564",
   "size" : 8,
   "source_file" : "/system/core/libutils/include/utils/Flattenable.h"
  },
  {
   "alignment" : 8,
   "linker_set_key" : "android::Rect &",
   "name" : "android::Rect &",
   "referenced_type" : "type-6169",
   "self_type" : "type-6168",
   "size" : 8,
   "source_file" : "/system/core/libutils/include/utils/Flattenable.h"
  },
  {
   "alignment" : 8,
   "linker_set_key" : "android::Rect &",
   "name" : "android::Rect &",
   "referenced_type" : "type-6934",
   "self_type" : "type-6933",
   "size" : 8,
   "source_file" : "/system/core/libutils/include/utils/Flattenable.h"
  },
  {
   "alignment" : 8,
   "linker_set_key" : "android::Rect &",
   "name" : "android::Rect &",
   "referenced_type" : "type-7394",
   "self_type" : "type-7393",
   "size" : 8,
   "source_file" : "/system/core/libutils/include/utils/Flattenable.h"
  },
  {
   "alignment" : 8,
   "linker_set_key" : "android::Rect &",
   "name" : "android::Rect &",
   "referenced_type" : "type-766",
   "self_type" : "type-765",
   "size" : 8,
   "source_file" : "/system/core/libutils/include/utils/Flattenable.h"
  },
  {
   "alignment" : 8,
   "linker_set_key" : "android::String16 &",
   "name" : "android::String16 &",
   "referenced_type" : "type-1243",
   "self_type" : "type-2665",
   "size" : 8,
   "source_file" : "/system/core/libutils/include/utils/String16.h"
  },
  {
   "alignment" : 8,
   "linker_set_key" : "android::String8 &",
   "name" : "android::String8 &",
   "referenced_type" : "type-123",
   "self_type" : "type-2659",
   "size" : 8,
   "source_file" : "/system/core/libutils/include/utils/String8.h"
  },
  {
   "alignment" : 8,
   "linker_set_key" : "android::String8 *&",
   "name" : "android::String8 *&",
   "referenced_type" : "type-1891",
   "self_type" : "type-1890",
   "size" : 8,
   "source_file" : "/frameworks/native/libs/binder/include/binder/SafeInterface.h"
  },
  {
   "alignment" : 8,
   "linker_set_key" : "android::TextOutput &",
   "name" : "android::TextOutput &",
   "referenced_type" : "type-1105",
   "self_type" : "type-1104",
   "size" : 8,
   "source_file" : "/frameworks/native/libs/binder/include/binder/Parcel.h"
  },
  {
   "alignment" : 8,
   "linker_set_key" : "android::TextOutput &",
   "name" : "android::TextOutput &",
   "referenced_type" : "type-118",
   "self_type" : "type-117",
   "size" : 8,
   "source_file" : "/frameworks/native/libs/binder/include/binder/Parcel.h"
  },
  {
   "alignment" : 8,
   "linker_set_key" : "android::TextOutput &",
   "name" : "android::TextOutput &",
   "referenced_type" : "type-1241",
   "self_type" : "type-1240",
   "size" : 8,
   "source_file" : "/frameworks/native/libs/binder/include/binder/Parcel.h"
  },
  {
   "alignment" : 8,
   "linker_set_key" : "android::TextOutput &",
   "name" : "android::TextOutput &",
   "referenced_type" : "type-1369",
   "self_type" : "type-1368",
   "size" : 8,
   "source_file" : "/frameworks/native/libs/binder/include/binder/Parcel.h"
  },
  {
   "alignment" : 8,
   "linker_set_key" : "android::TextOutput &",
   "name" : "android::TextOutput &",
   "referenced_type" : "type-1455",
   "self_type" : "type-1454",
   "size" : 8,
   "source_file" : "/frameworks/native/libs/binder/include/binder/Parcel.h"
  },
  {
   "alignment" : 8,
   "linker_set_key" : "android::TextOutput &",
   "name" : "android::TextOutput &",
   "referenced_type" : "type-1528",
   "self_type" : "type-1527",
   "size" : 8,
   "source_file" : "/frameworks/native/libs/binder/include/binder/Parcel.h"
  },
  {
   "alignment" : 8,
   "linker_set_key" : "android::TextOutput &",
   "name" : "android::TextOutput &",
   "referenced_type" : "type-1670",
   "self_type" : "type-1669",
   "size" : 8,
   "source_file" : "/frameworks/native/libs/binder/include/binder/Parcel.h"
  },
  {
   "alignment" : 8,
   "linker_set_key" : "android::TextOutput &",
   "name" : "android::TextOutput &",
   "referenced_type" : "type-3172",
   "self_type" : "type-3171",
   "size" : 8,
   "source_file" : "/frameworks/native/libs/binder/include/binder/Parcel.h"
  },
  {
   "alignment" : 8,
   "linker_set_key" : "android::TextOutput &",
   "name" : "android::TextOutput &",
   "referenced_type" : "type-3538",
   "self_type" : "type-3537",
   "size" : 8,
   "source_file" : "/frameworks/native/libs/binder/include/binder/Parcel.h"
  },
  {
   "alignment" : 8,
   "linker_set_key" : "android::TextOutput &",
   "name" : "android::TextOutput &",
   "referenced_type" : "type-3648",
   "self_type" : "type-3647",
   "size" : 8,
   "source_file" : "/frameworks/native/libs/binder/include/binder/Parcel.h"
  },
  {
   "alignment" : 8,
   "linker_set_key" : "android::TextOutput &",
   "name" : "android::TextOutput &",
   "referenced_type" : "type-3713",
   "self_type" : "type-3712",
   "size" : 8,
   "source_file" : "/frameworks/native/libs/binder/include/binder/Parcel.h"
  },
  {
   "alignment" : 8,
   "linker_set_key" : "android::TextOutput &",
   "name" : "android::TextOutput &",
   "referenced_type" : "type-3814",
   "self_type" : "type-3813",
   "size" : 8,
   "source_file" : "/frameworks/native/libs/binder/include/binder/Parcel.h"
  },
  {
   "alignment" : 8,
   "linker_set_key" : "android::TextOutput &",
   "name" : "android::TextOutput &",
   "referenced_type" : "type-3919",
   "self_type" : "type-3918",
   "size" : 8,
   "source_file" : "/frameworks/native/libs/binder/include/binder/Parcel.h"
  },
  {
   "alignment" : 8,
   "linker_set_key" : "android::TextOutput &",
   "name" : "android::TextOutput &",
   "referenced_type" : "type-3992",
   "self_type" : "type-3991",
   "size" : 8,
   "source_file" : "/frameworks/native/libs/binder/include/binder/Parcel.h"
  },
  {
   "alignment" : 8,
   "linker_set_key" : "android::TextOutput &",
   "name" : "android::TextOutput &",
   "referenced_type" : "type-4044",
   "self_type" : "type-4043",
   "size" : 8,
   "source_file" : "/frameworks/native/libs/binder/include/binder/Parcel.h"
  },
  {
   "alignment" : 8,
   "linker_set_key" : "android::TextOutput &",
   "name" : "android::TextOutput &",
   "referenced_type" : "type-4130",
   "self_type" : "type-4129",
   "size" : 8,
   "source_file" : "/frameworks/native/libs/binder/include/binder/Parcel.h"
  },
  {
   "alignment" : 8,
   "linker_set_key" : "android::TextOutput &",
   "name" : "android::TextOutput &",
   "referenced_type" : "type-4354",
   "self_type" : "type-4353",
   "size" : 8,
   "source_file" : "/frameworks/native/libs/binder/include/binder/Parcel.h"
  },
  {
   "alignment" : 8,
   "linker_set_key" : "android::TextOutput &",
   "name" : "android::TextOutput &",
   "referenced_type" : "type-4493",
   "self_type" : "type-4492",
   "size" : 8,
   "source_file" : "/frameworks/native/libs/binder/include/binder/Parcel.h"
  },
  {
   "alignment" : 8,
   "linker_set_key" : "android::TextOutput &",
   "name" : "android::TextOutput &",
   "referenced_type" : "type-4540",
   "self_type" : "type-4539",
   "size" : 8,
   "source_file" : "/frameworks/native/libs/binder/include/binder/Parcel.h"
  },
  {
   "alignment" : 8,
   "linker_set_key" : "android::TextOutput &",
   "name" : "android::TextOutput &",
   "referenced_type" : "type-4562",
   "self_type" : "type-4561",
   "size" : 8,
   "source_file" : "/frameworks/native/libs/binder/include/binder/Parcel.h"
  },
  {
   "alignment" : 8,
   "linker_set_key" : "android::TextOutput &",
   "name" : "android::TextOutput &",
   "referenced_type" : "type-4602",
   "self_type" : "type-4601",
   "size" : 8,
   "source_file" : "/frameworks/native/libs/binder/include/binder/Parcel.h"
  },
  {
   "alignment" : 8,
   "linker_set_key" : "android::TextOutput &",
   "name" : "android::TextOutput &",
   "referenced_type" : "type-4782",
   "self_type" : "type-4781",
   "size" : 8,
   "source_file" : "/frameworks/native/libs/binder/include/binder/Parcel.h"
  },
  {
   "alignment" : 8,
   "linker_set_key" : "android::TextOutput &",
   "name" : "android::TextOutput &",
   "referenced_type" : "type-4867",
   "self_type" : "type-4866",
   "size" : 8,
   "source_file" : "/frameworks/native/libs/binder/include/binder/Parcel.h"
  },
  {
   "alignment" : 8,
   "linker_set_key" : "android::TextOutput &",
   "name" : "android::TextOutput &",
   "referenced_type" : "type-5109",
   "self_type" : "type-5108",
   "size" : 8,
   "source_file" : "/frameworks/native/libs/binder/include/binder/Parcel.h"
  },
  {
   "alignment" : 8,
   "linker_set_key" : "android::TextOutput &",
   "name" : "android::TextOutput &",
   "referenced_type" : "type-5149",
   "self_type" : "type-5148",
   "size" : 8,
   "source_file" : "/frameworks/native/libs/binder/include/binder/Parcel.h"
  },
  {
   "alignment" : 8,
   "linker_set_key" : "android::TextOutput &",
   "name" : "android::TextOutput &",
   "referenced_type" : "type-5185",
   "self_type" : "type-5184",
   "size" : 8,
   "source_file" : "/frameworks/native/libs/binder/include/binder/Parcel.h"
  },
  {
   "alignment" : 8,
   "linker_set_key" : "android::TextOutput &",
   "name" : "android::TextOutput &",
   "referenced_type" : "type-5261",
   "self_type" : "type-5260",
   "size" : 8,
   "source_file" : "/frameworks/native/libs/binder/include/binder/Parcel.h"
  },
  {
   "alignment" : 8,
   "linker_set_key" : "android::TextOutput &",
   "name" : "android::TextOutput &",
   "referenced_type" : "type-5627",
   "self_type" : "type-5626",
   "size" : 8,
   "source_file" : "/frameworks/native/libs/binder/include/binder/Parcel.h"
  },
  {
   "alignment" : 8,
   "linker_set_key" : "android::TextOutput &",
   "name" : "android::TextOutput &",
   "referenced_type" : "type-5737",
   "self_type" : "type-5736",
   "size" : 8,
   "source_file" : "/frameworks/native/libs/binder/include/binder/Parcel.h"
  },
  {
   "alignment" : 8,
   "linker_set_key" : "android::TextOutput &",
   "name" : "android::TextOutput &",
   "referenced_type" : "type-5802",
   "self_type" : "type-5801",
   "size" : 8,
   "source_file" : "/frameworks/native/libs/binder/include/binder/Parcel.h"
  },
  {
   "alignment" : 8,
   "linker_set_key" : "android::TextOutput &",
   "name" : "android::TextOutput &",
   "referenced_type" : "type-5903",
   "self_type" : "type-5902",
   "size" : 8,
   "source_file" : "/frameworks/native/libs/binder/include/binder/Parcel.h"
  },
  {
   "alignment" : 8,
   "linker_set_key" : "android::TextOutput &",
   "name" : "android::TextOutput &",
   "referenced_type" : "type-6071",
   "self_type" : "type-6070",
   "size" : 8,
   "source_file" : "/frameworks/native/libs/binder/include/binder/Parcel.h"
  },
  {
   "alignment" : 8,
   "linker_set_key" : "android::TextOutput &",
   "name" : "android::TextOutput &",
   "referenced_type" : "type-6217",
   "self_type" : "type-6216",
   "size" : 8,
   "source_file" : "/frameworks/native/libs/binder/include/binder/Parcel.h"
  },
  {
   "alignment" : 8,
   "linker_set_key" : "android::TextOutput &",
   "name" : "android::TextOutput &",
   "referenced_type" : "type-6313",
   "self_type" : "type-6312",
   "size" : 8,
   "source_file" : "/frameworks/native/libs/binder/include/binder/Parcel.h"
  },
  {
   "alignment" : 8,
   "linker_set_key" : "android::TextOutput &",
   "name" : "android::TextOutput &",
   "referenced_type" : "type-6360",
   "self_type" : "type-6359",
   "size" : 8,
   "source_file" : "/frameworks/native/libs/binder/include/binder/Parcel.h"
  },
  {
   "alignment" : 8,
   "linker_set_key" : "android::TextOutput &",
   "name" : "android::TextOutput &",
   "referenced_type" : "type-6443",
   "self_type" : "type-6442",
   "size" : 8,
   "source_file" : "/frameworks/native/libs/binder/include/binder/Parcel.h"
  },
  {
   "alignment" : 8,
   "linker_set_key" : "android::TextOutput &",
   "name" : "android::TextOutput &",
   "referenced_type" : "type-6529",
   "self_type" : "type-6528",
   "size" : 8,
   "source_file" : "/frameworks/native/libs/binder/include/binder/Parcel.h"
  },
  {
   "alignment" : 8,
   "linker_set_key" : "android::TextOutput &",
   "name" : "android::TextOutput &",
   "referenced_type" : "type-6597",
   "self_type" : "type-6596",
   "size" : 8,
   "source_file" : "/frameworks/native/libs/binder/include/binder/Parcel.h"
  },
  {
   "alignment" : 8,
   "linker_set_key" : "android::TextOutput &",
   "name" : "android::TextOutput &",
   "referenced_type" : "type-6651",
   "self_type" : "type-6650",
   "size" : 8,
   "source_file" : "/frameworks/native/libs/binder/include/binder/Parcel.h"
  },
  {
   "alignment" : 8,
   "linker_set_key" : "android::TextOutput &",
   "name" : "android::TextOutput &",
   "referenced_type" : "type-6733",
   "self_type" : "type-6732",
   "size" : 8,
   "source_file" : "/frameworks/native/libs/binder/include/binder/Parcel.h"
  },
  {
   "alignment" : 8,
   "linker_set_key" : "android::TextOutput &",
   "name" : "android::TextOutput &",
   "referenced_type" : "type-6969",
   "self_type" : "type-6968",
   "size" : 8,
   "source_file" : "/frameworks/native/libs/binder/include/binder/Parcel.h"
  },
  {
   "alignment" : 8,
   "linker_set_key" : "android::TextOutput &",
   "name" : "android::TextOutput &",
   "referenced_type" : "type-7112",
   "self_type" : "type-7111",
   "size" : 8,
   "source_file" : "/frameworks/native/libs/binder/include/binder/Parcel.h"
  },
  {
   "alignment" : 8,
   "linker_set_key" : "android::TextOutput &",
   "name" : "android::TextOutput &",
   "referenced_type" : "type-7171",
   "self_type" : "type-7170",
   "size" : 8,
   "source_file" : "/frameworks/native/libs/binder/include/binder/Parcel.h"
  },
  {
   "alignment" : 8,
   "linker_set_key" : "android::TextOutput &",
   "name" : "android::TextOutput &",
   "referenced_type" : "type-7201",
   "self_type" : "type-7200",
   "size" : 8,
   "source_file" : "/frameworks/native/libs/binder/include/binder/Parcel.h"
  },
  {
   "alignment" : 8,
   "linker_set_key" : "android::TextOutput &",
   "name" : "android::TextOutput &",
   "referenced_type" : "type-7258",
   "self_type" : "type-7257",
   "size" : 8,
   "source_file" : "/frameworks/native/libs/binder/include/binder/Parcel.h"
  },
  {
   "alignment" : 8,
   "linker_set_key" : "android::TextOutput &",
   "name" : "android::TextOutput &",
   "referenced_type" : "type-7406",
   "self_type" : "type-7405",
   "size" : 8,
   "source_file" : "/frameworks/native/libs/binder/include/binder/Parcel.h"
  },
  {
   "alignment" : 8,
   "linker_set_key" : "android::TextOutput &",
   "name" : "android::TextOutput &",
   "referenced_type" : "type-7486",
   "self_type" : "type-7485",
   "size" : 8,
   "source_file" : "/frameworks/native/libs/binder/include/binder/Parcel.h"
  },
  {
   "alignment" : 8,
   "linker_set_key" : "android::TextOutput &",
   "name" : "android::TextOutput &",
   "referenced_type" : "type-7520",
   "self_type" : "type-7519",
   "size" : 8,
   "source_file" : "/frameworks/native/libs/binder/include/binder/Parcel.h"
  },
  {
   "alignment" : 8,
   "linker_set_key" : "android::TextOutput &",
   "name" : "android::TextOutput &",
   "referenced_type" : "type-7623",
   "self_type" : "type-7622",
   "size" : 8,
   "source_file" : "/frameworks/native/libs/binder/include/binder/Parcel.h"
  },
  {
   "alignment" : 8,
   "linker_set_key" : "android::TextOutput &",
   "name" : "android::TextOutput &",
   "referenced_type" : "type-7655",
   "self_type" : "type-7654",
   "size" : 8,
   "source_file" : "/frameworks/native/libs/binder/include/binder/Parcel.h"
  },
  {
   "alignment" : 8,
   "linker_set_key" : "android::TextOutput &",
   "name" : "android::TextOutput &",
   "referenced_type" : "type-846",
   "self_type" : "type-845",
   "size" : 8,
   "source_file" : "/frameworks/native/libs/binder/include/binder/Parcel.h"
  },
  {
   "alignment" : 8,
   "linker_set_key" : "android::TextOutput &",
   "name" : "android::TextOutput &",
   "referenced_type" : "type-997",
   "self_type" : "type-996",
   "size" : 8,
   "source_file" : "/frameworks/native/libs/binder/include/binder/Parcel.h"
  },
  {
   "alignment" : 8,
   "linker_set_key" : "android::binder::Status &",
   "name" : "android::binder::Status &",
   "referenced_type" : "type-122",
   "self_type" : "type-134",
   "size" : 8,
   "source_file" : "/frameworks/native/libs/binder/include/binder/Status.h"
  },
  {
   "alignment" : 8,
   "linker_set_key" : "android::hardware::Return<android::hardware::graphics::bufferqueue::V2_0::Status> &",
   "name" : "android::hardware::Return<android::hardware::graphics::bufferqueue::V2_0::Status> &",
   "referenced_type" : "type-7547",
   "self_type" : "type-7550",
   "size" : 8,
   "source_file" : "/system/libhidl/base/include/hidl/Status.h"
  },
  {
   "alignment" : 8,
   "linker_set_key" : "android::hardware::Return<android::sp<android::hardware::graphics::bufferqueue::V1_0::IGraphicBufferProducer> > &",
   "name" : "android::hardware::Return<android::sp<android::hardware::graphics::bufferqueue::V1_0::IGraphicBufferProducer> > &",
   "referenced_type" : "type-4368",
   "self_type" : "type-4371",
   "size" : 8,
   "source_file" : "/system/libhidl/base/include/hidl/Status.h"
  },
  {
   "alignment" : 8,
   "linker_set_key" : "android::hardware::Return<android::sp<android::hardware::graphics::bufferqueue::V1_0::IProducerListener> > &",
   "name" : "android::hardware::Return<android::sp<android::hardware::graphics::bufferqueue::V1_0::IProducerListener> > &",
   "referenced_type" : "type-4497",
   "self_type" : "type-4500",
   "size" : 8,
   "source_file" : "/system/libhidl/base/include/hidl/Status.h"
  },
  {
   "alignment" : 8,
   "linker_set_key" : "android::hardware::Return<android::sp<android::hardware::graphics::bufferqueue::V2_0::IGraphicBufferProducer> > &",
   "name" : "android::hardware::Return<android::sp<android::hardware::graphics::bufferqueue::V2_0::IGraphicBufferProducer> > &",
   "referenced_type" : "type-4374",
   "self_type" : "type-4377",
   "size" : 8,
   "source_file" : "/system/libhidl/base/include/hidl/Status.h"
  },
  {
   "alignment" : 8,
   "linker_set_key" : "android::hardware::Return<android::sp<android::hardware::graphics::bufferqueue::V2_0::IProducerListener> > &",
   "name" : "android::hardware::Return<android::sp<android::hardware::graphics::bufferqueue::V2_0::IProducerListener> > &",
   "referenced_type" : "type-4503",
   "self_type" : "type-4506",
   "size" : 8,
   "source_file" : "/system/libhidl/base/include/hidl/Status.h"
  },
  {
   "alignment" : 8,
   "linker_set_key" : "android::hardware::Return<bool> &",
   "name" : "android::hardware::Return<bool> &",
   "referenced_type" : "type-4362",
   "self_type" : "type-4365",
   "size" : 8,
   "source_file" : "/system/libhidl/base/include/hidl/Status.h"
  },
  {
   "alignment" : 8,
   "linker_set_key" : "android::hardware::Return<int> &",
   "name" : "android::hardware::Return<int> &",
   "referenced_type" : "type-415",
   "self_type" : "type-419",
   "size" : 8,
   "source_file" : "/system/libhidl/base/include/hidl/Status.h"
  },
  {
   "alignment" : 8,
   "linker_set_key" : "android::hardware::Return<unsigned long> &",
   "name" : "android::hardware::Return<unsigned long> &",
   "referenced_type" : "type-7551",
   "self_type" : "type-7554",
   "size" : 8,
   "source_file" : "/system/libhidl/base/include/hidl/Status.h"
  },
  {
   "alignment" : 8,
   "linker_set_key" : "android::hardware::Return<void> &",
   "name" : "android::hardware::Return<void> &",
   "referenced_type" : "type-430",
   "self_type" : "type-433",
   "size" : 8,
   "source_file" : "/system/libhidl/base/include/hidl/Status.h"
  },
  {
   "alignment" : 8,
   "linker_set_key" : "android::hardware::Status &",
   "name" : "android::hardware::Status &",
   "referenced_type" : "type-404",
   "self_type" : "type-411",
   "size" : 8,
   "source_file" : "/system/libhidl/base/include/hidl/Status.h"
  },
  {
   "alignment" : 8,
   "linker_set_key" : "android::hardware::TextOutput &",
   "name" : "android::hardware::TextOutput &",
   "referenced_type" : "type-1388",
   "self_type" : "type-1387",
   "size" : 8,
   "source_file" : "/system/libhwbinder/include/hwbinder/Parcel.h"
  },
  {
   "alignment" : 8,
   "linker_set_key" : "android::hardware::TextOutput &",
   "name" : "android::hardware::TextOutput &",
   "referenced_type" : "type-3929",
   "self_type" : "type-3928",
   "size" : 8,
   "source_file" : "/system/libhwbinder/include/hwbinder/Parcel.h"
  },
  {
   "alignment" : 8,
   "linker_set_key" : "android::hardware::TextOutput &",
   "name" : "android::hardware::TextOutput &",
   "referenced_type" : "type-6538",
   "self_type" : "type-6537",
   "size" : 8,
   "source_file" : "/system/libhwbinder/include/hwbinder/Parcel.h"
  },
  {
   "alignment" : 8,
   "linker_set_key" : "android::hardware::details::hidl_pointer<android::hardware::graphics::bufferqueue::V1_0::IGraphicBufferProducer::FrameEventsDelta> &",
   "name" : "android::hardware::details::hidl_pointer<android::hardware::graphics::bufferqueue::V1_0::IGraphicBufferProducer::FrameEventsDelta> &",
   "referenced_type" : "type-357",
   "self_type" : "type-367",
   "size" : 8,
   "source_file" : "/system/libhidl/base/include/hidl/HidlInternal.h"
  },
  {
   "alignment" : 8,
   "linker_set_key" : "android::hardware::details::hidl_pointer<android::hardware::hidl_array<int, 4> > &",
   "name" : "android::hardware::details::hidl_pointer<android::hardware::hidl_array<int, 4> > &",
   "referenced_type" : "type-382",
   "self_type" : "type-7665",
   "size" : 8,
   "source_file" : "/system/libhidl/base/include/hidl/HidlInternal.h"
  },
  {
   "alignment" : 8,
   "linker_set_key" : "android::hardware::details::hidl_pointer<android::hardware::media::V1_0::Rect> &",
   "name" : "android::hardware::details::hidl_pointer<android::hardware::media::V1_0::Rect> &",
   "referenced_type" : "type-373",
   "self_type" : "type-4604",
   "size" : 8,
   "source_file" : "/system/libhidl/base/include/hidl/HidlInternal.h"
  },
  {
   "alignment" : 8,
   "linker_set_key" : "android::hardware::details::hidl_pointer<unsigned char> &",
   "name" : "android::hardware::details::hidl_pointer<unsigned char> &",
   "referenced_type" : "type-391",
   "self_type" : "type-4356",
   "size" : 8,
   "source_file" : "/system/libhidl/base/include/hidl/HidlInternal.h"
  },
  {
   "alignment" : 8,
   "linker_set_key" : "android::hardware::graphics::bufferqueue::V1_0::IGraphicBufferProducer::CompositorTiming &",
   "name" : "android::hardware::graphics::bufferqueue::V1_0::IGraphicBufferProducer::CompositorTiming &",
   "referenced_type" : "type-588",
   "self_type" : "type-4595",
   "size" : 8,
   "source_file" : "/system/core/libutils/include/utils/Flattenable.h"
  },
  {
   "alignment" : 8,
   "linker_set_key" : "android::hardware::graphics::bufferqueue::V1_0::IGraphicBufferProducer::FrameEventsDelta &",
   "name" : "android::hardware::graphics::bufferqueue::V1_0::IGraphicBufferProducer::FrameEventsDelta &",
   "referenced_type" : "type-360",
   "self_type" : "type-4600",
   "size" : 8,
   "source_file" : "/system/libhidl/base/include/hidl/HidlInternal.h"
  },
  {
   "alignment" : 8,
   "linker_set_key" : "android::hardware::hidl_array<int, 4> &",
   "name" : "android::hardware::hidl_array<int, 4> &",
   "referenced_type" : "type-385",
   "self_type" : "type-5188",
   "size" : 8,
   "source_file" : "/system/libhidl/base/include/hidl/HidlInternal.h"
  },
  {
   "alignment" : 8,
   "linker_set_key" : "android::hardware::hidl_memory &",
   "name" : "android::hardware::hidl_memory &",
   "referenced_type" : "type-440",
   "self_type" : "type-445",
   "size" : 8,
   "source_file" : "/system/libhidl/base/include/hidl/HidlSupport.h"
  },
  {
   "alignment" : 8,
   "linker_set_key" : "android::hardware::hidl_vec<unsigned char> &",
   "name" : "android::hardware::hidl_vec<unsigned char> &",
   "referenced_type" : "type-453",
   "self_type" : "type-4388",
   "size" : 8,
   "source_file" : "/system/libhidl/base/include/hidl/HidlSupport.h"
  },
  {
   "alignment" : 8,
   "linker_set_key" : "android::hardware::media::V1_0::Rect &",
   "name" : "android::hardware::media::V1_0::Rect &",
   "referenced_type" : "type-376",
   "self_type" : "type-4606",
   "size" : 8,
   "source_file" : "/system/libhidl/base/include/hidl/HidlInternal.h"
  },
  {
   "alignment" : 8,
   "linker_set_key" : "android::key_value_pair_t<int, std::shared_ptr<android::GraphicBufferSource::AcquiredBuffer> > &",
   "name" : "android::key_value_pair_t<int, std::shared_ptr<android::GraphicBufferSource::AcquiredBuffer> > &",
   "referenced_type" : "type-164",
   "self_type" : "type-2647",
   "size" : 8,
   "source_file" : "/system/core/libutils/include/utils/TypeHelpers.h"
  },
  {
   "alignment" : 8,
   "linker_set_key" : "android::key_value_pair_t<int, std::shared_ptr<android::GraphicBufferSource::CachedBuffer> > &",
   "name" : "android::key_value_pair_t<int, std::shared_ptr<android::GraphicBufferSource::CachedBuffer> > &",
   "referenced_type" : "type-150",
   "self_type" : "type-2643",
   "size" : 8,
   "source_file" : "/system/core/libutils/include/utils/TypeHelpers.h"
  },
  {
   "alignment" : 8,
   "linker_set_key" : "android::key_value_pair_t<unsigned int, unsigned int> &",
   "name" : "android::key_value_pair_t<unsigned int, unsigned int> &",
   "referenced_type" : "type-146",
   "self_type" : "type-2642",
   "size" : 8,
   "source_file" : "/system/core/libutils/include/utils/TypeHelpers.h"
  },
  {
   "alignment" : 8,
   "linker_set_key" : "android::sp<android::AHandlerReflector<android::GraphicBufferSource> > &",
   "name" : "android::sp<android::AHandlerReflector<android::GraphicBufferSource> > &",
   "referenced_type" : "type-581",
   "self_type" : "type-2517",
   "size" : 8,
   "source_file" : "/system/core/libutils/include/utils/StrongPointer.h"
  },
  {
   "alignment" : 8,
   "linker_set_key" : "android::sp<android::ALooper> &",
   "name" : "android::sp<android::ALooper> &",
   "referenced_type" : "type-322",
   "self_type" : "type-2271",
   "size" : 8,
   "source_file" : "/system/core/libutils/include/utils/StrongPointer.h"
  },
  {
   "alignment" : 8,
   "linker_set_key" : "android::sp<android::AMessage> &",
   "name" : "android::sp<android::AMessage> &",
   "referenced_type" : "type-259",
   "self_type" : "type-2071",
   "size" : 8,
   "source_file" : "/system/core/libutils/include/utils/StrongPointer.h"
  },
  {
   "alignment" : 8,
   "linker_set_key" : "android::sp<android::ComponentWrapper> &",
   "name" : "android::sp<android::ComponentWrapper> &",
   "referenced_type" : "type-567",
   "self_type" : "type-2495",
   "size" : 8,
   "source_file" : "/system/core/libutils/include/utils/StrongPointer.h"
  },
  {
   "alignment" : 8,
   "linker_set_key" : "android::sp<android::Fence> &",
   "name" : "android::sp<android::Fence> &",
   "referenced_type" : "type-1869",
   "self_type" : "type-2531",
   "size" : 8,
   "source_file" : "/system/core/libutils/include/utils/StrongPointer.h"
  },
  {
   "alignment" : 8,
   "linker_set_key" : "android::sp<android::FrameDropper> &",
   "name" : "android::sp<android::FrameDropper> &",
   "referenced_type" : "type-578",
   "self_type" : "type-2510",
   "size" : 8,
   "source_file" : "/system/core/libutils/include/utils/StrongPointer.h"
  },
  {
   "alignment" : 8,
   "linker_set_key" : "android::sp<android::GraphicBuffer> &",
   "name" : "android::sp<android::GraphicBuffer> &",
   "referenced_type" : "type-733",
   "self_type" : "type-732",
   "size" : 8,
   "source_file" : "/system/core/libutils/include/utils/StrongPointer.h"
  },
  {
   "alignment" : 8,
   "linker_set_key" : "android::sp<android::GraphicBufferSource::ConsumerProxy> &",
   "name" : "android::sp<android::GraphicBufferSource::ConsumerProxy> &",
   "referenced_type" : "type-473",
   "self_type" : "type-2502",
   "size" : 8,
   "source_file" : "/system/core/libutils/include/utils/StrongPointer.h"
  },
  {
   "alignment" : 8,
   "linker_set_key" : "android::sp<android::H2BConverter<IGraphicBufferProducer, BnGraphicBufferProducer>::Obituary> &",
   "name" : "android::sp<android::H2BConverter<IGraphicBufferProducer, BnGraphicBufferProducer>::Obituary> &",
   "referenced_type" : "type-4268",
   "self_type" : "type-4271",
   "size" : 8,
   "source_file" : "/system/core/libutils/include/utils/StrongPointer.h"
  },
  {
   "alignment" : 8,
   "linker_set_key" : "android::sp<android::H2BConverter<IGraphicBufferProducer, BnGraphicBufferProducer>::Obituary> &",
   "name" : "android::sp<android::H2BConverter<IGraphicBufferProducer, BnGraphicBufferProducer>::Obituary> &",
   "referenced_type" : "type-4277",
   "self_type" : "type-4280",
   "size" : 8,
   "source_file" : "/system/core/libutils/include/utils/StrongPointer.h"
  },
  {
   "alignment" : 8,
   "linker_set_key" : "android::sp<android::H2BConverter<IProducerListener, BnProducerListener>::Obituary> &",
   "name" : "android::sp<android::H2BConverter<IProducerListener, BnProducerListener>::Obituary> &",
   "referenced_type" : "type-4838",
   "self_type" : "type-4847",
   "size" : 8,
   "source_file" : "/system/core/libutils/include/utils/StrongPointer.h"
  },
  {
   "alignment" : 8,
   "linker_set_key" : "android::sp<android::H2BConverter<IProducerListener, BnProducerListener>::Obituary> &",
   "name" : "android::sp<android::H2BConverter<IProducerListener, BnProducerListener>::Obituary> &",
   "referenced_type" : "type-5127",
   "self_type" : "type-5134",
   "size" : 8,
   "source_file" : "/system/core/libutils/include/utils/StrongPointer.h"
  },
  {
   "alignment" : 8,
   "linker_set_key" : "android::sp<android::IConsumerListener> &",
   "name" : "android::sp<android::IConsumerListener> &",
   "referenced_type" : "type-940",
   "self_type" : "type-939",
   "size" : 8,
   "source_file" : "/system/core/libutils/include/utils/StrongPointer.h"
  },
  {
   "alignment" : 8,
   "linker_set_key" : "android::sp<android::IGraphicBufferConsumer> &",
   "name" : "android::sp<android::IGraphicBufferConsumer> &",
   "referenced_type" : "type-574",
   "self_type" : "type-788",
   "size" : 8,
   "source_file" : "/system/core/libutils/include/utils/StrongPointer.h"
  },
  {
   "alignment" : 8,
   "linker_set_key" : "android::sp<android::IGraphicBufferProducer> &",
   "name" : "android::sp<android::IGraphicBufferProducer> &",
   "referenced_type" : "type-570",
   "self_type" : "type-812",
   "size" : 8,
   "source_file" : "/system/core/libutils/include/utils/StrongPointer.h"
  },
  {
   "alignment" : 8,
   "linker_set_key" : "android::sp<android::IProducerListener> &",
   "name" : "android::sp<android::IProducerListener> &",
   "referenced_type" : "type-958",
   "self_type" : "type-957",
   "size" : 8,
   "source_file" : "/system/core/libutils/include/utils/StrongPointer.h"
  },
  {
   "alignment" : 8,
   "linker_set_key" : "android::sp<android::NativeHandle> &",
   "name" : "android::sp<android::NativeHandle> &",
   "referenced_type" : "type-933",
   "self_type" : "type-932",
   "size" : 8,
   "source_file" : "/system/core/libutils/include/utils/StrongPointer.h"
  },
  {
   "alignment" : 8,
   "linker_set_key" : "android::sp<android::NativeHandle> *&",
   "name" : "android::sp<android::NativeHandle> *&",
   "referenced_type" : "type-1886",
   "self_type" : "type-1885",
   "size" : 8,
   "source_file" : "/frameworks/native/libs/binder/include/binder/SafeInterface.h"
  },
  {
   "alignment" : 8,
   "linker_set_key" : "android::sp<android::hardware::graphics::bufferqueue::V2_0::IProducerListener> &",
   "name" : "android::sp<android::hardware::graphics::bufferqueue::V2_0::IProducerListener> &",
   "referenced_type" : "type-2475",
   "self_type" : "type-7678",
   "size" : 8,
   "source_file" : "/system/core/libutils/include/utils/StrongPointer.h"
  },
  {
   "alignment" : 8,
   "linker_set_key" : "android::wp<android::ALooper> &",
   "name" : "android::wp<android::ALooper> &",
   "referenced_type" : "type-246",
   "self_type" : "type-347",
   "size" : 8,
   "source_file" : "/system/core/libutils/include/utils/RefBase.h"
  },
  {
   "alignment" : 8,
   "linker_set_key" : "android::wp<android::IBinder::DeathRecipient> &",
   "name" : "android::wp<android::IBinder::DeathRecipient> &",
   "referenced_type" : "type-174",
   "self_type" : "type-4313",
   "size" : 8,
   "source_file" : "/system/core/libutils/include/utils/RefBase.h"
  },
  {
   "alignment" : 8,
   "linker_set_key" : "android_cta861_3_metadata &",
   "name" : "android_cta861_3_metadata &",
   "referenced_type" : "type-306",
   "self_type" : "type-1481",
   "size" : 8,
   "source_file" : "/system/core/libutils/include/utils/Flattenable.h"
  },
  {
   "alignment" : 8,
   "linker_set_key" : "android_dataspace_t &",
   "name" : "android_dataspace_t &",
   "referenced_type" : "type-173",
   "self_type" : "type-768",
   "size" : 8,
   "source_file" : "/system/core/libutils/include/utils/Flattenable.h"
  },
  {
   "alignment" : 8,
   "linker_set_key" : "android_smpte2086_metadata &",
   "name" : "android_smpte2086_metadata &",
   "referenced_type" : "type-305",
   "self_type" : "type-1479",
   "size" : 8,
   "source_file" : "/system/core/libutils/include/utils/Flattenable.h"
  },
  {
   "alignment" : 8,
   "linker_set_key" : "bool &",
   "name" : "bool &",
   "referenced_type" : "type-95",
   "self_type" : "type-767",
   "size" : 8,
   "source_file" : "/system/core/libutils/include/utils/Flattenable.h"
  },
  {
   "alignment" : 8,
   "linker_set_key" : "const android::AString &",
   "name" : "const android::AString &",
   "referenced_type" : "type-2093",
   "self_type" : "type-2245",
   "size" : 8,
   "source_file" : "/frameworks/av/media/libstagefright/foundation/include/media/stagefright/foundation/AString.h"
  },
  {
   "alignment" : 8,
   "linker_set_key" : "const android::BufferItem &",
   "name" : "const android::BufferItem &",
   "referenced_type" : "type-1223",
   "self_type" : "type-1225",
   "size" : 8,
   "source_file" : "/system/core/libutils/include/utils/Vector.h"
  },
  {
   "alignment" : 8,
   "linker_set_key" : "const android::BufferItem &",
   "name" : "const android::BufferItem &",
   "referenced_type" : "type-1534",
   "self_type" : "type-1536",
   "size" : 8,
   "source_file" : "/frameworks/native/libs/binder/include/binder/SafeInterface.h"
  },
  {
   "alignment" : 8,
   "linker_set_key" : "const android::BufferItem &",
   "name" : "const android::BufferItem &",
   "referenced_type" : "type-1676",
   "self_type" : "type-1678",
   "size" : 8,
   "source_file" : "/frameworks/native/libs/binder/include/binder/SafeInterface.h"
  },
  {
   "alignment" : 8,
   "linker_set_key" : "const android::BufferItem &",
   "name" : "const android::BufferItem &",
   "referenced_type" : "type-3444",
   "self_type" : "type-3446",
   "size" : 8,
   "source_file" : "/frameworks/av/media/libstagefright/bqhelper/include/media/stagefright/bqhelper/GraphicBufferSource.h"
  },
  {
   "alignment" : 8,
   "linker_set_key" : "const android::BufferItem &",
   "name" : "const android::BufferItem &",
   "referenced_type" : "type-3638",
   "self_type" : "type-3642",
   "size" : 8,
   "source_file" : "/system/core/libutils/include/utils/Vector.h"
  },
  {
   "alignment" : 8,
   "linker_set_key" : "const android::BufferItem &",
   "name" : "const android::BufferItem &",
   "referenced_type" : "type-3799",
   "self_type" : "type-3801",
   "size" : 8,
   "source_file" : "/system/core/libutils/include/utils/Vector.h"
  },
  {
   "alignment" : 8,
   "linker_set_key" : "const android::BufferItem &",
   "name" : "const android::BufferItem &",
   "referenced_type" : "type-4049",
   "self_type" : "type-4051",
   "size" : 8,
   "source_file" : "/frameworks/native/libs/binder/include/binder/SafeInterface.h"
  },
  {
   "alignment" : 8,
   "linker_set_key" : "const android::BufferItem &",
   "name" : "const android::BufferItem &",
   "referenced_type" : "type-4134",
   "self_type" : "type-4136",
   "size" : 8,
   "source_file" : "/frameworks/native/libs/binder/include/binder/SafeInterface.h"
  },
  {
   "alignment" : 8,
   "linker_set_key" : "const android::BufferItem &",
   "name" : "const android::BufferItem &",
   "referenced_type" : "type-5533",
   "self_type" : "type-5535",
   "size" : 8,
   "source_file" : "/frameworks/av/media/libstagefright/bqhelper/include/media/stagefright/bqhelper/GraphicBufferSource.h"
  },
  {
   "alignment" : 8,
   "linker_set_key" : "const android::BufferItem &",
   "name" : "const android::BufferItem &",
   "referenced_type" : "type-5727",
   "self_type" : "type-5731",
   "size" : 8,
   "source_file" : "/system/core/libutils/include/utils/Vector.h"
  },
  {
   "alignment" : 8,
   "linker_set_key" : "const android::BufferItem &",
   "name" : "const android::BufferItem &",
   "referenced_type" : "type-5888",
   "self_type" : "type-5890",
   "size" : 8,
   "source_file" : "/system/core/libutils/include/utils/Vector.h"
  },
  {
   "alignment" : 8,
   "linker_set_key" : "const android::BufferItem &",
   "name" : "const android::BufferItem &",
   "referenced_type" : "type-6142",
   "self_type" : "type-6144",
   "size" : 8,
   "source_file" : "/frameworks/av/media/libstagefright/bqhelper/include/media/stagefright/bqhelper/GraphicBufferSource.h"
  },
  {
   "alignment" : 8,
   "linker_set_key" : "const android::BufferItem &",
   "name" : "const android::BufferItem &",
   "referenced_type" : "type-6301",
   "self_type" : "type-6305",
   "size" : 8,
   "source_file" : "/system/core/libutils/include/utils/Vector.h"
  },
  {
   "alignment" : 8,
   "linker_set_key" : "const android::BufferItem &",
   "name" : "const android::BufferItem &",
   "referenced_type" : "type-6437",
   "self_type" : "type-6439",
   "size" : 8,
   "source_file" : "/system/core/libutils/include/utils/Vector.h"
  },
  {
   "alignment" : 8,
   "linker_set_key" : "const android::BufferItem &",
   "name" : "const android::BufferItem &",
   "referenced_type" : "type-6655",
   "self_type" : "type-6657",
   "size" : 8,
   "source_file" : "/frameworks/native/libs/binder/include/binder/SafeInterface.h"
  },
  {
   "alignment" : 8,
   "linker_set_key" : "const android::BufferItem &",
   "name" : "const android::BufferItem &",
   "referenced_type" : "type-6737",
   "self_type" : "type-6739",
   "size" : 8,
   "source_file" : "/frameworks/native/libs/binder/include/binder/SafeInterface.h"
  },
  {
   "alignment" : 8,
   "linker_set_key" : "const android::BufferItem &",
   "name" : "const android::BufferItem &",
   "referenced_type" : "type-681",
   "self_type" : "type-683",
   "size" : 8,
   "source_file" : "/frameworks/av/media/libstagefright/bqhelper/include/media/stagefright/bqhelper/GraphicBufferSource.h"
  },
  {
   "alignment" : 8,
   "linker_set_key" : "const android::BufferItem &",
   "name" : "const android::BufferItem &",
   "referenced_type" : "type-983",
   "self_type" : "type-987",
   "size" : 8,
   "source_file" : "/system/core/libutils/include/utils/Vector.h"
  },
  {
   "alignment" : 8,
   "linker_set_key" : "const android::CompositorTiming &",
   "name" : "const android::CompositorTiming &",
   "referenced_type" : "type-1428",
   "self_type" : "type-1430",
   "size" : 8,
   "source_file" : "/system/core/libutils/include/utils/Flattenable.h"
  },
  {
   "alignment" : 8,
   "linker_set_key" : "const android::CompositorTiming &",
   "name" : "const android::CompositorTiming &",
   "referenced_type" : "type-3960",
   "self_type" : "type-3962",
   "size" : 8,
   "source_file" : "/system/core/libutils/include/utils/Flattenable.h"
  },
  {
   "alignment" : 8,
   "linker_set_key" : "const android::CompositorTiming &",
   "name" : "const android::CompositorTiming &",
   "referenced_type" : "type-6570",
   "self_type" : "type-6572",
   "size" : 8,
   "source_file" : "/system/core/libutils/include/utils/Flattenable.h"
  },
  {
   "alignment" : 8,
   "linker_set_key" : "const android::FenceTime::Snapshot::State &",
   "name" : "const android::FenceTime::Snapshot::State &",
   "referenced_type" : "type-4588",
   "self_type" : "type-4590",
   "size" : 8,
   "source_file" : "/system/core/libutils/include/utils/Flattenable.h"
  },
  {
   "alignment" : 8,
   "linker_set_key" : "const android::FenceTime::Snapshot::State &",
   "name" : "const android::FenceTime::Snapshot::State &",
   "referenced_type" : "type-4757",
   "self_type" : "type-4759",
   "size" : 8,
   "source_file" : "/system/core/libutils/include/utils/Flattenable.h"
  },
  {
   "alignment" : 8,
   "linker_set_key" : "const android::FenceTime::Snapshot::State &",
   "name" : "const android::FenceTime::Snapshot::State &",
   "referenced_type" : "type-7242",
   "self_type" : "type-7244",
   "size" : 8,
   "source_file" : "/system/core/libutils/include/utils/Flattenable.h"
  },
  {
   "alignment" : 8,
   "linker_set_key" : "const android::FenceTime::Snapshot::State &",
   "name" : "const android::FenceTime::Snapshot::State &",
   "referenced_type" : "type-7388",
   "self_type" : "type-7390",
   "size" : 8,
   "source_file" : "/system/core/libutils/include/utils/Flattenable.h"
  },
  {
   "alignment" : 8,
   "linker_set_key" : "const android::Flattenable<android::BufferItem> &",
   "name" : "const android::Flattenable<android::BufferItem> &",
   "referenced_type" : "type-1510",
   "self_type" : "type-1517",
   "size" : 8,
   "source_file" : "/frameworks/native/libs/binder/include/binder/Parcel.h"
  },
  {
   "alignment" : 8,
   "linker_set_key" : "const android::Flattenable<android::Fence> &",
   "name" : "const android::Flattenable<android::Fence> &",
   "referenced_type" : "type-1639",
   "self_type" : "type-1651",
   "size" : 8,
   "source_file" : "/frameworks/native/libs/binder/include/binder/Parcel.h"
  },
  {
   "alignment" : 8,
   "linker_set_key" : "const android::Flattenable<android::FrameEventHistoryDelta> &",
   "name" : "const android::Flattenable<android::FrameEventHistoryDelta> &",
   "referenced_type" : "type-4315",
   "self_type" : "type-4332",
   "size" : 8,
   "source_file" : "/frameworks/native/libs/binder/include/binder/Parcel.h"
  },
  {
   "alignment" : 8,
   "linker_set_key" : "const android::Flattenable<android::GraphicBuffer> &",
   "name" : "const android::Flattenable<android::GraphicBuffer> &",
   "referenced_type" : "type-1644",
   "self_type" : "type-1650",
   "size" : 8,
   "source_file" : "/frameworks/native/libs/binder/include/binder/Parcel.h"
  },
  {
   "alignment" : 8,
   "linker_set_key" : "const android::Flattenable<android::IGraphicBufferProducer::QueueBufferInput> &",
   "name" : "const android::Flattenable<android::IGraphicBufferProducer::QueueBufferInput> &",
   "referenced_type" : "type-4318",
   "self_type" : "type-4331",
   "size" : 8,
   "source_file" : "/frameworks/native/libs/binder/include/binder/Parcel.h"
  },
  {
   "alignment" : 8,
   "linker_set_key" : "const android::Flattenable<android::IGraphicBufferProducer::QueueBufferOutput> &",
   "name" : "const android::Flattenable<android::IGraphicBufferProducer::QueueBufferOutput> &",
   "referenced_type" : "type-4321",
   "self_type" : "type-4333",
   "size" : 8,
   "source_file" : "/frameworks/native/libs/binder/include/binder/Parcel.h"
  },
  {
   "alignment" : 8,
   "linker_set_key" : "const android::GraphicBufferSource::ActionItem &",
   "name" : "const android::GraphicBufferSource::ActionItem &",
   "referenced_type" : "type-223",
   "self_type" : "type-226",
   "size" : 8,
   "source_file" : "/system/core/libutils/include/utils/List.h"
  },
  {
   "alignment" : 8,
   "linker_set_key" : "const android::GraphicBufferSource::VideoBuffer &",
   "name" : "const android::GraphicBufferSource::VideoBuffer &",
   "referenced_type" : "type-170",
   "self_type" : "type-177",
   "size" : 8,
   "source_file" : "/system/core/libutils/include/utils/List.h"
  },
  {
   "alignment" : 8,
   "linker_set_key" : "const android::List<ActionItem>::_ListIterator<android::GraphicBufferSource::ActionItem, android::List<ActionItem>::NON_CONST_ITERATOR> &",
   "name" : "const android::List<ActionItem>::_ListIterator<android::GraphicBufferSource::ActionItem, android::List<ActionItem>::NON_CONST_ITERATOR> &",
   "referenced_type" : "type-236",
   "self_type" : "type-237",
   "size" : 8,
   "source_file" : "/system/core/libutils/include/utils/List.h"
  },
  {
   "alignment" : 8,
   "linker_set_key" : "const android::List<VideoBuffer>::_ListIterator<android::GraphicBufferSource::VideoBuffer, android::List<VideoBuffer>::CONST_ITERATOR> &",
   "name" : "const android::List<VideoBuffer>::_ListIterator<android::GraphicBufferSource::VideoBuffer, android::List<VideoBuffer>::CONST_ITERATOR> &",
   "referenced_type" : "type-192",
   "self_type" : "type-194",
   "size" : 8,
   "source_file" : "/system/core/libutils/include/utils/List.h"
  },
  {
   "alignment" : 8,
   "linker_set_key" : "const android::List<int>::_ListIterator<int, android::List<int>::CONST_ITERATOR> &",
   "name" : "const android::List<int>::_ListIterator<int, android::List<int>::CONST_ITERATOR> &",
   "referenced_type" : "type-214",
   "self_type" : "type-217",
   "size" : 8,
   "source_file" : "/system/core/libutils/include/utils/List.h"
  },
  {
   "alignment" : 8,
   "linker_set_key" : "const android::Parcel &",
   "name" : "const android::Parcel &",
   "referenced_type" : "type-120",
   "self_type" : "type-121",
   "size" : 8,
   "source_file" : "/frameworks/native/libs/binder/include/binder/Parcel.h"
  },
  {
   "alignment" : 8,
   "linker_set_key" : "const android::Parcel &",
   "name" : "const android::Parcel &",
   "referenced_type" : "type-4542",
   "self_type" : "type-4541",
   "size" : 8,
   "source_file" : "/frameworks/native/libs/binder/include/binder/Parcel.h"
  },
  {
   "alignment" : 8,
   "linker_set_key" : "const android::Parcel &",
   "name" : "const android::Parcel &",
   "referenced_type" : "type-7173",
   "self_type" : "type-7172",
   "size" : 8,
   "source_file" : "/frameworks/native/libs/binder/include/binder/Parcel.h"
  },
  {
   "alignment" : 8,
   "linker_set_key" : "const android::Parcelable &",
   "name" : "const android::Parcelable &",
   "referenced_type" : "type-87",
   "self_type" : "type-89",
   "size" : 8,
   "source_file" : "/frameworks/native/libs/binder/include/binder/Parcelable.h"
  },
  {
   "alignment" : 8,
   "linker_set_key" : "const android::Rect &",
   "name" : "const android::Rect &",
   "referenced_type" : "type-1218",
   "self_type" : "type-1221",
   "size" : 8,
   "source_file" : "/system/core/libutils/include/utils/Vector.h"
  },
  {
   "alignment" : 8,
   "linker_set_key" : "const android::Rect &",
   "name" : "const android::Rect &",
   "referenced_type" : "type-1494",
   "self_type" : "type-1496",
   "size" : 8,
   "source_file" : "/system/core/libutils/include/utils/Vector.h"
  },
  {
   "alignment" : 8,
   "linker_set_key" : "const android::Rect &",
   "name" : "const android::Rect &",
   "referenced_type" : "type-1625",
   "self_type" : "type-1627",
   "size" : 8,
   "source_file" : "/system/core/libutils/include/utils/Vector.h"
  },
  {
   "alignment" : 8,
   "linker_set_key" : "const android::Rect &",
   "name" : "const android::Rect &",
   "referenced_type" : "type-2688",
   "self_type" : "type-2690",
   "size" : 8,
   "source_file" : "/system/core/libutils/include/utils/Vector.h"
  },
  {
   "alignment" : 8,
   "linker_set_key" : "const android::Rect &",
   "name" : "const android::Rect &",
   "referenced_type" : "type-3469",
   "self_type" : "type-3471",
   "size" : 8,
   "source_file" : "/system/core/libutils/include/utils/Flattenable.h"
  },
  {
   "alignment" : 8,
   "linker_set_key" : "const android::Rect &",
   "name" : "const android::Rect &",
   "referenced_type" : "type-3794",
   "self_type" : "type-3797",
   "size" : 8,
   "source_file" : "/system/core/libutils/include/utils/Vector.h"
  },
  {
   "alignment" : 8,
   "linker_set_key" : "const android::Rect &",
   "name" : "const android::Rect &",
   "referenced_type" : "type-4019",
   "self_type" : "type-4021",
   "size" : 8,
   "source_file" : "/system/core/libutils/include/utils/Vector.h"
  },
  {
   "alignment" : 8,
   "linker_set_key" : "const android::Rect &",
   "name" : "const android::Rect &",
   "referenced_type" : "type-4098",
   "self_type" : "type-4100",
   "size" : 8,
   "source_file" : "/system/core/libutils/include/utils/Vector.h"
  },
  {
   "alignment" : 8,
   "linker_set_key" : "const android::Rect &",
   "name" : "const android::Rect &",
   "referenced_type" : "type-4301",
   "self_type" : "type-4303",
   "size" : 8,
   "source_file" : "/system/core/libutils/include/utils/Vector.h"
  },
  {
   "alignment" : 8,
   "linker_set_key" : "const android::Rect &",
   "name" : "const android::Rect &",
   "referenced_type" : "type-4581",
   "self_type" : "type-4583",
   "size" : 8,
   "source_file" : "/system/core/libutils/include/utils/Vector.h"
  },
  {
   "alignment" : 8,
   "linker_set_key" : "const android::Rect &",
   "name" : "const android::Rect &",
   "referenced_type" : "type-4746",
   "self_type" : "type-4748",
   "size" : 8,
   "source_file" : "/system/core/libutils/include/utils/Vector.h"
  },
  {
   "alignment" : 8,
   "linker_set_key" : "const android::Rect &",
   "name" : "const android::Rect &",
   "referenced_type" : "type-5028",
   "self_type" : "type-5030",
   "size" : 8,
   "source_file" : "/system/core/libutils/include/utils/Vector.h"
  },
  {
   "alignment" : 8,
   "linker_set_key" : "const android::Rect &",
   "name" : "const android::Rect &",
   "referenced_type" : "type-5096",
   "self_type" : "type-5098",
   "size" : 8,
   "source_file" : "/system/core/libutils/include/utils/Vector.h"
  },
  {
   "alignment" : 8,
   "linker_set_key" : "const android::Rect &",
   "name" : "const android::Rect &",
   "referenced_type" : "type-5558",
   "self_type" : "type-5560",
   "size" : 8,
   "source_file" : "/system/core/libutils/include/utils/Flattenable.h"
  },
  {
   "alignment" : 8,
   "linker_set_key" : "const android::Rect &",
   "name" : "const android::Rect &",
   "referenced_type" : "type-5883",
   "self_type" : "type-5886",
   "size" : 8,
   "source_file" : "/system/core/libutils/include/utils/Vector.h"
  },
  {
   "alignment" : 8,
   "linker_set_key" : "const android::Rect &",
   "name" : "const android::Rect &",
   "referenced_type" : "type-6066",
   "self_type" : "type-6068",
   "size" : 8,
   "source_file" : "/system/core/libutils/include/utils/Vector.h"
  },
  {
   "alignment" : 8,
   "linker_set_key" : "const android::Rect &",
   "name" : "const android::Rect &",
   "referenced_type" : "type-6164",
   "self_type" : "type-6167",
   "size" : 8,
   "source_file" : "/system/core/libutils/include/utils/Flattenable.h"
  },
  {
   "alignment" : 8,
   "linker_set_key" : "const android::Rect &",
   "name" : "const android::Rect &",
   "referenced_type" : "type-6433",
   "self_type" : "type-6435",
   "size" : 8,
   "source_file" : "/system/core/libutils/include/utils/Vector.h"
  },
  {
   "alignment" : 8,
   "linker_set_key" : "const android::Rect &",
   "name" : "const android::Rect &",
   "referenced_type" : "type-6624",
   "self_type" : "type-6626",
   "size" : 8,
   "source_file" : "/system/core/libutils/include/utils/Vector.h"
  },
  {
   "alignment" : 8,
   "linker_set_key" : "const android::Rect &",
   "name" : "const android::Rect &",
   "referenced_type" : "type-6702",
   "self_type" : "type-6704",
   "size" : 8,
   "source_file" : "/system/core/libutils/include/utils/Vector.h"
  },
  {
   "alignment" : 8,
   "linker_set_key" : "const android::Rect &",
   "name" : "const android::Rect &",
   "referenced_type" : "type-6922",
   "self_type" : "type-6924",
   "size" : 8,
   "source_file" : "/system/core/libutils/include/utils/Vector.h"
  },
  {
   "alignment" : 8,
   "linker_set_key" : "const android::Rect &",
   "name" : "const android::Rect &",
   "referenced_type" : "type-7233",
   "self_type" : "type-7235",
   "size" : 8,
   "source_file" : "/system/core/libutils/include/utils/Vector.h"
  },
  {
   "alignment" : 8,
   "linker_set_key" : "const android::Rect &",
   "name" : "const android::Rect &",
   "referenced_type" : "type-7379",
   "self_type" : "type-7381",
   "size" : 8,
   "source_file" : "/system/core/libutils/include/utils/Vector.h"
  },
  {
   "alignment" : 8,
   "linker_set_key" : "const android::Rect &",
   "name" : "const android::Rect &",
   "referenced_type" : "type-759",
   "self_type" : "type-761",
   "size" : 8,
   "source_file" : "/system/core/libutils/include/utils/Flattenable.h"
  },
  {
   "alignment" : 8,
   "linker_set_key" : "const android::Rect &",
   "name" : "const android::Rect &",
   "referenced_type" : "type-7607",
   "self_type" : "type-7609",
   "size" : 8,
   "source_file" : "/system/core/libutils/include/utils/Vector.h"
  },
  {
   "alignment" : 8,
   "linker_set_key" : "const android::Rect &",
   "name" : "const android::Rect &",
   "referenced_type" : "type-7699",
   "self_type" : "type-7707",
   "size" : 8,
   "source_file" : "/system/core/libutils/include/utils/Vector.h"
  },
  {
   "alignment" : 8,
   "linker_set_key" : "const android::SafeInterface::ParcelHandler &",
   "name" : "const android::SafeInterface::ParcelHandler &",
   "referenced_type" : "type-1269",
   "self_type" : "type-1680",
   "size" : 8,
   "source_file" : "/frameworks/native/libs/binder/include/binder/SafeInterface.h"
  },
  {
   "alignment" : 8,
   "linker_set_key" : "const android::String16 &",
   "name" : "const android::String16 &",
   "referenced_type" : "type-1251",
   "self_type" : "type-1250",
   "size" : 8,
   "source_file" : "/system/core/libutils/include/utils/String16.h"
  },
  {
   "alignment" : 8,
   "linker_set_key" : "const android::String8 &",
   "name" : "const android::String8 &",
   "referenced_type" : "type-1881",
   "self_type" : "type-1880",
   "size" : 8,
   "source_file" : "/system/core/libutils/include/utils/String8.h"
  },
  {
   "alignment" : 8,
   "linker_set_key" : "const android::binder::Status &",
   "name" : "const android::binder::Status &",
   "referenced_type" : "type-129",
   "self_type" : "type-130",
   "size" : 8,
   "source_file" : "/frameworks/native/libs/binder/include/binder/Status.h"
  },
  {
   "alignment" : 8,
   "linker_set_key" : "const android::hardware::Parcel &",
   "name" : "const android::hardware::Parcel &",
   "referenced_type" : "type-1389",
   "self_type" : "type-1390",
   "size" : 8,
   "source_file" : "/system/libhwbinder/include/hwbinder/Parcel.h"
  },
  {
   "alignment" : 8,
   "linker_set_key" : "const android::hardware::Status &",
   "name" : "const android::hardware::Status &",
   "referenced_type" : "type-408",
   "self_type" : "type-409",
   "size" : 8,
   "source_file" : "/system/libhidl/base/include/hidl/Status.h"
  },
  {
   "alignment" : 8,
   "linker_set_key" : "const android::hardware::details::const_accessor<int, 4> &",
   "name" : "const android::hardware::details::const_accessor<int, 4> &",
   "referenced_type" : "type-482",
   "self_type" : "type-508",
   "size" : 8,
   "source_file" : "/system/libhidl/base/include/hidl/HidlSupport.h"
  },
  {
   "alignment" : 8,
   "linker_set_key" : "const android::hardware::details::const_accessor<unsigned int, 10> &",
   "name" : "const android::hardware::details::const_accessor<unsigned int, 10> &",
   "referenced_type" : "type-477",
   "self_type" : "type-507",
   "size" : 8,
   "source_file" : "/system/libhidl/base/include/hidl/HidlSupport.h"
  },
  {
   "alignment" : 8,
   "linker_set_key" : "const android::hardware::details::hidl_pointer<unsigned char> &",
   "name" : "const android::hardware::details::hidl_pointer<unsigned char> &",
   "referenced_type" : "type-4357",
   "self_type" : "type-4579",
   "size" : 8,
   "source_file" : "/system/libhidl/base/include/hidl/HidlInternal.h"
  },
  {
   "alignment" : 8,
   "linker_set_key" : "const android::hardware::graphics::bufferqueue::V1_0::IGraphicBufferProducer::CompositorTiming &",
   "name" : "const android::hardware::graphics::bufferqueue::V1_0::IGraphicBufferProducer::CompositorTiming &",
   "referenced_type" : "type-4591",
   "self_type" : "type-4592",
   "size" : 8,
   "source_file" : "/system/core/libutils/include/utils/Flattenable.h"
  },
  {
   "alignment" : 8,
   "linker_set_key" : "const android::hardware::graphics::bufferqueue::V1_0::IGraphicBufferProducer::FrameEventsDelta &",
   "name" : "const android::hardware::graphics::bufferqueue::V1_0::IGraphicBufferProducer::FrameEventsDelta &",
   "referenced_type" : "type-372",
   "self_type" : "type-371",
   "size" : 8,
   "source_file" : "/system/libhidl/base/include/hidl/HidlInternal.h"
  },
  {
   "alignment" : 8,
   "linker_set_key" : "const android::hardware::hidl_array<int, 4> &",
   "name" : "const android::hardware::hidl_array<int, 4> &",
   "referenced_type" : "type-388",
   "self_type" : "type-387",
   "size" : 8,
   "source_file" : "/system/libhidl/base/include/hidl/HidlInternal.h"
  },
  {
   "alignment" : 8,
   "linker_set_key" : "const android::hardware::hidl_array<unsigned int, 10> &",
   "name" : "const android::hardware::hidl_array<unsigned int, 10> &",
   "referenced_type" : "type-494",
   "self_type" : "type-518",
   "size" : 8,
   "source_file" : "/system/libhidl/base/include/hidl/HidlSupport.h"
  },
  {
   "alignment" : 8,
   "linker_set_key" : "const android::hardware::hidl_handle &",
   "name" : "const android::hardware::hidl_handle &",
   "referenced_type" : "type-511",
   "self_type" : "type-512",
   "size" : 8,
   "source_file" : "/system/libhidl/base/include/hidl/HidlSupport.h"
  },
  {
   "alignment" : 8,
   "linker_set_key" : "const android::hardware::hidl_memory &",
   "name" : "const android::hardware::hidl_memory &",
   "referenced_type" : "type-443",
   "self_type" : "type-444",
   "size" : 8,
   "source_file" : "/system/libhidl/base/include/hidl/HidlSupport.h"
  },
  {
   "alignment" : 8,
   "linker_set_key" : "const android::hardware::hidl_string &",
   "name" : "const android::hardware::hidl_string &",
   "referenced_type" : "type-435",
   "self_type" : "type-439",
   "size" : 8,
   "source_file" : "/system/libhidl/base/include/hidl/HidlSupport.h"
  },
  {
   "alignment" : 8,
   "linker_set_key" : "const android::hardware::hidl_vec<android::hardware::graphics::bufferqueue::V1_0::IGraphicBufferProducer::FrameEventsDelta> &",
   "name" : "const android::hardware::hidl_vec<android::hardware::graphics::bufferqueue::V1_0::IGraphicBufferProducer::FrameEventsDelta> &",
   "referenced_type" : "type-460",
   "self_type" : "type-505",
   "size" : 8,
   "source_file" : "/system/libhidl/base/include/hidl/HidlSupport.h"
  },
  {
   "alignment" : 8,
   "linker_set_key" : "const android::hardware::hidl_vec<android::hardware::hidl_array<int, 4> > &",
   "name" : "const android::hardware::hidl_vec<android::hardware::hidl_array<int, 4> > &",
   "referenced_type" : "type-464",
   "self_type" : "type-509",
   "size" : 8,
   "source_file" : "/system/libhidl/base/include/hidl/HidlSupport.h"
  },
  {
   "alignment" : 8,
   "linker_set_key" : "const android::hardware::hidl_vec<android::hardware::media::V1_0::Rect> &",
   "name" : "const android::hardware::hidl_vec<android::hardware::media::V1_0::Rect> &",
   "referenced_type" : "type-455",
   "self_type" : "type-506",
   "size" : 8,
   "source_file" : "/system/libhidl/base/include/hidl/HidlSupport.h"
  },
  {
   "alignment" : 8,
   "linker_set_key" : "const android::hardware::hidl_version &",
   "name" : "const android::hardware::hidl_version &",
   "referenced_type" : "type-502",
   "self_type" : "type-504",
   "size" : 8,
   "source_file" : "/system/libhidl/base/include/hidl/HidlSupport.h"
  },
  {
   "alignment" : 8,
   "linker_set_key" : "const android::hardware::media::V1_0::Rect &",
   "name" : "const android::hardware::media::V1_0::Rect &",
   "referenced_type" : "type-378",
   "self_type" : "type-377",
   "size" : 8,
   "source_file" : "/system/libhidl/base/include/hidl/HidlInternal.h"
  },
  {
   "alignment" : 8,
   "linker_set_key" : "const android::key_value_pair_t<int, std::shared_ptr<android::GraphicBufferSource::AcquiredBuffer> > &",
   "name" : "const android::key_value_pair_t<int, std::shared_ptr<android::GraphicBufferSource::AcquiredBuffer> > &",
   "referenced_type" : "type-2624",
   "self_type" : "type-2625",
   "size" : 8,
   "source_file" : "/system/core/libutils/include/utils/TypeHelpers.h"
  },
  {
   "alignment" : 8,
   "linker_set_key" : "const android::key_value_pair_t<int, std::shared_ptr<android::GraphicBufferSource::CachedBuffer> > &",
   "name" : "const android::key_value_pair_t<int, std::shared_ptr<android::GraphicBufferSource::CachedBuffer> > &",
   "referenced_type" : "type-2622",
   "self_type" : "type-2623",
   "size" : 8,
   "source_file" : "/system/core/libutils/include/utils/TypeHelpers.h"
  },
  {
   "alignment" : 8,
   "linker_set_key" : "const android::key_value_pair_t<unsigned int, unsigned int> &",
   "name" : "const android::key_value_pair_t<unsigned int, unsigned int> &",
   "referenced_type" : "type-2618",
   "self_type" : "type-2619",
   "size" : 8,
   "source_file" : "/system/core/libutils/include/utils/TypeHelpers.h"
  },
  {
   "alignment" : 8,
   "linker_set_key" : "const android::sp<ANativeWindowBuffer> &",
   "name" : "const android::sp<ANativeWindowBuffer> &",
   "referenced_type" : "type-2414",
   "self_type" : "type-2413",
   "size" : 8,
   "source_file" : "/frameworks/native/headers/media_plugin/media/hardware/HardwareAPI.h"
  },
  {
   "alignment" : 8,
   "linker_set_key" : "const android::sp<ANativeWindowBuffer> &",
   "name" : "const android::sp<ANativeWindowBuffer> &",
   "referenced_type" : "type-4851",
   "self_type" : "type-4850",
   "size" : 8,
   "source_file" : "/frameworks/native/headers/media_plugin/media/hardware/HardwareAPI.h"
  },
  {
   "alignment" : 8,
   "linker_set_key" : "const android::sp<ANativeWindowBuffer> &",
   "name" : "const android::sp<ANativeWindowBuffer> &",
   "referenced_type" : "type-6014",
   "self_type" : "type-6016",
   "size" : 8,
   "source_file" : "/frameworks/native/headers/media_plugin/media/hardware/HardwareAPI.h"
  },
  {
   "alignment" : 8,
   "linker_set_key" : "const android::sp<ANativeWindowBuffer> &",
   "name" : "const android::sp<ANativeWindowBuffer> &",
   "referenced_type" : "type-6853",
   "self_type" : "type-6852",
   "size" : 8,
   "source_file" : "/frameworks/native/headers/media_plugin/media/hardware/HardwareAPI.h"
  },
  {
   "alignment" : 8,
   "linker_set_key" : "const android::sp<android::AHandlerReflector<android::GraphicBufferSource> > &",
   "name" : "const android::sp<android::AHandlerReflector<android::GraphicBufferSource> > &",
   "referenced_type" : "type-1312",
   "self_type" : "type-1490",
   "size" : 8,
   "source_file" : "/system/core/libutils/include/utils/StrongPointer.h"
  },
  {
   "alignment" : 8,
   "linker_set_key" : "const android::sp<android::ALooper> &",
   "name" : "const android::sp<android::ALooper> &",
   "referenced_type" : "type-321",
   "self_type" : "type-320",
   "size" : 8,
   "source_file" : "/system/core/libutils/include/utils/RefBase.h"
  },
  {
   "alignment" : 8,
   "linker_set_key" : "const android::sp<android::AMessage> &",
   "name" : "const android::sp<android::AMessage> &",
   "referenced_type" : "type-2176",
   "self_type" : "type-2195",
   "size" : 8,
   "source_file" : "/system/core/libutils/include/utils/StrongPointer.h"
  },
  {
   "alignment" : 8,
   "linker_set_key" : "const android::sp<android::BpGraphicBufferProducer> &",
   "name" : "const android::sp<android::BpGraphicBufferProducer> &",
   "referenced_type" : "type-4236",
   "self_type" : "type-4241",
   "size" : 8,
   "source_file" : "/system/core/libutils/include/utils/StrongPointer.h"
  },
  {
   "alignment" : 8,
   "linker_set_key" : "const android::sp<android::BpProducerListener> &",
   "name" : "const android::sp<android::BpProducerListener> &",
   "referenced_type" : "type-4525",
   "self_type" : "type-4526",
   "size" : 8,
   "source_file" : "/system/core/libutils/include/utils/StrongPointer.h"
  },
  {
   "alignment" : 8,
   "linker_set_key" : "const android::sp<android::BufferQueueCore> &",
   "name" : "const android::sp<android::BufferQueueCore> &",
   "referenced_type" : "type-830",
   "self_type" : "type-954",
   "size" : 8,
   "source_file" : "/system/core/libutils/include/utils/StrongPointer.h"
  },
  {
   "alignment" : 8,
   "linker_set_key" : "const android::sp<android::ComponentWrapper> &",
   "name" : "const android::sp<android::ComponentWrapper> &",
   "referenced_type" : "type-2496",
   "self_type" : "type-2497",
   "size" : 8,
   "source_file" : "/system/core/libutils/include/utils/StrongPointer.h"
  },
  {
   "alignment" : 8,
   "linker_set_key" : "const android::sp<android::Fence> &",
   "name" : "const android::sp<android::Fence> &",
   "referenced_type" : "type-1868",
   "self_type" : "type-1867",
   "size" : 8,
   "source_file" : "/system/core/libutils/include/utils/StrongPointer.h"
  },
  {
   "alignment" : 8,
   "linker_set_key" : "const android::sp<android::GraphicBuffer> &",
   "name" : "const android::sp<android::GraphicBuffer> &",
   "referenced_type" : "type-1200",
   "self_type" : "type-1865",
   "size" : 8,
   "source_file" : "/system/core/libutils/include/utils/StrongPointer.h"
  },
  {
   "alignment" : 8,
   "linker_set_key" : "const android::sp<android::GraphicBufferSource::ConsumerProxy> &",
   "name" : "const android::sp<android::GraphicBufferSource::ConsumerProxy> &",
   "referenced_type" : "type-472",
   "self_type" : "type-490",
   "size" : 8,
   "source_file" : "/system/core/libutils/include/utils/RefBase.h"
  },
  {
   "alignment" : 8,
   "linker_set_key" : "const android::sp<android::H2BConverter<IGraphicBufferProducer, BnGraphicBufferProducer>::Obituary> &",
   "name" : "const android::sp<android::H2BConverter<IGraphicBufferProducer, BnGraphicBufferProducer>::Obituary> &",
   "referenced_type" : "type-4273",
   "self_type" : "type-4399",
   "size" : 8,
   "source_file" : "/system/core/libutils/include/utils/StrongPointer.h"
  },
  {
   "alignment" : 8,
   "linker_set_key" : "const android::sp<android::H2BConverter<IGraphicBufferProducer, BnGraphicBufferProducer>::Obituary> &",
   "name" : "const android::sp<android::H2BConverter<IGraphicBufferProducer, BnGraphicBufferProducer>::Obituary> &",
   "referenced_type" : "type-4282",
   "self_type" : "type-4400",
   "size" : 8,
   "source_file" : "/system/core/libutils/include/utils/StrongPointer.h"
  },
  {
   "alignment" : 8,
   "linker_set_key" : "const android::sp<android::H2BConverter<IProducerListener, BnProducerListener>::Obituary> &",
   "name" : "const android::sp<android::H2BConverter<IProducerListener, BnProducerListener>::Obituary> &",
   "referenced_type" : "type-4837",
   "self_type" : "type-4842",
   "size" : 8,
   "source_file" : "/system/core/libutils/include/utils/StrongPointer.h"
  },
  {
   "alignment" : 8,
   "linker_set_key" : "const android::sp<android::H2BConverter<IProducerListener, BnProducerListener>::Obituary> &",
   "name" : "const android::sp<android::H2BConverter<IProducerListener, BnProducerListener>::Obituary> &",
   "referenced_type" : "type-5126",
   "self_type" : "type-5131",
   "size" : 8,
   "source_file" : "/system/core/libutils/include/utils/StrongPointer.h"
  },
  {
   "alignment" : 8,
   "linker_set_key" : "const android::sp<android::IBinder::DeathRecipient> &",
   "name" : "const android::sp<android::IBinder::DeathRecipient> &",
   "referenced_type" : "type-4309",
   "self_type" : "type-4310",
   "size" : 8,
   "source_file" : "/system/core/libutils/include/utils/RefBase.h"
  },
  {
   "alignment" : 8,
   "linker_set_key" : "const android::sp<android::IBinder> &",
   "name" : "const android::sp<android::IBinder> &",
   "referenced_type" : "type-1041",
   "self_type" : "type-1042",
   "size" : 8,
   "source_file" : "/system/core/libutils/include/utils/StrongPointer.h"
  },
  {
   "alignment" : 8,
   "linker_set_key" : "const android::sp<android::IConsumerListener> &",
   "name" : "const android::sp<android::IConsumerListener> &",
   "referenced_type" : "type-944",
   "self_type" : "type-945",
   "size" : 8,
   "source_file" : "/system/core/libutils/include/utils/StrongPointer.h"
  },
  {
   "alignment" : 8,
   "linker_set_key" : "const android::sp<android::IGraphicBufferConsumer> &",
   "name" : "const android::sp<android::IGraphicBufferConsumer> &",
   "referenced_type" : "type-790",
   "self_type" : "type-789",
   "size" : 8,
   "source_file" : "/system/core/libutils/include/utils/StrongPointer.h"
  },
  {
   "alignment" : 8,
   "linker_set_key" : "const android::sp<android::IGraphicBufferProducer> &",
   "name" : "const android::sp<android::IGraphicBufferProducer> &",
   "referenced_type" : "type-2490",
   "self_type" : "type-2491",
   "size" : 8,
   "source_file" : "/system/core/libutils/include/utils/StrongPointer.h"
  },
  {
   "alignment" : 8,
   "linker_set_key" : "const android::sp<android::IProducerListener> &",
   "name" : "const android::sp<android::IProducerListener> &",
   "referenced_type" : "type-962",
   "self_type" : "type-963",
   "size" : 8,
   "source_file" : "/system/core/libutils/include/utils/StrongPointer.h"
  },
  {
   "alignment" : 8,
   "linker_set_key" : "const android::sp<android::ITransactionCompletedListener> &",
   "name" : "const android::sp<android::ITransactionCompletedListener> &",
   "referenced_type" : "type-1050",
   "self_type" : "type-1051",
   "size" : 8,
   "source_file" : "/system/core/libutils/include/utils/StrongPointer.h"
  },
  {
   "alignment" : 8,
   "linker_set_key" : "const android::sp<android::NativeHandle> &",
   "name" : "const android::sp<android::NativeHandle> &",
   "referenced_type" : "type-935",
   "self_type" : "type-936",
   "size" : 8,
   "source_file" : "/system/core/libutils/include/utils/StrongPointer.h"
  },
  {
   "alignment" : 8,
   "linker_set_key" : "const android::sp<android::hardware::IBinder> &",
   "name" : "const android::sp<android::hardware::IBinder> &",
   "referenced_type" : "type-1393",
   "self_type" : "type-1392",
   "size" : 8,
   "source_file" : "/system/libhwbinder/include/hwbinder/ProcessState.h"
  },
  {
   "alignment" : 8,
   "linker_set_key" : "const android::sp<android::hardware::graphics::bufferqueue::V1_0::IGraphicBufferProducer> &",
   "name" : "const android::sp<android::hardware::graphics::bufferqueue::V1_0::IGraphicBufferProducer> &",
   "referenced_type" : "type-2473",
   "self_type" : "type-4231",
   "size" : 8,
   "source_file" : "/system/core/libutils/include/utils/StrongPointer.h"
  },
  {
   "alignment" : 8,
   "linker_set_key" : "const android::sp<android::hardware::graphics::bufferqueue::V1_0::IProducerListener> &",
   "name" : "const android::sp<android::hardware::graphics::bufferqueue::V1_0::IProducerListener> &",
   "referenced_type" : "type-2463",
   "self_type" : "type-4519",
   "size" : 8,
   "source_file" : "/system/core/libutils/include/utils/StrongPointer.h"
  },
  {
   "alignment" : 8,
   "linker_set_key" : "const android::sp<android::hardware::graphics::bufferqueue::V1_0::utils::H2BGraphicBufferProducer> &",
   "name" : "const android::sp<android::hardware::graphics::bufferqueue::V1_0::utils::H2BGraphicBufferProducer> &",
   "referenced_type" : "type-4248",
   "self_type" : "type-4253",
   "size" : 8,
   "source_file" : "/system/core/libutils/include/utils/StrongPointer.h"
  },
  {
   "alignment" : 8,
   "linker_set_key" : "const android::sp<android::hardware::graphics::bufferqueue::V1_0::utils::H2BProducerListener> &",
   "name" : "const android::sp<android::hardware::graphics::bufferqueue::V1_0::utils::H2BProducerListener> &",
   "referenced_type" : "type-4479",
   "self_type" : "type-4528",
   "size" : 8,
   "source_file" : "/system/core/libutils/include/utils/StrongPointer.h"
  },
  {
   "alignment" : 8,
   "linker_set_key" : "const android::sp<android::hardware::graphics::bufferqueue::V2_0::IGraphicBufferProducer> &",
   "name" : "const android::sp<android::hardware::graphics::bufferqueue::V2_0::IGraphicBufferProducer> &",
   "referenced_type" : "type-2487",
   "self_type" : "type-4232",
   "size" : 8,
   "source_file" : "/system/core/libutils/include/utils/StrongPointer.h"
  },
  {
   "alignment" : 8,
   "linker_set_key" : "const android::sp<android::hardware::graphics::bufferqueue::V2_0::IProducerListener> &",
   "name" : "const android::sp<android::hardware::graphics::bufferqueue::V2_0::IProducerListener> &",
   "referenced_type" : "type-2479",
   "self_type" : "type-4522",
   "size" : 8,
   "source_file" : "/system/core/libutils/include/utils/StrongPointer.h"
  },
  {
   "alignment" : 8,
   "linker_set_key" : "const android::sp<android::hardware::graphics::bufferqueue::V2_0::utils::H2BGraphicBufferProducer> &",
   "name" : "const android::sp<android::hardware::graphics::bufferqueue::V2_0::utils::H2BGraphicBufferProducer> &",
   "referenced_type" : "type-4242",
   "self_type" : "type-4247",
   "size" : 8,
   "source_file" : "/system/core/libutils/include/utils/StrongPointer.h"
  },
  {
   "alignment" : 8,
   "linker_set_key" : "const android::sp<android::hardware::graphics::bufferqueue::V2_0::utils::H2BProducerListener> &",
   "name" : "const android::sp<android::hardware::graphics::bufferqueue::V2_0::utils::H2BProducerListener> &",
   "referenced_type" : "type-4472",
   "self_type" : "type-4527",
   "size" : 8,
   "source_file" : "/system/core/libutils/include/utils/StrongPointer.h"
  },
  {
   "alignment" : 8,
   "linker_set_key" : "const android::sp<android::hardware::hidl_death_recipient> &",
   "name" : "const android::sp<android::hardware::hidl_death_recipient> &",
   "referenced_type" : "type-514",
   "self_type" : "type-513",
   "size" : 8,
   "source_file" : "/system/libhidl/base/include/hidl/HidlSupport.h"
  },
  {
   "alignment" : 8,
   "linker_set_key" : "const android::wp<android::ALooper> &",
   "name" : "const android::wp<android::ALooper> &",
   "referenced_type" : "type-288",
   "self_type" : "type-301",
   "size" : 8,
   "source_file" : "/system/core/libutils/include/utils/RefBase.h"
  },
  {
   "alignment" : 8,
   "linker_set_key" : "const android::wp<android::ConsumerListener> &",
   "name" : "const android::wp<android::ConsumerListener> &",
   "referenced_type" : "type-775",
   "self_type" : "type-776",
   "size" : 8,
   "source_file" : "/system/core/libutils/include/utils/RefBase.h"
  },
  {
   "alignment" : 8,
   "linker_set_key" : "const android::wp<android::GraphicBufferSource> &",
   "name" : "const android::wp<android::GraphicBufferSource> &",
   "referenced_type" : "type-593",
   "self_type" : "type-606",
   "size" : 8,
   "source_file" : "/system/core/libutils/include/utils/RefBase.h"
  },
  {
   "alignment" : 8,
   "linker_set_key" : "const android::wp<android::IBinder::DeathRecipient> &",
   "name" : "const android::wp<android::IBinder::DeathRecipient> &",
   "referenced_type" : "type-4299",
   "self_type" : "type-4304",
   "size" : 8,
   "source_file" : "/system/core/libutils/include/utils/RefBase.h"
  },
  {
   "alignment" : 8,
   "linker_set_key" : "const android::wp<android::IBinder> &",
   "name" : "const android::wp<android::IBinder> &",
   "referenced_type" : "type-4289",
   "self_type" : "type-4290",
   "size" : 8,
   "source_file" : "/system/core/libutils/include/utils/RefBase.h"
  },
  {
   "alignment" : 8,
   "linker_set_key" : "const android_cta861_3_metadata &",
   "name" : "const android_cta861_3_metadata &",
   "referenced_type" : "type-1477",
   "self_type" : "type-1478",
   "size" : 8,
   "source_file" : "/system/core/libutils/include/utils/Flattenable.h"
  },
  {
   "alignment" : 8,
   "linker_set_key" : "const android_dataspace_t &",
   "name" : "const android_dataspace_t &",
   "referenced_type" : "type-762",
   "self_type" : "type-763",
   "size" : 8,
   "source_file" : "/system/core/libutils/include/utils/Flattenable.h"
  },
  {
   "alignment" : 8,
   "linker_set_key" : "const android_smpte2086_metadata &",
   "name" : "const android_smpte2086_metadata &",
   "referenced_type" : "type-1475",
   "self_type" : "type-1476",
   "size" : 8,
   "source_file" : "/system/core/libutils/include/utils/Flattenable.h"
  },
  {
   "alignment" : 8,
   "linker_set_key" : "const bool &",
   "name" : "const bool &",
   "referenced_type" : "type-414",
   "self_type" : "type-428",
   "size" : 8,
   "source_file" : "/system/core/libutils/include/utils/TypeHelpers.h"
  },
  {
   "alignment" : 8,
   "linker_set_key" : "const double &",
   "name" : "const double &",
   "referenced_type" : "type-1078",
   "self_type" : "type-1122",
   "size" : 8,
   "source_file" : "/system/core/libutils/include/utils/TypeHelpers.h"
  },
  {
   "alignment" : 8,
   "linker_set_key" : "const float &",
   "name" : "const float &",
   "referenced_type" : "type-489",
   "self_type" : "type-1018",
   "size" : 8,
