{
 "array_types" :
 [
  {
   "alignment" : 4,
   "linker_set_key" : "_ZTIA0_9PsshEntry",
   "name" : "PsshEntry [0]",
   "referenced_type" : "_ZTI9PsshEntry",
   "self_type" : "_ZTIA0_9PsshEntry",
   "source_file" : "/frameworks/av/media/ndk/include/media/NdkMediaExtractor.h"
  },
  {
   "alignment" : 4,
   "linker_set_key" : "_ZTIA0_i",
   "name" : "int [0]",
   "referenced_type" : "_ZTIi",
   "self_type" : "_ZTIA0_i",
   "source_file" : "/system/core/libcutils/include/cutils/native_handle.h"
  },
  {
   "alignment" : 4,
   "linker_set_key" : "_ZTIA10_j",
   "name" : "unsigned int [10]",
   "referenced_type" : "_ZTIj",
   "self_type" : "_ZTIA10_j",
   "size" : 40,
   "source_file" : "/system/libhidl/base/include/hidl/HidlSupport.h"
  },
  {
   "alignment" : 1,
   "linker_set_key" : "_ZTIA128_c",
   "name" : "char [128]",
   "referenced_type" : "_ZTIc",
   "self_type" : "_ZTIA128_c",
   "size" : 128,
   "source_file" : "/system/media/audio/include/system/audio.h"
  },
  {
   "alignment" : 4,
   "linker_set_key" : "_ZTIA12_j",
   "name" : "unsigned int [12]",
   "referenced_type" : "_ZTIj",
   "self_type" : "_ZTIA12_j",
   "size" : 48,
   "source_file" : "/hardware/libhardware/include/hardware/hardware.h"
  },
  {
   "alignment" : 4,
   "linker_set_key" : "_ZTIA16_10audio_gain",
   "name" : "audio_gain [16]",
   "referenced_type" : "_ZTI10audio_gain",
   "self_type" : "_ZTIA16_10audio_gain",
   "size" : 512,
   "source_file" : "/system/media/audio/include/system/audio.h"
  },
  {
   "alignment" : 4,
   "linker_set_key" : "_ZTIA16_17audio_port_config",
   "name" : "audio_port_config [16]",
   "referenced_type" : "_ZTI17audio_port_config",
   "self_type" : "_ZTIA16_17audio_port_config",
   "size" : 3456,
   "source_file" : "/system/media/audio/include/system/audio.h"
  },
  {
   "alignment" : 4,
   "linker_set_key" : "_ZTIA16_f",
   "name" : "float [16]",
   "referenced_type" : "_ZTIf",
   "self_type" : "_ZTIA16_f",
   "size" : 64,
   "source_file" : "/system/libhidl/base/include/hidl/HidlSupport.h"
  },
  {
   "alignment" : 1,
   "linker_set_key" : "_ZTIA16_h",
   "name" : "unsigned char [16]",
   "referenced_type" : "_ZTIh",
   "self_type" : "_ZTIA16_h",
   "size" : 16,
   "source_file" : "/frameworks/av/media/ndk/include/media/NdkMediaExtractor.h"
  },
  {
   "alignment" : 4,
   "linker_set_key" : "_ZTIA1_PKc",
   "name" : "const char *[1]",
   "referenced_type" : "_ZTIPKc",
   "self_type" : "_ZTIA1_PKc",
   "size" : 4,
   "source_file" : "/frameworks/native/libs/binder/include/binder/IInterface.h"
  },
  {
   "alignment" : 4,
   "linker_set_key" : "_ZTIA1_Pv",
   "name" : "void *[1]",
   "referenced_type" : "_ZTIPv",
   "self_type" : "_ZTIA1_Pv",
   "size" : 4,
   "source_file" : "/frameworks/native/libs/nativebase/include/nativebase/nativebase.h"
  },
  {
   "alignment" : 4,
   "linker_set_key" : "_ZTIA1_j",
   "name" : "unsigned int [1]",
   "referenced_type" : "_ZTIj",
   "self_type" : "_ZTIA1_j",
   "size" : 4,
   "source_file" : "/system/media/audio/include/system/audio-base-utils.h"
  },
  {
   "alignment" : 1,
   "linker_set_key" : "_ZTIA256_c",
   "name" : "char [256]",
   "referenced_type" : "_ZTIc",
   "self_type" : "_ZTIA256_c",
   "size" : 256,
   "source_file" : "/system/media/audio/include/system/audio.h"
  },
  {
   "alignment" : 4,
   "linker_set_key" : "_ZTIA256_f",
   "name" : "float [256]",
   "referenced_type" : "_ZTIf",
   "self_type" : "_ZTIA256_f",
   "size" : 1024,
   "source_file" : "/system/media/audio/include/system/audio.h"
  },
  {
   "alignment" : 4,
   "linker_set_key" : "_ZTIA25_j",
   "name" : "unsigned int [25]",
   "referenced_type" : "_ZTIj",
   "self_type" : "_ZTIA25_j",
   "size" : 100,
   "source_file" : "/hardware/libhardware/include/hardware/hardware.h"
  },
  {
   "alignment" : 4,
   "linker_set_key" : "_ZTIA27_j",
   "name" : "unsigned int [27]",
   "referenced_type" : "_ZTIj",
   "self_type" : "_ZTIA27_j",
   "size" : 108,
   "source_file" : "/system/media/audio/include/system/audio-base-utils.h"
  },
  {
   "alignment" : 4,
   "linker_set_key" : "_ZTIA2_A256_f",
   "name" : "float [2][256]",
   "referenced_type" : "_ZTIA256_f",
   "self_type" : "_ZTIA2_A256_f",
   "size" : 2048,
   "source_file" : "/system/media/audio/include/system/audio.h"
  },
  {
   "alignment" : 4,
   "linker_set_key" : "_ZTIA2_Pv",
   "name" : "void *[2]",
   "referenced_type" : "_ZTIPv",
   "self_type" : "_ZTIA2_Pv",
   "size" : 8,
   "source_file" : "/hardware/libhardware/include/hardware/camera_common.h"
  },
  {
   "alignment" : 4,
   "linker_set_key" : "_ZTIA2_i",
   "name" : "int [2]",
   "referenced_type" : "_ZTIi",
   "self_type" : "_ZTIA2_i",
   "size" : 8,
   "source_file" : "/system/core/libsystem/include/system/camera.h"
  },
  {
   "alignment" : 4,
   "linker_set_key" : "_ZTIA30_34audio_microphone_channel_mapping_t",
   "name" : "audio_microphone_channel_mapping_t [30]",
   "referenced_type" : "_ZTI34audio_microphone_channel_mapping_t",
   "self_type" : "_ZTIA30_34audio_microphone_channel_mapping_t",
   "size" : 120,
   "source_file" : "/system/media/audio/include/system/audio.h"
  },
  {
   "alignment" : 4,
   "linker_set_key" : "_ZTIA30_j",
   "name" : "unsigned int [30]",
   "referenced_type" : "_ZTIj",
   "self_type" : "_ZTIA30_j",
   "size" : 120,
   "source_file" : "/system/media/audio/include/system/audio-base-utils.h"
  },
  {
   "alignment" : 4,
   "linker_set_key" : "_ZTIA32_14audio_format_t",
   "name" : "audio_format_t [32]",
   "referenced_type" : "_ZTI14audio_format_t",
   "self_type" : "_ZTIA32_14audio_format_t",
   "size" : 128,
   "source_file" : "/system/media/audio/include/system/audio.h"
  },
  {
   "alignment" : 1,
   "linker_set_key" : "_ZTIA32_c",
   "name" : "char [32]",
   "referenced_type" : "_ZTIc",
   "self_type" : "_ZTIA32_c",
   "size" : 32,
   "source_file" : "/system/media/audio/include/system/audio.h"
  },
  {
   "alignment" : 1,
   "linker_set_key" : "_ZTIA32_h",
   "name" : "unsigned char [32]",
   "referenced_type" : "_ZTIh",
   "self_type" : "_ZTIA32_h",
   "size" : 32,
   "source_file" : "/hardware/libhardware/include/hardware/camera3.h"
  },
  {
   "alignment" : 4,
   "linker_set_key" : "_ZTIA32_i",
   "name" : "int [32]",
   "referenced_type" : "_ZTIi",
   "self_type" : "_ZTIA32_i",
   "size" : 128,
   "source_file" : "/system/media/audio/include/system/audio.h"
  },
  {
   "alignment" : 4,
   "linker_set_key" : "_ZTIA32_j",
   "name" : "unsigned int [32]",
   "referenced_type" : "_ZTIj",
   "self_type" : "_ZTIA32_j",
   "size" : 128,
   "source_file" : "/system/media/audio/include/system/audio.h"
  },
  {
   "alignment" : 1,
   "linker_set_key" : "_ZTIA3_h",
   "name" : "unsigned char [3]",
   "referenced_type" : "_ZTIh",
   "self_type" : "_ZTIA3_h",
   "size" : 3,
   "source_file" : "/system/libhidl/base/include/hidl/HidlSupport.h"
  },
  {
   "alignment" : 4,
   "linker_set_key" : "_ZTIA3_j",
   "name" : "unsigned int [3]",
   "referenced_type" : "_ZTIj",
   "self_type" : "_ZTIA3_j",
   "size" : 12,
   "source_file" : "/system/media/audio/include/system/audio-base-utils.h"
  },
  {
   "alignment" : 4,
   "linker_set_key" : "_ZTIA4_21AHardwareBuffer_Plane",
   "name" : "AHardwareBuffer_Plane [4]",
   "referenced_type" : "_ZTI21AHardwareBuffer_Plane",
   "self_type" : "_ZTIA4_21AHardwareBuffer_Plane",
   "size" : 48,
   "source_file" : "/frameworks/native/libs/nativewindow/include/android/hardware_buffer.h"
  },
  {
   "alignment" : 4,
   "linker_set_key" : "_ZTIA4_Pv",
   "name" : "void *[4]",
   "referenced_type" : "_ZTIPv",
   "self_type" : "_ZTIA4_Pv",
   "size" : 16,
   "source_file" : "/frameworks/native/libs/nativebase/include/nativebase/nativebase.h"
  },
  {
   "alignment" : 4,
   "linker_set_key" : "_ZTIA4_i",
   "name" : "int [4]",
   "referenced_type" : "_ZTIi",
   "self_type" : "_ZTIA4_i",
   "size" : 16,
   "source_file" : "/system/libhidl/base/include/hidl/HidlSupport.h"
  },
  {
   "alignment" : 1,
   "linker_set_key" : "_ZTIA50_c",
   "name" : "char [50]",
   "referenced_type" : "_ZTIc",
   "self_type" : "_ZTIA50_c",
   "size" : 50,
   "source_file" : "/frameworks/native/libs/gui/include/gui/bufferqueue/1.0/WGraphicBufferProducer.h"
  },
  {
   "alignment" : 1,
   "linker_set_key" : "_ZTIA5121_h",
   "name" : "unsigned char [5121]",
   "referenced_type" : "_ZTIh",
   "self_type" : "_ZTIA5121_h",
   "size" : 5121,
   "source_file" : "/system/core/liblog/include/log/log_read.h"
  },
  {
   "alignment" : 1,
   "linker_set_key" : "_ZTIA53_c",
   "name" : "char [53]",
   "referenced_type" : "_ZTIc",
   "self_type" : "_ZTIA53_c",
   "size" : 53,
   "source_file" : "/frameworks/native/libs/gui/include/gui/bufferqueue/1.0/WGraphicBufferProducer.h"
  },
  {
   "alignment" : 1,
   "linker_set_key" : "_ZTIA54_c",
   "name" : "char [54]",
   "referenced_type" : "_ZTIc",
   "self_type" : "_ZTIA54_c",
   "size" : 54,
   "source_file" : "/frameworks/native/libs/gui/include/gui/bufferqueue/1.0/WGraphicBufferProducer.h"
  },
  {
   "alignment" : 1,
   "linker_set_key" : "_ZTIA60_c",
   "name" : "char [60]",
   "referenced_type" : "_ZTIc",
   "self_type" : "_ZTIA60_c",
   "size" : 60,
   "source_file" : "/frameworks/native/libs/gui/include/gui/bufferqueue/1.0/WGraphicBufferProducer.h"
  },
  {
   "alignment" : 1,
   "linker_set_key" : "_ZTIA62_c",
   "name" : "char [62]",
   "referenced_type" : "_ZTIc",
   "self_type" : "_ZTIA62_c",
   "size" : 62,
   "source_file" : "/frameworks/native/libs/gui/include/gui/bufferqueue/1.0/WGraphicBufferProducer.h"
  },
  {
   "alignment" : 8,
   "linker_set_key" : "_ZTIA64_N7android12ConsumerBase4SlotE",
   "name" : "android::ConsumerBase::Slot [64]",
   "referenced_type" : "_ZTIN7android12ConsumerBase4SlotE",
   "self_type" : "_ZTIA64_N7android12ConsumerBase4SlotE",
   "size" : 1024,
   "source_file" : "/frameworks/native/libs/gui/include/gui/ConsumerBase.h"
  },
  {
   "alignment" : 4,
   "linker_set_key" : "_ZTIA64_N7android7Surface10BufferSlotE",
   "name" : "android::Surface::BufferSlot [64]",
   "referenced_type" : "_ZTIN7android7Surface10BufferSlotE",
   "self_type" : "_ZTIA64_N7android7Surface10BufferSlotE",
   "size" : 5632,
   "source_file" : "/frameworks/native/libs/gui/include/gui/Surface.h"
  },
  {
   "alignment" : 1,
   "linker_set_key" : "_ZTIA64_c",
   "name" : "char [64]",
   "referenced_type" : "_ZTIc",
   "self_type" : "_ZTIA64_c",
   "size" : 64,
   "source_file" : "/frameworks/native/libs/ui/include/ui/FatVector.h"
  },
  {
   "alignment" : 1,
   "linker_set_key" : "_ZTIA65_c",
   "name" : "char [65]",
   "referenced_type" : "_ZTIc",
   "self_type" : "_ZTIA65_c",
   "size" : 65,
   "source_file" : "/frameworks/native/libs/gui/include/gui/bufferqueue/1.0/WGraphicBufferProducer.h"
  },
  {
   "alignment" : 1,
   "linker_set_key" : "_ZTIA66_c",
   "name" : "char [66]",
   "referenced_type" : "_ZTIc",
   "self_type" : "_ZTIA66_c",
   "size" : 66,
   "source_file" : "/frameworks/native/libs/gui/include/gui/bufferqueue/1.0/WGraphicBufferProducer.h"
  },
  {
   "alignment" : 1,
   "linker_set_key" : "_ZTIA67_c",
   "name" : "char [67]",
   "referenced_type" : "_ZTIc",
   "self_type" : "_ZTIA67_c",
   "size" : 67,
   "source_file" : "/frameworks/native/libs/gui/include/gui/bufferqueue/1.0/WGraphicBufferProducer.h"
  },
  {
   "alignment" : 1,
   "linker_set_key" : "_ZTIA68_c",
   "name" : "char [68]",
   "referenced_type" : "_ZTIc",
   "self_type" : "_ZTIA68_c",
   "size" : 68,
   "source_file" : "/frameworks/native/libs/gui/include/gui/bufferqueue/1.0/WGraphicBufferProducer.h"
  },
  {
   "alignment" : 4,
   "linker_set_key" : "_ZTIA6_Pv",
   "name" : "void *[6]",
   "referenced_type" : "_ZTIPv",
   "self_type" : "_ZTIA6_Pv",
   "size" : 24,
   "source_file" : "/frameworks/native/libs/nativebase/include/nativebase/nativebase.h"
  },
  {
   "alignment" : 1,
   "linker_set_key" : "_ZTIA6_h",
   "name" : "unsigned char [6]",
   "referenced_type" : "_ZTIh",
   "self_type" : "_ZTIA6_h",
   "size" : 6,
   "source_file" : "/system/media/audio/include/system/audio.h"
  },
  {
   "alignment" : 4,
   "linker_set_key" : "_ZTIA6_j",
   "name" : "unsigned int [6]",
   "referenced_type" : "_ZTIj",
   "self_type" : "_ZTIA6_j",
   "size" : 24,
   "source_file" : "/frameworks/native/libs/nativewindow/include/android/native_window.h"
  },
  {
   "alignment" : 1,
   "linker_set_key" : "_ZTIA75_c",
   "name" : "char [75]",
   "referenced_type" : "_ZTIc",
   "self_type" : "_ZTIA75_c",
   "size" : 75,
   "source_file" : "/frameworks/native/libs/gui/include/gui/bufferqueue/1.0/WGraphicBufferProducer.h"
  },
  {
   "alignment" : 1,
   "linker_set_key" : "_ZTIA78_c",
   "name" : "char [78]",
   "referenced_type" : "_ZTIc",
   "self_type" : "_ZTIA78_c",
   "size" : 78,
   "source_file" : "/frameworks/native/libs/gui/include/gui/bufferqueue/1.0/WGraphicBufferProducer.h"
  },
  {
   "alignment" : 4,
   "linker_set_key" : "_ZTIA7_Pv",
   "name" : "void *[7]",
   "referenced_type" : "_ZTIPv",
   "self_type" : "_ZTIA7_Pv",
   "size" : 28,
   "source_file" : "/hardware/libhardware/include/hardware/gralloc.h"
  },
  {
   "alignment" : 1,
   "linker_set_key" : "_ZTIA7_h",
   "name" : "unsigned char [7]",
   "referenced_type" : "_ZTIh",
   "self_type" : "_ZTIA7_h",
   "size" : 7,
   "source_file" : "/system/libhidl/base/include/hidl/HidlSupport.h"
  },
  {
   "alignment" : 4,
   "linker_set_key" : "_ZTIA7_i",
   "name" : "int [7]",
   "referenced_type" : "_ZTIi",
   "self_type" : "_ZTIA7_i",
   "size" : 28,
   "source_file" : "/hardware/libhardware/include/hardware/fb.h"
  },
  {
   "alignment" : 4,
   "linker_set_key" : "_ZTIA89_PKc",
   "name" : "const char *[89]",
   "referenced_type" : "_ZTIPKc",
   "self_type" : "_ZTIA89_PKc",
   "size" : 356,
   "source_file" : "/frameworks/native/libs/binder/include/binder/IInterface.h"
  },
  {
   "alignment" : 4,
   "linker_set_key" : "_ZTIA8_j",
   "name" : "unsigned int [8]",
   "referenced_type" : "_ZTIj",
   "self_type" : "_ZTIA8_j",
   "size" : 32,
   "source_file" : "/system/core/libsystem/include/system/graphics.h"
  },
  {
   "alignment" : 1,
   "linker_set_key" : "_ZTIA92_c",
   "name" : "char [92]",
   "referenced_type" : "_ZTIc",
   "self_type" : "_ZTIA92_c",
   "size" : 92,
   "source_file" : "/system/core/base/include/android-base/properties.h"
  },
  {
   "linker_set_key" : "_ZTIA_c",
   "name" : "char []",
   "referenced_type" : "_ZTIc",
   "self_type" : "_ZTIA_c",
   "source_file" : "/system/core/liblog/include/log/log_time.h"
  },
  {
   "linker_set_key" : "_ZTIA_f",
   "name" : "float []",
   "referenced_type" : "_ZTIf",
   "self_type" : "_ZTIA_f",
   "source_file" : "/system/core/libsystem/include/system/graphics.h"
  }
 ],
 "builtin_types" :
 [
  {
   "alignment" : 4,
   "linker_set_key" : "_ZTIDn",
   "name" : "nullptr_t",
   "referenced_type" : "_ZTIDn",
   "self_type" : "_ZTIDn",
   "size" : 4
  },
  {
   "alignment" : 2,
   "is_integral" : true,
   "is_unsigned" : true,
   "linker_set_key" : "_ZTIDs",
   "name" : "char16_t",
   "referenced_type" : "_ZTIDs",
   "self_type" : "_ZTIDs",
   "size" : 2
  },
  {
   "alignment" : 1,
   "is_integral" : true,
   "linker_set_key" : "_ZTIa",
   "name" : "signed char",
   "referenced_type" : "_ZTIa",
   "self_type" : "_ZTIa",
   "size" : 1
  },
  {
   "alignment" : 1,
   "is_integral" : true,
   "is_unsigned" : true,
   "linker_set_key" : "_ZTIb",
   "name" : "bool",
   "referenced_type" : "_ZTIb",
   "self_type" : "_ZTIb",
   "size" : 1
  },
  {
   "alignment" : 1,
   "is_integral" : true,
   "is_unsigned" : true,
   "linker_set_key" : "_ZTIc",
   "name" : "char",
   "referenced_type" : "_ZTIc",
   "self_type" : "_ZTIc",
   "size" : 1
  },
  {
   "alignment" : 8,
   "linker_set_key" : "_ZTId",
   "name" : "double",
   "referenced_type" : "_ZTId",
   "self_type" : "_ZTId",
   "size" : 8
  },
  {
   "alignment" : 4,
   "linker_set_key" : "_ZTIf",
   "name" : "float",
   "referenced_type" : "_ZTIf",
   "self_type" : "_ZTIf",
   "size" : 4
  },
  {
   "alignment" : 1,
   "is_integral" : true,
   "is_unsigned" : true,
   "linker_set_key" : "_ZTIh",
   "name" : "unsigned char",
   "referenced_type" : "_ZTIh",
   "self_type" : "_ZTIh",
   "size" : 1
  },
  {
   "alignment" : 4,
   "is_integral" : true,
   "linker_set_key" : "_ZTIi",
   "name" : "int",
   "referenced_type" : "_ZTIi",
   "self_type" : "_ZTIi",
   "size" : 4
  },
  {
   "alignment" : 4,
   "is_integral" : true,
   "is_unsigned" : true,
   "linker_set_key" : "_ZTIj",
   "name" : "unsigned int",
   "referenced_type" : "_ZTIj",
   "self_type" : "_ZTIj",
   "size" : 4
  },
  {
   "alignment" : 4,
   "is_integral" : true,
   "linker_set_key" : "_ZTIl",
   "name" : "long",
   "referenced_type" : "_ZTIl",
   "self_type" : "_ZTIl",
   "size" : 4
  },
  {
   "alignment" : 4,
   "is_integral" : true,
   "is_unsigned" : true,
   "linker_set_key" : "_ZTIm",
   "name" : "unsigned long",
   "referenced_type" : "_ZTIm",
   "self_type" : "_ZTIm",
   "size" : 4
  },
  {
   "alignment" : 2,
   "is_integral" : true,
   "linker_set_key" : "_ZTIs",
   "name" : "short",
   "referenced_type" : "_ZTIs",
   "self_type" : "_ZTIs",
   "size" : 2
  },
  {
   "alignment" : 2,
   "is_integral" : true,
   "is_unsigned" : true,
   "linker_set_key" : "_ZTIt",
   "name" : "unsigned short",
   "referenced_type" : "_ZTIt",
   "self_type" : "_ZTIt",
   "size" : 2
  },
  {
   "linker_set_key" : "_ZTIv",
   "name" : "void",
   "referenced_type" : "_ZTIv",
   "self_type" : "_ZTIv"
  },
  {
   "alignment" : 8,
   "is_integral" : true,
   "linker_set_key" : "_ZTIx",
   "name" : "long long",
   "referenced_type" : "_ZTIx",
   "self_type" : "_ZTIx",
   "size" : 8
  },
  {
   "alignment" : 8,
   "is_integral" : true,
   "is_unsigned" : true,
   "linker_set_key" : "_ZTIy",
   "name" : "unsigned long long",
   "referenced_type" : "_ZTIy",
   "self_type" : "_ZTIy",
   "size" : 8
  }
 ],
 "elf_functions" :
 [
  {
   "name" : "AImageReader_acquireLatestImage"
  },
  {
   "name" : "AImageReader_acquireLatestImageAsync"
  },
  {
   "name" : "AImageReader_acquireNextImage"
  },
  {
   "name" : "AImageReader_acquireNextImageAsync"
  },
  {
   "name" : "AImageReader_delete"
  },
  {
   "name" : "AImageReader_getFormat"
  },
  {
   "name" : "AImageReader_getHeight"
  },
  {
   "name" : "AImageReader_getMaxImages"
  },
  {
   "name" : "AImageReader_getWidth"
  },
  {
   "name" : "AImageReader_getWindow"
  },
  {
   "name" : "AImageReader_getWindowNativeHandle"
  },
  {
   "name" : "AImageReader_new"
  },
  {
   "name" : "AImageReader_newWithUsage"
  },
  {
   "name" : "AImageReader_setBufferRemovedListener"
  },
  {
   "name" : "AImageReader_setImageListener"
  },
  {
   "name" : "AImage_delete"
  },
  {
   "name" : "AImage_deleteAsync"
  },
  {
   "name" : "AImage_getCropRect"
  },
  {
   "name" : "AImage_getFormat"
  },
  {
   "name" : "AImage_getHardwareBuffer"
  },
  {
   "name" : "AImage_getHeight"
  },
  {
   "name" : "AImage_getNumberOfPlanes"
  },
  {
   "name" : "AImage_getPlaneData"
  },
  {
   "name" : "AImage_getPlanePixelStride"
  },
  {
   "name" : "AImage_getPlaneRowStride"
  },
  {
   "name" : "AImage_getTimestamp"
  },
  {
   "name" : "AImage_getWidth"
  },
  {
   "name" : "AMediaCodecActionCode_isRecoverable"
  },
  {
   "name" : "AMediaCodecActionCode_isTransient"
  },
  {
   "name" : "AMediaCodecCryptoInfo_delete"
  },
  {
   "name" : "AMediaCodecCryptoInfo_getClearBytes"
  },
  {
   "name" : "AMediaCodecCryptoInfo_getEncryptedBytes"
  },
  {
   "name" : "AMediaCodecCryptoInfo_getIV"
  },
  {
   "name" : "AMediaCodecCryptoInfo_getKey"
  },
  {
   "name" : "AMediaCodecCryptoInfo_getMode"
  },
  {
   "name" : "AMediaCodecCryptoInfo_getNumSubSamples"
  },
  {
   "name" : "AMediaCodecCryptoInfo_new"
  },
  {
   "name" : "AMediaCodecCryptoInfo_setPattern"
  },
  {
   "name" : "AMediaCodec_configure"
  },
  {
   "name" : "AMediaCodec_createCodecByName"
  },
  {
   "name" : "AMediaCodec_createDecoderByType"
  },
  {
   "name" : "AMediaCodec_createEncoderByType"
  },
  {
   "name" : "AMediaCodec_createInputSurface"
  },
  {
   "name" : "AMediaCodec_createPersistentInputSurface"
  },
  {
   "name" : "AMediaCodec_delete"
  },
  {
   "name" : "AMediaCodec_dequeueInputBuffer"
  },
  {
   "name" : "AMediaCodec_dequeueOutputBuffer"
  },
  {
   "name" : "AMediaCodec_flush"
  },
  {
   "name" : "AMediaCodec_getBufferFormat"
  },
  {
   "name" : "AMediaCodec_getInputBuffer"
  },
  {
   "name" : "AMediaCodec_getInputFormat"
  },
  {
   "name" : "AMediaCodec_getName"
  },
  {
   "name" : "AMediaCodec_getOutputBuffer"
  },
  {
   "name" : "AMediaCodec_getOutputFormat"
  },
  {
   "name" : "AMediaCodec_queueInputBuffer"
  },
  {
   "name" : "AMediaCodec_queueSecureInputBuffer"
  },
  {
   "name" : "AMediaCodec_releaseCrypto"
  },
  {
   "name" : "AMediaCodec_releaseName"
  },
  {
   "name" : "AMediaCodec_releaseOutputBuffer"
  },
  {
   "name" : "AMediaCodec_releaseOutputBufferAtTime"
  },
  {
   "name" : "AMediaCodec_setAsyncNotifyCallback"
  },
  {
   "name" : "AMediaCodec_setInputSurface"
  },
  {
   "name" : "AMediaCodec_setOutputSurface"
  },
  {
   "name" : "AMediaCodec_setParameters"
  },
  {
   "name" : "AMediaCodec_signalEndOfInputStream"
  },
  {
   "name" : "AMediaCodec_start"
  },
  {
   "name" : "AMediaCodec_stop"
  },
  {
   "name" : "AMediaCrypto_delete"
  },
  {
   "name" : "AMediaCrypto_isCryptoSchemeSupported"
  },
  {
   "name" : "AMediaCrypto_new"
  },
  {
   "name" : "AMediaCrypto_requiresSecureDecoderComponent"
  },
  {
   "name" : "AMediaDataSource_close"
  },
  {
   "name" : "AMediaDataSource_delete"
  },
  {
   "name" : "AMediaDataSource_new"
  },
  {
   "name" : "AMediaDataSource_newUri"
  },
  {
   "name" : "AMediaDataSource_setClose"
  },
  {
   "name" : "AMediaDataSource_setGetAvailableSize"
  },
  {
   "name" : "AMediaDataSource_setGetSize"
  },
  {
   "name" : "AMediaDataSource_setReadAt"
  },
  {
   "name" : "AMediaDataSource_setUserdata"
  },
  {
   "name" : "AMediaDrm_closeSession"
  },
  {
   "name" : "AMediaDrm_createByUUID"
  },
  {
   "name" : "AMediaDrm_decrypt"
  },
  {
   "name" : "AMediaDrm_encrypt"
  },
  {
   "name" : "AMediaDrm_getKeyRequest"
  },
  {
   "name" : "AMediaDrm_getPropertyByteArray"
  },
  {
   "name" : "AMediaDrm_getPropertyString"
  },
  {
   "name" : "AMediaDrm_getProvisionRequest"
  },
  {
   "name" : "AMediaDrm_getSecureStops"
  },
  {
   "name" : "AMediaDrm_isCryptoSchemeSupported"
  },
  {
   "name" : "AMediaDrm_openSession"
  },
  {
   "name" : "AMediaDrm_provideKeyResponse"
  },
  {
   "name" : "AMediaDrm_provideProvisionResponse"
  },
  {
   "name" : "AMediaDrm_queryKeyStatus"
  },
  {
   "name" : "AMediaDrm_release"
  },
  {
   "name" : "AMediaDrm_releaseSecureStops"
  },
  {
   "name" : "AMediaDrm_removeKeys"
  },
  {
   "name" : "AMediaDrm_restoreKeys"
  },
  {
   "name" : "AMediaDrm_setOnEventListener"
  },
  {
   "name" : "AMediaDrm_setOnExpirationUpdateListener"
  },
  {
   "name" : "AMediaDrm_setOnKeysChangeListener"
  },
  {
   "name" : "AMediaDrm_setPropertyByteArray"
  },
  {
   "name" : "AMediaDrm_setPropertyString"
  },
  {
   "name" : "AMediaDrm_sign"
  },
  {
   "name" : "AMediaDrm_verify"
  },
  {
   "name" : "AMediaExtractor_advance"
  },
  {
   "name" : "AMediaExtractor_delete"
  },
  {
   "name" : "AMediaExtractor_getCachedDuration"
  },
  {
   "name" : "AMediaExtractor_getFileFormat"
  },
  {
   "name" : "AMediaExtractor_getPsshInfo"
  },
  {
   "name" : "AMediaExtractor_getSampleCryptoInfo"
  },
  {
   "name" : "AMediaExtractor_getSampleFlags"
  },
  {
   "name" : "AMediaExtractor_getSampleFormat"
  },
  {
   "name" : "AMediaExtractor_getSampleSize"
  },
  {
   "name" : "AMediaExtractor_getSampleTime"
  },
  {
   "name" : "AMediaExtractor_getSampleTrackIndex"
  },
  {
   "name" : "AMediaExtractor_getTrackCount"
  },
  {
   "name" : "AMediaExtractor_getTrackFormat"
  },
  {
   "name" : "AMediaExtractor_new"
  },
  {
   "name" : "AMediaExtractor_readSampleData"
  },
  {
   "name" : "AMediaExtractor_seekTo"
  },
  {
   "name" : "AMediaExtractor_selectTrack"
  },
  {
   "name" : "AMediaExtractor_setDataSource"
  },
  {
   "name" : "AMediaExtractor_setDataSourceCustom"
  },
  {
   "name" : "AMediaExtractor_setDataSourceFd"
  },
  {
   "name" : "AMediaExtractor_unselectTrack"
  },
  {
   "name" : "AMediaFormat_clear"
  },
  {
   "name" : "AMediaFormat_copy"
  },
  {
   "name" : "AMediaFormat_delete"
  },
  {
   "name" : "AMediaFormat_getBuffer"
  },
  {
   "name" : "AMediaFormat_getDouble"
  },
  {
   "name" : "AMediaFormat_getFloat"
  },
  {
   "name" : "AMediaFormat_getInt32"
  },
  {
   "name" : "AMediaFormat_getInt64"
  },
  {
   "name" : "AMediaFormat_getRect"
  },
  {
   "name" : "AMediaFormat_getSize"
  },
  {
   "name" : "AMediaFormat_getString"
  },
  {
   "name" : "AMediaFormat_new"
  },
  {
   "name" : "AMediaFormat_setBuffer"
  },
  {
   "name" : "AMediaFormat_setDouble"
  },
  {
   "name" : "AMediaFormat_setFloat"
  },
  {
   "name" : "AMediaFormat_setInt32"
  },
  {
   "name" : "AMediaFormat_setInt64"
  },
  {
   "name" : "AMediaFormat_setRect"
  },
  {
   "name" : "AMediaFormat_setSize"
  },
  {
   "name" : "AMediaFormat_setString"
  },
  {
   "name" : "AMediaFormat_toString"
  },
  {
   "name" : "AMediaMuxer_addTrack"
  },
  {
   "name" : "AMediaMuxer_delete"
  },
  {
   "name" : "AMediaMuxer_new"
  },
  {
   "name" : "AMediaMuxer_setLocation"
  },
  {
   "name" : "AMediaMuxer_setOrientationHint"
  },
  {
   "name" : "AMediaMuxer_start"
  },
  {
   "name" : "AMediaMuxer_stop"
  },
  {
   "name" : "AMediaMuxer_writeSampleData"
  }
 ],
 "elf_objects" :
 [
  {
   "name" : "AMEDIAFORMAT_KEY_AAC_DRC_ATTENUATION_FACTOR"
  },
  {
   "name" : "AMEDIAFORMAT_KEY_AAC_DRC_BOOST_FACTOR"
  },
  {
   "name" : "AMEDIAFORMAT_KEY_AAC_DRC_HEAVY_COMPRESSION"
  },
  {
   "name" : "AMEDIAFORMAT_KEY_AAC_DRC_TARGET_REFERENCE_LEVEL"
  },
  {
   "name" : "AMEDIAFORMAT_KEY_AAC_ENCODED_TARGET_LEVEL"
  },
  {
   "name" : "AMEDIAFORMAT_KEY_AAC_MAX_OUTPUT_CHANNEL_COUNT"
  },
  {
   "name" : "AMEDIAFORMAT_KEY_AAC_PROFILE"
  },
  {
   "name" : "AMEDIAFORMAT_KEY_AAC_SBR_MODE"
  },
  {
   "name" : "AMEDIAFORMAT_KEY_ALBUM"
  },
  {
   "name" : "AMEDIAFORMAT_KEY_ALBUMART"
  },
  {
   "name" : "AMEDIAFORMAT_KEY_ALBUMARTIST"
  },
  {
   "name" : "AMEDIAFORMAT_KEY_ARTIST"
  },
  {
   "name" : "AMEDIAFORMAT_KEY_AUDIO_PRESENTATION_INFO"
  },
  {
   "name" : "AMEDIAFORMAT_KEY_AUDIO_SESSION_ID"
  },
  {
   "name" : "AMEDIAFORMAT_KEY_AUTHOR"
  },
  {
   "name" : "AMEDIAFORMAT_KEY_BITRATE_MODE"
  },
  {
   "name" : "AMEDIAFORMAT_KEY_BITS_PER_SAMPLE"
  },
  {
   "name" : "AMEDIAFORMAT_KEY_BIT_RATE"
  },
  {
   "name" : "AMEDIAFORMAT_KEY_CAPTURE_RATE"
  },
  {
   "name" : "AMEDIAFORMAT_KEY_CDTRACKNUMBER"
  },
  {
   "name" : "AMEDIAFORMAT_KEY_CHANNEL_COUNT"
  },
  {
   "name" : "AMEDIAFORMAT_KEY_CHANNEL_MASK"
  },
  {
   "name" : "AMEDIAFORMAT_KEY_COLOR_FORMAT"
  },
  {
   "name" : "AMEDIAFORMAT_KEY_COLOR_RANGE"
  },
  {
   "name" : "AMEDIAFORMAT_KEY_COLOR_STANDARD"
  },
  {
   "name" : "AMEDIAFORMAT_KEY_COLOR_TRANSFER"
  },
  {
   "name" : "AMEDIAFORMAT_KEY_COMPILATION"
  },
  {
   "name" : "AMEDIAFORMAT_KEY_COMPLEXITY"
  },
  {
   "name" : "AMEDIAFORMAT_KEY_COMPOSER"
  },
  {
   "name" : "AMEDIAFORMAT_KEY_CREATE_INPUT_SURFACE_SUSPENDED"
  },
  {
   "name" : "AMEDIAFORMAT_KEY_CRYPTO_DEFAULT_IV_SIZE"
  },
  {
   "name" : "AMEDIAFORMAT_KEY_CRYPTO_ENCRYPTED_BYTE_BLOCK"
  },
  {
   "name" : "AMEDIAFORMAT_KEY_CRYPTO_ENCRYPTED_SIZES"
  },
  {
   "name" : "AMEDIAFORMAT_KEY_CRYPTO_IV"
  },
  {
   "name" : "AMEDIAFORMAT_KEY_CRYPTO_KEY"
  },
  {
   "name" : "AMEDIAFORMAT_KEY_CRYPTO_MODE"
  },
  {
   "name" : "AMEDIAFORMAT_KEY_CRYPTO_PLAIN_SIZES"
  },
  {
   "name" : "AMEDIAFORMAT_KEY_CRYPTO_SKIP_BYTE_BLOCK"
  },
  {
   "name" : "AMEDIAFORMAT_KEY_CSD"
  },
  {
   "name" : "AMEDIAFORMAT_KEY_CSD_0"
  },
  {
   "name" : "AMEDIAFORMAT_KEY_CSD_1"
  },
  {
   "name" : "AMEDIAFORMAT_KEY_CSD_2"
  },
  {
   "name" : "AMEDIAFORMAT_KEY_CSD_AVC"
  },
  {
   "name" : "AMEDIAFORMAT_KEY_CSD_HEVC"
  },
  {
   "name" : "AMEDIAFORMAT_KEY_D263"
  },
  {
   "name" : "AMEDIAFORMAT_KEY_DATE"
  },
  {
   "name" : "AMEDIAFORMAT_KEY_DISCNUMBER"
  },
  {
   "name" : "AMEDIAFORMAT_KEY_DISPLAY_CROP"
  },
  {
   "name" : "AMEDIAFORMAT_KEY_DISPLAY_HEIGHT"
  },
  {
   "name" : "AMEDIAFORMAT_KEY_DISPLAY_WIDTH"
  },
  {
   "name" : "AMEDIAFORMAT_KEY_DURATION"
  },
  {
   "name" : "AMEDIAFORMAT_KEY_ENCODER_DELAY"
  },
  {
   "name" : "AMEDIAFORMAT_KEY_ENCODER_PADDING"
  },
  {
   "name" : "AMEDIAFORMAT_KEY_ESDS"
  },
  {
   "name" : "AMEDIAFORMAT_KEY_EXIF_OFFSET"
  },
  {
   "name" : "AMEDIAFORMAT_KEY_EXIF_SIZE"
  },
  {
   "name" : "AMEDIAFORMAT_KEY_FLAC_COMPRESSION_LEVEL"
  },
  {
   "name" : "AMEDIAFORMAT_KEY_FRAME_COUNT"
  },
  {
   "name" : "AMEDIAFORMAT_KEY_FRAME_RATE"
  },
  {
   "name" : "AMEDIAFORMAT_KEY_GENRE"
  },
  {
   "name" : "AMEDIAFORMAT_KEY_GRID_COLUMNS"
  },
  {
   "name" : "AMEDIAFORMAT_KEY_GRID_ROWS"
  },
  {
   "name" : "AMEDIAFORMAT_KEY_HAPTIC_CHANNEL_COUNT"
  },
  {
   "name" : "AMEDIAFORMAT_KEY_HDR_STATIC_INFO"
  },
  {
   "name" : "AMEDIAFORMAT_KEY_HEIGHT"
  },
  {
   "name" : "AMEDIAFORMAT_KEY_ICC_PROFILE"
  },
  {
   "name" : "AMEDIAFORMAT_KEY_INTRA_REFRESH_PERIOD"
  },
  {
   "name" : "AMEDIAFORMAT_KEY_IS_ADTS"
  },
  {
   "name" : "AMEDIAFORMAT_KEY_IS_AUTOSELECT"
  },
  {
   "name" : "AMEDIAFORMAT_KEY_IS_DEFAULT"
  },
  {
   "name" : "AMEDIAFORMAT_KEY_IS_FORCED_SUBTITLE"
  },
  {
   "name" : "AMEDIAFORMAT_KEY_IS_SYNC_FRAME"
  },
  {
   "name" : "AMEDIAFORMAT_KEY_I_FRAME_INTERVAL"
  },
  {
   "name" : "AMEDIAFORMAT_KEY_LANGUAGE"
  },
  {
   "name" : "AMEDIAFORMAT_KEY_LATENCY"
  },
  {
   "name" : "AMEDIAFORMAT_KEY_LEVEL"
  },
  {
   "name" : "AMEDIAFORMAT_KEY_LOCATION"
  },
  {
   "name" : "AMEDIAFORMAT_KEY_LOOP"
  },
  {
   "name" : "AMEDIAFORMAT_KEY_LOW_LATENCY"
  },
  {
   "name" : "AMEDIAFORMAT_KEY_LYRICIST"
  },
  {
   "name" : "AMEDIAFORMAT_KEY_MANUFACTURER"
  },
  {
   "name" : "AMEDIAFORMAT_KEY_MAX_BIT_RATE"
  },
  {
   "name" : "AMEDIAFORMAT_KEY_MAX_FPS_TO_ENCODER"
  },
  {
   "name" : "AMEDIAFORMAT_KEY_MAX_HEIGHT"
  },
  {
   "name" : "AMEDIAFORMAT_KEY_MAX_INPUT_SIZE"
  },
  {
   "name" : "AMEDIAFORMAT_KEY_MAX_PTS_GAP_TO_ENCODER"
  },
  {
   "name" : "AMEDIAFORMAT_KEY_MAX_WIDTH"
  },
  {
   "name" : "AMEDIAFORMAT_KEY_MIME"
  },
  {
   "name" : "AMEDIAFORMAT_KEY_MPEG2_STREAM_HEADER"
  },
  {
   "name" : "AMEDIAFORMAT_KEY_MPEG_USER_DATA"
  },
  {
   "name" : "AMEDIAFORMAT_KEY_OPERATING_RATE"
  },
  {
   "name" : "AMEDIAFORMAT_KEY_PCM_BIG_ENDIAN"
  },
  {
   "name" : "AMEDIAFORMAT_KEY_PCM_ENCODING"
  },
  {
   "name" : "AMEDIAFORMAT_KEY_PRIORITY"
  },
  {
   "name" : "AMEDIAFORMAT_KEY_PROFILE"
  },
  {
   "name" : "AMEDIAFORMAT_KEY_PSSH"
  },
  {
   "name" : "AMEDIAFORMAT_KEY_PUSH_BLANK_BUFFERS_ON_STOP"
  },
  {
   "name" : "AMEDIAFORMAT_KEY_REPEAT_PREVIOUS_FRAME_AFTER"
  },
  {
   "name" : "AMEDIAFORMAT_KEY_ROTATION"
  },
  {
   "name" : "AMEDIAFORMAT_KEY_SAMPLE_RATE"
  },
  {
   "name" : "AMEDIAFORMAT_KEY_SAR_HEIGHT"
  },
  {
   "name" : "AMEDIAFORMAT_KEY_SAR_WIDTH"
  },
  {
   "name" : "AMEDIAFORMAT_KEY_SEI"
  },
  {
   "name" : "AMEDIAFORMAT_KEY_SLICE_HEIGHT"
  },
  {
   "name" : "AMEDIAFORMAT_KEY_STRIDE"
  },
  {
   "name" : "AMEDIAFORMAT_KEY_TARGET_TIME"
  },
  {
   "name" : "AMEDIAFORMAT_KEY_TEMPORAL_LAYERING"
  },
  {
   "name" : "AMEDIAFORMAT_KEY_TEMPORAL_LAYER_COUNT"
  },
  {
   "name" : "AMEDIAFORMAT_KEY_TEMPORAL_LAYER_ID"
  },
  {
   "name" : "AMEDIAFORMAT_KEY_TEXT_FORMAT_DATA"
  },
  {
   "name" : "AMEDIAFORMAT_KEY_THUMBNAIL_CSD_HEVC"
  },
  {
   "name" : "AMEDIAFORMAT_KEY_THUMBNAIL_HEIGHT"
  },
  {
   "name" : "AMEDIAFORMAT_KEY_THUMBNAIL_TIME"
  },
  {
   "name" : "AMEDIAFORMAT_KEY_THUMBNAIL_WIDTH"
  },
  {
   "name" : "AMEDIAFORMAT_KEY_TILE_HEIGHT"
  },
  {
   "name" : "AMEDIAFORMAT_KEY_TILE_WIDTH"
  },
  {
   "name" : "AMEDIAFORMAT_KEY_TIME_US"
  },
  {
   "name" : "AMEDIAFORMAT_KEY_TITLE"
  },
  {
   "name" : "AMEDIAFORMAT_KEY_TRACK_ID"
  },
  {
   "name" : "AMEDIAFORMAT_KEY_TRACK_INDEX"
  },
  {
   "name" : "AMEDIAFORMAT_KEY_VALID_SAMPLES"
  },
  {
   "name" : "AMEDIAFORMAT_KEY_WIDTH"
  },
  {
   "name" : "AMEDIAFORMAT_KEY_YEAR"
  }
 ],
 "enum_types" :
 [
  {
   "alignment" : 4,
   "enum_fields" :
   [
    {
     "enum_field_value" : 0,
     "name" : "ADATASPACE_UNKNOWN"
    },
    {
     "enum_field_value" : 406913024,
     "name" : "ADATASPACE_SCRGB_LINEAR"
    },
    {
     "enum_field_value" : 142671872,
     "name" : "ADATASPACE_SRGB"
    },
    {
     "enum_field_value" : 411107328,
     "name" : "ADATASPACE_SCRGB"
    },
    {
     "enum_field_value" : 143261696,
     "name" : "ADATASPACE_DISPLAY_P3"
    },
    {
     "enum_field_value" : 163971072,
     "name" : "ADATASPACE_BT2020_PQ"
    },
    {
     "enum_field_value" : 151715840,
     "name" : "ADATASPACE_ADOBE_RGB"
    },
    {
     "enum_field_value" : 147193856,
     "name" : "ADATASPACE_BT2020"
    },
    {
     "enum_field_value" : 281083904,
     "name" : "ADATASPACE_BT709"
    },
    {
     "enum_field_value" : 155844608,
     "name" : "ADATASPACE_DCI_P3"
    },
    {
     "enum_field_value" : 138477568,
     "name" : "ADATASPACE_SRGB_LINEAR"
    }
   ],
   "linker_set_key" : "_ZTI10ADataSpace",
   "name" : "ADataSpace",
   "referenced_type" : "_ZTI10ADataSpace",
   "self_type" : "_ZTI10ADataSpace",
   "size" : 4,
   "source_file" : "/frameworks/native/libs/nativewindow/include/android/data_space.h",
   "underlying_type" : "_ZTIj"
  },
  {
   "alignment" : 4,
   "enum_fields" :
   [
    {
     "enum_field_value" : 1,
     "name" : "FLAG_ONEWAY"
    }
   ],
   "linker_set_key" : "_ZTI12$FLAG_ONEWAY",
   "name" : "(anonymous enum at frameworks/native/libs/binder/ndk/include_ndk/android/binder_ibinder.h:47:1)",
   "referenced_type" : "_ZTI12$FLAG_ONEWAY",
   "self_type" : "_ZTI12$FLAG_ONEWAY",
   "size" : 4,
   "source_file" : "/frameworks/native/libs/binder/ndk/include_ndk/android/binder_ibinder.h",
   "underlying_type" : "_ZTIj"
  },
  {
   "alignment" : 4,
   "enum_fields" :
   [
    {
     "enum_field_value" : 0,
     "name" : "AMEDIAMUXER_OUTPUT_FORMAT_MPEG_4"
    },
    {
     "enum_field_value" : 1,
     "name" : "AMEDIAMUXER_OUTPUT_FORMAT_WEBM"
    },
    {
     "enum_field_value" : 2,
     "name" : "AMEDIAMUXER_OUTPUT_FORMAT_THREE_GPP"
    }
   ],
   "linker_set_key" : "_ZTI12OutputFormat",
   "name" : "OutputFormat",
   "referenced_type" : "_ZTI12OutputFormat",
   "self_type" : "_ZTI12OutputFormat",
   "size" : 4,
   "source_file" : "/frameworks/av/media/ndk/include/media/NdkMediaMuxer.h",
   "underlying_type" : "_ZTIj"
  },
  {
   "alignment" : 4,
   "enum_fields" :
   [
    {
     "enum_field_value" : -2,
     "name" : "AUDIO_MODE_INVALID"
    },
    {
     "enum_field_value" : -1,
     "name" : "AUDIO_MODE_CURRENT"
    },
    {
     "enum_field_value" : 0,
     "name" : "AUDIO_MODE_NORMAL"
    },
    {
     "enum_field_value" : 1,
     "name" : "AUDIO_MODE_RINGTONE"
    },
    {
     "enum_field_value" : 2,
     "name" : "AUDIO_MODE_IN_CALL"
    },
    {
     "enum_field_value" : 3,
     "name" : "AUDIO_MODE_IN_COMMUNICATION"
    },
    {
     "enum_field_value" : 4,
     "name" : "AUDIO_MODE_CALL_SCREEN"
    }
   ],
   "linker_set_key" : "_ZTI12audio_mode_t",
   "name" : "audio_mode_t",
   "referenced_type" : "_ZTI12audio_mode_t",
   "self_type" : "_ZTI12audio_mode_t",
   "size" : 4,
   "source_file" : "/system/media/audio/include/system/audio-base.h",
   "underlying_type" : "_ZTIi"
  },
  {
   "alignment" : 8,
   "enum_fields" :
   [
    {
     "enum_field_value" : 0,
     "name" : "NORMAL"
    },
    {
     "enum_field_value" : 1,
     "name" : "BACK_COVERED"
    },
    {
     "enum_field_value" : 2,
     "name" : "FRONT_COVERED"
    },
    {
     "enum_field_value" : 4,
     "name" : "FOLDED"
    },
    {
     "enum_field_value" : 0,
     "name" : "VENDOR_STATE_START"
    }
   ],
   "linker_set_key" : "_ZTI12device_state",
   "name" : "device_state",
   "referenced_type" : "_ZTI12device_state",
   "self_type" : "_ZTI12device_state",
   "size" : 8,
   "source_file" : "/hardware/libhardware/include/hardware/camera_common.h",
   "underlying_type" : "_ZTIy"
  },
  {
   "alignment" : 4,
   "enum_fields" :
   [
    {
     "enum_field_value" : 1,
     "name" : "HAL_HDR_DOLBY_VISION"
    },
    {
     "enum_field_value" : 2,
     "name" : "HAL_HDR_HDR10"
    },
    {
     "enum_field_value" : 3,
     "name" : "HAL_HDR_HLG"
    }
   ],
   "linker_set_key" : "_ZTI13android_hdr_t",
   "name" : "android_hdr_t",
   "referenced_type" : "_ZTI13android_hdr_t",
   "self_type" : "_ZTI13android_hdr_t",
   "size" : 4,
   "source_file" : "/system/core/libsystem/include/system/graphics-base-v1.0.h",
   "underlying_type" : "_ZTIj"
  },
  {
   "alignment" : 4,
   "enum_fields" :
   [
    {
     "enum_field_value" : 0,
     "name" : "AUDIO_USAGE_UNKNOWN"
    },
    {
     "enum_field_value" : 1,
     "name" : "AUDIO_USAGE_MEDIA"
    },
    {
     "enum_field_value" : 2,
     "name" : "AUDIO_USAGE_VOICE_COMMUNICATION"
    },
    {
     "enum_field_value" : 3,
     "name" : "AUDIO_USAGE_VOICE_COMMUNICATION_SIGNALLING"
    },
    {
     "enum_field_value" : 4,
     "name" : "AUDIO_USAGE_ALARM"
    },
    {
     "enum_field_value" : 5,
     "name" : "AUDIO_USAGE_NOTIFICATION"
    },
    {
     "enum_field_value" : 6,
     "name" : "AUDIO_USAGE_NOTIFICATION_TELEPHONY_RINGTONE"
    },
    {
     "enum_field_value" : 7,
     "name" : "AUDIO_USAGE_NOTIFICATION_COMMUNICATION_REQUEST"
    },
    {
     "enum_field_value" : 8,
     "name" : "AUDIO_USAGE_NOTIFICATION_COMMUNICATION_INSTANT"
    },
    {
     "enum_field_value" : 9,
     "name" : "AUDIO_USAGE_NOTIFICATION_COMMUNICATION_DELAYED"
    },
    {
     "enum_field_value" : 10,
     "name" : "AUDIO_USAGE_NOTIFICATION_EVENT"
    },
    {
     "enum_field_value" : 11,
     "name" : "AUDIO_USAGE_ASSISTANCE_ACCESSIBILITY"
    },
    {
     "enum_field_value" : 12,
     "name" : "AUDIO_USAGE_ASSISTANCE_NAVIGATION_GUIDANCE"
    },
    {
     "enum_field_value" : 13,
     "name" : "AUDIO_USAGE_ASSISTANCE_SONIFICATION"
    },
    {
     "enum_field_value" : 14,
     "name" : "AUDIO_USAGE_GAME"
    },
    {
     "enum_field_value" : 15,
     "name" : "AUDIO_USAGE_VIRTUAL_SOURCE"
    },
    {
     "enum_field_value" : 16,
     "name" : "AUDIO_USAGE_ASSISTANT"
    },
    {
     "enum_field_value" : 17,
     "name" : "AUDIO_USAGE_CALL_ASSISTANT"
    },
    {
     "enum_field_value" : 1000,
     "name" : "AUDIO_USAGE_EMERGENCY"
    },
    {
     "enum_field_value" : 1001,
     "name" : "AUDIO_USAGE_SAFETY"
    },
    {
     "enum_field_value" : 1002,
     "name" : "AUDIO_USAGE_VEHICLE_STATUS"
    },
    {
     "enum_field_value" : 1003,
     "name" : "AUDIO_USAGE_ANNOUNCEMENT"
    }
   ],
   "linker_set_key" : "_ZTI13audio_usage_t",
   "name" : "audio_usage_t",
   "referenced_type" : "_ZTI13audio_usage_t",
   "self_type" : "_ZTI13audio_usage_t",
   "size" : 4,
   "source_file" : "/system/media/audio/include/system/audio-base.h",
   "underlying_type" : "_ZTIj"
  },
  {
   "alignment" : 4,
   "enum_fields" :
   [
    {
     "enum_field_value" : 1,
     "name" : "AIMAGE_FORMAT_RGBA_8888"
    },
    {
     "enum_field_value" : 2,
     "name" : "AIMAGE_FORMAT_RGBX_8888"
    },
    {
     "enum_field_value" : 3,
     "name" : "AIMAGE_FORMAT_RGB_888"
    },
    {
     "enum_field_value" : 4,
     "name" : "AIMAGE_FORMAT_RGB_565"
    },
    {
     "enum_field_value" : 22,
     "name" : "AIMAGE_FORMAT_RGBA_FP16"
    },
    {
     "enum_field_value" : 35,
     "name" : "AIMAGE_FORMAT_YUV_420_888"
    },
    {
     "enum_field_value" : 256,
     "name" : "AIMAGE_FORMAT_JPEG"
    },
    {
     "enum_field_value" : 32,
     "name" : "AIMAGE_FORMAT_RAW16"
    },
    {
     "enum_field_value" : 36,
     "name" : "AIMAGE_FORMAT_RAW_PRIVATE"
    },
    {
     "enum_field_value" : 37,
     "name" : "AIMAGE_FORMAT_RAW10"
    },
    {
     "enum_field_value" : 38,
     "name" : "AIMAGE_FORMAT_RAW12"
    },
    {
     "enum_field_value" : 1144402265,
     "name" : "AIMAGE_FORMAT_DEPTH16"
    },
    {
     "enum_field_value" : 257,
     "name" : "AIMAGE_FORMAT_DEPTH_POINT_CLOUD"
    },
    {
     "enum_field_value" : 34,
     "name" : "AIMAGE_FORMAT_PRIVATE"
    },
    {
     "enum_field_value" : 538982489,
     "name" : "AIMAGE_FORMAT_Y8"
    },
    {
     "enum_field_value" : 1212500294,
     "name" : "AIMAGE_FORMAT_HEIC"
    },
    {
     "enum_field_value" : 1768253795,
     "name" : "AIMAGE_FORMAT_DEPTH_JPEG"
    }
   ],
   "linker_set_key" : "_ZTI14AIMAGE_FORMATS",
   "name" : "AIMAGE_FORMATS",
   "referenced_type" : "_ZTI14AIMAGE_FORMATS",
   "self_type" : "_ZTI14AIMAGE_FORMATS",
   "size" : 4,
   "source_file" : "/frameworks/av/media/ndk/include/media/NdkImage.h",
   "underlying_type" : "_ZTIj"
  },
  {
   "alignment" : 4,
   "enum_fields" :
   [
    {
     "enum_field_value" : -1,
     "name" : "AUDIO_FORMAT_INVALID"
    },
    {
     "enum_field_value" : 0,
     "name" : "AUDIO_FORMAT_DEFAULT"
    },
    {
     "enum_field_value" : 0,
     "name" : "AUDIO_FORMAT_PCM"
    },
    {
     "enum_field_value" : 16777216,
     "name" : "AUDIO_FORMAT_MP3"
    },
    {
     "enum_field_value" : 33554432,
     "name" : "AUDIO_FORMAT_AMR_NB"
    },
    {
     "enum_field_value" : 50331648,
     "name" : "AUDIO_FORMAT_AMR_WB"
    },
    {
     "enum_field_value" : 67108864,
     "name" : "AUDIO_FORMAT_AAC"
    },
    {
     "enum_field_value" : 83886080,
     "name" : "AUDIO_FORMAT_HE_AAC_V1"
    },
    {
     "enum_field_value" : 100663296,
     "name" : "AUDIO_FORMAT_HE_AAC_V2"
    },
    {
     "enum_field_value" : 117440512,
     "name" : "AUDIO_FORMAT_VORBIS"
    },
    {
     "enum_field_value" : 134217728,
     "name" : "AUDIO_FORMAT_OPUS"
    },
    {
     "enum_field_value" : 150994944,
     "name" : "AUDIO_FORMAT_AC3"
    },
    {
     "enum_field_value" : 167772160,
     "name" : "AUDIO_FORMAT_E_AC3"
    },
    {
     "enum_field_value" : 184549376,
     "name" : "AUDIO_FORMAT_DTS"
    },
    {
     "enum_field_value" : 201326592,
     "name" : "AUDIO_FORMAT_DTS_HD"
    },
    {
     "enum_field_value" : 218103808,
     "name" : "AUDIO_FORMAT_IEC61937"
    },
    {
     "enum_field_value" : 234881024,
     "name" : "AUDIO_FORMAT_DOLBY_TRUEHD"
    },
    {
     "enum_field_value" : 268435456,
     "name" : "AUDIO_FORMAT_EVRC"
    },
    {
     "enum_field_value" : 285212672,
     "name" : "AUDIO_FORMAT_EVRCB"
    },
    {
     "enum_field_value" : 301989888,
     "name" : "AUDIO_FORMAT_EVRCWB"
    },
    {
     "enum_field_value" : 318767104,
     "name" : "AUDIO_FORMAT_EVRCNW"
    },
    {
     "enum_field_value" : 335544320,
     "name" : "AUDIO_FORMAT_AAC_ADIF"
    },
    {
     "enum_field_value" : 352321536,
     "name" : "AUDIO_FORMAT_WMA"
    },
    {
     "enum_field_value" : 369098752,
     "name" : "AUDIO_FORMAT_WMA_PRO"
    },
    {
     "enum_field_value" : 385875968,
     "name" : "AUDIO_FORMAT_AMR_WB_PLUS"
    },
    {
     "enum_field_value" : 402653184,
     "name" : "AUDIO_FORMAT_MP2"
    },
    {
     "enum_field_value" : 419430400,
     "name" : "AUDIO_FORMAT_QCELP"
    },
    {
     "enum_field_value" : 436207616,
     "name" : "AUDIO_FORMAT_DSD"
    },
    {
     "enum_field_value" : 452984832,
     "name" : "AUDIO_FORMAT_FLAC"
    },
    {
     "enum_field_value" : 469762048,
     "name" : "AUDIO_FORMAT_ALAC"
    },
    {
     "enum_field_value" : 486539264,
     "name" : "AUDIO_FORMAT_APE"
    },
    {
     "enum_field_value" : 503316480,
     "name" : "AUDIO_FORMAT_AAC_ADTS"
    },
    {
     "enum_field_value" : 520093696,
     "name" : "AUDIO_FORMAT_SBC"
    },
    {
     "enum_field_value" : 536870912,
     "name" : "AUDIO_FORMAT_APTX"
    },
    {
     "enum_field_value" : 553648128,
     "name" : "AUDIO_FORMAT_APTX_HD"
    },
    {
     "enum_field_value" : 570425344,
     "name" : "AUDIO_FORMAT_AC4"
    },
    {
     "enum_field_value" : 587202560,
     "name" : "AUDIO_FORMAT_LDAC"
    },
    {
     "enum_field_value" : 603979776,
     "name" : "AUDIO_FORMAT_MAT"
    },
    {
     "enum_field_value" : 620756992,
     "name" : "AUDIO_FORMAT_AAC_LATM"
    },
    {
     "enum_field_value" : 637534208,
     "name" : "AUDIO_FORMAT_CELT"
    },
    {
     "enum_field_value" : 654311424,
     "name" : "AUDIO_FORMAT_APTX_ADAPTIVE"
    },
    {
     "enum_field_value" : 671088640,
     "name" : "AUDIO_FORMAT_LHDC"
    },
    {
     "enum_field_value" : 687865856,
     "name" : "AUDIO_FORMAT_LHDC_LL"
    },
    {
     "enum_field_value" : 704643072,
     "name" : "AUDIO_FORMAT_APTX_TWSP"
    },
    {
     "enum_field_value" : -16777216,
     "name" : "AUDIO_FORMAT_MAIN_MASK"
    },
    {
     "enum_field_value" : 16777215,
     "name" : "AUDIO_FORMAT_SUB_MASK"
    },
    {
     "enum_field_value" : 1,
     "name" : "AUDIO_FORMAT_PCM_SUB_16_BIT"
    },
    {
     "enum_field_value" : 2,
     "name" : "AUDIO_FORMAT_PCM_SUB_8_BIT"
    },
    {
     "enum_field_value" : 3,
     "name" : "AUDIO_FORMAT_PCM_SUB_32_BIT"
    },
    {
     "enum_field_value" : 4,
     "name" : "AUDIO_FORMAT_PCM_SUB_8_24_BIT"
    },
    {
     "enum_field_value" : 5,
     "name" : "AUDIO_FORMAT_PCM_SUB_FLOAT"
    },
    {
     "enum_field_value" : 6,
     "name" : "AUDIO_FORMAT_PCM_SUB_24_BIT_PACKED"
    },
    {
     "enum_field_value" : 0,
     "name" : "AUDIO_FORMAT_MP3_SUB_NONE"
    },
    {
     "enum_field_value" : 0,
     "name" : "AUDIO_FORMAT_AMR_SUB_NONE"
    },
    {
     "enum_field_value" : 1,
     "name" : "AUDIO_FORMAT_AAC_SUB_MAIN"
    },
    {
     "enum_field_value" : 2,
     "name" : "AUDIO_FORMAT_AAC_SUB_LC"
    },
    {
     "enum_field_value" : 4,
     "name" : "AUDIO_FORMAT_AAC_SUB_SSR"
    },
    {
     "enum_field_value" : 8,
     "name" : "AUDIO_FORMAT_AAC_SUB_LTP"
    },
    {
     "enum_field_value" : 16,
     "name" : "AUDIO_FORMAT_AAC_SUB_HE_V1"
    },
    {
     "enum_field_value" : 32,
     "name" : "AUDIO_FORMAT_AAC_SUB_SCALABLE"
    },
    {
     "enum_field_value" : 64,
     "name" : "AUDIO_FORMAT_AAC_SUB_ERLC"
    },
    {
     "enum_field_value" : 128,
     "name" : "AUDIO_FORMAT_AAC_SUB_LD"
    },
    {
     "enum_field_value" : 256,
     "name" : "AUDIO_FORMAT_AAC_SUB_HE_V2"
    },
    {
     "enum_field_value" : 512,
     "name" : "AUDIO_FORMAT_AAC_SUB_ELD"
    },
    {
     "enum_field_value" : 768,
     "name" : "AUDIO_FORMAT_AAC_SUB_XHE"
    },
    {
     "enum_field_value" : 0,
     "name" : "AUDIO_FORMAT_VORBIS_SUB_NONE"
    },
    {
     "enum_field_value" : 1,
     "name" : "AUDIO_FORMAT_E_AC3_SUB_JOC"
    },
    {
     "enum_field_value" : 1,
     "name" : "AUDIO_FORMAT_MAT_SUB_1_0"
    },
    {
     "enum_field_value" : 2,
     "name" : "AUDIO_FORMAT_MAT_SUB_2_0"
    },
    {
     "enum_field_value" : 3,
     "name" : "AUDIO_FORMAT_MAT_SUB_2_1"
    },
    {
     "enum_field_value" : 1,
     "name" : "AUDIO_FORMAT_PCM_16_BIT"
    },
    {
     "enum_field_value" : 2,
     "name" : "AUDIO_FORMAT_PCM_8_BIT"
    },
    {
     "enum_field_value" : 3,
     "name" : "AUDIO_FORMAT_PCM_32_BIT"
    },
    {
     "enum_field_value" : 4,
     "name" : "AUDIO_FORMAT_PCM_8_24_BIT"
    },
    {
     "enum_field_value" : 5,
     "name" : "AUDIO_FORMAT_PCM_FLOAT"
    },
    {
     "enum_field_value" : 6,
     "name" : "AUDIO_FORMAT_PCM_24_BIT_PACKED"
    },
    {
     "enum_field_value" : 67108865,
     "name" : "AUDIO_FORMAT_AAC_MAIN"
    },
    {
     "enum_field_value" : 67108866,
     "name" : "AUDIO_FORMAT_AAC_LC"
    },
    {
     "enum_field_value" : 67108868,
     "name" : "AUDIO_FORMAT_AAC_SSR"
    },
    {
     "enum_field_value" : 67108872,
     "name" : "AUDIO_FORMAT_AAC_LTP"
    },
    {
     "enum_field_value" : 67108880,
     "name" : "AUDIO_FORMAT_AAC_HE_V1"
    },
    {
     "enum_field_value" : 67108896,
     "name" : "AUDIO_FORMAT_AAC_SCALABLE"
    },
    {
     "enum_field_value" : 67108928,
     "name" : "AUDIO_FORMAT_AAC_ERLC"
    },
    {
     "enum_field_value" : 67108992,
     "name" : "AUDIO_FORMAT_AAC_LD"
    },
    {
     "enum_field_value" : 67109120,
     "name" : "AUDIO_FORMAT_AAC_HE_V2"
    },
    {
     "enum_field_value" : 67109376,
     "name" : "AUDIO_FORMAT_AAC_ELD"
    },
    {
     "enum_field_value" : 67109632,
     "name" : "AUDIO_FORMAT_AAC_XHE"
    },
    {
     "enum_field_value" : 503316481,
     "name" : "AUDIO_FORMAT_AAC_ADTS_MAIN"
    },
    {
     "enum_field_value" : 503316482,
     "name" : "AUDIO_FORMAT_AAC_ADTS_LC"
    },
    {
     "enum_field_value" : 503316484,
     "name" : "AUDIO_FORMAT_AAC_ADTS_SSR"
    },
    {
     "enum_field_value" : 503316488,
     "name" : "AUDIO_FORMAT_AAC_ADTS_LTP"
    },
    {
     "enum_field_value" : 503316496,
     "name" : "AUDIO_FORMAT_AAC_ADTS_HE_V1"
    },
    {
     "enum_field_value" : 503316512,
     "name" : "AUDIO_FORMAT_AAC_ADTS_SCALABLE"
    },
    {
     "enum_field_value" : 503316544,
     "name" : "AUDIO_FORMAT_AAC_ADTS_ERLC"
    },
    {
     "enum_field_value" : 503316608,
     "name" : "AUDIO_FORMAT_AAC_ADTS_LD"
    },
    {
     "enum_field_value" : 503316736,
     "name" : "AUDIO_FORMAT_AAC_ADTS_HE_V2"
    },
    {
     "enum_field_value" : 503316992,
     "name" : "AUDIO_FORMAT_AAC_ADTS_ELD"
    },
    {
     "enum_field_value" : 503317248,
     "name" : "AUDIO_FORMAT_AAC_ADTS_XHE"
    },
    {
     "enum_field_value" : 620756994,
     "name" : "AUDIO_FORMAT_AAC_LATM_LC"
    },
    {
     "enum_field_value" : 620757008,
     "name" : "AUDIO_FORMAT_AAC_LATM_HE_V1"
    },
    {
     "enum_field_value" : 620757248,
     "name" : "AUDIO_FORMAT_AAC_LATM_HE_V2"
    },
    {
     "enum_field_value" : 167772161,
     "name" : "AUDIO_FORMAT_E_AC3_JOC"
    },
    {
     "enum_field_value" : 603979777,
     "name" : "AUDIO_FORMAT_MAT_1_0"
    },
    {
     "enum_field_value" : 603979778,
     "name" : "AUDIO_FORMAT_MAT_2_0"
    },
    {
     "enum_field_value" : 603979779,
     "name" : "AUDIO_FORMAT_MAT_2_1"
    }
   ],
   "linker_set_key" : "_ZTI14audio_format_t",
   "name" : "audio_format_t",
   "referenced_type" : "_ZTI14audio_format_t",
   "self_type" : "_ZTI14audio_format_t",
   "size" : 4,
   "source_file" : "/system/media/audio/include/system/audio-base.h",
   "underlying_type" : "_ZTIj"
  },
  {
   "alignment" : 4,
   "enum_fields" :
   [
    {
     "enum_field_value" : 0,
     "name" : "AUDIO_SOURCE_DEFAULT"
    },
    {
     "enum_field_value" : 1,
     "name" : "AUDIO_SOURCE_MIC"
    },
    {
     "enum_field_value" : 2,
     "name" : "AUDIO_SOURCE_VOICE_UPLINK"
    },
    {
     "enum_field_value" : 3,
     "name" : "AUDIO_SOURCE_VOICE_DOWNLINK"
    },
    {
     "enum_field_value" : 4,
     "name" : "AUDIO_SOURCE_VOICE_CALL"
    },
    {
     "enum_field_value" : 5,
     "name" : "AUDIO_SOURCE_CAMCORDER"
    },
    {
     "enum_field_value" : 6,
     "name" : "AUDIO_SOURCE_VOICE_RECOGNITION"
    },
    {
     "enum_field_value" : 7,
     "name" : "AUDIO_SOURCE_VOICE_COMMUNICATION"
    },
    {
     "enum_field_value" : 8,
     "name" : "AUDIO_SOURCE_REMOTE_SUBMIX"
    },
    {
     "enum_field_value" : 9,
     "name" : "AUDIO_SOURCE_UNPROCESSED"
    },
    {
     "enum_field_value" : 10,
     "name" : "AUDIO_SOURCE_VOICE_PERFORMANCE"
    },
    {
     "enum_field_value" : 1997,
     "name" : "AUDIO_SOURCE_ECHO_REFERENCE"
    },
    {
     "enum_field_value" : 1998,
     "name" : "AUDIO_SOURCE_FM_TUNER"
    },
    {
     "enum_field_value" : 1999,
     "name" : "AUDIO_SOURCE_HOTWORD"
    }
   ],
   "linker_set_key" : "_ZTI14audio_source_t",
   "name" : "audio_source_t",
   "referenced_type" : "_ZTI14audio_source_t",
   "self_type" : "_ZTI14audio_source_t",
   "size" : 4,
   "source_file" : "/system/media/audio/include/system/audio-base.h",
   "underlying_type" : "_ZTIj"
  },
  {
   "alignment" : 4,
   "enum_fields" :
   [
    {
     "enum_field_value" : 0,
     "name" : "JNIInvalidRefType"
    },
    {
     "enum_field_value" : 1,
     "name" : "JNILocalRefType"
    },
    {
     "enum_field_value" : 2,
     "name" : "JNIGlobalRefType"
    },
    {
     "enum_field_value" : 3,
     "name" : "JNIWeakGlobalRefType"
    }
   ],
   "linker_set_key" : "_ZTI14jobjectRefType",
   "name" : "jobjectRefType",
   "referenced_type" : "_ZTI14jobjectRefType",
   "self_type" : "_ZTI14jobjectRefType",
   "size" : 4,
   "source_file" : "/libnativehelper/include_jni/jni.h",
   "underlying_type" : "_ZTIj"
  },
  {
   "alignment" : 4,
   "enum_fields" :
   [
    {
     "enum_field_value" : 0,
     "name" : "AMEDIA_OK"
    },
    {
     "enum_field_value" : 1100,
     "name" : "AMEDIACODEC_ERROR_INSUFFICIENT_RESOURCE"
    },
    {
     "enum_field_value" : 1101,
     "name" : "AMEDIACODEC_ERROR_RECLAIMED"
    },
    {
     "enum_field_value" : -10000,
     "name" : "AMEDIA_ERROR_BASE"
    },
    {
     "enum_field_value" : -10000,
     "name" : "AMEDIA_ERROR_UNKNOWN"
    },
    {
     "enum_field_value" : -10001,
     "name" : "AMEDIA_ERROR_MALFORMED"
    },
    {
     "enum_field_value" : -10002,
     "name" : "AMEDIA_ERROR_UNSUPPORTED"
    },
    {
     "enum_field_value" : -10003,
     "name" : "AMEDIA_ERROR_INVALID_OBJECT"
    },
    {
     "enum_field_value" : -10004,
     "name" : "AMEDIA_ERROR_INVALID_PARAMETER"
    },
    {
     "enum_field_value" : -10005,
     "name" : "AMEDIA_ERROR_INVALID_OPERATION"
    },
    {
     "enum_field_value" : -10006,
     "name" : "AMEDIA_ERROR_END_OF_STREAM"
    },
    {
     "enum_field_value" : -10007,
     "name" : "AMEDIA_ERROR_IO"
    },
    {
     "enum_field_value" : -10008,
     "name" : "AMEDIA_ERROR_WOULD_BLOCK"
    },
    {
     "enum_field_value" : -20000,
     "name" : "AMEDIA_DRM_ERROR_BASE"
    },
    {
     "enum_field_value" : -20001,
     "name" : "AMEDIA_DRM_NOT_PROVISIONED"
    },
    {
     "enum_field_value" : -20002,
     "name" : "AMEDIA_DRM_RESOURCE_BUSY"
    },
    {
     "enum_field_value" : -20003,
     "name" : "AMEDIA_DRM_DEVICE_REVOKED"
    },
    {
     "enum_field_value" : -20004,
     "name" : "AMEDIA_DRM_SHORT_BUFFER"
    },
    {
     "enum_field_value" : -20005,
     "name" : "AMEDIA_DRM_SESSION_NOT_OPENED"
    },
    {
     "enum_field_value" : -20006,
     "name" : "AMEDIA_DRM_TAMPER_DETECTED"
    },
    {
     "enum_field_value" : -20007,
     "name" : "AMEDIA_DRM_VERIFY_FAILED"
    },
    {
     "enum_field_value" : -20008,
     "name" : "AMEDIA_DRM_NEED_KEY"
    },
    {
     "enum_field_value" : -20009,
     "name" : "AMEDIA_DRM_LICENSE_EXPIRED"
    },
    {
     "enum_field_value" : -30000,
     "name" : "AMEDIA_IMGREADER_ERROR_BASE"
    },
    {
     "enum_field_value" : -30001,
     "name" : "AMEDIA_IMGREADER_NO_BUFFER_AVAILABLE"
    },
    {
     "enum_field_value" : -30002,
     "name" : "AMEDIA_IMGREADER_MAX_IMAGES_ACQUIRED"
    },
    {
     "enum_field_value" : -30003,
     "name" : "AMEDIA_IMGREADER_CANNOT_LOCK_IMAGE"
    },
    {
     "enum_field_value" : -30004,
     "name" : "AMEDIA_IMGREADER_CANNOT_UNLOCK_IMAGE"
    },
    {
     "enum_field_value" : -30005,
     "name" : "AMEDIA_IMGREADER_IMAGE_NOT_LOCKED"
    }
   ],
   "linker_set_key" : "_ZTI14media_status_t",
   "name" : "media_status_t",
   "referenced_type" : "_ZTI14media_status_t",
   "self_type" : "_ZTI14media_status_t",
   "size" : 4,
   "source_file" : "/frameworks/av/media/ndk/include/media/NdkMediaError.h",
   "underlying_type" : "_ZTIi"
  },
  {
   "alignment" : 4,
   "enum_fields" :
   [
    {
     "enum_field_value" : -2,
     "name" : "AUDIO_SESSION_DEVICE"
    },
    {
     "enum_field_value" : -1,
     "name" : "AUDIO_SESSION_OUTPUT_STAGE"
    },
    {
     "enum_field_value" : 0,
     "name" : "AUDIO_SESSION_OUTPUT_MIX"
    },
    {
     "enum_field_value" : 0,
     "name" : "AUDIO_SESSION_ALLOCATE"
    },
    {
     "enum_field_value" : 0,
     "name" : "AUDIO_SESSION_NONE"
    }
   ],
   "linker_set_key" : "_ZTI15audio_session_t",
   "name" : "audio_session_t",
   "referenced_type" : "_ZTI15audio_session_t",
   "self_type" : "_ZTI15audio_session_t",
   "size" : 4,
   "source_file" : "/system/media/audio/include/system/audio-base.h",
   "underlying_type" : "_ZTIi"
  },
  {
   "alignment" : 4,
   "enum_fields" :
   [
    {
     "enum_field_value" : 1,
     "name" : "KEY_TYPE_STREAMING"
    },
    {
     "enum_field_value" : 2,
     "name" : "KEY_TYPE_OFFLINE"
    },
    {
     "enum_field_value" : 3,
     "name" : "KEY_TYPE_RELEASE"
    }
   ],
   "linker_set_key" : "_ZTI16AMediaDrmKeyType",
   "name" : "AMediaDrmKeyType",
   "referenced_type" : "_ZTI16AMediaDrmKeyType",
   "self_type" : "_ZTI16AMediaDrmKeyType",
   "size" : 4,
   "source_file" : "/frameworks/av/media/ndk/include/media/NdkMediaDrm.h",
   "underlying_type" : "_ZTIj"
  },
  {
   "alignment" : 4,
   "enum_fields" :
   [
    {
     "enum_field_value" : 1,
     "name" : "CAMERA3_MSG_ERROR"
    },
    {
     "enum_field_value" : 2,
     "name" : "CAMERA3_MSG_SHUTTER"
    },
    {
     "enum_field_value" : 3,
     "name" : "CAMERA3_NUM_MESSAGES"
    }
   ],
   "linker_set_key" : "_ZTI16camera3_msg_type",
   "name" : "camera3_msg_type",
   "referenced_type" : "_ZTI16camera3_msg_type",
   "self_type" : "_ZTI16camera3_msg_type",
   "size" : 4,
   "source_file" : "/hardware/libhardware/include/hardware/camera3.h",
   "underlying_type" : "_ZTIj"
  },
  {
   "alignment" : 4,
   "enum_fields" :
   [
    {
     "enum_field_value" : 0,
     "name" : "AUDIO_PORT_ROLE_NONE"
    },
    {
     "enum_field_value" : 1,
     "name" : "AUDIO_PORT_ROLE_SOURCE"
    },
    {
     "enum_field_value" : 2,
     "name" : "AUDIO_PORT_ROLE_SINK"
    }
   ],
   "linker_set_key" : "_ZTI17audio_port_role_t",
   "name" : "audio_port_role_t",
   "referenced_type" : "_ZTI17audio_port_role_t",
   "self_type" : "_ZTI17audio_port_role_t",
   "size" : 4,
   "source_file" : "/system/media/audio/include/system/audio-base.h",
   "underlying_type" : "_ZTIj"
  },
  {
   "alignment" : 4,
   "enum_fields" :
   [
    {
     "enum_field_value" : 0,
     "name" : "AUDIO_PORT_TYPE_NONE"
    },
    {
     "enum_field_value" : 1,
     "name" : "AUDIO_PORT_TYPE_DEVICE"
    },
    {
     "enum_field_value" : 2,
     "name" : "AUDIO_PORT_TYPE_MIX"
    },
    {
     "enum_field_value" : 3,
     "name" : "AUDIO_PORT_TYPE_SESSION"
    }
   ],
   "linker_set_key" : "_ZTI17audio_port_type_t",
   "name" : "audio_port_type_t",
   "referenced_type" : "_ZTI17audio_port_type_t",
   "self_type" : "_ZTI17audio_port_type_t",
   "size" : 4,
   "source_file" : "/system/media/audio/include/system/audio-base.h",
   "underlying_type" : "_ZTIj"
  },
  {
   "alignment" : 4,
   "enum_fields" :
   [
    {
     "enum_field_value" : 0,
     "name" : "AMEDIACODECRYPTOINFO_MODE_CLEAR"
    },
    {
     "enum_field_value" : 1,
     "name" : "AMEDIACODECRYPTOINFO_MODE_AES_CTR"
    },
    {
     "enum_field_value" : 2,
     "name" : "AMEDIACODECRYPTOINFO_MODE_AES_WV"
    },
    {
     "enum_field_value" : 3,
     "name" : "AMEDIACODECRYPTOINFO_MODE_AES_CBC"
    }
   ],
   "linker_set_key" : "_ZTI17cryptoinfo_mode_t",
   "name" : "cryptoinfo_mode_t",
   "referenced_type" : "_ZTI17cryptoinfo_mode_t",
   "self_type" : "_ZTI17cryptoinfo_mode_t",
   "size" : 4,
   "source_file" : "/frameworks/av/media/ndk/include/media/NdkMediaCodec.h",
   "underlying_type" : "_ZTIj"
  },
  {
   "alignment" : 4,
   "enum_fields" :
   [
    {
     "enum_field_value" : 0,
     "name" : "TORCH_MODE_STATUS_NOT_AVAILABLE"
    },
    {
     "enum_field_value" : 1,
     "name" : "TORCH_MODE_STATUS_AVAILABLE_OFF"
    },
    {
     "enum_field_value" : 2,
     "name" : "TORCH_MODE_STATUS_AVAILABLE_ON"
    }
   ],
   "linker_set_key" : "_ZTI17torch_mode_status",
   "name" : "torch_mode_status",
   "referenced_type" : "_ZTI17torch_mode_status",
   "self_type" : "_ZTI17torch_mode_status",
   "size" : 4,
   "source_file" : "/hardware/libhardware/include/hardware/camera_common.h",
   "underlying_type" : "_ZTIj"
  },
  {
   "alignment" : 4,
   "enum_fields" :
   [
    {
     "enum_field_value" : 0,
     "name" : "EX_NONE"
    },
    {
     "enum_field_value" : -1,
     "name" : "EX_SECURITY"
    },
    {
     "enum_field_value" : -2,
     "name" : "EX_BAD_PARCELABLE"
    },
    {
     "enum_field_value" : -3,
     "name" : "EX_ILLEGAL_ARGUMENT"
    },
    {
     "enum_field_value" : -4,
     "name" : "EX_NULL_POINTER"
    },
    {
     "enum_field_value" : -5,
     "name" : "EX_ILLEGAL_STATE"
    },
    {
     "enum_field_value" : -6,
     "name" : "EX_NETWORK_MAIN_THREAD"
    },
    {
     "enum_field_value" : -7,
     "name" : "EX_UNSUPPORTED_OPERATION"
    },
    {
     "enum_field_value" : -8,
     "name" : "EX_SERVICE_SPECIFIC"
    },
    {
     "enum_field_value" : -9,
     "name" : "EX_PARCELABLE"
    },
    {
     "enum_field_value" : -129,
     "name" : "EX_TRANSACTION_FAILED"
    }
   ],
   "linker_set_key" : "_ZTI18$EX_BAD_PARCELABLE",
   "name" : "(anonymous enum at frameworks/native/libs/binder/ndk/include_ndk/android/binder_status.h:65:1)",
   "referenced_type" : "_ZTI18$EX_BAD_PARCELABLE",
   "self_type" : "_ZTI18$EX_BAD_PARCELABLE",
   "size" : 4,
   "source_file" : "/frameworks/native/libs/binder/ndk/include_ndk/android/binder_status.h",
   "underlying_type" : "_ZTIi"
  },
  {
   "alignment" : 4,
   "enum_fields" :
   [
    {
     "enum_field_value" : 1,
     "name" : "EVENT_PROVISION_REQUIRED"
    },
    {
     "enum_field_value" : 2,
     "name" : "EVENT_KEY_REQUIRED"
    },
    {
     "enum_field_value" : 3,
     "name" : "EVENT_KEY_EXPIRED"
    },
    {
     "enum_field_value" : 4,
     "name" : "EVENT_VENDOR_DEFINED"
    },
    {
     "enum_field_value" : 5,
     "name" : "EVENT_SESSION_RECLAIMED"
    }
   ],
   "linker_set_key" : "_ZTI18AMediaDrmEventType",
   "name" : "AMediaDrmEventType",
   "referenced_type" : "_ZTI18AMediaDrmEventType",
   "self_type" : "_ZTI18AMediaDrmEventType",
   "size" : 4,
   "source_file" : "/frameworks/av/media/ndk/include/media/NdkMediaDrm.h",
   "underlying_type" : "_ZTIj"
  },
  {
   "alignment" : 4,
   "enum_fields" :
   [
    {
     "enum_field_value" : 3,
     "name" : "ANATIVEWINDOW_QUERY_MIN_UNDEQUEUED_BUFFERS"
    },
    {
     "enum_field_value" : 6,
     "name" : "ANATIVEWINDOW_QUERY_DEFAULT_WIDTH"
    },
    {
     "enum_field_value" : 7,
     "name" : "ANATIVEWINDOW_QUERY_DEFAULT_HEIGHT"
    },
    {
     "enum_field_value" : 8,
     "name" : "ANATIVEWINDOW_QUERY_TRANSFORM_HINT"
    },
    {
     "enum_field_value" : 13,
     "name" : "ANATIVEWINDOW_QUERY_BUFFER_AGE"
    },
    {
     "enum_field_value" : 65536,
     "name" : "ANATIVEWINDOW_QUERY_MIN_SWAP_INTERVAL"
    },
    {
     "enum_field_value" : 65537,
     "name" : "ANATIVEWINDOW_QUERY_MAX_SWAP_INTERVAL"
    },
    {
     "enum_field_value" : 65538,
     "name" : "ANATIVEWINDOW_QUERY_XDPI"
    },
    {
     "enum_field_value" : 65539,
     "name" : "ANATIVEWINDOW_QUERY_YDPI"
    }
   ],
   "linker_set_key" : "_ZTI18ANativeWindowQuery",
   "name" : "ANativeWindowQuery",
   "referenced_type" : "_ZTI18ANativeWindowQuery",
   "self_type" : "_ZTI18ANativeWindowQuery",
   "size" : 4,
   "source_file" : "/frameworks/native/libs/nativewindow/include/vndk/window.h",
   "underlying_type" : "_ZTIj"
  },
  {
   "alignment" : 4,
   "enum_fields" :
   [
    {
     "enum_field_value" : 4,
     "name" : "HAL_HDR_HDR10_PLUS"
    }
   ],
   "linker_set_key" : "_ZTI18android_hdr_v1_2_t",
   "name" : "android_hdr_v1_2_t",
   "referenced_type" : "_ZTI18android_hdr_v1_2_t",
   "self_type" : "_ZTI18android_hdr_v1_2_t",
   "size" : 4,
   "source_file" : "/system/core/libsystem/include/system/graphics-base-v1.2.h",
   "underlying_type" : "_ZTIj"
  },
  {
   "alignment" : 4,
   "enum_fields" :
   [
    {
     "enum_field_value" : 0,
     "name" : "CAMERA_FACING_BACK"
    },
    {
     "enum_field_value" : 1,
     "name" : "CAMERA_FACING_FRONT"
    },
    {
     "enum_field_value" : 2,
     "name" : "CAMERA_FACING_EXTERNAL"
    }
   ],
   "linker_set_key" : "_ZTI19$CAMERA_FACING_BACK",
   "name" : "(anonymous enum at system/core/libsystem/include/system/camera.h:218:1)",
   "referenced_type" : "_ZTI19$CAMERA_FACING_BACK",
   "self_type" : "_ZTI19$CAMERA_FACING_BACK",
   "size" : 4,
   "source_file" : "/system/core/libsystem/include/system/camera.h",
   "underlying_type" : "_ZTIj"
  },
  {
   "alignment" : 4,
   "enum_fields" :
   [
    {
     "enum_field_value" : 0,
     "name" : "KEY_STATUS_TYPE_USABLE"
    },
    {
     "enum_field_value" : 1,
     "name" : "KEY_STATUS_TYPE_EXPIRED"
    },
    {
     "enum_field_value" : 2,
     "name" : "KEY_STATUS_TYPE_OUTPUTNOTALLOWED"
    },
    {
     "enum_field_value" : 3,
     "name" : "KEY_STATUS_TYPE_STATUSPENDING"
    },
    {
     "enum_field_value" : 4,
     "name" : "KEY_STATUS_TYPE_INTERNALERROR"
    }
   ],
   "linker_set_key" : "_ZTI19AMediaKeyStatusType",
   "name" : "AMediaKeyStatusType",
   "referenced_type" : "_ZTI19AMediaKeyStatusType",
   "self_type" : "_ZTI19AMediaKeyStatusType",
   "size" : 4,
   "source_file" : "/frameworks/av/media/ndk/include/media/NdkMediaDrm.h",
   "underlying_type" : "_ZTIj"
  },
  {
   "alignment" : 4,
   "enum_fields" :
   [
    {
     "enum_field_value" : 10,
     "name" : "EVENT_TYPE_LIST_STOP"
    },
    {
     "enum_field_value" : 63,
     "name" : "EVENT_TYPE_UNKNOWN"
    },
    {
     "enum_field_value" : 0,
     "name" : "EVENT_TYPE_INT"
    },
    {
     "enum_field_value" : 1,
     "name" : "EVENT_TYPE_LONG"
    },
    {
     "enum_field_value" : 2,
     "name" : "EVENT_TYPE_STRING"
    },
    {
     "enum_field_value" : 3,
     "name" : "EVENT_TYPE_LIST"
    },
    {
     "enum_field_value" : 4,
     "name" : "EVENT_TYPE_FLOAT"
    }
   ],
   "linker_set_key" : "_ZTI19AndroidEventLogType",
   "name" : "AndroidEventLogType",
   "referenced_type" : "_ZTI19AndroidEventLogType",
   "self_type" : "_ZTI19AndroidEventLogType",
   "size" : 4,
   "source_file" : "/system/core/liblog/include/log/log.h",
   "underlying_type" : "_ZTIj"
  },
  {
   "alignment" : 4,
   "enum_fields" :
   [
    {
     "enum_field_value" : 0,
     "name" : "ANDROID_LOG_UNKNOWN"
    },
    {
     "enum_field_value" : 1,
     "name" : "ANDROID_LOG_DEFAULT"
    },
    {
     "enum_field_value" : 2,
     "name" : "ANDROID_LOG_VERBOSE"
    },
    {
     "enum_field_value" : 3,
     "name" : "ANDROID_LOG_DEBUG"
    },
    {
     "enum_field_value" : 4,
     "name" : "ANDROID_LOG_INFO"
    },
    {
     "enum_field_value" : 5,
     "name" : "ANDROID_LOG_WARN"
    },
    {
     "enum_field_value" : 6,
     "name" : "ANDROID_LOG_ERROR"
    },
    {
     "enum_field_value" : 7,
     "name" : "ANDROID_LOG_FATAL"
    },
    {
     "enum_field_value" : 8,
     "name" : "ANDROID_LOG_SILENT"
    }
   ],
   "linker_set_key" : "_ZTI19android_LogPriority",
   "name" : "android_LogPriority",
   "referenced_type" : "_ZTI19android_LogPriority",
   "self_type" : "_ZTI19android_LogPriority",
   "size" : 4,
   "source_file" : "/system/core/liblog/include/android/log.h",
   "underlying_type" : "_ZTIj"
  },
  {
   "alignment" : 4,
   "enum_fields" :
   [
    {
     "enum_field_value" : 0,
     "name" : "HAL_DATASPACE_UNKNOWN"
    },
    {
     "enum_field_value" : 1,
     "name" : "HAL_DATASPACE_ARBITRARY"
    },
    {
     "enum_field_value" : 16,
     "name" : "HAL_DATASPACE_STANDARD_SHIFT"
    },
    {
     "enum_field_value" : 4128768,
     "name" : "HAL_DATASPACE_STANDARD_MASK"
    },
    {
     "enum_field_value" : 0,
     "name" : "HAL_DATASPACE_STANDARD_UNSPECIFIED"
    },
    {
     "enum_field_value" : 65536,
     "name" : "HAL_DATASPACE_STANDARD_BT709"
    },
    {
     "enum_field_value" : 131072,
     "name" : "HAL_DATASPACE_STANDARD_BT601_625"
    },
    {
     "enum_field_value" : 196608,
     "name" : "HAL_DATASPACE_STANDARD_BT601_625_UNADJUSTED"
    },
    {
     "enum_field_value" : 262144,
     "name" : "HAL_DATASPACE_STANDARD_BT601_525"
    },
    {
     "enum_field_value" : 327680,
     "name" : "HAL_DATASPACE_STANDARD_BT601_525_UNADJUSTED"
    },
    {
     "enum_field_value" : 393216,
     "name" : "HAL_DATASPACE_STANDARD_BT2020"
    },
    {
     "enum_field_value" : 458752,
     "name" : "HAL_DATASPACE_STANDARD_BT2020_CONSTANT_LUMINANCE"
    },
    {
     "enum_field_value" : 524288,
     "name" : "HAL_DATASPACE_STANDARD_BT470M"
    },
    {
     "enum_field_value" : 589824,
     "name" : "HAL_DATASPACE_STANDARD_FILM"
    },
    {
     "enum_field_value" : 655360,
     "name" : "HAL_DATASPACE_STANDARD_DCI_P3"
    },
    {
     "enum_field_value" : 720896,
     "name" : "HAL_DATASPACE_STANDARD_ADOBE_RGB"
    },
    {
     "enum_field_value" : 22,
     "name" : "HAL_DATASPACE_TRANSFER_SHIFT"
    },
    {
     "enum_field_value" : 130023424,
     "name" : "HAL_DATASPACE_TRANSFER_MASK"
    },
    {
     "enum_field_value" : 0,
     "name" : "HAL_DATASPACE_TRANSFER_UNSPECIFIED"
    },
    {
     "enum_field_value" : 4194304,
     "name" : "HAL_DATASPACE_TRANSFER_LINEAR"
    },
    {
     "enum_field_value" : 8388608,
     "name" : "HAL_DATASPACE_TRANSFER_SRGB"
    },
    {
     "enum_field_value" : 12582912,
     "name" : "HAL_DATASPACE_TRANSFER_SMPTE_170M"
    },
    {
     "enum_field_value" : 16777216,
     "name" : "HAL_DATASPACE_TRANSFER_GAMMA2_2"
    },
    {
     "enum_field_value" : 20971520,
     "name" : "HAL_DATASPACE_TRANSFER_GAMMA2_6"
    },
    {
     "enum_field_value" : 25165824,
     "name" : "HAL_DATASPACE_TRANSFER_GAMMA2_8"
    },
    {
     "enum_field_value" : 29360128,
     "name" : "HAL_DATASPACE_TRANSFER_ST2084"
    },
    {
     "enum_field_value" : 33554432,
     "name" : "HAL_DATASPACE_TRANSFER_HLG"
    },
    {
     "enum_field_value" : 27,
     "name" : "HAL_DATASPACE_RANGE_SHIFT"
    },
    {
     "enum_field_value" : 939524096,
     "name" : "HAL_DATASPACE_RANGE_MASK"
    },
    {
     "enum_field_value" : 0,
     "name" : "HAL_DATASPACE_RANGE_UNSPECIFIED"
    },
    {
     "enum_field_value" : 134217728,
     "name" : "HAL_DATASPACE_RANGE_FULL"
    },
    {
     "enum_field_value" : 268435456,
     "name" : "HAL_DATASPACE_RANGE_LIMITED"
    },
    {
     "enum_field_value" : 402653184,
     "name" : "HAL_DATASPACE_RANGE_EXTENDED"
    },
    {
     "enum_field_value" : 512,
     "name" : "HAL_DATASPACE_SRGB_LINEAR"
    },
    {
     "enum_field_value" : 138477568,
     "name" : "HAL_DATASPACE_V0_SRGB_LINEAR"
    },
    {
     "enum_field_value" : 406913024,
     "name" : "HAL_DATASPACE_V0_SCRGB_LINEAR"
    },
    {
     "enum_field_value" : 513,
     "name" : "HAL_DATASPACE_SRGB"
    },
    {
     "enum_field_value" : 142671872,
     "name" : "HAL_DATASPACE_V0_SRGB"
    },
    {
     "enum_field_value" : 411107328,
     "name" : "HAL_DATASPACE_V0_SCRGB"
    },
    {
     "enum_field_value" : 257,
     "name" : "HAL_DATASPACE_JFIF"
    },
    {
     "enum_field_value" : 146931712,
     "name" : "HAL_DATASPACE_V0_JFIF"
    },
    {
     "enum_field_value" : 258,
     "name" : "HAL_DATASPACE_BT601_625"
    },
    {
     "enum_field_value" : 281149440,
     "name" : "HAL_DATASPACE_V0_BT601_625"
    },
    {
     "enum_field_value" : 259,
     "name" : "HAL_DATASPACE_BT601_525"
    },
    {
     "enum_field_value" : 281280512,
     "name" : "HAL_DATASPACE_V0_BT601_525"
    },
    {
     "enum_field_value" : 260,
     "name" : "HAL_DATASPACE_BT709"
    },
    {
     "enum_field_value" : 281083904,
     "name" : "HAL_DATASPACE_V0_BT709"
    },
    {
     "enum_field_value" : 139067392,
     "name" : "HAL_DATASPACE_DCI_P3_LINEAR"
    },
    {
     "enum_field_value" : 155844608,
     "name" : "HAL_DATASPACE_DCI_P3"
    },
    {
     "enum_field_value" : 139067392,
     "name" : "HAL_DATASPACE_DISPLAY_P3_LINEAR"
    },
    {
     "enum_field_value" : 143261696,
     "name" : "HAL_DATASPACE_DISPLAY_P3"
    },
    {
     "enum_field_value" : 151715840,
     "name" : "HAL_DATASPACE_ADOBE_RGB"
    },
    {
     "enum_field_value" : 138805248,
     "name" : "HAL_DATASPACE_BT2020_LINEAR"
    },
    {
     "enum_field_value" : 147193856,
     "name" : "HAL_DATASPACE_BT2020"
    },
    {
     "enum_field_value" : 163971072,
     "name" : "HAL_DATASPACE_BT2020_PQ"
    },
    {
     "enum_field_value" : 4096,
     "name" : "HAL_DATASPACE_DEPTH"
    },
    {
     "enum_field_value" : 4097,
     "name" : "HAL_DATASPACE_SENSOR"
    }
   ],
   "linker_set_key" : "_ZTI19android_dataspace_t",
   "name" : "android_dataspace_t",
   "referenced_type" : "_ZTI19android_dataspace_t",
   "self_type" : "_ZTI19android_dataspace_t",
   "size" : 4,
   "source_file" : "/system/core/libsystem/include/system/graphics-base-v1.0.h",
   "underlying_type" : "_ZTIj"
  },
  {
   "alignment" : 4,
   "enum_fields" :
   [
    {
     "enum_field_value" : 0,
     "name" : "FLEX_FORMAT_INVALID"
    },
    {
     "enum_field_value" : 1,
     "name" : "FLEX_FORMAT_Y"
    },
    {
     "enum_field_value" : 7,
     "name" : "FLEX_FORMAT_YCbCr"
    },
    {
     "enum_field_value" : 1073741831,
     "name" : "FLEX_FORMAT_YCbCrA"
    },
    {
     "enum_field_value" : 7168,
     "name" : "FLEX_FORMAT_RGB"
    },
    {
     "enum_field_value" : 1073748992,
     "name" : "FLEX_FORMAT_RGBA"
    }
   ],
   "linker_set_key" : "_ZTI19android_flex_format",
   "name" : "android_flex_format",
   "referenced_type" : "_ZTI19android_flex_format",
   "self_type" : "_ZTI19android_flex_format",
   "size" : 4,
   "source_file" : "/system/core/libsystem/include/system/graphics.h",
   "underlying_type" : "_ZTIj"
  },
  {
   "alignment" : 4,
   "enum_fields" :
   [
    {
     "enum_field_value" : 1,
     "name" : "HAL_TRANSFORM_FLIP_H"
    },
    {
     "enum_field_value" : 2,
     "name" : "HAL_TRANSFORM_FLIP_V"
    },
    {
     "enum_field_value" : 4,
     "name" : "HAL_TRANSFORM_ROT_90"
    },
    {
     "enum_field_value" : 3,
     "name" : "HAL_TRANSFORM_ROT_180"
    },
    {
     "enum_field_value" : 7,
     "name" : "HAL_TRANSFORM_ROT_270"
    }
   ],
   "linker_set_key" : "_ZTI19android_transform_t",
   "name" : "android_transform_t",
   "referenced_type" : "_ZTI19android_transform_t",
   "self_type" : "_ZTI19android_transform_t",
   "size" : 4,
   "source_file" : "/system/core/libsystem/include/system/graphics-base-v1.0.h",
   "underlying_type" : "_ZTIj"
  },
  {
   "alignment" : 4,
   "enum_fields" :
   [
    {
     "enum_field_value" : 0,
     "name" : "AUDIO_INPUT_FLAG_NONE"
    },
    {
     "enum_field_value" : 1,
     "name" : "AUDIO_INPUT_FLAG_FAST"
    },
    {
     "enum_field_value" : 2,
     "name" : "AUDIO_INPUT_FLAG_HW_HOTWORD"
    },
    {
     "enum_field_value" : 4,
     "name" : "AUDIO_INPUT_FLAG_RAW"
    },
    {
     "enum_field_value" : 8,
     "name" : "AUDIO_INPUT_FLAG_SYNC"
    },
    {
     "enum_field_value" : 16,
     "name" : "AUDIO_INPUT_FLAG_MMAP_NOIRQ"
    },
    {
     "enum_field_value" : 32,
     "name" : "AUDIO_INPUT_FLAG_VOIP_TX"
    },
    {
     "enum_field_value" : 64,
     "name" : "AUDIO_INPUT_FLAG_HW_AV_SYNC"
    },
    {
     "enum_field_value" : 128,
     "name" : "AUDIO_INPUT_FLAG_DIRECT"
    }
   ],
   "linker_set_key" : "_ZTI19audio_input_flags_t",
   "name" : "audio_input_flags_t",
   "referenced_type" : "_ZTI19audio_input_flags_t",
   "self_type" : "_ZTI19audio_input_flags_t",
   "size" : 4,
   "source_file" : "/system/media/audio/include/system/audio-base.h",
   "underlying_type" : "_ZTIj"
  },
  {
   "alignment" : 4,
   "enum_fields" :
   [
    {
     "enum_field_value" : -1,
     "name" : "AUDIO_STREAM_DEFAULT"
    },
    {
     "enum_field_value" : 0,
     "name" : "AUDIO_STREAM_MIN"
    },
    {
     "enum_field_value" : 0,
     "name" : "AUDIO_STREAM_VOICE_CALL"
    },
    {
     "enum_field_value" : 1,
     "name" : "AUDIO_STREAM_SYSTEM"
    },
    {
     "enum_field_value" : 2,
     "name" : "AUDIO_STREAM_RING"
    },
    {
     "enum_field_value" : 3,
     "name" : "AUDIO_STREAM_MUSIC"
    },
    {
     "enum_field_value" : 4,
     "name" : "AUDIO_STREAM_ALARM"
    },
    {
     "enum_field_value" : 5,
     "name" : "AUDIO_STREAM_NOTIFICATION"
    },
    {
     "enum_field_value" : 6,
     "name" : "AUDIO_STREAM_BLUETOOTH_SCO"
    },
    {
     "enum_field_value" : 7,
     "name" : "AUDIO_STREAM_ENFORCED_AUDIBLE"
    },
    {
     "enum_field_value" : 8,
     "name" : "AUDIO_STREAM_DTMF"
    },
    {
     "enum_field_value" : 9,
     "name" : "AUDIO_STREAM_TTS"
    },
    {
     "enum_field_value" : 10,
     "name" : "AUDIO_STREAM_ACCESSIBILITY"
    },
    {
     "enum_field_value" : 11,
     "name" : "AUDIO_STREAM_ASSISTANT"
    },
    {
     "enum_field_value" : 12,
     "name" : "AUDIO_STREAM_REROUTING"
    },
    {
     "enum_field_value" : 13,
     "name" : "AUDIO_STREAM_PATCH"
    },
    {
     "enum_field_value" : 14,
     "name" : "AUDIO_STREAM_CALL_ASSISTANT"
    }
   ],
   "linker_set_key" : "_ZTI19audio_stream_type_t",
   "name" : "audio_stream_type_t",
   "referenced_type" : "_ZTI19audio_stream_type_t",
   "self_type" : "_ZTI19audio_stream_type_t",
   "size" : 4,
   "source_file" : "/system/media/audio/include/system/audio-base.h",
   "underlying_type" : "_ZTIi"
  },
  {
   "alignment" : 4,
   "enum_fields" :
   [
    {
     "enum_field_value" : 0,
     "name" : "CAMERA3_STREAM_OUTPUT"
    },
    {
     "enum_field_value" : 1,
     "name" : "CAMERA3_STREAM_INPUT"
    },
    {
     "enum_field_value" : 2,
     "name" : "CAMERA3_STREAM_BIDIRECTIONAL"
    },
    {
     "enum_field_value" : 3,
     "name" : "CAMERA3_NUM_STREAM_TYPES"
    }
   ],
   "linker_set_key" : "_ZTI19camera3_stream_type",
   "name" : "camera3_stream_type",
   "referenced_type" : "_ZTI19camera3_stream_type",
   "self_type" : "_ZTI19camera3_stream_type",
   "size" : 4,
   "source_file" : "/hardware/libhardware/include/hardware/camera3.h",
   "underlying_type" : "_ZTIj"
  },
  {
   "alignment" : 4,
   "enum_fields" :
   [
    {
     "enum_field_value" : 1,
     "name" : "CAMERA_MSG_ERROR"
    },
    {
     "enum_field_value" : 2,
     "name" : "CAMERA_MSG_SHUTTER"
    },
    {
     "enum_field_value" : 4,
     "name" : "CAMERA_MSG_FOCUS"
    },
    {
     "enum_field_value" : 8,
     "name" : "CAMERA_MSG_ZOOM"
    },
    {
     "enum_field_value" : 16,
     "name" : "CAMERA_MSG_PREVIEW_FRAME"
    },
    {
     "enum_field_value" : 32,
     "name" : "CAMERA_MSG_VIDEO_FRAME"
    },
    {
     "enum_field_value" : 64,
     "name" : "CAMERA_MSG_POSTVIEW_FRAME"
    },
    {
     "enum_field_value" : 128,
     "name" : "CAMERA_MSG_RAW_IMAGE"
    },
    {
     "enum_field_value" : 256,
     "name" : "CAMERA_MSG_COMPRESSED_IMAGE"
    },
    {
     "enum_field_value" : 512,
     "name" : "CAMERA_MSG_RAW_IMAGE_NOTIFY"
    },
    {
     "enum_field_value" : 1024,
     "name" : "CAMERA_MSG_PREVIEW_METADATA"
    },
    {
     "enum_field_value" : 2048,
     "name" : "CAMERA_MSG_FOCUS_MOVE"
    },
    {
     "enum_field_value" : 65535,
     "name" : "CAMERA_MSG_ALL_MSGS"
    }
   ],
   "linker_set_key" : "_ZTI20$CAMERA_MSG_ALL_MSGS",
   "name" : "(anonymous enum at system/core/libsystem/include/system/camera.h:72:1)",
   "referenced_type" : "_ZTI20$CAMERA_MSG_ALL_MSGS",
   "self_type" : "_ZTI20$CAMERA_MSG_ALL_MSGS",
   "size" : 4,
   "source_file" : "/system/core/libsystem/include/system/camera.h",
   "underlying_type" : "_ZTIj"
  },
  {
   "alignment" : 4,
   "enum_fields" :
   [
    {
     "enum_field_value" : 0,
     "name" : "ANATIVEWINDOW_PERFORM_SET_USAGE"
    },
    {
     "enum_field_value" : 5,
     "name" : "ANATIVEWINDOW_PERFORM_SET_BUFFERS_GEOMETRY"
    },
    {
     "enum_field_value" : 9,
     "name" : "ANATIVEWINDOW_PERFORM_SET_BUFFERS_FORMAT"
    },
    {
     "enum_field_value" : 30,
     "name" : "ANATIVEWINDOW_PERFORM_SET_USAGE64"
    }
   ],
   "linker_set_key" : "_ZTI20ANativeWindowPerform",
   "name" : "ANativeWindowPerform",
   "referenced_type" : "_ZTI20ANativeWindowPerform",
   "self_type" : "_ZTI20ANativeWindowPerform",
   "size" : 4,
   "source_file" : "/frameworks/native/libs/nativewindow/include/apex/window.h",
   "underlying_type" : "_ZTIj"
  },
  {
   "alignment" : 4,
   "enum_fields" :
   [
    {
     "enum_field_value" : 0,
     "name" : "HAL_COLOR_MODE_NATIVE"
    },
    {
     "enum_field_value" : 1,
     "name" : "HAL_COLOR_MODE_STANDARD_BT601_625"
    },
    {
     "enum_field_value" : 2,
     "name" : "HAL_COLOR_MODE_STANDARD_BT601_625_UNADJUSTED"
    },
    {
     "enum_field_value" : 3,
     "name" : "HAL_COLOR_MODE_STANDARD_BT601_525"
    },
    {
     "enum_field_value" : 4,
     "name" : "HAL_COLOR_MODE_STANDARD_BT601_525_UNADJUSTED"
    },
    {
     "enum_field_value" : 5,
     "name" : "HAL_COLOR_MODE_STANDARD_BT709"
    },
    {
     "enum_field_value" : 6,
     "name" : "HAL_COLOR_MODE_DCI_P3"
    },
    {
     "enum_field_value" : 7,
     "name" : "HAL_COLOR_MODE_SRGB"
    },
    {
     "enum_field_value" : 8,
     "name" : "HAL_COLOR_MODE_ADOBE_RGB"
    },
    {
     "enum_field_value" : 9,
     "name" : "HAL_COLOR_MODE_DISPLAY_P3"
    }
   ],
   "linker_set_key" : "_ZTI20android_color_mode_t",
   "name" : "android_color_mode_t",
   "referenced_type" : "_ZTI20android_color_mode_t",
   "self_type" : "_ZTI20android_color_mode_t",
   "size" : 4,
   "source_file" : "/system/core/libsystem/include/system/graphics-base-v1.0.h",
   "underlying_type" : "_ZTIj"
  },
  {
   "alignment" : 4,
   "enum_fields" :
   [
    {
     "enum_field_value" : 0,
     "name" : "AUDIO_CONTENT_TYPE_UNKNOWN"
    },
    {
     "enum_field_value" : 1,
     "name" : "AUDIO_CONTENT_TYPE_SPEECH"
    },
    {
     "enum_field_value" : 2,
     "name" : "AUDIO_CONTENT_TYPE_MUSIC"
    },
    {
     "enum_field_value" : 3,
     "name" : "AUDIO_CONTENT_TYPE_MOVIE"
    },
    {
     "enum_field_value" : 4,
     "name" : "AUDIO_CONTENT_TYPE_SONIFICATION"
    }
   ],
   "linker_set_key" : "_ZTI20audio_content_type_t",
   "name" : "audio_content_type_t",
   "referenced_type" : "_ZTI20audio_content_type_t",
   "self_type" : "_ZTI20audio_content_type_t",
   "size" : 4,
   "source_file" : "/system/media/audio/include/system/audio-base.h",
   "underlying_type" : "_ZTIj"
  },
  {
   "alignment" : 4,
   "enum_fields" :
   [
    {
     "enum_field_value" : 0,
     "name" : "AUDIO_IN_ACOUSTICS_NONE"
    },
    {
     "enum_field_value" : 1,
     "name" : "AUDIO_IN_ACOUSTICS_AGC_ENABLE"
    },
    {
     "enum_field_value" : 0,
     "name" : "AUDIO_IN_ACOUSTICS_AGC_DISABLE"
    },
    {
     "enum_field_value" : 2,
     "name" : "AUDIO_IN_ACOUSTICS_NS_ENABLE"
    },
    {
     "enum_field_value" : 0,
     "name" : "AUDIO_IN_ACOUSTICS_NS_DISABLE"
    },
    {
     "enum_field_value" : 4,
     "name" : "AUDIO_IN_ACOUSTICS_TX_IIR_ENABLE"
    },
    {
     "enum_field_value" : 0,
     "name" : "AUDIO_IN_ACOUSTICS_TX_DISABLE"
    }
   ],
   "linker_set_key" : "_ZTI20audio_in_acoustics_t",
   "name" : "audio_in_acoustics_t",
   "referenced_type" : "_ZTI20audio_in_acoustics_t",
   "self_type" : "_ZTI20audio_in_acoustics_t",
   "size" : 4,
   "source_file" : "/system/media/audio/include/system/audio.h",
   "underlying_type" : "_ZTIj"
  },
  {
   "alignment" : 4,
   "enum_fields" :
   [
    {
     "enum_field_value" : 0,
     "name" : "AUDIO_OUTPUT_FLAG_NONE"
    },
    {
     "enum_field_value" : 1,
     "name" : "AUDIO_OUTPUT_FLAG_DIRECT"
    },
    {
     "enum_field_value" : 2,
     "name" : "AUDIO_OUTPUT_FLAG_PRIMARY"
    },
    {
     "enum_field_value" : 4,
     "name" : "AUDIO_OUTPUT_FLAG_FAST"
    },
    {
     "enum_field_value" : 8,
     "name" : "AUDIO_OUTPUT_FLAG_DEEP_BUFFER"
    },
    {
     "enum_field_value" : 16,
     "name" : "AUDIO_OUTPUT_FLAG_COMPRESS_OFFLOAD"
    },
    {
     "enum_field_value" : 32,
     "name" : "AUDIO_OUTPUT_FLAG_NON_BLOCKING"
    },
    {
     "enum_field_value" : 64,
     "name" : "AUDIO_OUTPUT_FLAG_HW_AV_SYNC"
    },
    {
     "enum_field_value" : 128,
     "name" : "AUDIO_OUTPUT_FLAG_TTS"
    },
    {
     "enum_field_value" : 256,
     "name" : "AUDIO_OUTPUT_FLAG_RAW"
    },
    {
     "enum_field_value" : 512,
     "name" : "AUDIO_OUTPUT_FLAG_SYNC"
    },
    {
     "enum_field_value" : 1024,
     "name" : "AUDIO_OUTPUT_FLAG_IEC958_NONAUDIO"
    },
    {
     "enum_field_value" : 8192,
     "name" : "AUDIO_OUTPUT_FLAG_DIRECT_PCM"
    },
    {
     "enum_field_value" : 16384,
     "name" : "AUDIO_OUTPUT_FLAG_MMAP_NOIRQ"
    },
    {
     "enum_field_value" : 32768,
     "name" : "AUDIO_OUTPUT_FLAG_VOIP_RX"
    },
    {
     "enum_field_value" : 65536,
     "name" : "AUDIO_OUTPUT_FLAG_INCALL_MUSIC"
    }
   ],
   "linker_set_key" : "_ZTI20audio_output_flags_t",
   "name" : "audio_output_flags_t",
   "referenced_type" : "_ZTI20audio_output_flags_t",
   "self_type" : "_ZTI20audio_output_flags_t",
   "size" : 4,
   "source_file" : "/system/media/audio/include/system/audio-base.h",
   "underlying_type" : "_ZTIj"
  },
  {
   "alignment" : 4,
   "enum_fields" :
   [
    {
     "enum_field_value" : 0,
     "name" : "CAMERA_DEVICE_STATUS_NOT_PRESENT"
    },
    {
     "enum_field_value" : 1,
     "name" : "CAMERA_DEVICE_STATUS_PRESENT"
    },
    {
     "enum_field_value" : 2,
     "name" : "CAMERA_DEVICE_STATUS_ENUMERATING"
    }
   ],
   "linker_set_key" : "_ZTI20camera_device_status",
   "name" : "camera_device_status",
   "referenced_type" : "_ZTI20camera_device_status",
   "self_type" : "_ZTI20camera_device_status",
   "size" : 4,
   "source_file" : "/hardware/libhardware/include/hardware/camera_common.h",
   "underlying_type" : "_ZTIj"
  },
  {
   "alignment" : 4,
   "enum_fields" :
   [
    {
     "enum_field_value" : 0,
     "name" : "AUDIO_IO_HANDLE_NONE"
    },
    {
     "enum_field_value" : 0,
     "name" : "AUDIO_MODULE_HANDLE_NONE"
    },
    {
     "enum_field_value" : 0,
     "name" : "AUDIO_PORT_HANDLE_NONE"
    },
    {
     "enum_field_value" : 0,
     "name" : "AUDIO_PATCH_HANDLE_NONE"
    }
   ],
   "linker_set_key" : "_ZTI21$AUDIO_IO_HANDLE_NONE",
   "name" : "(anonymous enum at system/media/audio/include/system/audio-base.h:13:1)",
   "referenced_type" : "_ZTI21$AUDIO_IO_HANDLE_NONE",
   "self_type" : "_ZTI21$AUDIO_IO_HANDLE_NONE",
   "size" : 4,
   "source_file" : "/system/media/audio/include/system/audio-base.h",
   "underlying_type" : "_ZTIj"
  },
  {
   "alignment" : 4,
   "enum_fields" :
   [
    {
     "enum_field_value" : 0,
     "name" : "SYSTEM_TIME_REALTIME"
    },
    {
     "enum_field_value" : 1,
     "name" : "SYSTEM_TIME_MONOTONIC"
    },
    {
     "enum_field_value" : 2,
     "name" : "SYSTEM_TIME_PROCESS"
    },
    {
     "enum_field_value" : 3,
     "name" : "SYSTEM_TIME_THREAD"
    },
    {
     "enum_field_value" : 4,
     "name" : "SYSTEM_TIME_BOOTTIME"
    }
   ],
   "linker_set_key" : "_ZTI21$SYSTEM_TIME_BOOTTIME",
   "name" : "(anonymous enum at system/core/libutils/include/utils/Timers.h:79:1)",
   "referenced_type" : "_ZTI21$SYSTEM_TIME_BOOTTIME",
   "self_type" : "_ZTI21$SYSTEM_TIME_BOOTTIME",
   "size" : 4,
   "source_file" : "/system/core/libutils/include/utils/Timers.h",
   "underlying_type" : "_ZTIj"
  },
  {
   "alignment" : 4,
   "enum_fields" :
   [
    {
     "enum_field_value" : 0,
     "name" : "AUDIO_UNIQUE_ID_USE_UNSPECIFIED"
    },
    {
     "enum_field_value" : 1,
     "name" : "AUDIO_UNIQUE_ID_USE_SESSION"
    },
    {
     "enum_field_value" : 2,
     "name" : "AUDIO_UNIQUE_ID_USE_MODULE"
    },
    {
     "enum_field_value" : 3,
     "name" : "AUDIO_UNIQUE_ID_USE_EFFECT"
    },
    {
     "enum_field_value" : 4,
     "name" : "AUDIO_UNIQUE_ID_USE_PATCH"
    },
    {
     "enum_field_value" : 5,
     "name" : "AUDIO_UNIQUE_ID_USE_OUTPUT"
    },
    {
     "enum_field_value" : 6,
     "name" : "AUDIO_UNIQUE_ID_USE_INPUT"
    },
    {
     "enum_field_value" : 7,
     "name" : "AUDIO_UNIQUE_ID_USE_CLIENT"
    },
    {
     "enum_field_value" : 8,
     "name" : "AUDIO_UNIQUE_ID_USE_MAX"
    },
    {
     "enum_field_value" : 7,
     "name" : "AUDIO_UNIQUE_ID_USE_MASK"
    }
   ],
   "linker_set_key" : "_ZTI21audio_unique_id_use_t",
   "name" : "audio_unique_id_use_t",
   "referenced_type" : "_ZTI21audio_unique_id_use_t",
   "self_type" : "_ZTI21audio_unique_id_use_t",
   "size" : 4,
   "source_file" : "/system/media/audio/include/system/audio.h",
   "underlying_type" : "_ZTIj"
  },
  {
   "alignment" : 4,
   "enum_fields" :
   [
    {
     "enum_field_value" : 0,
     "name" : "CAMERA3_BUFFER_STATUS_OK"
    },
    {
     "enum_field_value" : 1,
     "name" : "CAMERA3_BUFFER_STATUS_ERROR"
    }
   ],
   "linker_set_key" : "_ZTI21camera3_buffer_status",
   "name" : "camera3_buffer_status",
   "referenced_type" : "_ZTI21camera3_buffer_status",
   "self_type" : "_ZTI21camera3_buffer_status",
   "size" : 4,
   "source_file" : "/hardware/libhardware/include/hardware/camera3.h",
   "underlying_type" : "_ZTIj"
  },
  {
   "alignment" : 4,
   "enum_fields" :
   [
    {
     "enum_field_value" : 0,
     "name" : "AUDIO_INTERLEAVE_LEFT"
    },
    {
     "enum_field_value" : 1,
     "name" : "AUDIO_INTERLEAVE_RIGHT"
    }
   ],
   "linker_set_key" : "_ZTI22$AUDIO_INTERLEAVE_LEFT",
   "name" : "(anonymous enum at system/media/audio/include/system/audio.h:263:1)",
   "referenced_type" : "_ZTI22$AUDIO_INTERLEAVE_LEFT",
   "self_type" : "_ZTI22$AUDIO_INTERLEAVE_LEFT",
   "size" : 4,
   "source_file" : "/system/media/audio/include/system/audio.h",
   "underlying_type" : "_ZTIj"
  },
  {
   "alignment" : 4,
   "enum_fields" :
   [
    {
     "enum_field_value" : 1,
     "name" : "CAMERA_ERROR_UNKNOWN"
    },
    {
     "enum_field_value" : 2,
     "name" : "CAMERA_ERROR_RELEASED"
    },
    {
     "enum_field_value" : 3,
     "name" : "CAMERA_ERROR_DISABLED"
    },
    {
     "enum_field_value" : 100,
     "name" : "CAMERA_ERROR_SERVER_DIED"
    }
   ],
   "linker_set_key" : "_ZTI22$CAMERA_ERROR_DISABLED",
   "name" : "(anonymous enum at system/core/libsystem/include/system/camera.h:196:1)",
   "referenced_type" : "_ZTI22$CAMERA_ERROR_DISABLED",
   "self_type" : "_ZTI22$CAMERA_ERROR_DISABLED",
   "size" : 4,
   "source_file" : "/system/core/libsystem/include/system/camera.h",
   "underlying_type" : "_ZTIj"
  },
  {
   "alignment" : 4,
   "enum_fields" :
   [
    {
     "enum_field_value" : 0,
     "name" : "STATUS_OK"
    },
    {
     "enum_field_value" : -2147483648,
     "name" : "STATUS_UNKNOWN_ERROR"
    },
    {
     "enum_field_value" : -12,
     "name" : "STATUS_NO_MEMORY"
    },
    {
     "enum_field_value" : -38,
     "name" : "STATUS_INVALID_OPERATION"
    },
    {
     "enum_field_value" : -22,
     "name" : "STATUS_BAD_VALUE"
    },
    {
     "enum_field_value" : -2147483647,
     "name" : "STATUS_BAD_TYPE"
    },
    {
     "enum_field_value" : -2,
     "name" : "STATUS_NAME_NOT_FOUND"
    },
    {
     "enum_field_value" : -1,
     "name" : "STATUS_PERMISSION_DENIED"
    },
    {
     "enum_field_value" : -19,
     "name" : "STATUS_NO_INIT"
    },
    {
     "enum_field_value" : -17,
     "name" : "STATUS_ALREADY_EXISTS"
    },
    {
     "enum_field_value" : -32,
     "name" : "STATUS_DEAD_OBJECT"
    },
    {
     "enum_field_value" : -2147483646,
     "name" : "STATUS_FAILED_TRANSACTION"
    },
    {
     "enum_field_value" : -75,
     "name" : "STATUS_BAD_INDEX"
    },
    {
     "enum_field_value" : -61,
     "name" : "STATUS_NOT_ENOUGH_DATA"
    },
    {
     "enum_field_value" : -11,
     "name" : "STATUS_WOULD_BLOCK"
    },
    {
     "enum_field_value" : -110,
     "name" : "STATUS_TIMED_OUT"
    },
    {
     "enum_field_value" : -74,
     "name" : "STATUS_UNKNOWN_TRANSACTION"
    },
    {
     "enum_field_value" : -2147483641,
     "name" : "STATUS_FDS_NOT_ALLOWED"
    },
    {
     "enum_field_value" : -2147483640,
     "name" : "STATUS_UNEXPECTED_NULL"
    }
   ],
   "linker_set_key" : "_ZTI22$STATUS_ALREADY_EXISTS",
   "name" : "(anonymous enum at frameworks/native/libs/binder/ndk/include_ndk/android/binder_status.h:35:1)",
   "referenced_type" : "_ZTI22$STATUS_ALREADY_EXISTS",
   "self_type" : "_ZTI22$STATUS_ALREADY_EXISTS",
   "size" : 4,
   "source_file" : "/frameworks/native/libs/binder/ndk/include_ndk/android/binder_status.h",
   "underlying_type" : "_ZTIi"
  },
  {
   "alignment" : 4,
   "enum_fields" :
   [
    {
     "enum_field_value" : 1,
     "name" : "AHARDWAREBUFFER_FORMAT_R8G8B8A8_UNORM"
    },
    {
     "enum_field_value" : 2,
     "name" : "AHARDWAREBUFFER_FORMAT_R8G8B8X8_UNORM"
    },
    {
     "enum_field_value" : 3,
     "name" : "AHARDWAREBUFFER_FORMAT_R8G8B8_UNORM"
    },
    {
     "enum_field_value" : 4,
     "name" : "AHARDWAREBUFFER_FORMAT_R5G6B5_UNORM"
    },
    {
     "enum_field_value" : 22,
     "name" : "AHARDWAREBUFFER_FORMAT_R16G16B16A16_FLOAT"
    },
    {
     "enum_field_value" : 43,
     "name" : "AHARDWAREBUFFER_FORMAT_R10G10B10A2_UNORM"
    },
    {
     "enum_field_value" : 33,
     "name" : "AHARDWAREBUFFER_FORMAT_BLOB"
    },
    {
     "enum_field_value" : 48,
     "name" : "AHARDWAREBUFFER_FORMAT_D16_UNORM"
    },
    {
     "enum_field_value" : 49,
     "name" : "AHARDWAREBUFFER_FORMAT_D24_UNORM"
    },
    {
     "enum_field_value" : 50,
     "name" : "AHARDWAREBUFFER_FORMAT_D24_UNORM_S8_UINT"
    },
    {
     "enum_field_value" : 51,
     "name" : "AHARDWAREBUFFER_FORMAT_D32_FLOAT"
    },
    {
     "enum_field_value" : 52,
     "name" : "AHARDWAREBUFFER_FORMAT_D32_FLOAT_S8_UINT"
    },
    {
     "enum_field_value" : 53,
     "name" : "AHARDWAREBUFFER_FORMAT_S8_UINT"
    },
    {
     "enum_field_value" : 35,
     "name" : "AHARDWAREBUFFER_FORMAT_Y8Cb8Cr8_420"
    }
   ],
   "linker_set_key" : "_ZTI22AHardwareBuffer_Format",
   "name" : "AHardwareBuffer_Format",
   "referenced_type" : "_ZTI22AHardwareBuffer_Format",
   "self_type" : "_ZTI22AHardwareBuffer_Format",
   "size" : 4,
   "source_file" : "/frameworks/native/libs/nativewindow/include/android/hardware_buffer.h",
   "underlying_type" : "_ZTIj"
  },
  {
   "alignment" : 4,
   "enum_fields" :
   [
    {
     "enum_field_value" : 4098,
     "name" : "AIMAGE_FORMAT_RAW_DEPTH"
    }
   ],
   "linker_set_key" : "_ZTI22AIMAGE_PRIVATE_FORMATS",
   "name" : "AIMAGE_PRIVATE_FORMATS",
   "referenced_type" : "_ZTI22AIMAGE_PRIVATE_FORMATS",
   "self_type" : "_ZTI22AIMAGE_PRIVATE_FORMATS",
   "size" : 4,
   "source_file" : "/frameworks/av/media/ndk/include/private/media/NdkImage.h",
   "underlying_type" : "_ZTIj"
  },
  {
   "alignment" : 4,
   "enum_fields" :
   [
    {
     "enum_field_value" : 0,
     "name" : "ANATIVEWINDOW_TRANSFORM_IDENTITY"
    },
    {
     "enum_field_value" : 1,
     "name" : "ANATIVEWINDOW_TRANSFORM_MIRROR_HORIZONTAL"
    },
    {
     "enum_field_value" : 2,
     "name" : "ANATIVEWINDOW_TRANSFORM_MIRROR_VERTICAL"
    },
    {
     "enum_field_value" : 4,
     "name" : "ANATIVEWINDOW_TRANSFORM_ROTATE_90"
    },
    {
     "enum_field_value" : 3,
     "name" : "ANATIVEWINDOW_TRANSFORM_ROTATE_180"
    },
    {
     "enum_field_value" : 7,
     "name" : "ANATIVEWINDOW_TRANSFORM_ROTATE_270"
    }
   ],
   "linker_set_key" : "_ZTI22ANativeWindowTransform",
   "name" : "ANativeWindowTransform",
   "referenced_type" : "_ZTI22ANativeWindowTransform",
   "self_type" : "_ZTI22ANativeWindowTransform",
   "size" : 4,
   "source_file" : "/frameworks/native/libs/nativewindow/include/android/native_window.h",
   "underlying_type" : "_ZTIj"
  },
  {
   "alignment" : 4,
   "enum_fields" :
   [
    {
     "enum_field_value" : 1,
     "name" : "FLEX_COMPONENT_Y"
    },
    {
     "enum_field_value" : 2,
     "name" : "FLEX_COMPONENT_Cb"
    },
    {
     "enum_field_value" : 4,
     "name" : "FLEX_COMPONENT_Cr"
    },
    {
     "enum_field_value" : 1024,
     "name" : "FLEX_COMPONENT_R"
    },
    {
     "enum_field_value" : 2048,
     "name" : "FLEX_COMPONENT_G"
    },
    {
     "enum_field_value" : 4096,
     "name" : "FLEX_COMPONENT_B"
    },
    {
     "enum_field_value" : 1073741824,
     "name" : "FLEX_COMPONENT_A"
    }
   ],
   "linker_set_key" : "_ZTI22android_flex_component",
   "name" : "android_flex_component",
   "referenced_type" : "_ZTI22android_flex_component",
   "self_type" : "_ZTI22android_flex_component",
   "size" : 4,
   "source_file" : "/system/core/libsystem/include/system/graphics.h",
   "underlying_type" : "_ZTIj"
  },
  {
   "alignment" : 4,
   "enum_fields" :
   [
    {
     "enum_field_value" : 1,
     "name" : "HAL_PIXEL_FORMAT_RGBA_8888"
    },
    {
     "enum_field_value" : 2,
     "name" : "HAL_PIXEL_FORMAT_RGBX_8888"
    },
    {
     "enum_field_value" : 3,
     "name" : "HAL_PIXEL_FORMAT_RGB_888"
    },
    {
     "enum_field_value" : 4,
     "name" : "HAL_PIXEL_FORMAT_RGB_565"
    },
    {
     "enum_field_value" : 5,
     "name" : "HAL_PIXEL_FORMAT_BGRA_8888"
    },
    {
     "enum_field_value" : 16,
     "name" : "HAL_PIXEL_FORMAT_YCBCR_422_SP"
    },
    {
     "enum_field_value" : 17,
     "name" : "HAL_PIXEL_FORMAT_YCRCB_420_SP"
    },
    {
     "enum_field_value" : 20,
     "name" : "HAL_PIXEL_FORMAT_YCBCR_422_I"
    },
    {
     "enum_field_value" : 22,
     "name" : "HAL_PIXEL_FORMAT_RGBA_FP16"
    },
    {
     "enum_field_value" : 32,
     "name" : "HAL_PIXEL_FORMAT_RAW16"
    },
    {
     "enum_field_value" : 33,
     "name" : "HAL_PIXEL_FORMAT_BLOB"
    },
    {
     "enum_field_value" : 34,
     "name" : "HAL_PIXEL_FORMAT_IMPLEMENTATION_DEFINED"
    },
    {
     "enum_field_value" : 35,
     "name" : "HAL_PIXEL_FORMAT_YCBCR_420_888"
    },
    {
     "enum_field_value" : 36,
     "name" : "HAL_PIXEL_FORMAT_RAW_OPAQUE"
    },
    {
     "enum_field_value" : 37,
     "name" : "HAL_PIXEL_FORMAT_RAW10"
    },
    {
     "enum_field_value" : 38,
     "name" : "HAL_PIXEL_FORMAT_RAW12"
    },
    {
     "enum_field_value" : 43,
     "name" : "HAL_PIXEL_FORMAT_RGBA_1010102"
    },
    {
     "enum_field_value" : 538982489,
     "name" : "HAL_PIXEL_FORMAT_Y8"
    },
    {
     "enum_field_value" : 540422489,
     "name" : "HAL_PIXEL_FORMAT_Y16"
    },
    {
     "enum_field_value" : 842094169,
     "name" : "HAL_PIXEL_FORMAT_YV12"
    }
   ],
   "linker_set_key" : "_ZTI22android_pixel_format_t",
   "name" : "android_pixel_format_t",
   "referenced_type" : "_ZTI22android_pixel_format_t",
   "self_type" : "_ZTI22android_pixel_format_t",
   "size" : 4,
   "source_file" : "/system/core/libsystem/include/system/graphics-base-v1.0.h",
   "underlying_type" : "_ZTIj"
  },
  {
   "alignment" : 4,
   "enum_fields" :
   [
    {
     "enum_field_value" : 0,
     "name" : "AUDIO_DUAL_MONO_MODE_OFF"
    },
    {
     "enum_field_value" : 1,
     "name" : "AUDIO_DUAL_MONO_MODE_LR"
    },
    {
     "enum_field_value" : 2,
     "name" : "AUDIO_DUAL_MONO_MODE_LL"
    },
    {
     "enum_field_value" : 3,
     "name" : "AUDIO_DUAL_MONO_MODE_RR"
    }
   ],
   "linker_set_key" : "_ZTI22audio_dual_mono_mode_t",
   "name" : "audio_dual_mono_mode_t",
   "referenced_type" : "_ZTI22audio_dual_mono_mode_t",
   "self_type" : "_ZTI22audio_dual_mono_mode_t",
   "size" : 4,
   "source_file" : "/system/media/audio/include/system/audio-base.h",
   "underlying_type" : "_ZTIj"
  },
  {
   "alignment" : 4,
   "enum_fields" :
   [
    {
     "enum_field_value" : 0,
     "name" : "NONE"
    },
    {
     "enum_field_value" : 1,
     "name" : "AUDIO_MMAP_APPLICATION_SHAREABLE"
    }
   ],
   "linker_set_key" : "_ZTI22audio_mmap_buffer_flag",
   "name" : "audio_mmap_buffer_flag",
   "referenced_type" : "_ZTI22audio_mmap_buffer_flag",
   "self_type" : "_ZTI22audio_mmap_buffer_flag",
   "size" : 4,
   "source_file" : "/system/media/audio/include/system/audio.h",
   "underlying_type" : "_ZTIj"
  },
  {
   "alignment" : 4,
   "enum_fields" :
   [
    {
     "enum_field_value" : 1,
     "name" : "CAMERA3_MSG_ERROR_DEVICE"
    },
    {
     "enum_field_value" : 2,
     "name" : "CAMERA3_MSG_ERROR_REQUEST"
    },
    {
     "enum_field_value" : 3,
     "name" : "CAMERA3_MSG_ERROR_RESULT"
    },
    {
     "enum_field_value" : 4,
     "name" : "CAMERA3_MSG_ERROR_BUFFER"
    },
    {
     "enum_field_value" : 5,
     "name" : "CAMERA3_MSG_NUM_ERRORS"
    }
   ],
   "linker_set_key" : "_ZTI22camera3_error_msg_code",
   "name" : "camera3_error_msg_code",
   "referenced_type" : "_ZTI22camera3_error_msg_code",
   "self_type" : "_ZTI22camera3_error_msg_code",
   "size" : 4,
   "source_file" : "/hardware/libhardware/include/hardware/camera3.h",
   "underlying_type" : "_ZTIj"
  },
  {
   "alignment" : 4,
   "enum_fields" :
   [
    {
     "enum_field_value" : 0,
     "name" : "KHRONOS_FALSE"
    },
    {
     "enum_field_value" : 1,
     "name" : "KHRONOS_TRUE"
    },
    {
     "enum_field_value" : 2147483647,
     "name" : "KHRONOS_BOOLEAN_ENUM_FORCE_SIZE"
    }
   ],
   "linker_set_key" : "_ZTI22khronos_boolean_enum_t",
   "name" : "khronos_boolean_enum_t",
   "referenced_type" : "_ZTI22khronos_boolean_enum_t",
   "self_type" : "_ZTI22khronos_boolean_enum_t",
   "size" : 4,
   "source_file" : "/frameworks/native/opengl/include/KHR/khrplatform.h",
   "underlying_type" : "_ZTIj"
  },
  {
   "alignment" : 4,
   "enum_fields" :
   [
    {
     "enum_field_value" : 19,
     "name" : "ANDROID_PRIORITY_LOWEST"
    },
    {
     "enum_field_value" : 10,
     "name" : "ANDROID_PRIORITY_BACKGROUND"
    },
    {
     "enum_field_value" : 0,
     "name" : "ANDROID_PRIORITY_NORMAL"
    },
    {
     "enum_field_value" : -2,
     "name" : "ANDROID_PRIORITY_FOREGROUND"
    },
    {
     "enum_field_value" : -4,
     "name" : "ANDROID_PRIORITY_DISPLAY"
    },
    {
     "enum_field_value" : -8,
     "name" : "ANDROID_PRIORITY_URGENT_DISPLAY"
    },
    {
     "enum_field_value" : -10,
     "name" : "ANDROID_PRIORITY_VIDEO"
    },
    {
     "enum_field_value" : -16,
     "name" : "ANDROID_PRIORITY_AUDIO"
    },
    {
     "enum_field_value" : -19,
     "name" : "ANDROID_PRIORITY_URGENT_AUDIO"
    },
    {
     "enum_field_value" : -20,
     "name" : "ANDROID_PRIORITY_HIGHEST"
    },
    {
     "enum_field_value" : 0,
     "name" : "ANDROID_PRIORITY_DEFAULT"
    },
    {
     "enum_field_value" : -1,
     "name" : "ANDROID_PRIORITY_MORE_FAVORABLE"
    },
    {
     "enum_field_value" : 1,
     "name" : "ANDROID_PRIORITY_LESS_FAVORABLE"
    }
   ],
   "linker_set_key" : "_ZTI23$ANDROID_PRIORITY_AUDIO",
   "name" : "(anonymous enum at system/core/libsystem/include/system/thread_defs.h:26:1)",
   "referenced_type" : "_ZTI23$ANDROID_PRIORITY_AUDIO",
   "self_type" : "_ZTI23$ANDROID_PRIORITY_AUDIO",
   "size" : 4,
   "source_file" : "/system/core/libsystem/include/system/thread_defs.h",
   "underlying_type" : "_ZTIi"
  },
  {
   "alignment" : 4,
   "enum_fields" :
   [
    {
     "enum_field_value" : 1,
     "name" : "FIRST_CALL_TRANSACTION"
    },
    {
     "enum_field_value" : 16777215,
     "name" : "LAST_CALL_TRANSACTION"
    }
   ],
   "linker_set_key" : "_ZTI23$FIRST_CALL_TRANSACTION",
   "name" : "(anonymous enum at frameworks/native/libs/binder/ndk/include_ndk/android/binder_ibinder.h:59:1)",
   "referenced_type" : "_ZTI23$FIRST_CALL_TRANSACTION",
   "self_type" : "_ZTI23$FIRST_CALL_TRANSACTION",
   "size" : 4,
   "source_file" : "/frameworks/native/libs/binder/ndk/include_ndk/android/binder_ibinder.h",
   "underlying_type" : "_ZTIj"
  },
  {
   "alignment" : 4,
   "enum_fields" :
   [
    {
     "enum_field_value" : 0,
     "name" : "CAMERA3_STREAM_ROTATION_0"
    },
    {
     "enum_field_value" : 1,
     "name" : "CAMERA3_STREAM_ROTATION_90"
    },
    {
     "enum_field_value" : 2,
     "name" : "CAMERA3_STREAM_ROTATION_180"
    },
    {
     "enum_field_value" : 3,
     "name" : "CAMERA3_STREAM_ROTATION_270"
    }
   ],
   "linker_set_key" : "_ZTI23camera3_stream_rotation",
   "name" : "camera3_stream_rotation",
   "referenced_type" : "_ZTI23camera3_stream_rotation",
   "self_type" : "_ZTI23camera3_stream_rotation",
   "size" : 4,
   "source_file" : "/hardware/libhardware/include/hardware/camera3.h",
   "underlying_type" : "_ZTIj"
  },
  {
   "alignment" : 4,
   "enum_fields" :
   [
    {
     "enum_field_value" : 0,
     "name" : "AUDIO_CHANNEL_REPRESENTATION_POSITION"
    },
    {
     "enum_field_value" : 2,
     "name" : "AUDIO_CHANNEL_REPRESENTATION_INDEX"
    },
    {
     "enum_field_value" : 0,
     "name" : "AUDIO_CHANNEL_NONE"
    },
    {
     "enum_field_value" : -1073741824,
     "name" : "AUDIO_CHANNEL_INVALID"
    },
    {
     "enum_field_value" : 1,
     "name" : "AUDIO_CHANNEL_OUT_FRONT_LEFT"
    },
    {
     "enum_field_value" : 2,
     "name" : "AUDIO_CHANNEL_OUT_FRONT_RIGHT"
    },
    {
     "enum_field_value" : 4,
     "name" : "AUDIO_CHANNEL_OUT_FRONT_CENTER"
    },
    {
     "enum_field_value" : 8,
     "name" : "AUDIO_CHANNEL_OUT_LOW_FREQUENCY"
    },
    {
     "enum_field_value" : 16,
     "name" : "AUDIO_CHANNEL_OUT_BACK_LEFT"
    },
    {
     "enum_field_value" : 32,
     "name" : "AUDIO_CHANNEL_OUT_BACK_RIGHT"
    },
    {
     "enum_field_value" : 64,
     "name" : "AUDIO_CHANNEL_OUT_FRONT_LEFT_OF_CENTER"
    },
    {
     "enum_field_value" : 128,
     "name" : "AUDIO_CHANNEL_OUT_FRONT_RIGHT_OF_CENTER"
    },
    {
     "enum_field_value" : 256,
     "name" : "AUDIO_CHANNEL_OUT_BACK_CENTER"
    },
    {
     "enum_field_value" : 512,
     "name" : "AUDIO_CHANNEL_OUT_SIDE_LEFT"
    },
    {
     "enum_field_value" : 1024,
     "name" : "AUDIO_CHANNEL_OUT_SIDE_RIGHT"
    },
    {
     "enum_field_value" : 2048,
     "name" : "AUDIO_CHANNEL_OUT_TOP_CENTER"
    },
    {
     "enum_field_value" : 4096,
     "name" : "AUDIO_CHANNEL_OUT_TOP_FRONT_LEFT"
    },
    {
     "enum_field_value" : 8192,
     "name" : "AUDIO_CHANNEL_OUT_TOP_FRONT_CENTER"
    },
    {
     "enum_field_value" : 16384,
     "name" : "AUDIO_CHANNEL_OUT_TOP_FRONT_RIGHT"
    },
    {
     "enum_field_value" : 32768,
     "name" : "AUDIO_CHANNEL_OUT_TOP_BACK_LEFT"
    },
    {
     "enum_field_value" : 65536,
     "name" : "AUDIO_CHANNEL_OUT_TOP_BACK_CENTER"
    },
    {
     "enum_field_value" : 131072,
     "name" : "AUDIO_CHANNEL_OUT_TOP_BACK_RIGHT"
    },
    {
     "enum_field_value" : 262144,
     "name" : "AUDIO_CHANNEL_OUT_TOP_SIDE_LEFT"
    },
    {
     "enum_field_value" : 524288,
     "name" : "AUDIO_CHANNEL_OUT_TOP_SIDE_RIGHT"
    },
    {
     "enum_field_value" : 536870912,
     "name" : "AUDIO_CHANNEL_OUT_HAPTIC_A"
    },
    {
     "enum_field_value" : 268435456,
     "name" : "AUDIO_CHANNEL_OUT_HAPTIC_B"
    },
    {
     "enum_field_value" : 1,
     "name" : "AUDIO_CHANNEL_OUT_MONO"
    },
    {
     "enum_field_value" : 3,
     "name" : "AUDIO_CHANNEL_OUT_STEREO"
    },
    {
     "enum_field_value" : 11,
     "name" : "AUDIO_CHANNEL_OUT_2POINT1"
    },
    {
     "enum_field_value" : 786435,
     "name" : "AUDIO_CHANNEL_OUT_2POINT0POINT2"
    },
    {
     "enum_field_value" : 786443,
     "name" : "AUDIO_CHANNEL_OUT_2POINT1POINT2"
    },
    {
     "enum_field_value" : 786439,
     "name" : "AUDIO_CHANNEL_OUT_3POINT0POINT2"
    },
    {
     "enum_field_value" : 786447,
     "name" : "AUDIO_CHANNEL_OUT_3POINT1POINT2"
    },
    {
     "enum_field_value" : 51,
     "name" : "AUDIO_CHANNEL_OUT_QUAD"
    },
    {
     "enum_field_value" : 51,
     "name" : "AUDIO_CHANNEL_OUT_QUAD_BACK"
    },
    {
     "enum_field_value" : 1539,
     "name" : "AUDIO_CHANNEL_OUT_QUAD_SIDE"
    },
    {
     "enum_field_value" : 263,
     "name" : "AUDIO_CHANNEL_OUT_SURROUND"
    },
    {
     "enum_field_value" : 55,
     "name" : "AUDIO_CHANNEL_OUT_PENTA"
    },
    {
     "enum_field_value" : 63,
     "name" : "AUDIO_CHANNEL_OUT_5POINT1"
    },
    {
     "enum_field_value" : 63,
     "name" : "AUDIO_CHANNEL_OUT_5POINT1_BACK"
    },
    {
     "enum_field_value" : 1551,
     "name" : "AUDIO_CHANNEL_OUT_5POINT1_SIDE"
    },
    {
     "enum_field_value" : 786495,
     "name" : "AUDIO_CHANNEL_OUT_5POINT1POINT2"
    },
    {
     "enum_field_value" : 184383,
     "name" : "AUDIO_CHANNEL_OUT_5POINT1POINT4"
    },
    {
     "enum_field_value" : 319,
     "name" : "AUDIO_CHANNEL_OUT_6POINT1"
    },
    {
     "enum_field_value" : 1599,
     "name" : "AUDIO_CHANNEL_OUT_7POINT1"
    },
    {
     "enum_field_value" : 788031,
     "name" : "AUDIO_CHANNEL_OUT_7POINT1POINT2"
    },
    {
     "enum_field_value" : 185919,
     "name" : "AUDIO_CHANNEL_OUT_7POINT1POINT4"
    },
    {
     "enum_field_value" : 536870913,
     "name" : "AUDIO_CHANNEL_OUT_MONO_HAPTIC_A"
    },
    {
     "enum_field_value" : 536870915,
     "name" : "AUDIO_CHANNEL_OUT_STEREO_HAPTIC_A"
    },
    {
     "enum_field_value" : 805306368,
     "name" : "AUDIO_CHANNEL_OUT_HAPTIC_AB"
    },
    {
     "enum_field_value" : 805306369,
     "name" : "AUDIO_CHANNEL_OUT_MONO_HAPTIC_AB"
    },
    {
     "enum_field_value" : 805306371,
     "name" : "AUDIO_CHANNEL_OUT_STEREO_HAPTIC_AB"
    },
    {
     "enum_field_value" : 4,
     "name" : "AUDIO_CHANNEL_IN_LEFT"
    },
    {
     "enum_field_value" : 8,
     "name" : "AUDIO_CHANNEL_IN_RIGHT"
    },
    {
     "enum_field_value" : 16,
     "name" : "AUDIO_CHANNEL_IN_FRONT"
    },
    {
     "enum_field_value" : 32,
     "name" : "AUDIO_CHANNEL_IN_BACK"
    },
    {
     "enum_field_value" : 64,
     "name" : "AUDIO_CHANNEL_IN_LEFT_PROCESSED"
    },
    {
     "enum_field_value" : 128,
     "name" : "AUDIO_CHANNEL_IN_RIGHT_PROCESSED"
    },
    {
     "enum_field_value" : 256,
     "name" : "AUDIO_CHANNEL_IN_FRONT_PROCESSED"
    },
    {
     "enum_field_value" : 512,
     "name" : "AUDIO_CHANNEL_IN_BACK_PROCESSED"
    },
    {
     "enum_field_value" : 1024,
     "name" : "AUDIO_CHANNEL_IN_PRESSURE"
    },
    {
     "enum_field_value" : 2048,
     "name" : "AUDIO_CHANNEL_IN_X_AXIS"
    },
    {
     "enum_field_value" : 4096,
     "name" : "AUDIO_CHANNEL_IN_Y_AXIS"
    },
    {
     "enum_field_value" : 8192,
     "name" : "AUDIO_CHANNEL_IN_Z_AXIS"
    },
    {
     "enum_field_value" : 65536,
     "name" : "AUDIO_CHANNEL_IN_BACK_LEFT"
    },
    {
     "enum_field_value" : 131072,
     "name" : "AUDIO_CHANNEL_IN_BACK_RIGHT"
    },
    {
     "enum_field_value" : 262144,
     "name" : "AUDIO_CHANNEL_IN_CENTER"
    },
    {
     "enum_field_value" : 1048576,
     "name" : "AUDIO_CHANNEL_IN_LOW_FREQUENCY"
    },
    {
     "enum_field_value" : 2097152,
     "name" : "AUDIO_CHANNEL_IN_TOP_LEFT"
    },
    {
     "enum_field_value" : 4194304,
     "name" : "AUDIO_CHANNEL_IN_TOP_RIGHT"
    },
    {
     "enum_field_value" : 16384,
     "name" : "AUDIO_CHANNEL_IN_VOICE_UPLINK"
    },
    {
     "enum_field_value" : 32768,
     "name" : "AUDIO_CHANNEL_IN_VOICE_DNLINK"
    },
    {
     "enum_field_value" : 16,
     "name" : "AUDIO_CHANNEL_IN_MONO"
    },
    {
     "enum_field_value" : 12,
     "name" : "AUDIO_CHANNEL_IN_STEREO"
    },
    {
     "enum_field_value" : 48,
     "name" : "AUDIO_CHANNEL_IN_FRONT_BACK"
    },
    {
     "enum_field_value" : 252,
     "name" : "AUDIO_CHANNEL_IN_6"
    },
    {
     "enum_field_value" : 6291468,
     "name" : "AUDIO_CHANNEL_IN_2POINT0POINT2"
    },
    {
     "enum_field_value" : 7340044,
     "name" : "AUDIO_CHANNEL_IN_2POINT1POINT2"
    },
    {
     "enum_field_value" : 6553612,
     "name" : "AUDIO_CHANNEL_IN_3POINT0POINT2"
    },
    {
     "enum_field_value" : 7602188,
     "name" : "AUDIO_CHANNEL_IN_3POINT1POINT2"
    },
    {
     "enum_field_value" : 1507340,
     "name" : "AUDIO_CHANNEL_IN_5POINT1"
    },
    {
     "enum_field_value" : 16400,
     "name" : "AUDIO_CHANNEL_IN_VOICE_UPLINK_MONO"
    },
    {
     "enum_field_value" : 32784,
     "name" : "AUDIO_CHANNEL_IN_VOICE_DNLINK_MONO"
    },
    {
     "enum_field_value" : 49168,
     "name" : "AUDIO_CHANNEL_IN_VOICE_CALL_MONO"
    },
    {
     "enum_field_value" : 30,
     "name" : "AUDIO_CHANNEL_COUNT_MAX"
    },
    {
     "enum_field_value" : -2147483648,
     "name" : "AUDIO_CHANNEL_INDEX_HDR"
    },
    {
     "enum_field_value" : -2147483647,
     "name" : "AUDIO_CHANNEL_INDEX_MASK_1"
    },
    {
     "enum_field_value" : -2147483645,
     "name" : "AUDIO_CHANNEL_INDEX_MASK_2"
    },
    {
     "enum_field_value" : -2147483641,
     "name" : "AUDIO_CHANNEL_INDEX_MASK_3"
    },
    {
     "enum_field_value" : -2147483633,
     "name" : "AUDIO_CHANNEL_INDEX_MASK_4"
    },
    {
     "enum_field_value" : -2147483617,
     "name" : "AUDIO_CHANNEL_INDEX_MASK_5"
    },
    {
     "enum_field_value" : -2147483585,
     "name" : "AUDIO_CHANNEL_INDEX_MASK_6"
    },
    {
     "enum_field_value" : -2147483521,
     "name" : "AUDIO_CHANNEL_INDEX_MASK_7"
    },
    {
     "enum_field_value" : -2147483393,
     "name" : "AUDIO_CHANNEL_INDEX_MASK_8"
    },
    {
     "enum_field_value" : -2147483137,
     "name" : "AUDIO_CHANNEL_INDEX_MASK_9"
    },
    {
     "enum_field_value" : -2147482625,
     "name" : "AUDIO_CHANNEL_INDEX_MASK_10"
    },
    {
     "enum_field_value" : -2147481601,
     "name" : "AUDIO_CHANNEL_INDEX_MASK_11"
    },
    {
     "enum_field_value" : -2147479553,
     "name" : "AUDIO_CHANNEL_INDEX_MASK_12"
    },
    {
     "enum_field_value" : -2147475457,
     "name" : "AUDIO_CHANNEL_INDEX_MASK_13"
    },
    {
     "enum_field_value" : -2147467265,
     "name" : "AUDIO_CHANNEL_INDEX_MASK_14"
    },
    {
     "enum_field_value" : -2147450881,
     "name" : "AUDIO_CHANNEL_INDEX_MASK_15"
    },
    {
     "enum_field_value" : -2147418113,
     "name" : "AUDIO_CHANNEL_INDEX_MASK_16"
    },
    {
     "enum_field_value" : -2147352577,
     "name" : "AUDIO_CHANNEL_INDEX_MASK_17"
    },
    {
     "enum_field_value" : -2147221505,
     "name" : "AUDIO_CHANNEL_INDEX_MASK_18"
    },
    {
     "enum_field_value" : -2146959361,
     "name" : "AUDIO_CHANNEL_INDEX_MASK_19"
    },
    {
     "enum_field_value" : -2146435073,
     "name" : "AUDIO_CHANNEL_INDEX_MASK_20"
    },
    {
     "enum_field_value" : -2145386497,
     "name" : "AUDIO_CHANNEL_INDEX_MASK_21"
    },
    {
     "enum_field_value" : -2143289345,
     "name" : "AUDIO_CHANNEL_INDEX_MASK_22"
    },
    {
     "enum_field_value" : -2139095041,
     "name" : "AUDIO_CHANNEL_INDEX_MASK_23"
    },
    {
     "enum_field_value" : -2130706433,
     "name" : "AUDIO_CHANNEL_INDEX_MASK_24"
    }
   ],
   "linker_set_key" : "_ZTI24$AUDIO_CHANNEL_COUNT_MAX",
   "name" : "(anonymous enum at system/media/audio/include/system/audio-base.h:200:1)",
   "referenced_type" : "_ZTI24$AUDIO_CHANNEL_COUNT_MAX",
   "self_type" : "_ZTI24$AUDIO_CHANNEL_COUNT_MAX",
   "size" : 4,
   "source_file" : "/system/media/audio/include/system/audio-base.h",
   "underlying_type" : "_ZTIj"
  },
  {
   "alignment" : 4,
   "enum_fields" :
   [
    {
     "enum_field_value" : 281411584,
     "name" : "HAL_DATASPACE_BT2020_ITU"
    },
    {
     "enum_field_value" : 298188800,
     "name" : "HAL_DATASPACE_BT2020_ITU_PQ"
    },
    {
     "enum_field_value" : 302383104,
     "name" : "HAL_DATASPACE_BT2020_ITU_HLG"
    },
    {
     "enum_field_value" : 168165376,
     "name" : "HAL_DATASPACE_BT2020_HLG"
    }
   ],
   "linker_set_key" : "_ZTI24android_dataspace_v1_1_t",
   "name" : "android_dataspace_v1_1_t",
   "referenced_type" : "_ZTI24android_dataspace_v1_1_t",
   "self_type" : "_ZTI24android_dataspace_v1_1_t",
   "size" : 4,
   "source_file" : "/system/core/libsystem/include/system/graphics-base-v1.1.h",
   "underlying_type" : "_ZTIj"
  },
  {
   "alignment" : 4,
   "enum_fields" :
   [
    {
     "enum_field_value" : 142999552,
     "name" : "HAL_DATASPACE_DISPLAY_BT2020"
    },
    {
     "enum_field_value" : 4098,
     "name" : "HAL_DATASPACE_DYNAMIC_DEPTH"
    },
    {
     "enum_field_value" : 4099,
     "name" : "HAL_DATASPACE_JPEG_APP_SEGMENTS"
    },
    {
     "enum_field_value" : 4100,
     "name" : "HAL_DATASPACE_HEIF"
    }
   ],
   "linker_set_key" : "_ZTI24android_dataspace_v1_2_t",
   "name" : "android_dataspace_v1_2_t",
   "referenced_type" : "_ZTI24android_dataspace_v1_2_t",
   "self_type" : "_ZTI24android_dataspace_v1_2_t",
   "size" : 4,
   "source_file" : "/system/core/libsystem/include/system/graphics-base-v1.2.h",
   "underlying_type" : "_ZTIj"
  },
  {
   "alignment" : 4,
   "enum_fields" :
   [
    {
     "enum_field_value" : 1,
     "name" : "CAMERA3_TEMPLATE_PREVIEW"
    },
    {
     "enum_field_value" : 2,
     "name" : "CAMERA3_TEMPLATE_STILL_CAPTURE"
    },
    {
     "enum_field_value" : 3,
     "name" : "CAMERA3_TEMPLATE_VIDEO_RECORD"
    },
    {
     "enum_field_value" : 4,
     "name" : "CAMERA3_TEMPLATE_VIDEO_SNAPSHOT"
    },
    {
     "enum_field_value" : 5,
     "name" : "CAMERA3_TEMPLATE_ZERO_SHUTTER_LAG"
    },
    {
     "enum_field_value" : 6,
     "name" : "CAMERA3_TEMPLATE_MANUAL"
    },
    {
     "enum_field_value" : 7,
     "name" : "CAMERA3_TEMPLATE_COUNT"
    },
    {
     "enum_field_value" : 1073741824,
     "name" : "CAMERA3_VENDOR_TEMPLATE_START"
    }
   ],
   "linker_set_key" : "_ZTI24camera3_request_template",
   "name" : "camera3_request_template",
   "referenced_type" : "_ZTI24camera3_request_template",
   "self_type" : "_ZTI24camera3_request_template",
   "size" : 4,
   "source_file" : "/hardware/libhardware/include/hardware/camera3.h",
   "underlying_type" : "_ZTIj"
  },
  {
   "alignment" : 4,
   "enum_fields" :
   [
    {
     "enum_field_value" : 806354943,
     "name" : "AUDIO_CHANNEL_OUT_ALL"
    },
    {
     "enum_field_value" : 7864316,
     "name" : "AUDIO_CHANNEL_IN_ALL"
    },
    {
     "enum_field_value" : 805306368,
     "name" : "AUDIO_CHANNEL_HAPTIC_ALL"
    },
    {
     "enum_field_value" : 1610612735,
     "name" : "AUDIO_DEVICE_OUT_ALL"
    },
    {
     "enum_field_value" : 896,
     "name" : "AUDIO_DEVICE_OUT_ALL_A2DP"
    },
    {
     "enum_field_value" : 112,
     "name" : "AUDIO_DEVICE_OUT_ALL_SCO"
    },
    {
     "enum_field_value" : 67133440,
     "name" : "AUDIO_DEVICE_OUT_ALL_USB"
    },
    {
     "enum_field_value" : -551550977,
     "name" : "AUDIO_DEVICE_IN_ALL"
    },
    {
     "enum_field_value" : -2147483640,
     "name" : "AUDIO_DEVICE_IN_ALL_SCO"
    },
    {
     "enum_field_value" : -2113923072,
     "name" : "AUDIO_DEVICE_IN_ALL_USB"
    },
    {
     "enum_field_value" : 17,
     "name" : "AUDIO_USAGE_MAX"
    },
    {
     "enum_field_value" : 18,
     "name" : "AUDIO_USAGE_CNT"
    },
    {
     "enum_field_value" : 15,
     "name" : "AUDIO_PORT_CONFIG_ALL"
    }
   ],
   "linker_set_key" : "_ZTI25$AUDIO_CHANNEL_HAPTIC_ALL",
   "name" : "(anonymous enum at system/media/audio/include/system/audio-base-utils.h:50:1)",
   "referenced_type" : "_ZTI25$AUDIO_CHANNEL_HAPTIC_ALL",
   "self_type" : "_ZTI25$AUDIO_CHANNEL_HAPTIC_ALL",
   "size" : 4,
   "source_file" : "/system/media/audio/include/system/audio-base-utils.h",
   "underlying_type" : "_ZTIj"
  },
  {
   "alignment" : 4,
   "enum_fields" :
   [
    {
     "enum_field_value" : 0,
     "name" : "AUDIO_DEVICE_NONE"
    },
    {
     "enum_field_value" : -2147483648,
     "name" : "AUDIO_DEVICE_BIT_IN"
    },
    {
     "enum_field_value" : 1073741824,
     "name" : "AUDIO_DEVICE_BIT_DEFAULT"
    },
    {
     "enum_field_value" : 1,
     "name" : "AUDIO_DEVICE_OUT_EARPIECE"
    },
    {
     "enum_field_value" : 2,
     "name" : "AUDIO_DEVICE_OUT_SPEAKER"
    },
    {
     "enum_field_value" : 4,
     "name" : "AUDIO_DEVICE_OUT_WIRED_HEADSET"
    },
    {
     "enum_field_value" : 8,
     "name" : "AUDIO_DEVICE_OUT_WIRED_HEADPHONE"
    },
    {
     "enum_field_value" : 16,
     "name" : "AUDIO_DEVICE_OUT_BLUETOOTH_SCO"
    },
    {
     "enum_field_value" : 32,
     "name" : "AUDIO_DEVICE_OUT_BLUETOOTH_SCO_HEADSET"
    },
    {
     "enum_field_value" : 64,
     "name" : "AUDIO_DEVICE_OUT_BLUETOOTH_SCO_CARKIT"
    },
    {
     "enum_field_value" : 128,
     "name" : "AUDIO_DEVICE_OUT_BLUETOOTH_A2DP"
    },
    {
     "enum_field_value" : 256,
     "name" : "AUDIO_DEVICE_OUT_BLUETOOTH_A2DP_HEADPHONES"
    },
    {
     "enum_field_value" : 512,
     "name" : "AUDIO_DEVICE_OUT_BLUETOOTH_A2DP_SPEAKER"
    },
    {
     "enum_field_value" : 1024,
     "name" : "AUDIO_DEVICE_OUT_AUX_DIGITAL"
    },
    {
     "enum_field_value" : 1024,
     "name" : "AUDIO_DEVICE_OUT_HDMI"
    },
    {
     "enum_field_value" : 2048,
     "name" : "AUDIO_DEVICE_OUT_ANLG_DOCK_HEADSET"
    },
    {
     "enum_field_value" : 4096,
     "name" : "AUDIO_DEVICE_OUT_DGTL_DOCK_HEADSET"
    },
    {
     "enum_field_value" : 8192,
     "name" : "AUDIO_DEVICE_OUT_USB_ACCESSORY"
    },
    {
     "enum_field_value" : 16384,
     "name" : "AUDIO_DEVICE_OUT_USB_DEVICE"
    },
    {
     "enum_field_value" : 32768,
     "name" : "AUDIO_DEVICE_OUT_REMOTE_SUBMIX"
    },
    {
     "enum_field_value" : 65536,
     "name" : "AUDIO_DEVICE_OUT_TELEPHONY_TX"
    },
    {
     "enum_field_value" : 131072,
     "name" : "AUDIO_DEVICE_OUT_LINE"
    },
    {
     "enum_field_value" : 262144,
     "name" : "AUDIO_DEVICE_OUT_HDMI_ARC"
    },
    {
     "enum_field_value" : 524288,
     "name" : "AUDIO_DEVICE_OUT_SPDIF"
    },
    {
     "enum_field_value" : 1048576,
     "name" : "AUDIO_DEVICE_OUT_FM"
    },
    {
     "enum_field_value" : 2097152,
     "name" : "AUDIO_DEVICE_OUT_AUX_LINE"
    },
    {
     "enum_field_value" : 4194304,
     "name" : "AUDIO_DEVICE_OUT_SPEAKER_SAFE"
    },
    {
     "enum_field_value" : 8388608,
     "name" : "AUDIO_DEVICE_OUT_IP"
    },
    {
     "enum_field_value" : 16777216,
     "name" : "AUDIO_DEVICE_OUT_BUS"
    },
    {
     "enum_field_value" : 33554432,
     "name" : "AUDIO_DEVICE_OUT_PROXY"
    },
    {
     "enum_field_value" : 67108864,
     "name" : "AUDIO_DEVICE_OUT_USB_HEADSET"
    },
    {
     "enum_field_value" : 134217728,
     "name" : "AUDIO_DEVICE_OUT_HEARING_AID"
    },
    {
     "enum_field_value" : 268435456,
     "name" : "AUDIO_DEVICE_OUT_ECHO_CANCELLER"
    },
    {
     "enum_field_value" : 1073741824,
     "name" : "AUDIO_DEVICE_OUT_DEFAULT"
    },
    {
     "enum_field_value" : -2147483647,
     "name" : "AUDIO_DEVICE_IN_COMMUNICATION"
    },
    {
     "enum_field_value" : -2147483646,
     "name" : "AUDIO_DEVICE_IN_AMBIENT"
    },
    {
     "enum_field_value" : -2147483644,
     "name" : "AUDIO_DEVICE_IN_BUILTIN_MIC"
    },
    {
     "enum_field_value" : -2147483640,
     "name" : "AUDIO_DEVICE_IN_BLUETOOTH_SCO_HEADSET"
    },
    {
     "enum_field_value" : -2147483632,
     "name" : "AUDIO_DEVICE_IN_WIRED_HEADSET"
    },
    {
     "enum_field_value" : -2147483616,
     "name" : "AUDIO_DEVICE_IN_AUX_DIGITAL"
    },
    {
     "enum_field_value" : -2147483616,
     "name" : "AUDIO_DEVICE_IN_HDMI"
    },
    {
     "enum_field_value" : -2147483584,
     "name" : "AUDIO_DEVICE_IN_VOICE_CALL"
    },
    {
     "enum_field_value" : -2147483584,
     "name" : "AUDIO_DEVICE_IN_TELEPHONY_RX"
    },
    {
     "enum_field_value" : -2147483520,
     "name" : "AUDIO_DEVICE_IN_BACK_MIC"
    },
    {
     "enum_field_value" : -2147483392,
     "name" : "AUDIO_DEVICE_IN_REMOTE_SUBMIX"
    },
    {
     "enum_field_value" : -2147483136,
     "name" : "AUDIO_DEVICE_IN_ANLG_DOCK_HEADSET"
    },
    {
     "enum_field_value" : -2147482624,
     "name" : "AUDIO_DEVICE_IN_DGTL_DOCK_HEADSET"
    },
    {
     "enum_field_value" : -2147481600,
     "name" : "AUDIO_DEVICE_IN_USB_ACCESSORY"
    },
    {
     "enum_field_value" : -2147479552,
     "name" : "AUDIO_DEVICE_IN_USB_DEVICE"
    },
    {
     "enum_field_value" : -2147475456,
     "name" : "AUDIO_DEVICE_IN_FM_TUNER"
    },
    {
     "enum_field_value" : -2147467264,
     "name" : "AUDIO_DEVICE_IN_TV_TUNER"
    },
    {
     "enum_field_value" : -2147450880,
     "name" : "AUDIO_DEVICE_IN_LINE"
    },
    {
     "enum_field_value" : -2147418112,
     "name" : "AUDIO_DEVICE_IN_SPDIF"
    },
    {
     "enum_field_value" : -2147352576,
     "name" : "AUDIO_DEVICE_IN_BLUETOOTH_A2DP"
    },
    {
     "enum_field_value" : -2147221504,
     "name" : "AUDIO_DEVICE_IN_LOOPBACK"
    },
    {
     "enum_field_value" : -2146959360,
     "name" : "AUDIO_DEVICE_IN_IP"
    },
    {
     "enum_field_value" : -2146435072,
     "name" : "AUDIO_DEVICE_IN_BUS"
    },
    {
     "enum_field_value" : -2130706432,
     "name" : "AUDIO_DEVICE_IN_PROXY"
    },
    {
     "enum_field_value" : -2113929216,
     "name" : "AUDIO_DEVICE_IN_USB_HEADSET"
    },
    {
     "enum_field_value" : -2080374784,
     "name" : "AUDIO_DEVICE_IN_BLUETOOTH_BLE"
    },
    {
     "enum_field_value" : -2013265920,
     "name" : "AUDIO_DEVICE_IN_HDMI_ARC"
    },
    {
     "enum_field_value" : -1879048192,
     "name" : "AUDIO_DEVICE_IN_ECHO_REFERENCE"
    },
    {
     "enum_field_value" : -1073741824,
     "name" : "AUDIO_DEVICE_IN_DEFAULT"
    }
   ],
   "linker_set_key" : "_ZTI25$AUDIO_DEVICE_BIT_DEFAULT",
   "name" : "(anonymous enum at system/media/audio/include/system/audio-base.h:328:1)",
   "referenced_type" : "_ZTI25$AUDIO_DEVICE_BIT_DEFAULT",
   "self_type" : "_ZTI25$AUDIO_DEVICE_BIT_DEFAULT",
   "size" : 4,
   "source_file" : "/system/media/audio/include/system/audio-base.h",
   "underlying_type" : "_ZTIj"
  },
  {
   "alignment" : 4,
   "enum_fields" :
   [
    {
     "enum_field_value" : 1,
     "name" : "AUDIO_GAIN_MODE_JOINT"
    },
    {
     "enum_field_value" : 2,
     "name" : "AUDIO_GAIN_MODE_CHANNELS"
    },
    {
     "enum_field_value" : 4,
     "name" : "AUDIO_GAIN_MODE_RAMP"
    }
   ],
   "linker_set_key" : "_ZTI25$AUDIO_GAIN_MODE_CHANNELS",
   "name" : "(anonymous enum at system/media/audio/include/system/audio-base.h:468:1)",
   "referenced_type" : "_ZTI25$AUDIO_GAIN_MODE_CHANNELS",
   "self_type" : "_ZTI25$AUDIO_GAIN_MODE_CHANNELS",
   "size" : 4,
   "source_file" : "/system/media/audio/include/system/audio-base.h",
   "underlying_type" : "_ZTIj"
  },
  {
   "alignment" : 4,
   "enum_fields" :
   [
    {
     "enum_field_value" : 0,
     "name" : "CAMERA_FACE_DETECTION_HW"
    },
    {
     "enum_field_value" : 1,
     "name" : "CAMERA_FACE_DETECTION_SW"
    }
   ],
   "linker_set_key" : "_ZTI25$CAMERA_FACE_DETECTION_HW",
   "name" : "(anonymous enum at system/core/libsystem/include/system/camera.h:230:1)",
   "referenced_type" : "_ZTI25$CAMERA_FACE_DETECTION_HW",
   "self_type" : "_ZTI25$CAMERA_FACE_DETECTION_HW",
   "size" : 4,
   "source_file" : "/system/core/libsystem/include/system/camera.h",
   "underlying_type" : "_ZTIj"
  },
  {
   "alignment" : 4,
   "enum_fields" :
   [
    {
     "enum_field_value" : 0,
     "name" : "GRALLOC_USAGE_SW_READ_NEVER"
    },
    {
     "enum_field_value" : 2,
     "name" : "GRALLOC_USAGE_SW_READ_RARELY"
    },
    {
     "enum_field_value" : 3,
     "name" : "GRALLOC_USAGE_SW_READ_OFTEN"
    },
    {
     "enum_field_value" : 15,
     "name" : "GRALLOC_USAGE_SW_READ_MASK"
    },
    {
     "enum_field_value" : 0,
     "name" : "GRALLOC_USAGE_SW_WRITE_NEVER"
    },
    {
     "enum_field_value" : 32,
     "name" : "GRALLOC_USAGE_SW_WRITE_RARELY"
    },
    {
     "enum_field_value" : 48,
     "name" : "GRALLOC_USAGE_SW_WRITE_OFTEN"
    },
    {
     "enum_field_value" : 240,
     "name" : "GRALLOC_USAGE_SW_WRITE_MASK"
    },
    {
     "enum_field_value" : 256,
     "name" : "GRALLOC_USAGE_HW_TEXTURE"
    },
    {
     "enum_field_value" : 512,
     "name" : "GRALLOC_USAGE_HW_RENDER"
    },
    {
     "enum_field_value" : 1024,
     "name" : "GRALLOC_USAGE_HW_2D"
    },
    {
     "enum_field_value" : 2048,
     "name" : "GRALLOC_USAGE_HW_COMPOSER"
    },
    {
     "enum_field_value" : 4096,
     "name" : "GRALLOC_USAGE_HW_FB"
    },
    {
     "enum_field_value" : 8192,
     "name" : "GRALLOC_USAGE_EXTERNAL_DISP"
    },
    {
     "enum_field_value" : 16384,
     "name" : "GRALLOC_USAGE_PROTECTED"
    },
    {
     "enum_field_value" : 32768,
     "name" : "GRALLOC_USAGE_CURSOR"
    },
    {
     "enum_field_value" : 65536,
     "name" : "GRALLOC_USAGE_HW_VIDEO_ENCODER"
    },
    {
     "enum_field_value" : 131072,
     "name" : "GRALLOC_USAGE_HW_CAMERA_WRITE"
    },
    {
     "enum_field_value" : 262144,
     "name" : "GRALLOC_USAGE_HW_CAMERA_READ"
    },
    {
     "enum_field_value" : 393216,
     "name" : "GRALLOC_USAGE_HW_CAMERA_ZSL"
    },
    {
     "enum_field_value" : 393216,
     "name" : "GRALLOC_USAGE_HW_CAMERA_MASK"
    },
    {
     "enum_field_value" : 466688,
     "name" : "GRALLOC_USAGE_HW_MASK"
    },
    {
     "enum_field_value" : 1048576,
     "name" : "GRALLOC_USAGE_RENDERSCRIPT"
    },
    {
     "enum_field_value" : 2097152,
     "name" : "GRALLOC_USAGE_FOREIGN_BUFFERS"
    },
    {
     "enum_field_value" : 134217728,
     "name" : "GRALLOC_USAGE_HW_IMAGE_ENCODER"
    },
    {
     "enum_field_value" : -2097153,
     "name" : "GRALLOC_USAGE_ALLOC_MASK"
    },
    {
     "enum_field_value" : 268435456,
     "name" : "GRALLOC_USAGE_PRIVATE_0"
    },
    {
     "enum_field_value" : 536870912,
     "name" : "GRALLOC_USAGE_PRIVATE_1"
    },
    {
     "enum_field_value" : 1073741824,
     "name" : "GRALLOC_USAGE_PRIVATE_2"
    },
    {
     "enum_field_value" : -2147483648,
     "name" : "GRALLOC_USAGE_PRIVATE_3"
    },
    {
     "enum_field_value" : -268435456,
     "name" : "GRALLOC_USAGE_PRIVATE_MASK"
    }
   ],
   "linker_set_key" : "_ZTI25$GRALLOC_USAGE_ALLOC_MASK",
   "name" : "(anonymous enum at hardware/libhardware/include/hardware/gralloc.h:68:1)",
   "referenced_type" : "_ZTI25$GRALLOC_USAGE_ALLOC_MASK",
   "self_type" : "_ZTI25$GRALLOC_USAGE_ALLOC_MASK",
   "size" : 4,
   "source_file" : "/hardware/libhardware/include/hardware/gralloc.h",
   "underlying_type" : "_ZTIj"
  },
  {
   "alignment" : 4,
   "enum_fields" :
   [
    {
     "enum_field_value" : 1,
     "name" : "NATIVE_WINDOW_API_EGL"
    },
    {
     "enum_field_value" : 2,
     "name" : "NATIVE_WINDOW_API_CPU"
    },
    {
     "enum_field_value" : 3,
     "name" : "NATIVE_WINDOW_API_MEDIA"
    },
    {
     "enum_field_value" : 4,
     "name" : "NATIVE_WINDOW_API_CAMERA"
    }
   ],
   "linker_set_key" : "_ZTI25$NATIVE_WINDOW_API_CAMERA",
   "name" : "(anonymous enum at frameworks/native/libs/nativewindow/include/system/window.h:261:1)",
   "referenced_type" : "_ZTI25$NATIVE_WINDOW_API_CAMERA",
   "self_type" : "_ZTI25$NATIVE_WINDOW_API_CAMERA",
   "size" : 4,
   "source_file" : "/frameworks/native/libs/nativewindow/include/system/window.h",
   "underlying_type" : "_ZTIj"
  },
  {
   "alignment" : 4,
   "enum_fields" :
   [
    {
     "enum_field_value" : 0,
     "name" : "NATIVE_WINDOW_WIDTH"
    },
    {
     "enum_field_value" : 1,
     "name" : "NATIVE_WINDOW_HEIGHT"
    },
    {
     "enum_field_value" : 2,
     "name" : "NATIVE_WINDOW_FORMAT"
    },
    {
     "enum_field_value" : 3,
     "name" : "NATIVE_WINDOW_MIN_UNDEQUEUED_BUFFERS"
    },
    {
     "enum_field_value" : 4,
     "name" : "NATIVE_WINDOW_QUEUES_TO_WINDOW_COMPOSER"
    },
    {
     "enum_field_value" : 5,
     "name" : "NATIVE_WINDOW_CONCRETE_TYPE"
    },
    {
     "enum_field_value" : 6,
     "name" : "NATIVE_WINDOW_DEFAULT_WIDTH"
    },
    {
     "enum_field_value" : 7,
     "name" : "NATIVE_WINDOW_DEFAULT_HEIGHT"
    },
    {
     "enum_field_value" : 8,
     "name" : "NATIVE_WINDOW_TRANSFORM_HINT"
    },
    {
     "enum_field_value" : 9,
     "name" : "NATIVE_WINDOW_CONSUMER_RUNNING_BEHIND"
    },
    {
     "enum_field_value" : 10,
     "name" : "NATIVE_WINDOW_CONSUMER_USAGE_BITS"
    },
    {
     "enum_field_value" : 11,
     "name" : "NATIVE_WINDOW_STICKY_TRANSFORM"
    },
    {
     "enum_field_value" : 12,
     "name" : "NATIVE_WINDOW_DEFAULT_DATASPACE"
    },
    {
     "enum_field_value" : 13,
     "name" : "NATIVE_WINDOW_BUFFER_AGE"
    },
    {
     "enum_field_value" : 14,
     "name" : "NATIVE_WINDOW_LAST_DEQUEUE_DURATION"
    },
    {
     "enum_field_value" : 15,
     "name" : "NATIVE_WINDOW_LAST_QUEUE_DURATION"
    },
    {
     "enum_field_value" : 16,
     "name" : "NATIVE_WINDOW_LAYER_COUNT"
    },
    {
     "enum_field_value" : 17,
     "name" : "NATIVE_WINDOW_IS_VALID"
    },
    {
     "enum_field_value" : 18,
     "name" : "NATIVE_WINDOW_FRAME_TIMESTAMPS_SUPPORTS_PRESENT"
    },
    {
     "enum_field_value" : 19,
     "name" : "NATIVE_WINDOW_CONSUMER_IS_PROTECTED"
    },
    {
     "enum_field_value" : 20,
     "name" : "NATIVE_WINDOW_DATASPACE"
    },
    {
     "enum_field_value" : 21,
     "name" : "NATIVE_WINDOW_MAX_BUFFER_COUNT"
    }
   ],
   "linker_set_key" : "_ZTI25$NATIVE_WINDOW_BUFFER_AGE",
   "name" : "(anonymous enum at frameworks/native/libs/nativewindow/include/system/window.h:65:1)",
   "referenced_type" : "_ZTI25$NATIVE_WINDOW_BUFFER_AGE",
   "self_type" : "_ZTI25$NATIVE_WINDOW_BUFFER_AGE",
   "size" : 4,
   "source_file" : "/frameworks/native/libs/nativewindow/include/system/window.h",
   "underlying_type" : "_ZTIj"
  },
  {
   "alignment" : 4,
   "enum_fields" :
   [
    {
     "enum_field_value" : 10,
     "name" : "HAL_COLOR_MODE_BT2020"
    },
    {
     "enum_field_value" : 11,
     "name" : "HAL_COLOR_MODE_BT2100_PQ"
    },
    {
     "enum_field_value" : 12,
     "name" : "HAL_COLOR_MODE_BT2100_HLG"
    }
   ],
   "linker_set_key" : "_ZTI25android_color_mode_v1_1_t",
   "name" : "android_color_mode_v1_1_t",
   "referenced_type" : "_ZTI25android_color_mode_v1_1_t",
   "self_type" : "_ZTI25android_color_mode_v1_1_t",
   "size" : 4,
   "source_file" : "/system/core/libsystem/include/system/graphics-base-v1.1.h",
   "underlying_type" : "_ZTIj"
  },
  {
   "alignment" : 4,
   "enum_fields" :
   [
    {
     "enum_field_value" : 0,
     "name" : "HAL_COLOR_TRANSFORM_IDENTITY"
    },
    {
     "enum_field_value" : 1,
     "name" : "HAL_COLOR_TRANSFORM_ARBITRARY_MATRIX"
    },
    {
     "enum_field_value" : 2,
     "name" : "HAL_COLOR_TRANSFORM_VALUE_INVERSE"
    },
    {
     "enum_field_value" : 3,
     "name" : "HAL_COLOR_TRANSFORM_GRAYSCALE"
    },
    {
     "enum_field_value" : 4,
     "name" : "HAL_COLOR_TRANSFORM_CORRECT_PROTANOPIA"
    },
    {
     "enum_field_value" : 5,
     "name" : "HAL_COLOR_TRANSFORM_CORRECT_DEUTERANOPIA"
    },
    {
     "enum_field_value" : 6,
     "name" : "HAL_COLOR_TRANSFORM_CORRECT_TRITANOPIA"
    }
   ],
   "linker_set_key" : "_ZTI25android_color_transform_t",
   "name" : "android_color_transform_t",
   "referenced_type" : "_ZTI25android_color_transform_t",
   "self_type" : "_ZTI25android_color_transform_t",
   "size" : 4,
   "source_file" : "/system/core/libsystem/include/system/graphics-base-v1.0.h",
   "underlying_type" : "_ZTIj"
  },
  {
   "alignment" : 4,
   "enum_fields" :
   [
    {
     "enum_field_value" : 39,
     "name" : "HAL_PIXEL_FORMAT_YCBCR_422_888"
    },
    {
     "enum_field_value" : 40,
     "name" : "HAL_PIXEL_FORMAT_YCBCR_444_888"
    },
    {
     "enum_field_value" : 41,
     "name" : "HAL_PIXEL_FORMAT_FLEX_RGB_888"
    },
    {
     "enum_field_value" : 42,
     "name" : "HAL_PIXEL_FORMAT_FLEX_RGBA_8888"
    }
   ],
   "linker_set_key" : "_ZTI25android_pixel_format_sw_t",
   "name" : "android_pixel_format_sw_t",
   "referenced_type" : "_ZTI25android_pixel_format_sw_t",
   "self_type" : "_ZTI25android_pixel_format_sw_t",
   "size" : 4,
   "source_file" : "/system/core/libsystem/include/system/graphics-sw.h",
   "underlying_type" : "_ZTIj"
  },
  {
   "alignment" : 4,
   "enum_fields" :
   [
    {
     "enum_field_value" : 0,
     "name" : "AUDIO_LATENCY_LOW"
    },
    {
     "enum_field_value" : 1,
     "name" : "AUDIO_LATENCY_NORMAL"
    }
   ],
   "linker_set_key" : "_ZTI25audio_mix_latency_class_t",
   "name" : "audio_mix_latency_class_t",
   "referenced_type" : "_ZTI25audio_mix_latency_class_t",
   "self_type" : "_ZTI25audio_mix_latency_class_t",
   "size" : 4,
   "source_file" : "/system/media/audio/include/system/audio-base.h",
   "underlying_type" : "_ZTIj"
  },
  {
   "alignment" : 4,
   "enum_fields" :
   [
    {
     "enum_field_value" : 7,
     "name" : "AUDIO_CHANNEL_OUT_TRI"
    },
    {
     "enum_field_value" : 259,
     "name" : "AUDIO_CHANNEL_OUT_TRI_BACK"
    },
    {
     "enum_field_value" : 15,
     "name" : "AUDIO_CHANNEL_OUT_3POINT1"
    }
   ],
   "linker_set_key" : "_ZTI26$AUDIO_CHANNEL_OUT_3POINT1",
   "name" : "(anonymous enum at system/media/audio/include/system/audio-base-utils.h:185:1)",
   "referenced_type" : "_ZTI26$AUDIO_CHANNEL_OUT_3POINT1",
   "self_type" : "_ZTI26$AUDIO_CHANNEL_OUT_3POINT1",
   "size" : 4,
   "source_file" : "/system/media/audio/include/system/audio-base-utils.h",
   "underlying_type" : "_ZTIj"
  },
  {
   "alignment" : 4,
   "enum_fields" :
   [
    {
     "enum_field_value" : 0,
     "name" : "NATIVE_WINDOW_FRAMEBUFFER"
    },
    {
     "enum_field_value" : 1,
     "name" : "NATIVE_WINDOW_SURFACE"
    }
   ],
   "linker_set_key" : "_ZTI26$NATIVE_WINDOW_FRAMEBUFFER",
   "name" : "(anonymous enum at frameworks/native/libs/nativewindow/include/system/window.h:319:1)",
   "referenced_type" : "_ZTI26$NATIVE_WINDOW_FRAMEBUFFER",
   "self_type" : "_ZTI26$NATIVE_WINDOW_FRAMEBUFFER",
   "size" : 4,
   "source_file" : "/frameworks/native/libs/nativewindow/include/system/window.h",
   "underlying_type" : "_ZTIj"
  },
  {
   "alignment" : 8,
   "enum_fields" :
   [
    {
     "enum_field_value" : 0,
     "name" : "AHARDWAREBUFFER_USAGE_CPU_READ_NEVER"
    },
    {
     "enum_field_value" : 2,
     "name" : "AHARDWAREBUFFER_USAGE_CPU_READ_RARELY"
    },
    {
     "enum_field_value" : 3,
     "name" : "AHARDWAREBUFFER_USAGE_CPU_READ_OFTEN"
    },
    {
     "enum_field_value" : 15,
     "name" : "AHARDWAREBUFFER_USAGE_CPU_READ_MASK"
    },
    {
     "enum_field_value" : 0,
     "name" : "AHARDWAREBUFFER_USAGE_CPU_WRITE_NEVER"
    },
    {
     "enum_field_value" : 32,
     "name" : "AHARDWAREBUFFER_USAGE_CPU_WRITE_RARELY"
    },
    {
     "enum_field_value" : 48,
     "name" : "AHARDWAREBUFFER_USAGE_CPU_WRITE_OFTEN"
    },
    {
     "enum_field_value" : 240,
     "name" : "AHARDWAREBUFFER_USAGE_CPU_WRITE_MASK"
    },
    {
     "enum_field_value" : 256,
     "name" : "AHARDWAREBUFFER_USAGE_GPU_SAMPLED_IMAGE"
    },
    {
     "enum_field_value" : 512,
     "name" : "AHARDWAREBUFFER_USAGE_GPU_FRAMEBUFFER"
    },
    {
     "enum_field_value" : 512,
     "name" : "AHARDWAREBUFFER_USAGE_GPU_COLOR_OUTPUT"
    },
    {
     "enum_field_value" : 2048,
     "name" : "AHARDWAREBUFFER_USAGE_COMPOSER_OVERLAY"
    },
    {
     "enum_field_value" : 16384,
     "name" : "AHARDWAREBUFFER_USAGE_PROTECTED_CONTENT"
    },
    {
     "enum_field_value" : 65536,
     "name" : "AHARDWAREBUFFER_USAGE_VIDEO_ENCODE"
    },
    {
     "enum_field_value" : 8388608,
     "name" : "AHARDWAREBUFFER_USAGE_SENSOR_DIRECT_DATA"
    },
    {
     "enum_field_value" : 16777216,
     "name" : "AHARDWAREBUFFER_USAGE_GPU_DATA_BUFFER"
    },
    {
     "enum_field_value" : 33554432,
     "name" : "AHARDWAREBUFFER_USAGE_GPU_CUBE_MAP"
    },
    {
     "enum_field_value" : 67108864,
     "name" : "AHARDWAREBUFFER_USAGE_GPU_MIPMAP_COMPLETE"
    },
    {
     "enum_field_value" : 268435456,
     "name" : "AHARDWAREBUFFER_USAGE_VENDOR_0"
    },
    {
     "enum_field_value" : 536870912,
     "name" : "AHARDWAREBUFFER_USAGE_VENDOR_1"
    },
    {
     "enum_field_value" : 1073741824,
     "name" : "AHARDWAREBUFFER_USAGE_VENDOR_2"
    },
    {
     "enum_field_value" : -2147483648,
     "name" : "AHARDWAREBUFFER_USAGE_VENDOR_3"
    },
    {
     "enum_field_value" : 0,
     "name" : "AHARDWAREBUFFER_USAGE_VENDOR_4"
    },
    {
     "enum_field_value" : 0,
     "name" : "AHARDWAREBUFFER_USAGE_VENDOR_5"
    },
    {
     "enum_field_value" : 0,
     "name" : "AHARDWAREBUFFER_USAGE_VENDOR_6"
    },
    {
     "enum_field_value" : 0,
     "name" : "AHARDWAREBUFFER_USAGE_VENDOR_7"
    },
    {
     "enum_field_value" : 0,
     "name" : "AHARDWAREBUFFER_USAGE_VENDOR_8"
    },
    {
     "enum_field_value" : 0,
     "name" : "AHARDWAREBUFFER_USAGE_VENDOR_9"
    },
    {
     "enum_field_value" : 0,
     "name" : "AHARDWAREBUFFER_USAGE_VENDOR_10"
    },
    {
     "enum_field_value" : 0,
     "name" : "AHARDWAREBUFFER_USAGE_VENDOR_11"
    },
    {
     "enum_field_value" : 0,
     "name" : "AHARDWAREBUFFER_USAGE_VENDOR_12"
    },
    {
     "enum_field_value" : 0,
     "name" : "AHARDWAREBUFFER_USAGE_VENDOR_13"
    },
    {
     "enum_field_value" : 0,
     "name" : "AHARDWAREBUFFER_USAGE_VENDOR_14"
    },
    {
     "enum_field_value" : 0,
     "name" : "AHARDWAREBUFFER_USAGE_VENDOR_15"
    },
    {
     "enum_field_value" : 0,
     "name" : "AHARDWAREBUFFER_USAGE_VENDOR_16"
    },
    {
     "enum_field_value" : 0,
     "name" : "AHARDWAREBUFFER_USAGE_VENDOR_17"
    },
    {
     "enum_field_value" : 0,
     "name" : "AHARDWAREBUFFER_USAGE_VENDOR_18"
    },
    {
     "enum_field_value" : 0,
     "name" : "AHARDWAREBUFFER_USAGE_VENDOR_19"
    }
   ],
   "linker_set_key" : "_ZTI26AHardwareBuffer_UsageFlags",
   "name" : "AHardwareBuffer_UsageFlags",
   "referenced_type" : "_ZTI26AHardwareBuffer_UsageFlags",
   "self_type" : "_ZTI26AHardwareBuffer_UsageFlags",
   "size" : 8,
   "source_file" : "/frameworks/native/libs/nativewindow/include/android/hardware_buffer.h",
   "underlying_type" : "_ZTIy"
  },
  {
   "alignment" : 4,
   "enum_fields" :
   [
    {
     "enum_field_value" : 1,
     "name" : "WINDOW_FORMAT_RGBA_8888"
    },
    {
     "enum_field_value" : 2,
     "name" : "WINDOW_FORMAT_RGBX_8888"
    },
    {
     "enum_field_value" : 4,
     "name" : "WINDOW_FORMAT_RGB_565"
    }
   ],
   "linker_set_key" : "_ZTI26ANativeWindow_LegacyFormat",
   "name" : "ANativeWindow_LegacyFormat",
   "referenced_type" : "_ZTI26ANativeWindow_LegacyFormat",
   "self_type" : "_ZTI26ANativeWindow_LegacyFormat",
   "size" : 4,
   "source_file" : "/frameworks/native/libs/nativewindow/include/android/native_window.h",
   "underlying_type" : "_ZTIj"
  },
  {
   "alignment" : 4,
   "enum_fields" :
   [
    {
     "enum_field_value" : 0,
     "name" : "AUDIO_ENCAPSULATION_MODE_NONE"
    },
    {
     "enum_field_value" : 1,
     "name" : "AUDIO_ENCAPSULATION_MODE_ELEMENTARY_STREAM"
    },
    {
     "enum_field_value" : 2,
     "name" : "AUDIO_ENCAPSULATION_MODE_HANDLE"
    }
   ],
   "linker_set_key" : "_ZTI26audio_encapsulation_mode_t",
   "name" : "audio_encapsulation_mode_t",
   "referenced_type" : "_ZTI26audio_encapsulation_mode_t",
   "self_type" : "_ZTI26audio_encapsulation_mode_t",
   "size" : 4,
   "source_file" : "/system/media/audio/include/system/audio-base.h",
   "underlying_type" : "_ZTIj"
  },
  {
   "alignment" : 4,
   "enum_fields" :
   [
    {
     "enum_field_value" : 48,
     "name" : "HAL_PIXEL_FORMAT_DEPTH_16"
    },
    {
     "enum_field_value" : 49,
     "name" : "HAL_PIXEL_FORMAT_DEPTH_24"
    },
    {
     "enum_field_value" : 50,
     "name" : "HAL_PIXEL_FORMAT_DEPTH_24_STENCIL_8"
    },
    {
     "enum_field_value" : 51,
     "name" : "HAL_PIXEL_FORMAT_DEPTH_32F"
    },
    {
     "enum_field_value" : 52,
     "name" : "HAL_PIXEL_FORMAT_DEPTH_32F_STENCIL_8"
    },
    {
     "enum_field_value" : 53,
     "name" : "HAL_PIXEL_FORMAT_STENCIL_8"
    },
    {
     "enum_field_value" : 54,
     "name" : "HAL_PIXEL_FORMAT_YCBCR_P010"
    }
   ],
   "linker_set_key" : "_ZTI27android_pixel_format_v1_1_t",
   "name" : "android_pixel_format_v1_1_t",
   "referenced_type" : "_ZTI27android_pixel_format_v1_1_t",
   "self_type" : "_ZTI27android_pixel_format_v1_1_t",
   "size" : 4,
   "source_file" : "/system/core/libsystem/include/system/graphics-base-v1.1.h",
   "underlying_type" : "_ZTIj"
  },
  {
   "alignment" : 4,
   "enum_fields" :
   [
    {
     "enum_field_value" : 55,
     "name" : "HAL_PIXEL_FORMAT_HSV_888"
    }
   ],
   "linker_set_key" : "_ZTI27android_pixel_format_v1_2_t",
   "name" : "android_pixel_format_v1_2_t",
   "referenced_type" : "_ZTI27android_pixel_format_v1_2_t",
   "self_type" : "_ZTI27android_pixel_format_v1_2_t",
   "size" : 4,
   "source_file" : "/system/core/libsystem/include/system/graphics-base-v1.2.h",
   "underlying_type" : "_ZTIj"
  },
  {
   "alignment" : 4,
   "enum_fields" :
   [
    {
     "enum_field_value" : 0,
     "name" : "AUDIO_MICROPHONE_LOCATION_UNKNOWN"
    },
    {
     "enum_field_value" : 1,
     "name" : "AUDIO_MICROPHONE_LOCATION_MAINBODY"
    },
    {
     "enum_field_value" : 2,
     "name" : "AUDIO_MICROPHONE_LOCATION_MAINBODY_MOVABLE"
    },
    {
     "enum_field_value" : 3,
     "name" : "AUDIO_MICROPHONE_LOCATION_PERIPHERAL"
    },
    {
     "enum_field_value" : 4,
     "name" : "AUDIO_MICROPHONE_LOCATION_CNT"
    }
   ],
   "linker_set_key" : "_ZTI27audio_microphone_location_t",
   "name" : "audio_microphone_location_t",
   "referenced_type" : "_ZTI27audio_microphone_location_t",
   "self_type" : "_ZTI27audio_microphone_location_t",
   "size" : 4,
   "source_file" : "/system/media/audio/include/system/audio.h",
   "underlying_type" : "_ZTIj"
  },
  {
   "alignment" : 4,
   "enum_fields" :
   [
    {
     "enum_field_value" : 12,
     "name" : "AUDIO_STREAM_PUBLIC_CNT"
    },
    {
     "enum_field_value" : 13,
     "name" : "AUDIO_STREAM_FOR_POLICY_CNT"
    },
    {
     "enum_field_value" : 15,
     "name" : "AUDIO_STREAM_CNT"
    },
    {
     "enum_field_value" : 10,
     "name" : "AUDIO_SOURCE_MAX"
    },
    {
     "enum_field_value" : 11,
     "name" : "AUDIO_SOURCE_CNT"
    },
    {
     "enum_field_value" : 4,
     "name" : "AUDIO_MODE_MAX"
    },
    {
     "enum_field_value" : 5,
     "name" : "AUDIO_MODE_CNT"
    },
    {
     "enum_field_value" : -1,
     "name" : "AUDIO_DETAIL_NEGATIVE_VALUE"
    }
   ],
   "linker_set_key" : "_ZTI28$AUDIO_DETAIL_NEGATIVE_VALUE",
   "name" : "(anonymous enum at system/media/audio/include/system/audio-base-utils.h:27:1)",
   "referenced_type" : "_ZTI28$AUDIO_DETAIL_NEGATIVE_VALUE",
   "self_type" : "_ZTI28$AUDIO_DETAIL_NEGATIVE_VALUE",
   "size" : 4,
   "source_file" : "/system/media/audio/include/system/audio-base-utils.h",
   "underlying_type" : "_ZTIi"
  },
  {
   "alignment" : 4,
   "enum_fields" :
   [
    {
     "enum_field_value" : 0,
     "name" : "HAL_RENDER_INTENT_COLORIMETRIC"
    },
    {
     "enum_field_value" : 1,
     "name" : "HAL_RENDER_INTENT_ENHANCE"
    },
    {
     "enum_field_value" : 2,
     "name" : "HAL_RENDER_INTENT_TONE_MAP_COLORIMETRIC"
    },
    {
     "enum_field_value" : 3,
     "name" : "HAL_RENDER_INTENT_TONE_MAP_ENHANCE"
    }
   ],
   "linker_set_key" : "_ZTI28android_render_intent_v1_1_t",
   "name" : "android_render_intent_v1_1_t",
   "referenced_type" : "_ZTI28android_render_intent_v1_1_t",
   "self_type" : "_ZTI28android_render_intent_v1_1_t",
   "size" : 4,
   "source_file" : "/system/core/libsystem/include/system/graphics-base-v1.1.h",
   "underlying_type" : "_ZTIj"
  },
  {
   "alignment" : 4,
   "enum_fields" :
   [
    {
     "enum_field_value" : 0,
     "name" : "MIC_DIRECTION_UNSPECIFIED"
    },
    {
     "enum_field_value" : 1,
     "name" : "MIC_DIRECTION_FRONT"
    },
    {
     "enum_field_value" : 2,
     "name" : "MIC_DIRECTION_BACK"
    },
    {
     "enum_field_value" : 3,
     "name" : "MIC_DIRECTION_EXTERNAL"
    }
   ],
   "linker_set_key" : "_ZTI28audio_microphone_direction_t",
   "name" : "audio_microphone_direction_t",
   "referenced_type" : "_ZTI28audio_microphone_direction_t",
   "self_type" : "_ZTI28audio_microphone_direction_t",
   "size" : 4,
   "source_file" : "/system/media/audio/include/system/audio-base.h",
   "underlying_type" : "_ZTIj"
  },
  {
   "alignment" : 4,
   "enum_fields" :
   [
    {
     "enum_field_value" : 0,
     "name" : "CAMERA3_BUF_REQ_OK"
    },
    {
     "enum_field_value" : 1,
     "name" : "CAMERA3_BUF_REQ_FAILED_PARTIAL"
    },
    {
     "enum_field_value" : 2,
     "name" : "CAMERA3_BUF_REQ_FAILED_CONFIGURING"
    },
    {
     "enum_field_value" : 3,
     "name" : "CAMERA3_BUF_REQ_FAILED_ILLEGAL_ARGUMENTS"
    },
    {
     "enum_field_value" : 4,
     "name" : "CAMERA3_BUF_REQ_FAILED_UNKNOWN"
    },
    {
     "enum_field_value" : 5,
     "name" : "CAMERA3_BUF_REQ_NUM_STATUS"
    }
   ],
   "linker_set_key" : "_ZTI29camera3_buffer_request_status",
   "name" : "camera3_buffer_request_status",
   "referenced_type" : "_ZTI29camera3_buffer_request_status",
   "self_type" : "_ZTI29camera3_buffer_request_status",
   "size" : 4,
   "source_file" : "/hardware/libhardware/include/hardware/camera3.h",
   "underlying_type" : "_ZTIj"
  },
  {
   "alignment" : 4,
   "enum_fields" :
   [
    {
     "enum_field_value" : 0,
     "name" : "AUDIO_FLAG_NONE"
    },
    {
     "enum_field_value" : 1,
     "name" : "AUDIO_FLAG_AUDIBILITY_ENFORCED"
    },
    {
     "enum_field_value" : 2,
     "name" : "AUDIO_FLAG_SECURE"
    },
    {
     "enum_field_value" : 4,
     "name" : "AUDIO_FLAG_SCO"
    },
    {
     "enum_field_value" : 8,
     "name" : "AUDIO_FLAG_BEACON"
    },
    {
     "enum_field_value" : 16,
     "name" : "AUDIO_FLAG_HW_AV_SYNC"
    },
    {
     "enum_field_value" : 32,
     "name" : "AUDIO_FLAG_HW_HOTWORD"
    },
    {
     "enum_field_value" : 64,
     "name" : "AUDIO_FLAG_BYPASS_INTERRUPTION_POLICY"
    },
    {
     "enum_field_value" : 128,
     "name" : "AUDIO_FLAG_BYPASS_MUTE"
    },
    {
     "enum_field_value" : 256,
     "name" : "AUDIO_FLAG_LOW_LATENCY"
    },
    {
     "enum_field_value" : 512,
     "name" : "AUDIO_FLAG_DEEP_BUFFER"
    },
    {
     "enum_field_value" : 1024,
     "name" : "AUDIO_FLAG_NO_MEDIA_PROJECTION"
    },
    {
     "enum_field_value" : 2048,
     "name" : "AUDIO_FLAG_MUTE_HAPTIC"
    },
    {
     "enum_field_value" : 4096,
     "name" : "AUDIO_FLAG_NO_SYSTEM_CAPTURE"
    },
    {
     "enum_field_value" : 8192,
     "name" : "AUDIO_FLAG_CAPTURE_PRIVATE"
    }
   ],
   "linker_set_key" : "_ZTI31$AUDIO_FLAG_AUDIBILITY_ENFORCED",
   "name" : "(anonymous enum at system/media/audio/include/system/audio.h:66:1)",
   "referenced_type" : "_ZTI31$AUDIO_FLAG_AUDIBILITY_ENFORCED",
   "self_type" : "_ZTI31$AUDIO_FLAG_AUDIBILITY_ENFORCED",
   "size" : 4,
   "source_file" : "/system/media/audio/include/system/audio.h",
   "underlying_type" : "_ZTIj"
  },
  {
   "alignment" : 4,
   "enum_fields" :
   [
    {
     "enum_field_value" : 1,
     "name" : "AUDIO_PORT_CONFIG_SAMPLE_RATE"
    },
    {
     "enum_field_value" : 2,
     "name" : "AUDIO_PORT_CONFIG_CHANNEL_MASK"
    },
    {
     "enum_field_value" : 4,
     "name" : "AUDIO_PORT_CONFIG_FORMAT"
    },
    {
     "enum_field_value" : 8,
     "name" : "AUDIO_PORT_CONFIG_GAIN"
    },
    {
     "enum_field_value" : 16,
     "name" : "AUDIO_PORT_CONFIG_FLAGS"
    }
   ],
   "linker_set_key" : "_ZTI31$AUDIO_PORT_CONFIG_CHANNEL_MASK",
   "name" : "(anonymous enum at system/media/audio/include/system/audio-base.h:487:1)",
   "referenced_type" : "_ZTI31$AUDIO_PORT_CONFIG_CHANNEL_MASK",
   "self_type" : "_ZTI31$AUDIO_PORT_CONFIG_CHANNEL_MASK",
   "size" : 4,
   "source_file" : "/system/media/audio/include/system/audio-base.h",
   "underlying_type" : "_ZTIj"
  },
  {
   "alignment" : 4,
   "enum_fields" :
   [
    {
     "enum_field_value" : 0,
     "name" : "NATIVE_WINDOW_SET_USAGE"
    },
    {
     "enum_field_value" : 1,
     "name" : "NATIVE_WINDOW_CONNECT"
    },
    {
     "enum_field_value" : 2,
     "name" : "NATIVE_WINDOW_DISCONNECT"
    },
    {
     "enum_field_value" : 3,
     "name" : "NATIVE_WINDOW_SET_CROP"
    },
    {
     "enum_field_value" : 4,
     "name" : "NATIVE_WINDOW_SET_BUFFER_COUNT"
    },
    {
     "enum_field_value" : 5,
     "name" : "NATIVE_WINDOW_SET_BUFFERS_GEOMETRY"
    },
    {
     "enum_field_value" : 6,
     "name" : "NATIVE_WINDOW_SET_BUFFERS_TRANSFORM"
    },
    {
     "enum_field_value" : 7,
     "name" : "NATIVE_WINDOW_SET_BUFFERS_TIMESTAMP"
    },
    {
     "enum_field_value" : 8,
     "name" : "NATIVE_WINDOW_SET_BUFFERS_DIMENSIONS"
    },
    {
     "enum_field_value" : 9,
     "name" : "NATIVE_WINDOW_SET_BUFFERS_FORMAT"
    },
    {
     "enum_field_value" : 10,
     "name" : "NATIVE_WINDOW_SET_SCALING_MODE"
    },
    {
     "enum_field_value" : 11,
     "name" : "NATIVE_WINDOW_LOCK"
    },
    {
     "enum_field_value" : 12,
     "name" : "NATIVE_WINDOW_UNLOCK_AND_POST"
    },
    {
     "enum_field_value" : 13,
     "name" : "NATIVE_WINDOW_API_CONNECT"
    },
    {
     "enum_field_value" : 14,
     "name" : "NATIVE_WINDOW_API_DISCONNECT"
    },
    {
     "enum_field_value" : 15,
     "name" : "NATIVE_WINDOW_SET_BUFFERS_USER_DIMENSIONS"
    },
    {
     "enum_field_value" : 16,
     "name" : "NATIVE_WINDOW_SET_POST_TRANSFORM_CROP"
    },
    {
     "enum_field_value" : 17,
     "name" : "NATIVE_WINDOW_SET_BUFFERS_STICKY_TRANSFORM"
    },
    {
     "enum_field_value" : 18,
     "name" : "NATIVE_WINDOW_SET_SIDEBAND_STREAM"
    },
    {
     "enum_field_value" : 19,
     "name" : "NATIVE_WINDOW_SET_BUFFERS_DATASPACE"
    },
    {
     "enum_field_value" : 20,
     "name" : "NATIVE_WINDOW_SET_SURFACE_DAMAGE"
    },
    {
     "enum_field_value" : 21,
     "name" : "NATIVE_WINDOW_SET_SHARED_BUFFER_MODE"
    },
    {
     "enum_field_value" : 22,
     "name" : "NATIVE_WINDOW_SET_AUTO_REFRESH"
    },
    {
     "enum_field_value" : 23,
     "name" : "NATIVE_WINDOW_GET_REFRESH_CYCLE_DURATION"
    },
    {
     "enum_field_value" : 24,
     "name" : "NATIVE_WINDOW_GET_NEXT_FRAME_ID"
    },
    {
     "enum_field_value" : 25,
     "name" : "NATIVE_WINDOW_ENABLE_FRAME_TIMESTAMPS"
    },
    {
     "enum_field_value" : 26,
     "name" : "NATIVE_WINDOW_GET_COMPOSITOR_TIMING"
    },
    {
     "enum_field_value" : 27,
     "name" : "NATIVE_WINDOW_GET_FRAME_TIMESTAMPS"
    },
    {
     "enum_field_value" : 28,
     "name" : "NATIVE_WINDOW_GET_WIDE_COLOR_SUPPORT"
    },
    {
     "enum_field_value" : 29,
     "name" : "NATIVE_WINDOW_GET_HDR_SUPPORT"
    },
    {
     "enum_field_value" : 30,
     "name" : "NATIVE_WINDOW_SET_USAGE64"
    },
    {
     "enum_field_value" : 31,
     "name" : "NATIVE_WINDOW_GET_CONSUMER_USAGE64"
    },
    {
     "enum_field_value" : 32,
     "name" : "NATIVE_WINDOW_SET_BUFFERS_SMPTE2086_METADATA"
    },
    {
     "enum_field_value" : 33,
     "name" : "NATIVE_WINDOW_SET_BUFFERS_CTA861_3_METADATA"
    },
    {
     "enum_field_value" : 34,
     "name" : "NATIVE_WINDOW_SET_BUFFERS_HDR10_PLUS_METADATA"
    },
    {
     "enum_field_value" : 35,
     "name" : "NATIVE_WINDOW_SET_AUTO_PREROTATION"
    },
    {
     "enum_field_value" : 36,
     "name" : "NATIVE_WINDOW_GET_LAST_DEQUEUE_START"
    },
    {
     "enum_field_value" : 37,
     "name" : "NATIVE_WINDOW_SET_DEQUEUE_TIMEOUT"
    },
    {
     "enum_field_value" : 38,
     "name" : "NATIVE_WINDOW_GET_LAST_DEQUEUE_DURATION"
    },
    {
     "enum_field_value" : 39,
     "name" : "NATIVE_WINDOW_GET_LAST_QUEUE_DURATION"
    },
    {
     "enum_field_value" : 40,
     "name" : "NATIVE_WINDOW_SET_FRAME_RATE"
    },
    {
     "enum_field_value" : 41,
     "name" : "NATIVE_WINDOW_SET_CANCEL_INTERCEPTOR"
    },
    {
     "enum_field_value" : 42,
     "name" : "NATIVE_WINDOW_SET_DEQUEUE_INTERCEPTOR"
    },
    {
     "enum_field_value" : 43,
     "name" : "NATIVE_WINDOW_SET_PERFORM_INTERCEPTOR"
    },
    {
     "enum_field_value" : 44,
     "name" : "NATIVE_WINDOW_SET_QUEUE_INTERCEPTOR"
    },
    {
     "enum_field_value" : 45,
     "name" : "NATIVE_WINDOW_ALLOCATE_BUFFERS"
    },
    {
     "enum_field_value" : 46,
     "name" : "NATIVE_WINDOW_GET_LAST_QUEUED_BUFFER"
    }
   ],
   "linker_set_key" : "_ZTI31$NATIVE_WINDOW_ALLOCATE_BUFFERS",
   "name" : "(anonymous enum at frameworks/native/libs/nativewindow/include/system/window.h:208:1)",
   "referenced_type" : "_ZTI31$NATIVE_WINDOW_ALLOCATE_BUFFERS",
   "self_type" : "_ZTI31$NATIVE_WINDOW_ALLOCATE_BUFFERS",
   "size" : 4,
   "source_file" : "/frameworks/native/libs/nativewindow/include/system/window.h",
   "underlying_type" : "_ZTIj"
  },
  {
   "alignment" : 4,
   "enum_fields" :
   [
    {
     "enum_field_value" : 1,
     "name" : "NATIVE_WINDOW_TRANSFORM_FLIP_H"
    },
    {
     "enum_field_value" : 2,
     "name" : "NATIVE_WINDOW_TRANSFORM_FLIP_V"
    },
    {
     "enum_field_value" : 4,
     "name" : "NATIVE_WINDOW_TRANSFORM_ROT_90"
    },
    {
     "enum_field_value" : 3,
     "name" : "NATIVE_WINDOW_TRANSFORM_ROT_180"
    },
    {
     "enum_field_value" : 7,
     "name" : "NATIVE_WINDOW_TRANSFORM_ROT_270"
    },
    {
     "enum_field_value" : 8,
     "name" : "NATIVE_WINDOW_TRANSFORM_INVERSE_DISPLAY"
    }
   ],
   "linker_set_key" : "_ZTI31$NATIVE_WINDOW_TRANSFORM_FLIP_H",
   "name" : "(anonymous enum at frameworks/native/libs/nativewindow/include/system/window.h:282:1)",
   "referenced_type" : "_ZTI31$NATIVE_WINDOW_TRANSFORM_FLIP_H",
   "self_type" : "_ZTI31$NATIVE_WINDOW_TRANSFORM_FLIP_H",
   "size" : 4,
   "source_file" : "/frameworks/native/libs/nativewindow/include/system/window.h",
   "underlying_type" : "_ZTIj"
  },
  {
   "alignment" : 4,
   "enum_fields" :
   [
    {
     "enum_field_value" : 0,
     "name" : "AUDIO_TIMESTRETCH_STRETCH_DEFAULT"
    },
    {
     "enum_field_value" : 1,
     "name" : "AUDIO_TIMESTRETCH_STRETCH_SPEECH"
    }
   ],
   "linker_set_key" : "_ZTI32audio_timestretch_stretch_mode_t",
   "name" : "audio_timestretch_stretch_mode_t",
   "referenced_type" : "_ZTI32audio_timestretch_stretch_mode_t",
   "self_type" : "_ZTI32audio_timestretch_stretch_mode_t",
   "size" : 4,
   "source_file" : "/system/media/audio/include/system/audio-base.h",
   "underlying_type" : "_ZTIj"
  },
  {
   "alignment" : 4,
   "enum_fields" :
   [
    {
     "enum_field_value" : 0,
     "name" : "CAMERA3_PS_BUF_REQ_OK"
    },
    {
     "enum_field_value" : 1,
     "name" : "CAMERA3_PS_BUF_REQ_NO_BUFFER_AVAILABLE"
    },
    {
     "enum_field_value" : 2,
     "name" : "CAMERA3_PS_BUF_REQ_MAX_BUFFER_EXCEEDED"
    },
    {
     "enum_field_value" : 3,
     "name" : "CAMERA3_PS_BUF_REQ_STREAM_DISCONNECTED"
    },
    {
     "enum_field_value" : 4,
     "name" : "CAMERA3_PS_BUF_REQ_UNKNOWN_ERROR"
    },
    {
     "enum_field_value" : 5,
     "name" : "CAMERA3_PS_BUF_REQ_NUM_STATUS"
    }
   ],
   "linker_set_key" : "_ZTI32camera3_stream_buffer_req_status",
   "name" : "camera3_stream_buffer_req_status",
   "referenced_type" : "_ZTI32camera3_stream_buffer_req_status",
   "self_type" : "_ZTI32camera3_stream_buffer_req_status",
   "size" : 4,
   "source_file" : "/hardware/libhardware/include/hardware/camera3.h",
   "underlying_type" : "_ZTIj"
  },
  {
   "alignment" : 4,
   "enum_fields" :
   [
    {
     "enum_field_value" : 1,
     "name" : "CAMERA_CMD_START_SMOOTH_ZOOM"
    },
    {
     "enum_field_value" : 2,
     "name" : "CAMERA_CMD_STOP_SMOOTH_ZOOM"
    },
    {
     "enum_field_value" : 3,
     "name" : "CAMERA_CMD_SET_DISPLAY_ORIENTATION"
    },
    {
     "enum_field_value" : 4,
     "name" : "CAMERA_CMD_ENABLE_SHUTTER_SOUND"
    },
    {
     "enum_field_value" : 5,
     "name" : "CAMERA_CMD_PLAY_RECORDING_SOUND"
    },
    {
     "enum_field_value" : 6,
     "name" : "CAMERA_CMD_START_FACE_DETECTION"
    },
    {
     "enum_field_value" : 7,
     "name" : "CAMERA_CMD_STOP_FACE_DETECTION"
    },
    {
     "enum_field_value" : 8,
     "name" : "CAMERA_CMD_ENABLE_FOCUS_MOVE_MSG"
    },
    {
     "enum_field_value" : 9,
     "name" : "CAMERA_CMD_PING"
    },
    {
     "enum_field_value" : 10,
     "name" : "CAMERA_CMD_SET_VIDEO_BUFFER_COUNT"
    },
    {
     "enum_field_value" : 11,
     "name" : "CAMERA_CMD_SET_VIDEO_FORMAT"
    }
   ],
   "linker_set_key" : "_ZTI33$CAMERA_CMD_ENABLE_FOCUS_MOVE_MSG",
   "name" : "(anonymous enum at system/core/libsystem/include/system/camera.h:95:1)",
   "referenced_type" : "_ZTI33$CAMERA_CMD_ENABLE_FOCUS_MOVE_MSG",
   "self_type" : "_ZTI33$CAMERA_CMD_ENABLE_FOCUS_MOVE_MSG",
   "size" : 4,
   "source_file" : "/system/core/libsystem/include/system/camera.h",
   "underlying_type" : "_ZTIj"
  },
  {
   "alignment" : 4,
   "enum_fields" :
   [
    {
     "enum_field_value" : 0,
     "name" : "AUDIO_MICROPHONE_DIRECTIONALITY_UNKNOWN"
    },
    {
     "enum_field_value" : 1,
     "name" : "AUDIO_MICROPHONE_DIRECTIONALITY_OMNI"
    },
    {
     "enum_field_value" : 2,
     "name" : "AUDIO_MICROPHONE_DIRECTIONALITY_BI_DIRECTIONAL"
    },
    {
     "enum_field_value" : 3,
     "name" : "AUDIO_MICROPHONE_DIRECTIONALITY_CARDIOID"
    },
    {
     "enum_field_value" : 4,
     "name" : "AUDIO_MICROPHONE_DIRECTIONALITY_HYPER_CARDIOID"
    },
    {
     "enum_field_value" : 5,
     "name" : "AUDIO_MICROPHONE_DIRECTIONALITY_SUPER_CARDIOID"
    },
    {
     "enum_field_value" : 6,
     "name" : "AUDIO_MICROPHONE_DIRECTIONALITY_CNT"
    }
   ],
   "linker_set_key" : "_ZTI33audio_microphone_directionality_t",
   "name" : "audio_microphone_directionality_t",
   "referenced_type" : "_ZTI33audio_microphone_directionality_t",
   "self_type" : "_ZTI33audio_microphone_directionality_t",
   "size" : 4,
   "source_file" : "/system/media/audio/include/system/audio.h",
   "underlying_type" : "_ZTIj"
  },
  {
   "alignment" : 4,
   "enum_fields" :
   [
    {
     "enum_field_value" : -1,
     "name" : "AUDIO_TIMESTRETCH_FALLBACK_CUT_REPEAT"
    },
    {
     "enum_field_value" : 0,
     "name" : "AUDIO_TIMESTRETCH_FALLBACK_DEFAULT"
    },
    {
     "enum_field_value" : 1,
     "name" : "AUDIO_TIMESTRETCH_FALLBACK_MUTE"
    },
    {
     "enum_field_value" : 2,
     "name" : "AUDIO_TIMESTRETCH_FALLBACK_FAIL"
    }
   ],
   "linker_set_key" : "_ZTI33audio_timestretch_fallback_mode_t",
   "name" : "audio_timestretch_fallback_mode_t",
   "referenced_type" : "_ZTI33audio_timestretch_fallback_mode_t",
   "self_type" : "_ZTI33audio_timestretch_fallback_mode_t",
   "size" : 4,
   "source_file" : "/system/media/audio/include/system/audio-base.h",
   "underlying_type" : "_ZTIi"
  },
  {
   "alignment" : 4,
   "enum_fields" :
   [
    {
     "enum_field_value" : 0,
     "name" : "CAMERA3_STREAM_CONFIGURATION_NORMAL_MODE"
    },
    {
     "enum_field_value" : 1,
     "name" : "CAMERA3_STREAM_CONFIGURATION_CONSTRAINED_HIGH_SPEED_MODE"
    },
    {
     "enum_field_value" : 32768,
     "name" : "CAMERA3_VENDOR_STREAM_CONFIGURATION_MODE_START"
    }
   ],
   "linker_set_key" : "_ZTI33camera3_stream_configuration_mode",
   "name" : "camera3_stream_configuration_mode",
   "referenced_type" : "_ZTI33camera3_stream_configuration_mode",
   "self_type" : "_ZTI33camera3_stream_configuration_mode",
   "size" : 4,
   "source_file" : "/hardware/libhardware/include/hardware/camera3.h",
   "underlying_type" : "_ZTIj"
  },
  {
   "alignment" : 4,
   "enum_fields" :
   [
    {
     "enum_field_value" : 255,
     "name" : "CAMERA3_JPEG_BLOB_ID"
    },
    {
     "enum_field_value" : 256,
     "name" : "CAMERA3_JPEG_APP_SEGMENTS_BLOB_ID"
    }
   ],
   "linker_set_key" : "_ZTI34$CAMERA3_JPEG_APP_SEGMENTS_BLOB_ID",
   "name" : "(anonymous enum at hardware/libhardware/include/hardware/camera3.h:1988:1)",
   "referenced_type" : "_ZTI34$CAMERA3_JPEG_APP_SEGMENTS_BLOB_ID",
   "self_type" : "_ZTI34$CAMERA3_JPEG_APP_SEGMENTS_BLOB_ID",
   "size" : 4,
   "source_file" : "/hardware/libhardware/include/hardware/camera3.h",
   "underlying_type" : "_ZTIj"
  },
  {
   "alignment" : 4,
   "enum_fields" :
   [
    {
     "enum_field_value" : 0,
     "name" : "NATIVE_WINDOW_SCALING_MODE_FREEZE"
    },
    {
     "enum_field_value" : 1,
     "name" : "NATIVE_WINDOW_SCALING_MODE_SCALE_TO_WINDOW"
    },
    {
     "enum_field_value" : 2,
     "name" : "NATIVE_WINDOW_SCALING_MODE_SCALE_CROP"
    },
    {
     "enum_field_value" : 3,
     "name" : "NATIVE_WINDOW_SCALING_MODE_NO_SCALE_CROP"
    }
   ],
   "linker_set_key" : "_ZTI34$NATIVE_WINDOW_SCALING_MODE_FREEZE",
   "name" : "(anonymous enum at frameworks/native/libs/nativewindow/include/system/window.h:300:1)",
   "referenced_type" : "_ZTI34$NATIVE_WINDOW_SCALING_MODE_FREEZE",
   "self_type" : "_ZTI34$NATIVE_WINDOW_SCALING_MODE_FREEZE",
   "size" : 4,
   "source_file" : "/frameworks/native/libs/nativewindow/include/system/window.h",
   "underlying_type" : "_ZTIj"
  },
  {
   "alignment" : 4,
   "enum_fields" :
   [
    {
     "enum_field_value" : 0,
     "name" : "AUDIO_MICROPHONE_CHANNEL_MAPPING_UNUSED"
    },
    {
     "enum_field_value" : 1,
     "name" : "AUDIO_MICROPHONE_CHANNEL_MAPPING_DIRECT"
    },
    {
     "enum_field_value" : 2,
     "name" : "AUDIO_MICROPHONE_CHANNEL_MAPPING_PROCESSED"
    },
    {
     "enum_field_value" : 3,
     "name" : "AUDIO_MICROPHONE_CHANNEL_MAPPING_CNT"
    }
   ],
   "linker_set_key" : "_ZTI34audio_microphone_channel_mapping_t",
   "name" : "audio_microphone_channel_mapping_t",
   "referenced_type" : "_ZTI34audio_microphone_channel_mapping_t",
   "self_type" : "_ZTI34audio_microphone_channel_mapping_t",
   "size" : 4,
   "source_file" : "/system/media/audio/include/system/audio.h",
   "underlying_type" : "_ZTIj"
  },
  {
   "alignment" : 4,
   "enum_fields" :
   [
    {
     "enum_field_value" : 0,
     "name" : "ANATIVEWINDOW_FRAME_RATE_COMPATIBILITY_DEFAULT"
    },
    {
     "enum_field_value" : 1,
     "name" : "ANATIVEWINDOW_FRAME_RATE_COMPATIBILITY_FIXED_SOURCE"
    }
   ],
   "linker_set_key" : "_ZTI36ANativeWindow_FrameRateCompatibility",
   "name" : "ANativeWindow_FrameRateCompatibility",
   "referenced_type" : "_ZTI36ANativeWindow_FrameRateCompatibility",
   "self_type" : "_ZTI36ANativeWindow_FrameRateCompatibility",
   "size" : 4,
   "source_file" : "/frameworks/native/libs/nativewindow/include/android/native_window.h",
   "underlying_type" : "_ZTIj"
  },
  {
   "alignment" : 4,
   "enum_fields" :
   [
    {
     "enum_field_value" : 2,
     "name" : "AMEDIACODEC_BUFFER_FLAG_CODEC_CONFIG"
    },
    {
     "enum_field_value" : 4,
     "name" : "AMEDIACODEC_BUFFER_FLAG_END_OF_STREAM"
    },
    {
     "enum_field_value" : 8,
     "name" : "AMEDIACODEC_BUFFER_FLAG_PARTIAL_FRAME"
    },
    {
     "enum_field_value" : 1,
     "name" : "AMEDIACODEC_CONFIGURE_FLAG_ENCODE"
    },
    {
     "enum_field_value" : -3,
     "name" : "AMEDIACODEC_INFO_OUTPUT_BUFFERS_CHANGED"
    },
    {
     "enum_field_value" : -2,
     "name" : "AMEDIACODEC_INFO_OUTPUT_FORMAT_CHANGED"
    },
    {
     "enum_field_value" : -1,
     "name" : "AMEDIACODEC_INFO_TRY_AGAIN_LATER"
    }
   ],
   "linker_set_key" : "_ZTI37$AMEDIACODEC_BUFFER_FLAG_CODEC_CONFIG",
   "name" : "(anonymous enum at frameworks/av/media/ndk/include/media/NdkMediaCodec.h:64:1)",
   "referenced_type" : "_ZTI37$AMEDIACODEC_BUFFER_FLAG_CODEC_CONFIG",
   "self_type" : "_ZTI37$AMEDIACODEC_BUFFER_FLAG_CODEC_CONFIG",
   "size" : 4,
   "source_file" : "/frameworks/av/media/ndk/include/media/NdkMediaCodec.h",
   "underlying_type" : "_ZTIi"
  },
  {
   "alignment" : 4,
   "enum_fields" :
   [
    {
     "enum_field_value" : 1,
     "name" : "AMEDIAEXTRACTOR_SAMPLE_FLAG_SYNC"
    },
    {
     "enum_field_value" : 2,
     "name" : "AMEDIAEXTRACTOR_SAMPLE_FLAG_ENCRYPTED"
    }
   ],
   "linker_set_key" : "_ZTI38$AMEDIAEXTRACTOR_SAMPLE_FLAG_ENCRYPTED",
   "name" : "(anonymous enum at frameworks/av/media/ndk/include/media/NdkMediaExtractor.h:208:1)",
   "referenced_type" : "_ZTI38$AMEDIAEXTRACTOR_SAMPLE_FLAG_ENCRYPTED",
   "self_type" : "_ZTI38$AMEDIAEXTRACTOR_SAMPLE_FLAG_ENCRYPTED",
   "size" : 4,
   "source_file" : "/frameworks/av/media/ndk/include/media/NdkMediaExtractor.h",
   "underlying_type" : "_ZTIj"
  },
  {
   "alignment" : 4,
   "enum_fields" :
   [
    {
     "enum_field_value" : 1,
     "name" : "CAMERA_FRAME_CALLBACK_FLAG_ENABLE_MASK"
    },
    {
     "enum_field_value" : 2,
     "name" : "CAMERA_FRAME_CALLBACK_FLAG_ONE_SHOT_MASK"
    },
    {
     "enum_field_value" : 4,
     "name" : "CAMERA_FRAME_CALLBACK_FLAG_COPY_OUT_MASK"
    },
    {
     "enum_field_value" : 0,
     "name" : "CAMERA_FRAME_CALLBACK_FLAG_NOOP"
    },
    {
     "enum_field_value" : 1,
     "name" : "CAMERA_FRAME_CALLBACK_FLAG_CAMCORDER"
    },
    {
     "enum_field_value" : 5,
     "name" : "CAMERA_FRAME_CALLBACK_FLAG_CAMERA"
    },
    {
     "enum_field_value" : 7,
     "name" : "CAMERA_FRAME_CALLBACK_FLAG_BARCODE_SCANNER"
    }
   ],
   "linker_set_key" : "_ZTI43$CAMERA_FRAME_CALLBACK_FLAG_BARCODE_SCANNER",
   "name" : "(anonymous enum at system/core/libsystem/include/system/camera.h:60:1)",
   "referenced_type" : "_ZTI43$CAMERA_FRAME_CALLBACK_FLAG_BARCODE_SCANNER",
   "self_type" : "_ZTI43$CAMERA_FRAME_CALLBACK_FLAG_BARCODE_SCANNER",
   "size" : 4,
   "source_file" : "/system/core/libsystem/include/system/camera.h",
   "underlying_type" : "_ZTIj"
  },
  {
   "alignment" : 4,
   "enum_fields" :
   [
    {
     "enum_field_value" : 2,
     "name" : "FCC_2"
    },
    {
     "enum_field_value" : 8,
     "name" : "FCC_8"
    }
   ],
   "linker_set_key" : "_ZTI6$FCC_2",
   "name" : "(anonymous enum at system/media/audio/include/system/audio-base.h:195:1)",
   "referenced_type" : "_ZTI6$FCC_2",
   "self_type" : "_ZTI6$FCC_2",
   "size" : 4,
   "source_file" : "/system/media/audio/include/system/audio-base.h",
   "underlying_type" : "_ZTIj"
  },
  {
   "alignment" : 4,
   "enum_fields" :
   [
    {
     "enum_field_value" : 0,
     "name" : "LOG_ID_MIN"
    },
    {
     "enum_field_value" : 0,
     "name" : "LOG_ID_MAIN"
    },
    {
     "enum_field_value" : 1,
     "name" : "LOG_ID_RADIO"
    },
    {
     "enum_field_value" : 2,
     "name" : "LOG_ID_EVENTS"
    },
    {
     "enum_field_value" : 3,
     "name" : "LOG_ID_SYSTEM"
    },
    {
     "enum_field_value" : 4,
     "name" : "LOG_ID_CRASH"
    },
    {
     "enum_field_value" : 5,
     "name" : "LOG_ID_STATS"
    },
    {
     "enum_field_value" : 6,
     "name" : "LOG_ID_SECURITY"
    },
    {
     "enum_field_value" : 7,
     "name" : "LOG_ID_KERNEL"
    },
    {
     "enum_field_value" : 8,
     "name" : "LOG_ID_MAX"
    },
    {
     "enum_field_value" : 2147483647,
     "name" : "LOG_ID_DEFAULT"
    }
   ],
   "linker_set_key" : "_ZTI6log_id",
   "name" : "log_id",
   "referenced_type" : "_ZTI6log_id",
   "self_type" : "_ZTI6log_id",
   "size" : 4,
   "source_file" : "/system/core/liblog/include/android/log.h",
   "underlying_type" : "_ZTIj"
  },
  {
   "alignment" : 4,
   "enum_fields" :
   [
    {
     "enum_field_value" : 0,
     "name" : "AMEDIAEXTRACTOR_SEEK_PREVIOUS_SYNC"
    },
    {
     "enum_field_value" : 1,
     "name" : "AMEDIAEXTRACTOR_SEEK_NEXT_SYNC"
    },
    {
     "enum_field_value" : 2,
     "name" : "AMEDIAEXTRACTOR_SEEK_CLOSEST_SYNC"
    }
   ],
   "linker_set_key" : "_ZTI8SeekMode",
   "name" : "SeekMode",
   "referenced_type" : "_ZTI8SeekMode",
   "self_type" : "_ZTI8SeekMode",
   "size" : 4,
   "source_file" : "/frameworks/av/media/ndk/include/media/NdkMediaExtractor.h",
   "underlying_type" : "_ZTIj"
  },
  {
   "alignment" : 8,
   "enum_fields" :
   [
    {
     "enum_field_value" : 0,
     "name" : "aidl::android::hardware::graphics::common::Interlaced::NONE"
    },
    {
     "enum_field_value" : 1,
     "name" : "aidl::android::hardware::graphics::common::Interlaced::TOP_BOTTOM"
    },
    {
     "enum_field_value" : 2,
     "name" : "aidl::android::hardware::graphics::common::Interlaced::RIGHT_LEFT"
    }
   ],
   "linker_set_key" : "_ZTIN4aidl7android8hardware8graphics6common10InterlacedE",
   "name" : "aidl::android::hardware::graphics::common::Interlaced",
   "referenced_type" : "_ZTIN4aidl7android8hardware8graphics6common10InterlacedE",
   "self_type" : "_ZTIN4aidl7android8hardware8graphics6common10InterlacedE",
   "size" : 8,
   "source_file" : "/out/soong/.intermediates/hardware/interfaces/graphics/common/aidl/android.hardware.graphics.common-ndk_platform-source/gen/include/aidl/android/hardware/graphics/common/Interlaced.h",
   "underlying_type" : "_ZTIx"
  },
  {
   "alignment" : 8,
   "enum_fields" :
   [
    {
     "enum_field_value" : 0,
     "name" : "aidl::android::hardware::graphics::common::Compression::NONE"
    },
    {
     "enum_field_value" : 1,
     "name" : "aidl::android::hardware::graphics::common::Compression::DISPLAY_STREAM_COMPRESSION"
    }
   ],
   "linker_set_key" : "_ZTIN4aidl7android8hardware8graphics6common11CompressionE",
   "name" : "aidl::android::hardware::graphics::common::Compression",
   "referenced_type" : "_ZTIN4aidl7android8hardware8graphics6common11CompressionE",
   "self_type" : "_ZTIN4aidl7android8hardware8graphics6common11CompressionE",
   "size" : 8,
   "source_file" : "/out/soong/.intermediates/hardware/interfaces/graphics/common/aidl/android.hardware.graphics.common-ndk_platform-source/gen/include/aidl/android/hardware/graphics/common/Compression.h",
   "underlying_type" : "_ZTIx"
  },
  {
   "alignment" : 8,
   "enum_fields" :
   [
    {
     "enum_field_value" : 0,
     "name" : "aidl::android::hardware::graphics::common::ChromaSiting::NONE"
    },
    {
     "enum_field_value" : 1,
     "name" : "aidl::android::hardware::graphics::common::ChromaSiting::UNKNOWN"
    },
    {
     "enum_field_value" : 2,
     "name" : "aidl::android::hardware::graphics::common::ChromaSiting::SITED_INTERSTITIAL"
    },
    {
     "enum_field_value" : 3,
     "name" : "aidl::android::hardware::graphics::common::ChromaSiting::COSITED_HORIZONTAL"
    }
   ],
   "linker_set_key" : "_ZTIN4aidl7android8hardware8graphics6common12ChromaSitingE",
   "name" : "aidl::android::hardware::graphics::common::ChromaSiting",
   "referenced_type" : "_ZTIN4aidl7android8hardware8graphics6common12ChromaSitingE",
   "self_type" : "_ZTIN4aidl7android8hardware8graphics6common12ChromaSitingE",
   "size" : 8,
   "source_file" : "/out/soong/.intermediates/hardware/interfaces/graphics/common/aidl/android.hardware.graphics.common-ndk_platform-source/gen/include/aidl/android/hardware/graphics/common/ChromaSiting.h",
   "underlying_type" : "_ZTIx"
  },
  {
   "alignment" : 4,
   "enum_fields" :
   [
    {
     "enum_field_value" : 0,
     "name" : "aidl::android::hardware::graphics::common::BlendMode::INVALID"
    },
    {
     "enum_field_value" : 1,
     "name" : "aidl::android::hardware::graphics::common::BlendMode::NONE"
    },
    {
     "enum_field_value" : 2,
     "name" : "aidl::android::hardware::graphics::common::BlendMode::PREMULTIPLIED"
    },
    {
     "enum_field_value" : 3,
     "name" : "aidl::android::hardware::graphics::common::BlendMode::COVERAGE"
    }
   ],
   "linker_set_key" : "_ZTIN4aidl7android8hardware8graphics6common9BlendModeE",
   "name" : "aidl::android::hardware::graphics::common::BlendMode",
   "referenced_type" : "_ZTIN4aidl7android8hardware8graphics6common9BlendModeE",
   "self_type" : "_ZTIN4aidl7android8hardware8graphics6common9BlendModeE",
   "size" : 4,
   "source_file" : "/out/soong/.intermediates/hardware/interfaces/graphics/common/aidl/android.hardware.graphics.common-ndk_platform-source/gen/include/aidl/android/hardware/graphics/common/BlendMode.h",
   "underlying_type" : "_ZTIi"
  },
  {
   "alignment" : 4,
   "enum_fields" :
   [
    {
     "enum_field_value" : -1,
     "name" : "android::BufferItem::INVALID_BUFFER_SLOT"
    }
   ],
   "linker_set_key" : "_ZTIN7android10BufferItem20$INVALID_BUFFER_SLOTE",
   "name" : "android::BufferItem::(anonymous enum at frameworks/native/libs/gui/include/gui/BufferItem.h:46:5)",
   "referenced_type" : "_ZTIN7android10BufferItem20$INVALID_BUFFER_SLOTE",
   "self_type" : "_ZTIN7android10BufferItem20$INVALID_BUFFER_SLOTE",
   "size" : 4,
   "source_file" : "/frameworks/native/libs/gui/include/gui/BufferItem.h",
   "underlying_type" : "_ZTIi"
  },
  {
   "alignment" : 4,
   "enum_fields" :
   [
    {
     "enum_field_value" : 0,
     "name" : "android::FrameEvent::POSTED"
    },
    {
     "enum_field_value" : 1,
     "name" : "android::FrameEvent::REQUESTED_PRESENT"
    },
    {
     "enum_field_value" : 2,
     "name" : "android::FrameEvent::LATCH"
    },
    {
     "enum_field_value" : 3,
     "name" : "android::FrameEvent::ACQUIRE"
    },
    {
     "enum_field_value" : 4,
     "name" : "android::FrameEvent::FIRST_REFRESH_START"
    },
    {
     "enum_field_value" : 5,
     "name" : "android::FrameEvent::LAST_REFRESH_START"
    },
    {
     "enum_field_value" : 6,
     "name" : "android::FrameEvent::GPU_COMPOSITION_DONE"
    },
    {
     "enum_field_value" : 7,
     "name" : "android::FrameEvent::DISPLAY_PRESENT"
    },
    {
     "enum_field_value" : 8,
     "name" : "android::FrameEvent::DEQUEUE_READY"
    },
    {
     "enum_field_value" : 9,
     "name" : "android::FrameEvent::RELEASE"
    },
    {
     "enum_field_value" : 10,
     "name" : "android::FrameEvent::EVENT_COUNT"
    }
   ],
   "linker_set_key" : "_ZTIN7android10FrameEventE",
   "name" : "android::FrameEvent",
   "referenced_type" : "_ZTIN7android10FrameEventE",
   "self_type" : "_ZTIN7android10FrameEventE",
   "size" : 4,
   "source_file" : "/frameworks/native/libs/gui/include/gui/FrameTimestamps.h",
   "underlying_type" : "_ZTIi"
  },
  {
   "alignment" : 4,
   "enum_fields" :
   [
    {
     "enum_field_value" : 1,
     "name" : "android::VectorImpl::HAS_TRIVIAL_CTOR"
    },
    {
     "enum_field_value" : 2,
     "name" : "android::VectorImpl::HAS_TRIVIAL_DTOR"
    },
    {
     "enum_field_value" : 4,
     "name" : "android::VectorImpl::HAS_TRIVIAL_COPY"
    }
   ],
   "linker_set_key" : "_ZTIN7android10VectorImpl17$HAS_TRIVIAL_COPYE",
   "name" : "android::VectorImpl::(anonymous enum at system/core/libutils/include/utils/VectorImpl.h:43:5)",
   "referenced_type" : "_ZTIN7android10VectorImpl17$HAS_TRIVIAL_COPYE",
   "self_type" : "_ZTIN7android10VectorImpl17$HAS_TRIVIAL_COPYE",
   "size" : 4,
   "source_file" : "/system/core/libutils/include/utils/VectorImpl.h",
   "underlying_type" : "_ZTIj"
  },
  {
   "alignment" : 4,
   "enum_fields" :
   [
    {
     "enum_field_value" : 64,
     "name" : "android::BufferQueue::NUM_BUFFER_SLOTS"
    }
   ],
   "linker_set_key" : "_ZTIN7android11BufferQueue17$NUM_BUFFER_SLOTSE",
   "name" : "android::BufferQueue::(anonymous enum at frameworks/native/libs/gui/include/gui/BufferQueue.h:32:5)",
   "referenced_type" : "_ZTIN7android11BufferQueue17$NUM_BUFFER_SLOTSE",
   "self_type" : "_ZTIN7android11BufferQueue17$NUM_BUFFER_SLOTSE",
   "size" : 4,
   "source_file" : "/frameworks/native/libs/gui/include/gui/BufferQueue.h",
   "underlying_type" : "_ZTIj"
  },
  {
   "alignment" : 4,
   "enum_fields" :
   [
    {
     "enum_field_value" : -1,
     "name" : "android::BufferQueue::INVALID_BUFFER_SLOT"
    }
   ],
   "linker_set_key" : "_ZTIN7android11BufferQueue20$INVALID_BUFFER_SLOTE",
   "name" : "android::BufferQueue::(anonymous enum at frameworks/native/libs/gui/include/gui/BufferQueue.h:34:5)",
   "referenced_type" : "_ZTIN7android11BufferQueue20$INVALID_BUFFER_SLOTE",
   "self_type" : "_ZTIN7android11BufferQueue20$INVALID_BUFFER_SLOTE",
   "size" : 4,
   "source_file" : "/frameworks/native/libs/gui/include/gui/BufferQueue.h",
   "underlying_type" : "_ZTIi"
  },
  {
   "alignment" : 4,
   "enum_fields" :
   [
    {
     "enum_field_value" : 2,
     "name" : "android::BufferQueue::NO_BUFFER_AVAILABLE"
    },
    {
     "enum_field_value" : 3,
     "name" : "android::BufferQueue::PRESENT_LATER"
    }
   ],
   "linker_set_key" : "_ZTIN7android11BufferQueue20$NO_BUFFER_AVAILABLEE",
   "name" : "android::BufferQueue::(anonymous enum at frameworks/native/libs/gui/include/gui/BufferQueue.h:36:5)",
   "referenced_type" : "_ZTIN7android11BufferQueue20$NO_BUFFER_AVAILABLEE",
   "self_type" : "_ZTIN7android11BufferQueue20$NO_BUFFER_AVAILABLEE",
   "size" : 4,
   "source_file" : "/frameworks/native/libs/gui/include/gui/BufferQueue.h",
   "underlying_type" : "_ZTIj"
  },
  {
   "alignment" : 4,
   "enum_fields" :
   [
    {
     "enum_field_value" : 62,
     "name" : "android::BufferQueue::MAX_MAX_ACQUIRED_BUFFERS"
    }
   ],
   "linker_set_key" : "_ZTIN7android11BufferQueue25$MAX_MAX_ACQUIRED_BUFFERSE",
   "name" : "android::BufferQueue::(anonymous enum at frameworks/native/libs/gui/include/gui/BufferQueue.h:43:5)",
   "referenced_type" : "_ZTIN7android11BufferQueue25$MAX_MAX_ACQUIRED_BUFFERSE",
   "self_type" : "_ZTIN7android11BufferQueue25$MAX_MAX_ACQUIRED_BUFFERSE",
   "size" : 4,
   "source_file" : "/frameworks/native/libs/gui/include/gui/BufferQueue.h",
   "underlying_type" : "_ZTIj"
  },
  {
   "alignment" : 4,
   "enum_fields" :
   [
    {
     "enum_field_value" : 1,
     "name" : "android::HdrMetadata::SMPTE2086"
    },
    {
     "enum_field_value" : 2,
     "name" : "android::HdrMetadata::CTA861_3"
    },
    {
     "enum_field_value" : 4,
     "name" : "android::HdrMetadata::HDR10PLUS"
    }
   ],
   "linker_set_key" : "_ZTIN7android11HdrMetadata4TypeE",
   "name" : "android::HdrMetadata::Type",
   "referenced_type" : "_ZTIN7android11HdrMetadata4TypeE",
   "self_type" : "_ZTIN7android11HdrMetadata4TypeE",
   "size" : 4,
   "source_file" : "/frameworks/native/libs/gui/include/gui/HdrMetadata.h",
   "underlying_type" : "_ZTIj"
  },
  {
   "alignment" : 4,
   "enum_fields" :
   [
    {
     "enum_field_value" : 1,
     "name" : "android::IMemoryHeap::READ_ONLY"
    }
   ],
   "linker_set_key" : "_ZTIN7android11IMemoryHeap10$READ_ONLYE",
   "name" : "android::IMemoryHeap::(anonymous enum at frameworks/native/libs/binder/include/binder/IMemory.h:38:5)",
   "referenced_type" : "_ZTIN7android11IMemoryHeap10$READ_ONLYE",
   "self_type" : "_ZTIN7android11IMemoryHeap10$READ_ONLYE",
   "size" : 4,
   "source_file" : "/frameworks/native/libs/binder/include/binder/IMemory.h",
   "underlying_type" : "_ZTIj"
  },
  {
   "alignment" : 4,
   "enum_fields" :
   [
    {
     "enum_field_value" : 0,
     "name" : "android::PublicFormat::UNKNOWN"
    },
    {
     "enum_field_value" : 1,
     "name" : "android::PublicFormat::RGBA_8888"
    },
    {
     "enum_field_value" : 2,
     "name" : "android::PublicFormat::RGBX_8888"
    },
    {
     "enum_field_value" : 3,
     "name" : "android::PublicFormat::RGB_888"
    },
    {
     "enum_field_value" : 4,
     "name" : "android::PublicFormat::RGB_565"
    },
    {
     "enum_field_value" : 16,
     "name" : "android::PublicFormat::NV16"
    },
    {
     "enum_field_value" : 17,
     "name" : "android::PublicFormat::NV21"
    },
    {
     "enum_field_value" : 20,
     "name" : "android::PublicFormat::YUY2"
    },
    {
     "enum_field_value" : 22,
     "name" : "android::PublicFormat::RGBA_FP16"
    },
    {
     "enum_field_value" : 32,
     "name" : "android::PublicFormat::RAW_SENSOR"
    },
    {
     "enum_field_value" : 34,
     "name" : "android::PublicFormat::PRIVATE"
    },
    {
     "enum_field_value" : 35,
     "name" : "android::PublicFormat::YUV_420_888"
    },
    {
     "enum_field_value" : 36,
     "name" : "android::PublicFormat::RAW_PRIVATE"
    },
    {
     "enum_field_value" : 37,
     "name" : "android::PublicFormat::RAW10"
    },
    {
     "enum_field_value" : 38,
     "name" : "android::PublicFormat::RAW12"
    },
    {
     "enum_field_value" : 43,
     "name" : "android::PublicFormat::RGBA_1010102"
    },
    {
     "enum_field_value" : 256,
     "name" : "android::PublicFormat::JPEG"
    },
    {
     "enum_field_value" : 257,
     "name" : "android::PublicFormat::DEPTH_POINT_CLOUD"
    },
    {
     "enum_field_value" : 4098,
     "name" : "android::PublicFormat::RAW_DEPTH"
    },
    {
     "enum_field_value" : 842094169,
     "name" : "android::PublicFormat::YV12"
    },
    {
     "enum_field_value" : 538982489,
     "name" : "android::PublicFormat::Y8"
    },
    {
     "enum_field_value" : 540422489,
     "name" : "android::PublicFormat::Y16"
    },
    {
     "enum_field_value" : 1144402265,
     "name" : "android::PublicFormat::DEPTH16"
    },
    {
     "enum_field_value" : 1768253795,
     "name" : "android::PublicFormat::DEPTH_JPEG"
    },
    {
     "enum_field_value" : 1212500294,
     "name" : "android::PublicFormat::HEIC"
    }
   ],
   "linker_set_key" : "_ZTIN7android12PublicFormatE",
   "name" : "android::PublicFormat",
   "referenced_type" : "_ZTIN7android12PublicFormatE",
   "self_type" : "_ZTIN7android12PublicFormatE",
   "size" : 4,
   "source_file" : "/frameworks/native/libs/ui/include/ui/PublicFormat.h",
   "underlying_type" : "_ZTIi"
  },
  {
   "alignment" : 4,
   "enum_fields" :
   [
    {
     "enum_field_value" : 0,
     "name" : "android::GraphicBuffer::USAGE_SW_READ_NEVER"
    },
    {
     "enum_field_value" : 2,
     "name" : "android::GraphicBuffer::USAGE_SW_READ_RARELY"
    },
    {
     "enum_field_value" : 3,
     "name" : "android::GraphicBuffer::USAGE_SW_READ_OFTEN"
    },
    {
     "enum_field_value" : 15,
     "name" : "android::GraphicBuffer::USAGE_SW_READ_MASK"
    },
    {
     "enum_field_value" : 0,
     "name" : "android::GraphicBuffer::USAGE_SW_WRITE_NEVER"
    },
    {
     "enum_field_value" : 32,
     "name" : "android::GraphicBuffer::USAGE_SW_WRITE_RARELY"
    },
    {
     "enum_field_value" : 48,
     "name" : "android::GraphicBuffer::USAGE_SW_WRITE_OFTEN"
    },
    {
     "enum_field_value" : 240,
     "name" : "android::GraphicBuffer::USAGE_SW_WRITE_MASK"
    },
    {
     "enum_field_value" : 255,
     "name" : "android::GraphicBuffer::USAGE_SOFTWARE_MASK"
    },
    {
     "enum_field_value" : 16384,
     "name" : "android::GraphicBuffer::USAGE_PROTECTED"
    },
    {
     "enum_field_value" : 256,
     "name" : "android::GraphicBuffer::USAGE_HW_TEXTURE"
    },
    {
     "enum_field_value" : 512,
     "name" : "android::GraphicBuffer::USAGE_HW_RENDER"
    },
    {
     "enum_field_value" : 1024,
     "name" : "android::GraphicBuffer::USAGE_HW_2D"
    },
    {
     "enum_field_value" : 2048,
     "name" : "android::GraphicBuffer::USAGE_HW_COMPOSER"
    },
    {
     "enum_field_value" : 65536,
     "name" : "android::GraphicBuffer::USAGE_HW_VIDEO_ENCODER"
    },
    {
     "enum_field_value" : 466688,
     "name" : "android::GraphicBuffer::USAGE_HW_MASK"
    },
    {
     "enum_field_value" : 32768,
     "name" : "android::GraphicBuffer::USAGE_CURSOR"
    }
   ],
   "linker_set_key" : "_ZTIN7android13GraphicBuffer13$USAGE_CURSORE",
   "name" : "android::GraphicBuffer::(anonymous enum at frameworks/native/libs/ui/include/ui/GraphicBuffer.h:56:5)",
   "referenced_type" : "_ZTIN7android13GraphicBuffer13$USAGE_CURSORE",
   "self_type" : "_ZTIN7android13GraphicBuffer13$USAGE_CURSORE",
   "size" : 4,
   "source_file" : "/frameworks/native/libs/ui/include/ui/GraphicBuffer.h",
   "underlying_type" : "_ZTIj"
  },
  {
   "alignment" : 1,
   "enum_fields" :
   [
    {
     "enum_field_value" : 0,
     "name" : "android::GraphicBuffer::WRAP_HANDLE"
    },
    {
     "enum_field_value" : 1,
     "name" : "android::GraphicBuffer::TAKE_HANDLE"
    },
    {
     "enum_field_value" : 2,
     "name" : "android::GraphicBuffer::TAKE_UNREGISTERED_HANDLE"
    },
    {
     "enum_field_value" : 3,
     "name" : "android::GraphicBuffer::CLONE_HANDLE"
    }
   ],
   "linker_set_key" : "_ZTIN7android13GraphicBuffer16HandleWrapMethodE",
   "name" : "android::GraphicBuffer::HandleWrapMethod",
   "referenced_type" : "_ZTIN7android13GraphicBuffer16HandleWrapMethodE",
   "self_type" : "_ZTIN7android13GraphicBuffer16HandleWrapMethodE",
   "size" : 1,
   "source_file" : "/frameworks/native/libs/ui/include/ui/GraphicBuffer.h",
   "underlying_type" : "_ZTIh"
  },
  {
   "access" : "private",
   "alignment" : 4,
   "enum_fields" :
   [
    {
     "enum_field_value" : 0,
     "name" : "android::GraphicBuffer::ownNone"
    },
    {
     "enum_field_value" : 1,
     "name" : "android::GraphicBuffer::ownHandle"
    },
    {
     "enum_field_value" : 2,
     "name" : "android::GraphicBuffer::ownData"
    }
   ],
   "linker_set_key" : "_ZTIN7android13GraphicBuffer8$ownDataE",
   "name" : "android::GraphicBuffer::(anonymous enum at frameworks/native/libs/ui/include/ui/GraphicBuffer.h:221:5)",
   "referenced_type" : "_ZTIN7android13GraphicBuffer8$ownDataE",
   "self_type" : "_ZTIN7android13GraphicBuffer8$ownDataE",
   "size" : 4,
   "source_file" : "/frameworks/native/libs/ui/include/ui/GraphicBuffer.h",
   "underlying_type" : "_ZTIj"
  },
  {
   "alignment" : 4,
   "enum_fields" :
   [
    {
     "enum_field_value" : 0,
     "name" : "android::trait_pointer<AMediaDrmKeyStatus>::value"
    }
   ],
   "linker_set_key" : "_ZTIN7android13trait_pointerI18AMediaDrmKeyStatusE6$valueE",
   "name" : "android::trait_pointer<AMediaDrmKeyStatus>::(anonymous enum at system/core/libutils/include/utils/TypeHelpers.h:39:51)",
   "referenced_type" : "_ZTIN7android13trait_pointerI18AMediaDrmKeyStatusE6$valueE",
   "self_type" : "_ZTIN7android13trait_pointerI18AMediaDrmKeyStatusE6$valueE",
   "size" : 4,
   "source_file" : "/system/core/libutils/include/utils/TypeHelpers.h",
   "underlying_type" : "_ZTIj"
  },
  {
   "alignment" : 4,
   "enum_fields" :
   [
    {
     "enum_field_value" : 0,
     "name" : "android::trait_pointer<android::key_value_pair_t<android::String8, android::String8> >::value"
    }
   ],
   "linker_set_key" : "_ZTIN7android13trait_pointerINS_16key_value_pair_tINS_7String8ES2_EEE6$valueE",
   "name" : "android::trait_pointer<key_value_pair_t<String8, String8> >::(anonymous enum at system/core/libutils/include/utils/TypeHelpers.h:39:51)",
   "referenced_type" : "_ZTIN7android13trait_pointerINS_16key_value_pair_tINS_7String8ES2_EEE6$valueE",
   "self_type" : "_ZTIN7android13trait_pointerINS_16key_value_pair_tINS_7String8ES2_EEE6$valueE",
   "size" : 4,
   "source_file" : "/system/core/libutils/include/utils/TypeHelpers.h",
   "underlying_type" : "_ZTIj"
  },
  {
   "alignment" : 4,
   "enum_fields" :
   [
    {
     "enum_field_value" : 0,
     "name" : "android::trait_pointer<android::key_value_pair_t<unsigned int, unsigned int> >::value"
    }
   ],
   "linker_set_key" : "_ZTIN7android13trait_pointerINS_16key_value_pair_tIjjEEE6$valueE",
   "name" : "android::trait_pointer<key_value_pair_t<unsigned int, unsigned int> >::(anonymous enum at system/core/libutils/include/utils/TypeHelpers.h:39:51)",
   "referenced_type" : "_ZTIN7android13trait_pointerINS_16key_value_pair_tIjjEEE6$valueE",
   "self_type" : "_ZTIN7android13trait_pointerINS_16key_value_pair_tIjjEEE6$valueE",
   "size" : 4,
   "source_file" : "/system/core/libutils/include/utils/TypeHelpers.h",
   "underlying_type" : "_ZTIj"
  },
  {
   "alignment" : 4,
   "enum_fields" :
   [
    {
     "enum_field_value" : 0,
     "name" : "android::trait_pointer<android::sp<android::MediaCodecBuffer> >::value"
    }
   ],
   "linker_set_key" : "_ZTIN7android13trait_pointerINS_2spINS_16MediaCodecBufferEEEE6$valueE",
   "name" : "android::trait_pointer<sp<MediaCodecBuffer> >::(anonymous enum at system/core/libutils/include/utils/TypeHelpers.h:39:51)",
   "referenced_type" : "_ZTIN7android13trait_pointerINS_2spINS_16MediaCodecBufferEEEE6$valueE",
   "self_type" : "_ZTIN7android13trait_pointerINS_2spINS_16MediaCodecBufferEEEE6$valueE",
   "size" : 4,
   "source_file" : "/system/core/libutils/include/utils/TypeHelpers.h",
   "underlying_type" : "_ZTIj"
  },
  {
   "alignment" : 4,
   "enum_fields" :
   [
    {
     "enum_field_value" : 0,
     "name" : "android::trait_pointer<android::String8>::value"
    }
   ],
   "linker_set_key" : "_ZTIN7android13trait_pointerINS_7String8EE6$valueE",
   "name" : "android::trait_pointer<String8>::(anonymous enum at system/core/libutils/include/utils/TypeHelpers.h:39:51)",
   "referenced_type" : "_ZTIN7android13trait_pointerINS_7String8EE6$valueE",
   "self_type" : "_ZTIN7android13trait_pointerINS_7String8EE6$valueE",
   "size" : 4,
   "source_file" : "/system/core/libutils/include/utils/TypeHelpers.h",
   "underlying_type" : "_ZTIj"
  },
  {
   "alignment" : 4,
   "enum_fields" :
   [
    {
     "enum_field_value" : 0,
     "name" : "android::trait_pointer<unsigned char>::value"
    }
   ],
   "linker_set_key" : "_ZTIN7android13trait_pointerIhE6$valueE",
   "name" : "android::trait_pointer<unsigned char>::(anonymous enum at system/core/libutils/include/utils/TypeHelpers.h:39:51)",
   "referenced_type" : "_ZTIN7android13trait_pointerIhE6$valueE",
   "self_type" : "_ZTIN7android13trait_pointerIhE6$valueE",
   "size" : 4,
   "source_file" : "/system/core/libutils/include/utils/TypeHelpers.h",
   "underlying_type" : "_ZTIj"
  },
  {
   "alignment" : 4,
   "enum_fields" :
   [
    {
     "enum_field_value" : 0,
     "name" : "android::trait_pointer<unsigned int>::value"
    }
   ],
   "linker_set_key" : "_ZTIN7android13trait_pointerIjE6$valueE",
   "name" : "android::trait_pointer<unsigned int>::(anonymous enum at system/core/libutils/include/utils/TypeHelpers.h:39:51)",
   "referenced_type" : "_ZTIN7android13trait_pointerIjE6$valueE",
   "self_type" : "_ZTIN7android13trait_pointerIjE6$valueE",
   "size" : 4,
   "source_file" : "/system/core/libutils/include/utils/TypeHelpers.h",
   "underlying_type" : "_ZTIj"
  },
  {
   "alignment" : 4,
   "enum_fields" :
   [
    {
     "enum_field_value" : 1,
     "name" : "android::MemoryHeapBase::READ_ONLY"
    },
    {
     "enum_field_value" : 256,
     "name" : "android::MemoryHeapBase::DONT_MAP_LOCALLY"
    },
    {
     "enum_field_value" : 512,
     "name" : "android::MemoryHeapBase::NO_CACHING"
    }
   ],
   "linker_set_key" : "_ZTIN7android14MemoryHeapBase17$DONT_MAP_LOCALLYE",
   "name" : "android::MemoryHeapBase::(anonymous enum at frameworks/native/libs/binder/include/binder/MemoryHeapBase.h:33:5)",
   "referenced_type" : "_ZTIN7android14MemoryHeapBase17$DONT_MAP_LOCALLYE",
   "self_type" : "_ZTIN7android14MemoryHeapBase17$DONT_MAP_LOCALLYE",
   "size" : 4,
   "source_file" : "/frameworks/native/libs/binder/include/binder/MemoryHeapBase.h",
   "underlying_type" : "_ZTIj"
  },
  {
   "alignment" : 4,
   "enum_fields" :
   [
    {
     "enum_field_value" : 0,
     "name" : "android::OK"
    },
    {
     "enum_field_value" : 0,
     "name" : "android::NO_ERROR"
    },
    {
     "enum_field_value" : -2147483648,
     "name" : "android::UNKNOWN_ERROR"
    },
    {
     "enum_field_value" : -12,
     "name" : "android::NO_MEMORY"
    },
    {
     "enum_field_value" : -38,
     "name" : "android::INVALID_OPERATION"
    },
    {
     "enum_field_value" : -22,
     "name" : "android::BAD_VALUE"
    },
    {
     "enum_field_value" : -2147483647,
     "name" : "android::BAD_TYPE"
    },
    {
     "enum_field_value" : -2,
     "name" : "android::NAME_NOT_FOUND"
    },
    {
     "enum_field_value" : -1,
     "name" : "android::PERMISSION_DENIED"
    },
    {
     "enum_field_value" : -19,
     "name" : "android::NO_INIT"
    },
    {
     "enum_field_value" : -17,
     "name" : "android::ALREADY_EXISTS"
    },
    {
     "enum_field_value" : -32,
     "name" : "android::DEAD_OBJECT"
    },
    {
     "enum_field_value" : -2147483646,
     "name" : "android::FAILED_TRANSACTION"
    },
    {
     "enum_field_value" : -75,
     "name" : "android::BAD_INDEX"
    },
    {
     "enum_field_value" : -61,
     "name" : "android::NOT_ENOUGH_DATA"
    },
    {
     "enum_field_value" : -11,
     "name" : "android::WOULD_BLOCK"
    },
    {
     "enum_field_value" : -110,
     "name" : "android::TIMED_OUT"
    },
    {
     "enum_field_value" : -74,
     "name" : "android::UNKNOWN_TRANSACTION"
    },
    {
     "enum_field_value" : -2147483641,
     "name" : "android::FDS_NOT_ALLOWED"
    },
    {
     "enum_field_value" : -2147483640,
     "name" : "android::UNEXPECTED_NULL"
    }
   ],
   "linker_set_key" : "_ZTIN7android15$ALREADY_EXISTSE",
   "name" : "android::(anonymous enum at system/core/libutils/include/utils/Errors.h:43:1)",
   "referenced_type" : "_ZTIN7android15$ALREADY_EXISTSE",
   "self_type" : "_ZTIN7android15$ALREADY_EXISTSE",
   "size" : 4,
   "source_file" : "/system/core/libutils/include/utils/Errors.h",
   "underlying_type" : "_ZTIi"
  },
  {
   "alignment" : 4,
   "enum_fields" :
   [
    {
     "enum_field_value" : 19,
     "name" : "android::PRIORITY_LOWEST"
    },
    {
     "enum_field_value" : 10,
     "name" : "android::PRIORITY_BACKGROUND"
    },
    {
     "enum_field_value" : 0,
     "name" : "android::PRIORITY_NORMAL"
    },
    {
     "enum_field_value" : -2,
     "name" : "android::PRIORITY_FOREGROUND"
    },
    {
     "enum_field_value" : -4,
     "name" : "android::PRIORITY_DISPLAY"
    },
    {
     "enum_field_value" : -8,
     "name" : "android::PRIORITY_URGENT_DISPLAY"
    },
    {
     "enum_field_value" : -16,
     "name" : "android::PRIORITY_AUDIO"
    },
    {
     "enum_field_value" : -19,
     "name" : "android::PRIORITY_URGENT_AUDIO"
    },
    {
     "enum_field_value" : -20,
     "name" : "android::PRIORITY_HIGHEST"
    },
    {
     "enum_field_value" : 0,
     "name" : "android::PRIORITY_DEFAULT"
    },
    {
     "enum_field_value" : -1,
     "name" : "android::PRIORITY_MORE_FAVORABLE"
    },
    {
     "enum_field_value" : 1,
     "name" : "android::PRIORITY_LESS_FAVORABLE"
    }
   ],
   "linker_set_key" : "_ZTIN7android15$PRIORITY_AUDIOE",
   "name" : "android::(anonymous enum at system/core/libutils/include/utils/ThreadDefs.h:53:1)",
   "referenced_type" : "_ZTIN7android15$PRIORITY_AUDIOE",
   "self_type" : "_ZTIN7android15$PRIORITY_AUDIOE",
   "size" : 4,
   "source_file" : "/system/core/libutils/include/utils/ThreadDefs.h",
   "underlying_type" : "_ZTIi"
  },
  {
   "alignment" : 4,
   "enum_fields" :
   [
    {
     "enum_field_value" : 1,
     "name" : "android::BufferQueueDefs::BUFFER_NEEDS_REALLOCATION"
    },
    {
     "enum_field_value" : 2,
     "name" : "android::BufferQueueDefs::RELEASE_ALL_BUFFERS"
    }
   ],
   "linker_set_key" : "_ZTIN7android15BufferQueueDefs26$BUFFER_NEEDS_REALLOCATIONE",
   "name" : "android::BufferQueueDefs::(anonymous enum at frameworks/native/libs/ui/include/ui/BufferQueueDefs.h:27:9)",
   "referenced_type" : "_ZTIN7android15BufferQueueDefs26$BUFFER_NEEDS_REALLOCATIONE",
   "self_type" : "_ZTIN7android15BufferQueueDefs26$BUFFER_NEEDS_REALLOCATIONE",
   "size" : 4,
   "source_file" : "/frameworks/native/libs/ui/include/ui/BufferQueueDefs.h",
   "underlying_type" : "_ZTIj"
  },
  {
   "alignment" : 4,
   "enum_fields" :
   [
    {
     "enum_field_value" : 0,
     "name" : "android::aggregate_traits<android::String8, android::String8>::is_pointer"
    },
    {
     "enum_field_value" : 0,
     "name" : "android::aggregate_traits<android::String8, android::String8>::has_trivial_ctor"
    },
    {
     "enum_field_value" : 0,
     "name" : "android::aggregate_traits<android::String8, android::String8>::has_trivial_dtor"
    },
    {
     "enum_field_value" : 0,
     "name" : "android::aggregate_traits<android::String8, android::String8>::has_trivial_copy"
    },
    {
     "enum_field_value" : 1,
     "name" : "android::aggregate_traits<android::String8, android::String8>::has_trivial_move"
    }
   ],
   "linker_set_key" : "_ZTIN7android16aggregate_traitsINS_7String8ES1_E17$has_trivial_copyE",
   "name" : "android::aggregate_traits<String8, String8>::(anonymous enum at system/core/libutils/include/utils/TypeHelpers.h:60:5)",
   "referenced_type" : "_ZTIN7android16aggregate_traitsINS_7String8ES1_E17$has_trivial_copyE",
   "self_type" : "_ZTIN7android16aggregate_traitsINS_7String8ES1_E17$has_trivial_copyE",
   "size" : 4,
   "source_file" : "/system/core/libutils/include/utils/TypeHelpers.h",
   "underlying_type" : "_ZTIj"
  },
  {
   "alignment" : 4,
   "enum_fields" :
   [
    {
     "enum_field_value" : 0,
     "name" : "android::aggregate_traits<unsigned int, unsigned int>::is_pointer"
    },
    {
     "enum_field_value" : 1,
     "name" : "android::aggregate_traits<unsigned int, unsigned int>::has_trivial_ctor"
    },
    {
     "enum_field_value" : 1,
     "name" : "android::aggregate_traits<unsigned int, unsigned int>::has_trivial_dtor"
    },
    {
     "enum_field_value" : 1,
     "name" : "android::aggregate_traits<unsigned int, unsigned int>::has_trivial_copy"
    },
    {
     "enum_field_value" : 1,
     "name" : "android::aggregate_traits<unsigned int, unsigned int>::has_trivial_move"
    }
   ],
   "linker_set_key" : "_ZTIN7android16aggregate_traitsIjjE17$has_trivial_copyE",
   "name" : "android::aggregate_traits<unsigned int, unsigned int>::(anonymous enum at system/core/libutils/include/utils/TypeHelpers.h:60:5)",
   "referenced_type" : "_ZTIN7android16aggregate_traitsIjjE17$has_trivial_copyE",
   "self_type" : "_ZTIN7android16aggregate_traitsIjjE17$has_trivial_copyE",
   "size" : 4,
   "source_file" : "/system/core/libutils/include/utils/TypeHelpers.h",
   "underlying_type" : "_ZTIj"
  },
  {
   "alignment" : 4,
   "enum_fields" :
   [
    {
     "enum_field_value" : -1,
     "name" : "android::BufferItemConsumer::DEFAULT_MAX_BUFFERS"
    }
   ],
   "linker_set_key" : "_ZTIN7android18BufferItemConsumer20$DEFAULT_MAX_BUFFERSE",
   "name" : "android::BufferItemConsumer::(anonymous enum at frameworks/native/libs/gui/include/gui/BufferItemConsumer.h:44:5)",
   "referenced_type" : "_ZTIN7android18BufferItemConsumer20$DEFAULT_MAX_BUFFERSE",
   "self_type" : "_ZTIN7android18BufferItemConsumer20$DEFAULT_MAX_BUFFERSE",
   "size" : 4,
   "source_file" : "/frameworks/native/libs/gui/include/gui/BufferItemConsumer.h",
   "underlying_type" : "_ZTIi"
  },
  {
   "alignment" : 4,
   "enum_fields" :
   [
    {
     "enum_field_value" : -1,
     "name" : "android::BufferItemConsumer::INVALID_BUFFER_SLOT"
    }
   ],
   "linker_set_key" : "_ZTIN7android18BufferItemConsumer20$INVALID_BUFFER_SLOTE",
   "name" : "android::BufferItemConsumer::(anonymous enum at frameworks/native/libs/gui/include/gui/BufferItemConsumer.h:45:5)",
   "referenced_type" : "_ZTIN7android18BufferItemConsumer20$INVALID_BUFFER_SLOTE",
   "self_type" : "_ZTIN7android18BufferItemConsumer20$INVALID_BUFFER_SLOTE",
   "size" : 4,
   "source_file" : "/frameworks/native/libs/gui/include/gui/BufferItemConsumer.h",
   "underlying_type" : "_ZTIi"
  },
  {
   "alignment" : 4,
   "enum_fields" :
   [
    {
     "enum_field_value" : 2,
     "name" : "android::BufferItemConsumer::NO_BUFFER_AVAILABLE"
    }
   ],
   "linker_set_key" : "_ZTIN7android18BufferItemConsumer20$NO_BUFFER_AVAILABLEE",
   "name" : "android::BufferItemConsumer::(anonymous enum at frameworks/native/libs/gui/include/gui/BufferItemConsumer.h:46:5)",
   "referenced_type" : "_ZTIN7android18BufferItemConsumer20$NO_BUFFER_AVAILABLEE",
   "self_type" : "_ZTIN7android18BufferItemConsumer20$NO_BUFFER_AVAILABLEE",
   "size" : 4,
   "source_file" : "/frameworks/native/libs/gui/include/gui/BufferItemConsumer.h",
   "underlying_type" : "_ZTIj"
  },
  {
   "alignment" : 4,
   "enum_fields" :
   [
    {
     "enum_field_value" : 0,
     "name" : "android::trait_trivial_copy<AMediaDrmKeyStatus>::value"
    }
   ],
   "linker_set_key" : "_ZTIN7android18trait_trivial_copyI18AMediaDrmKeyStatusE6$valueE",
   "name" : "android::trait_trivial_copy<AMediaDrmKeyStatus>::(anonymous enum at system/core/libutils/include/utils/TypeHelpers.h:37:51)",
   "referenced_type" : "_ZTIN7android18trait_trivial_copyI18AMediaDrmKeyStatusE6$valueE",
   "self_type" : "_ZTIN7android18trait_trivial_copyI18AMediaDrmKeyStatusE6$valueE",
   "size" : 4,
   "source_file" : "/system/core/libutils/include/utils/TypeHelpers.h",
   "underlying_type" : "_ZTIj"
  },
  {
   "alignment" : 4,
   "enum_fields" :
   [
    {
     "enum_field_value" : 0,
     "name" : "android::trait_trivial_copy<android::key_value_pair_t<android::String8, android::String8> >::value"
    }
   ],
   "linker_set_key" : "_ZTIN7android18trait_trivial_copyINS_16key_value_pair_tINS_7String8ES2_EEE6$valueE",
   "name" : "android::trait_trivial_copy<key_value_pair_t<String8, String8> >::(anonymous enum at system/core/libutils/include/utils/TypeHelpers.h:287:3)",
   "referenced_type" : "_ZTIN7android18trait_trivial_copyINS_16key_value_pair_tINS_7String8ES2_EEE6$valueE",
   "self_type" : "_ZTIN7android18trait_trivial_copyINS_16key_value_pair_tINS_7String8ES2_EEE6$valueE",
   "size" : 4,
   "source_file" : "/system/core/libutils/include/utils/TypeHelpers.h",
   "underlying_type" : "_ZTIj"
  },
  {
   "alignment" : 4,
   "enum_fields" :
   [
    {
     "enum_field_value" : 1,
     "name" : "android::trait_trivial_copy<android::key_value_pair_t<unsigned int, unsigned int> >::value"
    }
   ],
   "linker_set_key" : "_ZTIN7android18trait_trivial_copyINS_16key_value_pair_tIjjEEE6$valueE",
   "name" : "android::trait_trivial_copy<key_value_pair_t<unsigned int, unsigned int> >::(anonymous enum at system/core/libutils/include/utils/TypeHelpers.h:287:3)",
   "referenced_type" : "_ZTIN7android18trait_trivial_copyINS_16key_value_pair_tIjjEEE6$valueE",
   "self_type" : "_ZTIN7android18trait_trivial_copyINS_16key_value_pair_tIjjEEE6$valueE",
   "size" : 4,
   "source_file" : "/system/core/libutils/include/utils/TypeHelpers.h",
   "underlying_type" : "_ZTIj"
  },
  {
   "alignment" : 4,
   "enum_fields" :
   [
    {
     "enum_field_value" : 0,
     "name" : "android::trait_trivial_copy<android::sp<android::MediaCodecBuffer> >::value"
    }
   ],
   "linker_set_key" : "_ZTIN7android18trait_trivial_copyINS_2spINS_16MediaCodecBufferEEEE6$valueE",
   "name" : "android::trait_trivial_copy<sp<MediaCodecBuffer> >::(anonymous enum at system/core/libutils/include/utils/TypeHelpers.h:37:51)",
   "referenced_type" : "_ZTIN7android18trait_trivial_copyINS_2spINS_16MediaCodecBufferEEEE6$valueE",
   "self_type" : "_ZTIN7android18trait_trivial_copyINS_2spINS_16MediaCodecBufferEEEE6$valueE",
   "size" : 4,
   "source_file" : "/system/core/libutils/include/utils/TypeHelpers.h",
   "underlying_type" : "_ZTIj"
  },
  {
   "alignment" : 4,
   "enum_fields" :
   [
    {
     "enum_field_value" : 1,
     "name" : "android::trait_trivial_copy<android::Rect>::value"
    }
   ],
   "linker_set_key" : "_ZTIN7android18trait_trivial_copyINS_4RectEE6$valueE",
   "name" : "android::trait_trivial_copy<Rect>::(anonymous enum at frameworks/native/libs/ui/include/ui/Rect.h:225:1)",
   "referenced_type" : "_ZTIN7android18trait_trivial_copyINS_4RectEE6$valueE",
   "self_type" : "_ZTIN7android18trait_trivial_copyINS_4RectEE6$valueE",
   "size" : 4,
   "source_file" : "/frameworks/native/libs/ui/include/ui/Rect.h",
   "underlying_type" : "_ZTIj"
  },
  {
   "alignment" : 4,
   "enum_fields" :
   [
    {
     "enum_field_value" : 1,
     "name" : "android::trait_trivial_copy<android::Point>::value"
    }
   ],
   "linker_set_key" : "_ZTIN7android18trait_trivial_copyINS_5PointEE6$valueE",
   "name" : "android::trait_trivial_copy<Point>::(anonymous enum at frameworks/native/libs/ui/include/ui/Point.h:84:1)",
   "referenced_type" : "_ZTIN7android18trait_trivial_copyINS_5PointEE6$valueE",
   "self_type" : "_ZTIN7android18trait_trivial_copyINS_5PointEE6$valueE",
   "size" : 4,
   "source_file" : "/frameworks/native/libs/ui/include/ui/Point.h",
   "underlying_type" : "_ZTIj"
  },
  {
   "alignment" : 4,
   "enum_fields" :
   [
    {
     "enum_field_value" : 0,
     "name" : "android::trait_trivial_copy<android::String8>::value"
    }
   ],
   "linker_set_key" : "_ZTIN7android18trait_trivial_copyINS_7String8EE6$valueE",
   "name" : "android::trait_trivial_copy<String8>::(anonymous enum at system/core/libutils/include/utils/TypeHelpers.h:37:51)",
   "referenced_type" : "_ZTIN7android18trait_trivial_copyINS_7String8EE6$valueE",
   "self_type" : "_ZTIN7android18trait_trivial_copyINS_7String8EE6$valueE",
   "size" : 4,
   "source_file" : "/system/core/libutils/include/utils/TypeHelpers.h",
   "underlying_type" : "_ZTIj"
  },
  {
   "alignment" : 4,
   "enum_fields" :
   [
    {
     "enum_field_value" : 1,
     "name" : "android::trait_trivial_copy<bool>::value"
    }
   ],
   "linker_set_key" : "_ZTIN7android18trait_trivial_copyIbE6$valueE",
   "name" : "android::trait_trivial_copy<bool>::(anonymous enum at system/core/libutils/include/utils/TypeHelpers.h:98:1)",
   "referenced_type" : "_ZTIN7android18trait_trivial_copyIbE6$valueE",
   "self_type" : "_ZTIN7android18trait_trivial_copyIbE6$valueE",
   "size" : 4,
   "source_file" : "/system/core/libutils/include/utils/TypeHelpers.h",
   "underlying_type" : "_ZTIj"
  },
  {
   "alignment" : 4,
   "enum_fields" :
   [
    {
     "enum_field_value" : 1,
     "name" : "android::trait_trivial_copy<char>::value"
    }
   ],
   "linker_set_key" : "_ZTIN7android18trait_trivial_copyIcE6$valueE",
   "name" : "android::trait_trivial_copy<char>::(anonymous enum at system/core/libutils/include/utils/TypeHelpers.h:99:1)",
   "referenced_type" : "_ZTIN7android18trait_trivial_copyIcE6$valueE",
   "self_type" : "_ZTIN7android18trait_trivial_copyIcE6$valueE",
   "size" : 4,
   "source_file" : "/system/core/libutils/include/utils/TypeHelpers.h",
   "underlying_type" : "_ZTIj"
  },
  {
   "alignment" : 4,
   "enum_fields" :
   [
    {
     "enum_field_value" : 1,
     "name" : "android::trait_trivial_copy<double>::value"
    }
   ],
   "linker_set_key" : "_ZTIN7android18trait_trivial_copyIdE6$valueE",
   "name" : "android::trait_trivial_copy<double>::(anonymous enum at system/core/libutils/include/utils/TypeHelpers.h:110:1)",
   "referenced_type" : "_ZTIN7android18trait_trivial_copyIdE6$valueE",
   "self_type" : "_ZTIN7android18trait_trivial_copyIdE6$valueE",
   "size" : 4,
   "source_file" : "/system/core/libutils/include/utils/TypeHelpers.h",
   "underlying_type" : "_ZTIj"
  },
  {
   "alignment" : 4,
   "enum_fields" :
   [
    {
     "enum_field_value" : 1,
     "name" : "android::trait_trivial_copy<float>::value"
    }
   ],
   "linker_set_key" : "_ZTIN7android18trait_trivial_copyIfE6$valueE",
   "name" : "android::trait_trivial_copy<float>::(anonymous enum at system/core/libutils/include/utils/TypeHelpers.h:109:1)",
   "referenced_type" : "_ZTIN7android18trait_trivial_copyIfE6$valueE",
   "self_type" : "_ZTIN7android18trait_trivial_copyIfE6$valueE",
   "size" : 4,
   "source_file" : "/system/core/libutils/include/utils/TypeHelpers.h",
   "underlying_type" : "_ZTIj"
  },
  {
   "alignment" : 4,
   "enum_fields" :
   [
    {
     "enum_field_value" : 1,
     "name" : "android::trait_trivial_copy<unsigned char>::value"
    }
   ],
   "linker_set_key" : "_ZTIN7android18trait_trivial_copyIhE6$valueE",
   "name" : "android::trait_trivial_copy<unsigned char>::(anonymous enum at system/core/libutils/include/utils/TypeHelpers.h:100:1)",
   "referenced_type" : "_ZTIN7android18trait_trivial_copyIhE6$valueE",
   "self_type" : "_ZTIN7android18trait_trivial_copyIhE6$valueE",
   "size" : 4,
   "source_file" : "/system/core/libutils/include/utils/TypeHelpers.h",
   "underlying_type" : "_ZTIj"
  },
  {
   "alignment" : 4,
   "enum_fields" :
   [
    {
     "enum_field_value" : 1,
     "name" : "android::trait_trivial_copy<int>::value"
    }
   ],
   "linker_set_key" : "_ZTIN7android18trait_trivial_copyIiE6$valueE",
   "name" : "android::trait_trivial_copy<int>::(anonymous enum at system/core/libutils/include/utils/TypeHelpers.h:103:1)",
   "referenced_type" : "_ZTIN7android18trait_trivial_copyIiE6$valueE",
   "self_type" : "_ZTIN7android18trait_trivial_copyIiE6$valueE",
   "size" : 4,
   "source_file" : "/system/core/libutils/include/utils/TypeHelpers.h",
   "underlying_type" : "_ZTIj"
  },
  {
   "alignment" : 4,
   "enum_fields" :
   [
    {
     "enum_field_value" : 1,
     "name" : "android::trait_trivial_copy<unsigned int>::value"
    }
   ],
   "linker_set_key" : "_ZTIN7android18trait_trivial_copyIjE6$valueE",
   "name" : "android::trait_trivial_copy<unsigned int>::(anonymous enum at system/core/libutils/include/utils/TypeHelpers.h:104:1)",
   "referenced_type" : "_ZTIN7android18trait_trivial_copyIjE6$valueE",
   "self_type" : "_ZTIN7android18trait_trivial_copyIjE6$valueE",
   "size" : 4,
   "source_file" : "/system/core/libutils/include/utils/TypeHelpers.h",
   "underlying_type" : "_ZTIj"
  },
  {
   "alignment" : 4,
   "enum_fields" :
   [
    {
     "enum_field_value" : 1,
     "name" : "android::trait_trivial_copy<long>::value"
    }
   ],
   "linker_set_key" : "_ZTIN7android18trait_trivial_copyIlE6$valueE",
   "name" : "android::trait_trivial_copy<long>::(anonymous enum at system/core/libutils/include/utils/TypeHelpers.h:105:1)",
   "referenced_type" : "_ZTIN7android18trait_trivial_copyIlE6$valueE",
   "self_type" : "_ZTIN7android18trait_trivial_copyIlE6$valueE",
   "size" : 4,
   "source_file" : "/system/core/libutils/include/utils/TypeHelpers.h",
   "underlying_type" : "_ZTIj"
  },
  {
   "alignment" : 4,
   "enum_fields" :
   [
    {
     "enum_field_value" : 1,
     "name" : "android::trait_trivial_copy<unsigned long>::value"
    }
   ],
   "linker_set_key" : "_ZTIN7android18trait_trivial_copyImE6$valueE",
   "name" : "android::trait_trivial_copy<unsigned long>::(anonymous enum at system/core/libutils/include/utils/TypeHelpers.h:106:1)",
   "referenced_type" : "_ZTIN7android18trait_trivial_copyImE6$valueE",
   "self_type" : "_ZTIN7android18trait_trivial_copyImE6$valueE",
   "size" : 4,
   "source_file" : "/system/core/libutils/include/utils/TypeHelpers.h",
   "underlying_type" : "_ZTIj"
  },
  {
   "alignment" : 4,
   "enum_fields" :
   [
    {
     "enum_field_value" : 1,
     "name" : "android::trait_trivial_copy<short>::value"
    }
   ],
   "linker_set_key" : "_ZTIN7android18trait_trivial_copyIsE6$valueE",
   "name" : "android::trait_trivial_copy<short>::(anonymous enum at system/core/libutils/include/utils/TypeHelpers.h:101:1)",
   "referenced_type" : "_ZTIN7android18trait_trivial_copyIsE6$valueE",
   "self_type" : "_ZTIN7android18trait_trivial_copyIsE6$valueE",
   "size" : 4,
   "source_file" : "/system/core/libutils/include/utils/TypeHelpers.h",
   "underlying_type" : "_ZTIj"
  },
  {
   "alignment" : 4,
   "enum_fields" :
   [
    {
     "enum_field_value" : 1,
     "name" : "android::trait_trivial_copy<unsigned short>::value"
    }
   ],
   "linker_set_key" : "_ZTIN7android18trait_trivial_copyItE6$valueE",
   "name" : "android::trait_trivial_copy<unsigned short>::(anonymous enum at system/core/libutils/include/utils/TypeHelpers.h:102:1)",
   "referenced_type" : "_ZTIN7android18trait_trivial_copyItE6$valueE",
   "self_type" : "_ZTIN7android18trait_trivial_copyItE6$valueE",
   "size" : 4,
   "source_file" : "/system/core/libutils/include/utils/TypeHelpers.h",
   "underlying_type" : "_ZTIj"
  },
  {
   "alignment" : 4,
   "enum_fields" :
   [
    {
     "enum_field_value" : 1,
     "name" : "android::trait_trivial_copy<void>::value"
    }
   ],
   "linker_set_key" : "_ZTIN7android18trait_trivial_copyIvE6$valueE",
   "name" : "android::trait_trivial_copy<void>::(anonymous enum at system/core/libutils/include/utils/TypeHelpers.h:97:1)",
   "referenced_type" : "_ZTIN7android18trait_trivial_copyIvE6$valueE",
   "self_type" : "_ZTIN7android18trait_trivial_copyIvE6$valueE",
   "size" : 4,
   "source_file" : "/system/core/libutils/include/utils/TypeHelpers.h",
   "underlying_type" : "_ZTIj"
  },
  {
   "alignment" : 4,
   "enum_fields" :
   [
    {
     "enum_field_value" : 1,
     "name" : "android::trait_trivial_copy<long long>::value"
    }
   ],
   "linker_set_key" : "_ZTIN7android18trait_trivial_copyIxE6$valueE",
   "name" : "android::trait_trivial_copy<long long>::(anonymous enum at system/core/libutils/include/utils/TypeHelpers.h:107:1)",
   "referenced_type" : "_ZTIN7android18trait_trivial_copyIxE6$valueE",
   "self_type" : "_ZTIN7android18trait_trivial_copyIxE6$valueE",
   "size" : 4,
   "source_file" : "/system/core/libutils/include/utils/TypeHelpers.h",
   "underlying_type" : "_ZTIj"
  },
  {
   "alignment" : 4,
   "enum_fields" :
   [
    {
     "enum_field_value" : 1,
     "name" : "android::trait_trivial_copy<unsigned long long>::value"
    }
   ],
   "linker_set_key" : "_ZTIN7android18trait_trivial_copyIyE6$valueE",
   "name" : "android::trait_trivial_copy<unsigned long long>::(anonymous enum at system/core/libutils/include/utils/TypeHelpers.h:108:1)",
   "referenced_type" : "_ZTIN7android18trait_trivial_copyIyE6$valueE",
   "self_type" : "_ZTIN7android18trait_trivial_copyIyE6$valueE",
   "size" : 4,
   "source_file" : "/system/core/libutils/include/utils/TypeHelpers.h",
   "underlying_type" : "_ZTIj"
  },
  {
   "alignment" : 4,
   "enum_fields" :
   [
    {
     "enum_field_value" : 0,
     "name" : "android::trait_trivial_ctor<AMediaDrmKeyStatus>::value"
    }
   ],
   "linker_set_key" : "_ZTIN7android18trait_trivial_ctorI18AMediaDrmKeyStatusE6$valueE",
   "name" : "android::trait_trivial_ctor<AMediaDrmKeyStatus>::(anonymous enum at system/core/libutils/include/utils/TypeHelpers.h:35:51)",
   "referenced_type" : "_ZTIN7android18trait_trivial_ctorI18AMediaDrmKeyStatusE6$valueE",
   "self_type" : "_ZTIN7android18trait_trivial_ctorI18AMediaDrmKeyStatusE6$valueE",
   "size" : 4,
   "source_file" : "/system/core/libutils/include/utils/TypeHelpers.h",
   "underlying_type" : "_ZTIj"
  },
  {
   "alignment" : 4,
   "enum_fields" :
   [
    {
     "enum_field_value" : 0,
     "name" : "android::trait_trivial_ctor<android::key_value_pair_t<android::String8, android::String8> >::value"
    }
   ],
   "linker_set_key" : "_ZTIN7android18trait_trivial_ctorINS_16key_value_pair_tINS_7String8ES2_EEE6$valueE",
   "name" : "android::trait_trivial_ctor<key_value_pair_t<String8, String8> >::(anonymous enum at system/core/libutils/include/utils/TypeHelpers.h:281:3)",
   "referenced_type" : "_ZTIN7android18trait_trivial_ctorINS_16key_value_pair_tINS_7String8ES2_EEE6$valueE",
   "self_type" : "_ZTIN7android18trait_trivial_ctorINS_16key_value_pair_tINS_7String8ES2_EEE6$valueE",
   "size" : 4,
   "source_file" : "/system/core/libutils/include/utils/TypeHelpers.h",
   "underlying_type" : "_ZTIj"
  },
  {
   "alignment" : 4,
   "enum_fields" :
   [
    {
     "enum_field_value" : 1,
     "name" : "android::trait_trivial_ctor<android::key_value_pair_t<unsigned int, unsigned int> >::value"
    }
   ],
   "linker_set_key" : "_ZTIN7android18trait_trivial_ctorINS_16key_value_pair_tIjjEEE6$valueE",
   "name" : "android::trait_trivial_ctor<key_value_pair_t<unsigned int, unsigned int> >::(anonymous enum at system/core/libutils/include/utils/TypeHelpers.h:281:3)",
   "referenced_type" : "_ZTIN7android18trait_trivial_ctorINS_16key_value_pair_tIjjEEE6$valueE",
   "self_type" : "_ZTIN7android18trait_trivial_ctorINS_16key_value_pair_tIjjEEE6$valueE",
   "size" : 4,
   "source_file" : "/system/core/libutils/include/utils/TypeHelpers.h",
   "underlying_type" : "_ZTIj"
  },
  {
   "alignment" : 4,
   "enum_fields" :
   [
    {
     "enum_field_value" : 0,
     "name" : "android::trait_trivial_ctor<android::sp<android::MediaCodecBuffer> >::value"
    }
   ],
   "linker_set_key" : "_ZTIN7android18trait_trivial_ctorINS_2spINS_16MediaCodecBufferEEEE6$valueE",
   "name" : "android::trait_trivial_ctor<sp<MediaCodecBuffer> >::(anonymous enum at system/core/libutils/include/utils/TypeHelpers.h:35:51)",
   "referenced_type" : "_ZTIN7android18trait_trivial_ctorINS_2spINS_16MediaCodecBufferEEEE6$valueE",
   "self_type" : "_ZTIN7android18trait_trivial_ctorINS_2spINS_16MediaCodecBufferEEEE6$valueE",
   "size" : 4,
   "source_file" : "/system/core/libutils/include/utils/TypeHelpers.h",
   "underlying_type" : "_ZTIj"
  },
  {
   "alignment" : 4,
   "enum_fields" :
   [
    {
     "enum_field_value" : 1,
     "name" : "android::trait_trivial_ctor<android::Rect>::value"
    }
   ],
   "linker_set_key" : "_ZTIN7android18trait_trivial_ctorINS_4RectEE6$valueE",
   "name" : "android::trait_trivial_ctor<Rect>::(anonymous enum at frameworks/native/libs/ui/include/ui/Rect.h:225:1)",
   "referenced_type" : "_ZTIN7android18trait_trivial_ctorINS_4RectEE6$valueE",
   "self_type" : "_ZTIN7android18trait_trivial_ctorINS_4RectEE6$valueE",
   "size" : 4,
   "source_file" : "/frameworks/native/libs/ui/include/ui/Rect.h",
   "underlying_type" : "_ZTIj"
  },
  {
   "alignment" : 4,
   "enum_fields" :
   [
    {
     "enum_field_value" : 1,
     "name" : "android::trait_trivial_ctor<android::Point>::value"
    }
   ],
   "linker_set_key" : "_ZTIN7android18trait_trivial_ctorINS_5PointEE6$valueE",
   "name" : "android::trait_trivial_ctor<Point>::(anonymous enum at frameworks/native/libs/ui/include/ui/Point.h:84:1)",
   "referenced_type" : "_ZTIN7android18trait_trivial_ctorINS_5PointEE6$valueE",
   "self_type" : "_ZTIN7android18trait_trivial_ctorINS_5PointEE6$valueE",
   "size" : 4,
   "source_file" : "/frameworks/native/libs/ui/include/ui/Point.h",
   "underlying_type" : "_ZTIj"
  },
  {
   "alignment" : 4,
   "enum_fields" :
   [
    {
     "enum_field_value" : 0,
     "name" : "android::trait_trivial_ctor<android::String8>::value"
    }
   ],
   "linker_set_key" : "_ZTIN7android18trait_trivial_ctorINS_7String8EE6$valueE",
   "name" : "android::trait_trivial_ctor<String8>::(anonymous enum at system/core/libutils/include/utils/TypeHelpers.h:35:51)",
   "referenced_type" : "_ZTIN7android18trait_trivial_ctorINS_7String8EE6$valueE",
   "self_type" : "_ZTIN7android18trait_trivial_ctorINS_7String8EE6$valueE",
   "size" : 4,
   "source_file" : "/system/core/libutils/include/utils/TypeHelpers.h",
   "underlying_type" : "_ZTIj"
  },
  {
   "alignment" : 4,
   "enum_fields" :
   [
    {
     "enum_field_value" : 1,
     "name" : "android::trait_trivial_ctor<bool>::value"
    }
   ],
   "linker_set_key" : "_ZTIN7android18trait_trivial_ctorIbE6$valueE",
   "name" : "android::trait_trivial_ctor<bool>::(anonymous enum at system/core/libutils/include/utils/TypeHelpers.h:98:1)",
   "referenced_type" : "_ZTIN7android18trait_trivial_ctorIbE6$valueE",
   "self_type" : "_ZTIN7android18trait_trivial_ctorIbE6$valueE",
   "size" : 4,
   "source_file" : "/system/core/libutils/include/utils/TypeHelpers.h",
   "underlying_type" : "_ZTIj"
  },
  {
   "alignment" : 4,
   "enum_fields" :
   [
    {
     "enum_field_value" : 1,
     "name" : "android::trait_trivial_ctor<char>::value"
    }
   ],
   "linker_set_key" : "_ZTIN7android18trait_trivial_ctorIcE6$valueE",
   "name" : "android::trait_trivial_ctor<char>::(anonymous enum at system/core/libutils/include/utils/TypeHelpers.h:99:1)",
   "referenced_type" : "_ZTIN7android18trait_trivial_ctorIcE6$valueE",
   "self_type" : "_ZTIN7android18trait_trivial_ctorIcE6$valueE",
   "size" : 4,
   "source_file" : "/system/core/libutils/include/utils/TypeHelpers.h",
   "underlying_type" : "_ZTIj"
  },
  {
   "alignment" : 4,
   "enum_fields" :
   [
    {
     "enum_field_value" : 1,
     "name" : "android::trait_trivial_ctor<double>::value"
    }
   ],
   "linker_set_key" : "_ZTIN7android18trait_trivial_ctorIdE6$valueE",
   "name" : "android::trait_trivial_ctor<double>::(anonymous enum at system/core/libutils/include/utils/TypeHelpers.h:110:1)",
   "referenced_type" : "_ZTIN7android18trait_trivial_ctorIdE6$valueE",
   "self_type" : "_ZTIN7android18trait_trivial_ctorIdE6$valueE",
   "size" : 4,
   "source_file" : "/system/core/libutils/include/utils/TypeHelpers.h",
   "underlying_type" : "_ZTIj"
  },
  {
   "alignment" : 4,
   "enum_fields" :
   [
    {
     "enum_field_value" : 1,
     "name" : "android::trait_trivial_ctor<float>::value"
    }
   ],
   "linker_set_key" : "_ZTIN7android18trait_trivial_ctorIfE6$valueE",
   "name" : "android::trait_trivial_ctor<float>::(anonymous enum at system/core/libutils/include/utils/TypeHelpers.h:109:1)",
   "referenced_type" : "_ZTIN7android18trait_trivial_ctorIfE6$valueE",
   "self_type" : "_ZTIN7android18trait_trivial_ctorIfE6$valueE",
   "size" : 4,
   "source_file" : "/system/core/libutils/include/utils/TypeHelpers.h",
   "underlying_type" : "_ZTIj"
  },
  {
   "alignment" : 4,
   "enum_fields" :
   [
    {
     "enum_field_value" : 1,
     "name" : "android::trait_trivial_ctor<unsigned char>::value"
    }
   ],
   "linker_set_key" : "_ZTIN7android18trait_trivial_ctorIhE6$valueE",
   "name" : "android::trait_trivial_ctor<unsigned char>::(anonymous enum at system/core/libutils/include/utils/TypeHelpers.h:100:1)",
   "referenced_type" : "_ZTIN7android18trait_trivial_ctorIhE6$valueE",
   "self_type" : "_ZTIN7android18trait_trivial_ctorIhE6$valueE",
   "size" : 4,
   "source_file" : "/system/core/libutils/include/utils/TypeHelpers.h",
   "underlying_type" : "_ZTIj"
  },
  {
   "alignment" : 4,
   "enum_fields" :
   [
    {
     "enum_field_value" : 1,
     "name" : "android::trait_trivial_ctor<int>::value"
    }
   ],
   "linker_set_key" : "_ZTIN7android18trait_trivial_ctorIiE6$valueE",
   "name" : "android::trait_trivial_ctor<int>::(anonymous enum at system/core/libutils/include/utils/TypeHelpers.h:103:1)",
   "referenced_type" : "_ZTIN7android18trait_trivial_ctorIiE6$valueE",
   "self_type" : "_ZTIN7android18trait_trivial_ctorIiE6$valueE",
   "size" : 4,
   "source_file" : "/system/core/libutils/include/utils/TypeHelpers.h",
   "underlying_type" : "_ZTIj"
  },
  {
   "alignment" : 4,
   "enum_fields" :
   [
    {
     "enum_field_value" : 1,
     "name" : "android::trait_trivial_ctor<unsigned int>::value"
    }
   ],
   "linker_set_key" : "_ZTIN7android18trait_trivial_ctorIjE6$valueE",
   "name" : "android::trait_trivial_ctor<unsigned int>::(anonymous enum at system/core/libutils/include/utils/TypeHelpers.h:104:1)",
   "referenced_type" : "_ZTIN7android18trait_trivial_ctorIjE6$valueE",
   "self_type" : "_ZTIN7android18trait_trivial_ctorIjE6$valueE",
   "size" : 4,
   "source_file" : "/system/core/libutils/include/utils/TypeHelpers.h",
   "underlying_type" : "_ZTIj"
  },
  {
   "alignment" : 4,
   "enum_fields" :
   [
    {
     "enum_field_value" : 1,
     "name" : "android::trait_trivial_ctor<long>::value"
    }
   ],
   "linker_set_key" : "_ZTIN7android18trait_trivial_ctorIlE6$valueE",
   "name" : "android::trait_trivial_ctor<long>::(anonymous enum at system/core/libutils/include/utils/TypeHelpers.h:105:1)",
   "referenced_type" : "_ZTIN7android18trait_trivial_ctorIlE6$valueE",
   "self_type" : "_ZTIN7android18trait_trivial_ctorIlE6$valueE",
   "size" : 4,
   "source_file" : "/system/core/libutils/include/utils/TypeHelpers.h",
   "underlying_type" : "_ZTIj"
  },
  {
   "alignment" : 4,
   "enum_fields" :
   [
    {
     "enum_field_value" : 1,
     "name" : "android::trait_trivial_ctor<unsigned long>::value"
    }
   ],
   "linker_set_key" : "_ZTIN7android18trait_trivial_ctorImE6$valueE",
   "name" : "android::trait_trivial_ctor<unsigned long>::(anonymous enum at system/core/libutils/include/utils/TypeHelpers.h:106:1)",
   "referenced_type" : "_ZTIN7android18trait_trivial_ctorImE6$valueE",
   "self_type" : "_ZTIN7android18trait_trivial_ctorImE6$valueE",
   "size" : 4,
   "source_file" : "/system/core/libutils/include/utils/TypeHelpers.h",
   "underlying_type" : "_ZTIj"
  },
  {
   "alignment" : 4,
   "enum_fields" :
   [
    {
     "enum_field_value" : 1,
     "name" : "android::trait_trivial_ctor<short>::value"
    }
   ],
   "linker_set_key" : "_ZTIN7android18trait_trivial_ctorIsE6$valueE",
   "name" : "android::trait_trivial_ctor<short>::(anonymous enum at system/core/libutils/include/utils/TypeHelpers.h:101:1)",
   "referenced_type" : "_ZTIN7android18trait_trivial_ctorIsE6$valueE",
   "self_type" : "_ZTIN7android18trait_trivial_ctorIsE6$valueE",
   "size" : 4,
   "source_file" : "/system/core/libutils/include/utils/TypeHelpers.h",
   "underlying_type" : "_ZTIj"
  },
  {
   "alignment" : 4,
   "enum_fields" :
   [
    {
     "enum_field_value" : 1,
     "name" : "android::trait_trivial_ctor<unsigned short>::value"
    }
   ],
   "linker_set_key" : "_ZTIN7android18trait_trivial_ctorItE6$valueE",
   "name" : "android::trait_trivial_ctor<unsigned short>::(anonymous enum at system/core/libutils/include/utils/TypeHelpers.h:102:1)",
   "referenced_type" : "_ZTIN7android18trait_trivial_ctorItE6$valueE",
   "self_type" : "_ZTIN7android18trait_trivial_ctorItE6$valueE",
   "size" : 4,
   "source_file" : "/system/core/libutils/include/utils/TypeHelpers.h",
   "underlying_type" : "_ZTIj"
  },
  {
   "alignment" : 4,
   "enum_fields" :
   [
    {
     "enum_field_value" : 1,
     "name" : "android::trait_trivial_ctor<void>::value"
    }
   ],
   "linker_set_key" : "_ZTIN7android18trait_trivial_ctorIvE6$valueE",
   "name" : "android::trait_trivial_ctor<void>::(anonymous enum at system/core/libutils/include/utils/TypeHelpers.h:97:1)",
   "referenced_type" : "_ZTIN7android18trait_trivial_ctorIvE6$valueE",
   "self_type" : "_ZTIN7android18trait_trivial_ctorIvE6$valueE",
   "size" : 4,
   "source_file" : "/system/core/libutils/include/utils/TypeHelpers.h",
   "underlying_type" : "_ZTIj"
  },
  {
   "alignment" : 4,
   "enum_fields" :
   [
    {
     "enum_field_value" : 1,
     "name" : "android::trait_trivial_ctor<long long>::value"
    }
   ],
   "linker_set_key" : "_ZTIN7android18trait_trivial_ctorIxE6$valueE",
   "name" : "android::trait_trivial_ctor<long long>::(anonymous enum at system/core/libutils/include/utils/TypeHelpers.h:107:1)",
   "referenced_type" : "_ZTIN7android18trait_trivial_ctorIxE6$valueE",
   "self_type" : "_ZTIN7android18trait_trivial_ctorIxE6$valueE",
   "size" : 4,
   "source_file" : "/system/core/libutils/include/utils/TypeHelpers.h",
   "underlying_type" : "_ZTIj"
  },
  {
   "alignment" : 4,
   "enum_fields" :
   [
    {
     "enum_field_value" : 1,
     "name" : "android::trait_trivial_ctor<unsigned long long>::value"
    }
   ],
   "linker_set_key" : "_ZTIN7android18trait_trivial_ctorIyE6$valueE",
   "name" : "android::trait_trivial_ctor<unsigned long long>::(anonymous enum at system/core/libutils/include/utils/TypeHelpers.h:108:1)",
   "referenced_type" : "_ZTIN7android18trait_trivial_ctorIyE6$valueE",
   "self_type" : "_ZTIN7android18trait_trivial_ctorIyE6$valueE",
   "size" : 4,
   "source_file" : "/system/core/libutils/include/utils/TypeHelpers.h",
   "underlying_type" : "_ZTIj"
  },
  {
   "alignment" : 4,
   "enum_fields" :
   [
    {
     "enum_field_value" : 0,
     "name" : "android::trait_trivial_dtor<AMediaDrmKeyStatus>::value"
    }
   ],
   "linker_set_key" : "_ZTIN7android18trait_trivial_dtorI18AMediaDrmKeyStatusE6$valueE",
   "name" : "android::trait_trivial_dtor<AMediaDrmKeyStatus>::(anonymous enum at system/core/libutils/include/utils/TypeHelpers.h:36:51)",
   "referenced_type" : "_ZTIN7android18trait_trivial_dtorI18AMediaDrmKeyStatusE6$valueE",
   "self_type" : "_ZTIN7android18trait_trivial_dtorI18AMediaDrmKeyStatusE6$valueE",
   "size" : 4,
   "source_file" : "/system/core/libutils/include/utils/TypeHelpers.h",
   "underlying_type" : "_ZTIj"
  },
  {
   "alignment" : 4,
   "enum_fields" :
   [
    {
     "enum_field_value" : 0,
     "name" : "android::trait_trivial_dtor<android::key_value_pair_t<android::String8, android::String8> >::value"
    }
   ],
   "linker_set_key" : "_ZTIN7android18trait_trivial_dtorINS_16key_value_pair_tINS_7String8ES2_EEE6$valueE",
   "name" : "android::trait_trivial_dtor<key_value_pair_t<String8, String8> >::(anonymous enum at system/core/libutils/include/utils/TypeHelpers.h:284:3)",
   "referenced_type" : "_ZTIN7android18trait_trivial_dtorINS_16key_value_pair_tINS_7String8ES2_EEE6$valueE",
   "self_type" : "_ZTIN7android18trait_trivial_dtorINS_16key_value_pair_tINS_7String8ES2_EEE6$valueE",
   "size" : 4,
   "source_file" : "/system/core/libutils/include/utils/TypeHelpers.h",
   "underlying_type" : "_ZTIj"
  },
  {
   "alignment" : 4,
   "enum_fields" :
   [
    {
     "enum_field_value" : 1,
     "name" : "android::trait_trivial_dtor<android::key_value_pair_t<unsigned int, unsigned int> >::value"
    }
   ],
   "linker_set_key" : "_ZTIN7android18trait_trivial_dtorINS_16key_value_pair_tIjjEEE6$valueE",
   "name" : "android::trait_trivial_dtor<key_value_pair_t<unsigned int, unsigned int> >::(anonymous enum at system/core/libutils/include/utils/TypeHelpers.h:284:3)",
   "referenced_type" : "_ZTIN7android18trait_trivial_dtorINS_16key_value_pair_tIjjEEE6$valueE",
   "self_type" : "_ZTIN7android18trait_trivial_dtorINS_16key_value_pair_tIjjEEE6$valueE",
   "size" : 4,
   "source_file" : "/system/core/libutils/include/utils/TypeHelpers.h",
   "underlying_type" : "_ZTIj"
  },
  {
   "alignment" : 4,
   "enum_fields" :
   [
    {
     "enum_field_value" : 0,
     "name" : "android::trait_trivial_dtor<android::sp<android::MediaCodecBuffer> >::value"
    }
   ],
   "linker_set_key" : "_ZTIN7android18trait_trivial_dtorINS_2spINS_16MediaCodecBufferEEEE6$valueE",
   "name" : "android::trait_trivial_dtor<sp<MediaCodecBuffer> >::(anonymous enum at system/core/libutils/include/utils/TypeHelpers.h:36:51)",
   "referenced_type" : "_ZTIN7android18trait_trivial_dtorINS_2spINS_16MediaCodecBufferEEEE6$valueE",
   "self_type" : "_ZTIN7android18trait_trivial_dtorINS_2spINS_16MediaCodecBufferEEEE6$valueE",
   "size" : 4,
   "source_file" : "/system/core/libutils/include/utils/TypeHelpers.h",
   "underlying_type" : "_ZTIj"
  },
  {
   "alignment" : 4,
   "enum_fields" :
   [
    {
     "enum_field_value" : 1,
     "name" : "android::trait_trivial_dtor<android::Rect>::value"
    }
   ],
   "linker_set_key" : "_ZTIN7android18trait_trivial_dtorINS_4RectEE6$valueE",
   "name" : "android::trait_trivial_dtor<Rect>::(anonymous enum at frameworks/native/libs/ui/include/ui/Rect.h:225:1)",
   "referenced_type" : "_ZTIN7android18trait_trivial_dtorINS_4RectEE6$valueE",
   "self_type" : "_ZTIN7android18trait_trivial_dtorINS_4RectEE6$valueE",
   "size" : 4,
   "source_file" : "/frameworks/native/libs/ui/include/ui/Rect.h",
   "underlying_type" : "_ZTIj"
  },
  {
   "alignment" : 4,
   "enum_fields" :
   [
    {
     "enum_field_value" : 1,
     "name" : "android::trait_trivial_dtor<android::Point>::value"
    }
   ],
   "linker_set_key" : "_ZTIN7android18trait_trivial_dtorINS_5PointEE6$valueE",
   "name" : "android::trait_trivial_dtor<Point>::(anonymous enum at frameworks/native/libs/ui/include/ui/Point.h:84:1)",
   "referenced_type" : "_ZTIN7android18trait_trivial_dtorINS_5PointEE6$valueE",
   "self_type" : "_ZTIN7android18trait_trivial_dtorINS_5PointEE6$valueE",
   "size" : 4,
   "source_file" : "/frameworks/native/libs/ui/include/ui/Point.h",
   "underlying_type" : "_ZTIj"
  },
  {
   "alignment" : 4,
   "enum_fields" :
   [
    {
     "enum_field_value" : 0,
     "name" : "android::trait_trivial_dtor<android::String8>::value"
    }
   ],
   "linker_set_key" : "_ZTIN7android18trait_trivial_dtorINS_7String8EE6$valueE",
   "name" : "android::trait_trivial_dtor<String8>::(anonymous enum at system/core/libutils/include/utils/TypeHelpers.h:36:51)",
   "referenced_type" : "_ZTIN7android18trait_trivial_dtorINS_7String8EE6$valueE",
   "self_type" : "_ZTIN7android18trait_trivial_dtorINS_7String8EE6$valueE",
   "size" : 4,
   "source_file" : "/system/core/libutils/include/utils/TypeHelpers.h",
   "underlying_type" : "_ZTIj"
  },
  {
   "alignment" : 4,
   "enum_fields" :
   [
    {
     "enum_field_value" : 1,
     "name" : "android::trait_trivial_dtor<bool>::value"
    }
   ],
   "linker_set_key" : "_ZTIN7android18trait_trivial_dtorIbE6$valueE",
   "name" : "android::trait_trivial_dtor<bool>::(anonymous enum at system/core/libutils/include/utils/TypeHelpers.h:98:1)",
   "referenced_type" : "_ZTIN7android18trait_trivial_dtorIbE6$valueE",
   "self_type" : "_ZTIN7android18trait_trivial_dtorIbE6$valueE",
   "size" : 4,
   "source_file" : "/system/core/libutils/include/utils/TypeHelpers.h",
   "underlying_type" : "_ZTIj"
  },
  {
   "alignment" : 4,
   "enum_fields" :
   [
    {
     "enum_field_value" : 1,
     "name" : "android::trait_trivial_dtor<char>::value"
    }
   ],
   "linker_set_key" : "_ZTIN7android18trait_trivial_dtorIcE6$valueE",
   "name" : "android::trait_trivial_dtor<char>::(anonymous enum at system/core/libutils/include/utils/TypeHelpers.h:99:1)",
   "referenced_type" : "_ZTIN7android18trait_trivial_dtorIcE6$valueE",
   "self_type" : "_ZTIN7android18trait_trivial_dtorIcE6$valueE",
   "size" : 4,
   "source_file" : "/system/core/libutils/include/utils/TypeHelpers.h",
   "underlying_type" : "_ZTIj"
  },
  {
   "alignment" : 4,
   "enum_fields" :
   [
    {
     "enum_field_value" : 1,
     "name" : "android::trait_trivial_dtor<double>::value"
    }
   ],
   "linker_set_key" : "_ZTIN7android18trait_trivial_dtorIdE6$valueE",
   "name" : "android::trait_trivial_dtor<double>::(anonymous enum at system/core/libutils/include/utils/TypeHelpers.h:110:1)",
   "referenced_type" : "_ZTIN7android18trait_trivial_dtorIdE6$valueE",
   "self_type" : "_ZTIN7android18trait_trivial_dtorIdE6$valueE",
   "size" : 4,
   "source_file" : "/system/core/libutils/include/utils/TypeHelpers.h",
   "underlying_type" : "_ZTIj"
  },
  {
   "alignment" : 4,
   "enum_fields" :
   [
    {
     "enum_field_value" : 1,
     "name" : "android::trait_trivial_dtor<float>::value"
    }
   ],
   "linker_set_key" : "_ZTIN7android18trait_trivial_dtorIfE6$valueE",
   "name" : "android::trait_trivial_dtor<float>::(anonymous enum at system/core/libutils/include/utils/TypeHelpers.h:109:1)",
   "referenced_type" : "_ZTIN7android18trait_trivial_dtorIfE6$valueE",
   "self_type" : "_ZTIN7android18trait_trivial_dtorIfE6$valueE",
   "size" : 4,
   "source_file" : "/system/core/libutils/include/utils/TypeHelpers.h",
   "underlying_type" : "_ZTIj"
  },
  {
   "alignment" : 4,
   "enum_fields" :
   [
    {
     "enum_field_value" : 1,
     "name" : "android::trait_trivial_dtor<unsigned char>::value"
    }
   ],
   "linker_set_key" : "_ZTIN7android18trait_trivial_dtorIhE6$valueE",
   "name" : "android::trait_trivial_dtor<unsigned char>::(anonymous enum at system/core/libutils/include/utils/TypeHelpers.h:100:1)",
   "referenced_type" : "_ZTIN7android18trait_trivial_dtorIhE6$valueE",
   "self_type" : "_ZTIN7android18trait_trivial_dtorIhE6$valueE",
   "size" : 4,
   "source_file" : "/system/core/libutils/include/utils/TypeHelpers.h",
   "underlying_type" : "_ZTIj"
  },
  {
   "alignment" : 4,
   "enum_fields" :
   [
    {
     "enum_field_value" : 1,
     "name" : "android::trait_trivial_dtor<int>::value"
    }
   ],
   "linker_set_key" : "_ZTIN7android18trait_trivial_dtorIiE6$valueE",
   "name" : "android::trait_trivial_dtor<int>::(anonymous enum at system/core/libutils/include/utils/TypeHelpers.h:103:1)",
   "referenced_type" : "_ZTIN7android18trait_trivial_dtorIiE6$valueE",
   "self_type" : "_ZTIN7android18trait_trivial_dtorIiE6$valueE",
   "size" : 4,
   "source_file" : "/system/core/libutils/include/utils/TypeHelpers.h",
   "underlying_type" : "_ZTIj"
  },
  {
   "alignment" : 4,
   "enum_fields" :
   [
    {
     "enum_field_value" : 1,
     "name" : "android::trait_trivial_dtor<unsigned int>::value"
    }
   ],
   "linker_set_key" : "_ZTIN7android18trait_trivial_dtorIjE6$valueE",
   "name" : "android::trait_trivial_dtor<unsigned int>::(anonymous enum at system/core/libutils/include/utils/TypeHelpers.h:104:1)",
   "referenced_type" : "_ZTIN7android18trait_trivial_dtorIjE6$valueE",
   "self_type" : "_ZTIN7android18trait_trivial_dtorIjE6$valueE",
   "size" : 4,
   "source_file" : "/system/core/libutils/include/utils/TypeHelpers.h",
   "underlying_type" : "_ZTIj"
  },
  {
   "alignment" : 4,
   "enum_fields" :
   [
    {
     "enum_field_value" : 1,
     "name" : "android::trait_trivial_dtor<long>::value"
    }
   ],
   "linker_set_key" : "_ZTIN7android18trait_trivial_dtorIlE6$valueE",
   "name" : "android::trait_trivial_dtor<long>::(anonymous enum at system/core/libutils/include/utils/TypeHelpers.h:105:1)",
   "referenced_type" : "_ZTIN7android18trait_trivial_dtorIlE6$valueE",
   "self_type" : "_ZTIN7android18trait_trivial_dtorIlE6$valueE",
   "size" : 4,
   "source_file" : "/system/core/libutils/include/utils/TypeHelpers.h",
   "underlying_type" : "_ZTIj"
  },
  {
   "alignment" : 4,
   "enum_fields" :
   [
    {
     "enum_field_value" : 1,
     "name" : "android::trait_trivial_dtor<unsigned long>::value"
    }
   ],
   "linker_set_key" : "_ZTIN7android18trait_trivial_dtorImE6$valueE",
   "name" : "android::trait_trivial_dtor<unsigned long>::(anonymous enum at system/core/libutils/include/utils/TypeHelpers.h:106:1)",
   "referenced_type" : "_ZTIN7android18trait_trivial_dtorImE6$valueE",
   "self_type" : "_ZTIN7android18trait_trivial_dtorImE6$valueE",
   "size" : 4,
   "source_file" : "/system/core/libutils/include/utils/TypeHelpers.h",
   "underlying_type" : "_ZTIj"
  },
  {
   "alignment" : 4,
   "enum_fields" :
   [
    {
     "enum_field_value" : 1,
     "name" : "android::trait_trivial_dtor<short>::value"
    }
   ],
   "linker_set_key" : "_ZTIN7android18trait_trivial_dtorIsE6$valueE",
   "name" : "android::trait_trivial_dtor<short>::(anonymous enum at system/core/libutils/include/utils/TypeHelpers.h:101:1)",
   "referenced_type" : "_ZTIN7android18trait_trivial_dtorIsE6$valueE",
   "self_type" : "_ZTIN7android18trait_trivial_dtorIsE6$valueE",
   "size" : 4,
   "source_file" : "/system/core/libutils/include/utils/TypeHelpers.h",
   "underlying_type" : "_ZTIj"
  },
  {
   "alignment" : 4,
   "enum_fields" :
   [
    {
     "enum_field_value" : 1,
     "name" : "android::trait_trivial_dtor<unsigned short>::value"
    }
   ],
   "linker_set_key" : "_ZTIN7android18trait_trivial_dtorItE6$valueE",
   "name" : "android::trait_trivial_dtor<unsigned short>::(anonymous enum at system/core/libutils/include/utils/TypeHelpers.h:102:1)",
   "referenced_type" : "_ZTIN7android18trait_trivial_dtorItE6$valueE",
   "self_type" : "_ZTIN7android18trait_trivial_dtorItE6$valueE",
   "size" : 4,
   "source_file" : "/system/core/libutils/include/utils/TypeHelpers.h",
   "underlying_type" : "_ZTIj"
  },
  {
   "alignment" : 4,
   "enum_fields" :
   [
    {
     "enum_field_value" : 1,
     "name" : "android::trait_trivial_dtor<void>::value"
    }
   ],
   "linker_set_key" : "_ZTIN7android18trait_trivial_dtorIvE6$valueE",
   "name" : "android::trait_trivial_dtor<void>::(anonymous enum at system/core/libutils/include/utils/TypeHelpers.h:97:1)",
   "referenced_type" : "_ZTIN7android18trait_trivial_dtorIvE6$valueE",
   "self_type" : "_ZTIN7android18trait_trivial_dtorIvE6$valueE",
   "size" : 4,
   "source_file" : "/system/core/libutils/include/utils/TypeHelpers.h",
   "underlying_type" : "_ZTIj"
  },
  {
   "alignment" : 4,
   "enum_fields" :
   [
    {
     "enum_field_value" : 1,
     "name" : "android::trait_trivial_dtor<long long>::value"
    }
   ],
   "linker_set_key" : "_ZTIN7android18trait_trivial_dtorIxE6$valueE",
   "name" : "android::trait_trivial_dtor<long long>::(anonymous enum at system/core/libutils/include/utils/TypeHelpers.h:107:1)",
   "referenced_type" : "_ZTIN7android18trait_trivial_dtorIxE6$valueE",
   "self_type" : "_ZTIN7android18trait_trivial_dtorIxE6$valueE",
   "size" : 4,
   "source_file" : "/system/core/libutils/include/utils/TypeHelpers.h",
   "underlying_type" : "_ZTIj"
  },
  {
   "alignment" : 4,
   "enum_fields" :
   [
    {
     "enum_field_value" : 1,
     "name" : "android::trait_trivial_dtor<unsigned long long>::value"
    }
   ],
   "linker_set_key" : "_ZTIN7android18trait_trivial_dtorIyE6$valueE",
   "name" : "android::trait_trivial_dtor<unsigned long long>::(anonymous enum at system/core/libutils/include/utils/TypeHelpers.h:108:1)",
   "referenced_type" : "_ZTIN7android18trait_trivial_dtorIyE6$valueE",
   "self_type" : "_ZTIN7android18trait_trivial_dtorIyE6$valueE",
   "size" : 4,
   "source_file" : "/system/core/libutils/include/utils/TypeHelpers.h",
   "underlying_type" : "_ZTIj"
  },
  {
   "alignment" : 4,
   "enum_fields" :
   [
    {
     "enum_field_value" : 0,
     "name" : "android::trait_trivial_move<AMediaDrmKeyStatus>::value"
    }
   ],
   "linker_set_key" : "_ZTIN7android18trait_trivial_moveI18AMediaDrmKeyStatusE6$valueE",
   "name" : "android::trait_trivial_move<AMediaDrmKeyStatus>::(anonymous enum at system/core/libutils/include/utils/TypeHelpers.h:38:51)",
   "referenced_type" : "_ZTIN7android18trait_trivial_moveI18AMediaDrmKeyStatusE6$valueE",
   "self_type" : "_ZTIN7android18trait_trivial_moveI18AMediaDrmKeyStatusE6$valueE",
   "size" : 4,
   "source_file" : "/system/core/libutils/include/utils/TypeHelpers.h",
   "underlying_type" : "_ZTIj"
  },
  {
   "alignment" : 4,
   "enum_fields" :
   [
    {
     "enum_field_value" : 1,
     "name" : "android::trait_trivial_move<android::key_value_pair_t<android::String8, android::String8> >::value"
    }
   ],
   "linker_set_key" : "_ZTIN7android18trait_trivial_moveINS_16key_value_pair_tINS_7String8ES2_EEE6$valueE",
   "name" : "android::trait_trivial_move<key_value_pair_t<String8, String8> >::(anonymous enum at system/core/libutils/include/utils/TypeHelpers.h:290:3)",
   "referenced_type" : "_ZTIN7android18trait_trivial_moveINS_16key_value_pair_tINS_7String8ES2_EEE6$valueE",
   "self_type" : "_ZTIN7android18trait_trivial_moveINS_16key_value_pair_tINS_7String8ES2_EEE6$valueE",
   "size" : 4,
   "source_file" : "/system/core/libutils/include/utils/TypeHelpers.h",
   "underlying_type" : "_ZTIj"
  },
  {
   "alignment" : 4,
   "enum_fields" :
   [
    {
     "enum_field_value" : 1,
     "name" : "android::trait_trivial_move<android::key_value_pair_t<unsigned int, unsigned int> >::value"
    }
   ],
   "linker_set_key" : "_ZTIN7android18trait_trivial_moveINS_16key_value_pair_tIjjEEE6$valueE",
   "name" : "android::trait_trivial_move<key_value_pair_t<unsigned int, unsigned int> >::(anonymous enum at system/core/libutils/include/utils/TypeHelpers.h:290:3)",
   "referenced_type" : "_ZTIN7android18trait_trivial_moveINS_16key_value_pair_tIjjEEE6$valueE",
   "self_type" : "_ZTIN7android18trait_trivial_moveINS_16key_value_pair_tIjjEEE6$valueE",
   "size" : 4,
   "source_file" : "/system/core/libutils/include/utils/TypeHelpers.h",
   "underlying_type" : "_ZTIj"
  },
  {
   "alignment" : 4,
   "enum_fields" :
   [
    {
     "enum_field_value" : 0,
     "name" : "android::trait_trivial_move<android::sp<android::MediaCodecBuffer> >::value"
    }
   ],
   "linker_set_key" : "_ZTIN7android18trait_trivial_moveINS_2spINS_16MediaCodecBufferEEEE6$valueE",
   "name" : "android::trait_trivial_move<sp<MediaCodecBuffer> >::(anonymous enum at system/core/libutils/include/utils/TypeHelpers.h:38:51)",
   "referenced_type" : "_ZTIN7android18trait_trivial_moveINS_2spINS_16MediaCodecBufferEEEE6$valueE",
   "self_type" : "_ZTIN7android18trait_trivial_moveINS_2spINS_16MediaCodecBufferEEEE6$valueE",
   "size" : 4,
   "source_file" : "/system/core/libutils/include/utils/TypeHelpers.h",
   "underlying_type" : "_ZTIj"
  },
  {
   "alignment" : 4,
   "enum_fields" :
   [
    {
     "enum_field_value" : 1,
     "name" : "android::trait_trivial_move<android::Rect>::value"
    }
   ],
   "linker_set_key" : "_ZTIN7android18trait_trivial_moveINS_4RectEE6$valueE",
   "name" : "android::trait_trivial_move<Rect>::(anonymous enum at frameworks/native/libs/ui/include/ui/Rect.h:225:1)",
   "referenced_type" : "_ZTIN7android18trait_trivial_moveINS_4RectEE6$valueE",
   "self_type" : "_ZTIN7android18trait_trivial_moveINS_4RectEE6$valueE",
   "size" : 4,
   "source_file" : "/frameworks/native/libs/ui/include/ui/Rect.h",
   "underlying_type" : "_ZTIj"
  },
  {
   "alignment" : 4,
   "enum_fields" :
   [
    {
     "enum_field_value" : 1,
     "name" : "android::trait_trivial_move<android::Point>::value"
    }
   ],
   "linker_set_key" : "_ZTIN7android18trait_trivial_moveINS_5PointEE6$valueE",
   "name" : "android::trait_trivial_move<Point>::(anonymous enum at frameworks/native/libs/ui/include/ui/Point.h:84:1)",
   "referenced_type" : "_ZTIN7android18trait_trivial_moveINS_5PointEE6$valueE",
   "self_type" : "_ZTIN7android18trait_trivial_moveINS_5PointEE6$valueE",
   "size" : 4,
   "source_file" : "/frameworks/native/libs/ui/include/ui/Point.h",
   "underlying_type" : "_ZTIj"
  },
  {
   "alignment" : 4,
   "enum_fields" :
   [
    {
     "enum_field_value" : 1,
     "name" : "android::trait_trivial_move<android::String8>::value"
    }
   ],
   "linker_set_key" : "_ZTIN7android18trait_trivial_moveINS_7String8EE6$valueE",
   "name" : "android::trait_trivial_move<String8>::(anonymous enum at system/core/libutils/include/utils/String8.h:242:1)",
   "referenced_type" : "_ZTIN7android18trait_trivial_moveINS_7String8EE6$valueE",
   "self_type" : "_ZTIN7android18trait_trivial_moveINS_7String8EE6$valueE",
   "size" : 4,
   "source_file" : "/system/core/libutils/include/utils/String8.h",
   "underlying_type" : "_ZTIj"
  },
  {
   "alignment" : 4,
   "enum_fields" :
   [
    {
     "enum_field_value" : 1,
     "name" : "android::trait_trivial_move<android::String16>::value"
    }
   ],
   "linker_set_key" : "_ZTIN7android18trait_trivial_moveINS_8String16EE6$valueE",
   "name" : "android::trait_trivial_move<String16>::(anonymous enum at system/core/libutils/include/utils/String16.h:197:1)",
   "referenced_type" : "_ZTIN7android18trait_trivial_moveINS_8String16EE6$valueE",
   "self_type" : "_ZTIN7android18trait_trivial_moveINS_8String16EE6$valueE",
   "size" : 4,
   "source_file" : "/system/core/libutils/include/utils/String16.h",
   "underlying_type" : "_ZTIj"
  },
  {
   "alignment" : 4,
   "enum_fields" :
   [
    {
     "enum_field_value" : 1,
     "name" : "android::trait_trivial_move<bool>::value"
    }
   ],
   "linker_set_key" : "_ZTIN7android18trait_trivial_moveIbE6$valueE",
   "name" : "android::trait_trivial_move<bool>::(anonymous enum at system/core/libutils/include/utils/TypeHelpers.h:98:1)",
   "referenced_type" : "_ZTIN7android18trait_trivial_moveIbE6$valueE",
   "self_type" : "_ZTIN7android18trait_trivial_moveIbE6$valueE",
   "size" : 4,
   "source_file" : "/system/core/libutils/include/utils/TypeHelpers.h",
   "underlying_type" : "_ZTIj"
  },
  {
   "alignment" : 4,
   "enum_fields" :
   [
    {
     "enum_field_value" : 1,
     "name" : "android::trait_trivial_move<char>::value"
    }
   ],
   "linker_set_key" : "_ZTIN7android18trait_trivial_moveIcE6$valueE",
   "name" : "android::trait_trivial_move<char>::(anonymous enum at system/core/libutils/include/utils/TypeHelpers.h:99:1)",
   "referenced_type" : "_ZTIN7android18trait_trivial_moveIcE6$valueE",
   "self_type" : "_ZTIN7android18trait_trivial_moveIcE6$valueE",
   "size" : 4,
   "source_file" : "/system/core/libutils/include/utils/TypeHelpers.h",
   "underlying_type" : "_ZTIj"
  },
  {
   "alignment" : 4,
   "enum_fields" :
   [
    {
     "enum_field_value" : 1,
     "name" : "android::trait_trivial_move<double>::value"
    }
   ],
   "linker_set_key" : "_ZTIN7android18trait_trivial_moveIdE6$valueE",
   "name" : "android::trait_trivial_move<double>::(anonymous enum at system/core/libutils/include/utils/TypeHelpers.h:110:1)",
   "referenced_type" : "_ZTIN7android18trait_trivial_moveIdE6$valueE",
   "self_type" : "_ZTIN7android18trait_trivial_moveIdE6$valueE",
   "size" : 4,
   "source_file" : "/system/core/libutils/include/utils/TypeHelpers.h",
   "underlying_type" : "_ZTIj"
  },
  {
   "alignment" : 4,
   "enum_fields" :
   [
    {
     "enum_field_value" : 1,
     "name" : "android::trait_trivial_move<float>::value"
    }
   ],
   "linker_set_key" : "_ZTIN7android18trait_trivial_moveIfE6$valueE",
   "name" : "android::trait_trivial_move<float>::(anonymous enum at system/core/libutils/include/utils/TypeHelpers.h:109:1)",
   "referenced_type" : "_ZTIN7android18trait_trivial_moveIfE6$valueE",
   "self_type" : "_ZTIN7android18trait_trivial_moveIfE6$valueE",
   "size" : 4,
   "source_file" : "/system/core/libutils/include/utils/TypeHelpers.h",
   "underlying_type" : "_ZTIj"
  },
  {
   "alignment" : 4,
   "enum_fields" :
   [
    {
     "enum_field_value" : 1,
     "name" : "android::trait_trivial_move<unsigned char>::value"
    }
   ],
   "linker_set_key" : "_ZTIN7android18trait_trivial_moveIhE6$valueE",
   "name" : "android::trait_trivial_move<unsigned char>::(anonymous enum at system/core/libutils/include/utils/TypeHelpers.h:100:1)",
   "referenced_type" : "_ZTIN7android18trait_trivial_moveIhE6$valueE",
   "self_type" : "_ZTIN7android18trait_trivial_moveIhE6$valueE",
   "size" : 4,
   "source_file" : "/system/core/libutils/include/utils/TypeHelpers.h",
   "underlying_type" : "_ZTIj"
  },
  {
   "alignment" : 4,
   "enum_fields" :
   [
    {
     "enum_field_value" : 1,
     "name" : "android::trait_trivial_move<int>::value"
    }
   ],
   "linker_set_key" : "_ZTIN7android18trait_trivial_moveIiE6$valueE",
   "name" : "android::trait_trivial_move<int>::(anonymous enum at system/core/libutils/include/utils/TypeHelpers.h:103:1)",
   "referenced_type" : "_ZTIN7android18trait_trivial_moveIiE6$valueE",
   "self_type" : "_ZTIN7android18trait_trivial_moveIiE6$valueE",
   "size" : 4,
   "source_file" : "/system/core/libutils/include/utils/TypeHelpers.h",
   "underlying_type" : "_ZTIj"
  },
  {
   "alignment" : 4,
   "enum_fields" :
   [
    {
     "enum_field_value" : 1,
     "name" : "android::trait_trivial_move<unsigned int>::value"
    }
   ],
   "linker_set_key" : "_ZTIN7android18trait_trivial_moveIjE6$valueE",
   "name" : "android::trait_trivial_move<unsigned int>::(anonymous enum at system/core/libutils/include/utils/TypeHelpers.h:104:1)",
   "referenced_type" : "_ZTIN7android18trait_trivial_moveIjE6$valueE",
   "self_type" : "_ZTIN7android18trait_trivial_moveIjE6$valueE",
   "size" : 4,
   "source_file" : "/system/core/libutils/include/utils/TypeHelpers.h",
   "underlying_type" : "_ZTIj"
  },
  {
   "alignment" : 4,
   "enum_fields" :
   [
    {
     "enum_field_value" : 1,
     "name" : "android::trait_trivial_move<long>::value"
    }
   ],
   "linker_set_key" : "_ZTIN7android18trait_trivial_moveIlE6$valueE",
   "name" : "android::trait_trivial_move<long>::(anonymous enum at system/core/libutils/include/utils/TypeHelpers.h:105:1)",
   "referenced_type" : "_ZTIN7android18trait_trivial_moveIlE6$valueE",
   "self_type" : "_ZTIN7android18trait_trivial_moveIlE6$valueE",
   "size" : 4,
   "source_file" : "/system/core/libutils/include/utils/TypeHelpers.h",
   "underlying_type" : "_ZTIj"
  },
  {
   "alignment" : 4,
   "enum_fields" :
   [
    {
     "enum_field_value" : 1,
     "name" : "android::trait_trivial_move<unsigned long>::value"
    }
   ],
   "linker_set_key" : "_ZTIN7android18trait_trivial_moveImE6$valueE",
   "name" : "android::trait_trivial_move<unsigned long>::(anonymous enum at system/core/libutils/include/utils/TypeHelpers.h:106:1)",
   "referenced_type" : "_ZTIN7android18trait_trivial_moveImE6$valueE",
   "self_type" : "_ZTIN7android18trait_trivial_moveImE6$valueE",
   "size" : 4,
   "source_file" : "/system/core/libutils/include/utils/TypeHelpers.h",
   "underlying_type" : "_ZTIj"
  },
  {
   "alignment" : 4,
   "enum_fields" :
   [
    {
     "enum_field_value" : 1,
     "name" : "android::trait_trivial_move<short>::value"
    }
   ],
   "linker_set_key" : "_ZTIN7android18trait_trivial_moveIsE6$valueE",
   "name" : "android::trait_trivial_move<short>::(anonymous enum at system/core/libutils/include/utils/TypeHelpers.h:101:1)",
   "referenced_type" : "_ZTIN7android18trait_trivial_moveIsE6$valueE",
   "self_type" : "_ZTIN7android18trait_trivial_moveIsE6$valueE",
   "size" : 4,
   "source_file" : "/system/core/libutils/include/utils/TypeHelpers.h",
   "underlying_type" : "_ZTIj"
  },
  {
   "alignment" : 4,
   "enum_fields" :
   [
    {
     "enum_field_value" : 1,
     "name" : "android::trait_trivial_move<unsigned short>::value"
    }
   ],
   "linker_set_key" : "_ZTIN7android18trait_trivial_moveItE6$valueE",
   "name" : "android::trait_trivial_move<unsigned short>::(anonymous enum at system/core/libutils/include/utils/TypeHelpers.h:102:1)",
   "referenced_type" : "_ZTIN7android18trait_trivial_moveItE6$valueE",
   "self_type" : "_ZTIN7android18trait_trivial_moveItE6$valueE",
   "size" : 4,
   "source_file" : "/system/core/libutils/include/utils/TypeHelpers.h",
   "underlying_type" : "_ZTIj"
  },
  {
   "alignment" : 4,
   "enum_fields" :
   [
    {
     "enum_field_value" : 1,
     "name" : "android::trait_trivial_move<void>::value"
    }
   ],
   "linker_set_key" : "_ZTIN7android18trait_trivial_moveIvE6$valueE",
   "name" : "android::trait_trivial_move<void>::(anonymous enum at system/core/libutils/include/utils/TypeHelpers.h:97:1)",
   "referenced_type" : "_ZTIN7android18trait_trivial_moveIvE6$valueE",
   "self_type" : "_ZTIN7android18trait_trivial_moveIvE6$valueE",
   "size" : 4,
   "source_file" : "/system/core/libutils/include/utils/TypeHelpers.h",
   "underlying_type" : "_ZTIj"
  },
  {
   "alignment" : 4,
   "enum_fields" :
   [
    {
     "enum_field_value" : 1,
     "name" : "android::trait_trivial_move<long long>::value"
    }
   ],
   "linker_set_key" : "_ZTIN7android18trait_trivial_moveIxE6$valueE",
   "name" : "android::trait_trivial_move<long long>::(anonymous enum at system/core/libutils/include/utils/TypeHelpers.h:107:1)",
   "referenced_type" : "_ZTIN7android18trait_trivial_moveIxE6$valueE",
   "self_type" : "_ZTIN7android18trait_trivial_moveIxE6$valueE",
   "size" : 4,
   "source_file" : "/system/core/libutils/include/utils/TypeHelpers.h",
   "underlying_type" : "_ZTIj"
  },
  {
   "alignment" : 4,
   "enum_fields" :
   [
    {
     "enum_field_value" : 1,
     "name" : "android::trait_trivial_move<unsigned long long>::value"
    }
   ],
   "linker_set_key" : "_ZTIN7android18trait_trivial_moveIyE6$valueE",
   "name" : "android::trait_trivial_move<unsigned long long>::(anonymous enum at system/core/libutils/include/utils/TypeHelpers.h:108:1)",
   "referenced_type" : "_ZTIN7android18trait_trivial_moveIyE6$valueE",
   "self_type" : "_ZTIN7android18trait_trivial_moveIyE6$valueE",
   "size" : 4,
   "source_file" : "/system/core/libutils/include/utils/TypeHelpers.h",
   "underlying_type" : "_ZTIj"
  },
  {
   "alignment" : 4,
   "enum_fields" :
   [
    {
     "enum_field_value" : 0,
     "name" : "android::GraphicBufferMapper::GRALLOC_2"
    },
    {
     "enum_field_value" : 1,
     "name" : "android::GraphicBufferMapper::GRALLOC_3"
    },
    {
     "enum_field_value" : 2,
     "name" : "android::GraphicBufferMapper::GRALLOC_4"
    }
   ],
   "linker_set_key" : "_ZTIN7android19GraphicBufferMapper7VersionE",
   "name" : "android::GraphicBufferMapper::Version",
   "referenced_type" : "_ZTIN7android19GraphicBufferMapper7VersionE",
   "self_type" : "_ZTIN7android19GraphicBufferMapper7VersionE",
   "size" : 4,
   "source_file" : "/frameworks/native/libs/ui/include/ui/GraphicBufferMapper.h",
   "underlying_type" : "_ZTIj"
  },
  {
   "alignment" : 4,
   "enum_fields" :
   [
    {
     "enum_field_value" : 1,
     "name" : "android::IGraphicBufferConsumer::STALE_BUFFER_SLOT"
    },
    {
     "enum_field_value" : 2,
     "name" : "android::IGraphicBufferConsumer::NO_BUFFER_AVAILABLE"
    },
    {
     "enum_field_value" : 3,
     "name" : "android::IGraphicBufferConsumer::PRESENT_LATER"
    }
   ],
   "linker_set_key" : "_ZTIN7android22IGraphicBufferConsumer20$NO_BUFFER_AVAILABLEE",
   "name" : "android::IGraphicBufferConsumer::(anonymous enum at frameworks/native/libs/gui/include/gui/IGraphicBufferConsumer.h:47:5)",
   "referenced_type" : "_ZTIN7android22IGraphicBufferConsumer20$NO_BUFFER_AVAILABLEE",
   "self_type" : "_ZTIN7android22IGraphicBufferConsumer20$NO_BUFFER_AVAILABLEE",
   "size" : 4,
   "source_file" : "/frameworks/native/libs/gui/include/gui/IGraphicBufferConsumer.h",
   "underlying_type" : "_ZTIj"
  },
  {
   "alignment" : 4,
   "enum_fields" :
   [
    {
     "enum_field_value" : 0,
     "name" : "android::IGraphicBufferProducer::DisconnectMode::Api"
    },
    {
     "enum_field_value" : 1,
     "name" : "android::IGraphicBufferProducer::DisconnectMode::AllLocal"
    }
   ],
   "linker_set_key" : "_ZTIN7android22IGraphicBufferProducer14DisconnectModeE",
   "name" : "android::IGraphicBufferProducer::DisconnectMode",
   "referenced_type" : "_ZTIN7android22IGraphicBufferProducer14DisconnectModeE",
   "self_type" : "_ZTIN7android22IGraphicBufferProducer14DisconnectModeE",
   "size" : 4,
   "source_file" : "/frameworks/native/libs/gui/include/gui/IGraphicBufferProducer.h",
   "underlying_type" : "_ZTIi"
  },
  {
   "alignment" : 4,
   "enum_fields" :
   [
    {
     "enum_field_value" : 1651602789,
     "name" : "android::IGraphicBufferProducer::USE_BUFFER_QUEUE"
    },
    {
     "enum_field_value" : 1651012962,
     "name" : "android::IGraphicBufferProducer::USE_BUFFER_HUB"
    }
   ],
   "linker_set_key" : "_ZTIN7android22IGraphicBufferProducer15$USE_BUFFER_HUBE",
   "name" : "android::IGraphicBufferProducer::(anonymous enum at frameworks/native/libs/gui/include/gui/IGraphicBufferProducer.h:87:5)",
   "referenced_type" : "_ZTIN7android22IGraphicBufferProducer15$USE_BUFFER_HUBE",
   "self_type" : "_ZTIN7android22IGraphicBufferProducer15$USE_BUFFER_HUBE",
   "size" : 4,
   "source_file" : "/frameworks/native/libs/gui/include/gui/IGraphicBufferProducer.h",
   "underlying_type" : "_ZTIj"
  },
  {
   "alignment" : 4,
   "enum_fields" :
   [
    {
     "enum_field_value" : 1,
     "name" : "android::IGraphicBufferProducer::BUFFER_NEEDS_REALLOCATION"
    },
    {
     "enum_field_value" : 2,
     "name" : "android::IGraphicBufferProducer::RELEASE_ALL_BUFFERS"
    }
   ],
   "linker_set_key" : "_ZTIN7android22IGraphicBufferProducer26$BUFFER_NEEDS_REALLOCATIONE",
   "name" : "android::IGraphicBufferProducer::(anonymous enum at frameworks/native/libs/gui/include/gui/IGraphicBufferProducer.h:78:5)",
   "referenced_type" : "_ZTIN7android22IGraphicBufferProducer26$BUFFER_NEEDS_REALLOCATIONE",
   "self_type" : "_ZTIN7android22IGraphicBufferProducer26$BUFFER_NEEDS_REALLOCATIONE",
   "size" : 4,
   "source_file" : "/frameworks/native/libs/gui/include/gui/IGraphicBufferProducer.h",
   "underlying_type" : "_ZTIj"
  },
  {
   "alignment" : 4,
   "enum_fields" :
   [
    {
     "enum_field_value" : 0,
     "name" : "android::PIXEL_FORMAT_UNKNOWN"
    },
    {
     "enum_field_value" : 0,
     "name" : "android::PIXEL_FORMAT_NONE"
    },
    {
     "enum_field_value" : -4,
     "name" : "android::PIXEL_FORMAT_CUSTOM"
    },
    {
     "enum_field_value" : -3,
     "name" : "android::PIXEL_FORMAT_TRANSLUCENT"
    },
    {
     "enum_field_value" : -2,
     "name" : "android::PIXEL_FORMAT_TRANSPARENT"
    },
    {
     "enum_field_value" : -1,
     "name" : "android::PIXEL_FORMAT_OPAQUE"
    },
    {
     "enum_field_value" : 1,
     "name" : "android::PIXEL_FORMAT_RGBA_8888"
    },
    {
     "enum_field_value" : 2,
     "name" : "android::PIXEL_FORMAT_RGBX_8888"
    },
    {
     "enum_field_value" : 3,
     "name" : "android::PIXEL_FORMAT_RGB_888"
    },
    {
     "enum_field_value" : 4,
     "name" : "android::PIXEL_FORMAT_RGB_565"
    },
    {
     "enum_field_value" : 5,
     "name" : "android::PIXEL_FORMAT_BGRA_8888"
    },
    {
     "enum_field_value" : 6,
     "name" : "android::PIXEL_FORMAT_RGBA_5551"
    },
    {
     "enum_field_value" : 7,
     "name" : "android::PIXEL_FORMAT_RGBA_4444"
    },
    {
     "enum_field_value" : 22,
     "name" : "android::PIXEL_FORMAT_RGBA_FP16"
    },
    {
     "enum_field_value" : 43,
     "name" : "android::PIXEL_FORMAT_RGBA_1010102"
    }
   ],
   "linker_set_key" : "_ZTIN7android23$PIXEL_FORMAT_BGRA_8888E",
   "name" : "android::(anonymous enum at frameworks/native/libs/ui/include/ui/PixelFormat.h:32:1)",
   "referenced_type" : "_ZTIN7android23$PIXEL_FORMAT_BGRA_8888E",
   "self_type" : "_ZTIN7android23$PIXEL_FORMAT_BGRA_8888E",
   "size" : 4,
   "source_file" : "/frameworks/native/libs/ui/include/ui/PixelFormat.h",
   "underlying_type" : "_ZTIi"
  },
  {
   "alignment" : 4,
   "enum_fields" :
   [
    {
     "enum_field_value" : 0,
     "name" : "android::hidl::base::V1_0::DebugInfo::Architecture::UNKNOWN"
    },
    {
     "enum_field_value" : 1,
     "name" : "android::hidl::base::V1_0::DebugInfo::Architecture::IS_64BIT"
    },
    {
     "enum_field_value" : 2,
     "name" : "android::hidl::base::V1_0::DebugInfo::Architecture::IS_32BIT"
    }
   ],
   "linker_set_key" : "_ZTIN7android4hidl4base4V1_09DebugInfo12ArchitectureE",
   "name" : "android::hidl::base::V1_0::DebugInfo::Architecture",
   "referenced_type" : "_ZTIN7android4hidl4base4V1_09DebugInfo12ArchitectureE",
   "self_type" : "_ZTIN7android4hidl4base4V1_09DebugInfo12ArchitectureE",
   "size" : 4,
   "source_file" : "/out/soong/.intermediates/system/libhidl/transport/base/1.0/android.hidl.base@1.0_genc++_headers/gen/android/hidl/base/1.0/types.h",
   "underlying_type" : "_ZTIi"
  },
  {
   "alignment" : 4,
   "enum_fields" :
   [
    {
     "enum_field_value" : -1,
     "name" : "android::Fence::TIMEOUT_NEVER"
    }
   ],
   "linker_set_key" : "_ZTIN7android5Fence14$TIMEOUT_NEVERE",
   "name" : "android::Fence::(anonymous enum at frameworks/native/libs/ui/include/ui/Fence.h:48:5)",
   "referenced_type" : "_ZTIN7android5Fence14$TIMEOUT_NEVERE",
   "self_type" : "_ZTIN7android5Fence14$TIMEOUT_NEVERE",
   "size" : 4,
   "source_file" : "/frameworks/native/libs/ui/include/ui/Fence.h",
   "underlying_type" : "_ZTIi"
  },
  {
   "alignment" : 4,
   "enum_fields" :
   [
    {
     "enum_field_value" : 0,
     "name" : "android::Fence::Status::Invalid"
    },
    {
     "enum_field_value" : 1,
     "name" : "android::Fence::Status::Unsignaled"
    },
    {
     "enum_field_value" : 2,
     "name" : "android::Fence::Status::Signaled"
    }
   ],
   "linker_set_key" : "_ZTIN7android5Fence6StatusE",
   "name" : "android::Fence::Status",
   "referenced_type" : "_ZTIN7android5Fence6StatusE",
   "self_type" : "_ZTIN7android5Fence6StatusE",
   "size" : 4,
   "source_file" : "/frameworks/native/libs/ui/include/ui/Fence.h",
   "underlying_type" : "_ZTIi"
  },
  {
   "alignment" : 4,
   "enum_fields" :
   [
    {
     "enum_field_value" : 0,
     "name" : "android::Mutex::PRIVATE"
    },
    {
     "enum_field_value" : 1,
     "name" : "android::Mutex::SHARED"
    }
   ],
   "linker_set_key" : "_ZTIN7android5Mutex8$PRIVATEE",
   "name" : "android::Mutex::(anonymous enum at system/core/libutils/include/utils/Mutex.h:96:5)",
   "referenced_type" : "_ZTIN7android5Mutex8$PRIVATEE",
   "self_type" : "_ZTIN7android5Mutex8$PRIVATEE",
   "size" : 4,
   "source_file" : "/system/core/libutils/include/utils/Mutex.h",
   "underlying_type" : "_ZTIj"
  },
  {
   "alignment" : 4,
   "enum_fields" :
   [
    {
     "enum_field_value" : 0,
     "name" : "android::RWLock::PRIVATE"
    },
    {
     "enum_field_value" : 1,
     "name" : "android::RWLock::SHARED"
    }
   ],
   "linker_set_key" : "_ZTIN7android6RWLock8$PRIVATEE",
   "name" : "android::RWLock::(anonymous enum at system/core/libutils/include/utils/RWLock.h:44:5)",
   "referenced_type" : "_ZTIN7android6RWLock8$PRIVATEE",
   "self_type" : "_ZTIN7android6RWLock8$PRIVATEE",
   "size" : 4,
   "source_file" : "/system/core/libutils/include/utils/RWLock.h",
   "underlying_type" : "_ZTIj"
  },
  {
   "alignment" : 4,
   "enum_fields" :
   [
    {
     "enum_field_value" : 0,
     "name" : "android::traits<AMediaDrmKeyStatus>::is_pointer"
    },
    {
     "enum_field_value" : 0,
     "name" : "android::traits<AMediaDrmKeyStatus>::has_trivial_ctor"
    },
    {
     "enum_field_value" : 0,
     "name" : "android::traits<AMediaDrmKeyStatus>::has_trivial_dtor"
    },
    {
     "enum_field_value" : 0,
     "name" : "android::traits<AMediaDrmKeyStatus>::has_trivial_copy"
    },
    {
     "enum_field_value" : 0,
     "name" : "android::traits<AMediaDrmKeyStatus>::has_trivial_move"
    }
   ],
   "linker_set_key" : "_ZTIN7android6traitsI18AMediaDrmKeyStatusE17$has_trivial_copyE",
   "name" : "android::traits<AMediaDrmKeyStatus>::(anonymous enum at system/core/libutils/include/utils/TypeHelpers.h:44:5)",
   "referenced_type" : "_ZTIN7android6traitsI18AMediaDrmKeyStatusE17$has_trivial_copyE",
   "self_type" : "_ZTIN7android6traitsI18AMediaDrmKeyStatusE17$has_trivial_copyE",
   "size" : 4,
   "source_file" : "/system/core/libutils/include/utils/TypeHelpers.h",
   "underlying_type" : "_ZTIj"
  },
  {
   "alignment" : 4,
   "enum_fields" :
   [
    {
     "enum_field_value" : 0,
     "name" : "android::traits<android::key_value_pair_t<android::String8, android::String8> >::is_pointer"
    },
    {
     "enum_field_value" : 0,
     "name" : "android::traits<android::key_value_pair_t<android::String8, android::String8> >::has_trivial_ctor"
    },
    {
     "enum_field_value" : 0,
     "name" : "android::traits<android::key_value_pair_t<android::String8, android::String8> >::has_trivial_dtor"
    },
    {
     "enum_field_value" : 0,
     "name" : "android::traits<android::key_value_pair_t<android::String8, android::String8> >::has_trivial_copy"
    },
    {
     "enum_field_value" : 1,
     "name" : "android::traits<android::key_value_pair_t<android::String8, android::String8> >::has_trivial_move"
    }
   ],
   "linker_set_key" : "_ZTIN7android6traitsINS_16key_value_pair_tINS_7String8ES2_EEE17$has_trivial_copyE",
   "name" : "android::traits<key_value_pair_t<String8, String8> >::(anonymous enum at system/core/libutils/include/utils/TypeHelpers.h:44:5)",
   "referenced_type" : "_ZTIN7android6traitsINS_16key_value_pair_tINS_7String8ES2_EEE17$has_trivial_copyE",
   "self_type" : "_ZTIN7android6traitsINS_16key_value_pair_tINS_7String8ES2_EEE17$has_trivial_copyE",
   "size" : 4,
   "source_file" : "/system/core/libutils/include/utils/TypeHelpers.h",
   "underlying_type" : "_ZTIj"
  },
  {
   "alignment" : 4,
   "enum_fields" :
   [
    {
     "enum_field_value" : 0,
     "name" : "android::traits<android::key_value_pair_t<unsigned int, unsigned int> >::is_pointer"
    },
    {
     "enum_field_value" : 1,
     "name" : "android::traits<android::key_value_pair_t<unsigned int, unsigned int> >::has_trivial_ctor"
    },
    {
     "enum_field_value" : 1,
     "name" : "android::traits<android::key_value_pair_t<unsigned int, unsigned int> >::has_trivial_dtor"
    },
    {
     "enum_field_value" : 1,
     "name" : "android::traits<android::key_value_pair_t<unsigned int, unsigned int> >::has_trivial_copy"
    },
    {
     "enum_field_value" : 1,
     "name" : "android::traits<android::key_value_pair_t<unsigned int, unsigned int> >::has_trivial_move"
    }
   ],
   "linker_set_key" : "_ZTIN7android6traitsINS_16key_value_pair_tIjjEEE17$has_trivial_copyE",
   "name" : "android::traits<key_value_pair_t<unsigned int, unsigned int> >::(anonymous enum at system/core/libutils/include/utils/TypeHelpers.h:44:5)",
   "referenced_type" : "_ZTIN7android6traitsINS_16key_value_pair_tIjjEEE17$has_trivial_copyE",
   "self_type" : "_ZTIN7android6traitsINS_16key_value_pair_tIjjEEE17$has_trivial_copyE",
   "size" : 4,
   "source_file" : "/system/core/libutils/include/utils/TypeHelpers.h",
   "underlying_type" : "_ZTIj"
  },
  {
   "alignment" : 4,
   "enum_fields" :
   [
    {
     "enum_field_value" : 0,
     "name" : "android::traits<android::sp<android::MediaCodecBuffer> >::is_pointer"
    },
    {
     "enum_field_value" : 0,
     "name" : "android::traits<android::sp<android::MediaCodecBuffer> >::has_trivial_ctor"
    },
    {
     "enum_field_value" : 0,
     "name" : "android::traits<android::sp<android::MediaCodecBuffer> >::has_trivial_dtor"
    },
    {
     "enum_field_value" : 0,
     "name" : "android::traits<android::sp<android::MediaCodecBuffer> >::has_trivial_copy"
    },
    {
     "enum_field_value" : 0,
     "name" : "android::traits<android::sp<android::MediaCodecBuffer> >::has_trivial_move"
    }
   ],
   "linker_set_key" : "_ZTIN7android6traitsINS_2spINS_16MediaCodecBufferEEEE17$has_trivial_copyE",
   "name" : "android::traits<sp<MediaCodecBuffer> >::(anonymous enum at system/core/libutils/include/utils/TypeHelpers.h:44:5)",
   "referenced_type" : "_ZTIN7android6traitsINS_2spINS_16MediaCodecBufferEEEE17$has_trivial_copyE",
   "self_type" : "_ZTIN7android6traitsINS_2spINS_16MediaCodecBufferEEEE17$has_trivial_copyE",
   "size" : 4,
   "source_file" : "/system/core/libutils/include/utils/TypeHelpers.h",
   "underlying_type" : "_ZTIj"
  },
  {
   "alignment" : 4,
   "enum_fields" :
   [
    {
     "enum_field_value" : 0,
     "name" : "android::traits<android::String8>::is_pointer"
    },
    {
     "enum_field_value" : 0,
     "name" : "android::traits<android::String8>::has_trivial_ctor"
    },
    {
     "enum_field_value" : 0,
     "name" : "android::traits<android::String8>::has_trivial_dtor"
    },
    {
     "enum_field_value" : 0,
     "name" : "android::traits<android::String8>::has_trivial_copy"
    },
    {
     "enum_field_value" : 1,
     "name" : "android::traits<android::String8>::has_trivial_move"
    }
   ],
   "linker_set_key" : "_ZTIN7android6traitsINS_7String8EE17$has_trivial_copyE",
   "name" : "android::traits<String8>::(anonymous enum at system/core/libutils/include/utils/TypeHelpers.h:44:5)",
   "referenced_type" : "_ZTIN7android6traitsINS_7String8EE17$has_trivial_copyE",
   "self_type" : "_ZTIN7android6traitsINS_7String8EE17$has_trivial_copyE",
   "size" : 4,
   "source_file" : "/system/core/libutils/include/utils/TypeHelpers.h",
   "underlying_type" : "_ZTIj"
  },
  {
   "alignment" : 4,
   "enum_fields" :
   [
    {
     "enum_field_value" : 0,
     "name" : "android::traits<unsigned char>::is_pointer"
    },
    {
     "enum_field_value" : 1,
     "name" : "android::traits<unsigned char>::has_trivial_ctor"
    },
    {
     "enum_field_value" : 1,
     "name" : "android::traits<unsigned char>::has_trivial_dtor"
    },
    {
     "enum_field_value" : 1,
     "name" : "android::traits<unsigned char>::has_trivial_copy"
    },
    {
     "enum_field_value" : 1,
     "name" : "android::traits<unsigned char>::has_trivial_move"
    }
   ],
   "linker_set_key" : "_ZTIN7android6traitsIhE17$has_trivial_copyE",
   "name" : "android::traits<unsigned char>::(anonymous enum at system/core/libutils/include/utils/TypeHelpers.h:44:5)",
   "referenced_type" : "_ZTIN7android6traitsIhE17$has_trivial_copyE",
   "self_type" : "_ZTIN7android6traitsIhE17$has_trivial_copyE",
   "size" : 4,
   "source_file" : "/system/core/libutils/include/utils/TypeHelpers.h",
   "underlying_type" : "_ZTIj"
  },
  {
   "alignment" : 4,
   "enum_fields" :
   [
    {
     "enum_field_value" : 0,
     "name" : "android::traits<unsigned int>::is_pointer"
    },
    {
     "enum_field_value" : 1,
     "name" : "android::traits<unsigned int>::has_trivial_ctor"
    },
    {
     "enum_field_value" : 1,
     "name" : "android::traits<unsigned int>::has_trivial_dtor"
    },
    {
     "enum_field_value" : 1,
     "name" : "android::traits<unsigned int>::has_trivial_copy"
    },
    {
     "enum_field_value" : 1,
     "name" : "android::traits<unsigned int>::has_trivial_move"
    }
   ],
   "linker_set_key" : "_ZTIN7android6traitsIjE17$has_trivial_copyE",
   "name" : "android::traits<unsigned int>::(anonymous enum at system/core/libutils/include/utils/TypeHelpers.h:44:5)",
   "referenced_type" : "_ZTIN7android6traitsIjE17$has_trivial_copyE",
   "self_type" : "_ZTIN7android6traitsIjE17$has_trivial_copyE",
   "size" : 4,
   "source_file" : "/system/core/libutils/include/utils/TypeHelpers.h",
   "underlying_type" : "_ZTIj"
  },
  {
   "alignment" : 4,
   "enum_fields" :
   [
    {
     "enum_field_value" : 1,
     "name" : "android::IBinder::FIRST_CALL_TRANSACTION"
    },
    {
     "enum_field_value" : 16777215,
     "name" : "android::IBinder::LAST_CALL_TRANSACTION"
    },
    {
     "enum_field_value" : 1599098439,
     "name" : "android::IBinder::PING_TRANSACTION"
    },
    {
     "enum_field_value" : 1598311760,
     "name" : "android::IBinder::DUMP_TRANSACTION"
    },
    {
     "enum_field_value" : 1598246212,
     "name" : "android::IBinder::SHELL_COMMAND_TRANSACTION"
    },
    {
     "enum_field_value" : 1598968902,
     "name" : "android::IBinder::INTERFACE_TRANSACTION"
    },
    {
     "enum_field_value" : 1599295570,
     "name" : "android::IBinder::SYSPROPS_TRANSACTION"
    },
    {
     "enum_field_value" : 1598380116,
     "name" : "android::IBinder::EXTENSION_TRANSACTION"
    },
    {
     "enum_field_value" : 1599097156,
     "name" : "android::IBinder::DEBUG_PID_TRANSACTION"
    },
    {
     "enum_field_value" : 1,
     "name" : "android::IBinder::FLAG_ONEWAY"
    },
    {
     "enum_field_value" : 268435456,
     "name" : "android::IBinder::FLAG_PRIVATE_VENDOR"
    }
   ],
   "linker_set_key" : "_ZTIN7android7IBinder22$DEBUG_PID_TRANSACTIONE",
   "name" : "android::IBinder::(anonymous enum at frameworks/native/libs/binder/include/binder/IBinder.h:52:5)",
   "referenced_type" : "_ZTIN7android7IBinder22$DEBUG_PID_TRANSACTIONE",
   "self_type" : "_ZTIN7android7IBinder22$DEBUG_PID_TRANSACTIONE",
   "size" : 4,
   "source_file" : "/frameworks/native/libs/binder/include/binder/IBinder.h",
   "underlying_type" : "_ZTIj"
  },
  {
   "access" : "protected",
   "alignment" : 4,
   "enum_fields" :
   [
    {
     "enum_field_value" : 1,
     "name" : "android::RefBase::FIRST_INC_STRONG"
    }
   ],
   "linker_set_key" : "_ZTIN7android7RefBase17$FIRST_INC_STRONGE",
   "name" : "android::RefBase::(anonymous enum at system/core/libutils/include/utils/RefBase.h:313:5)",
   "referenced_type" : "_ZTIN7android7RefBase17$FIRST_INC_STRONGE",
   "self_type" : "_ZTIN7android7RefBase17$FIRST_INC_STRONGE",
   "size" : 4,
   "source_file" : "/system/core/libutils/include/utils/RefBase.h",
   "underlying_type" : "_ZTIj"
  },
  {
   "access" : "protected",
   "alignment" : 4,
   "enum_fields" :
   [
    {
     "enum_field_value" : 0,
     "name" : "android::RefBase::OBJECT_LIFETIME_STRONG"
    },
    {
     "enum_field_value" : 1,
     "name" : "android::RefBase::OBJECT_LIFETIME_WEAK"
    },
    {
     "enum_field_value" : 1,
     "name" : "android::RefBase::OBJECT_LIFETIME_MASK"
    }
   ],
   "linker_set_key" : "_ZTIN7android7RefBase21$OBJECT_LIFETIME_MASKE",
   "name" : "android::RefBase::(anonymous enum at system/core/libutils/include/utils/RefBase.h:304:5)",
   "referenced_type" : "_ZTIN7android7RefBase21$OBJECT_LIFETIME_MASKE",
   "self_type" : "_ZTIN7android7RefBase21$OBJECT_LIFETIME_MASKE",
   "size" : 4,
   "source_file" : "/system/core/libutils/include/utils/RefBase.h",
   "underlying_type" : "_ZTIj"
  },
  {
   "alignment" : 4,
   "enum_fields" :
   [
    {
     "enum_field_value" : 0,
     "name" : "android::String8::kEmptyString"
    }
   ],
   "linker_set_key" : "_ZTIN7android7String813StaticLinkageE",
   "name" : "android::String8::StaticLinkage",
   "referenced_type" : "_ZTIN7android7String813StaticLinkageE",
   "self_type" : "_ZTIN7android7String813StaticLinkageE",
   "size" : 4,
   "source_file" : "/system/core/libutils/include/utils/String8.h",
   "underlying_type" : "_ZTIj"
  },
  {
   "access" : "protected",
   "alignment" : 4,
   "enum_fields" :
   [
    {
     "enum_field_value" : 1,
     "name" : "android::Surface::DEFAULT_FORMAT"
    }
   ],
   "linker_set_key" : "_ZTIN7android7Surface15$DEFAULT_FORMATE",
   "name" : "android::Surface::(anonymous enum at frameworks/native/libs/gui/include/gui/Surface.h:337:5)",
   "referenced_type" : "_ZTIN7android7Surface15$DEFAULT_FORMATE",
   "self_type" : "_ZTIN7android7Surface15$DEFAULT_FORMATE",
   "size" : 4,
   "source_file" : "/frameworks/native/libs/gui/include/gui/Surface.h",
   "underlying_type" : "_ZTIj"
  },
  {
   "access" : "protected",
   "alignment" : 4,
   "enum_fields" :
   [
    {
     "enum_field_value" : 64,
     "name" : "android::Surface::NUM_BUFFER_SLOTS"
    }
   ],
   "linker_set_key" : "_ZTIN7android7Surface17$NUM_BUFFER_SLOTSE",
   "name" : "android::Surface::(anonymous enum at frameworks/native/libs/gui/include/gui/Surface.h:336:5)",
   "referenced_type" : "_ZTIN7android7Surface17$NUM_BUFFER_SLOTSE",
   "self_type" : "_ZTIN7android7Surface17$NUM_BUFFER_SLOTSE",
   "size" : 4,
   "source_file" : "/frameworks/native/libs/gui/include/gui/Surface.h",
   "underlying_type" : "_ZTIj"
  },
  {
   "alignment" : 4,
   "enum_fields" :
   [
    {
     "enum_field_value" : 0,
     "name" : "android::String16::kEmptyString"
    }
   ],
   "linker_set_key" : "_ZTIN7android8String1613StaticLinkageE",
   "name" : "android::String16::StaticLinkage",
   "referenced_type" : "_ZTIN7android8String1613StaticLinkageE",
   "self_type" : "_ZTIN7android8String1613StaticLinkageE",
   "size" : 4,
   "source_file" : "/system/core/libutils/include/utils/String16.h",
   "underlying_type" : "_ZTIj"
  },
  {
   "alignment" : 4,
   "enum_fields" :
   [
    {
     "enum_field_value" : 0,
     "name" : "android::hardware::HidlReturnRestriction::NONE"
    },
    {
     "enum_field_value" : 1,
     "name" : "android::hardware::HidlReturnRestriction::ERROR_IF_UNCHECKED"
    },
    {
     "enum_field_value" : 2,
     "name" : "android::hardware::HidlReturnRestriction::FATAL_IF_UNCHECKED"
    }
   ],
   "linker_set_key" : "_ZTIN7android8hardware21HidlReturnRestrictionE",
   "name" : "android::hardware::HidlReturnRestriction",
   "referenced_type" : "_ZTIN7android8hardware21HidlReturnRestrictionE",
   "self_type" : "_ZTIN7android8hardware21HidlReturnRestrictionE",
   "size" : 4,
   "source_file" : "/system/libhidl/base/include/hidl/Status.h",
   "underlying_type" : "_ZTIi"
  },
  {
   "alignment" : 4,
   "enum_fields" :
   [
    {
     "enum_field_value" : 0,
     "name" : "android::hardware::Status::EX_NONE"
    },
    {
     "enum_field_value" : -1,
     "name" : "android::hardware::Status::EX_SECURITY"
    },
    {
     "enum_field_value" : -2,
     "name" : "android::hardware::Status::EX_BAD_PARCELABLE"
    },
    {
     "enum_field_value" : -3,
     "name" : "android::hardware::Status::EX_ILLEGAL_ARGUMENT"
    },
    {
     "enum_field_value" : -4,
     "name" : "android::hardware::Status::EX_NULL_POINTER"
    },
    {
     "enum_field_value" : -5,
     "name" : "android::hardware::Status::EX_ILLEGAL_STATE"
    },
    {
     "enum_field_value" : -6,
     "name" : "android::hardware::Status::EX_NETWORK_MAIN_THREAD"
    },
    {
     "enum_field_value" : -7,
     "name" : "android::hardware::Status::EX_UNSUPPORTED_OPERATION"
    },
    {
     "enum_field_value" : -128,
     "name" : "android::hardware::Status::EX_HAS_REPLY_HEADER"
    },
    {
     "enum_field_value" : -129,
     "name" : "android::hardware::Status::EX_TRANSACTION_FAILED"
    }
   ],
   "linker_set_key" : "_ZTIN7android8hardware6Status9ExceptionE",
   "name" : "android::hardware::Status::Exception",
   "referenced_type" : "_ZTIN7android8hardware6Status9ExceptionE",
   "self_type" : "_ZTIN7android8hardware6Status9ExceptionE",
   "size" : 4,
   "source_file" : "/system/libhidl/base/include/hidl/Status.h",
   "underlying_type" : "_ZTIi"
  },
  {
   "alignment" : 4,
   "enum_fields" :
   [
    {
     "enum_field_value" : 0,
     "name" : "android::hardware::details::HidlInstrumentor::SERVER_API_ENTRY"
    },
    {
     "enum_field_value" : 1,
     "name" : "android::hardware::details::HidlInstrumentor::SERVER_API_EXIT"
    },
    {
     "enum_field_value" : 2,
     "name" : "android::hardware::details::HidlInstrumentor::CLIENT_API_ENTRY"
    },
    {
     "enum_field_value" : 3,
     "name" : "android::hardware::details::HidlInstrumentor::CLIENT_API_EXIT"
    },
    {
     "enum_field_value" : 4,
     "name" : "android::hardware::details::HidlInstrumentor::SYNC_CALLBACK_ENTRY"
    },
    {
     "enum_field_value" : 5,
     "name" : "android::hardware::details::HidlInstrumentor::SYNC_CALLBACK_EXIT"
    },
    {
     "enum_field_value" : 6,
     "name" : "android::hardware::details::HidlInstrumentor::ASYNC_CALLBACK_ENTRY"
    },
    {
     "enum_field_value" : 7,
     "name" : "android::hardware::details::HidlInstrumentor::ASYNC_CALLBACK_EXIT"
    },
    {
     "enum_field_value" : 8,
     "name" : "android::hardware::details::HidlInstrumentor::PASSTHROUGH_ENTRY"
    },
    {
     "enum_field_value" : 9,
     "name" : "android::hardware::details::HidlInstrumentor::PASSTHROUGH_EXIT"
    }
   ],
   "linker_set_key" : "_ZTIN7android8hardware7details16HidlInstrumentor20InstrumentationEventE",
   "name" : "android::hardware::details::HidlInstrumentor::InstrumentationEvent",
   "referenced_type" : "_ZTIN7android8hardware7details16HidlInstrumentor20InstrumentationEventE",
   "self_type" : "_ZTIN7android8hardware7details16HidlInstrumentor20InstrumentationEventE",
   "size" : 4,
   "source_file" : "/system/libhidl/base/include/hidl/HidlInternal.h",
   "underlying_type" : "_ZTIj"
  },
  {
   "alignment" : 4,
   "enum_fields" :
   [
    {
     "enum_field_value" : 1,
     "name" : "android::hardware::kSynchronizedReadWrite"
    },
    {
     "enum_field_value" : 2,
     "name" : "android::hardware::kUnsynchronizedWrite"
    }
   ],
   "linker_set_key" : "_ZTIN7android8hardware8MQFlavorE",
   "name" : "android::hardware::MQFlavor",
   "referenced_type" : "_ZTIN7android8hardware8MQFlavorE",
   "self_type" : "_ZTIN7android8hardware8MQFlavorE",
   "size" : 4,
   "source_file" : "/system/libhidl/base/include/hidl/MQDescriptor.h",
   "underlying_type" : "_ZTIj"
  },
  {
   "alignment" : 4,
   "enum_fields" :
   [
    {
     "enum_field_value" : 0,
     "name" : "android::hardware::graphics::bufferqueue::V1_0::IGraphicBufferProducer::DisconnectMode::API"
    },
    {
     "enum_field_value" : 1,
     "name" : "android::hardware::graphics::bufferqueue::V1_0::IGraphicBufferProducer::DisconnectMode::ALL_LOCAL"
    }
   ],
   "linker_set_key" : "_ZTIN7android8hardware8graphics11bufferqueue4V1_022IGraphicBufferProducer14DisconnectModeE",
   "name" : "android::hardware::graphics::bufferqueue::V1_0::IGraphicBufferProducer::DisconnectMode",
   "referenced_type" : "_ZTIN7android8hardware8graphics11bufferqueue4V1_022IGraphicBufferProducer14DisconnectModeE",
   "self_type" : "_ZTIN7android8hardware8graphics11bufferqueue4V1_022IGraphicBufferProducer14DisconnectModeE",
   "size" : 4,
   "source_file" : "/out/soong/.intermediates/hardware/interfaces/graphics/bufferqueue/1.0/android.hardware.graphics.bufferqueue@1.0_genc++_headers/gen/android/hardware/graphics/bufferqueue/1.0/IGraphicBufferProducer.h",
   "underlying_type" : "_ZTIi"
  },
  {
   "alignment" : 4,
   "enum_fields" :
   [
    {
     "enum_field_value" : 0,
     "name" : "android::hardware::graphics::bufferqueue::V1_0::IGraphicBufferProducer::FenceTimeSnapshot::State::EMPTY"
    },
    {
     "enum_field_value" : 1,
     "name" : "android::hardware::graphics::bufferqueue::V1_0::IGraphicBufferProducer::FenceTimeSnapshot::State::FENCE"
    },
    {
     "enum_field_value" : 2,
     "name" : "android::hardware::graphics::bufferqueue::V1_0::IGraphicBufferProducer::FenceTimeSnapshot::State::SIGNAL_TIME"
    }
   ],
   "linker_set_key" : "_ZTIN7android8hardware8graphics11bufferqueue4V1_022IGraphicBufferProducer17FenceTimeSnapshot5StateE",
   "name" : "android::hardware::graphics::bufferqueue::V1_0::IGraphicBufferProducer::FenceTimeSnapshot::State",
   "referenced_type" : "_ZTIN7android8hardware8graphics11bufferqueue4V1_022IGraphicBufferProducer17FenceTimeSnapshot5StateE",
   "self_type" : "_ZTIN7android8hardware8graphics11bufferqueue4V1_022IGraphicBufferProducer17FenceTimeSnapshot5StateE",
   "size" : 4,
   "source_file" : "/out/soong/.intermediates/hardware/interfaces/graphics/bufferqueue/1.0/android.hardware.graphics.bufferqueue@1.0_genc++_headers/gen/android/hardware/graphics/bufferqueue/1.0/IGraphicBufferProducer.h",
   "underlying_type" : "_ZTIi"
  },
  {
   "alignment" : 4,
   "enum_fields" :
   [
    {
     "enum_field_value" : -1,
     "name" : "android::hardware::graphics::bufferqueue::V2_0::ConnectionType::CURRENTLY_CONNECTED"
    },
    {
     "enum_field_value" : 1,
     "name" : "android::hardware::graphics::bufferqueue::V2_0::ConnectionType::EGL"
    },
    {
     "enum_field_value" : 2,
     "name" : "android::hardware::graphics::bufferqueue::V2_0::ConnectionType::CPU"
    },
    {
     "enum_field_value" : 3,
     "name" : "android::hardware::graphics::bufferqueue::V2_0::ConnectionType::MEDIA"
    },
    {
     "enum_field_value" : 4,
     "name" : "android::hardware::graphics::bufferqueue::V2_0::ConnectionType::CAMERA"
    }
   ],
   "linker_set_key" : "_ZTIN7android8hardware8graphics11bufferqueue4V2_014ConnectionTypeE",
   "name" : "android::hardware::graphics::bufferqueue::V2_0::ConnectionType",
   "referenced_type" : "_ZTIN7android8hardware8graphics11bufferqueue4V2_014ConnectionTypeE",
   "self_type" : "_ZTIN7android8hardware8graphics11bufferqueue4V2_014ConnectionTypeE",
   "size" : 4,
   "source_file" : "/out/soong/.intermediates/hardware/interfaces/graphics/bufferqueue/2.0/android.hardware.graphics.bufferqueue@2.0_genc++_headers/gen/android/hardware/graphics/bufferqueue/2.0/types.h",
   "underlying_type" : "_ZTIi"
  },
  {
   "alignment" : 4,
   "enum_fields" :
   [
    {
     "enum_field_value" : 0,
     "name" : "android::hardware::graphics::bufferqueue::V2_0::Status::OK"
    },
    {
     "enum_field_value" : -12,
     "name" : "android::hardware::graphics::bufferqueue::V2_0::Status::NO_MEMORY"
    },
    {
     "enum_field_value" : -19,
     "name" : "android::hardware::graphics::bufferqueue::V2_0::Status::NO_INIT"
    },
    {
     "enum_field_value" : -22,
     "name" : "android::hardware::graphics::bufferqueue::V2_0::Status::BAD_VALUE"
    },
    {
     "enum_field_value" : -32,
     "name" : "android::hardware::graphics::bufferqueue::V2_0::Status::DEAD_OBJECT"
    },
    {
     "enum_field_value" : -38,
     "name" : "android::hardware::graphics::bufferqueue::V2_0::Status::INVALID_OPERATION"
    },
    {
     "enum_field_value" : -110,
     "name" : "android::hardware::graphics::bufferqueue::V2_0::Status::TIMED_OUT"
    },
    {
     "enum_field_value" : -5,
     "name" : "android::hardware::graphics::bufferqueue::V2_0::Status::WOULD_BLOCK"
    },
    {
     "enum_field_value" : -1,
     "name" : "android::hardware::graphics::bufferqueue::V2_0::Status::UNKNOWN_ERROR"
    }
   ],
   "linker_set_key" : "_ZTIN7android8hardware8graphics11bufferqueue4V2_06StatusE",
   "name" : "android::hardware::graphics::bufferqueue::V2_0::Status",
   "referenced_type" : "_ZTIN7android8hardware8graphics11bufferqueue4V2_06StatusE",
   "self_type" : "_ZTIN7android8hardware8graphics11bufferqueue4V2_06StatusE",
   "size" : 4,
   "source_file" : "/out/soong/.intermediates/hardware/interfaces/graphics/bufferqueue/2.0/android.hardware.graphics.bufferqueue@2.0_genc++_headers/gen/android/hardware/graphics/bufferqueue/2.0/types.h",
   "underlying_type" : "_ZTIi"
  },
  {
   "alignment" : 4,
   "enum_fields" :
   [
    {
     "enum_field_value" : -1,
     "name" : "android::hardware::graphics::bufferqueue::V2_0::SlotIndex::INVALID"
    },
    {
     "enum_field_value" : -1,
     "name" : "android::hardware::graphics::bufferqueue::V2_0::SlotIndex::UNSPECIFIED"
    }
   ],
   "linker_set_key" : "_ZTIN7android8hardware8graphics11bufferqueue4V2_09SlotIndexE",
   "name" : "android::hardware::graphics::bufferqueue::V2_0::SlotIndex",
   "referenced_type" : "_ZTIN7android8hardware8graphics11bufferqueue4V2_09SlotIndexE",
   "self_type" : "_ZTIN7android8hardware8graphics11bufferqueue4V2_09SlotIndexE",
   "size" : 4,
   "source_file" : "/out/soong/.intermediates/hardware/interfaces/graphics/bufferqueue/2.0/android.hardware.graphics.bufferqueue@2.0_genc++_headers/gen/android/hardware/graphics/bufferqueue/2.0/types.h",
   "underlying_type" : "_ZTIi"
  },
  {
   "alignment" : 8,
   "enum_fields" :
   [
    {
     "enum_field_value" : 15,
     "name" : "android::hardware::graphics::common::V1_0::BufferUsage::CPU_READ_MASK"
    },
    {
     "enum_field_value" : 0,
     "name" : "android::hardware::graphics::common::V1_0::BufferUsage::CPU_READ_NEVER"
    },
    {
     "enum_field_value" : 2,
     "name" : "android::hardware::graphics::common::V1_0::BufferUsage::CPU_READ_RARELY"
    },
    {
     "enum_field_value" : 3,
     "name" : "android::hardware::graphics::common::V1_0::BufferUsage::CPU_READ_OFTEN"
    },
    {
     "enum_field_value" : 240,
     "name" : "android::hardware::graphics::common::V1_0::BufferUsage::CPU_WRITE_MASK"
    },
    {
     "enum_field_value" : 0,
     "name" : "android::hardware::graphics::common::V1_0::BufferUsage::CPU_WRITE_NEVER"
    },
    {
     "enum_field_value" : 32,
     "name" : "android::hardware::graphics::common::V1_0::BufferUsage::CPU_WRITE_RARELY"
    },
    {
     "enum_field_value" : 48,
     "name" : "android::hardware::graphics::common::V1_0::BufferUsage::CPU_WRITE_OFTEN"
    },
    {
     "enum_field_value" : 256,
     "name" : "android::hardware::graphics::common::V1_0::BufferUsage::GPU_TEXTURE"
    },
    {
     "enum_field_value" : 512,
     "name" : "android::hardware::graphics::common::V1_0::BufferUsage::GPU_RENDER_TARGET"
    },
    {
     "enum_field_value" : 2048,
     "name" : "android::hardware::graphics::common::V1_0::BufferUsage::COMPOSER_OVERLAY"
    },
    {
     "enum_field_value" : 4096,
     "name" : "android::hardware::graphics::common::V1_0::BufferUsage::COMPOSER_CLIENT_TARGET"
    },
    {
     "enum_field_value" : 16384,
     "name" : "android::hardware::graphics::common::V1_0::BufferUsage::PROTECTED"
    },
    {
     "enum_field_value" : 32768,
     "name" : "android::hardware::graphics::common::V1_0::BufferUsage::COMPOSER_CURSOR"
    },
    {
     "enum_field_value" : 65536,
     "name" : "android::hardware::graphics::common::V1_0::BufferUsage::VIDEO_ENCODER"
    },
    {
     "enum_field_value" : 131072,
     "name" : "android::hardware::graphics::common::V1_0::BufferUsage::CAMERA_OUTPUT"
    },
    {
     "enum_field_value" : 262144,
     "name" : "android::hardware::graphics::common::V1_0::BufferUsage::CAMERA_INPUT"
    },
    {
     "enum_field_value" : 1048576,
     "name" : "android::hardware::graphics::common::V1_0::BufferUsage::RENDERSCRIPT"
    },
    {
     "enum_field_value" : 4194304,
     "name" : "android::hardware::graphics::common::V1_0::BufferUsage::VIDEO_DECODER"
    },
    {
     "enum_field_value" : 8388608,
     "name" : "android::hardware::graphics::common::V1_0::BufferUsage::SENSOR_DIRECT_DATA"
    },
    {
     "enum_field_value" : 16777216,
     "name" : "android::hardware::graphics::common::V1_0::BufferUsage::GPU_DATA_BUFFER"
    },
    {
     "enum_field_value" : -268435456,
     "name" : "android::hardware::graphics::common::V1_0::BufferUsage::VENDOR_MASK"
    },
    {
     "enum_field_value" : 0,
     "name" : "android::hardware::graphics::common::V1_0::BufferUsage::VENDOR_MASK_HI"
    }
   ],
   "linker_set_key" : "_ZTIN7android8hardware8graphics6common4V1_011BufferUsageE",
   "name" : "android::hardware::graphics::common::V1_0::BufferUsage",
   "referenced_type" : "_ZTIN7android8hardware8graphics6common4V1_011BufferUsageE",
   "self_type" : "_ZTIN7android8hardware8graphics6common4V1_011BufferUsageE",
   "size" : 8,
   "source_file" : "/out/soong/.intermediates/hardware/interfaces/graphics/common/1.0/android.hardware.graphics.common@1.0_genc++_headers/gen/android/hardware/graphics/common/1.0/types.h",
   "underlying_type" : "_ZTIy"
  },
  {
   "alignment" : 4,
   "enum_fields" :
   [
    {
     "enum_field_value" : 1,
     "name" : "android::hardware::graphics::common::V1_0::PixelFormat::RGBA_8888"
    },
    {
     "enum_field_value" : 2,
     "name" : "android::hardware::graphics::common::V1_0::PixelFormat::RGBX_8888"
    },
    {
     "enum_field_value" : 3,
     "name" : "android::hardware::graphics::common::V1_0::PixelFormat::RGB_888"
    },
    {
     "enum_field_value" : 4,
     "name" : "android::hardware::graphics::common::V1_0::PixelFormat::RGB_565"
    },
    {
     "enum_field_value" : 5,
     "name" : "android::hardware::graphics::common::V1_0::PixelFormat::BGRA_8888"
    },
    {
     "enum_field_value" : 16,
     "name" : "android::hardware::graphics::common::V1_0::PixelFormat::YCBCR_422_SP"
    },
    {
     "enum_field_value" : 17,
     "name" : "android::hardware::graphics::common::V1_0::PixelFormat::YCRCB_420_SP"
    },
    {
     "enum_field_value" : 20,
     "name" : "android::hardware::graphics::common::V1_0::PixelFormat::YCBCR_422_I"
    },
    {
     "enum_field_value" : 22,
     "name" : "android::hardware::graphics::common::V1_0::PixelFormat::RGBA_FP16"
    },
    {
     "enum_field_value" : 32,
     "name" : "android::hardware::graphics::common::V1_0::PixelFormat::RAW16"
    },
    {
     "enum_field_value" : 33,
     "name" : "android::hardware::graphics::common::V1_0::PixelFormat::BLOB"
    },
    {
     "enum_field_value" : 34,
     "name" : "android::hardware::graphics::common::V1_0::PixelFormat::IMPLEMENTATION_DEFINED"
    },
    {
     "enum_field_value" : 35,
     "name" : "android::hardware::graphics::common::V1_0::PixelFormat::YCBCR_420_888"
    },
    {
     "enum_field_value" : 36,
     "name" : "android::hardware::graphics::common::V1_0::PixelFormat::RAW_OPAQUE"
    },
    {
     "enum_field_value" : 37,
     "name" : "android::hardware::graphics::common::V1_0::PixelFormat::RAW10"
    },
    {
     "enum_field_value" : 38,
     "name" : "android::hardware::graphics::common::V1_0::PixelFormat::RAW12"
    },
    {
     "enum_field_value" : 43,
     "name" : "android::hardware::graphics::common::V1_0::PixelFormat::RGBA_1010102"
    },
    {
     "enum_field_value" : 538982489,
     "name" : "android::hardware::graphics::common::V1_0::PixelFormat::Y8"
    },
    {
     "enum_field_value" : 540422489,
     "name" : "android::hardware::graphics::common::V1_0::PixelFormat::Y16"
    },
    {
     "enum_field_value" : 842094169,
     "name" : "android::hardware::graphics::common::V1_0::PixelFormat::YV12"
    }
   ],
   "linker_set_key" : "_ZTIN7android8hardware8graphics6common4V1_011PixelFormatE",
   "name" : "android::hardware::graphics::common::V1_0::PixelFormat",
   "referenced_type" : "_ZTIN7android8hardware8graphics6common4V1_011PixelFormatE",
   "self_type" : "_ZTIN7android8hardware8graphics6common4V1_011PixelFormatE",
   "size" : 4,
   "source_file" : "/out/soong/.intermediates/hardware/interfaces/graphics/common/1.0/android.hardware.graphics.common@1.0_genc++_headers/gen/android/hardware/graphics/common/1.0/types.h",
   "underlying_type" : "_ZTIi"
  },
  {
   "alignment" : 4,
   "enum_fields" :
   [
    {
     "enum_field_value" : 0,
     "name" : "android::hardware::graphics::common::V1_0::ColorTransform::IDENTITY"
    },
    {
     "enum_field_value" : 1,
     "name" : "android::hardware::graphics::common::V1_0::ColorTransform::ARBITRARY_MATRIX"
    },
    {
     "enum_field_value" : 2,
     "name" : "android::hardware::graphics::common::V1_0::ColorTransform::VALUE_INVERSE"
    },
    {
     "enum_field_value" : 3,
     "name" : "android::hardware::graphics::common::V1_0::ColorTransform::GRAYSCALE"
    },
    {
     "enum_field_value" : 4,
     "name" : "android::hardware::graphics::common::V1_0::ColorTransform::CORRECT_PROTANOPIA"
    },
    {
     "enum_field_value" : 5,
     "name" : "android::hardware::graphics::common::V1_0::ColorTransform::CORRECT_DEUTERANOPIA"
    },
    {
     "enum_field_value" : 6,
     "name" : "android::hardware::graphics::common::V1_0::ColorTransform::CORRECT_TRITANOPIA"
    }
   ],
   "linker_set_key" : "_ZTIN7android8hardware8graphics6common4V1_014ColorTransformE",
   "name" : "android::hardware::graphics::common::V1_0::ColorTransform",
   "referenced_type" : "_ZTIN7android8hardware8graphics6common4V1_014ColorTransformE",
   "self_type" : "_ZTIN7android8hardware8graphics6common4V1_014ColorTransformE",
   "size" : 4,
   "source_file" : "/out/soong/.intermediates/hardware/interfaces/graphics/common/1.0/android.hardware.graphics.common@1.0_genc++_headers/gen/android/hardware/graphics/common/1.0/types.h",
   "underlying_type" : "_ZTIi"
  },
  {
   "alignment" : 4,
   "enum_fields" :
   [
    {
     "enum_field_value" : 1,
     "name" : "android::hardware::graphics::common::V1_0::Hdr::DOLBY_VISION"
    },
    {
     "enum_field_value" : 2,
     "name" : "android::hardware::graphics::common::V1_0::Hdr::HDR10"
    },
    {
     "enum_field_value" : 3,
     "name" : "android::hardware::graphics::common::V1_0::Hdr::HLG"
    }
   ],
   "linker_set_key" : "_ZTIN7android8hardware8graphics6common4V1_03HdrE",
   "name" : "android::hardware::graphics::common::V1_0::Hdr",
   "referenced_type" : "_ZTIN7android8hardware8graphics6common4V1_03HdrE",
   "self_type" : "_ZTIN7android8hardware8graphics6common4V1_03HdrE",
   "size" : 4,
   "source_file" : "/out/soong/.intermediates/hardware/interfaces/graphics/common/1.0/android.hardware.graphics.common@1.0_genc++_headers/gen/android/hardware/graphics/common/1.0/types.h",
   "underlying_type" : "_ZTIi"
  },
  {
   "alignment" : 4,
   "enum_fields" :
   [
    {
     "enum_field_value" : 0,
     "name" : "android::hardware::graphics::common::V1_0::ColorMode::NATIVE"
    },
    {
     "enum_field_value" : 1,
     "name" : "android::hardware::graphics::common::V1_0::ColorMode::STANDARD_BT601_625"
    },
    {
     "enum_field_value" : 2,
     "name" : "android::hardware::graphics::common::V1_0::ColorMode::STANDARD_BT601_625_UNADJUSTED"
    },
    {
     "enum_field_value" : 3,
     "name" : "android::hardware::graphics::common::V1_0::ColorMode::STANDARD_BT601_525"
    },
    {
     "enum_field_value" : 4,
     "name" : "android::hardware::graphics::common::V1_0::ColorMode::STANDARD_BT601_525_UNADJUSTED"
    },
    {
     "enum_field_value" : 5,
     "name" : "android::hardware::graphics::common::V1_0::ColorMode::STANDARD_BT709"
    },
    {
     "enum_field_value" : 6,
     "name" : "android::hardware::graphics::common::V1_0::ColorMode::DCI_P3"
    },
    {
     "enum_field_value" : 7,
     "name" : "android::hardware::graphics::common::V1_0::ColorMode::SRGB"
    },
    {
     "enum_field_value" : 8,
     "name" : "android::hardware::graphics::common::V1_0::ColorMode::ADOBE_RGB"
    },
    {
     "enum_field_value" : 9,
     "name" : "android::hardware::graphics::common::V1_0::ColorMode::DISPLAY_P3"
    }
   ],
   "linker_set_key" : "_ZTIN7android8hardware8graphics6common4V1_09ColorModeE",
   "name" : "android::hardware::graphics::common::V1_0::ColorMode",
   "referenced_type" : "_ZTIN7android8hardware8graphics6common4V1_09ColorModeE",
   "self_type" : "_ZTIN7android8hardware8graphics6common4V1_09ColorModeE",
   "size" : 4,
   "source_file" : "/out/soong/.intermediates/hardware/interfaces/graphics/common/1.0/android.hardware.graphics.common@1.0_genc++_headers/gen/android/hardware/graphics/common/1.0/types.h",
   "underlying_type" : "_ZTIi"
  },
  {
   "alignment" : 4,
   "enum_fields" :
   [
    {
     "enum_field_value" : 0,
     "name" : "android::hardware::graphics::common::V1_0::Dataspace::UNKNOWN"
    },
    {
     "enum_field_value" : 1,
     "name" : "android::hardware::graphics::common::V1_0::Dataspace::ARBITRARY"
    },
    {
     "enum_field_value" : 16,
     "name" : "android::hardware::graphics::common::V1_0::Dataspace::STANDARD_SHIFT"
    },
    {
     "enum_field_value" : 4128768,
     "name" : "android::hardware::graphics::common::V1_0::Dataspace::STANDARD_MASK"
    },
    {
     "enum_field_value" : 0,
     "name" : "android::hardware::graphics::common::V1_0::Dataspace::STANDARD_UNSPECIFIED"
    },
    {
     "enum_field_value" : 65536,
     "name" : "android::hardware::graphics::common::V1_0::Dataspace::STANDARD_BT709"
    },
    {
     "enum_field_value" : 131072,
     "name" : "android::hardware::graphics::common::V1_0::Dataspace::STANDARD_BT601_625"
    },
    {
     "enum_field_value" : 196608,
     "name" : "android::hardware::graphics::common::V1_0::Dataspace::STANDARD_BT601_625_UNADJUSTED"
    },
    {
     "enum_field_value" : 262144,
     "name" : "android::hardware::graphics::common::V1_0::Dataspace::STANDARD_BT601_525"
    },
    {
     "enum_field_value" : 327680,
     "name" : "android::hardware::graphics::common::V1_0::Dataspace::STANDARD_BT601_525_UNADJUSTED"
    },
    {
     "enum_field_value" : 393216,
     "name" : "android::hardware::graphics::common::V1_0::Dataspace::STANDARD_BT2020"
    },
    {
     "enum_field_value" : 458752,
     "name" : "android::hardware::graphics::common::V1_0::Dataspace::STANDARD_BT2020_CONSTANT_LUMINANCE"
    },
    {
     "enum_field_value" : 524288,
     "name" : "android::hardware::graphics::common::V1_0::Dataspace::STANDARD_BT470M"
    },
    {
     "enum_field_value" : 589824,
     "name" : "android::hardware::graphics::common::V1_0::Dataspace::STANDARD_FILM"
    },
    {
     "enum_field_value" : 655360,
     "name" : "android::hardware::graphics::common::V1_0::Dataspace::STANDARD_DCI_P3"
    },
    {
     "enum_field_value" : 720896,
     "name" : "android::hardware::graphics::common::V1_0::Dataspace::STANDARD_ADOBE_RGB"
    },
    {
     "enum_field_value" : 22,
     "name" : "android::hardware::graphics::common::V1_0::Dataspace::TRANSFER_SHIFT"
    },
    {
     "enum_field_value" : 130023424,
     "name" : "android::hardware::graphics::common::V1_0::Dataspace::TRANSFER_MASK"
    },
    {
     "enum_field_value" : 0,
     "name" : "android::hardware::graphics::common::V1_0::Dataspace::TRANSFER_UNSPECIFIED"
    },
    {
     "enum_field_value" : 4194304,
     "name" : "android::hardware::graphics::common::V1_0::Dataspace::TRANSFER_LINEAR"
    },
    {
     "enum_field_value" : 8388608,
     "name" : "android::hardware::graphics::common::V1_0::Dataspace::TRANSFER_SRGB"
    },
    {
     "enum_field_value" : 12582912,
     "name" : "android::hardware::graphics::common::V1_0::Dataspace::TRANSFER_SMPTE_170M"
    },
    {
     "enum_field_value" : 16777216,
     "name" : "android::hardware::graphics::common::V1_0::Dataspace::TRANSFER_GAMMA2_2"
    },
    {
     "enum_field_value" : 20971520,
     "name" : "android::hardware::graphics::common::V1_0::Dataspace::TRANSFER_GAMMA2_6"
    },
    {
     "enum_field_value" : 25165824,
     "name" : "android::hardware::graphics::common::V1_0::Dataspace::TRANSFER_GAMMA2_8"
    },
    {
     "enum_field_value" : 29360128,
     "name" : "android::hardware::graphics::common::V1_0::Dataspace::TRANSFER_ST2084"
    },
    {
     "enum_field_value" : 33554432,
     "name" : "android::hardware::graphics::common::V1_0::Dataspace::TRANSFER_HLG"
    },
    {
     "enum_field_value" : 27,
     "name" : "android::hardware::graphics::common::V1_0::Dataspace::RANGE_SHIFT"
    },
    {
     "enum_field_value" : 939524096,
     "name" : "android::hardware::graphics::common::V1_0::Dataspace::RANGE_MASK"
    },
    {
     "enum_field_value" : 0,
     "name" : "android::hardware::graphics::common::V1_0::Dataspace::RANGE_UNSPECIFIED"
    },
    {
     "enum_field_value" : 134217728,
     "name" : "android::hardware::graphics::common::V1_0::Dataspace::RANGE_FULL"
    },
    {
     "enum_field_value" : 268435456,
     "name" : "android::hardware::graphics::common::V1_0::Dataspace::RANGE_LIMITED"
    },
    {
     "enum_field_value" : 402653184,
     "name" : "android::hardware::graphics::common::V1_0::Dataspace::RANGE_EXTENDED"
    },
    {
     "enum_field_value" : 512,
     "name" : "android::hardware::graphics::common::V1_0::Dataspace::SRGB_LINEAR"
    },
    {
     "enum_field_value" : 138477568,
     "name" : "android::hardware::graphics::common::V1_0::Dataspace::V0_SRGB_LINEAR"
    },
    {
     "enum_field_value" : 406913024,
     "name" : "android::hardware::graphics::common::V1_0::Dataspace::V0_SCRGB_LINEAR"
    },
    {
     "enum_field_value" : 513,
     "name" : "android::hardware::graphics::common::V1_0::Dataspace::SRGB"
    },
    {
     "enum_field_value" : 142671872,
     "name" : "android::hardware::graphics::common::V1_0::Dataspace::V0_SRGB"
    },
    {
     "enum_field_value" : 411107328,
     "name" : "android::hardware::graphics::common::V1_0::Dataspace::V0_SCRGB"
    },
    {
     "enum_field_value" : 257,
     "name" : "android::hardware::graphics::common::V1_0::Dataspace::JFIF"
    },
    {
     "enum_field_value" : 146931712,
     "name" : "android::hardware::graphics::common::V1_0::Dataspace::V0_JFIF"
    },
    {
     "enum_field_value" : 258,
     "name" : "android::hardware::graphics::common::V1_0::Dataspace::BT601_625"
    },
    {
     "enum_field_value" : 281149440,
     "name" : "android::hardware::graphics::common::V1_0::Dataspace::V0_BT601_625"
    },
    {
     "enum_field_value" : 259,
     "name" : "android::hardware::graphics::common::V1_0::Dataspace::BT601_525"
    },
    {
     "enum_field_value" : 281280512,
     "name" : "android::hardware::graphics::common::V1_0::Dataspace::V0_BT601_525"
    },
    {
     "enum_field_value" : 260,
     "name" : "android::hardware::graphics::common::V1_0::Dataspace::BT709"
    },
    {
     "enum_field_value" : 281083904,
     "name" : "android::hardware::graphics::common::V1_0::Dataspace::V0_BT709"
    },
    {
     "enum_field_value" : 139067392,
     "name" : "android::hardware::graphics::common::V1_0::Dataspace::DCI_P3_LINEAR"
    },
    {
     "enum_field_value" : 155844608,
     "name" : "android::hardware::graphics::common::V1_0::Dataspace::DCI_P3"
    },
    {
     "enum_field_value" : 139067392,
     "name" : "android::hardware::graphics::common::V1_0::Dataspace::DISPLAY_P3_LINEAR"
    },
    {
     "enum_field_value" : 143261696,
     "name" : "android::hardware::graphics::common::V1_0::Dataspace::DISPLAY_P3"
    },
    {
     "enum_field_value" : 151715840,
     "name" : "android::hardware::graphics::common::V1_0::Dataspace::ADOBE_RGB"
    },
    {
     "enum_field_value" : 138805248,
     "name" : "android::hardware::graphics::common::V1_0::Dataspace::BT2020_LINEAR"
    },
    {
     "enum_field_value" : 147193856,
     "name" : "android::hardware::graphics::common::V1_0::Dataspace::BT2020"
    },
    {
     "enum_field_value" : 163971072,
     "name" : "android::hardware::graphics::common::V1_0::Dataspace::BT2020_PQ"
    },
    {
     "enum_field_value" : 4096,
     "name" : "android::hardware::graphics::common::V1_0::Dataspace::DEPTH"
    },
    {
     "enum_field_value" : 4097,
     "name" : "android::hardware::graphics::common::V1_0::Dataspace::SENSOR"
    }
   ],
   "linker_set_key" : "_ZTIN7android8hardware8graphics6common4V1_09DataspaceE",
   "name" : "android::hardware::graphics::common::V1_0::Dataspace",
   "referenced_type" : "_ZTIN7android8hardware8graphics6common4V1_09DataspaceE",
   "self_type" : "_ZTIN7android8hardware8graphics6common4V1_09DataspaceE",
   "size" : 4,
   "source_file" : "/out/soong/.intermediates/hardware/interfaces/graphics/common/1.0/android.hardware.graphics.common@1.0_genc++_headers/gen/android/hardware/graphics/common/1.0/types.h",
   "underlying_type" : "_ZTIi"
  },
  {
   "alignment" : 4,
   "enum_fields" :
   [
    {
     "enum_field_value" : 1,
     "name" : "android::hardware::graphics::common::V1_0::Transform::FLIP_H"
    },
    {
     "enum_field_value" : 2,
     "name" : "android::hardware::graphics::common::V1_0::Transform::FLIP_V"
    },
    {
     "enum_field_value" : 4,
     "name" : "android::hardware::graphics::common::V1_0::Transform::ROT_90"
    },
    {
     "enum_field_value" : 3,
     "name" : "android::hardware::graphics::common::V1_0::Transform::ROT_180"
    },
    {
     "enum_field_value" : 7,
     "name" : "android::hardware::graphics::common::V1_0::Transform::ROT_270"
    }
   ],
   "linker_set_key" : "_ZTIN7android8hardware8graphics6common4V1_09TransformE",
   "name" : "android::hardware::graphics::common::V1_0::Transform",
   "referenced_type" : "_ZTIN7android8hardware8graphics6common4V1_09TransformE",
   "self_type" : "_ZTIN7android8hardware8graphics6common4V1_09TransformE",
   "size" : 4,
   "source_file" : "/out/soong/.intermediates/hardware/interfaces/graphics/common/1.0/android.hardware.graphics.common@1.0_genc++_headers/gen/android/hardware/graphics/common/1.0/types.h",
   "underlying_type" : "_ZTIi"
  },
  {
   "alignment" : 8,
   "enum_fields" :
   [
    {
     "enum_field_value" : 15,
     "name" : "android::hardware::graphics::common::V1_1::BufferUsage::CPU_READ_MASK"
    },
    {
     "enum_field_value" : 0,
     "name" : "android::hardware::graphics::common::V1_1::BufferUsage::CPU_READ_NEVER"
    },
    {
     "enum_field_value" : 2,
     "name" : "android::hardware::graphics::common::V1_1::BufferUsage::CPU_READ_RARELY"
    },
    {
     "enum_field_value" : 3,
     "name" : "android::hardware::graphics::common::V1_1::BufferUsage::CPU_READ_OFTEN"
    },
    {
     "enum_field_value" : 240,
     "name" : "android::hardware::graphics::common::V1_1::BufferUsage::CPU_WRITE_MASK"
    },
    {
     "enum_field_value" : 0,
     "name" : "android::hardware::graphics::common::V1_1::BufferUsage::CPU_WRITE_NEVER"
    },
    {
     "enum_field_value" : 32,
     "name" : "android::hardware::graphics::common::V1_1::BufferUsage::CPU_WRITE_RARELY"
    },
    {
     "enum_field_value" : 48,
     "name" : "android::hardware::graphics::common::V1_1::BufferUsage::CPU_WRITE_OFTEN"
    },
    {
     "enum_field_value" : 256,
     "name" : "android::hardware::graphics::common::V1_1::BufferUsage::GPU_TEXTURE"
    },
    {
     "enum_field_value" : 512,
     "name" : "android::hardware::graphics::common::V1_1::BufferUsage::GPU_RENDER_TARGET"
    },
    {
     "enum_field_value" : 2048,
     "name" : "android::hardware::graphics::common::V1_1::BufferUsage::COMPOSER_OVERLAY"
    },
    {
     "enum_field_value" : 4096,
     "name" : "android::hardware::graphics::common::V1_1::BufferUsage::COMPOSER_CLIENT_TARGET"
    },
    {
     "enum_field_value" : 16384,
     "name" : "android::hardware::graphics::common::V1_1::BufferUsage::PROTECTED"
    },
    {
     "enum_field_value" : 32768,
     "name" : "android::hardware::graphics::common::V1_1::BufferUsage::COMPOSER_CURSOR"
    },
    {
     "enum_field_value" : 65536,
     "name" : "android::hardware::graphics::common::V1_1::BufferUsage::VIDEO_ENCODER"
    },
    {
     "enum_field_value" : 131072,
     "name" : "android::hardware::graphics::common::V1_1::BufferUsage::CAMERA_OUTPUT"
    },
    {
     "enum_field_value" : 262144,
     "name" : "android::hardware::graphics::common::V1_1::BufferUsage::CAMERA_INPUT"
    },
    {
     "enum_field_value" : 1048576,
     "name" : "android::hardware::graphics::common::V1_1::BufferUsage::RENDERSCRIPT"
    },
    {
     "enum_field_value" : 4194304,
     "name" : "android::hardware::graphics::common::V1_1::BufferUsage::VIDEO_DECODER"
    },
    {
     "enum_field_value" : 8388608,
     "name" : "android::hardware::graphics::common::V1_1::BufferUsage::SENSOR_DIRECT_DATA"
    },
    {
     "enum_field_value" : 16777216,
     "name" : "android::hardware::graphics::common::V1_1::BufferUsage::GPU_DATA_BUFFER"
    },
    {
     "enum_field_value" : -268435456,
     "name" : "android::hardware::graphics::common::V1_1::BufferUsage::VENDOR_MASK"
    },
    {
     "enum_field_value" : 0,
     "name" : "android::hardware::graphics::common::V1_1::BufferUsage::VENDOR_MASK_HI"
    },
    {
     "enum_field_value" : 33554432,
     "name" : "android::hardware::graphics::common::V1_1::BufferUsage::GPU_CUBE_MAP"
    },
    {
     "enum_field_value" : 67108864,
     "name" : "android::hardware::graphics::common::V1_1::BufferUsage::GPU_MIPMAP_COMPLETE"
    }
   ],
   "linker_set_key" : "_ZTIN7android8hardware8graphics6common4V1_111BufferUsageE",
   "name" : "android::hardware::graphics::common::V1_1::BufferUsage",
   "referenced_type" : "_ZTIN7android8hardware8graphics6common4V1_111BufferUsageE",
   "self_type" : "_ZTIN7android8hardware8graphics6common4V1_111BufferUsageE",
   "size" : 8,
   "source_file" : "/out/soong/.intermediates/hardware/interfaces/graphics/common/1.1/android.hardware.graphics.common@1.1_genc++_headers/gen/android/hardware/graphics/common/1.1/types.h",
   "underlying_type" : "_ZTIy"
  },
  {
   "alignment" : 4,
   "enum_fields" :
   [
    {
     "enum_field_value" : 1,
     "name" : "android::hardware::graphics::common::V1_1::PixelFormat::RGBA_8888"
    },
    {
     "enum_field_value" : 2,
     "name" : "android::hardware::graphics::common::V1_1::PixelFormat::RGBX_8888"
    },
    {
     "enum_field_value" : 3,
     "name" : "android::hardware::graphics::common::V1_1::PixelFormat::RGB_888"
    },
    {
     "enum_field_value" : 4,
     "name" : "android::hardware::graphics::common::V1_1::PixelFormat::RGB_565"
    },
    {
     "enum_field_value" : 5,
     "name" : "android::hardware::graphics::common::V1_1::PixelFormat::BGRA_8888"
    },
    {
     "enum_field_value" : 16,
     "name" : "android::hardware::graphics::common::V1_1::PixelFormat::YCBCR_422_SP"
    },
    {
     "enum_field_value" : 17,
     "name" : "android::hardware::graphics::common::V1_1::PixelFormat::YCRCB_420_SP"
    },
    {
     "enum_field_value" : 20,
     "name" : "android::hardware::graphics::common::V1_1::PixelFormat::YCBCR_422_I"
    },
    {
     "enum_field_value" : 22,
     "name" : "android::hardware::graphics::common::V1_1::PixelFormat::RGBA_FP16"
    },
    {
     "enum_field_value" : 32,
     "name" : "android::hardware::graphics::common::V1_1::PixelFormat::RAW16"
    },
    {
     "enum_field_value" : 33,
     "name" : "android::hardware::graphics::common::V1_1::PixelFormat::BLOB"
    },
    {
     "enum_field_value" : 34,
     "name" : "android::hardware::graphics::common::V1_1::PixelFormat::IMPLEMENTATION_DEFINED"
    },
    {
     "enum_field_value" : 35,
     "name" : "android::hardware::graphics::common::V1_1::PixelFormat::YCBCR_420_888"
    },
    {
     "enum_field_value" : 36,
     "name" : "android::hardware::graphics::common::V1_1::PixelFormat::RAW_OPAQUE"
    },
    {
     "enum_field_value" : 37,
     "name" : "android::hardware::graphics::common::V1_1::PixelFormat::RAW10"
    },
    {
     "enum_field_value" : 38,
     "name" : "android::hardware::graphics::common::V1_1::PixelFormat::RAW12"
    },
    {
     "enum_field_value" : 43,
     "name" : "android::hardware::graphics::common::V1_1::PixelFormat::RGBA_1010102"
    },
    {
     "enum_field_value" : 538982489,
     "name" : "android::hardware::graphics::common::V1_1::PixelFormat::Y8"
    },
    {
     "enum_field_value" : 540422489,
     "name" : "android::hardware::graphics::common::V1_1::PixelFormat::Y16"
    },
    {
     "enum_field_value" : 842094169,
     "name" : "android::hardware::graphics::common::V1_1::PixelFormat::YV12"
    },
    {
     "enum_field_value" : 48,
     "name" : "android::hardware::graphics::common::V1_1::PixelFormat::DEPTH_16"
    },
    {
     "enum_field_value" : 49,
     "name" : "android::hardware::graphics::common::V1_1::PixelFormat::DEPTH_24"
    },
    {
     "enum_field_value" : 50,
     "name" : "android::hardware::graphics::common::V1_1::PixelFormat::DEPTH_24_STENCIL_8"
    },
    {
     "enum_field_value" : 51,
     "name" : "android::hardware::graphics::common::V1_1::PixelFormat::DEPTH_32F"
    },
    {
     "enum_field_value" : 52,
     "name" : "android::hardware::graphics::common::V1_1::PixelFormat::DEPTH_32F_STENCIL_8"
    },
    {
     "enum_field_value" : 53,
     "name" : "android::hardware::graphics::common::V1_1::PixelFormat::STENCIL_8"
    },
    {
     "enum_field_value" : 54,
     "name" : "android::hardware::graphics::common::V1_1::PixelFormat::YCBCR_P010"
    }
   ],
   "linker_set_key" : "_ZTIN7android8hardware8graphics6common4V1_111PixelFormatE",
   "name" : "android::hardware::graphics::common::V1_1::PixelFormat",
   "referenced_type" : "_ZTIN7android8hardware8graphics6common4V1_111PixelFormatE",
   "self_type" : "_ZTIN7android8hardware8graphics6common4V1_111PixelFormatE",
   "size" : 4,
   "source_file" : "/out/soong/.intermediates/hardware/interfaces/graphics/common/1.1/android.hardware.graphics.common@1.1_genc++_headers/gen/android/hardware/graphics/common/1.1/types.h",
   "underlying_type" : "_ZTIi"
  },
  {
   "alignment" : 4,
   "enum_fields" :
   [
    {
     "enum_field_value" : 0,
     "name" : "android::hardware::graphics::common::V1_1::RenderIntent::COLORIMETRIC"
    },
    {
     "enum_field_value" : 1,
     "name" : "android::hardware::graphics::common::V1_1::RenderIntent::ENHANCE"
    },
    {
     "enum_field_value" : 2,
     "name" : "android::hardware::graphics::common::V1_1::RenderIntent::TONE_MAP_COLORIMETRIC"
    },
    {
     "enum_field_value" : 3,
     "name" : "android::hardware::graphics::common::V1_1::RenderIntent::TONE_MAP_ENHANCE"
    }
   ],
   "linker_set_key" : "_ZTIN7android8hardware8graphics6common4V1_112RenderIntentE",
   "name" : "android::hardware::graphics::common::V1_1::RenderIntent",
   "referenced_type" : "_ZTIN7android8hardware8graphics6common4V1_112RenderIntentE",
   "self_type" : "_ZTIN7android8hardware8graphics6common4V1_112RenderIntentE",
   "size" : 4,
   "source_file" : "/out/soong/.intermediates/hardware/interfaces/graphics/common/1.1/android.hardware.graphics.common@1.1_genc++_headers/gen/android/hardware/graphics/common/1.1/types.h",
   "underlying_type" : "_ZTIi"
  },
  {
   "alignment" : 4,
   "enum_fields" :
   [
    {
     "enum_field_value" : 0,
     "name" : "android::hardware::graphics::common::V1_1::ColorMode::NATIVE"
    },
    {
     "enum_field_value" : 1,
     "name" : "android::hardware::graphics::common::V1_1::ColorMode::STANDARD_BT601_625"
    },
    {
     "enum_field_value" : 2,
     "name" : "android::hardware::graphics::common::V1_1::ColorMode::STANDARD_BT601_625_UNADJUSTED"
    },
    {
     "enum_field_value" : 3,
     "name" : "android::hardware::graphics::common::V1_1::ColorMode::STANDARD_BT601_525"
    },
    {
     "enum_field_value" : 4,
     "name" : "android::hardware::graphics::common::V1_1::ColorMode::STANDARD_BT601_525_UNADJUSTED"
    },
    {
     "enum_field_value" : 5,
     "name" : "android::hardware::graphics::common::V1_1::ColorMode::STANDARD_BT709"
    },
    {
     "enum_field_value" : 6,
     "name" : "android::hardware::graphics::common::V1_1::ColorMode::DCI_P3"
    },
    {
     "enum_field_value" : 7,
     "name" : "android::hardware::graphics::common::V1_1::ColorMode::SRGB"
    },
    {
     "enum_field_value" : 8,
     "name" : "android::hardware::graphics::common::V1_1::ColorMode::ADOBE_RGB"
    },
    {
     "enum_field_value" : 9,
     "name" : "android::hardware::graphics::common::V1_1::ColorMode::DISPLAY_P3"
    },
    {
     "enum_field_value" : 10,
     "name" : "android::hardware::graphics::common::V1_1::ColorMode::BT2020"
    },
    {
     "enum_field_value" : 11,
     "name" : "android::hardware::graphics::common::V1_1::ColorMode::BT2100_PQ"
    },
    {
     "enum_field_value" : 12,
     "name" : "android::hardware::graphics::common::V1_1::ColorMode::BT2100_HLG"
    }
   ],
   "linker_set_key" : "_ZTIN7android8hardware8graphics6common4V1_19ColorModeE",
   "name" : "android::hardware::graphics::common::V1_1::ColorMode",
   "referenced_type" : "_ZTIN7android8hardware8graphics6common4V1_19ColorModeE",
   "self_type" : "_ZTIN7android8hardware8graphics6common4V1_19ColorModeE",
   "size" : 4,
   "source_file" : "/out/soong/.intermediates/hardware/interfaces/graphics/common/1.1/android.hardware.graphics.common@1.1_genc++_headers/gen/android/hardware/graphics/common/1.1/types.h",
   "underlying_type" : "_ZTIi"
  },
  {
   "alignment" : 4,
   "enum_fields" :
   [
    {
     "enum_field_value" : 0,
     "name" : "android::hardware::graphics::common::V1_1::Dataspace::UNKNOWN"
    },
    {
     "enum_field_value" : 1,
     "name" : "android::hardware::graphics::common::V1_1::Dataspace::ARBITRARY"
    },
    {
     "enum_field_value" : 16,
     "name" : "android::hardware::graphics::common::V1_1::Dataspace::STANDARD_SHIFT"
    },
    {
     "enum_field_value" : 4128768,
     "name" : "android::hardware::graphics::common::V1_1::Dataspace::STANDARD_MASK"
    },
    {
     "enum_field_value" : 0,
     "name" : "android::hardware::graphics::common::V1_1::Dataspace::STANDARD_UNSPECIFIED"
    },
    {
     "enum_field_value" : 65536,
     "name" : "android::hardware::graphics::common::V1_1::Dataspace::STANDARD_BT709"
    },
    {
     "enum_field_value" : 131072,
     "name" : "android::hardware::graphics::common::V1_1::Dataspace::STANDARD_BT601_625"
    },
    {
     "enum_field_value" : 196608,
     "name" : "android::hardware::graphics::common::V1_1::Dataspace::STANDARD_BT601_625_UNADJUSTED"
    },
    {
     "enum_field_value" : 262144,
     "name" : "android::hardware::graphics::common::V1_1::Dataspace::STANDARD_BT601_525"
    },
    {
     "enum_field_value" : 327680,
     "name" : "android::hardware::graphics::common::V1_1::Dataspace::STANDARD_BT601_525_UNADJUSTED"
    },
    {
     "enum_field_value" : 393216,
     "name" : "android::hardware::graphics::common::V1_1::Dataspace::STANDARD_BT2020"
    },
    {
     "enum_field_value" : 458752,
     "name" : "android::hardware::graphics::common::V1_1::Dataspace::STANDARD_BT2020_CONSTANT_LUMINANCE"
    },
    {
     "enum_field_value" : 524288,
     "name" : "android::hardware::graphics::common::V1_1::Dataspace::STANDARD_BT470M"
    },
    {
     "enum_field_value" : 589824,
     "name" : "android::hardware::graphics::common::V1_1::Dataspace::STANDARD_FILM"
    },
    {
     "enum_field_value" : 655360,
     "name" : "android::hardware::graphics::common::V1_1::Dataspace::STANDARD_DCI_P3"
    },
    {
     "enum_field_value" : 720896,
     "name" : "android::hardware::graphics::common::V1_1::Dataspace::STANDARD_ADOBE_RGB"
    },
    {
     "enum_field_value" : 22,
     "name" : "android::hardware::graphics::common::V1_1::Dataspace::TRANSFER_SHIFT"
    },
    {
     "enum_field_value" : 130023424,
     "name" : "android::hardware::graphics::common::V1_1::Dataspace::TRANSFER_MASK"
    },
    {
     "enum_field_value" : 0,
     "name" : "android::hardware::graphics::common::V1_1::Dataspace::TRANSFER_UNSPECIFIED"
    },
    {
     "enum_field_value" : 4194304,
     "name" : "android::hardware::graphics::common::V1_1::Dataspace::TRANSFER_LINEAR"
    },
    {
     "enum_field_value" : 8388608,
     "name" : "android::hardware::graphics::common::V1_1::Dataspace::TRANSFER_SRGB"
    },
    {
     "enum_field_value" : 12582912,
     "name" : "android::hardware::graphics::common::V1_1::Dataspace::TRANSFER_SMPTE_170M"
    },
    {
     "enum_field_value" : 16777216,
     "name" : "android::hardware::graphics::common::V1_1::Dataspace::TRANSFER_GAMMA2_2"
    },
    {
     "enum_field_value" : 20971520,
     "name" : "android::hardware::graphics::common::V1_1::Dataspace::TRANSFER_GAMMA2_6"
    },
    {
     "enum_field_value" : 25165824,
     "name" : "android::hardware::graphics::common::V1_1::Dataspace::TRANSFER_GAMMA2_8"
    },
    {
     "enum_field_value" : 29360128,
     "name" : "android::hardware::graphics::common::V1_1::Dataspace::TRANSFER_ST2084"
    },
    {
     "enum_field_value" : 33554432,
     "name" : "android::hardware::graphics::common::V1_1::Dataspace::TRANSFER_HLG"
    },
    {
     "enum_field_value" : 27,
     "name" : "android::hardware::graphics::common::V1_1::Dataspace::RANGE_SHIFT"
    },
    {
     "enum_field_value" : 939524096,
     "name" : "android::hardware::graphics::common::V1_1::Dataspace::RANGE_MASK"
    },
    {
     "enum_field_value" : 0,
     "name" : "android::hardware::graphics::common::V1_1::Dataspace::RANGE_UNSPECIFIED"
    },
    {
     "enum_field_value" : 134217728,
     "name" : "android::hardware::graphics::common::V1_1::Dataspace::RANGE_FULL"
    },
    {
     "enum_field_value" : 268435456,
     "name" : "android::hardware::graphics::common::V1_1::Dataspace::RANGE_LIMITED"
    },
    {
     "enum_field_value" : 402653184,
     "name" : "android::hardware::graphics::common::V1_1::Dataspace::RANGE_EXTENDED"
    },
    {
     "enum_field_value" : 512,
     "name" : "android::hardware::graphics::common::V1_1::Dataspace::SRGB_LINEAR"
    },
    {
     "enum_field_value" : 138477568,
     "name" : "android::hardware::graphics::common::V1_1::Dataspace::V0_SRGB_LINEAR"
    },
    {
     "enum_field_value" : 406913024,
     "name" : "android::hardware::graphics::common::V1_1::Dataspace::V0_SCRGB_LINEAR"
    },
    {
     "enum_field_value" : 513,
     "name" : "android::hardware::graphics::common::V1_1::Dataspace::SRGB"
    },
    {
     "enum_field_value" : 142671872,
     "name" : "android::hardware::graphics::common::V1_1::Dataspace::V0_SRGB"
    },
    {
     "enum_field_value" : 411107328,
     "name" : "android::hardware::graphics::common::V1_1::Dataspace::V0_SCRGB"
    },
    {
     "enum_field_value" : 257,
     "name" : "android::hardware::graphics::common::V1_1::Dataspace::JFIF"
    },
    {
     "enum_field_value" : 146931712,
     "name" : "android::hardware::graphics::common::V1_1::Dataspace::V0_JFIF"
    },
    {
     "enum_field_value" : 258,
     "name" : "android::hardware::graphics::common::V1_1::Dataspace::BT601_625"
    },
    {
     "enum_field_value" : 281149440,
     "name" : "android::hardware::graphics::common::V1_1::Dataspace::V0_BT601_625"
    },
    {
     "enum_field_value" : 259,
     "name" : "android::hardware::graphics::common::V1_1::Dataspace::BT601_525"
    },
    {
     "enum_field_value" : 281280512,
     "name" : "android::hardware::graphics::common::V1_1::Dataspace::V0_BT601_525"
    },
    {
     "enum_field_value" : 260,
     "name" : "android::hardware::graphics::common::V1_1::Dataspace::BT709"
    },
    {
     "enum_field_value" : 281083904,
     "name" : "android::hardware::graphics::common::V1_1::Dataspace::V0_BT709"
    },
    {
     "enum_field_value" : 139067392,
     "name" : "android::hardware::graphics::common::V1_1::Dataspace::DCI_P3_LINEAR"
    },
    {
     "enum_field_value" : 155844608,
     "name" : "android::hardware::graphics::common::V1_1::Dataspace::DCI_P3"
    },
    {
     "enum_field_value" : 139067392,
     "name" : "android::hardware::graphics::common::V1_1::Dataspace::DISPLAY_P3_LINEAR"
    },
    {
     "enum_field_value" : 143261696,
     "name" : "android::hardware::graphics::common::V1_1::Dataspace::DISPLAY_P3"
    },
    {
     "enum_field_value" : 151715840,
     "name" : "android::hardware::graphics::common::V1_1::Dataspace::ADOBE_RGB"
    },
    {
     "enum_field_value" : 138805248,
     "name" : "android::hardware::graphics::common::V1_1::Dataspace::BT2020_LINEAR"
    },
    {
     "enum_field_value" : 147193856,
     "name" : "android::hardware::graphics::common::V1_1::Dataspace::BT2020"
    },
    {
     "enum_field_value" : 163971072,
     "name" : "android::hardware::graphics::common::V1_1::Dataspace::BT2020_PQ"
    },
    {
     "enum_field_value" : 4096,
     "name" : "android::hardware::graphics::common::V1_1::Dataspace::DEPTH"
    },
    {
     "enum_field_value" : 4097,
     "name" : "android::hardware::graphics::common::V1_1::Dataspace::SENSOR"
    },
    {
     "enum_field_value" : 281411584,
     "name" : "android::hardware::graphics::common::V1_1::Dataspace::BT2020_ITU"
    },
    {
     "enum_field_value" : 298188800,
     "name" : "android::hardware::graphics::common::V1_1::Dataspace::BT2020_ITU_PQ"
    },
    {
     "enum_field_value" : 302383104,
     "name" : "android::hardware::graphics::common::V1_1::Dataspace::BT2020_ITU_HLG"
    },
    {
     "enum_field_value" : 168165376,
     "name" : "android::hardware::graphics::common::V1_1::Dataspace::BT2020_HLG"
    }
   ],
   "linker_set_key" : "_ZTIN7android8hardware8graphics6common4V1_19DataspaceE",
   "name" : "android::hardware::graphics::common::V1_1::Dataspace",
   "referenced_type" : "_ZTIN7android8hardware8graphics6common4V1_19DataspaceE",
   "self_type" : "_ZTIN7android8hardware8graphics6common4V1_19DataspaceE",
   "size" : 4,
   "source_file" : "/out/soong/.intermediates/hardware/interfaces/graphics/common/1.1/android.hardware.graphics.common@1.1_genc++_headers/gen/android/hardware/graphics/common/1.1/types.h",
   "underlying_type" : "_ZTIi"
  },
  {
   "alignment" : 8,
   "enum_fields" :
   [
    {
     "enum_field_value" : 15,
     "name" : "android::hardware::graphics::common::V1_2::BufferUsage::CPU_READ_MASK"
    },
    {
     "enum_field_value" : 0,
     "name" : "android::hardware::graphics::common::V1_2::BufferUsage::CPU_READ_NEVER"
    },
    {
     "enum_field_value" : 2,
     "name" : "android::hardware::graphics::common::V1_2::BufferUsage::CPU_READ_RARELY"
    },
    {
     "enum_field_value" : 3,
     "name" : "android::hardware::graphics::common::V1_2::BufferUsage::CPU_READ_OFTEN"
    },
    {
     "enum_field_value" : 240,
     "name" : "android::hardware::graphics::common::V1_2::BufferUsage::CPU_WRITE_MASK"
    },
    {
     "enum_field_value" : 0,
     "name" : "android::hardware::graphics::common::V1_2::BufferUsage::CPU_WRITE_NEVER"
    },
    {
     "enum_field_value" : 32,
     "name" : "android::hardware::graphics::common::V1_2::BufferUsage::CPU_WRITE_RARELY"
    },
    {
     "enum_field_value" : 48,
     "name" : "android::hardware::graphics::common::V1_2::BufferUsage::CPU_WRITE_OFTEN"
    },
    {
     "enum_field_value" : 256,
     "name" : "android::hardware::graphics::common::V1_2::BufferUsage::GPU_TEXTURE"
    },
    {
     "enum_field_value" : 512,
     "name" : "android::hardware::graphics::common::V1_2::BufferUsage::GPU_RENDER_TARGET"
    },
    {
     "enum_field_value" : 2048,
     "name" : "android::hardware::graphics::common::V1_2::BufferUsage::COMPOSER_OVERLAY"
    },
    {
     "enum_field_value" : 4096,
     "name" : "android::hardware::graphics::common::V1_2::BufferUsage::COMPOSER_CLIENT_TARGET"
    },
    {
     "enum_field_value" : 16384,
     "name" : "android::hardware::graphics::common::V1_2::BufferUsage::PROTECTED"
    },
    {
     "enum_field_value" : 32768,
     "name" : "android::hardware::graphics::common::V1_2::BufferUsage::COMPOSER_CURSOR"
    },
    {
     "enum_field_value" : 65536,
     "name" : "android::hardware::graphics::common::V1_2::BufferUsage::VIDEO_ENCODER"
    },
    {
     "enum_field_value" : 131072,
     "name" : "android::hardware::graphics::common::V1_2::BufferUsage::CAMERA_OUTPUT"
    },
    {
     "enum_field_value" : 262144,
     "name" : "android::hardware::graphics::common::V1_2::BufferUsage::CAMERA_INPUT"
    },
    {
     "enum_field_value" : 1048576,
     "name" : "android::hardware::graphics::common::V1_2::BufferUsage::RENDERSCRIPT"
    },
    {
     "enum_field_value" : 4194304,
     "name" : "android::hardware::graphics::common::V1_2::BufferUsage::VIDEO_DECODER"
    },
    {
     "enum_field_value" : 8388608,
     "name" : "android::hardware::graphics::common::V1_2::BufferUsage::SENSOR_DIRECT_DATA"
    },
    {
     "enum_field_value" : 16777216,
     "name" : "android::hardware::graphics::common::V1_2::BufferUsage::GPU_DATA_BUFFER"
    },
    {
     "enum_field_value" : -268435456,
     "name" : "android::hardware::graphics::common::V1_2::BufferUsage::VENDOR_MASK"
    },
    {
     "enum_field_value" : 0,
     "name" : "android::hardware::graphics::common::V1_2::BufferUsage::VENDOR_MASK_HI"
    },
    {
     "enum_field_value" : 33554432,
     "name" : "android::hardware::graphics::common::V1_2::BufferUsage::GPU_CUBE_MAP"
    },
    {
     "enum_field_value" : 67108864,
     "name" : "android::hardware::graphics::common::V1_2::BufferUsage::GPU_MIPMAP_COMPLETE"
    },
    {
     "enum_field_value" : 134217728,
     "name" : "android::hardware::graphics::common::V1_2::BufferUsage::HW_IMAGE_ENCODER"
    }
   ],
   "linker_set_key" : "_ZTIN7android8hardware8graphics6common4V1_211BufferUsageE",
   "name" : "android::hardware::graphics::common::V1_2::BufferUsage",
   "referenced_type" : "_ZTIN7android8hardware8graphics6common4V1_211BufferUsageE",
   "self_type" : "_ZTIN7android8hardware8graphics6common4V1_211BufferUsageE",
   "size" : 8,
   "source_file" : "/out/soong/.intermediates/hardware/interfaces/graphics/common/1.2/android.hardware.graphics.common@1.2_genc++_headers/gen/android/hardware/graphics/common/1.2/types.h",
   "underlying_type" : "_ZTIy"
  },
  {
   "alignment" : 4,
   "enum_fields" :
   [
    {
     "enum_field_value" : 1,
     "name" : "android::hardware::graphics::common::V1_2::PixelFormat::RGBA_8888"
    },
    {
     "enum_field_value" : 2,
     "name" : "android::hardware::graphics::common::V1_2::PixelFormat::RGBX_8888"
    },
    {
     "enum_field_value" : 3,
     "name" : "android::hardware::graphics::common::V1_2::PixelFormat::RGB_888"
    },
    {
     "enum_field_value" : 4,
     "name" : "android::hardware::graphics::common::V1_2::PixelFormat::RGB_565"
    },
    {
     "enum_field_value" : 5,
     "name" : "android::hardware::graphics::common::V1_2::PixelFormat::BGRA_8888"
    },
    {
     "enum_field_value" : 16,
     "name" : "android::hardware::graphics::common::V1_2::PixelFormat::YCBCR_422_SP"
    },
    {
     "enum_field_value" : 17,
     "name" : "android::hardware::graphics::common::V1_2::PixelFormat::YCRCB_420_SP"
    },
    {
     "enum_field_value" : 20,
     "name" : "android::hardware::graphics::common::V1_2::PixelFormat::YCBCR_422_I"
    },
    {
     "enum_field_value" : 22,
     "name" : "android::hardware::graphics::common::V1_2::PixelFormat::RGBA_FP16"
    },
    {
     "enum_field_value" : 32,
     "name" : "android::hardware::graphics::common::V1_2::PixelFormat::RAW16"
    },
    {
     "enum_field_value" : 33,
     "name" : "android::hardware::graphics::common::V1_2::PixelFormat::BLOB"
    },
    {
     "enum_field_value" : 34,
     "name" : "android::hardware::graphics::common::V1_2::PixelFormat::IMPLEMENTATION_DEFINED"
    },
    {
     "enum_field_value" : 35,
     "name" : "android::hardware::graphics::common::V1_2::PixelFormat::YCBCR_420_888"
    },
    {
     "enum_field_value" : 36,
     "name" : "android::hardware::graphics::common::V1_2::PixelFormat::RAW_OPAQUE"
    },
    {
     "enum_field_value" : 37,
     "name" : "android::hardware::graphics::common::V1_2::PixelFormat::RAW10"
    },
    {
     "enum_field_value" : 38,
     "name" : "android::hardware::graphics::common::V1_2::PixelFormat::RAW12"
    },
    {
     "enum_field_value" : 43,
     "name" : "android::hardware::graphics::common::V1_2::PixelFormat::RGBA_1010102"
    },
    {
     "enum_field_value" : 538982489,
     "name" : "android::hardware::graphics::common::V1_2::PixelFormat::Y8"
    },
    {
     "enum_field_value" : 540422489,
     "name" : "android::hardware::graphics::common::V1_2::PixelFormat::Y16"
    },
    {
     "enum_field_value" : 842094169,
     "name" : "android::hardware::graphics::common::V1_2::PixelFormat::YV12"
    },
    {
     "enum_field_value" : 48,
     "name" : "android::hardware::graphics::common::V1_2::PixelFormat::DEPTH_16"
    },
    {
     "enum_field_value" : 49,
     "name" : "android::hardware::graphics::common::V1_2::PixelFormat::DEPTH_24"
    },
    {
     "enum_field_value" : 50,
     "name" : "android::hardware::graphics::common::V1_2::PixelFormat::DEPTH_24_STENCIL_8"
    },
    {
     "enum_field_value" : 51,
     "name" : "android::hardware::graphics::common::V1_2::PixelFormat::DEPTH_32F"
    },
    {
     "enum_field_value" : 52,
     "name" : "android::hardware::graphics::common::V1_2::PixelFormat::DEPTH_32F_STENCIL_8"
    },
    {
     "enum_field_value" : 53,
     "name" : "android::hardware::graphics::common::V1_2::PixelFormat::STENCIL_8"
    },
    {
     "enum_field_value" : 54,
     "name" : "android::hardware::graphics::common::V1_2::PixelFormat::YCBCR_P010"
    },
    {
     "enum_field_value" : 55,
     "name" : "android::hardware::graphics::common::V1_2::PixelFormat::HSV_888"
    }
   ],
   "linker_set_key" : "_ZTIN7android8hardware8graphics6common4V1_211PixelFormatE",
   "name" : "android::hardware::graphics::common::V1_2::PixelFormat",
   "referenced_type" : "_ZTIN7android8hardware8graphics6common4V1_211PixelFormatE",
   "self_type" : "_ZTIN7android8hardware8graphics6common4V1_211PixelFormatE",
   "size" : 4,
   "source_file" : "/out/soong/.intermediates/hardware/interfaces/graphics/common/1.2/android.hardware.graphics.common@1.2_genc++_headers/gen/android/hardware/graphics/common/1.2/types.h",
   "underlying_type" : "_ZTIi"
  },
  {
   "alignment" : 4,
   "enum_fields" :
   [
    {
     "enum_field_value" : 1,
     "name" : "android::hardware::graphics::common::V1_2::Hdr::DOLBY_VISION"
    },
    {
     "enum_field_value" : 2,
     "name" : "android::hardware::graphics::common::V1_2::Hdr::HDR10"
    },
    {
     "enum_field_value" : 3,
     "name" : "android::hardware::graphics::common::V1_2::Hdr::HLG"
    },
    {
     "enum_field_value" : 4,
     "name" : "android::hardware::graphics::common::V1_2::Hdr::HDR10_PLUS"
    }
   ],
   "linker_set_key" : "_ZTIN7android8hardware8graphics6common4V1_23HdrE",
   "name" : "android::hardware::graphics::common::V1_2::Hdr",
   "referenced_type" : "_ZTIN7android8hardware8graphics6common4V1_23HdrE",
   "self_type" : "_ZTIN7android8hardware8graphics6common4V1_23HdrE",
   "size" : 4,
   "source_file" : "/out/soong/.intermediates/hardware/interfaces/graphics/common/1.2/android.hardware.graphics.common@1.2_genc++_headers/gen/android/hardware/graphics/common/1.2/types.h",
   "underlying_type" : "_ZTIi"
  },
  {
   "alignment" : 4,
   "enum_fields" :
   [
    {
     "enum_field_value" : 0,
     "name" : "android::hardware::graphics::common::V1_2::ColorMode::NATIVE"
    },
    {
     "enum_field_value" : 1,
     "name" : "android::hardware::graphics::common::V1_2::ColorMode::STANDARD_BT601_625"
    },
    {
     "enum_field_value" : 2,
     "name" : "android::hardware::graphics::common::V1_2::ColorMode::STANDARD_BT601_625_UNADJUSTED"
    },
    {
     "enum_field_value" : 3,
     "name" : "android::hardware::graphics::common::V1_2::ColorMode::STANDARD_BT601_525"
    },
    {
     "enum_field_value" : 4,
     "name" : "android::hardware::graphics::common::V1_2::ColorMode::STANDARD_BT601_525_UNADJUSTED"
    },
    {
     "enum_field_value" : 5,
     "name" : "android::hardware::graphics::common::V1_2::ColorMode::STANDARD_BT709"
    },
    {
     "enum_field_value" : 6,
     "name" : "android::hardware::graphics::common::V1_2::ColorMode::DCI_P3"
    },
    {
     "enum_field_value" : 7,
     "name" : "android::hardware::graphics::common::V1_2::ColorMode::SRGB"
    },
    {
     "enum_field_value" : 8,
     "name" : "android::hardware::graphics::common::V1_2::ColorMode::ADOBE_RGB"
    },
    {
     "enum_field_value" : 9,
     "name" : "android::hardware::graphics::common::V1_2::ColorMode::DISPLAY_P3"
    },
    {
     "enum_field_value" : 10,
     "name" : "android::hardware::graphics::common::V1_2::ColorMode::BT2020"
    },
    {
     "enum_field_value" : 11,
     "name" : "android::hardware::graphics::common::V1_2::ColorMode::BT2100_PQ"
    },
    {
     "enum_field_value" : 12,
     "name" : "android::hardware::graphics::common::V1_2::ColorMode::BT2100_HLG"
    },
    {
     "enum_field_value" : 13,
     "name" : "android::hardware::graphics::common::V1_2::ColorMode::DISPLAY_BT2020"
    }
   ],
   "linker_set_key" : "_ZTIN7android8hardware8graphics6common4V1_29ColorModeE",
   "name" : "android::hardware::graphics::common::V1_2::ColorMode",
   "referenced_type" : "_ZTIN7android8hardware8graphics6common4V1_29ColorModeE",
   "self_type" : "_ZTIN7android8hardware8graphics6common4V1_29ColorModeE",
   "size" : 4,
   "source_file" : "/out/soong/.intermediates/hardware/interfaces/graphics/common/1.2/android.hardware.graphics.common@1.2_genc++_headers/gen/android/hardware/graphics/common/1.2/types.h",
   "underlying_type" : "_ZTIi"
  },
  {
   "alignment" : 4,
   "enum_fields" :
   [
    {
     "enum_field_value" : 0,
     "name" : "android::hardware::graphics::common::V1_2::Dataspace::UNKNOWN"
    },
    {
     "enum_field_value" : 1,
     "name" : "android::hardware::graphics::common::V1_2::Dataspace::ARBITRARY"
    },
    {
     "enum_field_value" : 16,
     "name" : "android::hardware::graphics::common::V1_2::Dataspace::STANDARD_SHIFT"
    },
    {
     "enum_field_value" : 4128768,
     "name" : "android::hardware::graphics::common::V1_2::Dataspace::STANDARD_MASK"
    },
    {
     "enum_field_value" : 0,
     "name" : "android::hardware::graphics::common::V1_2::Dataspace::STANDARD_UNSPECIFIED"
    },
    {
     "enum_field_value" : 65536,
     "name" : "android::hardware::graphics::common::V1_2::Dataspace::STANDARD_BT709"
    },
    {
     "enum_field_value" : 131072,
     "name" : "android::hardware::graphics::common::V1_2::Dataspace::STANDARD_BT601_625"
    },
    {
     "enum_field_value" : 196608,
     "name" : "android::hardware::graphics::common::V1_2::Dataspace::STANDARD_BT601_625_UNADJUSTED"
    },
    {
     "enum_field_value" : 262144,
     "name" : "android::hardware::graphics::common::V1_2::Dataspace::STANDARD_BT601_525"
    },
    {
     "enum_field_value" : 327680,
     "name" : "android::hardware::graphics::common::V1_2::Dataspace::STANDARD_BT601_525_UNADJUSTED"
    },
    {
     "enum_field_value" : 393216,
     "name" : "android::hardware::graphics::common::V1_2::Dataspace::STANDARD_BT2020"
    },
    {
     "enum_field_value" : 458752,
     "name" : "android::hardware::graphics::common::V1_2::Dataspace::STANDARD_BT2020_CONSTANT_LUMINANCE"
    },
    {
     "enum_field_value" : 524288,
     "name" : "android::hardware::graphics::common::V1_2::Dataspace::STANDARD_BT470M"
    },
    {
     "enum_field_value" : 589824,
     "name" : "android::hardware::graphics::common::V1_2::Dataspace::STANDARD_FILM"
    },
    {
     "enum_field_value" : 655360,
     "name" : "android::hardware::graphics::common::V1_2::Dataspace::STANDARD_DCI_P3"
    },
    {
     "enum_field_value" : 720896,
     "name" : "android::hardware::graphics::common::V1_2::Dataspace::STANDARD_ADOBE_RGB"
    },
    {
     "enum_field_value" : 22,
     "name" : "android::hardware::graphics::common::V1_2::Dataspace::TRANSFER_SHIFT"
    },
    {
     "enum_field_value" : 130023424,
     "name" : "android::hardware::graphics::common::V1_2::Dataspace::TRANSFER_MASK"
    },
    {
     "enum_field_value" : 0,
     "name" : "android::hardware::graphics::common::V1_2::Dataspace::TRANSFER_UNSPECIFIED"
    },
    {
     "enum_field_value" : 4194304,
     "name" : "android::hardware::graphics::common::V1_2::Dataspace::TRANSFER_LINEAR"
    },
    {
     "enum_field_value" : 8388608,
     "name" : "android::hardware::graphics::common::V1_2::Dataspace::TRANSFER_SRGB"
    },
    {
     "enum_field_value" : 12582912,
     "name" : "android::hardware::graphics::common::V1_2::Dataspace::TRANSFER_SMPTE_170M"
    },
    {
     "enum_field_value" : 16777216,
     "name" : "android::hardware::graphics::common::V1_2::Dataspace::TRANSFER_GAMMA2_2"
    },
    {
     "enum_field_value" : 20971520,
     "name" : "android::hardware::graphics::common::V1_2::Dataspace::TRANSFER_GAMMA2_6"
    },
    {
     "enum_field_value" : 25165824,
     "name" : "android::hardware::graphics::common::V1_2::Dataspace::TRANSFER_GAMMA2_8"
    },
    {
     "enum_field_value" : 29360128,
     "name" : "android::hardware::graphics::common::V1_2::Dataspace::TRANSFER_ST2084"
    },
    {
     "enum_field_value" : 33554432,
     "name" : "android::hardware::graphics::common::V1_2::Dataspace::TRANSFER_HLG"
    },
    {
     "enum_field_value" : 27,
     "name" : "android::hardware::graphics::common::V1_2::Dataspace::RANGE_SHIFT"
    },
    {
     "enum_field_value" : 939524096,
     "name" : "android::hardware::graphics::common::V1_2::Dataspace::RANGE_MASK"
    },
    {
     "enum_field_value" : 0,
     "name" : "android::hardware::graphics::common::V1_2::Dataspace::RANGE_UNSPECIFIED"
    },
    {
     "enum_field_value" : 134217728,
     "name" : "android::hardware::graphics::common::V1_2::Dataspace::RANGE_FULL"
    },
    {
     "enum_field_value" : 268435456,
     "name" : "android::hardware::graphics::common::V1_2::Dataspace::RANGE_LIMITED"
    },
    {
     "enum_field_value" : 402653184,
     "name" : "android::hardware::graphics::common::V1_2::Dataspace::RANGE_EXTENDED"
    },
    {
     "enum_field_value" : 512,
     "name" : "android::hardware::graphics::common::V1_2::Dataspace::SRGB_LINEAR"
    },
    {
     "enum_field_value" : 138477568,
     "name" : "android::hardware::graphics::common::V1_2::Dataspace::V0_SRGB_LINEAR"
    },
    {
     "enum_field_value" : 406913024,
     "name" : "android::hardware::graphics::common::V1_2::Dataspace::V0_SCRGB_LINEAR"
    },
    {
     "enum_field_value" : 513,
     "name" : "android::hardware::graphics::common::V1_2::Dataspace::SRGB"
    },
    {
     "enum_field_value" : 142671872,
     "name" : "android::hardware::graphics::common::V1_2::Dataspace::V0_SRGB"
    },
    {
     "enum_field_value" : 411107328,
     "name" : "android::hardware::graphics::common::V1_2::Dataspace::V0_SCRGB"
    },
    {
     "enum_field_value" : 257,
     "name" : "android::hardware::graphics::common::V1_2::Dataspace::JFIF"
    },
    {
     "enum_field_value" : 146931712,
     "name" : "android::hardware::graphics::common::V1_2::Dataspace::V0_JFIF"
    },
    {
     "enum_field_value" : 258,
     "name" : "android::hardware::graphics::common::V1_2::Dataspace::BT601_625"
    },
    {
     "enum_field_value" : 281149440,
     "name" : "android::hardware::graphics::common::V1_2::Dataspace::V0_BT601_625"
    },
    {
     "enum_field_value" : 259,
     "name" : "android::hardware::graphics::common::V1_2::Dataspace::BT601_525"
    },
    {
     "enum_field_value" : 281280512,
     "name" : "android::hardware::graphics::common::V1_2::Dataspace::V0_BT601_525"
    },
    {
     "enum_field_value" : 260,
     "name" : "android::hardware::graphics::common::V1_2::Dataspace::BT709"
    },
    {
     "enum_field_value" : 281083904,
     "name" : "android::hardware::graphics::common::V1_2::Dataspace::V0_BT709"
    },
    {
     "enum_field_value" : 139067392,
     "name" : "android::hardware::graphics::common::V1_2::Dataspace::DCI_P3_LINEAR"
    },
    {
     "enum_field_value" : 155844608,
     "name" : "android::hardware::graphics::common::V1_2::Dataspace::DCI_P3"
    },
    {
     "enum_field_value" : 139067392,
     "name" : "android::hardware::graphics::common::V1_2::Dataspace::DISPLAY_P3_LINEAR"
    },
    {
     "enum_field_value" : 143261696,
     "name" : "android::hardware::graphics::common::V1_2::Dataspace::DISPLAY_P3"
    },
    {
     "enum_field_value" : 151715840,
     "name" : "android::hardware::graphics::common::V1_2::Dataspace::ADOBE_RGB"
    },
    {
     "enum_field_value" : 138805248,
     "name" : "android::hardware::graphics::common::V1_2::Dataspace::BT2020_LINEAR"
    },
    {
     "enum_field_value" : 147193856,
     "name" : "android::hardware::graphics::common::V1_2::Dataspace::BT2020"
    },
    {
     "enum_field_value" : 163971072,
     "name" : "android::hardware::graphics::common::V1_2::Dataspace::BT2020_PQ"
    },
    {
     "enum_field_value" : 4096,
     "name" : "android::hardware::graphics::common::V1_2::Dataspace::DEPTH"
    },
    {
     "enum_field_value" : 4097,
     "name" : "android::hardware::graphics::common::V1_2::Dataspace::SENSOR"
    },
    {
     "enum_field_value" : 281411584,
     "name" : "android::hardware::graphics::common::V1_2::Dataspace::BT2020_ITU"
    },
    {
     "enum_field_value" : 298188800,
     "name" : "android::hardware::graphics::common::V1_2::Dataspace::BT2020_ITU_PQ"
    },
    {
     "enum_field_value" : 302383104,
     "name" : "android::hardware::graphics::common::V1_2::Dataspace::BT2020_ITU_HLG"
    },
    {
     "enum_field_value" : 168165376,
     "name" : "android::hardware::graphics::common::V1_2::Dataspace::BT2020_HLG"
    },
    {
     "enum_field_value" : 142999552,
     "name" : "android::hardware::graphics::common::V1_2::Dataspace::DISPLAY_BT2020"
    },
    {
     "enum_field_value" : 4098,
     "name" : "android::hardware::graphics::common::V1_2::Dataspace::DYNAMIC_DEPTH"
    },
    {
     "enum_field_value" : 4099,
     "name" : "android::hardware::graphics::common::V1_2::Dataspace::JPEG_APP_SEGMENTS"
    },
    {
     "enum_field_value" : 4100,
     "name" : "android::hardware::graphics::common::V1_2::Dataspace::HEIF"
    }
   ],
   "linker_set_key" : "_ZTIN7android8hardware8graphics6common4V1_29DataspaceE",
   "name" : "android::hardware::graphics::common::V1_2::Dataspace",
   "referenced_type" : "_ZTIN7android8hardware8graphics6common4V1_29DataspaceE",
   "self_type" : "_ZTIN7android8hardware8graphics6common4V1_29DataspaceE",
   "size" : 4,
   "source_file" : "/out/soong/.intermediates/hardware/interfaces/graphics/common/1.2/android.hardware.graphics.common@1.2_genc++_headers/gen/android/hardware/graphics/common/1.2/types.h",
   "underlying_type" : "_ZTIi"
  },
  {
   "alignment" : 4,
   "enum_fields" :
   [
    {
     "enum_field_value" : 0,
     "name" : "android::Condition::WAKE_UP_ONE"
    },
    {
     "enum_field_value" : 1,
     "name" : "android::Condition::WAKE_UP_ALL"
    }
   ],
   "linker_set_key" : "_ZTIN7android9Condition10WakeUpTypeE",
   "name" : "android::Condition::WakeUpType",
   "referenced_type" : "_ZTIN7android9Condition10WakeUpTypeE",
   "self_type" : "_ZTIN7android9Condition10WakeUpTypeE",
   "size" : 4,
   "source_file" : "/system/core/libutils/include/utils/Condition.h",
   "underlying_type" : "_ZTIj"
  },
  {
   "alignment" : 4,
   "enum_fields" :
   [
    {
     "enum_field_value" : 0,
     "name" : "android::Condition::PRIVATE"
    },
    {
     "enum_field_value" : 1,
     "name" : "android::Condition::SHARED"
    }
   ],
   "linker_set_key" : "_ZTIN7android9Condition8$PRIVATEE",
   "name" : "android::Condition::(anonymous enum at system/core/libutils/include/utils/Condition.h:54:5)",
   "referenced_type" : "_ZTIN7android9Condition8$PRIVATEE",
   "self_type" : "_ZTIN7android9Condition8$PRIVATEE",
   "size" : 4,
   "source_file" : "/system/core/libutils/include/utils/Condition.h",
   "underlying_type" : "_ZTIj"
  },
  {
   "access" : "private",
   "alignment" : 4,
   "enum_fields" :
   [
    {
     "enum_field_value" : 0,
     "name" : "android::FenceTime::State::VALID"
    },
    {
     "enum_field_value" : 1,
     "name" : "android::FenceTime::State::INVALID"
    },
    {
     "enum_field_value" : 2,
     "name" : "android::FenceTime::State::FORCED_VALID_FOR_TEST"
    }
   ],
   "linker_set_key" : "_ZTIN7android9FenceTime5StateE",
   "name" : "android::FenceTime::State",
   "referenced_type" : "_ZTIN7android9FenceTime5StateE",
   "self_type" : "_ZTIN7android9FenceTime5StateE",
   "size" : 4,
   "source_file" : "/frameworks/native/libs/ui/include/ui/FenceTime.h",
   "underlying_type" : "_ZTIi"
  },
  {
   "alignment" : 4,
   "enum_fields" :
   [
    {
     "enum_field_value" : 0,
     "name" : "android::FenceTime::Snapshot::State::EMPTY"
    },
    {
     "enum_field_value" : 1,
     "name" : "android::FenceTime::Snapshot::State::FENCE"
    },
    {
     "enum_field_value" : 2,
     "name" : "android::FenceTime::Snapshot::State::SIGNAL_TIME"
    }
   ],
   "linker_set_key" : "_ZTIN7android9FenceTime8Snapshot5StateE",
   "name" : "android::FenceTime::Snapshot::State",
   "referenced_type" : "_ZTIN7android9FenceTime8Snapshot5StateE",
   "self_type" : "_ZTIN7android9FenceTime8Snapshot5StateE",
   "size" : 4,
   "source_file" : "/frameworks/native/libs/ui/include/ui/FenceTime.h",
   "underlying_type" : "_ZTIi"
  }
 ],
 "function_types" :
 [
  {
   "alignment" : 4,
   "linker_set_key" : "_ZTIF14jobjectRefTypeP7_JNIEnvP8_jobjectE",
   "name" : "jobjectRefType (_JNIEnv *, _jobject *)",
   "parameters" :
   [
    {
     "referenced_type" : "_ZTIP7_JNIEnv"
    },
    {
     "referenced_type" : "_ZTIP8_jobject"
    }
   ],
   "referenced_type" : "_ZTIF14jobjectRefTypeP7_JNIEnvP8_jobjectE",
   "return_type" : "_ZTI14jobjectRefType",
   "self_type" : "_ZTIF14jobjectRefTypeP7_JNIEnvP8_jobjectE",
   "source_file" : "/libnativehelper/include_jni/jni.h"
  },
  {
   "alignment" : 4,
   "linker_set_key" : "_ZTIF29camera3_buffer_request_statusPK20camera3_callback_opsjPK22camera3_buffer_requestPjP25camera3_stream_buffer_retE",
   "name" : "camera3_buffer_request_status (const camera3_callback_ops *, unsigned int, const camera3_buffer_request *, unsigned int *, camera3_stream_buffer_ret *)",
   "parameters" :
   [
    {
     "referenced_type" : "_ZTIPK20camera3_callback_ops"
    },
    {
     "referenced_type" : "_ZTIj"
    },
    {
     "referenced_type" : "_ZTIPK22camera3_buffer_request"
    },
    {
     "referenced_type" : "_ZTIPj"
    },
    {
     "referenced_type" : "_ZTIP25camera3_stream_buffer_ret"
    }
   ],
   "referenced_type" : "_ZTIF29camera3_buffer_request_statusPK20camera3_callback_opsjPK22camera3_buffer_requestPjP25camera3_stream_buffer_retE",
   "return_type" : "_ZTI29camera3_buffer_request_status",
   "self_type" : "_ZTIF29camera3_buffer_request_statusPK20camera3_callback_opsjPK22camera3_buffer_requestPjP25camera3_stream_buffer_retE",
   "source_file" : "/hardware/libhardware/include/hardware/camera3.h"
  },
  {
   "alignment" : 4,
   "linker_set_key" : "_ZTIFP10_jintArrayP7_JNIEnviE",
   "name" : "_jintArray *(_JNIEnv *, int)",
   "parameters" :
   [
    {
     "referenced_type" : "_ZTIP7_JNIEnv"
    },
    {
     "referenced_type" : "_ZTIi"
    }
   ],
   "referenced_type" : "_ZTIFP10_jintArrayP7_JNIEnviE",
   "return_type" : "_ZTIP10_jintArray",
   "self_type" : "_ZTIFP10_jintArrayP7_JNIEnviE",
   "source_file" : "/libnativehelper/include_jni/jni.h"
  },
  {
   "alignment" : 4,
   "linker_set_key" : "_ZTIFP10_jmethodIDP7_JNIEnvP7_jclassPKcS6_E",
   "name" : "_jmethodID *(_JNIEnv *, _jclass *, const char *, const char *)",
   "parameters" :
   [
    {
     "referenced_type" : "_ZTIP7_JNIEnv"
    },
    {
     "referenced_type" : "_ZTIP7_jclass"
    },
    {
     "referenced_type" : "_ZTIPKc"
    },
    {
     "referenced_type" : "_ZTIPKc"
    }
   ],
   "referenced_type" : "_ZTIFP10_jmethodIDP7_JNIEnvP7_jclassPKcS6_E",
   "return_type" : "_ZTIP10_jmethodID",
   "self_type" : "_ZTIFP10_jmethodIDP7_JNIEnvP7_jclassPKcS6_E",
   "source_file" : "/libnativehelper/include_jni/jni.h"
  },
  {
   "alignment" : 4,
   "linker_set_key" : "_ZTIFP10_jmethodIDP7_JNIEnvP8_jobjectE",
   "name" : "_jmethodID *(_JNIEnv *, _jobject *)",
   "parameters" :
   [
    {
     "referenced_type" : "_ZTIP7_JNIEnv"
    },
    {
     "referenced_type" : "_ZTIP8_jobject"
    }
   ],
   "referenced_type" : "_ZTIFP10_jmethodIDP7_JNIEnvP8_jobjectE",
   "return_type" : "_ZTIP10_jmethodID",
   "self_type" : "_ZTIFP10_jmethodIDP7_JNIEnvP8_jobjectE",
   "source_file" : "/libnativehelper/include_jni/jni.h"
  },
  {
   "alignment" : 4,
   "linker_set_key" : "_ZTIFP11_jbyteArrayP7_JNIEnviE",
   "name" : "_jbyteArray *(_JNIEnv *, int)",
   "parameters" :
   [
    {
     "referenced_type" : "_ZTIP7_JNIEnv"
    },
    {
     "referenced_type" : "_ZTIi"
    }
   ],
   "referenced_type" : "_ZTIFP11_jbyteArrayP7_JNIEnviE",
   "return_type" : "_ZTIP11_jbyteArray",
   "self_type" : "_ZTIFP11_jbyteArrayP7_JNIEnviE",
   "source_file" : "/libnativehelper/include_jni/jni.h"
  },
  {
   "alignment" : 4,
   "linker_set_key" : "_ZTIFP11_jcharArrayP7_JNIEnviE",
   "name" : "_jcharArray *(_JNIEnv *, int)",
   "parameters" :
   [
    {
     "referenced_type" : "_ZTIP7_JNIEnv"
    },
    {
     "referenced_type" : "_ZTIi"
    }
   ],
   "referenced_type" : "_ZTIFP11_jcharArrayP7_JNIEnviE",
   "return_type" : "_ZTIP11_jcharArray",
   "self_type" : "_ZTIFP11_jcharArrayP7_JNIEnviE",
   "source_file" : "/libnativehelper/include_jni/jni.h"
  },
  {
   "alignment" : 4,
   "linker_set_key" : "_ZTIFP11_jlongArrayP7_JNIEnviE",
   "name" : "_jlongArray *(_JNIEnv *, int)",
   "parameters" :
   [
    {
     "referenced_type" : "_ZTIP7_JNIEnv"
    },
    {
     "referenced_type" : "_ZTIi"
    }
   ],
   "referenced_type" : "_ZTIFP11_jlongArrayP7_JNIEnviE",
   "return_type" : "_ZTIP11_jlongArray",
   "self_type" : "_ZTIFP11_jlongArrayP7_JNIEnviE",
   "source_file" : "/libnativehelper/include_jni/jni.h"
  },
  {
   "alignment" : 4,
   "linker_set_key" : "_ZTIFP11_jthrowableP7_JNIEnvE",
   "name" : "_jthrowable *(_JNIEnv *)",
   "parameters" :
   [
    {
     "referenced_type" : "_ZTIP7_JNIEnv"
    }
   ],
   "referenced_type" : "_ZTIFP11_jthrowableP7_JNIEnvE",
   "return_type" : "_ZTIP11_jthrowable",
   "self_type" : "_ZTIFP11_jthrowableP7_JNIEnvE",
   "source_file" : "/libnativehelper/include_jni/jni.h"
  },
  {
   "alignment" : 4,
   "linker_set_key" : "_ZTIFP12_jfloatArrayP7_JNIEnviE",
   "name" : "_jfloatArray *(_JNIEnv *, int)",
   "parameters" :
   [
    {
     "referenced_type" : "_ZTIP7_JNIEnv"
    },
    {
     "referenced_type" : "_ZTIi"
    }
   ],
   "referenced_type" : "_ZTIFP12_jfloatArrayP7_JNIEnviE",
   "return_type" : "_ZTIP12_jfloatArray",
   "self_type" : "_ZTIFP12_jfloatArrayP7_JNIEnviE",
   "source_file" : "/libnativehelper/include_jni/jni.h"
  },
  {
   "alignment" : 4,
   "linker_set_key" : "_ZTIFP12_jshortArrayP7_JNIEnviE",
   "name" : "_jshortArray *(_JNIEnv *, int)",
   "parameters" :
   [
    {
     "referenced_type" : "_ZTIP7_JNIEnv"
    },
    {
     "referenced_type" : "_ZTIi"
    }
   ],
   "referenced_type" : "_ZTIFP12_jshortArrayP7_JNIEnviE",
   "return_type" : "_ZTIP12_jshortArray",
   "self_type" : "_ZTIFP12_jshortArrayP7_JNIEnviE",
   "source_file" : "/libnativehelper/include_jni/jni.h"
  },
  {
   "alignment" : 4,
   "linker_set_key" : "_ZTIFP13_jdoubleArrayP7_JNIEnviE",
   "name" : "_jdoubleArray *(_JNIEnv *, int)",
   "parameters" :
   [
    {
     "referenced_type" : "_ZTIP7_JNIEnv"
    },
    {
     "referenced_type" : "_ZTIi"
    }
   ],
   "referenced_type" : "_ZTIFP13_jdoubleArrayP7_JNIEnviE",
   "return_type" : "_ZTIP13_jdoubleArray",
   "self_type" : "_ZTIFP13_jdoubleArrayP7_JNIEnviE",
   "source_file" : "/libnativehelper/include_jni/jni.h"
  },
  {
   "alignment" : 4,
   "linker_set_key" : "_ZTIFP13_jobjectArrayP7_JNIEnviP7_jclassP8_jobjectE",
   "name" : "_jobjectArray *(_JNIEnv *, int, _jclass *, _jobject *)",
   "parameters" :
   [
    {
     "referenced_type" : "_ZTIP7_JNIEnv"
    },
    {
     "referenced_type" : "_ZTIi"
    },
    {
     "referenced_type" : "_ZTIP7_jclass"
    },
    {
     "referenced_type" : "_ZTIP8_jobject"
    }
   ],
   "referenced_type" : "_ZTIFP13_jobjectArrayP7_JNIEnviP7_jclassP8_jobjectE",
   "return_type" : "_ZTIP13_jobjectArray",
   "self_type" : "_ZTIFP13_jobjectArrayP7_JNIEnviP7_jclassP8_jobjectE",
   "source_file" : "/libnativehelper/include_jni/jni.h"
  },
  {
   "alignment" : 4,
   "linker_set_key" : "_ZTIFP14_jbooleanArrayP7_JNIEnviE",
   "name" : "_jbooleanArray *(_JNIEnv *, int)",
   "parameters" :
   [
    {
     "referenced_type" : "_ZTIP7_JNIEnv"
    },
    {
     "referenced_type" : "_ZTIi"
    }
   ],
   "referenced_type" : "_ZTIFP14_jbooleanArrayP7_JNIEnviE",
   "return_type" : "_ZTIP14_jbooleanArray",
   "self_type" : "_ZTIFP14_jbooleanArrayP7_JNIEnviE",
   "source_file" : "/libnativehelper/include_jni/jni.h"
  },
  {
   "alignment" : 4,
   "linker_set_key" : "_ZTIFP7_jclassP7_JNIEnvP8_jobjectE",
   "name" : "_jclass *(_JNIEnv *, _jobject *)",
   "parameters" :
   [
    {
     "referenced_type" : "_ZTIP7_JNIEnv"
    },
    {
     "referenced_type" : "_ZTIP8_jobject"
    }
   ],
   "referenced_type" : "_ZTIFP7_jclassP7_JNIEnvP8_jobjectE",
   "return_type" : "_ZTIP7_jclass",
   "self_type" : "_ZTIFP7_jclassP7_JNIEnvP8_jobjectE",
   "source_file" : "/libnativehelper/include_jni/jni.h"
  },
  {
   "alignment" : 4,
   "linker_set_key" : "_ZTIFP7_jclassP7_JNIEnvPKcE",
   "name" : "_jclass *(_JNIEnv *, const char *)",
   "parameters" :
   [
    {
     "referenced_type" : "_ZTIP7_JNIEnv"
    },
    {
     "referenced_type" : "_ZTIPKc"
    }
   ],
   "referenced_type" : "_ZTIFP7_jclassP7_JNIEnvPKcE",
   "return_type" : "_ZTIP7_jclass",
   "self_type" : "_ZTIFP7_jclassP7_JNIEnvPKcE",
   "source_file" : "/libnativehelper/include_jni/jni.h"
  },
  {
   "alignment" : 4,
   "linker_set_key" : "_ZTIFP7_jclassP7_JNIEnvPKcP8_jobjectPKaiE",
   "name" : "_jclass *(_JNIEnv *, const char *, _jobject *, const signed char *, int)",
   "parameters" :
   [
    {
     "referenced_type" : "_ZTIP7_JNIEnv"
    },
    {
     "referenced_type" : "_ZTIPKc"
    },
    {
     "referenced_type" : "_ZTIP8_jobject"
    },
    {
     "referenced_type" : "_ZTIPKa"
    },
    {
     "referenced_type" : "_ZTIi"
    }
   ],
   "referenced_type" : "_ZTIFP7_jclassP7_JNIEnvPKcP8_jobjectPKaiE",
   "return_type" : "_ZTIP7_jclass",
   "self_type" : "_ZTIFP7_jclassP7_JNIEnvPKcP8_jobjectPKaiE",
   "source_file" : "/libnativehelper/include_jni/jni.h"
  },
  {
   "alignment" : 4,
   "linker_set_key" : "_ZTIFP7_jclassP7_JNIEnvS0_E",
   "name" : "_jclass *(_JNIEnv *, _jclass *)",
   "parameters" :
   [
    {
     "referenced_type" : "_ZTIP7_JNIEnv"
    },
    {
     "referenced_type" : "_ZTIP7_jclass"
    }
   ],
   "referenced_type" : "_ZTIFP7_jclassP7_JNIEnvS0_E",
   "return_type" : "_ZTIP7_jclass",
   "self_type" : "_ZTIFP7_jclassP7_JNIEnvS0_E",
   "source_file" : "/libnativehelper/include_jni/jni.h"
  },
  {
   "alignment" : 4,
   "linker_set_key" : "_ZTIFP8_jobjectP7_JNIEnvP13_jobjectArrayiE",
   "name" : "_jobject *(_JNIEnv *, _jobjectArray *, int)",
   "parameters" :
   [
    {
     "referenced_type" : "_ZTIP7_JNIEnv"
    },
    {
     "referenced_type" : "_ZTIP13_jobjectArray"
    },
    {
     "referenced_type" : "_ZTIi"
    }
   ],
   "referenced_type" : "_ZTIFP8_jobjectP7_JNIEnvP13_jobjectArrayiE",
   "return_type" : "_ZTIP8_jobject",
   "self_type" : "_ZTIFP8_jobjectP7_JNIEnvP13_jobjectArrayiE",
   "source_file" : "/libnativehelper/include_jni/jni.h"
  },
  {
   "alignment" : 4,
   "linker_set_key" : "_ZTIFP8_jobjectP7_JNIEnvP7_jclassE",
   "name" : "_jobject *(_JNIEnv *, _jclass *)",
   "parameters" :
   [
    {
     "referenced_type" : "_ZTIP7_JNIEnv"
    },
    {
     "referenced_type" : "_ZTIP7_jclass"
    }
   ],
   "referenced_type" : "_ZTIFP8_jobjectP7_JNIEnvP7_jclassE",
   "return_type" : "_ZTIP8_jobject",
   "self_type" : "_ZTIFP8_jobjectP7_JNIEnvP7_jclassE",
   "source_file" : "/libnativehelper/include_jni/jni.h"
  },
  {
   "alignment" : 4,
   "linker_set_key" : "_ZTIFP8_jobjectP7_JNIEnvP7_jclassP10_jmethodIDPK6jvalueE",
   "name" : "_jobject *(_JNIEnv *, _jclass *, _jmethodID *, const jvalue *)",
   "parameters" :
   [
    {
     "referenced_type" : "_ZTIP7_JNIEnv"
    },
    {
     "referenced_type" : "_ZTIP7_jclass"
    },
    {
     "referenced_type" : "_ZTIP10_jmethodID"
    },
    {
     "referenced_type" : "_ZTIPK6jvalue"
    }
   ],
   "referenced_type" : "_ZTIFP8_jobjectP7_JNIEnvP7_jclassP10_jmethodIDPK6jvalueE",
   "return_type" : "_ZTIP8_jobject",
   "self_type" : "_ZTIFP8_jobjectP7_JNIEnvP7_jclassP10_jmethodIDPK6jvalueE",
   "source_file" : "/libnativehelper/include_jni/jni.h"
  },
  {
   "alignment" : 4,
   "linker_set_key" : "_ZTIFP8_jobjectP7_JNIEnvP7_jclassP10_jmethodIDSt9__va_listE",
   "name" : "_jobject *(_JNIEnv *, _jclass *, _jmethodID *, std::__va_list)",
   "parameters" :
   [
    {
     "referenced_type" : "_ZTIP7_JNIEnv"
    },
    {
     "referenced_type" : "_ZTIP7_jclass"
    },
    {
     "referenced_type" : "_ZTIP10_jmethodID"
    },
    {
     "referenced_type" : "_ZTISt9__va_list"
    }
   ],
   "referenced_type" : "_ZTIFP8_jobjectP7_JNIEnvP7_jclassP10_jmethodIDSt9__va_listE",
   "return_type" : "_ZTIP8_jobject",
   "self_type" : "_ZTIFP8_jobjectP7_JNIEnvP7_jclassP10_jmethodIDSt9__va_listE",
   "source_file" : "/libnativehelper/include_jni/jni.h"
  },
  {
   "alignment" : 4,
   "linker_set_key" : "_ZTIFP8_jobjectP7_JNIEnvP7_jclassP10_jmethodIDhE",
   "name" : "_jobject *(_JNIEnv *, _jclass *, _jmethodID *, unsigned char)",
   "parameters" :
   [
    {
     "referenced_type" : "_ZTIP7_JNIEnv"
    },
    {
     "referenced_type" : "_ZTIP7_jclass"
    },
    {
     "referenced_type" : "_ZTIP10_jmethodID"
    },
    {
     "referenced_type" : "_ZTIh"
    }
   ],
   "referenced_type" : "_ZTIFP8_jobjectP7_JNIEnvP7_jclassP10_jmethodIDhE",
   "return_type" : "_ZTIP8_jobject",
   "self_type" : "_ZTIFP8_jobjectP7_JNIEnvP7_jclassP10_jmethodIDhE",
   "source_file" : "/libnativehelper/include_jni/jni.h"
  },
  {
   "alignment" : 4,
   "linker_set_key" : "_ZTIFP8_jobjectP7_JNIEnvP7_jclassP10_jmethodIDzE",
   "name" : "_jobject *(_JNIEnv *, _jclass *, _jmethodID *, ...)",
   "parameters" :
   [
    {
     "referenced_type" : "_ZTIP7_JNIEnv"
    },
    {
     "referenced_type" : "_ZTIP7_jclass"
    },
    {
     "referenced_type" : "_ZTIP10_jmethodID"
    }
   ],
   "referenced_type" : "_ZTIFP8_jobjectP7_JNIEnvP7_jclassP10_jmethodIDzE",
   "return_type" : "_ZTIP8_jobject",
   "self_type" : "_ZTIFP8_jobjectP7_JNIEnvP7_jclassP10_jmethodIDzE",
   "source_file" : "/libnativehelper/include_jni/jni.h"
  },
  {
   "alignment" : 4,
   "linker_set_key" : "_ZTIFP8_jobjectP7_JNIEnvP7_jclassP9_jfieldIDE",
   "name" : "_jobject *(_JNIEnv *, _jclass *, _jfieldID *)",
   "parameters" :
   [
    {
     "referenced_type" : "_ZTIP7_JNIEnv"
    },
    {
     "referenced_type" : "_ZTIP7_jclass"
    },
    {
     "referenced_type" : "_ZTIP9_jfieldID"
    }
   ],
   "referenced_type" : "_ZTIFP8_jobjectP7_JNIEnvP7_jclassP9_jfieldIDE",
   "return_type" : "_ZTIP8_jobject",
   "self_type" : "_ZTIFP8_jobjectP7_JNIEnvP7_jclassP9_jfieldIDE",
   "source_file" : "/libnativehelper/include_jni/jni.h"
  },
  {
   "alignment" : 4,
   "linker_set_key" : "_ZTIFP8_jobjectP7_JNIEnvP7_jclassP9_jfieldIDhE",
   "name" : "_jobject *(_JNIEnv *, _jclass *, _jfieldID *, unsigned char)",
   "parameters" :
   [
    {
     "referenced_type" : "_ZTIP7_JNIEnv"
    },
    {
     "referenced_type" : "_ZTIP7_jclass"
    },
    {
     "referenced_type" : "_ZTIP9_jfieldID"
    },
    {
     "referenced_type" : "_ZTIh"
    }
   ],
   "referenced_type" : "_ZTIFP8_jobjectP7_JNIEnvP7_jclassP9_jfieldIDhE",
   "return_type" : "_ZTIP8_jobject",
   "self_type" : "_ZTIFP8_jobjectP7_JNIEnvP7_jclassP9_jfieldIDhE",
   "source_file" : "/libnativehelper/include_jni/jni.h"
  },
  {
   "alignment" : 4,
   "linker_set_key" : "_ZTIFP8_jobjectP7_JNIEnvPvxE",
   "name" : "_jobject *(_JNIEnv *, void *, long long)",
   "parameters" :
   [
    {
     "referenced_type" : "_ZTIP7_JNIEnv"
    },
    {
     "referenced_type" : "_ZTIPv"
    },
    {
     "referenced_type" : "_ZTIx"
    }
   ],
   "referenced_type" : "_ZTIFP8_jobjectP7_JNIEnvPvxE",
   "return_type" : "_ZTIP8_jobject",
   "self_type" : "_ZTIFP8_jobjectP7_JNIEnvPvxE",
   "source_file" : "/libnativehelper/include_jni/jni.h"
  },
  {
   "alignment" : 4,
   "linker_set_key" : "_ZTIFP8_jobjectP7_JNIEnvS0_E",
   "name" : "_jobject *(_JNIEnv *, _jobject *)",
   "parameters" :
   [
    {
     "referenced_type" : "_ZTIP7_JNIEnv"
    },
    {
     "referenced_type" : "_ZTIP8_jobject"
    }
   ],
   "referenced_type" : "_ZTIFP8_jobjectP7_JNIEnvS0_E",
   "return_type" : "_ZTIP8_jobject",
   "self_type" : "_ZTIFP8_jobjectP7_JNIEnvS0_E",
   "source_file" : "/libnativehelper/include_jni/jni.h"
  },
  {
   "alignment" : 4,
   "linker_set_key" : "_ZTIFP8_jobjectP7_JNIEnvS0_P10_jmethodIDPK6jvalueE",
   "name" : "_jobject *(_JNIEnv *, _jobject *, _jmethodID *, const jvalue *)",
   "parameters" :
   [
    {
     "referenced_type" : "_ZTIP7_JNIEnv"
    },
    {
     "referenced_type" : "_ZTIP8_jobject"
    },
    {
     "referenced_type" : "_ZTIP10_jmethodID"
    },
    {
     "referenced_type" : "_ZTIPK6jvalue"
    }
   ],
   "referenced_type" : "_ZTIFP8_jobjectP7_JNIEnvS0_P10_jmethodIDPK6jvalueE",
   "return_type" : "_ZTIP8_jobject",
   "self_type" : "_ZTIFP8_jobjectP7_JNIEnvS0_P10_jmethodIDPK6jvalueE",
   "source_file" : "/libnativehelper/include_jni/jni.h"
  },
  {
   "alignment" : 4,
   "linker_set_key" : "_ZTIFP8_jobjectP7_JNIEnvS0_P10_jmethodIDSt9__va_listE",
   "name" : "_jobject *(_JNIEnv *, _jobject *, _jmethodID *, std::__va_list)",
   "parameters" :
   [
    {
     "referenced_type" : "_ZTIP7_JNIEnv"
    },
    {
     "referenced_type" : "_ZTIP8_jobject"
    },
    {
     "referenced_type" : "_ZTIP10_jmethodID"
    },
    {
     "referenced_type" : "_ZTISt9__va_list"
    }
   ],
   "referenced_type" : "_ZTIFP8_jobjectP7_JNIEnvS0_P10_jmethodIDSt9__va_listE",
   "return_type" : "_ZTIP8_jobject",
   "self_type" : "_ZTIFP8_jobjectP7_JNIEnvS0_P10_jmethodIDSt9__va_listE",
   "source_file" : "/libnativehelper/include_jni/jni.h"
  },
  {
   "alignment" : 4,
   "linker_set_key" : "_ZTIFP8_jobjectP7_JNIEnvS0_P10_jmethodIDzE",
   "name" : "_jobject *(_JNIEnv *, _jobject *, _jmethodID *, ...)",
   "parameters" :
   [
    {
     "referenced_type" : "_ZTIP7_JNIEnv"
    },
    {
     "referenced_type" : "_ZTIP8_jobject"
    },
    {
     "referenced_type" : "_ZTIP10_jmethodID"
    }
   ],
   "referenced_type" : "_ZTIFP8_jobjectP7_JNIEnvS0_P10_jmethodIDzE",
   "return_type" : "_ZTIP8_jobject",
   "self_type" : "_ZTIFP8_jobjectP7_JNIEnvS0_P10_jmethodIDzE",
   "source_file" : "/libnativehelper/include_jni/jni.h"
  },
  {
   "alignment" : 4,
   "linker_set_key" : "_ZTIFP8_jobjectP7_JNIEnvS0_P7_jclassP10_jmethodIDPK6jvalueE",
   "name" : "_jobject *(_JNIEnv *, _jobject *, _jclass *, _jmethodID *, const jvalue *)",
   "parameters" :
   [
    {
     "referenced_type" : "_ZTIP7_JNIEnv"
    },
    {
     "referenced_type" : "_ZTIP8_jobject"
    },
    {
     "referenced_type" : "_ZTIP7_jclass"
    },
    {
     "referenced_type" : "_ZTIP10_jmethodID"
    },
    {
     "referenced_type" : "_ZTIPK6jvalue"
    }
   ],
   "referenced_type" : "_ZTIFP8_jobjectP7_JNIEnvS0_P7_jclassP10_jmethodIDPK6jvalueE",
   "return_type" : "_ZTIP8_jobject",
   "self_type" : "_ZTIFP8_jobjectP7_JNIEnvS0_P7_jclassP10_jmethodIDPK6jvalueE",
   "source_file" : "/libnativehelper/include_jni/jni.h"
  },
  {
   "alignment" : 4,
   "linker_set_key" : "_ZTIFP8_jobjectP7_JNIEnvS0_P7_jclassP10_jmethodIDSt9__va_listE",
   "name" : "_jobject *(_JNIEnv *, _jobject *, _jclass *, _jmethodID *, std::__va_list)",
   "parameters" :
   [
    {
     "referenced_type" : "_ZTIP7_JNIEnv"
    },
    {
     "referenced_type" : "_ZTIP8_jobject"
    },
    {
     "referenced_type" : "_ZTIP7_jclass"
    },
    {
     "referenced_type" : "_ZTIP10_jmethodID"
    },
    {
     "referenced_type" : "_ZTISt9__va_list"
    }
   ],
   "referenced_type" : "_ZTIFP8_jobjectP7_JNIEnvS0_P7_jclassP10_jmethodIDSt9__va_listE",
   "return_type" : "_ZTIP8_jobject",
   "self_type" : "_ZTIFP8_jobjectP7_JNIEnvS0_P7_jclassP10_jmethodIDSt9__va_listE",
   "source_file" : "/libnativehelper/include_jni/jni.h"
  },
  {
   "alignment" : 4,
   "linker_set_key" : "_ZTIFP8_jobjectP7_JNIEnvS0_P7_jclassP10_jmethodIDzE",
   "name" : "_jobject *(_JNIEnv *, _jobject *, _jclass *, _jmethodID *, ...)",
   "parameters" :
   [
    {
     "referenced_type" : "_ZTIP7_JNIEnv"
    },
    {
     "referenced_type" : "_ZTIP8_jobject"
    },
    {
     "referenced_type" : "_ZTIP7_jclass"
    },
    {
     "referenced_type" : "_ZTIP10_jmethodID"
    }
   ],
   "referenced_type" : "_ZTIFP8_jobjectP7_JNIEnvS0_P7_jclassP10_jmethodIDzE",
   "return_type" : "_ZTIP8_jobject",
   "self_type" : "_ZTIFP8_jobjectP7_JNIEnvS0_P7_jclassP10_jmethodIDzE",
   "source_file" : "/libnativehelper/include_jni/jni.h"
  },
  {
   "alignment" : 4,
   "linker_set_key" : "_ZTIFP8_jobjectP7_JNIEnvS0_P9_jfieldIDE",
   "name" : "_jobject *(_JNIEnv *, _jobject *, _jfieldID *)",
   "parameters" :
   [
    {
     "referenced_type" : "_ZTIP7_JNIEnv"
    },
    {
     "referenced_type" : "_ZTIP8_jobject"
    },
    {
     "referenced_type" : "_ZTIP9_jfieldID"
    }
   ],
   "referenced_type" : "_ZTIFP8_jobjectP7_JNIEnvS0_P9_jfieldIDE",
   "return_type" : "_ZTIP8_jobject",
   "self_type" : "_ZTIFP8_jobjectP7_JNIEnvS0_P9_jfieldIDE",
   "source_file" : "/libnativehelper/include_jni/jni.h"
  },
  {
   "alignment" : 4,
   "linker_set_key" : "_ZTIFP8_jstringP7_JNIEnvPKcE",
   "name" : "_jstring *(_JNIEnv *, const char *)",
   "parameters" :
   [
    {
     "referenced_type" : "_ZTIP7_JNIEnv"
    },
    {
     "referenced_type" : "_ZTIPKc"
    }
   ],
   "referenced_type" : "_ZTIFP8_jstringP7_JNIEnvPKcE",
   "return_type" : "_ZTIP8_jstring",
   "self_type" : "_ZTIFP8_jstringP7_JNIEnvPKcE",
   "source_file" : "/libnativehelper/include_jni/jni.h"
  },
  {
   "alignment" : 4,
   "linker_set_key" : "_ZTIFP8_jstringP7_JNIEnvPKtiE",
   "name" : "_jstring *(_JNIEnv *, const unsigned short *, int)",
   "parameters" :
   [
    {
     "referenced_type" : "_ZTIP7_JNIEnv"
    },
    {
     "referenced_type" : "_ZTIPKt"
    },
    {
     "referenced_type" : "_ZTIi"
    }
   ],
   "referenced_type" : "_ZTIFP8_jstringP7_JNIEnvPKtiE",
   "return_type" : "_ZTIP8_jstring",
   "self_type" : "_ZTIFP8_jstringP7_JNIEnvPKtiE",
   "source_file" : "/libnativehelper/include_jni/jni.h"
  },
  {
   "alignment" : 4,
   "linker_set_key" : "_ZTIFP9_jfieldIDP7_JNIEnvP7_jclassPKcS6_E",
   "name" : "_jfieldID *(_JNIEnv *, _jclass *, const char *, const char *)",
   "parameters" :
   [
    {
     "referenced_type" : "_ZTIP7_JNIEnv"
    },
    {
     "referenced_type" : "_ZTIP7_jclass"
    },
    {
     "referenced_type" : "_ZTIPKc"
    },
    {
     "referenced_type" : "_ZTIPKc"
    }
   ],
   "referenced_type" : "_ZTIFP9_jfieldIDP7_JNIEnvP7_jclassPKcS6_E",
   "return_type" : "_ZTIP9_jfieldID",
   "self_type" : "_ZTIFP9_jfieldIDP7_JNIEnvP7_jclassPKcS6_E",
   "source_file" : "/libnativehelper/include_jni/jni.h"
  },
  {
   "alignment" : 4,
   "linker_set_key" : "_ZTIFP9_jfieldIDP7_JNIEnvP8_jobjectE",
   "name" : "_jfieldID *(_JNIEnv *, _jobject *)",
   "parameters" :
   [
    {
     "referenced_type" : "_ZTIP7_JNIEnv"
    },
    {
     "referenced_type" : "_ZTIP8_jobject"
    }
   ],
   "referenced_type" : "_ZTIFP9_jfieldIDP7_JNIEnvP8_jobjectE",
   "return_type" : "_ZTIP9_jfieldID",
   "self_type" : "_ZTIFP9_jfieldIDP7_JNIEnvP8_jobjectE",
   "source_file" : "/libnativehelper/include_jni/jni.h"
  },
  {
   "alignment" : 4,
   "linker_set_key" : "_ZTIFPK15camera_metadataPK14camera3_deviceiE",
   "name" : "const camera_metadata *(const camera3_device *, int)",
   "parameters" :
   [
    {
     "referenced_type" : "_ZTIPK14camera3_device"
    },
    {
     "referenced_type" : "_ZTIi"
    }
   ],
   "referenced_type" : "_ZTIFPK15camera_metadataPK14camera3_deviceiE",
   "return_type" : "_ZTIPK15camera_metadata",
   "self_type" : "_ZTIFPK15camera_metadataPK14camera3_deviceiE",
   "source_file" : "/hardware/libhardware/include/hardware/camera3.h"
  },
  {
   "alignment" : 4,
   "linker_set_key" : "_ZTIFPKcP7_JNIEnvP8_jstringPhE",
   "name" : "const char *(_JNIEnv *, _jstring *, unsigned char *)",
   "parameters" :
   [
    {
     "referenced_type" : "_ZTIP7_JNIEnv"
    },
    {
     "referenced_type" : "_ZTIP8_jstring"
    },
    {
     "referenced_type" : "_ZTIPh"
    }
   ],
   "referenced_type" : "_ZTIFPKcP7_JNIEnvP8_jstringPhE",
   "return_type" : "_ZTIPKc",
   "self_type" : "_ZTIFPKcP7_JNIEnvP8_jstringPhE",
   "source_file" : "/libnativehelper/include_jni/jni.h"
  },
  {
   "alignment" : 4,
   "linker_set_key" : "_ZTIFPKtP7_JNIEnvP8_jstringPhE",
   "name" : "const unsigned short *(_JNIEnv *, _jstring *, unsigned char *)",
   "parameters" :
   [
    {
     "referenced_type" : "_ZTIP7_JNIEnv"
    },
    {
     "referenced_type" : "_ZTIP8_jstring"
    },
    {
     "referenced_type" : "_ZTIPh"
    }
   ],
   "referenced_type" : "_ZTIFPKtP7_JNIEnvP8_jstringPhE",
   "return_type" : "_ZTIPKt",
   "self_type" : "_ZTIFPKtP7_JNIEnvP8_jstringPhE",
   "source_file" : "/libnativehelper/include_jni/jni.h"
  },
  {
   "alignment" : 4,
   "linker_set_key" : "_ZTIFPaP7_JNIEnvP11_jbyteArrayPhE",
   "name" : "signed char *(_JNIEnv *, _jbyteArray *, unsigned char *)",
   "parameters" :
   [
    {
     "referenced_type" : "_ZTIP7_JNIEnv"
    },
    {
     "referenced_type" : "_ZTIP11_jbyteArray"
    },
    {
     "referenced_type" : "_ZTIPh"
    }
   ],
   "referenced_type" : "_ZTIFPaP7_JNIEnvP11_jbyteArrayPhE",
   "return_type" : "_ZTIPa",
   "self_type" : "_ZTIFPaP7_JNIEnvP11_jbyteArrayPhE",
   "source_file" : "/libnativehelper/include_jni/jni.h"
  },
  {
   "alignment" : 4,
   "linker_set_key" : "_ZTIFPdP7_JNIEnvP13_jdoubleArrayPhE",
   "name" : "double *(_JNIEnv *, _jdoubleArray *, unsigned char *)",
   "parameters" :
   [
    {
     "referenced_type" : "_ZTIP7_JNIEnv"
    },
    {
     "referenced_type" : "_ZTIP13_jdoubleArray"
    },
    {
     "referenced_type" : "_ZTIPh"
    }
   ],
   "referenced_type" : "_ZTIFPdP7_JNIEnvP13_jdoubleArrayPhE",
   "return_type" : "_ZTIPd",
   "self_type" : "_ZTIFPdP7_JNIEnvP13_jdoubleArrayPhE",
   "source_file" : "/libnativehelper/include_jni/jni.h"
  },
  {
   "alignment" : 4,
   "linker_set_key" : "_ZTIFPfP7_JNIEnvP12_jfloatArrayPhE",
   "name" : "float *(_JNIEnv *, _jfloatArray *, unsigned char *)",
   "parameters" :
   [
    {
     "referenced_type" : "_ZTIP7_JNIEnv"
    },
    {
     "referenced_type" : "_ZTIP12_jfloatArray"
    },
    {
     "referenced_type" : "_ZTIPh"
    }
   ],
   "referenced_type" : "_ZTIFPfP7_JNIEnvP12_jfloatArrayPhE",
   "return_type" : "_ZTIPf",
   "self_type" : "_ZTIFPfP7_JNIEnvP12_jfloatArrayPhE",
   "source_file" : "/libnativehelper/include_jni/jni.h"
  },
  {
   "alignment" : 4,
   "linker_set_key" : "_ZTIFPhP7_JNIEnvP14_jbooleanArrayS_E",
   "name" : "unsigned char *(_JNIEnv *, _jbooleanArray *, unsigned char *)",
   "parameters" :
   [
    {
     "referenced_type" : "_ZTIP7_JNIEnv"
    },
    {
     "referenced_type" : "_ZTIP14_jbooleanArray"
    },
    {
     "referenced_type" : "_ZTIPh"
    }
   ],
   "referenced_type" : "_ZTIFPhP7_JNIEnvP14_jbooleanArrayS_E",
   "return_type" : "_ZTIPh",
   "self_type" : "_ZTIFPhP7_JNIEnvP14_jbooleanArrayS_E",
   "source_file" : "/libnativehelper/include_jni/jni.h"
  },
  {
   "alignment" : 4,
   "linker_set_key" : "_ZTIFPiP7_JNIEnvP10_jintArrayPhE",
   "name" : "int *(_JNIEnv *, _jintArray *, unsigned char *)",
   "parameters" :
   [
    {
     "referenced_type" : "_ZTIP7_JNIEnv"
    },
    {
     "referenced_type" : "_ZTIP10_jintArray"
    },
    {
     "referenced_type" : "_ZTIPh"
    }
   ],
   "referenced_type" : "_ZTIFPiP7_JNIEnvP10_jintArrayPhE",
   "return_type" : "_ZTIPi",
   "self_type" : "_ZTIFPiP7_JNIEnvP10_jintArrayPhE",
   "source_file" : "/libnativehelper/include_jni/jni.h"
  },
  {
   "alignment" : 4,
   "linker_set_key" : "_ZTIFPsP7_JNIEnvP12_jshortArrayPhE",
   "name" : "short *(_JNIEnv *, _jshortArray *, unsigned char *)",
   "parameters" :
   [
    {
     "referenced_type" : "_ZTIP7_JNIEnv"
    },
    {
     "referenced_type" : "_ZTIP12_jshortArray"
    },
    {
     "referenced_type" : "_ZTIPh"
    }
   ],
   "referenced_type" : "_ZTIFPsP7_JNIEnvP12_jshortArrayPhE",
   "return_type" : "_ZTIPs",
   "self_type" : "_ZTIFPsP7_JNIEnvP12_jshortArrayPhE",
   "source_file" : "/libnativehelper/include_jni/jni.h"
  },
  {
   "alignment" : 4,
   "linker_set_key" : "_ZTIFPtP7_JNIEnvP11_jcharArrayPhE",
   "name" : "unsigned short *(_JNIEnv *, _jcharArray *, unsigned char *)",
   "parameters" :
   [
    {
     "referenced_type" : "_ZTIP7_JNIEnv"
    },
    {
     "referenced_type" : "_ZTIP11_jcharArray"
    },
    {
     "referenced_type" : "_ZTIPh"
    }
   ],
   "referenced_type" : "_ZTIFPtP7_JNIEnvP11_jcharArrayPhE",
   "return_type" : "_ZTIPt",
   "self_type" : "_ZTIFPtP7_JNIEnvP11_jcharArrayPhE",
   "source_file" : "/libnativehelper/include_jni/jni.h"
  },
  {
   "alignment" : 4,
   "linker_set_key" : "_ZTIFPvP7_JNIEnvP7_jarrayPhE",
   "name" : "void *(_JNIEnv *, _jarray *, unsigned char *)",
   "parameters" :
   [
    {
     "referenced_type" : "_ZTIP7_JNIEnv"
    },
    {
     "referenced_type" : "_ZTIP7_jarray"
    },
    {
     "referenced_type" : "_ZTIPh"
    }
   ],
   "referenced_type" : "_ZTIFPvP7_JNIEnvP7_jarrayPhE",
   "return_type" : "_ZTIPv",
   "self_type" : "_ZTIFPvP7_JNIEnvP7_jarrayPhE",
   "source_file" : "/libnativehelper/include_jni/jni.h"
  },
  {
   "alignment" : 4,
   "linker_set_key" : "_ZTIFPvP7_JNIEnvP8_jobjectE",
   "name" : "void *(_JNIEnv *, _jobject *)",
   "parameters" :
   [
    {
     "referenced_type" : "_ZTIP7_JNIEnv"
    },
    {
     "referenced_type" : "_ZTIP8_jobject"
    }
   ],
   "referenced_type" : "_ZTIFPvP7_JNIEnvP8_jobjectE",
   "return_type" : "_ZTIPv",
   "self_type" : "_ZTIFPvP7_JNIEnvP8_jobjectE",
   "source_file" : "/libnativehelper/include_jni/jni.h"
  },
  {
   "alignment" : 4,
   "linker_set_key" : "_ZTIFPxP7_JNIEnvP11_jlongArrayPhE",
   "name" : "long long *(_JNIEnv *, _jlongArray *, unsigned char *)",
   "parameters" :
   [
    {
     "referenced_type" : "_ZTIP7_JNIEnv"
    },
    {
     "referenced_type" : "_ZTIP11_jlongArray"
    },
    {
     "referenced_type" : "_ZTIPh"
    }
   ],
   "referenced_type" : "_ZTIFPxP7_JNIEnvP11_jlongArrayPhE",
   "return_type" : "_ZTIPx",
   "self_type" : "_ZTIFPxP7_JNIEnvP11_jlongArrayPhE",
   "source_file" : "/libnativehelper/include_jni/jni.h"
  },
  {
   "alignment" : 4,
   "linker_set_key" : "_ZTIFaP7_JNIEnvP7_jclassP10_jmethodIDPK6jvalueE",
   "name" : "signed char (_JNIEnv *, _jclass *, _jmethodID *, const jvalue *)",
   "parameters" :
   [
    {
     "referenced_type" : "_ZTIP7_JNIEnv"
    },
    {
     "referenced_type" : "_ZTIP7_jclass"
    },
    {
     "referenced_type" : "_ZTIP10_jmethodID"
    },
    {
     "referenced_type" : "_ZTIPK6jvalue"
    }
   ],
   "referenced_type" : "_ZTIFaP7_JNIEnvP7_jclassP10_jmethodIDPK6jvalueE",
   "return_type" : "_ZTIa",
   "self_type" : "_ZTIFaP7_JNIEnvP7_jclassP10_jmethodIDPK6jvalueE",
   "source_file" : "/libnativehelper/include_jni/jni.h"
  },
  {
   "alignment" : 4,
   "linker_set_key" : "_ZTIFaP7_JNIEnvP7_jclassP10_jmethodIDSt9__va_listE",
   "name" : "signed char (_JNIEnv *, _jclass *, _jmethodID *, std::__va_list)",
   "parameters" :
   [
    {
     "referenced_type" : "_ZTIP7_JNIEnv"
    },
    {
     "referenced_type" : "_ZTIP7_jclass"
    },
    {
     "referenced_type" : "_ZTIP10_jmethodID"
    },
    {
     "referenced_type" : "_ZTISt9__va_list"
    }
   ],
   "referenced_type" : "_ZTIFaP7_JNIEnvP7_jclassP10_jmethodIDSt9__va_listE",
   "return_type" : "_ZTIa",
   "self_type" : "_ZTIFaP7_JNIEnvP7_jclassP10_jmethodIDSt9__va_listE",
   "source_file" : "/libnativehelper/include_jni/jni.h"
  },
  {
   "alignment" : 4,
   "linker_set_key" : "_ZTIFaP7_JNIEnvP7_jclassP10_jmethodIDzE",
   "name" : "signed char (_JNIEnv *, _jclass *, _jmethodID *, ...)",
   "parameters" :
   [
    {
     "referenced_type" : "_ZTIP7_JNIEnv"
    },
    {
     "referenced_type" : "_ZTIP7_jclass"
    },
    {
     "referenced_type" : "_ZTIP10_jmethodID"
    }
   ],
   "referenced_type" : "_ZTIFaP7_JNIEnvP7_jclassP10_jmethodIDzE",
   "return_type" : "_ZTIa",
   "self_type" : "_ZTIFaP7_JNIEnvP7_jclassP10_jmethodIDzE",
   "source_file" : "/libnativehelper/include_jni/jni.h"
  },
  {
   "alignment" : 4,
   "linker_set_key" : "_ZTIFaP7_JNIEnvP7_jclassP9_jfieldIDE",
   "name" : "signed char (_JNIEnv *, _jclass *, _jfieldID *)",
   "parameters" :
   [
    {
     "referenced_type" : "_ZTIP7_JNIEnv"
    },
    {
     "referenced_type" : "_ZTIP7_jclass"
    },
    {
     "referenced_type" : "_ZTIP9_jfieldID"
    }
   ],
   "referenced_type" : "_ZTIFaP7_JNIEnvP7_jclassP9_jfieldIDE",
   "return_type" : "_ZTIa",
   "self_type" : "_ZTIFaP7_JNIEnvP7_jclassP9_jfieldIDE",
   "source_file" : "/libnativehelper/include_jni/jni.h"
  },
  {
   "alignment" : 4,
   "linker_set_key" : "_ZTIFaP7_JNIEnvP8_jobjectP10_jmethodIDPK6jvalueE",
   "name" : "signed char (_JNIEnv *, _jobject *, _jmethodID *, const jvalue *)",
   "parameters" :
   [
    {
     "referenced_type" : "_ZTIP7_JNIEnv"
    },
    {
     "referenced_type" : "_ZTIP8_jobject"
    },
    {
     "referenced_type" : "_ZTIP10_jmethodID"
    },
    {
     "referenced_type" : "_ZTIPK6jvalue"
    }
   ],
   "referenced_type" : "_ZTIFaP7_JNIEnvP8_jobjectP10_jmethodIDPK6jvalueE",
   "return_type" : "_ZTIa",
   "self_type" : "_ZTIFaP7_JNIEnvP8_jobjectP10_jmethodIDPK6jvalueE",
   "source_file" : "/libnativehelper/include_jni/jni.h"
  },
  {
   "alignment" : 4,
   "linker_set_key" : "_ZTIFaP7_JNIEnvP8_jobjectP10_jmethodIDSt9__va_listE",
   "name" : "signed char (_JNIEnv *, _jobject *, _jmethodID *, std::__va_list)",
   "parameters" :
   [
    {
     "referenced_type" : "_ZTIP7_JNIEnv"
    },
    {
     "referenced_type" : "_ZTIP8_jobject"
    },
    {
     "referenced_type" : "_ZTIP10_jmethodID"
    },
    {
     "referenced_type" : "_ZTISt9__va_list"
    }
   ],
   "referenced_type" : "_ZTIFaP7_JNIEnvP8_jobjectP10_jmethodIDSt9__va_listE",
   "return_type" : "_ZTIa",
   "self_type" : "_ZTIFaP7_JNIEnvP8_jobjectP10_jmethodIDSt9__va_listE",
   "source_file" : "/libnativehelper/include_jni/jni.h"
  },
  {
   "alignment" : 4,
   "linker_set_key" : "_ZTIFaP7_JNIEnvP8_jobjectP10_jmethodIDzE",
   "name" : "signed char (_JNIEnv *, _jobject *, _jmethodID *, ...)",
   "parameters" :
   [
    {
     "referenced_type" : "_ZTIP7_JNIEnv"
    },
    {
     "referenced_type" : "_ZTIP8_jobject"
    },
    {
     "referenced_type" : "_ZTIP10_jmethodID"
    }
   ],
   "referenced_type" : "_ZTIFaP7_JNIEnvP8_jobjectP10_jmethodIDzE",
   "return_type" : "_ZTIa",
   "self_type" : "_ZTIFaP7_JNIEnvP8_jobjectP10_jmethodIDzE",
   "source_file" : "/libnativehelper/include_jni/jni.h"
  },
  {
   "alignment" : 4,
   "linker_set_key" : "_ZTIFaP7_JNIEnvP8_jobjectP7_jclassP10_jmethodIDPK6jvalueE",
   "name" : "signed char (_JNIEnv *, _jobject *, _jclass *, _jmethodID *, const jvalue *)",
   "parameters" :
   [
    {
     "referenced_type" : "_ZTIP7_JNIEnv"
    },
    {
     "referenced_type" : "_ZTIP8_jobject"
    },
    {
     "referenced_type" : "_ZTIP7_jclass"
    },
    {
     "referenced_type" : "_ZTIP10_jmethodID"
    },
    {
     "referenced_type" : "_ZTIPK6jvalue"
    }
   ],
   "referenced_type" : "_ZTIFaP7_JNIEnvP8_jobjectP7_jclassP10_jmethodIDPK6jvalueE",
   "return_type" : "_ZTIa",
   "self_type" : "_ZTIFaP7_JNIEnvP8_jobjectP7_jclassP10_jmethodIDPK6jvalueE",
   "source_file" : "/libnativehelper/include_jni/jni.h"
  },
  {
   "alignment" : 4,
   "linker_set_key" : "_ZTIFaP7_JNIEnvP8_jobjectP7_jclassP10_jmethodIDSt9__va_listE",
   "name" : "signed char (_JNIEnv *, _jobject *, _jclass *, _jmethodID *, std::__va_list)",
   "parameters" :
   [
    {
     "referenced_type" : "_ZTIP7_JNIEnv"
    },
    {
     "referenced_type" : "_ZTIP8_jobject"
    },
    {
     "referenced_type" : "_ZTIP7_jclass"
    },
    {
     "referenced_type" : "_ZTIP10_jmethodID"
    },
    {
     "referenced_type" : "_ZTISt9__va_list"
    }
   ],
   "referenced_type" : "_ZTIFaP7_JNIEnvP8_jobjectP7_jclassP10_jmethodIDSt9__va_listE",
   "return_type" : "_ZTIa",
   "self_type" : "_ZTIFaP7_JNIEnvP8_jobjectP7_jclassP10_jmethodIDSt9__va_listE",
   "source_file" : "/libnativehelper/include_jni/jni.h"
  },
  {
   "alignment" : 4,
   "linker_set_key" : "_ZTIFaP7_JNIEnvP8_jobjectP7_jclassP10_jmethodIDzE",
   "name" : "signed char (_JNIEnv *, _jobject *, _jclass *, _jmethodID *, ...)",
   "parameters" :
   [
    {
     "referenced_type" : "_ZTIP7_JNIEnv"
    },
    {
     "referenced_type" : "_ZTIP8_jobject"
    },
    {
     "referenced_type" : "_ZTIP7_jclass"
    },
    {
     "referenced_type" : "_ZTIP10_jmethodID"
    }
   ],
   "referenced_type" : "_ZTIFaP7_JNIEnvP8_jobjectP7_jclassP10_jmethodIDzE",
   "return_type" : "_ZTIa",
   "self_type" : "_ZTIFaP7_JNIEnvP8_jobjectP7_jclassP10_jmethodIDzE",
   "source_file" : "/libnativehelper/include_jni/jni.h"
  },
  {
   "alignment" : 4,
   "linker_set_key" : "_ZTIFaP7_JNIEnvP8_jobjectP9_jfieldIDE",
   "name" : "signed char (_JNIEnv *, _jobject *, _jfieldID *)",
   "parameters" :
   [
    {
     "referenced_type" : "_ZTIP7_JNIEnv"
    },
    {
     "referenced_type" : "_ZTIP8_jobject"
    },
    {
     "referenced_type" : "_ZTIP9_jfieldID"
    }
   ],
   "referenced_type" : "_ZTIFaP7_JNIEnvP8_jobjectP9_jfieldIDE",
   "return_type" : "_ZTIa",
   "self_type" : "_ZTIFaP7_JNIEnvP8_jobjectP9_jfieldIDE",
   "source_file" : "/libnativehelper/include_jni/jni.h"
  },
  {
   "alignment" : 4,
   "linker_set_key" : "_ZTIFdP7_JNIEnvP7_jclassP10_jmethodIDPK6jvalueE",
   "name" : "double (_JNIEnv *, _jclass *, _jmethodID *, const jvalue *)",
   "parameters" :
   [
    {
     "referenced_type" : "_ZTIP7_JNIEnv"
    },
    {
     "referenced_type" : "_ZTIP7_jclass"
    },
    {
     "referenced_type" : "_ZTIP10_jmethodID"
    },
    {
     "referenced_type" : "_ZTIPK6jvalue"
    }
   ],
   "referenced_type" : "_ZTIFdP7_JNIEnvP7_jclassP10_jmethodIDPK6jvalueE",
   "return_type" : "_ZTId",
   "self_type" : "_ZTIFdP7_JNIEnvP7_jclassP10_jmethodIDPK6jvalueE",
   "source_file" : "/libnativehelper/include_jni/jni.h"
  },
  {
   "alignment" : 4,
   "linker_set_key" : "_ZTIFdP7_JNIEnvP7_jclassP10_jmethodIDSt9__va_listE",
   "name" : "double (_JNIEnv *, _jclass *, _jmethodID *, std::__va_list)",
   "parameters" :
   [
    {
     "referenced_type" : "_ZTIP7_JNIEnv"
    },
    {
     "referenced_type" : "_ZTIP7_jclass"
    },
    {
     "referenced_type" : "_ZTIP10_jmethodID"
    },
    {
     "referenced_type" : "_ZTISt9__va_list"
    }
   ],
   "referenced_type" : "_ZTIFdP7_JNIEnvP7_jclassP10_jmethodIDSt9__va_listE",
   "return_type" : "_ZTId",
   "self_type" : "_ZTIFdP7_JNIEnvP7_jclassP10_jmethodIDSt9__va_listE",
   "source_file" : "/libnativehelper/include_jni/jni.h"
  },
  {
   "alignment" : 4,
   "linker_set_key" : "_ZTIFdP7_JNIEnvP7_jclassP10_jmethodIDzE",
   "name" : "double (_JNIEnv *, _jclass *, _jmethodID *, ...)",
   "parameters" :
   [
    {
     "referenced_type" : "_ZTIP7_JNIEnv"
    },
    {
     "referenced_type" : "_ZTIP7_jclass"
    },
    {
     "referenced_type" : "_ZTIP10_jmethodID"
    }
   ],
   "referenced_type" : "_ZTIFdP7_JNIEnvP7_jclassP10_jmethodIDzE",
   "return_type" : "_ZTId",
   "self_type" : "_ZTIFdP7_JNIEnvP7_jclassP10_jmethodIDzE",
   "source_file" : "/libnativehelper/include_jni/jni.h"
  },
  {
   "alignment" : 4,
   "linker_set_key" : "_ZTIFdP7_JNIEnvP7_jclassP9_jfieldIDE",
   "name" : "double (_JNIEnv *, _jclass *, _jfieldID *)",
   "parameters" :
   [
    {
     "referenced_type" : "_ZTIP7_JNIEnv"
    },
    {
     "referenced_type" : "_ZTIP7_jclass"
    },
    {
     "referenced_type" : "_ZTIP9_jfieldID"
    }
   ],
   "referenced_type" : "_ZTIFdP7_JNIEnvP7_jclassP9_jfieldIDE",
   "return_type" : "_ZTId",
   "self_type" : "_ZTIFdP7_JNIEnvP7_jclassP9_jfieldIDE",
   "source_file" : "/libnativehelper/include_jni/jni.h"
  },
  {
   "alignment" : 4,
   "linker_set_key" : "_ZTIFdP7_JNIEnvP8_jobjectP10_jmethodIDPK6jvalueE",
   "name" : "double (_JNIEnv *, _jobject *, _jmethodID *, const jvalue *)",
   "parameters" :
   [
    {
     "referenced_type" : "_ZTIP7_JNIEnv"
    },
    {
     "referenced_type" : "_ZTIP8_jobject"
    },
    {
     "referenced_type" : "_ZTIP10_jmethodID"
    },
    {
     "referenced_type" : "_ZTIPK6jvalue"
    }
   ],
   "referenced_type" : "_ZTIFdP7_JNIEnvP8_jobjectP10_jmethodIDPK6jvalueE",
   "return_type" : "_ZTId",
   "self_type" : "_ZTIFdP7_JNIEnvP8_jobjectP10_jmethodIDPK6jvalueE",
   "source_file" : "/libnativehelper/include_jni/jni.h"
  },
  {
   "alignment" : 4,
   "linker_set_key" : "_ZTIFdP7_JNIEnvP8_jobjectP10_jmethodIDSt9__va_listE",
   "name" : "double (_JNIEnv *, _jobject *, _jmethodID *, std::__va_list)",
   "parameters" :
   [
    {
     "referenced_type" : "_ZTIP7_JNIEnv"
    },
    {
     "referenced_type" : "_ZTIP8_jobject"
    },
    {
     "referenced_type" : "_ZTIP10_jmethodID"
    },
    {
     "referenced_type" : "_ZTISt9__va_list"
    }
   ],
   "referenced_type" : "_ZTIFdP7_JNIEnvP8_jobjectP10_jmethodIDSt9__va_listE",
   "return_type" : "_ZTId",
   "self_type" : "_ZTIFdP7_JNIEnvP8_jobjectP10_jmethodIDSt9__va_listE",
   "source_file" : "/libnativehelper/include_jni/jni.h"
  },
  {
   "alignment" : 4,
   "linker_set_key" : "_ZTIFdP7_JNIEnvP8_jobjectP10_jmethodIDzE",
   "name" : "double (_JNIEnv *, _jobject *, _jmethodID *, ...)",
   "parameters" :
   [
    {
     "referenced_type" : "_ZTIP7_JNIEnv"
    },
    {
     "referenced_type" : "_ZTIP8_jobject"
    },
    {
     "referenced_type" : "_ZTIP10_jmethodID"
    }
   ],
   "referenced_type" : "_ZTIFdP7_JNIEnvP8_jobjectP10_jmethodIDzE",
   "return_type" : "_ZTId",
   "self_type" : "_ZTIFdP7_JNIEnvP8_jobjectP10_jmethodIDzE",
   "source_file" : "/libnativehelper/include_jni/jni.h"
  },
  {
   "alignment" : 4,
   "linker_set_key" : "_ZTIFdP7_JNIEnvP8_jobjectP7_jclassP10_jmethodIDPK6jvalueE",
   "name" : "double (_JNIEnv *, _jobject *, _jclass *, _jmethodID *, const jvalue *)",
   "parameters" :
   [
    {
     "referenced_type" : "_ZTIP7_JNIEnv"
    },
    {
     "referenced_type" : "_ZTIP8_jobject"
    },
    {
     "referenced_type" : "_ZTIP7_jclass"
    },
    {
     "referenced_type" : "_ZTIP10_jmethodID"
    },
    {
     "referenced_type" : "_ZTIPK6jvalue"
    }
   ],
   "referenced_type" : "_ZTIFdP7_JNIEnvP8_jobjectP7_jclassP10_jmethodIDPK6jvalueE",
   "return_type" : "_ZTId",
   "self_type" : "_ZTIFdP7_JNIEnvP8_jobjectP7_jclassP10_jmethodIDPK6jvalueE",
   "source_file" : "/libnativehelper/include_jni/jni.h"
  },
  {
   "alignment" : 4,
   "linker_set_key" : "_ZTIFdP7_JNIEnvP8_jobjectP7_jclassP10_jmethodIDSt9__va_listE",
   "name" : "double (_JNIEnv *, _jobject *, _jclass *, _jmethodID *, std::__va_list)",
   "parameters" :
   [
    {
     "referenced_type" : "_ZTIP7_JNIEnv"
    },
    {
     "referenced_type" : "_ZTIP8_jobject"
    },
    {
     "referenced_type" : "_ZTIP7_jclass"
    },
    {
     "referenced_type" : "_ZTIP10_jmethodID"
    },
    {
     "referenced_type" : "_ZTISt9__va_list"
    }
   ],
   "referenced_type" : "_ZTIFdP7_JNIEnvP8_jobjectP7_jclassP10_jmethodIDSt9__va_listE",
   "return_type" : "_ZTId",
   "self_type" : "_ZTIFdP7_JNIEnvP8_jobjectP7_jclassP10_jmethodIDSt9__va_listE",
   "source_file" : "/libnativehelper/include_jni/jni.h"
  },
  {
   "alignment" : 4,
   "linker_set_key" : "_ZTIFdP7_JNIEnvP8_jobjectP7_jclassP10_jmethodIDzE",
   "name" : "double (_JNIEnv *, _jobject *, _jclass *, _jmethodID *, ...)",
   "parameters" :
   [
    {
     "referenced_type" : "_ZTIP7_JNIEnv"
    },
    {
     "referenced_type" : "_ZTIP8_jobject"
    },
    {
     "referenced_type" : "_ZTIP7_jclass"
    },
    {
     "referenced_type" : "_ZTIP10_jmethodID"
    }
   ],
   "referenced_type" : "_ZTIFdP7_JNIEnvP8_jobjectP7_jclassP10_jmethodIDzE",
   "return_type" : "_ZTId",
   "self_type" : "_ZTIFdP7_JNIEnvP8_jobjectP7_jclassP10_jmethodIDzE",
   "source_file" : "/libnativehelper/include_jni/jni.h"
  },
  {
   "alignment" : 4,
   "linker_set_key" : "_ZTIFdP7_JNIEnvP8_jobjectP9_jfieldIDE",
   "name" : "double (_JNIEnv *, _jobject *, _jfieldID *)",
   "parameters" :
   [
    {
     "referenced_type" : "_ZTIP7_JNIEnv"
    },
    {
     "referenced_type" : "_ZTIP8_jobject"
    },
    {
     "referenced_type" : "_ZTIP9_jfieldID"
    }
   ],
   "referenced_type" : "_ZTIFdP7_JNIEnvP8_jobjectP9_jfieldIDE",
   "return_type" : "_ZTId",
   "self_type" : "_ZTIFdP7_JNIEnvP8_jobjectP9_jfieldIDE",
   "source_file" : "/libnativehelper/include_jni/jni.h"
  },
  {
   "alignment" : 4,
   "linker_set_key" : "_ZTIFfP7_JNIEnvP7_jclassP10_jmethodIDPK6jvalueE",
   "name" : "float (_JNIEnv *, _jclass *, _jmethodID *, const jvalue *)",
   "parameters" :
   [
    {
     "referenced_type" : "_ZTIP7_JNIEnv"
    },
    {
     "referenced_type" : "_ZTIP7_jclass"
    },
    {
     "referenced_type" : "_ZTIP10_jmethodID"
    },
    {
     "referenced_type" : "_ZTIPK6jvalue"
    }
   ],
   "referenced_type" : "_ZTIFfP7_JNIEnvP7_jclassP10_jmethodIDPK6jvalueE",
   "return_type" : "_ZTIf",
   "self_type" : "_ZTIFfP7_JNIEnvP7_jclassP10_jmethodIDPK6jvalueE",
   "source_file" : "/libnativehelper/include_jni/jni.h"
  },
  {
   "alignment" : 4,
   "linker_set_key" : "_ZTIFfP7_JNIEnvP7_jclassP10_jmethodIDSt9__va_listE",
   "name" : "float (_JNIEnv *, _jclass *, _jmethodID *, std::__va_list)",
   "parameters" :
   [
    {
     "referenced_type" : "_ZTIP7_JNIEnv"
    },
    {
     "referenced_type" : "_ZTIP7_jclass"
    },
    {
     "referenced_type" : "_ZTIP10_jmethodID"
    },
    {
     "referenced_type" : "_ZTISt9__va_list"
    }
   ],
   "referenced_type" : "_ZTIFfP7_JNIEnvP7_jclassP10_jmethodIDSt9__va_listE",
   "return_type" : "_ZTIf",
   "self_type" : "_ZTIFfP7_JNIEnvP7_jclassP10_jmethodIDSt9__va_listE",
   "source_file" : "/libnativehelper/include_jni/jni.h"
  },
  {
   "alignment" : 4,
   "linker_set_key" : "_ZTIFfP7_JNIEnvP7_jclassP10_jmethodIDzE",
   "name" : "float (_JNIEnv *, _jclass *, _jmethodID *, ...)",
   "parameters" :
   [
    {
     "referenced_type" : "_ZTIP7_JNIEnv"
    },
    {
     "referenced_type" : "_ZTIP7_jclass"
    },
    {
     "referenced_type" : "_ZTIP10_jmethodID"
    }
   ],
   "referenced_type" : "_ZTIFfP7_JNIEnvP7_jclassP10_jmethodIDzE",
   "return_type" : "_ZTIf",
   "self_type" : "_ZTIFfP7_JNIEnvP7_jclassP10_jmethodIDzE",
   "source_file" : "/libnativehelper/include_jni/jni.h"
  },
  {
   "alignment" : 4,
   "linker_set_key" : "_ZTIFfP7_JNIEnvP7_jclassP9_jfieldIDE",
   "name" : "float (_JNIEnv *, _jclass *, _jfieldID *)",
   "parameters" :
   [
    {
     "referenced_type" : "_ZTIP7_JNIEnv"
    },
    {
     "referenced_type" : "_ZTIP7_jclass"
    },
    {
     "referenced_type" : "_ZTIP9_jfieldID"
    }
   ],
   "referenced_type" : "_ZTIFfP7_JNIEnvP7_jclassP9_jfieldIDE",
   "return_type" : "_ZTIf",
   "self_type" : "_ZTIFfP7_JNIEnvP7_jclassP9_jfieldIDE",
   "source_file" : "/libnativehelper/include_jni/jni.h"
  },
  {
   "alignment" : 4,
   "linker_set_key" : "_ZTIFfP7_JNIEnvP8_jobjectP10_jmethodIDPK6jvalueE",
   "name" : "float (_JNIEnv *, _jobject *, _jmethodID *, const jvalue *)",
   "parameters" :
   [
    {
     "referenced_type" : "_ZTIP7_JNIEnv"
    },
    {
     "referenced_type" : "_ZTIP8_jobject"
    },
    {
     "referenced_type" : "_ZTIP10_jmethodID"
    },
    {
     "referenced_type" : "_ZTIPK6jvalue"
    }
   ],
   "referenced_type" : "_ZTIFfP7_JNIEnvP8_jobjectP10_jmethodIDPK6jvalueE",
   "return_type" : "_ZTIf",
   "self_type" : "_ZTIFfP7_JNIEnvP8_jobjectP10_jmethodIDPK6jvalueE",
   "source_file" : "/libnativehelper/include_jni/jni.h"
  },
  {
   "alignment" : 4,
   "linker_set_key" : "_ZTIFfP7_JNIEnvP8_jobjectP10_jmethodIDSt9__va_listE",
   "name" : "float (_JNIEnv *, _jobject *, _jmethodID *, std::__va_list)",
   "parameters" :
   [
    {
     "referenced_type" : "_ZTIP7_JNIEnv"
    },
    {
     "referenced_type" : "_ZTIP8_jobject"
    },
    {
     "referenced_type" : "_ZTIP10_jmethodID"
    },
    {
     "referenced_type" : "_ZTISt9__va_list"
    }
   ],
   "referenced_type" : "_ZTIFfP7_JNIEnvP8_jobjectP10_jmethodIDSt9__va_listE",
   "return_type" : "_ZTIf",
   "self_type" : "_ZTIFfP7_JNIEnvP8_jobjectP10_jmethodIDSt9__va_listE",
   "source_file" : "/libnativehelper/include_jni/jni.h"
  },
  {
   "alignment" : 4,
   "linker_set_key" : "_ZTIFfP7_JNIEnvP8_jobjectP10_jmethodIDzE",
   "name" : "float (_JNIEnv *, _jobject *, _jmethodID *, ...)",
   "parameters" :
   [
    {
     "referenced_type" : "_ZTIP7_JNIEnv"
    },
    {
     "referenced_type" : "_ZTIP8_jobject"
    },
    {
     "referenced_type" : "_ZTIP10_jmethodID"
    }
   ],
   "referenced_type" : "_ZTIFfP7_JNIEnvP8_jobjectP10_jmethodIDzE",
   "return_type" : "_ZTIf",
   "self_type" : "_ZTIFfP7_JNIEnvP8_jobjectP10_jmethodIDzE",
   "source_file" : "/libnativehelper/include_jni/jni.h"
  },
  {
   "alignment" : 4,
   "linker_set_key" : "_ZTIFfP7_JNIEnvP8_jobjectP7_jclassP10_jmethodIDPK6jvalueE",
   "name" : "float (_JNIEnv *, _jobject *, _jclass *, _jmethodID *, const jvalue *)",
   "parameters" :
   [
    {
     "referenced_type" : "_ZTIP7_JNIEnv"
    },
    {
     "referenced_type" : "_ZTIP8_jobject"
    },
    {
     "referenced_type" : "_ZTIP7_jclass"
    },
    {
     "referenced_type" : "_ZTIP10_jmethodID"
    },
    {
     "referenced_type" : "_ZTIPK6jvalue"
    }
   ],
   "referenced_type" : "_ZTIFfP7_JNIEnvP8_jobjectP7_jclassP10_jmethodIDPK6jvalueE",
   "return_type" : "_ZTIf",
   "self_type" : "_ZTIFfP7_JNIEnvP8_jobjectP7_jclassP10_jmethodIDPK6jvalueE",
   "source_file" : "/libnativehelper/include_jni/jni.h"
  },
  {
   "alignment" : 4,
   "linker_set_key" : "_ZTIFfP7_JNIEnvP8_jobjectP7_jclassP10_jmethodIDSt9__va_listE",
   "name" : "float (_JNIEnv *, _jobject *, _jclass *, _jmethodID *, std::__va_list)",
   "parameters" :
   [
    {
     "referenced_type" : "_ZTIP7_JNIEnv"
    },
    {
     "referenced_type" : "_ZTIP8_jobject"
    },
    {
     "referenced_type" : "_ZTIP7_jclass"
    },
    {
     "referenced_type" : "_ZTIP10_jmethodID"
    },
    {
     "referenced_type" : "_ZTISt9__va_list"
    }
   ],
   "referenced_type" : "_ZTIFfP7_JNIEnvP8_jobjectP7_jclassP10_jmethodIDSt9__va_listE",
   "return_type" : "_ZTIf",
   "self_type" : "_ZTIFfP7_JNIEnvP8_jobjectP7_jclassP10_jmethodIDSt9__va_listE",
   "source_file" : "/libnativehelper/include_jni/jni.h"
  },
  {
   "alignment" : 4,
   "linker_set_key" : "_ZTIFfP7_JNIEnvP8_jobjectP7_jclassP10_jmethodIDzE",
   "name" : "float (_JNIEnv *, _jobject *, _jclass *, _jmethodID *, ...)",
   "parameters" :
   [
    {
     "referenced_type" : "_ZTIP7_JNIEnv"
    },
    {
     "referenced_type" : "_ZTIP8_jobject"
    },
    {
     "referenced_type" : "_ZTIP7_jclass"
    },
    {
     "referenced_type" : "_ZTIP10_jmethodID"
    }
   ],
   "referenced_type" : "_ZTIFfP7_JNIEnvP8_jobjectP7_jclassP10_jmethodIDzE",
   "return_type" : "_ZTIf",
   "self_type" : "_ZTIFfP7_JNIEnvP8_jobjectP7_jclassP10_jmethodIDzE",
   "source_file" : "/libnativehelper/include_jni/jni.h"
  },
  {
   "alignment" : 4,
   "linker_set_key" : "_ZTIFfP7_JNIEnvP8_jobjectP9_jfieldIDE",
   "name" : "float (_JNIEnv *, _jobject *, _jfieldID *)",
   "parameters" :
   [
    {
     "referenced_type" : "_ZTIP7_JNIEnv"
    },
    {
     "referenced_type" : "_ZTIP8_jobject"
    },
    {
     "referenced_type" : "_ZTIP9_jfieldID"
    }
   ],
   "referenced_type" : "_ZTIFfP7_JNIEnvP8_jobjectP9_jfieldIDE",
   "return_type" : "_ZTIf",
   "self_type" : "_ZTIFfP7_JNIEnvP8_jobjectP9_jfieldIDE",
   "source_file" : "/libnativehelper/include_jni/jni.h"
  },
  {
   "alignment" : 4,
   "linker_set_key" : "_ZTIFhP7_JNIEnvE",
   "name" : "unsigned char (_JNIEnv *)",
   "parameters" :
   [
    {
     "referenced_type" : "_ZTIP7_JNIEnv"
    }
   ],
   "referenced_type" : "_ZTIFhP7_JNIEnvE",
   "return_type" : "_ZTIh",
   "self_type" : "_ZTIFhP7_JNIEnvE",
   "source_file" : "/libnativehelper/include_jni/jni.h"
  },
  {
   "alignment" : 4,
   "linker_set_key" : "_ZTIFhP7_JNIEnvP7_jclassP10_jmethodIDPK6jvalueE",
   "name" : "unsigned char (_JNIEnv *, _jclass *, _jmethodID *, const jvalue *)",
   "parameters" :
   [
    {
     "referenced_type" : "_ZTIP7_JNIEnv"
    },
    {
     "referenced_type" : "_ZTIP7_jclass"
    },
    {
     "referenced_type" : "_ZTIP10_jmethodID"
    },
    {
     "referenced_type" : "_ZTIPK6jvalue"
    }
   ],
   "referenced_type" : "_ZTIFhP7_JNIEnvP7_jclassP10_jmethodIDPK6jvalueE",
   "return_type" : "_ZTIh",
   "self_type" : "_ZTIFhP7_JNIEnvP7_jclassP10_jmethodIDPK6jvalueE",
   "source_file" : "/libnativehelper/include_jni/jni.h"
  },
  {
   "alignment" : 4,
   "linker_set_key" : "_ZTIFhP7_JNIEnvP7_jclassP10_jmethodIDSt9__va_listE",
   "name" : "unsigned char (_JNIEnv *, _jclass *, _jmethodID *, std::__va_list)",
   "parameters" :
   [
    {
     "referenced_type" : "_ZTIP7_JNIEnv"
    },
    {
     "referenced_type" : "_ZTIP7_jclass"
    },
    {
     "referenced_type" : "_ZTIP10_jmethodID"
    },
    {
     "referenced_type" : "_ZTISt9__va_list"
    }
   ],
   "referenced_type" : "_ZTIFhP7_JNIEnvP7_jclassP10_jmethodIDSt9__va_listE",
   "return_type" : "_ZTIh",
   "self_type" : "_ZTIFhP7_JNIEnvP7_jclassP10_jmethodIDSt9__va_listE",
   "source_file" : "/libnativehelper/include_jni/jni.h"
  },
  {
   "alignment" : 4,
   "linker_set_key" : "_ZTIFhP7_JNIEnvP7_jclassP10_jmethodIDzE",
   "name" : "unsigned char (_JNIEnv *, _jclass *, _jmethodID *, ...)",
   "parameters" :
   [
    {
     "referenced_type" : "_ZTIP7_JNIEnv"
    },
    {
     "referenced_type" : "_ZTIP7_jclass"
    },
    {
     "referenced_type" : "_ZTIP10_jmethodID"
    }
   ],
   "referenced_type" : "_ZTIFhP7_JNIEnvP7_jclassP10_jmethodIDzE",
   "return_type" : "_ZTIh",
   "self_type" : "_ZTIFhP7_JNIEnvP7_jclassP10_jmethodIDzE",
   "source_file" : "/libnativehelper/include_jni/jni.h"
  },
  {
   "alignment" : 4,
   "linker_set_key" : "_ZTIFhP7_JNIEnvP7_jclassP9_jfieldIDE",
   "name" : "unsigned char (_JNIEnv *, _jclass *, _jfieldID *)",
   "parameters" :
   [
    {
     "referenced_type" : "_ZTIP7_JNIEnv"
    },
    {
     "referenced_type" : "_ZTIP7_jclass"
    },
    {
     "referenced_type" : "_ZTIP9_jfieldID"
    }
   ],
   "referenced_type" : "_ZTIFhP7_JNIEnvP7_jclassP9_jfieldIDE",
   "return_type" : "_ZTIh",
   "self_type" : "_ZTIFhP7_JNIEnvP7_jclassP9_jfieldIDE",
   "source_file" : "/libnativehelper/include_jni/jni.h"
  },
  {
   "alignment" : 4,
   "linker_set_key" : "_ZTIFhP7_JNIEnvP7_jclassS2_E",
   "name" : "unsigned char (_JNIEnv *, _jclass *, _jclass *)",
   "parameters" :
   [
    {
     "referenced_type" : "_ZTIP7_JNIEnv"
    },
    {
     "referenced_type" : "_ZTIP7_jclass"
    },
    {
     "referenced_type" : "_ZTIP7_jclass"
    }
   ],
   "referenced_type" : "_ZTIFhP7_JNIEnvP7_jclassS2_E",
   "return_type" : "_ZTIh",
   "self_type" : "_ZTIFhP7_JNIEnvP7_jclassS2_E",
   "source_file" : "/libnativehelper/include_jni/jni.h"
  },
  {
   "alignment" : 4,
   "linker_set_key" : "_ZTIFhP7_JNIEnvP8_jobjectP10_jmethodIDPK6jvalueE",
   "name" : "unsigned char (_JNIEnv *, _jobject *, _jmethodID *, const jvalue *)",
   "parameters" :
   [
    {
     "referenced_type" : "_ZTIP7_JNIEnv"
    },
    {
     "referenced_type" : "_ZTIP8_jobject"
    },
    {
     "referenced_type" : "_ZTIP10_jmethodID"
    },
    {
     "referenced_type" : "_ZTIPK6jvalue"
    }
   ],
   "referenced_type" : "_ZTIFhP7_JNIEnvP8_jobjectP10_jmethodIDPK6jvalueE",
   "return_type" : "_ZTIh",
   "self_type" : "_ZTIFhP7_JNIEnvP8_jobjectP10_jmethodIDPK6jvalueE",
   "source_file" : "/libnativehelper/include_jni/jni.h"
  },
  {
   "alignment" : 4,
   "linker_set_key" : "_ZTIFhP7_JNIEnvP8_jobjectP10_jmethodIDSt9__va_listE",
   "name" : "unsigned char (_JNIEnv *, _jobject *, _jmethodID *, std::__va_list)",
   "parameters" :
   [
    {
     "referenced_type" : "_ZTIP7_JNIEnv"
    },
    {
     "referenced_type" : "_ZTIP8_jobject"
    },
    {
     "referenced_type" : "_ZTIP10_jmethodID"
    },
    {
     "referenced_type" : "_ZTISt9__va_list"
    }
   ],
   "referenced_type" : "_ZTIFhP7_JNIEnvP8_jobjectP10_jmethodIDSt9__va_listE",
   "return_type" : "_ZTIh",
   "self_type" : "_ZTIFhP7_JNIEnvP8_jobjectP10_jmethodIDSt9__va_listE",
   "source_file" : "/libnativehelper/include_jni/jni.h"
  },
  {
   "alignment" : 4,
   "linker_set_key" : "_ZTIFhP7_JNIEnvP8_jobjectP10_jmethodIDzE",
   "name" : "unsigned char (_JNIEnv *, _jobject *, _jmethodID *, ...)",
   "parameters" :
   [
    {
     "referenced_type" : "_ZTIP7_JNIEnv"
    },
    {
     "referenced_type" : "_ZTIP8_jobject"
    },
    {
     "referenced_type" : "_ZTIP10_jmethodID"
    }
   ],
   "referenced_type" : "_ZTIFhP7_JNIEnvP8_jobjectP10_jmethodIDzE",
   "return_type" : "_ZTIh",
   "self_type" : "_ZTIFhP7_JNIEnvP8_jobjectP10_jmethodIDzE",
   "source_file" : "/libnativehelper/include_jni/jni.h"
  },
  {
   "alignment" : 4,
   "linker_set_key" : "_ZTIFhP7_JNIEnvP8_jobjectP7_jclassE",
   "name" : "unsigned char (_JNIEnv *, _jobject *, _jclass *)",
   "parameters" :
   [
    {
     "referenced_type" : "_ZTIP7_JNIEnv"
    },
    {
     "referenced_type" : "_ZTIP8_jobject"
    },
    {
     "referenced_type" : "_ZTIP7_jclass"
    }
   ],
   "referenced_type" : "_ZTIFhP7_JNIEnvP8_jobjectP7_jclassE",
   "return_type" : "_ZTIh",
   "self_type" : "_ZTIFhP7_JNIEnvP8_jobjectP7_jclassE",
   "source_file" : "/libnativehelper/include_jni/jni.h"
  },
  {
   "alignment" : 4,
   "linker_set_key" : "_ZTIFhP7_JNIEnvP8_jobjectP7_jclassP10_jmethodIDPK6jvalueE",
   "name" : "unsigned char (_JNIEnv *, _jobject *, _jclass *, _jmethodID *, const jvalue *)",
   "parameters" :
   [
    {
     "referenced_type" : "_ZTIP7_JNIEnv"
    },
    {
     "referenced_type" : "_ZTIP8_jobject"
    },
    {
     "referenced_type" : "_ZTIP7_jclass"
    },
    {
     "referenced_type" : "_ZTIP10_jmethodID"
    },
    {
     "referenced_type" : "_ZTIPK6jvalue"
    }
   ],
   "referenced_type" : "_ZTIFhP7_JNIEnvP8_jobjectP7_jclassP10_jmethodIDPK6jvalueE",
   "return_type" : "_ZTIh",
   "self_type" : "_ZTIFhP7_JNIEnvP8_jobjectP7_jclassP10_jmethodIDPK6jvalueE",
   "source_file" : "/libnativehelper/include_jni/jni.h"
  },
  {
   "alignment" : 4,
   "linker_set_key" : "_ZTIFhP7_JNIEnvP8_jobjectP7_jclassP10_jmethodIDSt9__va_listE",
   "name" : "unsigned char (_JNIEnv *, _jobject *, _jclass *, _jmethodID *, std::__va_list)",
   "parameters" :
   [
    {
     "referenced_type" : "_ZTIP7_JNIEnv"
    },
    {
     "referenced_type" : "_ZTIP8_jobject"
    },
    {
     "referenced_type" : "_ZTIP7_jclass"
    },
    {
     "referenced_type" : "_ZTIP10_jmethodID"
    },
    {
     "referenced_type" : "_ZTISt9__va_list"
    }
   ],
   "referenced_type" : "_ZTIFhP7_JNIEnvP8_jobjectP7_jclassP10_jmethodIDSt9__va_listE",
   "return_type" : "_ZTIh",
   "self_type" : "_ZTIFhP7_JNIEnvP8_jobjectP7_jclassP10_jmethodIDSt9__va_listE",
   "source_file" : "/libnativehelper/include_jni/jni.h"
  },
  {
   "alignment" : 4,
   "linker_set_key" : "_ZTIFhP7_JNIEnvP8_jobjectP7_jclassP10_jmethodIDzE",
   "name" : "unsigned char (_JNIEnv *, _jobject *, _jclass *, _jmethodID *, ...)",
   "parameters" :
   [
    {
     "referenced_type" : "_ZTIP7_JNIEnv"
    },
    {
     "referenced_type" : "_ZTIP8_jobject"
    },
    {
     "referenced_type" : "_ZTIP7_jclass"
    },
    {
     "referenced_type" : "_ZTIP10_jmethodID"
    }
   ],
   "referenced_type" : "_ZTIFhP7_JNIEnvP8_jobjectP7_jclassP10_jmethodIDzE",
   "return_type" : "_ZTIh",
   "self_type" : "_ZTIFhP7_JNIEnvP8_jobjectP7_jclassP10_jmethodIDzE",
   "source_file" : "/libnativehelper/include_jni/jni.h"
  },
  {
   "alignment" : 4,
   "linker_set_key" : "_ZTIFhP7_JNIEnvP8_jobjectP9_jfieldIDE",
   "name" : "unsigned char (_JNIEnv *, _jobject *, _jfieldID *)",
   "parameters" :
   [
    {
     "referenced_type" : "_ZTIP7_JNIEnv"
    },
    {
     "referenced_type" : "_ZTIP8_jobject"
    },
    {
     "referenced_type" : "_ZTIP9_jfieldID"
    }
   ],
   "referenced_type" : "_ZTIFhP7_JNIEnvP8_jobjectP9_jfieldIDE",
   "return_type" : "_ZTIh",
   "self_type" : "_ZTIFhP7_JNIEnvP8_jobjectP9_jfieldIDE",
   "source_file" : "/libnativehelper/include_jni/jni.h"
  },
  {
   "alignment" : 4,
   "linker_set_key" : "_ZTIFhP7_JNIEnvP8_jobjectS2_E",
   "name" : "unsigned char (_JNIEnv *, _jobject *, _jobject *)",
   "parameters" :
   [
    {
     "referenced_type" : "_ZTIP7_JNIEnv"
    },
    {
     "referenced_type" : "_ZTIP8_jobject"
    },
    {
     "referenced_type" : "_ZTIP8_jobject"
    }
   ],
   "referenced_type" : "_ZTIFhP7_JNIEnvP8_jobjectS2_E",
   "return_type" : "_ZTIh",
   "self_type" : "_ZTIFhP7_JNIEnvP8_jobjectS2_E",
   "source_file" : "/libnativehelper/include_jni/jni.h"
  },
  {
   "alignment" : 4,
   "linker_set_key" : "_ZTIFiP11hw_device_tE",
   "name" : "int (hw_device_t *)",
   "parameters" :
   [
    {
     "referenced_type" : "_ZTIP11hw_device_t"
    }
   ],
   "referenced_type" : "_ZTIFiP11hw_device_tE",
   "return_type" : "_ZTIi",
   "self_type" : "_ZTIFiP11hw_device_tE",
   "source_file" : "/hardware/libhardware/include/hardware/hardware.h"
  },
  {
   "alignment" : 4,
   "linker_set_key" : "_ZTIFiP13ANativeWindowP19ANativeWindowBufferE",
   "name" : "int (ANativeWindow *, ANativeWindowBuffer *)",
   "parameters" :
   [
    {
     "referenced_type" : "_ZTIP13ANativeWindow"
    },
    {
     "referenced_type" : "_ZTIP19ANativeWindowBuffer"
    }
   ],
   "referenced_type" : "_ZTIFiP13ANativeWindowP19ANativeWindowBufferE",
   "return_type" : "_ZTIi",
   "self_type" : "_ZTIFiP13ANativeWindowP19ANativeWindowBufferE",
   "source_file" : "/frameworks/native/libs/nativewindow/include/system/window.h"
  },
  {
   "alignment" : 4,
   "linker_set_key" : "_ZTIFiP13ANativeWindowP19ANativeWindowBufferiE",
   "name" : "int (ANativeWindow *, ANativeWindowBuffer *, int)",
   "parameters" :
   [
    {
     "referenced_type" : "_ZTIP13ANativeWindow"
    },
    {
     "referenced_type" : "_ZTIP19ANativeWindowBuffer"
    },
    {
     "referenced_type" : "_ZTIi"
    }
   ],
   "referenced_type" : "_ZTIFiP13ANativeWindowP19ANativeWindowBufferiE",
   "return_type" : "_ZTIi",
   "self_type" : "_ZTIFiP13ANativeWindowP19ANativeWindowBufferiE",
   "source_file" : "/frameworks/native/libs/nativewindow/include/system/window.h"
  },
  {
   "alignment" : 4,
   "linker_set_key" : "_ZTIFiP13ANativeWindowPFiS0_P19ANativeWindowBufferiEPvS2_iE",
   "name" : "int (ANativeWindow *, int (*)(ANativeWindow *, ANativeWindowBuffer *, int), void *, ANativeWindowBuffer *, int)",
   "parameters" :
   [
    {
     "referenced_type" : "_ZTIP13ANativeWindow"
    },
    {
     "referenced_type" : "_ZTIPFiP13ANativeWindowP19ANativeWindowBufferiE"
    },
    {
     "referenced_type" : "_ZTIPv"
    },
    {
     "referenced_type" : "_ZTIP19ANativeWindowBuffer"
    },
    {
     "referenced_type" : "_ZTIi"
    }
   ],
   "referenced_type" : "_ZTIFiP13ANativeWindowPFiS0_P19ANativeWindowBufferiEPvS2_iE",
   "return_type" : "_ZTIi",
   "self_type" : "_ZTIFiP13ANativeWindowPFiS0_P19ANativeWindowBufferiEPvS2_iE",
   "source_file" : "/frameworks/native/libs/gui/include/gui/Surface.h"
  },
  {
   "alignment" : 4,
   "linker_set_key" : "_ZTIFiP13ANativeWindowPFiS0_PP19ANativeWindowBufferPiEPvS3_S4_E",
   "name" : "int (ANativeWindow *, int (*)(ANativeWindow *, ANativeWindowBuffer **, int *), void *, ANativeWindowBuffer **, int *)",
   "parameters" :
   [
    {
     "referenced_type" : "_ZTIP13ANativeWindow"
    },
    {
     "referenced_type" : "_ZTIPFiP13ANativeWindowPP19ANativeWindowBufferPiE"
    },
    {
     "referenced_type" : "_ZTIPv"
    },
    {
     "referenced_type" : "_ZTIPP19ANativeWindowBuffer"
    },
    {
     "referenced_type" : "_ZTIPi"
    }
   ],
   "referenced_type" : "_ZTIFiP13ANativeWindowPFiS0_PP19ANativeWindowBufferPiEPvS3_S4_E",
   "return_type" : "_ZTIi",
   "self_type" : "_ZTIFiP13ANativeWindowPFiS0_PP19ANativeWindowBufferPiEPvS3_S4_E",
   "source_file" : "/frameworks/native/libs/gui/include/gui/Surface.h"
  },
  {
   "alignment" : 4,
   "linker_set_key" : "_ZTIFiP13ANativeWindowPFiS0_iSt9__va_listEPviS1_E",
   "name" : "int (ANativeWindow *, int (*)(ANativeWindow *, int, std::__va_list), void *, int, std::__va_list)",
   "parameters" :
   [
    {
     "referenced_type" : "_ZTIP13ANativeWindow"
    },
    {
     "referenced_type" : "_ZTIPFiP13ANativeWindowiSt9__va_listE"
    },
    {
     "referenced_type" : "_ZTIPv"
    },
    {
     "referenced_type" : "_ZTIi"
    },
    {
     "referenced_type" : "_ZTISt9__va_list"
    }
   ],
   "referenced_type" : "_ZTIFiP13ANativeWindowPFiS0_iSt9__va_listEPviS1_E",
   "return_type" : "_ZTIi",
   "self_type" : "_ZTIFiP13ANativeWindowPFiS0_iSt9__va_listEPviS1_E",
   "source_file" : "/frameworks/native/libs/gui/include/gui/Surface.h"
  },
  {
   "alignment" : 4,
   "linker_set_key" : "_ZTIFiP13ANativeWindowPP19ANativeWindowBufferE",
   "name" : "int (ANativeWindow *, ANativeWindowBuffer **)",
   "parameters" :
   [
    {
     "referenced_type" : "_ZTIP13ANativeWindow"
    },
    {
     "referenced_type" : "_ZTIPP19ANativeWindowBuffer"
    }
   ],
   "referenced_type" : "_ZTIFiP13ANativeWindowPP19ANativeWindowBufferE",
   "return_type" : "_ZTIi",
   "self_type" : "_ZTIFiP13ANativeWindowPP19ANativeWindowBufferE",
   "source_file" : "/frameworks/native/libs/nativewindow/include/system/window.h"
  },
  {
   "alignment" : 4,
   "linker_set_key" : "_ZTIFiP13ANativeWindowPP19ANativeWindowBufferPiE",
   "name" : "int (ANativeWindow *, ANativeWindowBuffer **, int *)",
   "parameters" :
   [
    {
     "referenced_type" : "_ZTIP13ANativeWindow"
    },
    {
     "referenced_type" : "_ZTIPP19ANativeWindowBuffer"
    },
    {
     "referenced_type" : "_ZTIPi"
    }
   ],
   "referenced_type" : "_ZTIFiP13ANativeWindowPP19ANativeWindowBufferPiE",
   "return_type" : "_ZTIi",
   "self_type" : "_ZTIFiP13ANativeWindowPP19ANativeWindowBufferPiE",
   "source_file" : "/frameworks/native/libs/nativewindow/include/system/window.h"
  },
  {
   "alignment" : 4,
   "linker_set_key" : "_ZTIFiP13ANativeWindowiE",
   "name" : "int (ANativeWindow *, int)",
   "parameters" :
   [
    {
     "referenced_type" : "_ZTIP13ANativeWindow"
    },
    {
     "referenced_type" : "_ZTIi"
    }
   ],
   "referenced_type" : "_ZTIFiP13ANativeWindowiE",
   "return_type" : "_ZTIi",
   "self_type" : "_ZTIFiP13ANativeWindowiE",
   "source_file" : "/frameworks/native/libs/nativewindow/include/system/window.h"
  },
  {
   "alignment" : 4,
   "linker_set_key" : "_ZTIFiP13ANativeWindowiSt9__va_listE",
   "name" : "int (ANativeWindow *, int, std::__va_list)",
   "parameters" :
   [
    {
     "referenced_type" : "_ZTIP13ANativeWindow"
    },
    {
     "referenced_type" : "_ZTIi"
    },
    {
     "referenced_type" : "_ZTISt9__va_list"
    }
   ],
   "referenced_type" : "_ZTIFiP13ANativeWindowiSt9__va_listE",
   "return_type" : "_ZTIi",
   "self_type" : "_ZTIFiP13ANativeWindowiSt9__va_listE",
   "source_file" : "/frameworks/native/libs/gui/include/gui/Surface.h"
  },
  {
   "alignment" : 4,
   "linker_set_key" : "_ZTIFiP13ANativeWindowizE",
   "name" : "int (ANativeWindow *, int, ...)",
   "parameters" :
   [
    {
     "referenced_type" : "_ZTIP13ANativeWindow"
    },
    {
     "referenced_type" : "_ZTIi"
    }
   ],
   "referenced_type" : "_ZTIFiP13ANativeWindowizE",
   "return_type" : "_ZTIi",
   "self_type" : "_ZTIFiP13ANativeWindowizE",
   "source_file" : "/frameworks/native/libs/nativewindow/include/system/window.h"
  },
  {
   "alignment" : 4,
   "linker_set_key" : "_ZTIFiP14alloc_device_tPK13native_handleE",
   "name" : "int (alloc_device_t *, const native_handle *)",
   "parameters" :
   [
    {
     "referenced_type" : "_ZTIP14alloc_device_t"
    },
    {
     "referenced_type" : "_ZTIPK13native_handle"
    }
   ],
   "referenced_type" : "_ZTIFiP14alloc_device_tPK13native_handleE",
   "return_type" : "_ZTIi",
   "self_type" : "_ZTIFiP14alloc_device_tPK13native_handleE",
   "source_file" : "/hardware/libhardware/include/hardware/gralloc.h"
  },
  {
   "alignment" : 4,
   "linker_set_key" : "_ZTIFiP14alloc_device_tiiiiPPK13native_handlePiE",
   "name" : "int (alloc_device_t *, int, int, int, int, const native_handle **, int *)",
   "parameters" :
   [
    {
     "referenced_type" : "_ZTIP14alloc_device_t"
    },
    {
     "referenced_type" : "_ZTIi"
    },
    {
     "referenced_type" : "_ZTIi"
    },
    {
     "referenced_type" : "_ZTIi"
    },
    {
     "referenced_type" : "_ZTIi"
    },
    {
     "referenced_type" : "_ZTIPPK13native_handle"
    },
    {
     "referenced_type" : "_ZTIPi"
    }
   ],
   "referenced_type" : "_ZTIFiP14alloc_device_tiiiiPPK13native_handlePiE",
   "return_type" : "_ZTIi",
   "self_type" : "_ZTIFiP14alloc_device_tiiiiPPK13native_handlePiE",
   "source_file" : "/hardware/libhardware/include/hardware/gralloc.h"
  },
  {
   "alignment" : 4,
   "linker_set_key" : "_ZTIFiP20framebuffer_device_tE",
   "name" : "int (framebuffer_device_t *)",
   "parameters" :
   [
    {
     "referenced_type" : "_ZTIP20framebuffer_device_t"
    }
   ],
   "referenced_type" : "_ZTIFiP20framebuffer_device_tE",
   "return_type" : "_ZTIi",
   "self_type" : "_ZTIFiP20framebuffer_device_tE",
   "source_file" : "/hardware/libhardware/include/hardware/fb.h"
  },
  {
   "alignment" : 4,
   "linker_set_key" : "_ZTIFiP20framebuffer_device_tPK13native_handleE",
   "name" : "int (framebuffer_device_t *, const native_handle *)",
   "parameters" :
   [
    {
     "referenced_type" : "_ZTIP20framebuffer_device_t"
    },
    {
     "referenced_type" : "_ZTIPK13native_handle"
    }
   ],
   "referenced_type" : "_ZTIFiP20framebuffer_device_tPK13native_handleE",
   "return_type" : "_ZTIi",
   "self_type" : "_ZTIFiP20framebuffer_device_tPK13native_handleE",
   "source_file" : "/hardware/libhardware/include/hardware/fb.h"
  },
  {
   "alignment" : 4,
   "linker_set_key" : "_ZTIFiP20framebuffer_device_tiE",
   "name" : "int (framebuffer_device_t *, int)",
   "parameters" :
   [
    {
     "referenced_type" : "_ZTIP20framebuffer_device_t"
    },
    {
     "referenced_type" : "_ZTIi"
    }
   ],
   "referenced_type" : "_ZTIFiP20framebuffer_device_tiE",
   "return_type" : "_ZTIi",
   "self_type" : "_ZTIFiP20framebuffer_device_tiE",
   "source_file" : "/hardware/libhardware/include/hardware/fb.h"
  },
  {
   "alignment" : 4,
   "linker_set_key" : "_ZTIFiP20framebuffer_device_tiiiiE",
   "name" : "int (framebuffer_device_t *, int, int, int, int)",
   "parameters" :
   [
    {
     "referenced_type" : "_ZTIP20framebuffer_device_t"
    },
    {
     "referenced_type" : "_ZTIi"
    },
    {
     "referenced_type" : "_ZTIi"
    },
    {
     "referenced_type" : "_ZTIi"
    },
    {
     "referenced_type" : "_ZTIi"
    }
   ],
   "referenced_type" : "_ZTIFiP20framebuffer_device_tiiiiE",
   "return_type" : "_ZTIi",
   "self_type" : "_ZTIFiP20framebuffer_device_tiiiiE",
   "source_file" : "/hardware/libhardware/include/hardware/fb.h"
  },
  {
   "alignment" : 4,
   "linker_set_key" : "_ZTIFiP7_JNIEnvE",
   "name" : "int (_JNIEnv *)",
   "parameters" :
   [
    {
     "referenced_type" : "_ZTIP7_JNIEnv"
    }
   ],
   "referenced_type" : "_ZTIFiP7_JNIEnvE",
   "return_type" : "_ZTIi",
   "self_type" : "_ZTIFiP7_JNIEnvE",
   "source_file" : "/libnativehelper/include_jni/jni.h"
  },
  {
   "alignment" : 4,
   "linker_set_key" : "_ZTIFiP7_JNIEnvP11_jthrowableE",
   "name" : "int (_JNIEnv *, _jthrowable *)",
   "parameters" :
   [
    {
     "referenced_type" : "_ZTIP7_JNIEnv"
    },
    {
     "referenced_type" : "_ZTIP11_jthrowable"
    }
   ],
   "referenced_type" : "_ZTIFiP7_JNIEnvP11_jthrowableE",
   "return_type" : "_ZTIi",
   "self_type" : "_ZTIFiP7_JNIEnvP11_jthrowableE",
   "source_file" : "/libnativehelper/include_jni/jni.h"
  },
  {
   "alignment" : 4,
   "linker_set_key" : "_ZTIFiP7_JNIEnvP7_jarrayE",
   "name" : "int (_JNIEnv *, _jarray *)",
   "parameters" :
   [
    {
     "referenced_type" : "_ZTIP7_JNIEnv"
    },
    {
     "referenced_type" : "_ZTIP7_jarray"
    }
   ],
   "referenced_type" : "_ZTIFiP7_JNIEnvP7_jarrayE",
   "return_type" : "_ZTIi",
   "self_type" : "_ZTIFiP7_JNIEnvP7_jarrayE",
   "source_file" : "/libnativehelper/include_jni/jni.h"
  },
  {
   "alignment" : 4,
   "linker_set_key" : "_ZTIFiP7_JNIEnvP7_jclassE",
   "name" : "int (_JNIEnv *, _jclass *)",
   "parameters" :
   [
    {
     "referenced_type" : "_ZTIP7_JNIEnv"
    },
    {
     "referenced_type" : "_ZTIP7_jclass"
    }
   ],
   "referenced_type" : "_ZTIFiP7_JNIEnvP7_jclassE",
   "return_type" : "_ZTIi",
   "self_type" : "_ZTIFiP7_JNIEnvP7_jclassE",
   "source_file" : "/libnativehelper/include_jni/jni.h"
  },
  {
   "alignment" : 4,
   "linker_set_key" : "_ZTIFiP7_JNIEnvP7_jclassP10_jmethodIDPK6jvalueE",
   "name" : "int (_JNIEnv *, _jclass *, _jmethodID *, const jvalue *)",
   "parameters" :
   [
    {
     "referenced_type" : "_ZTIP7_JNIEnv"
    },
    {
     "referenced_type" : "_ZTIP7_jclass"
    },
    {
     "referenced_type" : "_ZTIP10_jmethodID"
    },
    {
     "referenced_type" : "_ZTIPK6jvalue"
    }
   ],
   "referenced_type" : "_ZTIFiP7_JNIEnvP7_jclassP10_jmethodIDPK6jvalueE",
   "return_type" : "_ZTIi",
   "self_type" : "_ZTIFiP7_JNIEnvP7_jclassP10_jmethodIDPK6jvalueE",
   "source_file" : "/libnativehelper/include_jni/jni.h"
  },
  {
   "alignment" : 4,
   "linker_set_key" : "_ZTIFiP7_JNIEnvP7_jclassP10_jmethodIDSt9__va_listE",
   "name" : "int (_JNIEnv *, _jclass *, _jmethodID *, std::__va_list)",
   "parameters" :
   [
    {
     "referenced_type" : "_ZTIP7_JNIEnv"
    },
    {
     "referenced_type" : "_ZTIP7_jclass"
    },
    {
     "referenced_type" : "_ZTIP10_jmethodID"
    },
    {
     "referenced_type" : "_ZTISt9__va_list"
    }
   ],
   "referenced_type" : "_ZTIFiP7_JNIEnvP7_jclassP10_jmethodIDSt9__va_listE",
   "return_type" : "_ZTIi",
   "self_type" : "_ZTIFiP7_JNIEnvP7_jclassP10_jmethodIDSt9__va_listE",
   "source_file" : "/libnativehelper/include_jni/jni.h"
  },
  {
   "alignment" : 4,
   "linker_set_key" : "_ZTIFiP7_JNIEnvP7_jclassP10_jmethodIDzE",
   "name" : "int (_JNIEnv *, _jclass *, _jmethodID *, ...)",
   "parameters" :
   [
    {
     "referenced_type" : "_ZTIP7_JNIEnv"
    },
    {
     "referenced_type" : "_ZTIP7_jclass"
    },
    {
     "referenced_type" : "_ZTIP10_jmethodID"
    }
   ],
   "referenced_type" : "_ZTIFiP7_JNIEnvP7_jclassP10_jmethodIDzE",
   "return_type" : "_ZTIi",
   "self_type" : "_ZTIFiP7_JNIEnvP7_jclassP10_jmethodIDzE",
   "source_file" : "/libnativehelper/include_jni/jni.h"
  },
  {
   "alignment" : 4,
   "linker_set_key" : "_ZTIFiP7_JNIEnvP7_jclassP9_jfieldIDE",
   "name" : "int (_JNIEnv *, _jclass *, _jfieldID *)",
   "parameters" :
   [
    {
     "referenced_type" : "_ZTIP7_JNIEnv"
    },
    {
     "referenced_type" : "_ZTIP7_jclass"
    },
    {
     "referenced_type" : "_ZTIP9_jfieldID"
    }
   ],
   "referenced_type" : "_ZTIFiP7_JNIEnvP7_jclassP9_jfieldIDE",
   "return_type" : "_ZTIi",
   "self_type" : "_ZTIFiP7_JNIEnvP7_jclassP9_jfieldIDE",
   "source_file" : "/libnativehelper/include_jni/jni.h"
  },
  {
   "alignment" : 4,
   "linker_set_key" : "_ZTIFiP7_JNIEnvP7_jclassPK15JNINativeMethodiE",
   "name" : "int (_JNIEnv *, _jclass *, const JNINativeMethod *, int)",
   "parameters" :
   [
    {
     "referenced_type" : "_ZTIP7_JNIEnv"
    },
    {
     "referenced_type" : "_ZTIP7_jclass"
    },
    {
     "referenced_type" : "_ZTIPK15JNINativeMethod"
    },
    {
     "referenced_type" : "_ZTIi"
    }
   ],
   "referenced_type" : "_ZTIFiP7_JNIEnvP7_jclassPK15JNINativeMethodiE",
   "return_type" : "_ZTIi",
   "self_type" : "_ZTIFiP7_JNIEnvP7_jclassPK15JNINativeMethodiE",
   "source_file" : "/libnativehelper/include_jni/jni.h"
  },
  {
   "alignment" : 4,
   "linker_set_key" : "_ZTIFiP7_JNIEnvP7_jclassPKcE",
   "name" : "int (_JNIEnv *, _jclass *, const char *)",
   "parameters" :
   [
    {
     "referenced_type" : "_ZTIP7_JNIEnv"
    },
    {
     "referenced_type" : "_ZTIP7_jclass"
    },
    {
     "referenced_type" : "_ZTIPKc"
    }
   ],
   "referenced_type" : "_ZTIFiP7_JNIEnvP7_jclassPKcE",
   "return_type" : "_ZTIi",
   "self_type" : "_ZTIFiP7_JNIEnvP7_jclassPKcE",
   "source_file" : "/libnativehelper/include_jni/jni.h"
  },
  {
   "alignment" : 4,
   "linker_set_key" : "_ZTIFiP7_JNIEnvP8_jobjectE",
   "name" : "int (_JNIEnv *, _jobject *)",
   "parameters" :
   [
    {
     "referenced_type" : "_ZTIP7_JNIEnv"
    },
    {
     "referenced_type" : "_ZTIP8_jobject"
    }
   ],
   "referenced_type" : "_ZTIFiP7_JNIEnvP8_jobjectE",
   "return_type" : "_ZTIi",
   "self_type" : "_ZTIFiP7_JNIEnvP8_jobjectE",
   "source_file" : "/libnativehelper/include_jni/jni.h"
  },
  {
   "alignment" : 4,
   "linker_set_key" : "_ZTIFiP7_JNIEnvP8_jobjectP10_jmethodIDPK6jvalueE",
   "name" : "int (_JNIEnv *, _jobject *, _jmethodID *, const jvalue *)",
   "parameters" :
   [
    {
     "referenced_type" : "_ZTIP7_JNIEnv"
    },
    {
     "referenced_type" : "_ZTIP8_jobject"
    },
    {
     "referenced_type" : "_ZTIP10_jmethodID"
    },
    {
     "referenced_type" : "_ZTIPK6jvalue"
    }
   ],
   "referenced_type" : "_ZTIFiP7_JNIEnvP8_jobjectP10_jmethodIDPK6jvalueE",
   "return_type" : "_ZTIi",
   "self_type" : "_ZTIFiP7_JNIEnvP8_jobjectP10_jmethodIDPK6jvalueE",
   "source_file" : "/libnativehelper/include_jni/jni.h"
  },
  {
   "alignment" : 4,
   "linker_set_key" : "_ZTIFiP7_JNIEnvP8_jobjectP10_jmethodIDSt9__va_listE",
   "name" : "int (_JNIEnv *, _jobject *, _jmethodID *, std::__va_list)",
   "parameters" :
   [
    {
     "referenced_type" : "_ZTIP7_JNIEnv"
    },
    {
     "referenced_type" : "_ZTIP8_jobject"
    },
    {
     "referenced_type" : "_ZTIP10_jmethodID"
    },
    {
     "referenced_type" : "_ZTISt9__va_list"
    }
   ],
   "referenced_type" : "_ZTIFiP7_JNIEnvP8_jobjectP10_jmethodIDSt9__va_listE",
   "return_type" : "_ZTIi",
   "self_type" : "_ZTIFiP7_JNIEnvP8_jobjectP10_jmethodIDSt9__va_listE",
   "source_file" : "/libnativehelper/include_jni/jni.h"
  },
  {
   "alignment" : 4,
   "linker_set_key" : "_ZTIFiP7_JNIEnvP8_jobjectP10_jmethodIDzE",
   "name" : "int (_JNIEnv *, _jobject *, _jmethodID *, ...)",
   "parameters" :
   [
    {
     "referenced_type" : "_ZTIP7_JNIEnv"
    },
    {
     "referenced_type" : "_ZTIP8_jobject"
    },
    {
     "referenced_type" : "_ZTIP10_jmethodID"
    }
   ],
   "referenced_type" : "_ZTIFiP7_JNIEnvP8_jobjectP10_jmethodIDzE",
   "return_type" : "_ZTIi",
   "self_type" : "_ZTIFiP7_JNIEnvP8_jobjectP10_jmethodIDzE",
   "source_file" : "/libnativehelper/include_jni/jni.h"
  },
  {
   "alignment" : 4,
   "linker_set_key" : "_ZTIFiP7_JNIEnvP8_jobjectP7_jclassP10_jmethodIDPK6jvalueE",
   "name" : "int (_JNIEnv *, _jobject *, _jclass *, _jmethodID *, const jvalue *)",
   "parameters" :
   [
    {
     "referenced_type" : "_ZTIP7_JNIEnv"
    },
    {
     "referenced_type" : "_ZTIP8_jobject"
    },
    {
     "referenced_type" : "_ZTIP7_jclass"
    },
    {
     "referenced_type" : "_ZTIP10_jmethodID"
    },
    {
     "referenced_type" : "_ZTIPK6jvalue"
    }
   ],
   "referenced_type" : "_ZTIFiP7_JNIEnvP8_jobjectP7_jclassP10_jmethodIDPK6jvalueE",
   "return_type" : "_ZTIi",
   "self_type" : "_ZTIFiP7_JNIEnvP8_jobjectP7_jclassP10_jmethodIDPK6jvalueE",
   "source_file" : "/libnativehelper/include_jni/jni.h"
  },
  {
   "alignment" : 4,
   "linker_set_key" : "_ZTIFiP7_JNIEnvP8_jobjectP7_jclassP10_jmethodIDSt9__va_listE",
   "name" : "int (_JNIEnv *, _jobject *, _jclass *, _jmethodID *, std::__va_list)",
   "parameters" :
   [
    {
     "referenced_type" : "_ZTIP7_JNIEnv"
    },
    {
     "referenced_type" : "_ZTIP8_jobject"
    },
    {
     "referenced_type" : "_ZTIP7_jclass"
    },
    {
     "referenced_type" : "_ZTIP10_jmethodID"
    },
    {
     "referenced_type" : "_ZTISt9__va_list"
    }
   ],
   "referenced_type" : "_ZTIFiP7_JNIEnvP8_jobjectP7_jclassP10_jmethodIDSt9__va_listE",
   "return_type" : "_ZTIi",
   "self_type" : "_ZTIFiP7_JNIEnvP8_jobjectP7_jclassP10_jmethodIDSt9__va_listE",
   "source_file" : "/libnativehelper/include_jni/jni.h"
  },
  {
   "alignment" : 4,
   "linker_set_key" : "_ZTIFiP7_JNIEnvP8_jobjectP7_jclassP10_jmethodIDzE",
   "name" : "int (_JNIEnv *, _jobject *, _jclass *, _jmethodID *, ...)",
   "parameters" :
   [
    {
     "referenced_type" : "_ZTIP7_JNIEnv"
    },
    {
     "referenced_type" : "_ZTIP8_jobject"
    },
    {
     "referenced_type" : "_ZTIP7_jclass"
    },
    {
     "referenced_type" : "_ZTIP10_jmethodID"
    }
   ],
   "referenced_type" : "_ZTIFiP7_JNIEnvP8_jobjectP7_jclassP10_jmethodIDzE",
   "return_type" : "_ZTIi",
   "self_type" : "_ZTIFiP7_JNIEnvP8_jobjectP7_jclassP10_jmethodIDzE",
   "source_file" : "/libnativehelper/include_jni/jni.h"
  },
  {
   "alignment" : 4,
   "linker_set_key" : "_ZTIFiP7_JNIEnvP8_jobjectP9_jfieldIDE",
   "name" : "int (_JNIEnv *, _jobject *, _jfieldID *)",
   "parameters" :
   [
    {
     "referenced_type" : "_ZTIP7_JNIEnv"
    },
    {
     "referenced_type" : "_ZTIP8_jobject"
    },
    {
     "referenced_type" : "_ZTIP9_jfieldID"
    }
   ],
   "referenced_type" : "_ZTIFiP7_JNIEnvP8_jobjectP9_jfieldIDE",
   "return_type" : "_ZTIi",
   "self_type" : "_ZTIFiP7_JNIEnvP8_jobjectP9_jfieldIDE",
   "source_file" : "/libnativehelper/include_jni/jni.h"
  },
  {
   "alignment" : 4,
   "linker_set_key" : "_ZTIFiP7_JNIEnvP8_jstringE",
   "name" : "int (_JNIEnv *, _jstring *)",
   "parameters" :
   [
    {
     "referenced_type" : "_ZTIP7_JNIEnv"
    },
    {
     "referenced_type" : "_ZTIP8_jstring"
    }
   ],
   "referenced_type" : "_ZTIFiP7_JNIEnvP8_jstringE",
   "return_type" : "_ZTIi",
   "self_type" : "_ZTIFiP7_JNIEnvP8_jstringE",
   "source_file" : "/libnativehelper/include_jni/jni.h"
  },
  {
   "alignment" : 4,
   "linker_set_key" : "_ZTIFiP7_JNIEnvPP7_JavaVME",
   "name" : "int (_JNIEnv *, _JavaVM **)",
   "parameters" :
   [
    {
     "referenced_type" : "_ZTIP7_JNIEnv"
    },
    {
     "referenced_type" : "_ZTIPP7_JavaVM"
    }
   ],
   "referenced_type" : "_ZTIFiP7_JNIEnvPP7_JavaVME",
   "return_type" : "_ZTIi",
   "self_type" : "_ZTIFiP7_JNIEnvPP7_JavaVME",
   "source_file" : "/libnativehelper/include_jni/jni.h"
  },
  {
   "alignment" : 4,
   "linker_set_key" : "_ZTIFiP7_JNIEnviE",
   "name" : "int (_JNIEnv *, int)",
   "parameters" :
   [
    {
     "referenced_type" : "_ZTIP7_JNIEnv"
    },
    {
     "referenced_type" : "_ZTIi"
    }
   ],
   "referenced_type" : "_ZTIFiP7_JNIEnviE",
   "return_type" : "_ZTIi",
   "self_type" : "_ZTIFiP7_JNIEnviE",
   "source_file" : "/libnativehelper/include_jni/jni.h"
  },
  {
   "alignment" : 4,
   "linker_set_key" : "_ZTIFiP7_JavaVME",
   "name" : "int (_JavaVM *)",
   "parameters" :
   [
    {
     "referenced_type" : "_ZTIP7_JavaVM"
    }
   ],
   "referenced_type" : "_ZTIFiP7_JavaVME",
   "return_type" : "_ZTIi",
   "self_type" : "_ZTIFiP7_JavaVME",
   "source_file" : "/libnativehelper/include_jni/jni.h"
  },
  {
   "alignment" : 4,
   "linker_set_key" : "_ZTIFiP7_JavaVMPP7_JNIEnvPvE",
   "name" : "int (_JavaVM *, _JNIEnv **, void *)",
   "parameters" :
   [
    {
     "referenced_type" : "_ZTIP7_JavaVM"
    },
    {
     "referenced_type" : "_ZTIPP7_JNIEnv"
    },
    {
     "referenced_type" : "_ZTIPv"
    }
   ],
   "referenced_type" : "_ZTIFiP7_JavaVMPP7_JNIEnvPvE",
   "return_type" : "_ZTIi",
   "self_type" : "_ZTIFiP7_JavaVMPP7_JNIEnvPvE",
   "source_file" : "/libnativehelper/include_jni/jni.h"
  },
  {
   "alignment" : 4,
   "linker_set_key" : "_ZTIFiP7_JavaVMPPviE",
   "name" : "int (_JavaVM *, void **, int)",
   "parameters" :
   [
    {
     "referenced_type" : "_ZTIP7_JavaVM"
    },
    {
     "referenced_type" : "_ZTIPPv"
    },
    {
     "referenced_type" : "_ZTIi"
    }
   ],
   "referenced_type" : "_ZTIFiP7_JavaVMPPviE",
   "return_type" : "_ZTIi",
   "self_type" : "_ZTIFiP7_JavaVMPPviE",
   "source_file" : "/libnativehelper/include_jni/jni.h"
  },
  {
   "alignment" : 4,
   "linker_set_key" : "_ZTIFiP8AIBinderjPK7AParcelPS1_E",
   "name" : "int (AIBinder *, unsigned int, const AParcel *, AParcel *)",
   "parameters" :
   [
    {
     "referenced_type" : "_ZTIP8AIBinder"
    },
    {
     "referenced_type" : "_ZTIj"
    },
    {
     "referenced_type" : "_ZTIPK7AParcel"
    },
    {
     "referenced_type" : "_ZTIP7AParcel"
    }
   ],
   "referenced_type" : "_ZTIFiP8AIBinderjPK7AParcelPS1_E",
   "return_type" : "_ZTIi",
   "self_type" : "_ZTIFiP8AIBinderjPK7AParcelPS1_E",
   "source_file" : "/frameworks/native/libs/binder/ndk/include_ndk/android/binder_interface_utils.h"
  },
  {
   "alignment" : 4,
   "linker_set_key" : "_ZTIFiPK11hw_module_tPKcPP11hw_device_tE",
   "name" : "int (const hw_module_t *, const char *, hw_device_t **)",
   "parameters" :
   [
    {
     "referenced_type" : "_ZTIPK11hw_module_t"
    },
    {
     "referenced_type" : "_ZTIPKc"
    },
    {
     "referenced_type" : "_ZTIPP11hw_device_t"
    }
   ],
   "referenced_type" : "_ZTIFiPK11hw_module_tPKcPP11hw_device_tE",
   "return_type" : "_ZTIi",
   "self_type" : "_ZTIFiPK11hw_module_tPKcPP11hw_device_tE",
   "source_file" : "/hardware/libhardware/include/hardware/hardware.h"
  },
  {
   "alignment" : 4,
   "linker_set_key" : "_ZTIFiPK11hw_module_tPKcjPP11hw_device_tE",
   "name" : "int (const hw_module_t *, const char *, unsigned int, hw_device_t **)",
   "parameters" :
   [
    {
     "referenced_type" : "_ZTIPK11hw_module_t"
    },
    {
     "referenced_type" : "_ZTIPKc"
    },
    {
     "referenced_type" : "_ZTIj"
    },
    {
     "referenced_type" : "_ZTIPP11hw_device_t"
    }
   ],
   "referenced_type" : "_ZTIFiPK11hw_module_tPKcjPP11hw_device_tE",
   "return_type" : "_ZTIi",
   "self_type" : "_ZTIFiPK11hw_module_tPKcjPP11hw_device_tE",
   "source_file" : "/hardware/libhardware/include/hardware/camera_common.h"
  },
  {
   "alignment" : 4,
   "linker_set_key" : "_ZTIFiPK13ANativeWindowiPiE",
   "name" : "int (const ANativeWindow *, int, int *)",
   "parameters" :
   [
    {
     "referenced_type" : "_ZTIPK13ANativeWindow"
    },
    {
     "referenced_type" : "_ZTIi"
    },
    {
     "referenced_type" : "_ZTIPi"
    }
   ],
   "referenced_type" : "_ZTIFiPK13ANativeWindowiPiE",
   "return_type" : "_ZTIi",
   "self_type" : "_ZTIFiPK13ANativeWindowiPiE",
   "source_file" : "/frameworks/native/libs/nativewindow/include/system/window.h"
  },
  {
   "alignment" : 4,
   "linker_set_key" : "_ZTIFiPK14camera3_deviceE",
   "name" : "int (const camera3_device *)",
   "parameters" :
   [
    {
     "referenced_type" : "_ZTIPK14camera3_device"
    }
   ],
   "referenced_type" : "_ZTIFiPK14camera3_deviceE",
   "return_type" : "_ZTIi",
   "self_type" : "_ZTIFiPK14camera3_deviceE",
   "source_file" : "/hardware/libhardware/include/hardware/camera3.h"
  },
  {
   "alignment" : 4,
   "linker_set_key" : "_ZTIFiPK14camera3_deviceP23camera3_capture_requestE",
   "name" : "int (const camera3_device *, camera3_capture_request *)",
   "parameters" :
   [
    {
     "referenced_type" : "_ZTIPK14camera3_device"
    },
    {
     "referenced_type" : "_ZTIP23camera3_capture_request"
    }
   ],
   "referenced_type" : "_ZTIFiPK14camera3_deviceP23camera3_capture_requestE",
   "return_type" : "_ZTIi",
   "self_type" : "_ZTIFiPK14camera3_deviceP23camera3_capture_requestE",
   "source_file" : "/hardware/libhardware/include/hardware/camera3.h"
  },
  {
   "alignment" : 4,
   "linker_set_key" : "_ZTIFiPK14camera3_deviceP28camera3_stream_configurationE",
   "name" : "int (const camera3_device *, camera3_stream_configuration *)",
   "parameters" :
   [
    {
     "referenced_type" : "_ZTIPK14camera3_device"
    },
    {
     "referenced_type" : "_ZTIP28camera3_stream_configuration"
    }
   ],
   "referenced_type" : "_ZTIFiPK14camera3_deviceP28camera3_stream_configurationE",
   "return_type" : "_ZTIi",
   "self_type" : "_ZTIFiPK14camera3_deviceP28camera3_stream_configurationE",
   "source_file" : "/hardware/libhardware/include/hardware/camera3.h"
  },
  {
   "alignment" : 4,
   "linker_set_key" : "_ZTIFiPK14camera3_devicePK15camera_metadataS4_E",
   "name" : "int (const camera3_device *, const camera_metadata *, const camera_metadata *)",
   "parameters" :
   [
    {
     "referenced_type" : "_ZTIPK14camera3_device"
    },
    {
     "referenced_type" : "_ZTIPK15camera_metadata"
    },
    {
     "referenced_type" : "_ZTIPK15camera_metadata"
    }
   ],
   "referenced_type" : "_ZTIFiPK14camera3_devicePK15camera_metadataS4_E",
   "return_type" : "_ZTIi",
   "self_type" : "_ZTIFiPK14camera3_devicePK15camera_metadataS4_E",
   "source_file" : "/hardware/libhardware/include/hardware/camera3.h"
  },
  {
   "alignment" : 4,
   "linker_set_key" : "_ZTIFiPK14camera3_devicePK20camera3_callback_opsE",
   "name" : "int (const camera3_device *, const camera3_callback_ops *)",
   "parameters" :
   [
    {
     "referenced_type" : "_ZTIPK14camera3_device"
    },
    {
     "referenced_type" : "_ZTIPK20camera3_callback_ops"
    }
   ],
   "referenced_type" : "_ZTIFiPK14camera3_devicePK20camera3_callback_opsE",
   "return_type" : "_ZTIi",
   "self_type" : "_ZTIFiPK14camera3_devicePK20camera3_callback_opsE",
   "source_file" : "/hardware/libhardware/include/hardware/camera3.h"
  },
  {
   "alignment" : 4,
   "linker_set_key" : "_ZTIFiPK14camera3_devicePK25camera3_stream_buffer_setE",
   "name" : "int (const camera3_device *, const camera3_stream_buffer_set *)",
   "parameters" :
   [
    {
     "referenced_type" : "_ZTIPK14camera3_device"
    },
    {
     "referenced_type" : "_ZTIPK25camera3_stream_buffer_set"
    }
   ],
   "referenced_type" : "_ZTIFiPK14camera3_devicePK25camera3_stream_buffer_setE",
   "return_type" : "_ZTIi",
   "self_type" : "_ZTIFiPK14camera3_devicePK25camera3_stream_buffer_setE",
   "source_file" : "/hardware/libhardware/include/hardware/camera3.h"
  },
  {
   "alignment" : 4,
   "linker_set_key" : "_ZTIFiPK16gralloc_module_tPK13native_handleE",
   "name" : "int (const gralloc_module_t *, const native_handle *)",
   "parameters" :
   [
    {
     "referenced_type" : "_ZTIPK16gralloc_module_t"
    },
    {
     "referenced_type" : "_ZTIPK13native_handle"
    }
   ],
   "referenced_type" : "_ZTIFiPK16gralloc_module_tPK13native_handleE",
   "return_type" : "_ZTIi",
   "self_type" : "_ZTIFiPK16gralloc_module_tPK13native_handleE",
   "source_file" : "/hardware/libhardware/include/hardware/gralloc.h"
  },
  {
   "alignment" : 4,
   "linker_set_key" : "_ZTIFiPK16gralloc_module_tPK13native_handlePiE",
   "name" : "int (const gralloc_module_t *, const native_handle *, int *)",
   "parameters" :
   [
    {
     "referenced_type" : "_ZTIPK16gralloc_module_t"
    },
    {
     "referenced_type" : "_ZTIPK13native_handle"
    },
    {
     "referenced_type" : "_ZTIPi"
    }
   ],
   "referenced_type" : "_ZTIFiPK16gralloc_module_tPK13native_handlePiE",
   "return_type" : "_ZTIi",
   "self_type" : "_ZTIFiPK16gralloc_module_tPK13native_handlePiE",
   "source_file" : "/hardware/libhardware/include/hardware/gralloc.h"
  },
  {
   "alignment" : 4,
   "linker_set_key" : "_ZTIFiPK16gralloc_module_tPK13native_handlePjS5_E",
   "name" : "int (const gralloc_module_t *, const native_handle *, unsigned int *, unsigned int *)",
   "parameters" :
   [
    {
     "referenced_type" : "_ZTIPK16gralloc_module_t"
    },
    {
     "referenced_type" : "_ZTIPK13native_handle"
    },
    {
     "referenced_type" : "_ZTIPj"
    },
    {
     "referenced_type" : "_ZTIPj"
    }
   ],
   "referenced_type" : "_ZTIFiPK16gralloc_module_tPK13native_handlePjS5_E",
   "return_type" : "_ZTIi",
   "self_type" : "_ZTIFiPK16gralloc_module_tPK13native_handlePjS5_E",
   "source_file" : "/hardware/libhardware/include/hardware/gralloc.h"
  },
  {
   "alignment" : 4,
   "linker_set_key" : "_ZTIFiPK16gralloc_module_tPK13native_handleiiiiiP13android_ycbcrE",
   "name" : "int (const gralloc_module_t *, const native_handle *, int, int, int, int, int, android_ycbcr *)",
   "parameters" :
   [
    {
     "referenced_type" : "_ZTIPK16gralloc_module_t"
    },
    {
     "referenced_type" : "_ZTIPK13native_handle"
    },
    {
     "referenced_type" : "_ZTIi"
    },
    {
     "referenced_type" : "_ZTIi"
    },
    {
     "referenced_type" : "_ZTIi"
    },
    {
     "referenced_type" : "_ZTIi"
    },
    {
     "referenced_type" : "_ZTIi"
    },
    {
     "referenced_type" : "_ZTIP13android_ycbcr"
    }
   ],
   "referenced_type" : "_ZTIFiPK16gralloc_module_tPK13native_handleiiiiiP13android_ycbcrE",
   "return_type" : "_ZTIi",
   "self_type" : "_ZTIFiPK16gralloc_module_tPK13native_handleiiiiiP13android_ycbcrE",
   "source_file" : "/hardware/libhardware/include/hardware/gralloc.h"
  },
  {
   "alignment" : 4,
   "linker_set_key" : "_ZTIFiPK16gralloc_module_tPK13native_handleiiiiiP13android_ycbcriE",
   "name" : "int (const gralloc_module_t *, const native_handle *, int, int, int, int, int, android_ycbcr *, int)",
   "parameters" :
   [
    {
     "referenced_type" : "_ZTIPK16gralloc_module_t"
    },
    {
     "referenced_type" : "_ZTIPK13native_handle"
    },
    {
     "referenced_type" : "_ZTIi"
    },
    {
     "referenced_type" : "_ZTIi"
    },
    {
     "referenced_type" : "_ZTIi"
    },
    {
     "referenced_type" : "_ZTIi"
    },
    {
     "referenced_type" : "_ZTIi"
    },
    {
     "referenced_type" : "_ZTIP13android_ycbcr"
    },
    {
     "referenced_type" : "_ZTIi"
    }
   ],
   "referenced_type" : "_ZTIFiPK16gralloc_module_tPK13native_handleiiiiiP13android_ycbcriE",
   "return_type" : "_ZTIi",
   "self_type" : "_ZTIFiPK16gralloc_module_tPK13native_handleiiiiiP13android_ycbcriE",
   "source_file" : "/hardware/libhardware/include/hardware/gralloc.h"
  },
  {
   "alignment" : 4,
   "linker_set_key" : "_ZTIFiPK16gralloc_module_tPK13native_handleiiiiiPPvE",
   "name" : "int (const gralloc_module_t *, const native_handle *, int, int, int, int, int, void **)",
   "parameters" :
   [
    {
     "referenced_type" : "_ZTIPK16gralloc_module_t"
    },
    {
     "referenced_type" : "_ZTIPK13native_handle"
    },
    {
     "referenced_type" : "_ZTIi"
    },
    {
     "referenced_type" : "_ZTIi"
    },
    {
     "referenced_type" : "_ZTIi"
    },
    {
     "referenced_type" : "_ZTIi"
    },
    {
     "referenced_type" : "_ZTIi"
    },
    {
     "referenced_type" : "_ZTIPPv"
    }
   ],
   "referenced_type" : "_ZTIFiPK16gralloc_module_tPK13native_handleiiiiiPPvE",
   "return_type" : "_ZTIi",
   "self_type" : "_ZTIFiPK16gralloc_module_tPK13native_handleiiiiiPPvE",
   "source_file" : "/hardware/libhardware/include/hardware/gralloc.h"
  },
  {
   "alignment" : 4,
   "linker_set_key" : "_ZTIFiPK16gralloc_module_tPK13native_handleiiiiiPPviE",
   "name" : "int (const gralloc_module_t *, const native_handle *, int, int, int, int, int, void **, int)",
   "parameters" :
   [
    {
     "referenced_type" : "_ZTIPK16gralloc_module_t"
    },
    {
     "referenced_type" : "_ZTIPK13native_handle"
    },
    {
     "referenced_type" : "_ZTIi"
    },
    {
     "referenced_type" : "_ZTIi"
    },
    {
     "referenced_type" : "_ZTIi"
    },
    {
     "referenced_type" : "_ZTIi"
    },
    {
     "referenced_type" : "_ZTIi"
    },
    {
     "referenced_type" : "_ZTIPPv"
    },
    {
     "referenced_type" : "_ZTIi"
    }
   ],
   "referenced_type" : "_ZTIFiPK16gralloc_module_tPK13native_handleiiiiiPPviE",
   "return_type" : "_ZTIi",
   "self_type" : "_ZTIFiPK16gralloc_module_tPK13native_handleiiiiiPPviE",
   "source_file" : "/hardware/libhardware/include/hardware/gralloc.h"
  },
  {
   "alignment" : 4,
   "linker_set_key" : "_ZTIFiPK16gralloc_module_tPK13native_handlejjiijE",
   "name" : "int (const gralloc_module_t *, const native_handle *, unsigned int, unsigned int, int, int, unsigned int)",
   "parameters" :
   [
    {
     "referenced_type" : "_ZTIPK16gralloc_module_t"
    },
    {
     "referenced_type" : "_ZTIPK13native_handle"
    },
    {
     "referenced_type" : "_ZTIj"
    },
    {
     "referenced_type" : "_ZTIj"
    },
    {
     "referenced_type" : "_ZTIi"
    },
    {
     "referenced_type" : "_ZTIi"
    },
    {
     "referenced_type" : "_ZTIj"
    }
   ],
   "referenced_type" : "_ZTIFiPK16gralloc_module_tPK13native_handlejjiijE",
   "return_type" : "_ZTIi",
   "self_type" : "_ZTIFiPK16gralloc_module_tPK13native_handlejjiijE",
   "source_file" : "/hardware/libhardware/include/hardware/gralloc.h"
  },
  {
   "alignment" : 4,
   "linker_set_key" : "_ZTIFiPK16gralloc_module_tizE",
   "name" : "int (const gralloc_module_t *, int, ...)",
   "parameters" :
   [
    {
     "referenced_type" : "_ZTIPK16gralloc_module_t"
    },
    {
     "referenced_type" : "_ZTIi"
    }
   ],
   "referenced_type" : "_ZTIFiPK16gralloc_module_tizE",
   "return_type" : "_ZTIi",
   "self_type" : "_ZTIFiPK16gralloc_module_tizE",
   "source_file" : "/hardware/libhardware/include/hardware/gralloc.h"
  },
  {
   "alignment" : 4,
   "linker_set_key" : "_ZTIFiPK23camera_module_callbacksE",
   "name" : "int (const camera_module_callbacks *)",
   "parameters" :
   [
    {
     "referenced_type" : "_ZTIPK23camera_module_callbacks"
    }
   ],
   "referenced_type" : "_ZTIFiPK23camera_module_callbacksE",
   "return_type" : "_ZTIi",
   "self_type" : "_ZTIFiPK23camera_module_callbacksE",
   "source_file" : "/hardware/libhardware/include/hardware/camera_common.h"
  },
  {
   "alignment" : 4,
   "linker_set_key" : "_ZTIFiPKcbE",
   "name" : "int (const char *, bool)",
   "parameters" :
   [
    {
     "referenced_type" : "_ZTIPKc"
    },
    {
     "referenced_type" : "_ZTIb"
    }
   ],
   "referenced_type" : "_ZTIFiPKcbE",
   "return_type" : "_ZTIi",
   "self_type" : "_ZTIFiPKcbE",
   "source_file" : "/hardware/libhardware/include/hardware/camera_common.h"
  },
  {
   "alignment" : 4,
   "linker_set_key" : "_ZTIFiPvE",
   "name" : "int (void *)",
   "parameters" :
   [
    {
     "referenced_type" : "_ZTIPv"
    }
   ],
   "referenced_type" : "_ZTIFiPvE",
   "return_type" : "_ZTIi",
   "self_type" : "_ZTIFiPvE",
   "source_file" : "/system/core/libutils/include/utils/AndroidThreads.h"
  },
  {
   "alignment" : 4,
   "linker_set_key" : "_ZTIFiPvxE",
   "name" : "int (void *, long long)",
   "parameters" :
   [
    {
     "referenced_type" : "_ZTIPv"
    },
    {
     "referenced_type" : "_ZTIx"
    }
   ],
   "referenced_type" : "_ZTIFiPvxE",
   "return_type" : "_ZTIi",
   "self_type" : "_ZTIFiPvxE",
   "source_file" : "/frameworks/av/media/ndk/include/media/NdkMediaDataSource.h"
  },
  {
   "alignment" : 4,
   "linker_set_key" : "_ZTIFiPvxS_jE",
   "name" : "int (void *, long long, void *, unsigned int)",
   "parameters" :
   [
    {
     "referenced_type" : "_ZTIPv"
    },
    {
     "referenced_type" : "_ZTIx"
    },
    {
     "referenced_type" : "_ZTIPv"
    },
    {
     "referenced_type" : "_ZTIj"
    }
   ],
   "referenced_type" : "_ZTIFiPvxS_jE",
   "return_type" : "_ZTIi",
   "self_type" : "_ZTIFiPvxS_jE",
   "source_file" : "/frameworks/av/media/ndk/include/media/NdkMediaDataSource.h"
  },
  {
   "alignment" : 4,
   "linker_set_key" : "_ZTIFiiP11camera_infoE",
   "name" : "int (int, camera_info *)",
   "parameters" :
   [
    {
     "referenced_type" : "_ZTIi"
    },
    {
     "referenced_type" : "_ZTIP11camera_info"
    }
   ],
   "referenced_type" : "_ZTIFiiP11camera_infoE",
   "return_type" : "_ZTIi",
   "self_type" : "_ZTIFiiP11camera_infoE",
   "source_file" : "/hardware/libhardware/include/hardware/camera_common.h"
  },
  {
   "alignment" : 4,
   "linker_set_key" : "_ZTIFiiPK25camera_stream_combinationE",
   "name" : "int (int, const camera_stream_combination *)",
   "parameters" :
   [
    {
     "referenced_type" : "_ZTIi"
    },
    {
     "referenced_type" : "_ZTIPK25camera_stream_combination"
    }
   ],
   "referenced_type" : "_ZTIFiiPK25camera_stream_combinationE",
   "return_type" : "_ZTIi",
   "self_type" : "_ZTIFiiPK25camera_stream_combinationE",
   "source_file" : "/hardware/libhardware/include/hardware/camera_common.h"
  },
  {
   "alignment" : 4,
   "linker_set_key" : "_ZTIFiiPP15camera_metadataE",
   "name" : "int (int, camera_metadata **)",
   "parameters" :
   [
    {
     "referenced_type" : "_ZTIi"
    },
    {
     "referenced_type" : "_ZTIPP15camera_metadata"
    }
   ],
   "referenced_type" : "_ZTIFiiPP15camera_metadataE",
   "return_type" : "_ZTIi",
   "self_type" : "_ZTIFiiPP15camera_metadataE",
   "source_file" : "/hardware/libhardware/include/hardware/camera_common.h"
  },
  {
   "alignment" : 4,
   "linker_set_key" : "_ZTIFivE",
   "name" : "int ()",
   "referenced_type" : "_ZTIFivE",
   "return_type" : "_ZTIi",
   "self_type" : "_ZTIFivE",
   "source_file" : "/hardware/libhardware/include/hardware/camera_common.h"
  },
  {
   "alignment" : 4,
   "linker_set_key" : "_ZTIFsP7_JNIEnvP7_jclassP10_jmethodIDPK6jvalueE",
   "name" : "short (_JNIEnv *, _jclass *, _jmethodID *, const jvalue *)",
   "parameters" :
   [
    {
     "referenced_type" : "_ZTIP7_JNIEnv"
    },
    {
     "referenced_type" : "_ZTIP7_jclass"
    },
    {
     "referenced_type" : "_ZTIP10_jmethodID"
    },
    {
     "referenced_type" : "_ZTIPK6jvalue"
    }
   ],
   "referenced_type" : "_ZTIFsP7_JNIEnvP7_jclassP10_jmethodIDPK6jvalueE",
   "return_type" : "_ZTIs",
   "self_type" : "_ZTIFsP7_JNIEnvP7_jclassP10_jmethodIDPK6jvalueE",
   "source_file" : "/libnativehelper/include_jni/jni.h"
  },
  {
   "alignment" : 4,
   "linker_set_key" : "_ZTIFsP7_JNIEnvP7_jclassP10_jmethodIDSt9__va_listE",
   "name" : "short (_JNIEnv *, _jclass *, _jmethodID *, std::__va_list)",
   "parameters" :
   [
    {
     "referenced_type" : "_ZTIP7_JNIEnv"
    },
    {
     "referenced_type" : "_ZTIP7_jclass"
    },
    {
     "referenced_type" : "_ZTIP10_jmethodID"
    },
    {
     "referenced_type" : "_ZTISt9__va_list"
    }
   ],
   "referenced_type" : "_ZTIFsP7_JNIEnvP7_jclassP10_jmethodIDSt9__va_listE",
   "return_type" : "_ZTIs",
   "self_type" : "_ZTIFsP7_JNIEnvP7_jclassP10_jmethodIDSt9__va_listE",
   "source_file" : "/libnativehelper/include_jni/jni.h"
  },
  {
   "alignment" : 4,
   "linker_set_key" : "_ZTIFsP7_JNIEnvP7_jclassP10_jmethodIDzE",
   "name" : "short (_JNIEnv *, _jclass *, _jmethodID *, ...)",
   "parameters" :
   [
    {
     "referenced_type" : "_ZTIP7_JNIEnv"
    },
    {
     "referenced_type" : "_ZTIP7_jclass"
    },
    {
     "referenced_type" : "_ZTIP10_jmethodID"
    }
   ],
   "referenced_type" : "_ZTIFsP7_JNIEnvP7_jclassP10_jmethodIDzE",
   "return_type" : "_ZTIs",
   "self_type" : "_ZTIFsP7_JNIEnvP7_jclassP10_jmethodIDzE",
   "source_file" : "/libnativehelper/include_jni/jni.h"
  },
  {
   "alignment" : 4,
   "linker_set_key" : "_ZTIFsP7_JNIEnvP7_jclassP9_jfieldIDE",
   "name" : "short (_JNIEnv *, _jclass *, _jfieldID *)",
   "parameters" :
   [
    {
     "referenced_type" : "_ZTIP7_JNIEnv"
    },
    {
     "referenced_type" : "_ZTIP7_jclass"
    },
    {
     "referenced_type" : "_ZTIP9_jfieldID"
    }
   ],
   "referenced_type" : "_ZTIFsP7_JNIEnvP7_jclassP9_jfieldIDE",
   "return_type" : "_ZTIs",
   "self_type" : "_ZTIFsP7_JNIEnvP7_jclassP9_jfieldIDE",
   "source_file" : "/libnativehelper/include_jni/jni.h"
  },
  {
   "alignment" : 4,
   "linker_set_key" : "_ZTIFsP7_JNIEnvP8_jobjectP10_jmethodIDPK6jvalueE",
   "name" : "short (_JNIEnv *, _jobject *, _jmethodID *, const jvalue *)",
   "parameters" :
   [
    {
     "referenced_type" : "_ZTIP7_JNIEnv"
    },
    {
     "referenced_type" : "_ZTIP8_jobject"
    },
    {
     "referenced_type" : "_ZTIP10_jmethodID"
    },
    {
     "referenced_type" : "_ZTIPK6jvalue"
    }
   ],
   "referenced_type" : "_ZTIFsP7_JNIEnvP8_jobjectP10_jmethodIDPK6jvalueE",
   "return_type" : "_ZTIs",
   "self_type" : "_ZTIFsP7_JNIEnvP8_jobjectP10_jmethodIDPK6jvalueE",
   "source_file" : "/libnativehelper/include_jni/jni.h"
  },
  {
   "alignment" : 4,
   "linker_set_key" : "_ZTIFsP7_JNIEnvP8_jobjectP10_jmethodIDSt9__va_listE",
   "name" : "short (_JNIEnv *, _jobject *, _jmethodID *, std::__va_list)",
   "parameters" :
   [
    {
     "referenced_type" : "_ZTIP7_JNIEnv"
    },
    {
     "referenced_type" : "_ZTIP8_jobject"
    },
    {
     "referenced_type" : "_ZTIP10_jmethodID"
    },
    {
     "referenced_type" : "_ZTISt9__va_list"
    }
   ],
   "referenced_type" : "_ZTIFsP7_JNIEnvP8_jobjectP10_jmethodIDSt9__va_listE",
   "return_type" : "_ZTIs",
   "self_type" : "_ZTIFsP7_JNIEnvP8_jobjectP10_jmethodIDSt9__va_listE",
   "source_file" : "/libnativehelper/include_jni/jni.h"
  },
  {
   "alignment" : 4,
   "linker_set_key" : "_ZTIFsP7_JNIEnvP8_jobjectP10_jmethodIDzE",
   "name" : "short (_JNIEnv *, _jobject *, _jmethodID *, ...)",
   "parameters" :
   [
    {
     "referenced_type" : "_ZTIP7_JNIEnv"
    },
    {
     "referenced_type" : "_ZTIP8_jobject"
    },
    {
     "referenced_type" : "_ZTIP10_jmethodID"
    }
   ],
   "referenced_type" : "_ZTIFsP7_JNIEnvP8_jobjectP10_jmethodIDzE",
   "return_type" : "_ZTIs",
   "self_type" : "_ZTIFsP7_JNIEnvP8_jobjectP10_jmethodIDzE",
   "source_file" : "/libnativehelper/include_jni/jni.h"
  },
  {
   "alignment" : 4,
   "linker_set_key" : "_ZTIFsP7_JNIEnvP8_jobjectP7_jclassP10_jmethodIDPK6jvalueE",
   "name" : "short (_JNIEnv *, _jobject *, _jclass *, _jmethodID *, const jvalue *)",
   "parameters" :
   [
    {
     "referenced_type" : "_ZTIP7_JNIEnv"
    },
    {
     "referenced_type" : "_ZTIP8_jobject"
    },
    {
     "referenced_type" : "_ZTIP7_jclass"
    },
    {
     "referenced_type" : "_ZTIP10_jmethodID"
    },
    {
     "referenced_type" : "_ZTIPK6jvalue"
    }
   ],
   "referenced_type" : "_ZTIFsP7_JNIEnvP8_jobjectP7_jclassP10_jmethodIDPK6jvalueE",
   "return_type" : "_ZTIs",
   "self_type" : "_ZTIFsP7_JNIEnvP8_jobjectP7_jclassP10_jmethodIDPK6jvalueE",
   "source_file" : "/libnativehelper/include_jni/jni.h"
  },
  {
   "alignment" : 4,
   "linker_set_key" : "_ZTIFsP7_JNIEnvP8_jobjectP7_jclassP10_jmethodIDSt9__va_listE",
   "name" : "short (_JNIEnv *, _jobject *, _jclass *, _jmethodID *, std::__va_list)",
   "parameters" :
   [
    {
     "referenced_type" : "_ZTIP7_JNIEnv"
    },
    {
     "referenced_type" : "_ZTIP8_jobject"
    },
    {
     "referenced_type" : "_ZTIP7_jclass"
    },
    {
     "referenced_type" : "_ZTIP10_jmethodID"
    },
    {
     "referenced_type" : "_ZTISt9__va_list"
    }
   ],
   "referenced_type" : "_ZTIFsP7_JNIEnvP8_jobjectP7_jclassP10_jmethodIDSt9__va_listE",
   "return_type" : "_ZTIs",
   "self_type" : "_ZTIFsP7_JNIEnvP8_jobjectP7_jclassP10_jmethodIDSt9__va_listE",
   "source_file" : "/libnativehelper/include_jni/jni.h"
  },
  {
   "alignment" : 4,
   "linker_set_key" : "_ZTIFsP7_JNIEnvP8_jobjectP7_jclassP10_jmethodIDzE",
   "name" : "short (_JNIEnv *, _jobject *, _jclass *, _jmethodID *, ...)",
   "parameters" :
   [
    {
     "referenced_type" : "_ZTIP7_JNIEnv"
    },
    {
     "referenced_type" : "_ZTIP8_jobject"
    },
    {
     "referenced_type" : "_ZTIP7_jclass"
    },
    {
     "referenced_type" : "_ZTIP10_jmethodID"
    }
   ],
   "referenced_type" : "_ZTIFsP7_JNIEnvP8_jobjectP7_jclassP10_jmethodIDzE",
   "return_type" : "_ZTIs",
   "self_type" : "_ZTIFsP7_JNIEnvP8_jobjectP7_jclassP10_jmethodIDzE",
   "source_file" : "/libnativehelper/include_jni/jni.h"
  },
  {
   "alignment" : 4,
   "linker_set_key" : "_ZTIFsP7_JNIEnvP8_jobjectP9_jfieldIDE",
   "name" : "short (_JNIEnv *, _jobject *, _jfieldID *)",
   "parameters" :
   [
    {
     "referenced_type" : "_ZTIP7_JNIEnv"
    },
    {
     "referenced_type" : "_ZTIP8_jobject"
    },
    {
     "referenced_type" : "_ZTIP9_jfieldID"
    }
   ],
   "referenced_type" : "_ZTIFsP7_JNIEnvP8_jobjectP9_jfieldIDE",
   "return_type" : "_ZTIs",
   "self_type" : "_ZTIFsP7_JNIEnvP8_jobjectP9_jfieldIDE",
   "source_file" : "/libnativehelper/include_jni/jni.h"
  },
  {
   "alignment" : 4,
   "linker_set_key" : "_ZTIFtP7_JNIEnvP7_jclassP10_jmethodIDPK6jvalueE",
   "name" : "unsigned short (_JNIEnv *, _jclass *, _jmethodID *, const jvalue *)",
   "parameters" :
   [
    {
     "referenced_type" : "_ZTIP7_JNIEnv"
    },
    {
     "referenced_type" : "_ZTIP7_jclass"
    },
    {
     "referenced_type" : "_ZTIP10_jmethodID"
    },
    {
     "referenced_type" : "_ZTIPK6jvalue"
    }
   ],
   "referenced_type" : "_ZTIFtP7_JNIEnvP7_jclassP10_jmethodIDPK6jvalueE",
   "return_type" : "_ZTIt",
   "self_type" : "_ZTIFtP7_JNIEnvP7_jclassP10_jmethodIDPK6jvalueE",
   "source_file" : "/libnativehelper/include_jni/jni.h"
  },
  {
   "alignment" : 4,
   "linker_set_key" : "_ZTIFtP7_JNIEnvP7_jclassP10_jmethodIDSt9__va_listE",
   "name" : "unsigned short (_JNIEnv *, _jclass *, _jmethodID *, std::__va_list)",
   "parameters" :
   [
    {
     "referenced_type" : "_ZTIP7_JNIEnv"
    },
    {
     "referenced_type" : "_ZTIP7_jclass"
    },
    {
     "referenced_type" : "_ZTIP10_jmethodID"
    },
    {
     "referenced_type" : "_ZTISt9__va_list"
    }
   ],
   "referenced_type" : "_ZTIFtP7_JNIEnvP7_jclassP10_jmethodIDSt9__va_listE",
   "return_type" : "_ZTIt",
   "self_type" : "_ZTIFtP7_JNIEnvP7_jclassP10_jmethodIDSt9__va_listE",
   "source_file" : "/libnativehelper/include_jni/jni.h"
  },
  {
   "alignment" : 4,
   "linker_set_key" : "_ZTIFtP7_JNIEnvP7_jclassP10_jmethodIDzE",
   "name" : "unsigned short (_JNIEnv *, _jclass *, _jmethodID *, ...)",
   "parameters" :
   [
    {
     "referenced_type" : "_ZTIP7_JNIEnv"
    },
    {
     "referenced_type" : "_ZTIP7_jclass"
    },
    {
     "referenced_type" : "_ZTIP10_jmethodID"
    }
   ],
   "referenced_type" : "_ZTIFtP7_JNIEnvP7_jclassP10_jmethodIDzE",
   "return_type" : "_ZTIt",
   "self_type" : "_ZTIFtP7_JNIEnvP7_jclassP10_jmethodIDzE",
   "source_file" : "/libnativehelper/include_jni/jni.h"
  },
  {
   "alignment" : 4,
   "linker_set_key" : "_ZTIFtP7_JNIEnvP7_jclassP9_jfieldIDE",
   "name" : "unsigned short (_JNIEnv *, _jclass *, _jfieldID *)",
   "parameters" :
   [
    {
     "referenced_type" : "_ZTIP7_JNIEnv"
    },
    {
     "referenced_type" : "_ZTIP7_jclass"
    },
    {
     "referenced_type" : "_ZTIP9_jfieldID"
    }
   ],
   "referenced_type" : "_ZTIFtP7_JNIEnvP7_jclassP9_jfieldIDE",
   "return_type" : "_ZTIt",
   "self_type" : "_ZTIFtP7_JNIEnvP7_jclassP9_jfieldIDE",
   "source_file" : "/libnativehelper/include_jni/jni.h"
  },
  {
   "alignment" : 4,
   "linker_set_key" : "_ZTIFtP7_JNIEnvP8_jobjectP10_jmethodIDPK6jvalueE",
   "name" : "unsigned short (_JNIEnv *, _jobject *, _jmethodID *, const jvalue *)",
   "parameters" :
   [
    {
     "referenced_type" : "_ZTIP7_JNIEnv"
    },
    {
     "referenced_type" : "_ZTIP8_jobject"
    },
    {
     "referenced_type" : "_ZTIP10_jmethodID"
    },
    {
     "referenced_type" : "_ZTIPK6jvalue"
    }
   ],
   "referenced_type" : "_ZTIFtP7_JNIEnvP8_jobjectP10_jmethodIDPK6jvalueE",
   "return_type" : "_ZTIt",
   "self_type" : "_ZTIFtP7_JNIEnvP8_jobjectP10_jmethodIDPK6jvalueE",
   "source_file" : "/libnativehelper/include_jni/jni.h"
  },
  {
   "alignment" : 4,
   "linker_set_key" : "_ZTIFtP7_JNIEnvP8_jobjectP10_jmethodIDSt9__va_listE",
   "name" : "unsigned short (_JNIEnv *, _jobject *, _jmethodID *, std::__va_list)",
   "parameters" :
   [
    {
     "referenced_type" : "_ZTIP7_JNIEnv"
    },
    {
     "referenced_type" : "_ZTIP8_jobject"
    },
    {
     "referenced_type" : "_ZTIP10_jmethodID"
    },
    {
     "referenced_type" : "_ZTISt9__va_list"
    }
   ],
   "referenced_type" : "_ZTIFtP7_JNIEnvP8_jobjectP10_jmethodIDSt9__va_listE",
   "return_type" : "_ZTIt",
   "self_type" : "_ZTIFtP7_JNIEnvP8_jobjectP10_jmethodIDSt9__va_listE",
   "source_file" : "/libnativehelper/include_jni/jni.h"
  },
  {
   "alignment" : 4,
   "linker_set_key" : "_ZTIFtP7_JNIEnvP8_jobjectP10_jmethodIDzE",
   "name" : "unsigned short (_JNIEnv *, _jobject *, _jmethodID *, ...)",
   "parameters" :
   [
    {
     "referenced_type" : "_ZTIP7_JNIEnv"
    },
    {
     "referenced_type" : "_ZTIP8_jobject"
    },
    {
     "referenced_type" : "_ZTIP10_jmethodID"
    }
   ],
   "referenced_type" : "_ZTIFtP7_JNIEnvP8_jobjectP10_jmethodIDzE",
   "return_type" : "_ZTIt",
   "self_type" : "_ZTIFtP7_JNIEnvP8_jobjectP10_jmethodIDzE",
   "source_file" : "/libnativehelper/include_jni/jni.h"
  },
  {
   "alignment" : 4,
   "linker_set_key" : "_ZTIFtP7_JNIEnvP8_jobjectP7_jclassP10_jmethodIDPK6jvalueE",
   "name" : "unsigned short (_JNIEnv *, _jobject *, _jclass *, _jmethodID *, const jvalue *)",
   "parameters" :
   [
    {
     "referenced_type" : "_ZTIP7_JNIEnv"
    },
    {
     "referenced_type" : "_ZTIP8_jobject"
    },
    {
     "referenced_type" : "_ZTIP7_jclass"
    },
    {
     "referenced_type" : "_ZTIP10_jmethodID"
    },
    {
     "referenced_type" : "_ZTIPK6jvalue"
    }
   ],
   "referenced_type" : "_ZTIFtP7_JNIEnvP8_jobjectP7_jclassP10_jmethodIDPK6jvalueE",
   "return_type" : "_ZTIt",
   "self_type" : "_ZTIFtP7_JNIEnvP8_jobjectP7_jclassP10_jmethodIDPK6jvalueE",
   "source_file" : "/libnativehelper/include_jni/jni.h"
  },
  {
   "alignment" : 4,
   "linker_set_key" : "_ZTIFtP7_JNIEnvP8_jobjectP7_jclassP10_jmethodIDSt9__va_listE",
   "name" : "unsigned short (_JNIEnv *, _jobject *, _jclass *, _jmethodID *, std::__va_list)",
   "parameters" :
   [
    {
     "referenced_type" : "_ZTIP7_JNIEnv"
    },
    {
     "referenced_type" : "_ZTIP8_jobject"
    },
    {
     "referenced_type" : "_ZTIP7_jclass"
    },
    {
     "referenced_type" : "_ZTIP10_jmethodID"
    },
    {
     "referenced_type" : "_ZTISt9__va_list"
    }
   ],
   "referenced_type" : "_ZTIFtP7_JNIEnvP8_jobjectP7_jclassP10_jmethodIDSt9__va_listE",
   "return_type" : "_ZTIt",
   "self_type" : "_ZTIFtP7_JNIEnvP8_jobjectP7_jclassP10_jmethodIDSt9__va_listE",
   "source_file" : "/libnativehelper/include_jni/jni.h"
  },
  {
   "alignment" : 4,
   "linker_set_key" : "_ZTIFtP7_JNIEnvP8_jobjectP7_jclassP10_jmethodIDzE",
   "name" : "unsigned short (_JNIEnv *, _jobject *, _jclass *, _jmethodID *, ...)",
   "parameters" :
   [
    {
     "referenced_type" : "_ZTIP7_JNIEnv"
    },
    {
     "referenced_type" : "_ZTIP8_jobject"
    },
    {
     "referenced_type" : "_ZTIP7_jclass"
    },
    {
     "referenced_type" : "_ZTIP10_jmethodID"
    }
   ],
   "referenced_type" : "_ZTIFtP7_JNIEnvP8_jobjectP7_jclassP10_jmethodIDzE",
   "return_type" : "_ZTIt",
   "self_type" : "_ZTIFtP7_JNIEnvP8_jobjectP7_jclassP10_jmethodIDzE",
   "source_file" : "/libnativehelper/include_jni/jni.h"
  },
  {
   "alignment" : 4,
   "linker_set_key" : "_ZTIFtP7_JNIEnvP8_jobjectP9_jfieldIDE",
   "name" : "unsigned short (_JNIEnv *, _jobject *, _jfieldID *)",
   "parameters" :
   [
    {
     "referenced_type" : "_ZTIP7_JNIEnv"
    },
    {
     "referenced_type" : "_ZTIP8_jobject"
    },
    {
     "referenced_type" : "_ZTIP9_jfieldID"
    }
   ],
   "referenced_type" : "_ZTIFtP7_JNIEnvP8_jobjectP9_jfieldIDE",
   "return_type" : "_ZTIt",
   "self_type" : "_ZTIFtP7_JNIEnvP8_jobjectP9_jfieldIDE",
   "source_file" : "/libnativehelper/include_jni/jni.h"
  },
  {
   "alignment" : 4,
   "linker_set_key" : "_ZTIFvP11AMediaCodecPv14media_status_tiPKcE",
   "name" : "void (AMediaCodec *, void *, media_status_t, int, const char *)",
   "parameters" :
   [
    {
     "referenced_type" : "_ZTIP11AMediaCodec"
    },
    {
     "referenced_type" : "_ZTIPv"
    },
    {
     "referenced_type" : "_ZTI14media_status_t"
    },
    {
     "referenced_type" : "_ZTIi"
    },
    {
     "referenced_type" : "_ZTIPKc"
    }
   ],
   "referenced_type" : "_ZTIFvP11AMediaCodecPv14media_status_tiPKcE",
   "return_type" : "_ZTIv",
   "self_type" : "_ZTIFvP11AMediaCodecPv14media_status_tiPKcE",
   "source_file" : "/frameworks/av/media/ndk/include/media/NdkMediaCodec.h"
  },
  {
   "alignment" : 4,
   "linker_set_key" : "_ZTIFvP11AMediaCodecPvP12AMediaFormatE",
   "name" : "void (AMediaCodec *, void *, AMediaFormat *)",
   "parameters" :
   [
    {
     "referenced_type" : "_ZTIP11AMediaCodec"
    },
    {
     "referenced_type" : "_ZTIPv"
    },
    {
     "referenced_type" : "_ZTIP12AMediaFormat"
    }
   ],
   "referenced_type" : "_ZTIFvP11AMediaCodecPvP12AMediaFormatE",
   "return_type" : "_ZTIv",
   "self_type" : "_ZTIFvP11AMediaCodecPvP12AMediaFormatE",
   "source_file" : "/frameworks/av/media/ndk/include/media/NdkMediaCodec.h"
  },
  {
   "alignment" : 4,
   "linker_set_key" : "_ZTIFvP11AMediaCodecPviE",
   "name" : "void (AMediaCodec *, void *, int)",
   "parameters" :
   [
    {
     "referenced_type" : "_ZTIP11AMediaCodec"
    },
    {
     "referenced_type" : "_ZTIPv"
    },
    {
     "referenced_type" : "_ZTIi"
    }
   ],
   "referenced_type" : "_ZTIFvP11AMediaCodecPviE",
   "return_type" : "_ZTIv",
   "self_type" : "_ZTIFvP11AMediaCodecPviE",
   "source_file" : "/frameworks/av/media/ndk/include/media/NdkMediaCodec.h"
  },
  {
   "alignment" : 4,
   "linker_set_key" : "_ZTIFvP11AMediaCodecPviP21AMediaCodecBufferInfoE",
   "name" : "void (AMediaCodec *, void *, int, AMediaCodecBufferInfo *)",
   "parameters" :
   [
    {
     "referenced_type" : "_ZTIP11AMediaCodec"
    },
    {
     "referenced_type" : "_ZTIPv"
    },
    {
     "referenced_type" : "_ZTIi"
    },
    {
     "referenced_type" : "_ZTIP21AMediaCodecBufferInfo"
    }
   ],
   "referenced_type" : "_ZTIFvP11AMediaCodecPviP21AMediaCodecBufferInfoE",
   "return_type" : "_ZTIv",
   "self_type" : "_ZTIFvP11AMediaCodecPviP21AMediaCodecBufferInfoE",
   "source_file" : "/frameworks/av/media/ndk/include/media/NdkMediaCodec.h"
  },
  {
   "alignment" : 4,
   "linker_set_key" : "_ZTIFvP14alloc_device_tPciE",
   "name" : "void (alloc_device_t *, char *, int)",
   "parameters" :
   [
    {
     "referenced_type" : "_ZTIP14alloc_device_t"
    },
    {
     "referenced_type" : "_ZTIPc"
    },
    {
     "referenced_type" : "_ZTIi"
    }
   ],
   "referenced_type" : "_ZTIFvP14alloc_device_tPciE",
   "return_type" : "_ZTIv",
   "self_type" : "_ZTIFvP14alloc_device_tPciE",
   "source_file" : "/hardware/libhardware/include/hardware/gralloc.h"
  },
  {
   "alignment" : 4,
   "linker_set_key" : "_ZTIFvP14vendor_tag_opsE",
   "name" : "void (vendor_tag_ops *)",
   "parameters" :
   [
    {
     "referenced_type" : "_ZTIP14vendor_tag_ops"
    }
   ],
   "referenced_type" : "_ZTIFvP14vendor_tag_opsE",
   "return_type" : "_ZTIv",
   "self_type" : "_ZTIFvP14vendor_tag_opsE",
   "source_file" : "/hardware/libhardware/include/hardware/camera_common.h"
  },
  {
   "alignment" : 4,
   "linker_set_key" : "_ZTIFvP20framebuffer_device_tPciE",
   "name" : "void (framebuffer_device_t *, char *, int)",
   "parameters" :
   [
    {
     "referenced_type" : "_ZTIP20framebuffer_device_t"
    },
    {
     "referenced_type" : "_ZTIPc"
    },
    {
     "referenced_type" : "_ZTIi"
    }
   ],
   "referenced_type" : "_ZTIFvP20framebuffer_device_tPciE",
   "return_type" : "_ZTIv",
   "self_type" : "_ZTIFvP20framebuffer_device_tPciE",
   "source_file" : "/hardware/libhardware/include/hardware/fb.h"
  },
  {
   "alignment" : 4,
   "linker_set_key" : "_ZTIFvP21android_native_base_tE",
   "name" : "void (android_native_base_t *)",
   "parameters" :
   [
    {
     "referenced_type" : "_ZTIP21android_native_base_t"
    }
   ],
   "referenced_type" : "_ZTIFvP21android_native_base_tE",
   "return_type" : "_ZTIv",
   "self_type" : "_ZTIFvP21android_native_base_tE",
   "source_file" : "/frameworks/native/libs/nativebase/include/nativebase/nativebase.h"
  },
  {
   "alignment" : 4,
   "linker_set_key" : "_ZTIFvP7_JNIEnvE",
   "name" : "void (_JNIEnv *)",
   "parameters" :
   [
    {
     "referenced_type" : "_ZTIP7_JNIEnv"
    }
   ],
   "referenced_type" : "_ZTIFvP7_JNIEnvE",
   "return_type" : "_ZTIv",
   "self_type" : "_ZTIFvP7_JNIEnvE",
   "source_file" : "/libnativehelper/include_jni/jni.h"
  },
  {
   "alignment" : 4,
   "linker_set_key" : "_ZTIFvP7_JNIEnvP10_jintArrayPiiE",
   "name" : "void (_JNIEnv *, _jintArray *, int *, int)",
   "parameters" :
   [
    {
     "referenced_type" : "_ZTIP7_JNIEnv"
    },
    {
     "referenced_type" : "_ZTIP10_jintArray"
    },
    {
     "referenced_type" : "_ZTIPi"
    },
    {
     "referenced_type" : "_ZTIi"
    }
   ],
   "referenced_type" : "_ZTIFvP7_JNIEnvP10_jintArrayPiiE",
   "return_type" : "_ZTIv",
   "self_type" : "_ZTIFvP7_JNIEnvP10_jintArrayPiiE",
   "source_file" : "/libnativehelper/include_jni/jni.h"
  },
  {
   "alignment" : 4,
   "linker_set_key" : "_ZTIFvP7_JNIEnvP10_jintArrayiiPKiE",
   "name" : "void (_JNIEnv *, _jintArray *, int, int, const int *)",
   "parameters" :
   [
    {
     "referenced_type" : "_ZTIP7_JNIEnv"
    },
    {
     "referenced_type" : "_ZTIP10_jintArray"
    },
    {
     "referenced_type" : "_ZTIi"
    },
    {
     "referenced_type" : "_ZTIi"
    },
    {
     "referenced_type" : "_ZTIPKi"
    }
   ],
   "referenced_type" : "_ZTIFvP7_JNIEnvP10_jintArrayiiPKiE",
   "return_type" : "_ZTIv",
   "self_type" : "_ZTIFvP7_JNIEnvP10_jintArrayiiPKiE",
   "source_file" : "/libnativehelper/include_jni/jni.h"
  },
  {
   "alignment" : 4,
   "linker_set_key" : "_ZTIFvP7_JNIEnvP10_jintArrayiiPiE",
   "name" : "void (_JNIEnv *, _jintArray *, int, int, int *)",
   "parameters" :
   [
    {
     "referenced_type" : "_ZTIP7_JNIEnv"
    },
    {
     "referenced_type" : "_ZTIP10_jintArray"
    },
    {
     "referenced_type" : "_ZTIi"
    },
    {
     "referenced_type" : "_ZTIi"
    },
    {
     "referenced_type" : "_ZTIPi"
    }
   ],
   "referenced_type" : "_ZTIFvP7_JNIEnvP10_jintArrayiiPiE",
   "return_type" : "_ZTIv",
   "self_type" : "_ZTIFvP7_JNIEnvP10_jintArrayiiPiE",
   "source_file" : "/libnativehelper/include_jni/jni.h"
  },
  {
   "alignment" : 4,
   "linker_set_key" : "_ZTIFvP7_JNIEnvP11_jbyteArrayPaiE",
   "name" : "void (_JNIEnv *, _jbyteArray *, signed char *, int)",
   "parameters" :
   [
    {
     "referenced_type" : "_ZTIP7_JNIEnv"
    },
    {
     "referenced_type" : "_ZTIP11_jbyteArray"
    },
    {
     "referenced_type" : "_ZTIPa"
    },
    {
     "referenced_type" : "_ZTIi"
    }
   ],
   "referenced_type" : "_ZTIFvP7_JNIEnvP11_jbyteArrayPaiE",
   "return_type" : "_ZTIv",
   "self_type" : "_ZTIFvP7_JNIEnvP11_jbyteArrayPaiE",
   "source_file" : "/libnativehelper/include_jni/jni.h"
  },
  {
   "alignment" : 4,
   "linker_set_key" : "_ZTIFvP7_JNIEnvP11_jbyteArrayiiPKaE",
   "name" : "void (_JNIEnv *, _jbyteArray *, int, int, const signed char *)",
   "parameters" :
   [
    {
     "referenced_type" : "_ZTIP7_JNIEnv"
    },
    {
     "referenced_type" : "_ZTIP11_jbyteArray"
    },
    {
     "referenced_type" : "_ZTIi"
    },
    {
     "referenced_type" : "_ZTIi"
    },
    {
     "referenced_type" : "_ZTIPKa"
    }
   ],
   "referenced_type" : "_ZTIFvP7_JNIEnvP11_jbyteArrayiiPKaE",
   "return_type" : "_ZTIv",
   "self_type" : "_ZTIFvP7_JNIEnvP11_jbyteArrayiiPKaE",
   "source_file" : "/libnativehelper/include_jni/jni.h"
  },
  {
   "alignment" : 4,
   "linker_set_key" : "_ZTIFvP7_JNIEnvP11_jbyteArrayiiPaE",
   "name" : "void (_JNIEnv *, _jbyteArray *, int, int, signed char *)",
   "parameters" :
   [
    {
     "referenced_type" : "_ZTIP7_JNIEnv"
    },
    {
     "referenced_type" : "_ZTIP11_jbyteArray"
    },
    {
     "referenced_type" : "_ZTIi"
    },
    {
     "referenced_type" : "_ZTIi"
    },
    {
     "referenced_type" : "_ZTIPa"
    }
   ],
   "referenced_type" : "_ZTIFvP7_JNIEnvP11_jbyteArrayiiPaE",
   "return_type" : "_ZTIv",
   "self_type" : "_ZTIFvP7_JNIEnvP11_jbyteArrayiiPaE",
   "source_file" : "/libnativehelper/include_jni/jni.h"
  },
  {
   "alignment" : 4,
   "linker_set_key" : "_ZTIFvP7_JNIEnvP11_jcharArrayPtiE",
   "name" : "void (_JNIEnv *, _jcharArray *, unsigned short *, int)",
   "parameters" :
   [
    {
     "referenced_type" : "_ZTIP7_JNIEnv"
    },
    {
     "referenced_type" : "_ZTIP11_jcharArray"
    },
    {
     "referenced_type" : "_ZTIPt"
    },
    {
     "referenced_type" : "_ZTIi"
    }
   ],
   "referenced_type" : "_ZTIFvP7_JNIEnvP11_jcharArrayPtiE",
   "return_type" : "_ZTIv",
   "self_type" : "_ZTIFvP7_JNIEnvP11_jcharArrayPtiE",
   "source_file" : "/libnativehelper/include_jni/jni.h"
  },
  {
   "alignment" : 4,
   "linker_set_key" : "_ZTIFvP7_JNIEnvP11_jcharArrayiiPKtE",
   "name" : "void (_JNIEnv *, _jcharArray *, int, int, const unsigned short *)",
   "parameters" :
   [
    {
     "referenced_type" : "_ZTIP7_JNIEnv"
    },
    {
     "referenced_type" : "_ZTIP11_jcharArray"
    },
    {
     "referenced_type" : "_ZTIi"
    },
    {
     "referenced_type" : "_ZTIi"
    },
    {
     "referenced_type" : "_ZTIPKt"
    }
   ],
   "referenced_type" : "_ZTIFvP7_JNIEnvP11_jcharArrayiiPKtE",
   "return_type" : "_ZTIv",
   "self_type" : "_ZTIFvP7_JNIEnvP11_jcharArrayiiPKtE",
   "source_file" : "/libnativehelper/include_jni/jni.h"
  },
  {
   "alignment" : 4,
   "linker_set_key" : "_ZTIFvP7_JNIEnvP11_jcharArrayiiPtE",
   "name" : "void (_JNIEnv *, _jcharArray *, int, int, unsigned short *)",
   "parameters" :
   [
    {
     "referenced_type" : "_ZTIP7_JNIEnv"
    },
    {
     "referenced_type" : "_ZTIP11_jcharArray"
    },
    {
     "referenced_type" : "_ZTIi"
    },
    {
     "referenced_type" : "_ZTIi"
    },
    {
     "referenced_type" : "_ZTIPt"
    }
   ],
   "referenced_type" : "_ZTIFvP7_JNIEnvP11_jcharArrayiiPtE",
   "return_type" : "_ZTIv",
   "self_type" : "_ZTIFvP7_JNIEnvP11_jcharArrayiiPtE",
   "source_file" : "/libnativehelper/include_jni/jni.h"
  },
  {
   "alignment" : 4,
   "linker_set_key" : "_ZTIFvP7_JNIEnvP11_jlongArrayPxiE",
   "name" : "void (_JNIEnv *, _jlongArray *, long long *, int)",
   "parameters" :
   [
    {
     "referenced_type" : "_ZTIP7_JNIEnv"
    },
    {
     "referenced_type" : "_ZTIP11_jlongArray"
    },
    {
     "referenced_type" : "_ZTIPx"
    },
    {
     "referenced_type" : "_ZTIi"
    }
   ],
   "referenced_type" : "_ZTIFvP7_JNIEnvP11_jlongArrayPxiE",
   "return_type" : "_ZTIv",
   "self_type" : "_ZTIFvP7_JNIEnvP11_jlongArrayPxiE",
   "source_file" : "/libnativehelper/include_jni/jni.h"
  },
  {
   "alignment" : 4,
   "linker_set_key" : "_ZTIFvP7_JNIEnvP11_jlongArrayiiPKxE",
   "name" : "void (_JNIEnv *, _jlongArray *, int, int, const long long *)",
   "parameters" :
   [
    {
     "referenced_type" : "_ZTIP7_JNIEnv"
    },
    {
     "referenced_type" : "_ZTIP11_jlongArray"
    },
    {
     "referenced_type" : "_ZTIi"
    },
    {
     "referenced_type" : "_ZTIi"
    },
    {
     "referenced_type" : "_ZTIPKx"
    }
   ],
   "referenced_type" : "_ZTIFvP7_JNIEnvP11_jlongArrayiiPKxE",
   "return_type" : "_ZTIv",
   "self_type" : "_ZTIFvP7_JNIEnvP11_jlongArrayiiPKxE",
   "source_file" : "/libnativehelper/include_jni/jni.h"
  },
  {
   "alignment" : 4,
   "linker_set_key" : "_ZTIFvP7_JNIEnvP11_jlongArrayiiPxE",
   "name" : "void (_JNIEnv *, _jlongArray *, int, int, long long *)",
   "parameters" :
   [
    {
     "referenced_type" : "_ZTIP7_JNIEnv"
    },
    {
     "referenced_type" : "_ZTIP11_jlongArray"
    },
    {
     "referenced_type" : "_ZTIi"
    },
    {
     "referenced_type" : "_ZTIi"
    },
    {
     "referenced_type" : "_ZTIPx"
    }
   ],
   "referenced_type" : "_ZTIFvP7_JNIEnvP11_jlongArrayiiPxE",
   "return_type" : "_ZTIv",
   "self_type" : "_ZTIFvP7_JNIEnvP11_jlongArrayiiPxE",
   "source_file" : "/libnativehelper/include_jni/jni.h"
  },
  {
   "alignment" : 4,
   "linker_set_key" : "_ZTIFvP7_JNIEnvP12_jfloatArrayPfiE",
   "name" : "void (_JNIEnv *, _jfloatArray *, float *, int)",
   "parameters" :
   [
    {
     "referenced_type" : "_ZTIP7_JNIEnv"
    },
    {
     "referenced_type" : "_ZTIP12_jfloatArray"
    },
    {
     "referenced_type" : "_ZTIPf"
    },
    {
     "referenced_type" : "_ZTIi"
    }
   ],
   "referenced_type" : "_ZTIFvP7_JNIEnvP12_jfloatArrayPfiE",
   "return_type" : "_ZTIv",
   "self_type" : "_ZTIFvP7_JNIEnvP12_jfloatArrayPfiE",
   "source_file" : "/libnativehelper/include_jni/jni.h"
  },
  {
   "alignment" : 4,
   "linker_set_key" : "_ZTIFvP7_JNIEnvP12_jfloatArrayiiPKfE",
   "name" : "void (_JNIEnv *, _jfloatArray *, int, int, const float *)",
   "parameters" :
   [
    {
     "referenced_type" : "_ZTIP7_JNIEnv"
    },
    {
     "referenced_type" : "_ZTIP12_jfloatArray"
    },
    {
     "referenced_type" : "_ZTIi"
    },
    {
     "referenced_type" : "_ZTIi"
    },
    {
     "referenced_type" : "_ZTIPKf"
    }
   ],
   "referenced_type" : "_ZTIFvP7_JNIEnvP12_jfloatArrayiiPKfE",
   "return_type" : "_ZTIv",
   "self_type" : "_ZTIFvP7_JNIEnvP12_jfloatArrayiiPKfE",
   "source_file" : "/libnativehelper/include_jni/jni.h"
  },
  {
   "alignment" : 4,
   "linker_set_key" : "_ZTIFvP7_JNIEnvP12_jfloatArrayiiPfE",
   "name" : "void (_JNIEnv *, _jfloatArray *, int, int, float *)",
   "parameters" :
   [
    {
     "referenced_type" : "_ZTIP7_JNIEnv"
    },
    {
     "referenced_type" : "_ZTIP12_jfloatArray"
    },
    {
     "referenced_type" : "_ZTIi"
    },
    {
     "referenced_type" : "_ZTIi"
    },
    {
     "referenced_type" : "_ZTIPf"
    }
   ],
   "referenced_type" : "_ZTIFvP7_JNIEnvP12_jfloatArrayiiPfE",
   "return_type" : "_ZTIv",
   "self_type" : "_ZTIFvP7_JNIEnvP12_jfloatArrayiiPfE",
   "source_file" : "/libnativehelper/include_jni/jni.h"
  },
  {
   "alignment" : 4,
   "linker_set_key" : "_ZTIFvP7_JNIEnvP12_jshortArrayPsiE",
   "name" : "void (_JNIEnv *, _jshortArray *, short *, int)",
   "parameters" :
   [
    {
     "referenced_type" : "_ZTIP7_JNIEnv"
    },
    {
     "referenced_type" : "_ZTIP12_jshortArray"
    },
    {
     "referenced_type" : "_ZTIPs"
    },
    {
     "referenced_type" : "_ZTIi"
    }
   ],
   "referenced_type" : "_ZTIFvP7_JNIEnvP12_jshortArrayPsiE",
   "return_type" : "_ZTIv",
   "self_type" : "_ZTIFvP7_JNIEnvP12_jshortArrayPsiE",
   "source_file" : "/libnativehelper/include_jni/jni.h"
  },
  {
   "alignment" : 4,
   "linker_set_key" : "_ZTIFvP7_JNIEnvP12_jshortArrayiiPKsE",
   "name" : "void (_JNIEnv *, _jshortArray *, int, int, const short *)",
   "parameters" :
   [
    {
     "referenced_type" : "_ZTIP7_JNIEnv"
    },
    {
     "referenced_type" : "_ZTIP12_jshortArray"
    },
    {
     "referenced_type" : "_ZTIi"
    },
    {
     "referenced_type" : "_ZTIi"
    },
    {
     "referenced_type" : "_ZTIPKs"
    }
   ],
   "referenced_type" : "_ZTIFvP7_JNIEnvP12_jshortArrayiiPKsE",
   "return_type" : "_ZTIv",
   "self_type" : "_ZTIFvP7_JNIEnvP12_jshortArrayiiPKsE",
   "source_file" : "/libnativehelper/include_jni/jni.h"
  },
  {
   "alignment" : 4,
   "linker_set_key" : "_ZTIFvP7_JNIEnvP12_jshortArrayiiPsE",
   "name" : "void (_JNIEnv *, _jshortArray *, int, int, short *)",
   "parameters" :
   [
    {
     "referenced_type" : "_ZTIP7_JNIEnv"
    },
    {
     "referenced_type" : "_ZTIP12_jshortArray"
    },
    {
     "referenced_type" : "_ZTIi"
    },
    {
     "referenced_type" : "_ZTIi"
    },
    {
     "referenced_type" : "_ZTIPs"
    }
   ],
   "referenced_type" : "_ZTIFvP7_JNIEnvP12_jshortArrayiiPsE",
   "return_type" : "_ZTIv",
   "self_type" : "_ZTIFvP7_JNIEnvP12_jshortArrayiiPsE",
   "source_file" : "/libnativehelper/include_jni/jni.h"
  },
  {
   "alignment" : 4,
   "linker_set_key" : "_ZTIFvP7_JNIEnvP13_jdoubleArrayPdiE",
   "name" : "void (_JNIEnv *, _jdoubleArray *, double *, int)",
   "parameters" :
   [
    {
     "referenced_type" : "_ZTIP7_JNIEnv"
    },
    {
     "referenced_type" : "_ZTIP13_jdoubleArray"
    },
    {
     "referenced_type" : "_ZTIPd"
    },
    {
     "referenced_type" : "_ZTIi"
    }
   ],
   "referenced_type" : "_ZTIFvP7_JNIEnvP13_jdoubleArrayPdiE",
   "return_type" : "_ZTIv",
   "self_type" : "_ZTIFvP7_JNIEnvP13_jdoubleArrayPdiE",
   "source_file" : "/libnativehelper/include_jni/jni.h"
  },
  {
   "alignment" : 4,
   "linker_set_key" : "_ZTIFvP7_JNIEnvP13_jdoubleArrayiiPKdE",
   "name" : "void (_JNIEnv *, _jdoubleArray *, int, int, const double *)",
   "parameters" :
   [
    {
     "referenced_type" : "_ZTIP7_JNIEnv"
    },
    {
     "referenced_type" : "_ZTIP13_jdoubleArray"
    },
    {
     "referenced_type" : "_ZTIi"
    },
    {
     "referenced_type" : "_ZTIi"
    },
    {
     "referenced_type" : "_ZTIPKd"
    }
   ],
   "referenced_type" : "_ZTIFvP7_JNIEnvP13_jdoubleArrayiiPKdE",
   "return_type" : "_ZTIv",
   "self_type" : "_ZTIFvP7_JNIEnvP13_jdoubleArrayiiPKdE",
   "source_file" : "/libnativehelper/include_jni/jni.h"
  },
  {
   "alignment" : 4,
   "linker_set_key" : "_ZTIFvP7_JNIEnvP13_jdoubleArrayiiPdE",
   "name" : "void (_JNIEnv *, _jdoubleArray *, int, int, double *)",
   "parameters" :
   [
    {
     "referenced_type" : "_ZTIP7_JNIEnv"
    },
    {
     "referenced_type" : "_ZTIP13_jdoubleArray"
    },
    {
     "referenced_type" : "_ZTIi"
    },
    {
     "referenced_type" : "_ZTIi"
    },
    {
     "referenced_type" : "_ZTIPd"
    }
   ],
   "referenced_type" : "_ZTIFvP7_JNIEnvP13_jdoubleArrayiiPdE",
   "return_type" : "_ZTIv",
   "self_type" : "_ZTIFvP7_JNIEnvP13_jdoubleArrayiiPdE",
   "source_file" : "/libnativehelper/include_jni/jni.h"
  },
  {
   "alignment" : 4,
   "linker_set_key" : "_ZTIFvP7_JNIEnvP13_jobjectArrayiP8_jobjectE",
   "name" : "void (_JNIEnv *, _jobjectArray *, int, _jobject *)",
   "parameters" :
   [
    {
     "referenced_type" : "_ZTIP7_JNIEnv"
    },
    {
     "referenced_type" : "_ZTIP13_jobjectArray"
    },
    {
     "referenced_type" : "_ZTIi"
    },
    {
     "referenced_type" : "_ZTIP8_jobject"
    }
   ],
   "referenced_type" : "_ZTIFvP7_JNIEnvP13_jobjectArrayiP8_jobjectE",
   "return_type" : "_ZTIv",
   "self_type" : "_ZTIFvP7_JNIEnvP13_jobjectArrayiP8_jobjectE",
   "source_file" : "/libnativehelper/include_jni/jni.h"
  },
  {
   "alignment" : 4,
   "linker_set_key" : "_ZTIFvP7_JNIEnvP14_jbooleanArrayPhiE",
   "name" : "void (_JNIEnv *, _jbooleanArray *, unsigned char *, int)",
   "parameters" :
   [
    {
     "referenced_type" : "_ZTIP7_JNIEnv"
    },
    {
     "referenced_type" : "_ZTIP14_jbooleanArray"
    },
    {
     "referenced_type" : "_ZTIPh"
    },
    {
     "referenced_type" : "_ZTIi"
    }
   ],
   "referenced_type" : "_ZTIFvP7_JNIEnvP14_jbooleanArrayPhiE",
   "return_type" : "_ZTIv",
   "self_type" : "_ZTIFvP7_JNIEnvP14_jbooleanArrayPhiE",
   "source_file" : "/libnativehelper/include_jni/jni.h"
  },
  {
   "alignment" : 4,
   "linker_set_key" : "_ZTIFvP7_JNIEnvP14_jbooleanArrayiiPKhE",
   "name" : "void (_JNIEnv *, _jbooleanArray *, int, int, const unsigned char *)",
   "parameters" :
   [
    {
     "referenced_type" : "_ZTIP7_JNIEnv"
    },
    {
     "referenced_type" : "_ZTIP14_jbooleanArray"
    },
    {
     "referenced_type" : "_ZTIi"
    },
    {
     "referenced_type" : "_ZTIi"
    },
    {
     "referenced_type" : "_ZTIPKh"
    }
   ],
   "referenced_type" : "_ZTIFvP7_JNIEnvP14_jbooleanArrayiiPKhE",
   "return_type" : "_ZTIv",
   "self_type" : "_ZTIFvP7_JNIEnvP14_jbooleanArrayiiPKhE",
   "source_file" : "/libnativehelper/include_jni/jni.h"
  },
  {
   "alignment" : 4,
   "linker_set_key" : "_ZTIFvP7_JNIEnvP14_jbooleanArrayiiPhE",
   "name" : "void (_JNIEnv *, _jbooleanArray *, int, int, unsigned char *)",
   "parameters" :
   [
    {
     "referenced_type" : "_ZTIP7_JNIEnv"
    },
    {
     "referenced_type" : "_ZTIP14_jbooleanArray"
    },
    {
     "referenced_type" : "_ZTIi"
    },
    {
     "referenced_type" : "_ZTIi"
    },
    {
     "referenced_type" : "_ZTIPh"
    }
   ],
   "referenced_type" : "_ZTIFvP7_JNIEnvP14_jbooleanArrayiiPhE",
   "return_type" : "_ZTIv",
   "self_type" : "_ZTIFvP7_JNIEnvP14_jbooleanArrayiiPhE",
   "source_file" : "/libnativehelper/include_jni/jni.h"
  },
  {
   "alignment" : 4,
   "linker_set_key" : "_ZTIFvP7_JNIEnvP7_jarrayPviE",
   "name" : "void (_JNIEnv *, _jarray *, void *, int)",
   "parameters" :
   [
    {
     "referenced_type" : "_ZTIP7_JNIEnv"
    },
    {
     "referenced_type" : "_ZTIP7_jarray"
    },
    {
     "referenced_type" : "_ZTIPv"
    },
    {
     "referenced_type" : "_ZTIi"
    }
   ],
   "referenced_type" : "_ZTIFvP7_JNIEnvP7_jarrayPviE",
   "return_type" : "_ZTIv",
   "self_type" : "_ZTIFvP7_JNIEnvP7_jarrayPviE",
   "source_file" : "/libnativehelper/include_jni/jni.h"
  },
  {
   "alignment" : 4,
   "linker_set_key" : "_ZTIFvP7_JNIEnvP7_jclassP10_jmethodIDPK6jvalueE",
   "name" : "void (_JNIEnv *, _jclass *, _jmethodID *, const jvalue *)",
   "parameters" :
   [
    {
     "referenced_type" : "_ZTIP7_JNIEnv"
    },
    {
     "referenced_type" : "_ZTIP7_jclass"
    },
    {
     "referenced_type" : "_ZTIP10_jmethodID"
    },
    {
     "referenced_type" : "_ZTIPK6jvalue"
    }
   ],
   "referenced_type" : "_ZTIFvP7_JNIEnvP7_jclassP10_jmethodIDPK6jvalueE",
   "return_type" : "_ZTIv",
   "self_type" : "_ZTIFvP7_JNIEnvP7_jclassP10_jmethodIDPK6jvalueE",
   "source_file" : "/libnativehelper/include_jni/jni.h"
  },
  {
   "alignment" : 4,
   "linker_set_key" : "_ZTIFvP7_JNIEnvP7_jclassP10_jmethodIDSt9__va_listE",
   "name" : "void (_JNIEnv *, _jclass *, _jmethodID *, std::__va_list)",
   "parameters" :
   [
    {
     "referenced_type" : "_ZTIP7_JNIEnv"
    },
    {
     "referenced_type" : "_ZTIP7_jclass"
    },
    {
     "referenced_type" : "_ZTIP10_jmethodID"
    },
    {
     "referenced_type" : "_ZTISt9__va_list"
    }
   ],
   "referenced_type" : "_ZTIFvP7_JNIEnvP7_jclassP10_jmethodIDSt9__va_listE",
   "return_type" : "_ZTIv",
   "self_type" : "_ZTIFvP7_JNIEnvP7_jclassP10_jmethodIDSt9__va_listE",
   "source_file" : "/libnativehelper/include_jni/jni.h"
  },
  {
   "alignment" : 4,
   "linker_set_key" : "_ZTIFvP7_JNIEnvP7_jclassP10_jmethodIDzE",
   "name" : "void (_JNIEnv *, _jclass *, _jmethodID *, ...)",
   "parameters" :
   [
    {
     "referenced_type" : "_ZTIP7_JNIEnv"
    },
    {
     "referenced_type" : "_ZTIP7_jclass"
    },
    {
     "referenced_type" : "_ZTIP10_jmethodID"
    }
   ],
   "referenced_type" : "_ZTIFvP7_JNIEnvP7_jclassP10_jmethodIDzE",
   "return_type" : "_ZTIv",
   "self_type" : "_ZTIFvP7_JNIEnvP7_jclassP10_jmethodIDzE",
   "source_file" : "/libnativehelper/include_jni/jni.h"
  },
  {
   "alignment" : 4,
   "linker_set_key" : "_ZTIFvP7_JNIEnvP7_jclassP9_jfieldIDP8_jobjectE",
   "name" : "void (_JNIEnv *, _jclass *, _jfieldID *, _jobject *)",
   "parameters" :
   [
    {
     "referenced_type" : "_ZTIP7_JNIEnv"
    },
    {
     "referenced_type" : "_ZTIP7_jclass"
    },
    {
     "referenced_type" : "_ZTIP9_jfieldID"
    },
    {
     "referenced_type" : "_ZTIP8_jobject"
    }
   ],
   "referenced_type" : "_ZTIFvP7_JNIEnvP7_jclassP9_jfieldIDP8_jobjectE",
   "return_type" : "_ZTIv",
   "self_type" : "_ZTIFvP7_JNIEnvP7_jclassP9_jfieldIDP8_jobjectE",
   "source_file" : "/libnativehelper/include_jni/jni.h"
  },
  {
   "alignment" : 4,
   "linker_set_key" : "_ZTIFvP7_JNIEnvP7_jclassP9_jfieldIDaE",
   "name" : "void (_JNIEnv *, _jclass *, _jfieldID *, signed char)",
   "parameters" :
   [
    {
     "referenced_type" : "_ZTIP7_JNIEnv"
    },
    {
     "referenced_type" : "_ZTIP7_jclass"
    },
    {
     "referenced_type" : "_ZTIP9_jfieldID"
    },
    {
     "referenced_type" : "_ZTIa"
    }
   ],
   "referenced_type" : "_ZTIFvP7_JNIEnvP7_jclassP9_jfieldIDaE",
   "return_type" : "_ZTIv",
   "self_type" : "_ZTIFvP7_JNIEnvP7_jclassP9_jfieldIDaE",
   "source_file" : "/libnativehelper/include_jni/jni.h"
  },
  {
   "alignment" : 4,
   "linker_set_key" : "_ZTIFvP7_JNIEnvP7_jclassP9_jfieldIDdE",
   "name" : "void (_JNIEnv *, _jclass *, _jfieldID *, double)",
   "parameters" :
   [
    {
     "referenced_type" : "_ZTIP7_JNIEnv"
    },
    {
     "referenced_type" : "_ZTIP7_jclass"
    },
    {
     "referenced_type" : "_ZTIP9_jfieldID"
    },
    {
     "referenced_type" : "_ZTId"
    }
   ],
   "referenced_type" : "_ZTIFvP7_JNIEnvP7_jclassP9_jfieldIDdE",
   "return_type" : "_ZTIv",
   "self_type" : "_ZTIFvP7_JNIEnvP7_jclassP9_jfieldIDdE",
   "source_file" : "/libnativehelper/include_jni/jni.h"
  },
  {
   "alignment" : 4,
   "linker_set_key" : "_ZTIFvP7_JNIEnvP7_jclassP9_jfieldIDfE",
   "name" : "void (_JNIEnv *, _jclass *, _jfieldID *, float)",
   "parameters" :
   [
    {
     "referenced_type" : "_ZTIP7_JNIEnv"
    },
    {
     "referenced_type" : "_ZTIP7_jclass"
    },
    {
     "referenced_type" : "_ZTIP9_jfieldID"
    },
    {
     "referenced_type" : "_ZTIf"
    }
   ],
   "referenced_type" : "_ZTIFvP7_JNIEnvP7_jclassP9_jfieldIDfE",
   "return_type" : "_ZTIv",
   "self_type" : "_ZTIFvP7_JNIEnvP7_jclassP9_jfieldIDfE",
   "source_file" : "/libnativehelper/include_jni/jni.h"
  },
  {
   "alignment" : 4,
   "linker_set_key" : "_ZTIFvP7_JNIEnvP7_jclassP9_jfieldIDhE",
   "name" : "void (_JNIEnv *, _jclass *, _jfieldID *, unsigned char)",
   "parameters" :
   [
    {
     "referenced_type" : "_ZTIP7_JNIEnv"
    },
    {
     "referenced_type" : "_ZTIP7_jclass"
    },
    {
     "referenced_type" : "_ZTIP9_jfieldID"
    },
    {
     "referenced_type" : "_ZTIh"
    }
   ],
   "referenced_type" : "_ZTIFvP7_JNIEnvP7_jclassP9_jfieldIDhE",
   "return_type" : "_ZTIv",
   "self_type" : "_ZTIFvP7_JNIEnvP7_jclassP9_jfieldIDhE",
   "source_file" : "/libnativehelper/include_jni/jni.h"
  },
  {
   "alignment" : 4,
   "linker_set_key" : "_ZTIFvP7_JNIEnvP7_jclassP9_jfieldIDiE",
   "name" : "void (_JNIEnv *, _jclass *, _jfieldID *, int)",
   "parameters" :
   [
    {
     "referenced_type" : "_ZTIP7_JNIEnv"
    },
    {
     "referenced_type" : "_ZTIP7_jclass"
    },
    {
     "referenced_type" : "_ZTIP9_jfieldID"
    },
    {
     "referenced_type" : "_ZTIi"
    }
   ],
   "referenced_type" : "_ZTIFvP7_JNIEnvP7_jclassP9_jfieldIDiE",
   "return_type" : "_ZTIv",
   "self_type" : "_ZTIFvP7_JNIEnvP7_jclassP9_jfieldIDiE",
   "source_file" : "/libnativehelper/include_jni/jni.h"
  },
  {
   "alignment" : 4,
   "linker_set_key" : "_ZTIFvP7_JNIEnvP7_jclassP9_jfieldIDsE",
   "name" : "void (_JNIEnv *, _jclass *, _jfieldID *, short)",
   "parameters" :
   [
    {
     "referenced_type" : "_ZTIP7_JNIEnv"
    },
    {
     "referenced_type" : "_ZTIP7_jclass"
    },
    {
     "referenced_type" : "_ZTIP9_jfieldID"
    },
    {
     "referenced_type" : "_ZTIs"
    }
   ],
   "referenced_type" : "_ZTIFvP7_JNIEnvP7_jclassP9_jfieldIDsE",
   "return_type" : "_ZTIv",
   "self_type" : "_ZTIFvP7_JNIEnvP7_jclassP9_jfieldIDsE",
   "source_file" : "/libnativehelper/include_jni/jni.h"
  },
  {
   "alignment" : 4,
   "linker_set_key" : "_ZTIFvP7_JNIEnvP7_jclassP9_jfieldIDtE",
   "name" : "void (_JNIEnv *, _jclass *, _jfieldID *, unsigned short)",
   "parameters" :
   [
    {
     "referenced_type" : "_ZTIP7_JNIEnv"
    },
    {
     "referenced_type" : "_ZTIP7_jclass"
    },
    {
     "referenced_type" : "_ZTIP9_jfieldID"
    },
    {
     "referenced_type" : "_ZTIt"
    }
   ],
   "referenced_type" : "_ZTIFvP7_JNIEnvP7_jclassP9_jfieldIDtE",
   "return_type" : "_ZTIv",
   "self_type" : "_ZTIFvP7_JNIEnvP7_jclassP9_jfieldIDtE",
   "source_file" : "/libnativehelper/include_jni/jni.h"
  },
  {
   "alignment" : 4,
   "linker_set_key" : "_ZTIFvP7_JNIEnvP7_jclassP9_jfieldIDxE",
   "name" : "void (_JNIEnv *, _jclass *, _jfieldID *, long long)",
   "parameters" :
   [
    {
     "referenced_type" : "_ZTIP7_JNIEnv"
    },
    {
     "referenced_type" : "_ZTIP7_jclass"
    },
    {
     "referenced_type" : "_ZTIP9_jfieldID"
    },
    {
     "referenced_type" : "_ZTIx"
    }
   ],
   "referenced_type" : "_ZTIFvP7_JNIEnvP7_jclassP9_jfieldIDxE",
   "return_type" : "_ZTIv",
   "self_type" : "_ZTIFvP7_JNIEnvP7_jclassP9_jfieldIDxE",
   "source_file" : "/libnativehelper/include_jni/jni.h"
  },
  {
   "alignment" : 4,
   "linker_set_key" : "_ZTIFvP7_JNIEnvP8_jobjectE",
   "name" : "void (_JNIEnv *, _jobject *)",
   "parameters" :
   [
    {
     "referenced_type" : "_ZTIP7_JNIEnv"
    },
    {
     "referenced_type" : "_ZTIP8_jobject"
    }
   ],
   "referenced_type" : "_ZTIFvP7_JNIEnvP8_jobjectE",
   "return_type" : "_ZTIv",
   "self_type" : "_ZTIFvP7_JNIEnvP8_jobjectE",
   "source_file" : "/libnativehelper/include_jni/jni.h"
  },
  {
   "alignment" : 4,
   "linker_set_key" : "_ZTIFvP7_JNIEnvP8_jobjectP10_jmethodIDPK6jvalueE",
   "name" : "void (_JNIEnv *, _jobject *, _jmethodID *, const jvalue *)",
   "parameters" :
   [
    {
     "referenced_type" : "_ZTIP7_JNIEnv"
    },
    {
     "referenced_type" : "_ZTIP8_jobject"
    },
    {
     "referenced_type" : "_ZTIP10_jmethodID"
    },
    {
     "referenced_type" : "_ZTIPK6jvalue"
    }
   ],
   "referenced_type" : "_ZTIFvP7_JNIEnvP8_jobjectP10_jmethodIDPK6jvalueE",
   "return_type" : "_ZTIv",
   "self_type" : "_ZTIFvP7_JNIEnvP8_jobjectP10_jmethodIDPK6jvalueE",
   "source_file" : "/libnativehelper/include_jni/jni.h"
  },
  {
   "alignment" : 4,
   "linker_set_key" : "_ZTIFvP7_JNIEnvP8_jobjectP10_jmethodIDSt9__va_listE",
   "name" : "void (_JNIEnv *, _jobject *, _jmethodID *, std::__va_list)",
   "parameters" :
   [
    {
     "referenced_type" : "_ZTIP7_JNIEnv"
    },
    {
     "referenced_type" : "_ZTIP8_jobject"
    },
    {
     "referenced_type" : "_ZTIP10_jmethodID"
    },
    {
     "referenced_type" : "_ZTISt9__va_list"
    }
   ],
   "referenced_type" : "_ZTIFvP7_JNIEnvP8_jobjectP10_jmethodIDSt9__va_listE",
   "return_type" : "_ZTIv",
   "self_type" : "_ZTIFvP7_JNIEnvP8_jobjectP10_jmethodIDSt9__va_listE",
   "source_file" : "/libnativehelper/include_jni/jni.h"
  },
  {
   "alignment" : 4,
   "linker_set_key" : "_ZTIFvP7_JNIEnvP8_jobjectP10_jmethodIDzE",
   "name" : "void (_JNIEnv *, _jobject *, _jmethodID *, ...)",
   "parameters" :
   [
    {
     "referenced_type" : "_ZTIP7_JNIEnv"
    },
    {
     "referenced_type" : "_ZTIP8_jobject"
    },
    {
     "referenced_type" : "_ZTIP10_jmethodID"
    }
   ],
   "referenced_type" : "_ZTIFvP7_JNIEnvP8_jobjectP10_jmethodIDzE",
   "return_type" : "_ZTIv",
   "self_type" : "_ZTIFvP7_JNIEnvP8_jobjectP10_jmethodIDzE",
   "source_file" : "/libnativehelper/include_jni/jni.h"
  },
  {
   "alignment" : 4,
   "linker_set_key" : "_ZTIFvP7_JNIEnvP8_jobjectP7_jclassP10_jmethodIDPK6jvalueE",
   "name" : "void (_JNIEnv *, _jobject *, _jclass *, _jmethodID *, const jvalue *)",
   "parameters" :
   [
    {
     "referenced_type" : "_ZTIP7_JNIEnv"
    },
    {
     "referenced_type" : "_ZTIP8_jobject"
    },
    {
     "referenced_type" : "_ZTIP7_jclass"
    },
    {
     "referenced_type" : "_ZTIP10_jmethodID"
    },
    {
     "referenced_type" : "_ZTIPK6jvalue"
    }
   ],
   "referenced_type" : "_ZTIFvP7_JNIEnvP8_jobjectP7_jclassP10_jmethodIDPK6jvalueE",
   "return_type" : "_ZTIv",
   "self_type" : "_ZTIFvP7_JNIEnvP8_jobjectP7_jclassP10_jmethodIDPK6jvalueE",
   "source_file" : "/libnativehelper/include_jni/jni.h"
  },
  {
   "alignment" : 4,
   "linker_set_key" : "_ZTIFvP7_JNIEnvP8_jobjectP7_jclassP10_jmethodIDSt9__va_listE",
   "name" : "void (_JNIEnv *, _jobject *, _jclass *, _jmethodID *, std::__va_list)",
   "parameters" :
   [
    {
     "referenced_type" : "_ZTIP7_JNIEnv"
    },
    {
     "referenced_type" : "_ZTIP8_jobject"
    },
    {
     "referenced_type" : "_ZTIP7_jclass"
    },
    {
     "referenced_type" : "_ZTIP10_jmethodID"
    },
    {
     "referenced_type" : "_ZTISt9__va_list"
    }
   ],
   "referenced_type" : "_ZTIFvP7_JNIEnvP8_jobjectP7_jclassP10_jmethodIDSt9__va_listE",
   "return_type" : "_ZTIv",
   "self_type" : "_ZTIFvP7_JNIEnvP8_jobjectP7_jclassP10_jmethodIDSt9__va_listE",
   "source_file" : "/libnativehelper/include_jni/jni.h"
  },
  {
   "alignment" : 4,
   "linker_set_key" : "_ZTIFvP7_JNIEnvP8_jobjectP7_jclassP10_jmethodIDzE",
   "name" : "void (_JNIEnv *, _jobject *, _jclass *, _jmethodID *, ...)",
   "parameters" :
   [
    {
     "referenced_type" : "_ZTIP7_JNIEnv"
    },
    {
     "referenced_type" : "_ZTIP8_jobject"
    },
    {
     "referenced_type" : "_ZTIP7_jclass"
    },
    {
     "referenced_type" : "_ZTIP10_jmethodID"
    }
   ],
   "referenced_type" : "_ZTIFvP7_JNIEnvP8_jobjectP7_jclassP10_jmethodIDzE",
   "return_type" : "_ZTIv",
   "self_type" : "_ZTIFvP7_JNIEnvP8_jobjectP7_jclassP10_jmethodIDzE",
   "source_file" : "/libnativehelper/include_jni/jni.h"
  },
  {
   "alignment" : 4,
   "linker_set_key" : "_ZTIFvP7_JNIEnvP8_jobjectP9_jfieldIDS2_E",
   "name" : "void (_JNIEnv *, _jobject *, _jfieldID *, _jobject *)",
   "parameters" :
   [
    {
     "referenced_type" : "_ZTIP7_JNIEnv"
    },
    {
     "referenced_type" : "_ZTIP8_jobject"
    },
    {
     "referenced_type" : "_ZTIP9_jfieldID"
    },
    {
     "referenced_type" : "_ZTIP8_jobject"
    }
   ],
   "referenced_type" : "_ZTIFvP7_JNIEnvP8_jobjectP9_jfieldIDS2_E",
