{
 "array_types" :
 [
  {
   "alignment" : 8,
   "linker_set_key" : "_ZTIA16_12VkMemoryHeap",
   "name" : "VkMemoryHeap [16]",
   "referenced_type" : "_ZTI12VkMemoryHeap",
   "self_type" : "_ZTIA16_12VkMemoryHeap",
   "size" : 256,
   "source_file" : "/external/vulkan-headers/include/vulkan/vulkan_core.h"
  },
  {
   "alignment" : 1,
   "linker_set_key" : "_ZTIA16_h",
   "name" : "unsigned char [16]",
   "referenced_type" : "_ZTIh",
   "self_type" : "_ZTIA16_h",
   "size" : 16,
   "source_file" : "/external/vulkan-headers/include/vulkan/vulkan_core.h"
  },
  {
   "alignment" : 8,
   "linker_set_key" : "_ZTIA16_y",
   "name" : "unsigned long long [16]",
   "referenced_type" : "_ZTIy",
   "self_type" : "_ZTIA16_y",
   "size" : 128,
   "source_file" : "/external/vulkan-headers/include/vulkan/vulkan_core.h"
  },
  {
   "alignment" : 1,
   "linker_set_key" : "_ZTIA256_c",
   "name" : "char [256]",
   "referenced_type" : "_ZTIc",
   "self_type" : "_ZTIA256_c",
   "size" : 256,
   "source_file" : "/external/vulkan-headers/include/vulkan/vulkan_core.h"
  },
  {
   "alignment" : 4,
   "linker_set_key" : "_ZTIA2_10VkOffset3D",
   "name" : "VkOffset3D [2]",
   "referenced_type" : "_ZTI10VkOffset3D",
   "self_type" : "_ZTIA2_10VkOffset3D",
   "size" : 24,
   "source_file" : "/external/vulkan-headers/include/vulkan/vulkan_core.h"
  },
  {
   "alignment" : 4,
   "linker_set_key" : "_ZTIA2_f",
   "name" : "float [2]",
   "referenced_type" : "_ZTIf",
   "self_type" : "_ZTIA2_f",
   "size" : 8,
   "source_file" : "/external/vulkan-headers/include/vulkan/vulkan_core.h"
  },
  {
   "alignment" : 4,
   "linker_set_key" : "_ZTIA2_j",
   "name" : "unsigned int [2]",
   "referenced_type" : "_ZTIj",
   "self_type" : "_ZTIA2_j",
   "size" : 8,
   "source_file" : "/external/vulkan-headers/include/vulkan/vulkan_core.h"
  },
  {
   "alignment" : 4,
   "linker_set_key" : "_ZTIA32_12VkMemoryType",
   "name" : "VkMemoryType [32]",
   "referenced_type" : "_ZTI12VkMemoryType",
   "self_type" : "_ZTIA32_12VkMemoryType",
   "size" : 256,
   "source_file" : "/external/vulkan-headers/include/vulkan/vulkan_core.h"
  },
  {
   "alignment" : 4,
   "linker_set_key" : "_ZTIA32_P18VkPhysicalDevice_T",
   "name" : "VkPhysicalDevice_T *[32]",
   "referenced_type" : "_ZTIP18VkPhysicalDevice_T",
   "self_type" : "_ZTIA32_P18VkPhysicalDevice_T",
   "size" : 128,
   "source_file" : "/external/vulkan-headers/include/vulkan/vulkan_core.h"
  },
  {
   "alignment" : 4,
   "linker_set_key" : "_ZTIA32_j",
   "name" : "unsigned int [32]",
   "referenced_type" : "_ZTIj",
   "self_type" : "_ZTIA32_j",
   "size" : 128,
   "source_file" : "/external/vulkan-headers/include/vulkan/vulkan_core.h"
  },
  {
   "alignment" : 4,
   "linker_set_key" : "_ZTIA3_j",
   "name" : "unsigned int [3]",
   "referenced_type" : "_ZTIj",
   "self_type" : "_ZTIA3_j",
   "size" : 12,
   "source_file" : "/external/vulkan-headers/include/vulkan/vulkan_core.h"
  },
  {
   "alignment" : 4,
   "linker_set_key" : "_ZTIA4_f",
   "name" : "float [4]",
   "referenced_type" : "_ZTIf",
   "self_type" : "_ZTIA4_f",
   "size" : 16,
   "source_file" : "/external/vulkan-headers/include/vulkan/vulkan_core.h"
  },
  {
   "alignment" : 4,
   "linker_set_key" : "_ZTIA4_i",
   "name" : "int [4]",
   "referenced_type" : "_ZTIi",
   "self_type" : "_ZTIA4_i",
   "size" : 16,
   "source_file" : "/external/vulkan-headers/include/vulkan/vulkan_core.h"
  },
  {
   "alignment" : 4,
   "linker_set_key" : "_ZTIA4_j",
   "name" : "unsigned int [4]",
   "referenced_type" : "_ZTIj",
   "self_type" : "_ZTIA4_j",
   "size" : 16,
   "source_file" : "/external/vulkan-headers/include/vulkan/vulkan_core.h"
  },
  {
   "alignment" : 1,
   "linker_set_key" : "_ZTIA8_h",
   "name" : "unsigned char [8]",
   "referenced_type" : "_ZTIh",
   "self_type" : "_ZTIA8_h",
   "size" : 8,
   "source_file" : "/external/vulkan-headers/include/vulkan/vulkan_core.h"
  }
 ],
 "builtin_types" :
 [
  {
   "alignment" : 1,
   "is_integral" : true,
   "is_unsigned" : true,
   "linker_set_key" : "_ZTIc",
   "name" : "char",
   "referenced_type" : "_ZTIc",
   "self_type" : "_ZTIc",
   "size" : 1
  },
  {
   "alignment" : 8,
   "linker_set_key" : "_ZTId",
   "name" : "double",
   "referenced_type" : "_ZTId",
   "self_type" : "_ZTId",
   "size" : 8
  },
  {
   "alignment" : 4,
   "linker_set_key" : "_ZTIf",
   "name" : "float",
   "referenced_type" : "_ZTIf",
   "self_type" : "_ZTIf",
   "size" : 4
  },
  {
   "alignment" : 1,
   "is_integral" : true,
   "is_unsigned" : true,
   "linker_set_key" : "_ZTIh",
   "name" : "unsigned char",
   "referenced_type" : "_ZTIh",
   "self_type" : "_ZTIh",
   "size" : 1
  },
  {
   "alignment" : 4,
   "is_integral" : true,
   "linker_set_key" : "_ZTIi",
   "name" : "int",
   "referenced_type" : "_ZTIi",
   "self_type" : "_ZTIi",
   "size" : 4
  },
  {
   "alignment" : 4,
   "is_integral" : true,
   "is_unsigned" : true,
   "linker_set_key" : "_ZTIj",
   "name" : "unsigned int",
   "referenced_type" : "_ZTIj",
   "self_type" : "_ZTIj",
   "size" : 4
  },
  {
   "alignment" : 2,
   "is_integral" : true,
   "is_unsigned" : true,
   "linker_set_key" : "_ZTIt",
   "name" : "unsigned short",
   "referenced_type" : "_ZTIt",
   "self_type" : "_ZTIt",
   "size" : 2
  },
  {
   "linker_set_key" : "_ZTIv",
   "name" : "void",
   "referenced_type" : "_ZTIv",
   "self_type" : "_ZTIv"
  },
  {
   "alignment" : 8,
   "is_integral" : true,
   "linker_set_key" : "_ZTIx",
   "name" : "long long",
   "referenced_type" : "_ZTIx",
   "self_type" : "_ZTIx",
   "size" : 8
  },
  {
   "alignment" : 8,
   "is_integral" : true,
   "is_unsigned" : true,
   "linker_set_key" : "_ZTIy",
   "name" : "unsigned long long",
   "referenced_type" : "_ZTIy",
   "self_type" : "_ZTIy",
   "size" : 8
  }
 ],
 "elf_functions" :
 [
  {
   "name" : "android_convertGralloc0To1Usage"
  },
  {
   "name" : "android_convertGralloc1To0Usage"
  },
  {
   "name" : "vkAcquireNextImage2KHR"
  },
  {
   "name" : "vkAcquireNextImageKHR"
  },
  {
   "name" : "vkAllocateCommandBuffers"
  },
  {
   "name" : "vkAllocateDescriptorSets"
  },
  {
   "name" : "vkAllocateMemory"
  },
  {
   "name" : "vkBeginCommandBuffer"
  },
  {
   "name" : "vkBindBufferMemory"
  },
  {
   "name" : "vkBindBufferMemory2"
  },
  {
   "name" : "vkBindImageMemory"
  },
  {
   "name" : "vkBindImageMemory2"
  },
  {
   "name" : "vkCmdBeginQuery"
  },
  {
   "name" : "vkCmdBeginRenderPass"
  },
  {
   "name" : "vkCmdBindDescriptorSets"
  },
  {
   "name" : "vkCmdBindIndexBuffer"
  },
  {
   "name" : "vkCmdBindPipeline"
  },
  {
   "name" : "vkCmdBindVertexBuffers"
  },
  {
   "name" : "vkCmdBlitImage"
  },
  {
   "name" : "vkCmdClearAttachments"
  },
  {
   "name" : "vkCmdClearColorImage"
  },
  {
   "name" : "vkCmdClearDepthStencilImage"
  },
  {
   "name" : "vkCmdCopyBuffer"
  },
  {
   "name" : "vkCmdCopyBufferToImage"
  },
  {
   "name" : "vkCmdCopyImage"
  },
  {
   "name" : "vkCmdCopyImageToBuffer"
  },
  {
   "name" : "vkCmdCopyQueryPoolResults"
  },
  {
   "name" : "vkCmdDispatch"
  },
  {
   "name" : "vkCmdDispatchBase"
  },
  {
   "name" : "vkCmdDispatchIndirect"
  },
  {
   "name" : "vkCmdDraw"
  },
  {
   "name" : "vkCmdDrawIndexed"
  },
  {
   "name" : "vkCmdDrawIndexedIndirect"
  },
  {
   "name" : "vkCmdDrawIndirect"
  },
  {
   "name" : "vkCmdEndQuery"
  },
  {
   "name" : "vkCmdEndRenderPass"
  },
  {
   "name" : "vkCmdExecuteCommands"
  },
  {
   "name" : "vkCmdFillBuffer"
  },
  {
   "name" : "vkCmdNextSubpass"
  },
  {
   "name" : "vkCmdPipelineBarrier"
  },
  {
   "name" : "vkCmdPushConstants"
  },
  {
   "name" : "vkCmdResetEvent"
  },
  {
   "name" : "vkCmdResetQueryPool"
  },
  {
   "name" : "vkCmdResolveImage"
  },
  {
   "name" : "vkCmdSetBlendConstants"
  },
  {
   "name" : "vkCmdSetDepthBias"
  },
  {
   "name" : "vkCmdSetDepthBounds"
  },
  {
   "name" : "vkCmdSetDeviceMask"
  },
  {
   "name" : "vkCmdSetEvent"
  },
  {
   "name" : "vkCmdSetLineWidth"
  },
  {
   "name" : "vkCmdSetScissor"
  },
  {
   "name" : "vkCmdSetStencilCompareMask"
  },
  {
   "name" : "vkCmdSetStencilReference"
  },
  {
   "name" : "vkCmdSetStencilWriteMask"
  },
  {
   "name" : "vkCmdSetViewport"
  },
  {
   "name" : "vkCmdUpdateBuffer"
  },
  {
   "name" : "vkCmdWaitEvents"
  },
  {
   "name" : "vkCmdWriteTimestamp"
  },
  {
   "name" : "vkCreateAndroidSurfaceKHR"
  },
  {
   "name" : "vkCreateBuffer"
  },
  {
   "name" : "vkCreateBufferView"
  },
  {
   "name" : "vkCreateCommandPool"
  },
  {
   "name" : "vkCreateComputePipelines"
  },
  {
   "name" : "vkCreateDescriptorPool"
  },
  {
   "name" : "vkCreateDescriptorSetLayout"
  },
  {
   "name" : "vkCreateDescriptorUpdateTemplate"
  },
  {
   "name" : "vkCreateDevice"
  },
  {
   "name" : "vkCreateEvent"
  },
  {
   "name" : "vkCreateFence"
  },
  {
   "name" : "vkCreateFramebuffer"
  },
  {
   "name" : "vkCreateGraphicsPipelines"
  },
  {
   "name" : "vkCreateImage"
  },
  {
   "name" : "vkCreateImageView"
  },
  {
   "name" : "vkCreateInstance"
  },
  {
   "name" : "vkCreatePipelineCache"
  },
  {
   "name" : "vkCreatePipelineLayout"
  },
  {
   "name" : "vkCreateQueryPool"
  },
  {
   "name" : "vkCreateRenderPass"
  },
  {
   "name" : "vkCreateSampler"
  },
  {
   "name" : "vkCreateSamplerYcbcrConversion"
  },
  {
   "name" : "vkCreateSemaphore"
  },
  {
   "name" : "vkCreateShaderModule"
  },
  {
   "name" : "vkCreateSwapchainKHR"
  },
  {
   "name" : "vkDestroyBuffer"
  },
  {
   "name" : "vkDestroyBufferView"
  },
  {
   "name" : "vkDestroyCommandPool"
  },
  {
   "name" : "vkDestroyDescriptorPool"
  },
  {
   "name" : "vkDestroyDescriptorSetLayout"
  },
  {
   "name" : "vkDestroyDescriptorUpdateTemplate"
  },
  {
   "name" : "vkDestroyDevice"
  },
  {
   "name" : "vkDestroyEvent"
  },
  {
   "name" : "vkDestroyFence"
  },
  {
   "name" : "vkDestroyFramebuffer"
  },
  {
   "name" : "vkDestroyImage"
  },
  {
   "name" : "vkDestroyImageView"
  },
  {
   "name" : "vkDestroyInstance"
  },
  {
   "name" : "vkDestroyPipeline"
  },
  {
   "name" : "vkDestroyPipelineCache"
  },
  {
   "name" : "vkDestroyPipelineLayout"
  },
  {
   "name" : "vkDestroyQueryPool"
  },
  {
   "name" : "vkDestroyRenderPass"
  },
  {
   "name" : "vkDestroySampler"
  },
  {
   "name" : "vkDestroySamplerYcbcrConversion"
  },
  {
   "name" : "vkDestroySemaphore"
  },
  {
   "name" : "vkDestroyShaderModule"
  },
  {
   "name" : "vkDestroySurfaceKHR"
  },
  {
   "name" : "vkDestroySwapchainKHR"
  },
  {
   "name" : "vkDeviceWaitIdle"
  },
  {
   "name" : "vkEndCommandBuffer"
  },
  {
   "name" : "vkEnumerateDeviceExtensionProperties"
  },
  {
   "name" : "vkEnumerateDeviceLayerProperties"
  },
  {
   "name" : "vkEnumerateInstanceExtensionProperties"
  },
  {
   "name" : "vkEnumerateInstanceLayerProperties"
  },
  {
   "name" : "vkEnumerateInstanceVersion"
  },
  {
   "name" : "vkEnumeratePhysicalDeviceGroups"
  },
  {
   "name" : "vkEnumeratePhysicalDevices"
  },
  {
   "name" : "vkFlushMappedMemoryRanges"
  },
  {
   "name" : "vkFreeCommandBuffers"
  },
  {
   "name" : "vkFreeDescriptorSets"
  },
  {
   "name" : "vkFreeMemory"
  },
  {
   "name" : "vkGetAndroidHardwareBufferPropertiesANDROID"
  },
  {
   "name" : "vkGetBufferMemoryRequirements"
  },
  {
   "name" : "vkGetBufferMemoryRequirements2"
  },
  {
   "name" : "vkGetDescriptorSetLayoutSupport"
  },
  {
   "name" : "vkGetDeviceGroupPeerMemoryFeatures"
  },
  {
   "name" : "vkGetDeviceGroupPresentCapabilitiesKHR"
  },
  {
   "name" : "vkGetDeviceGroupSurfacePresentModesKHR"
  },
  {
   "name" : "vkGetDeviceMemoryCommitment"
  },
  {
   "name" : "vkGetDeviceProcAddr"
  },
  {
   "name" : "vkGetDeviceQueue"
  },
  {
   "name" : "vkGetDeviceQueue2"
  },
  {
   "name" : "vkGetEventStatus"
  },
  {
   "name" : "vkGetFenceStatus"
  },
  {
   "name" : "vkGetImageMemoryRequirements"
  },
  {
   "name" : "vkGetImageMemoryRequirements2"
  },
  {
   "name" : "vkGetImageSparseMemoryRequirements"
  },
  {
   "name" : "vkGetImageSparseMemoryRequirements2"
  },
  {
   "name" : "vkGetImageSubresourceLayout"
  },
  {
   "name" : "vkGetInstanceProcAddr"
  },
  {
   "name" : "vkGetMemoryAndroidHardwareBufferANDROID"
  },
  {
   "name" : "vkGetPhysicalDeviceExternalBufferProperties"
  },
  {
   "name" : "vkGetPhysicalDeviceExternalFenceProperties"
  },
  {
   "name" : "vkGetPhysicalDeviceExternalSemaphoreProperties"
  },
  {
   "name" : "vkGetPhysicalDeviceFeatures"
  },
  {
   "name" : "vkGetPhysicalDeviceFeatures2"
  },
  {
   "name" : "vkGetPhysicalDeviceFormatProperties"
  },
  {
   "name" : "vkGetPhysicalDeviceFormatProperties2"
  },
  {
   "name" : "vkGetPhysicalDeviceImageFormatProperties"
  },
  {
   "name" : "vkGetPhysicalDeviceImageFormatProperties2"
  },
  {
   "name" : "vkGetPhysicalDeviceMemoryProperties"
  },
  {
   "name" : "vkGetPhysicalDeviceMemoryProperties2"
  },
  {
   "name" : "vkGetPhysicalDevicePresentRectanglesKHR"
  },
  {
   "name" : "vkGetPhysicalDeviceProperties"
  },
  {
   "name" : "vkGetPhysicalDeviceProperties2"
  },
  {
   "name" : "vkGetPhysicalDeviceQueueFamilyProperties"
  },
  {
   "name" : "vkGetPhysicalDeviceQueueFamilyProperties2"
  },
  {
   "name" : "vkGetPhysicalDeviceSparseImageFormatProperties"
  },
  {
   "name" : "vkGetPhysicalDeviceSparseImageFormatProperties2"
  },
  {
   "name" : "vkGetPhysicalDeviceSurfaceCapabilitiesKHR"
  },
  {
   "name" : "vkGetPhysicalDeviceSurfaceFormatsKHR"
  },
  {
   "name" : "vkGetPhysicalDeviceSurfacePresentModesKHR"
  },
  {
   "name" : "vkGetPhysicalDeviceSurfaceSupportKHR"
  },
  {
   "name" : "vkGetPipelineCacheData"
  },
  {
   "name" : "vkGetQueryPoolResults"
  },
  {
   "name" : "vkGetRenderAreaGranularity"
  },
  {
   "name" : "vkGetSwapchainImagesKHR"
  },
  {
   "name" : "vkInvalidateMappedMemoryRanges"
  },
  {
   "name" : "vkMapMemory"
  },
  {
   "name" : "vkMergePipelineCaches"
  },
  {
   "name" : "vkQueueBindSparse"
  },
  {
   "name" : "vkQueuePresentKHR"
  },
  {
   "name" : "vkQueueSubmit"
  },
  {
   "name" : "vkQueueWaitIdle"
  },
  {
   "name" : "vkResetCommandBuffer"
  },
  {
   "name" : "vkResetCommandPool"
  },
  {
   "name" : "vkResetDescriptorPool"
  },
  {
   "name" : "vkResetEvent"
  },
  {
   "name" : "vkResetFences"
  },
  {
   "name" : "vkSetEvent"
  },
  {
   "name" : "vkTrimCommandPool"
  },
  {
   "name" : "vkUnmapMemory"
  },
  {
   "name" : "vkUpdateDescriptorSetWithTemplate"
  },
  {
   "name" : "vkUpdateDescriptorSets"
  },
  {
   "name" : "vkWaitForFences"
  }
 ],
 "elf_objects" :
 [
  {
   "binding" : "weak",
   "name" : "_ZTCNSt3__118basic_stringstreamIcNS_11char_traitsIcEENS_9allocatorIcEEEE0_NS_13basic_istreamIcS2_EE"
  },
  {
   "binding" : "weak",
   "name" : "_ZTCNSt3__118basic_stringstreamIcNS_11char_traitsIcEENS_9allocatorIcEEEE0_NS_14basic_iostreamIcS2_EE"
  },
  {
   "binding" : "weak",
   "name" : "_ZTCNSt3__118basic_stringstreamIcNS_11char_traitsIcEENS_9allocatorIcEEEE8_NS_13basic_ostreamIcS2_EE"
  },
  {
   "binding" : "weak",
   "name" : "_ZTTNSt3__118basic_stringstreamIcNS_11char_traitsIcEENS_9allocatorIcEEEE"
  },
  {
   "binding" : "weak",
   "name" : "_ZTVNSt3__115basic_stringbufIcNS_11char_traitsIcEENS_9allocatorIcEEEE"
  },
  {
   "binding" : "weak",
   "name" : "_ZTVNSt3__118basic_stringstreamIcNS_11char_traitsIcEENS_9allocatorIcEEEE"
  }
 ],
 "enum_types" :
 [
  {
   "alignment" : 4,
   "enum_fields" :
   [
    {
     "enum_field_value" : 65537,
     "name" : "VK_VENDOR_ID_VIV"
    },
    {
     "enum_field_value" : 65538,
     "name" : "VK_VENDOR_ID_VSI"
    },
    {
     "enum_field_value" : 65539,
     "name" : "VK_VENDOR_ID_KAZAN"
    },
    {
     "enum_field_value" : 65537,
     "name" : "VK_VENDOR_ID_BEGIN_RANGE"
    },
    {
     "enum_field_value" : 65539,
     "name" : "VK_VENDOR_ID_END_RANGE"
    },
    {
     "enum_field_value" : 3,
     "name" : "VK_VENDOR_ID_RANGE_SIZE"
    },
    {
     "enum_field_value" : 2147483647,
     "name" : "VK_VENDOR_ID_MAX_ENUM"
    }
   ],
   "linker_set_key" : "_ZTI10VkVendorId",
   "name" : "VkVendorId",
   "referenced_type" : "_ZTI10VkVendorId",
   "self_type" : "_ZTI10VkVendorId",
   "size" : 4,
   "source_file" : "/external/vulkan-headers/include/vulkan/vulkan_core.h",
   "underlying_type" : "_ZTIj"
  },
  {
   "alignment" : 4,
   "enum_fields" :
   [
    {
     "enum_field_value" : 0,
     "name" : "VK_COMPARE_OP_NEVER"
    },
    {
     "enum_field_value" : 1,
     "name" : "VK_COMPARE_OP_LESS"
    },
    {
     "enum_field_value" : 2,
     "name" : "VK_COMPARE_OP_EQUAL"
    },
    {
     "enum_field_value" : 3,
     "name" : "VK_COMPARE_OP_LESS_OR_EQUAL"
    },
    {
     "enum_field_value" : 4,
     "name" : "VK_COMPARE_OP_GREATER"
    },
    {
     "enum_field_value" : 5,
     "name" : "VK_COMPARE_OP_NOT_EQUAL"
    },
    {
     "enum_field_value" : 6,
     "name" : "VK_COMPARE_OP_GREATER_OR_EQUAL"
    },
    {
     "enum_field_value" : 7,
     "name" : "VK_COMPARE_OP_ALWAYS"
    },
    {
     "enum_field_value" : 0,
     "name" : "VK_COMPARE_OP_BEGIN_RANGE"
    },
    {
     "enum_field_value" : 7,
     "name" : "VK_COMPARE_OP_END_RANGE"
    },
    {
     "enum_field_value" : 8,
     "name" : "VK_COMPARE_OP_RANGE_SIZE"
    },
    {
     "enum_field_value" : 2147483647,
     "name" : "VK_COMPARE_OP_MAX_ENUM"
    }
   ],
   "linker_set_key" : "_ZTI11VkCompareOp",
   "name" : "VkCompareOp",
   "referenced_type" : "_ZTI11VkCompareOp",
   "self_type" : "_ZTI11VkCompareOp",
   "size" : 4,
   "source_file" : "/external/vulkan-headers/include/vulkan/vulkan_core.h",
   "underlying_type" : "_ZTIj"
  },
  {
   "alignment" : 4,
   "enum_fields" :
   [
    {
     "enum_field_value" : 0,
     "name" : "VK_FRONT_FACE_COUNTER_CLOCKWISE"
    },
    {
     "enum_field_value" : 1,
     "name" : "VK_FRONT_FACE_CLOCKWISE"
    },
    {
     "enum_field_value" : 0,
     "name" : "VK_FRONT_FACE_BEGIN_RANGE"
    },
    {
     "enum_field_value" : 1,
     "name" : "VK_FRONT_FACE_END_RANGE"
    },
    {
     "enum_field_value" : 2,
     "name" : "VK_FRONT_FACE_RANGE_SIZE"
    },
    {
     "enum_field_value" : 2147483647,
     "name" : "VK_FRONT_FACE_MAX_ENUM"
    }
   ],
   "linker_set_key" : "_ZTI11VkFrontFace",
   "name" : "VkFrontFace",
   "referenced_type" : "_ZTI11VkFrontFace",
   "self_type" : "_ZTI11VkFrontFace",
   "size" : 4,
   "source_file" : "/external/vulkan-headers/include/vulkan/vulkan_core.h",
   "underlying_type" : "_ZTIj"
  },
  {
   "alignment" : 4,
   "enum_fields" :
   [
    {
     "enum_field_value" : 0,
     "name" : "VK_IMAGE_TYPE_1D"
    },
    {
     "enum_field_value" : 1,
     "name" : "VK_IMAGE_TYPE_2D"
    },
    {
     "enum_field_value" : 2,
     "name" : "VK_IMAGE_TYPE_3D"
    },
    {
     "enum_field_value" : 0,
     "name" : "VK_IMAGE_TYPE_BEGIN_RANGE"
    },
    {
     "enum_field_value" : 2,
     "name" : "VK_IMAGE_TYPE_END_RANGE"
    },
    {
     "enum_field_value" : 3,
     "name" : "VK_IMAGE_TYPE_RANGE_SIZE"
    },
    {
     "enum_field_value" : 2147483647,
     "name" : "VK_IMAGE_TYPE_MAX_ENUM"
    }
   ],
   "linker_set_key" : "_ZTI11VkImageType",
   "name" : "VkImageType",
   "referenced_type" : "_ZTI11VkImageType",
   "self_type" : "_ZTI11VkImageType",
   "size" : 4,
   "source_file" : "/external/vulkan-headers/include/vulkan/vulkan_core.h",
   "underlying_type" : "_ZTIj"
  },
  {
   "alignment" : 4,
   "enum_fields" :
   [
    {
     "enum_field_value" : 0,
     "name" : "VK_INDEX_TYPE_UINT16"
    },
    {
     "enum_field_value" : 1,
     "name" : "VK_INDEX_TYPE_UINT32"
    },
    {
     "enum_field_value" : 1000165000,
     "name" : "VK_INDEX_TYPE_NONE_NV"
    },
    {
     "enum_field_value" : 1000265000,
     "name" : "VK_INDEX_TYPE_UINT8_EXT"
    },
    {
     "enum_field_value" : 0,
     "name" : "VK_INDEX_TYPE_BEGIN_RANGE"
    },
    {
     "enum_field_value" : 1,
     "name" : "VK_INDEX_TYPE_END_RANGE"
    },
    {
     "enum_field_value" : 2,
     "name" : "VK_INDEX_TYPE_RANGE_SIZE"
    },
    {
     "enum_field_value" : 2147483647,
     "name" : "VK_INDEX_TYPE_MAX_ENUM"
    }
   ],
   "linker_set_key" : "_ZTI11VkIndexType",
   "name" : "VkIndexType",
   "referenced_type" : "_ZTI11VkIndexType",
   "self_type" : "_ZTI11VkIndexType",
   "size" : 4,
   "source_file" : "/external/vulkan-headers/include/vulkan/vulkan_core.h",
   "underlying_type" : "_ZTIj"
  },
  {
   "alignment" : 4,
   "enum_fields" :
   [
    {
     "enum_field_value" : 0,
     "name" : "VK_QUERY_TYPE_OCCLUSION"
    },
    {
     "enum_field_value" : 1,
     "name" : "VK_QUERY_TYPE_PIPELINE_STATISTICS"
    },
    {
     "enum_field_value" : 2,
     "name" : "VK_QUERY_TYPE_TIMESTAMP"
    },
    {
     "enum_field_value" : 1000028004,
     "name" : "VK_QUERY_TYPE_TRANSFORM_FEEDBACK_STREAM_EXT"
    },
    {
     "enum_field_value" : 1000165000,
     "name" : "VK_QUERY_TYPE_ACCELERATION_STRUCTURE_COMPACTED_SIZE_NV"
    },
    {
     "enum_field_value" : 1000210000,
     "name" : "VK_QUERY_TYPE_PERFORMANCE_QUERY_INTEL"
    },
    {
     "enum_field_value" : 0,
     "name" : "VK_QUERY_TYPE_BEGIN_RANGE"
    },
    {
     "enum_field_value" : 2,
     "name" : "VK_QUERY_TYPE_END_RANGE"
    },
    {
     "enum_field_value" : 3,
     "name" : "VK_QUERY_TYPE_RANGE_SIZE"
    },
    {
     "enum_field_value" : 2147483647,
     "name" : "VK_QUERY_TYPE_MAX_ENUM"
    }
   ],
   "linker_set_key" : "_ZTI11VkQueryType",
   "name" : "VkQueryType",
   "referenced_type" : "_ZTI11VkQueryType",
   "self_type" : "_ZTI11VkQueryType",
   "size" : 4,
   "source_file" : "/external/vulkan-headers/include/vulkan/vulkan_core.h",
   "underlying_type" : "_ZTIj"
  },
  {
   "alignment" : 4,
   "enum_fields" :
   [
    {
     "enum_field_value" : 0,
     "name" : "VK_STENCIL_OP_KEEP"
    },
    {
     "enum_field_value" : 1,
     "name" : "VK_STENCIL_OP_ZERO"
    },
    {
     "enum_field_value" : 2,
     "name" : "VK_STENCIL_OP_REPLACE"
    },
    {
     "enum_field_value" : 3,
     "name" : "VK_STENCIL_OP_INCREMENT_AND_CLAMP"
    },
    {
     "enum_field_value" : 4,
     "name" : "VK_STENCIL_OP_DECREMENT_AND_CLAMP"
    },
    {
     "enum_field_value" : 5,
     "name" : "VK_STENCIL_OP_INVERT"
    },
    {
     "enum_field_value" : 6,
     "name" : "VK_STENCIL_OP_INCREMENT_AND_WRAP"
    },
    {
     "enum_field_value" : 7,
     "name" : "VK_STENCIL_OP_DECREMENT_AND_WRAP"
    },
    {
     "enum_field_value" : 0,
     "name" : "VK_STENCIL_OP_BEGIN_RANGE"
    },
    {
     "enum_field_value" : 7,
     "name" : "VK_STENCIL_OP_END_RANGE"
    },
    {
     "enum_field_value" : 8,
     "name" : "VK_STENCIL_OP_RANGE_SIZE"
    },
    {
     "enum_field_value" : 2147483647,
     "name" : "VK_STENCIL_OP_MAX_ENUM"
    }
   ],
   "linker_set_key" : "_ZTI11VkStencilOp",
   "name" : "VkStencilOp",
   "referenced_type" : "_ZTI11VkStencilOp",
   "self_type" : "_ZTI11VkStencilOp",
   "size" : 4,
   "source_file" : "/external/vulkan-headers/include/vulkan/vulkan_core.h",
   "underlying_type" : "_ZTIj"
  },
  {
   "alignment" : 4,
   "enum_fields" :
   [
    {
     "enum_field_value" : 0,
     "name" : "VK_OBJECT_TYPE_UNKNOWN"
    },
    {
     "enum_field_value" : 1,
     "name" : "VK_OBJECT_TYPE_INSTANCE"
    },
    {
     "enum_field_value" : 2,
     "name" : "VK_OBJECT_TYPE_PHYSICAL_DEVICE"
    },
    {
     "enum_field_value" : 3,
     "name" : "VK_OBJECT_TYPE_DEVICE"
    },
    {
     "enum_field_value" : 4,
     "name" : "VK_OBJECT_TYPE_QUEUE"
    },
    {
     "enum_field_value" : 5,
     "name" : "VK_OBJECT_TYPE_SEMAPHORE"
    },
    {
     "enum_field_value" : 6,
     "name" : "VK_OBJECT_TYPE_COMMAND_BUFFER"
    },
    {
     "enum_field_value" : 7,
     "name" : "VK_OBJECT_TYPE_FENCE"
    },
    {
     "enum_field_value" : 8,
     "name" : "VK_OBJECT_TYPE_DEVICE_MEMORY"
    },
    {
     "enum_field_value" : 9,
     "name" : "VK_OBJECT_TYPE_BUFFER"
    },
    {
     "enum_field_value" : 10,
     "name" : "VK_OBJECT_TYPE_IMAGE"
    },
    {
     "enum_field_value" : 11,
     "name" : "VK_OBJECT_TYPE_EVENT"
    },
    {
     "enum_field_value" : 12,
     "name" : "VK_OBJECT_TYPE_QUERY_POOL"
    },
    {
     "enum_field_value" : 13,
     "name" : "VK_OBJECT_TYPE_BUFFER_VIEW"
    },
    {
     "enum_field_value" : 14,
     "name" : "VK_OBJECT_TYPE_IMAGE_VIEW"
    },
    {
     "enum_field_value" : 15,
     "name" : "VK_OBJECT_TYPE_SHADER_MODULE"
    },
    {
     "enum_field_value" : 16,
     "name" : "VK_OBJECT_TYPE_PIPELINE_CACHE"
    },
    {
     "enum_field_value" : 17,
     "name" : "VK_OBJECT_TYPE_PIPELINE_LAYOUT"
    },
    {
     "enum_field_value" : 18,
     "name" : "VK_OBJECT_TYPE_RENDER_PASS"
    },
    {
     "enum_field_value" : 19,
     "name" : "VK_OBJECT_TYPE_PIPELINE"
    },
    {
     "enum_field_value" : 20,
     "name" : "VK_OBJECT_TYPE_DESCRIPTOR_SET_LAYOUT"
    },
    {
     "enum_field_value" : 21,
     "name" : "VK_OBJECT_TYPE_SAMPLER"
    },
    {
     "enum_field_value" : 22,
     "name" : "VK_OBJECT_TYPE_DESCRIPTOR_POOL"
    },
    {
     "enum_field_value" : 23,
     "name" : "VK_OBJECT_TYPE_DESCRIPTOR_SET"
    },
    {
     "enum_field_value" : 24,
     "name" : "VK_OBJECT_TYPE_FRAMEBUFFER"
    },
    {
     "enum_field_value" : 25,
     "name" : "VK_OBJECT_TYPE_COMMAND_POOL"
    },
    {
     "enum_field_value" : 1000156000,
     "name" : "VK_OBJECT_TYPE_SAMPLER_YCBCR_CONVERSION"
    },
    {
     "enum_field_value" : 1000085000,
     "name" : "VK_OBJECT_TYPE_DESCRIPTOR_UPDATE_TEMPLATE"
    },
    {
     "enum_field_value" : 1000000000,
     "name" : "VK_OBJECT_TYPE_SURFACE_KHR"
    },
    {
     "enum_field_value" : 1000001000,
     "name" : "VK_OBJECT_TYPE_SWAPCHAIN_KHR"
    },
    {
     "enum_field_value" : 1000002000,
     "name" : "VK_OBJECT_TYPE_DISPLAY_KHR"
    },
    {
     "enum_field_value" : 1000002001,
     "name" : "VK_OBJECT_TYPE_DISPLAY_MODE_KHR"
    },
    {
     "enum_field_value" : 1000011000,
     "name" : "VK_OBJECT_TYPE_DEBUG_REPORT_CALLBACK_EXT"
    },
    {
     "enum_field_value" : 1000086000,
     "name" : "VK_OBJECT_TYPE_OBJECT_TABLE_NVX"
    },
    {
     "enum_field_value" : 1000086001,
     "name" : "VK_OBJECT_TYPE_INDIRECT_COMMANDS_LAYOUT_NVX"
    },
    {
     "enum_field_value" : 1000128000,
     "name" : "VK_OBJECT_TYPE_DEBUG_UTILS_MESSENGER_EXT"
    },
    {
     "enum_field_value" : 1000160000,
     "name" : "VK_OBJECT_TYPE_VALIDATION_CACHE_EXT"
    },
    {
     "enum_field_value" : 1000165000,
     "name" : "VK_OBJECT_TYPE_ACCELERATION_STRUCTURE_NV"
    },
    {
     "enum_field_value" : 1000210000,
     "name" : "VK_OBJECT_TYPE_PERFORMANCE_CONFIGURATION_INTEL"
    },
    {
     "enum_field_value" : 1000085000,
     "name" : "VK_OBJECT_TYPE_DESCRIPTOR_UPDATE_TEMPLATE_KHR"
    },
    {
     "enum_field_value" : 1000156000,
     "name" : "VK_OBJECT_TYPE_SAMPLER_YCBCR_CONVERSION_KHR"
    },
    {
     "enum_field_value" : 0,
     "name" : "VK_OBJECT_TYPE_BEGIN_RANGE"
    },
    {
     "enum_field_value" : 25,
     "name" : "VK_OBJECT_TYPE_END_RANGE"
    },
    {
     "enum_field_value" : 26,
     "name" : "VK_OBJECT_TYPE_RANGE_SIZE"
    },
    {
     "enum_field_value" : 2147483647,
     "name" : "VK_OBJECT_TYPE_MAX_ENUM"
    }
   ],
   "linker_set_key" : "_ZTI12VkObjectType",
   "name" : "VkObjectType",
   "referenced_type" : "_ZTI12VkObjectType",
   "self_type" : "_ZTI12VkObjectType",
   "size" : 4,
   "source_file" : "/external/vulkan-headers/include/vulkan/vulkan_core.h",
   "underlying_type" : "_ZTIj"
  },
  {
   "alignment" : 4,
   "enum_fields" :
   [
    {
     "enum_field_value" : 0,
     "name" : "VK_BLEND_FACTOR_ZERO"
    },
    {
     "enum_field_value" : 1,
     "name" : "VK_BLEND_FACTOR_ONE"
    },
    {
     "enum_field_value" : 2,
     "name" : "VK_BLEND_FACTOR_SRC_COLOR"
    },
    {
     "enum_field_value" : 3,
     "name" : "VK_BLEND_FACTOR_ONE_MINUS_SRC_COLOR"
    },
    {
     "enum_field_value" : 4,
     "name" : "VK_BLEND_FACTOR_DST_COLOR"
    },
    {
     "enum_field_value" : 5,
     "name" : "VK_BLEND_FACTOR_ONE_MINUS_DST_COLOR"
    },
    {
     "enum_field_value" : 6,
     "name" : "VK_BLEND_FACTOR_SRC_ALPHA"
    },
    {
     "enum_field_value" : 7,
     "name" : "VK_BLEND_FACTOR_ONE_MINUS_SRC_ALPHA"
    },
    {
     "enum_field_value" : 8,
     "name" : "VK_BLEND_FACTOR_DST_ALPHA"
    },
    {
     "enum_field_value" : 9,
     "name" : "VK_BLEND_FACTOR_ONE_MINUS_DST_ALPHA"
    },
    {
     "enum_field_value" : 10,
     "name" : "VK_BLEND_FACTOR_CONSTANT_COLOR"
    },
    {
     "enum_field_value" : 11,
     "name" : "VK_BLEND_FACTOR_ONE_MINUS_CONSTANT_COLOR"
    },
    {
     "enum_field_value" : 12,
     "name" : "VK_BLEND_FACTOR_CONSTANT_ALPHA"
    },
    {
     "enum_field_value" : 13,
     "name" : "VK_BLEND_FACTOR_ONE_MINUS_CONSTANT_ALPHA"
    },
    {
     "enum_field_value" : 14,
     "name" : "VK_BLEND_FACTOR_SRC_ALPHA_SATURATE"
    },
    {
     "enum_field_value" : 15,
     "name" : "VK_BLEND_FACTOR_SRC1_COLOR"
    },
    {
     "enum_field_value" : 16,
     "name" : "VK_BLEND_FACTOR_ONE_MINUS_SRC1_COLOR"
    },
    {
     "enum_field_value" : 17,
     "name" : "VK_BLEND_FACTOR_SRC1_ALPHA"
    },
    {
     "enum_field_value" : 18,
     "name" : "VK_BLEND_FACTOR_ONE_MINUS_SRC1_ALPHA"
    },
    {
     "enum_field_value" : 0,
     "name" : "VK_BLEND_FACTOR_BEGIN_RANGE"
    },
    {
     "enum_field_value" : 18,
     "name" : "VK_BLEND_FACTOR_END_RANGE"
    },
    {
     "enum_field_value" : 19,
     "name" : "VK_BLEND_FACTOR_RANGE_SIZE"
    },
    {
     "enum_field_value" : 2147483647,
     "name" : "VK_BLEND_FACTOR_MAX_ENUM"
    }
   ],
   "linker_set_key" : "_ZTI13VkBlendFactor",
   "name" : "VkBlendFactor",
   "referenced_type" : "_ZTI13VkBlendFactor",
   "self_type" : "_ZTI13VkBlendFactor",
   "size" : 4,
   "source_file" : "/external/vulkan-headers/include/vulkan/vulkan_core.h",
   "underlying_type" : "_ZTIj"
  },
  {
   "alignment" : 4,
   "enum_fields" :
   [
    {
     "enum_field_value" : 0,
     "name" : "VK_BORDER_COLOR_FLOAT_TRANSPARENT_BLACK"
    },
    {
     "enum_field_value" : 1,
     "name" : "VK_BORDER_COLOR_INT_TRANSPARENT_BLACK"
    },
    {
     "enum_field_value" : 2,
     "name" : "VK_BORDER_COLOR_FLOAT_OPAQUE_BLACK"
    },
    {
     "enum_field_value" : 3,
     "name" : "VK_BORDER_COLOR_INT_OPAQUE_BLACK"
    },
    {
     "enum_field_value" : 4,
     "name" : "VK_BORDER_COLOR_FLOAT_OPAQUE_WHITE"
    },
    {
     "enum_field_value" : 5,
     "name" : "VK_BORDER_COLOR_INT_OPAQUE_WHITE"
    },
    {
     "enum_field_value" : 0,
     "name" : "VK_BORDER_COLOR_BEGIN_RANGE"
    },
    {
     "enum_field_value" : 5,
     "name" : "VK_BORDER_COLOR_END_RANGE"
    },
    {
     "enum_field_value" : 6,
     "name" : "VK_BORDER_COLOR_RANGE_SIZE"
    },
    {
     "enum_field_value" : 2147483647,
     "name" : "VK_BORDER_COLOR_MAX_ENUM"
    }
   ],
   "linker_set_key" : "_ZTI13VkBorderColor",
   "name" : "VkBorderColor",
   "referenced_type" : "_ZTI13VkBorderColor",
   "self_type" : "_ZTI13VkBorderColor",
   "size" : 4,
   "source_file" : "/external/vulkan-headers/include/vulkan/vulkan_core.h",
   "underlying_type" : "_ZTIj"
  },
  {
   "alignment" : 4,
   "enum_fields" :
   [
    {
     "enum_field_value" : 1,
     "name" : "VK_DRIVER_ID_AMD_PROPRIETARY_KHR"
    },
    {
     "enum_field_value" : 2,
     "name" : "VK_DRIVER_ID_AMD_OPEN_SOURCE_KHR"
    },
    {
     "enum_field_value" : 3,
     "name" : "VK_DRIVER_ID_MESA_RADV_KHR"
    },
    {
     "enum_field_value" : 4,
     "name" : "VK_DRIVER_ID_NVIDIA_PROPRIETARY_KHR"
    },
    {
     "enum_field_value" : 5,
     "name" : "VK_DRIVER_ID_INTEL_PROPRIETARY_WINDOWS_KHR"
    },
    {
     "enum_field_value" : 6,
     "name" : "VK_DRIVER_ID_INTEL_OPEN_SOURCE_MESA_KHR"
    },
    {
     "enum_field_value" : 7,
     "name" : "VK_DRIVER_ID_IMAGINATION_PROPRIETARY_KHR"
    },
    {
     "enum_field_value" : 8,
     "name" : "VK_DRIVER_ID_QUALCOMM_PROPRIETARY_KHR"
    },
    {
     "enum_field_value" : 9,
     "name" : "VK_DRIVER_ID_ARM_PROPRIETARY_KHR"
    },
    {
     "enum_field_value" : 10,
     "name" : "VK_DRIVER_ID_GOOGLE_SWIFTSHADER_KHR"
    },
    {
     "enum_field_value" : 11,
     "name" : "VK_DRIVER_ID_GGP_PROPRIETARY_KHR"
    },
    {
     "enum_field_value" : 12,
     "name" : "VK_DRIVER_ID_BROADCOM_PROPRIETARY_KHR"
    },
    {
     "enum_field_value" : 1,
     "name" : "VK_DRIVER_ID_BEGIN_RANGE_KHR"
    },
    {
     "enum_field_value" : 12,
     "name" : "VK_DRIVER_ID_END_RANGE_KHR"
    },
    {
     "enum_field_value" : 12,
     "name" : "VK_DRIVER_ID_RANGE_SIZE_KHR"
    },
    {
     "enum_field_value" : 2147483647,
     "name" : "VK_DRIVER_ID_MAX_ENUM_KHR"
    }
   ],
   "linker_set_key" : "_ZTI13VkDriverIdKHR",
   "name" : "VkDriverIdKHR",
   "referenced_type" : "_ZTI13VkDriverIdKHR",
   "self_type" : "_ZTI13VkDriverIdKHR",
   "size" : 4,
   "source_file" : "/external/vulkan-headers/include/vulkan/vulkan_core.h",
   "underlying_type" : "_ZTIj"
  },
  {
   "alignment" : 4,
   "enum_fields" :
   [
    {
     "enum_field_value" : 0,
     "name" : "VK_IMAGE_LAYOUT_UNDEFINED"
    },
    {
     "enum_field_value" : 1,
     "name" : "VK_IMAGE_LAYOUT_GENERAL"
    },
    {
     "enum_field_value" : 2,
     "name" : "VK_IMAGE_LAYOUT_COLOR_ATTACHMENT_OPTIMAL"
    },
    {
     "enum_field_value" : 3,
     "name" : "VK_IMAGE_LAYOUT_DEPTH_STENCIL_ATTACHMENT_OPTIMAL"
    },
    {
     "enum_field_value" : 4,
     "name" : "VK_IMAGE_LAYOUT_DEPTH_STENCIL_READ_ONLY_OPTIMAL"
    },
    {
     "enum_field_value" : 5,
     "name" : "VK_IMAGE_LAYOUT_SHADER_READ_ONLY_OPTIMAL"
    },
    {
     "enum_field_value" : 6,
     "name" : "VK_IMAGE_LAYOUT_TRANSFER_SRC_OPTIMAL"
    },
    {
     "enum_field_value" : 7,
     "name" : "VK_IMAGE_LAYOUT_TRANSFER_DST_OPTIMAL"
    },
    {
     "enum_field_value" : 8,
     "name" : "VK_IMAGE_LAYOUT_PREINITIALIZED"
    },
    {
     "enum_field_value" : 1000117000,
     "name" : "VK_IMAGE_LAYOUT_DEPTH_READ_ONLY_STENCIL_ATTACHMENT_OPTIMAL"
    },
    {
     "enum_field_value" : 1000117001,
     "name" : "VK_IMAGE_LAYOUT_DEPTH_ATTACHMENT_STENCIL_READ_ONLY_OPTIMAL"
    },
    {
     "enum_field_value" : 1000001002,
     "name" : "VK_IMAGE_LAYOUT_PRESENT_SRC_KHR"
    },
    {
     "enum_field_value" : 1000111000,
     "name" : "VK_IMAGE_LAYOUT_SHARED_PRESENT_KHR"
    },
    {
     "enum_field_value" : 1000164003,
     "name" : "VK_IMAGE_LAYOUT_SHADING_RATE_OPTIMAL_NV"
    },
    {
     "enum_field_value" : 1000218000,
     "name" : "VK_IMAGE_LAYOUT_FRAGMENT_DENSITY_MAP_OPTIMAL_EXT"
    },
    {
     "enum_field_value" : 1000117000,
     "name" : "VK_IMAGE_LAYOUT_DEPTH_READ_ONLY_STENCIL_ATTACHMENT_OPTIMAL_KHR"
    },
    {
     "enum_field_value" : 1000117001,
     "name" : "VK_IMAGE_LAYOUT_DEPTH_ATTACHMENT_STENCIL_READ_ONLY_OPTIMAL_KHR"
    },
    {
     "enum_field_value" : 0,
     "name" : "VK_IMAGE_LAYOUT_BEGIN_RANGE"
    },
    {
     "enum_field_value" : 8,
     "name" : "VK_IMAGE_LAYOUT_END_RANGE"
    },
    {
     "enum_field_value" : 9,
     "name" : "VK_IMAGE_LAYOUT_RANGE_SIZE"
    },
    {
     "enum_field_value" : 2147483647,
     "name" : "VK_IMAGE_LAYOUT_MAX_ENUM"
    }
   ],
   "linker_set_key" : "_ZTI13VkImageLayout",
   "name" : "VkImageLayout",
   "referenced_type" : "_ZTI13VkImageLayout",
   "self_type" : "_ZTI13VkImageLayout",
   "size" : 4,
   "source_file" : "/external/vulkan-headers/include/vulkan/vulkan_core.h",
   "underlying_type" : "_ZTIj"
  },
  {
   "alignment" : 4,
   "enum_fields" :
   [
    {
     "enum_field_value" : 0,
     "name" : "VK_IMAGE_TILING_OPTIMAL"
    },
    {
     "enum_field_value" : 1,
     "name" : "VK_IMAGE_TILING_LINEAR"
    },
    {
     "enum_field_value" : 1000158000,
     "name" : "VK_IMAGE_TILING_DRM_FORMAT_MODIFIER_EXT"
    },
    {
     "enum_field_value" : 0,
     "name" : "VK_IMAGE_TILING_BEGIN_RANGE"
    },
    {
     "enum_field_value" : 1,
     "name" : "VK_IMAGE_TILING_END_RANGE"
    },
    {
     "enum_field_value" : 2,
     "name" : "VK_IMAGE_TILING_RANGE_SIZE"
    },
    {
     "enum_field_value" : 2147483647,
     "name" : "VK_IMAGE_TILING_MAX_ENUM"
    }
   ],
   "linker_set_key" : "_ZTI13VkImageTiling",
   "name" : "VkImageTiling",
   "referenced_type" : "_ZTI13VkImageTiling",
   "self_type" : "_ZTI13VkImageTiling",
   "size" : 4,
   "source_file" : "/external/vulkan-headers/include/vulkan/vulkan_core.h",
   "underlying_type" : "_ZTIj"
  },
  {
   "alignment" : 4,
   "enum_fields" :
   [
    {
     "enum_field_value" : 0,
     "name" : "VK_POLYGON_MODE_FILL"
    },
    {
     "enum_field_value" : 1,
     "name" : "VK_POLYGON_MODE_LINE"
    },
    {
     "enum_field_value" : 2,
     "name" : "VK_POLYGON_MODE_POINT"
    },
    {
     "enum_field_value" : 1000153000,
     "name" : "VK_POLYGON_MODE_FILL_RECTANGLE_NV"
    },
    {
     "enum_field_value" : 0,
     "name" : "VK_POLYGON_MODE_BEGIN_RANGE"
    },
    {
     "enum_field_value" : 2,
     "name" : "VK_POLYGON_MODE_END_RANGE"
    },
    {
     "enum_field_value" : 3,
     "name" : "VK_POLYGON_MODE_RANGE_SIZE"
    },
    {
     "enum_field_value" : 2147483647,
     "name" : "VK_POLYGON_MODE_MAX_ENUM"
    }
   ],
   "linker_set_key" : "_ZTI13VkPolygonMode",
   "name" : "VkPolygonMode",
   "referenced_type" : "_ZTI13VkPolygonMode",
   "self_type" : "_ZTI13VkPolygonMode",
   "size" : 4,
   "source_file" : "/external/vulkan-headers/include/vulkan/vulkan_core.h",
   "underlying_type" : "_ZTIj"
  },
  {
   "alignment" : 4,
   "enum_fields" :
   [
    {
     "enum_field_value" : 0,
     "name" : "VK_SHARING_MODE_EXCLUSIVE"
    },
    {
     "enum_field_value" : 1,
     "name" : "VK_SHARING_MODE_CONCURRENT"
    },
    {
     "enum_field_value" : 0,
     "name" : "VK_SHARING_MODE_BEGIN_RANGE"
    },
    {
     "enum_field_value" : 1,
     "name" : "VK_SHARING_MODE_END_RANGE"
    },
    {
     "enum_field_value" : 2,
     "name" : "VK_SHARING_MODE_RANGE_SIZE"
    },
    {
     "enum_field_value" : 2147483647,
     "name" : "VK_SHARING_MODE_MAX_ENUM"
    }
   ],
   "linker_set_key" : "_ZTI13VkSharingMode",
   "name" : "VkSharingMode",
   "referenced_type" : "_ZTI13VkSharingMode",
   "self_type" : "_ZTI13VkSharingMode",
   "size" : 4,
   "source_file" : "/external/vulkan-headers/include/vulkan/vulkan_core.h",
   "underlying_type" : "_ZTIj"
  },
  {
   "alignment" : 4,
   "enum_fields" :
   [
    {
     "enum_field_value" : 0,
     "name" : "VK_DYNAMIC_STATE_VIEWPORT"
    },
    {
     "enum_field_value" : 1,
     "name" : "VK_DYNAMIC_STATE_SCISSOR"
    },
    {
     "enum_field_value" : 2,
     "name" : "VK_DYNAMIC_STATE_LINE_WIDTH"
    },
    {
     "enum_field_value" : 3,
     "name" : "VK_DYNAMIC_STATE_DEPTH_BIAS"
    },
    {
     "enum_field_value" : 4,
     "name" : "VK_DYNAMIC_STATE_BLEND_CONSTANTS"
    },
    {
     "enum_field_value" : 5,
     "name" : "VK_DYNAMIC_STATE_DEPTH_BOUNDS"
    },
    {
     "enum_field_value" : 6,
     "name" : "VK_DYNAMIC_STATE_STENCIL_COMPARE_MASK"
    },
    {
     "enum_field_value" : 7,
     "name" : "VK_DYNAMIC_STATE_STENCIL_WRITE_MASK"
    },
    {
     "enum_field_value" : 8,
     "name" : "VK_DYNAMIC_STATE_STENCIL_REFERENCE"
    },
    {
     "enum_field_value" : 1000087000,
     "name" : "VK_DYNAMIC_STATE_VIEWPORT_W_SCALING_NV"
    },
    {
     "enum_field_value" : 1000099000,
     "name" : "VK_DYNAMIC_STATE_DISCARD_RECTANGLE_EXT"
    },
    {
     "enum_field_value" : 1000143000,
     "name" : "VK_DYNAMIC_STATE_SAMPLE_LOCATIONS_EXT"
    },
    {
     "enum_field_value" : 1000164004,
     "name" : "VK_DYNAMIC_STATE_VIEWPORT_SHADING_RATE_PALETTE_NV"
    },
    {
     "enum_field_value" : 1000164006,
     "name" : "VK_DYNAMIC_STATE_VIEWPORT_COARSE_SAMPLE_ORDER_NV"
    },
    {
     "enum_field_value" : 1000205001,
     "name" : "VK_DYNAMIC_STATE_EXCLUSIVE_SCISSOR_NV"
    },
    {
     "enum_field_value" : 1000259000,
     "name" : "VK_DYNAMIC_STATE_LINE_STIPPLE_EXT"
    },
    {
     "enum_field_value" : 0,
     "name" : "VK_DYNAMIC_STATE_BEGIN_RANGE"
    },
    {
     "enum_field_value" : 8,
     "name" : "VK_DYNAMIC_STATE_END_RANGE"
    },
    {
     "enum_field_value" : 9,
     "name" : "VK_DYNAMIC_STATE_RANGE_SIZE"
    },
    {
     "enum_field_value" : 2147483647,
     "name" : "VK_DYNAMIC_STATE_MAX_ENUM"
    }
   ],
   "linker_set_key" : "_ZTI14VkDynamicState",
   "name" : "VkDynamicState",
   "referenced_type" : "_ZTI14VkDynamicState",
   "self_type" : "_ZTI14VkDynamicState",
   "size" : 4,
   "source_file" : "/external/vulkan-headers/include/vulkan/vulkan_core.h",
   "underlying_type" : "_ZTIj"
  },
  {
   "alignment" : 4,
   "enum_fields" :
   [
    {
     "enum_field_value" : 0,
     "name" : "VK_COLOR_SPACE_SRGB_NONLINEAR_KHR"
    },
    {
     "enum_field_value" : 1000104001,
     "name" : "VK_COLOR_SPACE_DISPLAY_P3_NONLINEAR_EXT"
    },
    {
     "enum_field_value" : 1000104002,
     "name" : "VK_COLOR_SPACE_EXTENDED_SRGB_LINEAR_EXT"
    },
    {
     "enum_field_value" : 1000104003,
     "name" : "VK_COLOR_SPACE_DISPLAY_P3_LINEAR_EXT"
    },
    {
     "enum_field_value" : 1000104004,
     "name" : "VK_COLOR_SPACE_DCI_P3_NONLINEAR_EXT"
    },
    {
     "enum_field_value" : 1000104005,
     "name" : "VK_COLOR_SPACE_BT709_LINEAR_EXT"
    },
    {
     "enum_field_value" : 1000104006,
     "name" : "VK_COLOR_SPACE_BT709_NONLINEAR_EXT"
    },
    {
     "enum_field_value" : 1000104007,
     "name" : "VK_COLOR_SPACE_BT2020_LINEAR_EXT"
    },
    {
     "enum_field_value" : 1000104008,
     "name" : "VK_COLOR_SPACE_HDR10_ST2084_EXT"
    },
    {
     "enum_field_value" : 1000104009,
     "name" : "VK_COLOR_SPACE_DOLBYVISION_EXT"
    },
    {
     "enum_field_value" : 1000104010,
     "name" : "VK_COLOR_SPACE_HDR10_HLG_EXT"
    },
    {
     "enum_field_value" : 1000104011,
     "name" : "VK_COLOR_SPACE_ADOBERGB_LINEAR_EXT"
    },
    {
     "enum_field_value" : 1000104012,
     "name" : "VK_COLOR_SPACE_ADOBERGB_NONLINEAR_EXT"
    },
    {
     "enum_field_value" : 1000104013,
     "name" : "VK_COLOR_SPACE_PASS_THROUGH_EXT"
    },
    {
     "enum_field_value" : 1000104014,
     "name" : "VK_COLOR_SPACE_EXTENDED_SRGB_NONLINEAR_EXT"
    },
    {
     "enum_field_value" : 1000213000,
     "name" : "VK_COLOR_SPACE_DISPLAY_NATIVE_AMD"
    },
    {
     "enum_field_value" : 0,
     "name" : "VK_COLORSPACE_SRGB_NONLINEAR_KHR"
    },
    {
     "enum_field_value" : 1000104003,
     "name" : "VK_COLOR_SPACE_DCI_P3_LINEAR_EXT"
    },
    {
     "enum_field_value" : 0,
     "name" : "VK_COLOR_SPACE_BEGIN_RANGE_KHR"
    },
    {
     "enum_field_value" : 0,
     "name" : "VK_COLOR_SPACE_END_RANGE_KHR"
    },
    {
     "enum_field_value" : 1,
     "name" : "VK_COLOR_SPACE_RANGE_SIZE_KHR"
    },
    {
     "enum_field_value" : 2147483647,
     "name" : "VK_COLOR_SPACE_MAX_ENUM_KHR"
    }
   ],
   "linker_set_key" : "_ZTI15VkColorSpaceKHR",
   "name" : "VkColorSpaceKHR",
   "referenced_type" : "_ZTI15VkColorSpaceKHR",
   "self_type" : "_ZTI15VkColorSpaceKHR",
   "size" : 4,
   "source_file" : "/external/vulkan-headers/include/vulkan/vulkan_core.h",
   "underlying_type" : "_ZTIj"
  },
  {
   "alignment" : 4,
   "enum_fields" :
   [
    {
     "enum_field_value" : 0,
     "name" : "VK_IMAGE_VIEW_TYPE_1D"
    },
    {
     "enum_field_value" : 1,
     "name" : "VK_IMAGE_VIEW_TYPE_2D"
    },
    {
     "enum_field_value" : 2,
     "name" : "VK_IMAGE_VIEW_TYPE_3D"
    },
    {
     "enum_field_value" : 3,
     "name" : "VK_IMAGE_VIEW_TYPE_CUBE"
    },
    {
     "enum_field_value" : 4,
     "name" : "VK_IMAGE_VIEW_TYPE_1D_ARRAY"
    },
    {
     "enum_field_value" : 5,
     "name" : "VK_IMAGE_VIEW_TYPE_2D_ARRAY"
    },
    {
     "enum_field_value" : 6,
     "name" : "VK_IMAGE_VIEW_TYPE_CUBE_ARRAY"
    },
    {
     "enum_field_value" : 0,
     "name" : "VK_IMAGE_VIEW_TYPE_BEGIN_RANGE"
    },
    {
     "enum_field_value" : 6,
     "name" : "VK_IMAGE_VIEW_TYPE_END_RANGE"
    },
    {
     "enum_field_value" : 7,
     "name" : "VK_IMAGE_VIEW_TYPE_RANGE_SIZE"
    },
    {
     "enum_field_value" : 2147483647,
     "name" : "VK_IMAGE_VIEW_TYPE_MAX_ENUM"
    }
   ],
   "linker_set_key" : "_ZTI15VkImageViewType",
   "name" : "VkImageViewType",
   "referenced_type" : "_ZTI15VkImageViewType",
   "self_type" : "_ZTI15VkImageViewType",
   "size" : 4,
   "source_file" : "/external/vulkan-headers/include/vulkan/vulkan_core.h",
   "underlying_type" : "_ZTIj"
  },
  {
   "alignment" : 4,
   "enum_fields" :
   [
    {
     "enum_field_value" : 1,
     "name" : "VK_QUEUE_GRAPHICS_BIT"
    },
    {
     "enum_field_value" : 2,
     "name" : "VK_QUEUE_COMPUTE_BIT"
    },
    {
     "enum_field_value" : 4,
     "name" : "VK_QUEUE_TRANSFER_BIT"
    },
    {
     "enum_field_value" : 8,
     "name" : "VK_QUEUE_SPARSE_BINDING_BIT"
    },
    {
     "enum_field_value" : 16,
     "name" : "VK_QUEUE_PROTECTED_BIT"
    },
    {
     "enum_field_value" : 2147483647,
     "name" : "VK_QUEUE_FLAG_BITS_MAX_ENUM"
    }
   ],
   "linker_set_key" : "_ZTI15VkQueueFlagBits",
   "name" : "VkQueueFlagBits",
   "referenced_type" : "_ZTI15VkQueueFlagBits",
   "self_type" : "_ZTI15VkQueueFlagBits",
   "size" : 4,
   "source_file" : "/external/vulkan-headers/include/vulkan/vulkan_core.h",
   "underlying_type" : "_ZTIj"
  },
  {
   "alignment" : 4,
   "enum_fields" :
   [
    {
     "enum_field_value" : 0,
     "name" : "VK_STRUCTURE_TYPE_APPLICATION_INFO"
    },
    {
     "enum_field_value" : 1,
     "name" : "VK_STRUCTURE_TYPE_INSTANCE_CREATE_INFO"
    },
    {
     "enum_field_value" : 2,
     "name" : "VK_STRUCTURE_TYPE_DEVICE_QUEUE_CREATE_INFO"
    },
    {
     "enum_field_value" : 3,
     "name" : "VK_STRUCTURE_TYPE_DEVICE_CREATE_INFO"
    },
    {
     "enum_field_value" : 4,
     "name" : "VK_STRUCTURE_TYPE_SUBMIT_INFO"
    },
    {
     "enum_field_value" : 5,
     "name" : "VK_STRUCTURE_TYPE_MEMORY_ALLOCATE_INFO"
    },
    {
     "enum_field_value" : 6,
     "name" : "VK_STRUCTURE_TYPE_MAPPED_MEMORY_RANGE"
    },
    {
     "enum_field_value" : 7,
     "name" : "VK_STRUCTURE_TYPE_BIND_SPARSE_INFO"
    },
    {
     "enum_field_value" : 8,
     "name" : "VK_STRUCTURE_TYPE_FENCE_CREATE_INFO"
    },
    {
     "enum_field_value" : 9,
     "name" : "VK_STRUCTURE_TYPE_SEMAPHORE_CREATE_INFO"
    },
    {
     "enum_field_value" : 10,
     "name" : "VK_STRUCTURE_TYPE_EVENT_CREATE_INFO"
    },
    {
     "enum_field_value" : 11,
     "name" : "VK_STRUCTURE_TYPE_QUERY_POOL_CREATE_INFO"
    },
    {
     "enum_field_value" : 12,
     "name" : "VK_STRUCTURE_TYPE_BUFFER_CREATE_INFO"
    },
    {
     "enum_field_value" : 13,
     "name" : "VK_STRUCTURE_TYPE_BUFFER_VIEW_CREATE_INFO"
    },
    {
     "enum_field_value" : 14,
     "name" : "VK_STRUCTURE_TYPE_IMAGE_CREATE_INFO"
    },
    {
     "enum_field_value" : 15,
     "name" : "VK_STRUCTURE_TYPE_IMAGE_VIEW_CREATE_INFO"
    },
    {
     "enum_field_value" : 16,
     "name" : "VK_STRUCTURE_TYPE_SHADER_MODULE_CREATE_INFO"
    },
    {
     "enum_field_value" : 17,
     "name" : "VK_STRUCTURE_TYPE_PIPELINE_CACHE_CREATE_INFO"
    },
    {
     "enum_field_value" : 18,
     "name" : "VK_STRUCTURE_TYPE_PIPELINE_SHADER_STAGE_CREATE_INFO"
    },
    {
     "enum_field_value" : 19,
     "name" : "VK_STRUCTURE_TYPE_PIPELINE_VERTEX_INPUT_STATE_CREATE_INFO"
    },
    {
     "enum_field_value" : 20,
     "name" : "VK_STRUCTURE_TYPE_PIPELINE_INPUT_ASSEMBLY_STATE_CREATE_INFO"
    },
    {
     "enum_field_value" : 21,
     "name" : "VK_STRUCTURE_TYPE_PIPELINE_TESSELLATION_STATE_CREATE_INFO"
    },
    {
     "enum_field_value" : 22,
     "name" : "VK_STRUCTURE_TYPE_PIPELINE_VIEWPORT_STATE_CREATE_INFO"
    },
    {
     "enum_field_value" : 23,
     "name" : "VK_STRUCTURE_TYPE_PIPELINE_RASTERIZATION_STATE_CREATE_INFO"
    },
    {
     "enum_field_value" : 24,
     "name" : "VK_STRUCTURE_TYPE_PIPELINE_MULTISAMPLE_STATE_CREATE_INFO"
    },
    {
     "enum_field_value" : 25,
     "name" : "VK_STRUCTURE_TYPE_PIPELINE_DEPTH_STENCIL_STATE_CREATE_INFO"
    },
    {
     "enum_field_value" : 26,
     "name" : "VK_STRUCTURE_TYPE_PIPELINE_COLOR_BLEND_STATE_CREATE_INFO"
    },
    {
     "enum_field_value" : 27,
     "name" : "VK_STRUCTURE_TYPE_PIPELINE_DYNAMIC_STATE_CREATE_INFO"
    },
    {
     "enum_field_value" : 28,
     "name" : "VK_STRUCTURE_TYPE_GRAPHICS_PIPELINE_CREATE_INFO"
    },
    {
     "enum_field_value" : 29,
     "name" : "VK_STRUCTURE_TYPE_COMPUTE_PIPELINE_CREATE_INFO"
    },
    {
     "enum_field_value" : 30,
     "name" : "VK_STRUCTURE_TYPE_PIPELINE_LAYOUT_CREATE_INFO"
    },
    {
     "enum_field_value" : 31,
     "name" : "VK_STRUCTURE_TYPE_SAMPLER_CREATE_INFO"
    },
    {
     "enum_field_value" : 32,
     "name" : "VK_STRUCTURE_TYPE_DESCRIPTOR_SET_LAYOUT_CREATE_INFO"
    },
    {
     "enum_field_value" : 33,
     "name" : "VK_STRUCTURE_TYPE_DESCRIPTOR_POOL_CREATE_INFO"
    },
    {
     "enum_field_value" : 34,
     "name" : "VK_STRUCTURE_TYPE_DESCRIPTOR_SET_ALLOCATE_INFO"
    },
    {
     "enum_field_value" : 35,
     "name" : "VK_STRUCTURE_TYPE_WRITE_DESCRIPTOR_SET"
    },
    {
     "enum_field_value" : 36,
     "name" : "VK_STRUCTURE_TYPE_COPY_DESCRIPTOR_SET"
    },
    {
     "enum_field_value" : 37,
     "name" : "VK_STRUCTURE_TYPE_FRAMEBUFFER_CREATE_INFO"
    },
    {
     "enum_field_value" : 38,
     "name" : "VK_STRUCTURE_TYPE_RENDER_PASS_CREATE_INFO"
    },
    {
     "enum_field_value" : 39,
     "name" : "VK_STRUCTURE_TYPE_COMMAND_POOL_CREATE_INFO"
    },
    {
     "enum_field_value" : 40,
     "name" : "VK_STRUCTURE_TYPE_COMMAND_BUFFER_ALLOCATE_INFO"
    },
    {
     "enum_field_value" : 41,
     "name" : "VK_STRUCTURE_TYPE_COMMAND_BUFFER_INHERITANCE_INFO"
    },
    {
     "enum_field_value" : 42,
     "name" : "VK_STRUCTURE_TYPE_COMMAND_BUFFER_BEGIN_INFO"
    },
    {
     "enum_field_value" : 43,
     "name" : "VK_STRUCTURE_TYPE_RENDER_PASS_BEGIN_INFO"
    },
    {
     "enum_field_value" : 44,
     "name" : "VK_STRUCTURE_TYPE_BUFFER_MEMORY_BARRIER"
    },
    {
     "enum_field_value" : 45,
     "name" : "VK_STRUCTURE_TYPE_IMAGE_MEMORY_BARRIER"
    },
    {
     "enum_field_value" : 46,
     "name" : "VK_STRUCTURE_TYPE_MEMORY_BARRIER"
    },
    {
     "enum_field_value" : 47,
     "name" : "VK_STRUCTURE_TYPE_LOADER_INSTANCE_CREATE_INFO"
    },
    {
     "enum_field_value" : 48,
     "name" : "VK_STRUCTURE_TYPE_LOADER_DEVICE_CREATE_INFO"
    },
    {
     "enum_field_value" : 1000094000,
     "name" : "VK_STRUCTURE_TYPE_PHYSICAL_DEVICE_SUBGROUP_PROPERTIES"
    },
    {
     "enum_field_value" : 1000157000,
     "name" : "VK_STRUCTURE_TYPE_BIND_BUFFER_MEMORY_INFO"
    },
    {
     "enum_field_value" : 1000157001,
     "name" : "VK_STRUCTURE_TYPE_BIND_IMAGE_MEMORY_INFO"
    },
    {
     "enum_field_value" : 1000083000,
     "name" : "VK_STRUCTURE_TYPE_PHYSICAL_DEVICE_16BIT_STORAGE_FEATURES"
    },
    {
     "enum_field_value" : 1000127000,
     "name" : "VK_STRUCTURE_TYPE_MEMORY_DEDICATED_REQUIREMENTS"
    },
    {
     "enum_field_value" : 1000127001,
     "name" : "VK_STRUCTURE_TYPE_MEMORY_DEDICATED_ALLOCATE_INFO"
    },
    {
     "enum_field_value" : 1000060000,
     "name" : "VK_STRUCTURE_TYPE_MEMORY_ALLOCATE_FLAGS_INFO"
    },
    {
     "enum_field_value" : 1000060003,
     "name" : "VK_STRUCTURE_TYPE_DEVICE_GROUP_RENDER_PASS_BEGIN_INFO"
    },
    {
     "enum_field_value" : 1000060004,
     "name" : "VK_STRUCTURE_TYPE_DEVICE_GROUP_COMMAND_BUFFER_BEGIN_INFO"
    },
    {
     "enum_field_value" : 1000060005,
     "name" : "VK_STRUCTURE_TYPE_DEVICE_GROUP_SUBMIT_INFO"
    },
    {
     "enum_field_value" : 1000060006,
     "name" : "VK_STRUCTURE_TYPE_DEVICE_GROUP_BIND_SPARSE_INFO"
    },
    {
     "enum_field_value" : 1000060013,
     "name" : "VK_STRUCTURE_TYPE_BIND_BUFFER_MEMORY_DEVICE_GROUP_INFO"
    },
    {
     "enum_field_value" : 1000060014,
     "name" : "VK_STRUCTURE_TYPE_BIND_IMAGE_MEMORY_DEVICE_GROUP_INFO"
    },
    {
     "enum_field_value" : 1000070000,
     "name" : "VK_STRUCTURE_TYPE_PHYSICAL_DEVICE_GROUP_PROPERTIES"
    },
    {
     "enum_field_value" : 1000070001,
     "name" : "VK_STRUCTURE_TYPE_DEVICE_GROUP_DEVICE_CREATE_INFO"
    },
    {
     "enum_field_value" : 1000146000,
     "name" : "VK_STRUCTURE_TYPE_BUFFER_MEMORY_REQUIREMENTS_INFO_2"
    },
    {
     "enum_field_value" : 1000146001,
     "name" : "VK_STRUCTURE_TYPE_IMAGE_MEMORY_REQUIREMENTS_INFO_2"
    },
    {
     "enum_field_value" : 1000146002,
     "name" : "VK_STRUCTURE_TYPE_IMAGE_SPARSE_MEMORY_REQUIREMENTS_INFO_2"
    },
    {
     "enum_field_value" : 1000146003,
     "name" : "VK_STRUCTURE_TYPE_MEMORY_REQUIREMENTS_2"
    },
    {
     "enum_field_value" : 1000146004,
     "name" : "VK_STRUCTURE_TYPE_SPARSE_IMAGE_MEMORY_REQUIREMENTS_2"
    },
    {
     "enum_field_value" : 1000059000,
     "name" : "VK_STRUCTURE_TYPE_PHYSICAL_DEVICE_FEATURES_2"
    },
    {
     "enum_field_value" : 1000059001,
     "name" : "VK_STRUCTURE_TYPE_PHYSICAL_DEVICE_PROPERTIES_2"
    },
    {
     "enum_field_value" : 1000059002,
     "name" : "VK_STRUCTURE_TYPE_FORMAT_PROPERTIES_2"
    },
    {
     "enum_field_value" : 1000059003,
     "name" : "VK_STRUCTURE_TYPE_IMAGE_FORMAT_PROPERTIES_2"
    },
    {
     "enum_field_value" : 1000059004,
     "name" : "VK_STRUCTURE_TYPE_PHYSICAL_DEVICE_IMAGE_FORMAT_INFO_2"
    },
    {
     "enum_field_value" : 1000059005,
     "name" : "VK_STRUCTURE_TYPE_QUEUE_FAMILY_PROPERTIES_2"
    },
    {
     "enum_field_value" : 1000059006,
     "name" : "VK_STRUCTURE_TYPE_PHYSICAL_DEVICE_MEMORY_PROPERTIES_2"
    },
    {
     "enum_field_value" : 1000059007,
     "name" : "VK_STRUCTURE_TYPE_SPARSE_IMAGE_FORMAT_PROPERTIES_2"
    },
    {
     "enum_field_value" : 1000059008,
     "name" : "VK_STRUCTURE_TYPE_PHYSICAL_DEVICE_SPARSE_IMAGE_FORMAT_INFO_2"
    },
    {
     "enum_field_value" : 1000117000,
     "name" : "VK_STRUCTURE_TYPE_PHYSICAL_DEVICE_POINT_CLIPPING_PROPERTIES"
    },
    {
     "enum_field_value" : 1000117001,
     "name" : "VK_STRUCTURE_TYPE_RENDER_PASS_INPUT_ATTACHMENT_ASPECT_CREATE_INFO"
    },
    {
     "enum_field_value" : 1000117002,
     "name" : "VK_STRUCTURE_TYPE_IMAGE_VIEW_USAGE_CREATE_INFO"
    },
    {
     "enum_field_value" : 1000117003,
     "name" : "VK_STRUCTURE_TYPE_PIPELINE_TESSELLATION_DOMAIN_ORIGIN_STATE_CREATE_INFO"
    },
    {
     "enum_field_value" : 1000053000,
     "name" : "VK_STRUCTURE_TYPE_RENDER_PASS_MULTIVIEW_CREATE_INFO"
    },
    {
     "enum_field_value" : 1000053001,
     "name" : "VK_STRUCTURE_TYPE_PHYSICAL_DEVICE_MULTIVIEW_FEATURES"
    },
    {
     "enum_field_value" : 1000053002,
     "name" : "VK_STRUCTURE_TYPE_PHYSICAL_DEVICE_MULTIVIEW_PROPERTIES"
    },
    {
     "enum_field_value" : 1000120000,
     "name" : "VK_STRUCTURE_TYPE_PHYSICAL_DEVICE_VARIABLE_POINTERS_FEATURES"
    },
    {
     "enum_field_value" : 1000145000,
     "name" : "VK_STRUCTURE_TYPE_PROTECTED_SUBMIT_INFO"
    },
    {
     "enum_field_value" : 1000145001,
     "name" : "VK_STRUCTURE_TYPE_PHYSICAL_DEVICE_PROTECTED_MEMORY_FEATURES"
    },
    {
     "enum_field_value" : 1000145002,
     "name" : "VK_STRUCTURE_TYPE_PHYSICAL_DEVICE_PROTECTED_MEMORY_PROPERTIES"
    },
    {
     "enum_field_value" : 1000145003,
     "name" : "VK_STRUCTURE_TYPE_DEVICE_QUEUE_INFO_2"
    },
    {
     "enum_field_value" : 1000156000,
     "name" : "VK_STRUCTURE_TYPE_SAMPLER_YCBCR_CONVERSION_CREATE_INFO"
    },
    {
     "enum_field_value" : 1000156001,
     "name" : "VK_STRUCTURE_TYPE_SAMPLER_YCBCR_CONVERSION_INFO"
    },
    {
     "enum_field_value" : 1000156002,
     "name" : "VK_STRUCTURE_TYPE_BIND_IMAGE_PLANE_MEMORY_INFO"
    },
    {
     "enum_field_value" : 1000156003,
     "name" : "VK_STRUCTURE_TYPE_IMAGE_PLANE_MEMORY_REQUIREMENTS_INFO"
    },
    {
     "enum_field_value" : 1000156004,
     "name" : "VK_STRUCTURE_TYPE_PHYSICAL_DEVICE_SAMPLER_YCBCR_CONVERSION_FEATURES"
    },
    {
     "enum_field_value" : 1000156005,
     "name" : "VK_STRUCTURE_TYPE_SAMPLER_YCBCR_CONVERSION_IMAGE_FORMAT_PROPERTIES"
    },
    {
     "enum_field_value" : 1000085000,
     "name" : "VK_STRUCTURE_TYPE_DESCRIPTOR_UPDATE_TEMPLATE_CREATE_INFO"
    },
    {
     "enum_field_value" : 1000071000,
     "name" : "VK_STRUCTURE_TYPE_PHYSICAL_DEVICE_EXTERNAL_IMAGE_FORMAT_INFO"
    },
    {
     "enum_field_value" : 1000071001,
     "name" : "VK_STRUCTURE_TYPE_EXTERNAL_IMAGE_FORMAT_PROPERTIES"
    },
    {
     "enum_field_value" : 1000071002,
     "name" : "VK_STRUCTURE_TYPE_PHYSICAL_DEVICE_EXTERNAL_BUFFER_INFO"
    },
    {
     "enum_field_value" : 1000071003,
     "name" : "VK_STRUCTURE_TYPE_EXTERNAL_BUFFER_PROPERTIES"
    },
    {
     "enum_field_value" : 1000071004,
     "name" : "VK_STRUCTURE_TYPE_PHYSICAL_DEVICE_ID_PROPERTIES"
    },
    {
     "enum_field_value" : 1000072000,
     "name" : "VK_STRUCTURE_TYPE_EXTERNAL_MEMORY_BUFFER_CREATE_INFO"
    },
    {
     "enum_field_value" : 1000072001,
     "name" : "VK_STRUCTURE_TYPE_EXTERNAL_MEMORY_IMAGE_CREATE_INFO"
    },
    {
     "enum_field_value" : 1000072002,
     "name" : "VK_STRUCTURE_TYPE_EXPORT_MEMORY_ALLOCATE_INFO"
    },
    {
     "enum_field_value" : 1000112000,
     "name" : "VK_STRUCTURE_TYPE_PHYSICAL_DEVICE_EXTERNAL_FENCE_INFO"
    },
    {
     "enum_field_value" : 1000112001,
     "name" : "VK_STRUCTURE_TYPE_EXTERNAL_FENCE_PROPERTIES"
    },
    {
     "enum_field_value" : 1000113000,
     "name" : "VK_STRUCTURE_TYPE_EXPORT_FENCE_CREATE_INFO"
    },
    {
     "enum_field_value" : 1000077000,
     "name" : "VK_STRUCTURE_TYPE_EXPORT_SEMAPHORE_CREATE_INFO"
    },
    {
     "enum_field_value" : 1000076000,
     "name" : "VK_STRUCTURE_TYPE_PHYSICAL_DEVICE_EXTERNAL_SEMAPHORE_INFO"
    },
    {
     "enum_field_value" : 1000076001,
     "name" : "VK_STRUCTURE_TYPE_EXTERNAL_SEMAPHORE_PROPERTIES"
    },
    {
     "enum_field_value" : 1000168000,
     "name" : "VK_STRUCTURE_TYPE_PHYSICAL_DEVICE_MAINTENANCE_3_PROPERTIES"
    },
    {
     "enum_field_value" : 1000168001,
     "name" : "VK_STRUCTURE_TYPE_DESCRIPTOR_SET_LAYOUT_SUPPORT"
    },
    {
     "enum_field_value" : 1000063000,
     "name" : "VK_STRUCTURE_TYPE_PHYSICAL_DEVICE_SHADER_DRAW_PARAMETERS_FEATURES"
    },
    {
     "enum_field_value" : 1000001000,
     "name" : "VK_STRUCTURE_TYPE_SWAPCHAIN_CREATE_INFO_KHR"
    },
    {
     "enum_field_value" : 1000001001,
     "name" : "VK_STRUCTURE_TYPE_PRESENT_INFO_KHR"
    },
    {
     "enum_field_value" : 1000060007,
     "name" : "VK_STRUCTURE_TYPE_DEVICE_GROUP_PRESENT_CAPABILITIES_KHR"
    },
    {
     "enum_field_value" : 1000060008,
     "name" : "VK_STRUCTURE_TYPE_IMAGE_SWAPCHAIN_CREATE_INFO_KHR"
    },
    {
     "enum_field_value" : 1000060009,
     "name" : "VK_STRUCTURE_TYPE_BIND_IMAGE_MEMORY_SWAPCHAIN_INFO_KHR"
    },
    {
     "enum_field_value" : 1000060010,
     "name" : "VK_STRUCTURE_TYPE_ACQUIRE_NEXT_IMAGE_INFO_KHR"
    },
    {
     "enum_field_value" : 1000060011,
     "name" : "VK_STRUCTURE_TYPE_DEVICE_GROUP_PRESENT_INFO_KHR"
    },
    {
     "enum_field_value" : 1000060012,
     "name" : "VK_STRUCTURE_TYPE_DEVICE_GROUP_SWAPCHAIN_CREATE_INFO_KHR"
    },
    {
     "enum_field_value" : 1000002000,
     "name" : "VK_STRUCTURE_TYPE_DISPLAY_MODE_CREATE_INFO_KHR"
    },
    {
     "enum_field_value" : 1000002001,
     "name" : "VK_STRUCTURE_TYPE_DISPLAY_SURFACE_CREATE_INFO_KHR"
    },
    {
     "enum_field_value" : 1000003000,
     "name" : "VK_STRUCTURE_TYPE_DISPLAY_PRESENT_INFO_KHR"
    },
    {
     "enum_field_value" : 1000004000,
     "name" : "VK_STRUCTURE_TYPE_XLIB_SURFACE_CREATE_INFO_KHR"
    },
    {
     "enum_field_value" : 1000005000,
     "name" : "VK_STRUCTURE_TYPE_XCB_SURFACE_CREATE_INFO_KHR"
    },
    {
     "enum_field_value" : 1000006000,
     "name" : "VK_STRUCTURE_TYPE_WAYLAND_SURFACE_CREATE_INFO_KHR"
    },
    {
     "enum_field_value" : 1000008000,
     "name" : "VK_STRUCTURE_TYPE_ANDROID_SURFACE_CREATE_INFO_KHR"
    },
    {
     "enum_field_value" : 1000009000,
     "name" : "VK_STRUCTURE_TYPE_WIN32_SURFACE_CREATE_INFO_KHR"
    },
    {
     "enum_field_value" : 1000011000,
     "name" : "VK_STRUCTURE_TYPE_DEBUG_REPORT_CALLBACK_CREATE_INFO_EXT"
    },
    {
     "enum_field_value" : 1000018000,
     "name" : "VK_STRUCTURE_TYPE_PIPELINE_RASTERIZATION_STATE_RASTERIZATION_ORDER_AMD"
    },
    {
     "enum_field_value" : 1000022000,
     "name" : "VK_STRUCTURE_TYPE_DEBUG_MARKER_OBJECT_NAME_INFO_EXT"
    },
    {
     "enum_field_value" : 1000022001,
     "name" : "VK_STRUCTURE_TYPE_DEBUG_MARKER_OBJECT_TAG_INFO_EXT"
    },
    {
     "enum_field_value" : 1000022002,
     "name" : "VK_STRUCTURE_TYPE_DEBUG_MARKER_MARKER_INFO_EXT"
    },
    {
     "enum_field_value" : 1000026000,
     "name" : "VK_STRUCTURE_TYPE_DEDICATED_ALLOCATION_IMAGE_CREATE_INFO_NV"
    },
    {
     "enum_field_value" : 1000026001,
     "name" : "VK_STRUCTURE_TYPE_DEDICATED_ALLOCATION_BUFFER_CREATE_INFO_NV"
    },
    {
     "enum_field_value" : 1000026002,
     "name" : "VK_STRUCTURE_TYPE_DEDICATED_ALLOCATION_MEMORY_ALLOCATE_INFO_NV"
    },
    {
     "enum_field_value" : 1000028000,
     "name" : "VK_STRUCTURE_TYPE_PHYSICAL_DEVICE_TRANSFORM_FEEDBACK_FEATURES_EXT"
    },
    {
     "enum_field_value" : 1000028001,
     "name" : "VK_STRUCTURE_TYPE_PHYSICAL_DEVICE_TRANSFORM_FEEDBACK_PROPERTIES_EXT"
    },
    {
     "enum_field_value" : 1000028002,
     "name" : "VK_STRUCTURE_TYPE_PIPELINE_RASTERIZATION_STATE_STREAM_CREATE_INFO_EXT"
    },
    {
     "enum_field_value" : 1000030000,
     "name" : "VK_STRUCTURE_TYPE_IMAGE_VIEW_HANDLE_INFO_NVX"
    },
    {
     "enum_field_value" : 1000041000,
     "name" : "VK_STRUCTURE_TYPE_TEXTURE_LOD_GATHER_FORMAT_PROPERTIES_AMD"
    },
    {
     "enum_field_value" : 1000049000,
     "name" : "VK_STRUCTURE_TYPE_STREAM_DESCRIPTOR_SURFACE_CREATE_INFO_GGP"
    },
    {
     "enum_field_value" : 1000050000,
     "name" : "VK_STRUCTURE_TYPE_PHYSICAL_DEVICE_CORNER_SAMPLED_IMAGE_FEATURES_NV"
    },
    {
     "enum_field_value" : 1000056000,
     "name" : "VK_STRUCTURE_TYPE_EXTERNAL_MEMORY_IMAGE_CREATE_INFO_NV"
    },
    {
     "enum_field_value" : 1000056001,
     "name" : "VK_STRUCTURE_TYPE_EXPORT_MEMORY_ALLOCATE_INFO_NV"
    },
    {
     "enum_field_value" : 1000057000,
     "name" : "VK_STRUCTURE_TYPE_IMPORT_MEMORY_WIN32_HANDLE_INFO_NV"
    },
    {
     "enum_field_value" : 1000057001,
     "name" : "VK_STRUCTURE_TYPE_EXPORT_MEMORY_WIN32_HANDLE_INFO_NV"
    },
    {
     "enum_field_value" : 1000058000,
     "name" : "VK_STRUCTURE_TYPE_WIN32_KEYED_MUTEX_ACQUIRE_RELEASE_INFO_NV"
    },
    {
     "enum_field_value" : 1000061000,
     "name" : "VK_STRUCTURE_TYPE_VALIDATION_FLAGS_EXT"
    },
    {
     "enum_field_value" : 1000062000,
     "name" : "VK_STRUCTURE_TYPE_VI_SURFACE_CREATE_INFO_NN"
    },
    {
     "enum_field_value" : 1000066000,
     "name" : "VK_STRUCTURE_TYPE_PHYSICAL_DEVICE_TEXTURE_COMPRESSION_ASTC_HDR_FEATURES_EXT"
    },
    {
     "enum_field_value" : 1000067000,
     "name" : "VK_STRUCTURE_TYPE_IMAGE_VIEW_ASTC_DECODE_MODE_EXT"
    },
    {
     "enum_field_value" : 1000067001,
     "name" : "VK_STRUCTURE_TYPE_PHYSICAL_DEVICE_ASTC_DECODE_FEATURES_EXT"
    },
    {
     "enum_field_value" : 1000073000,
     "name" : "VK_STRUCTURE_TYPE_IMPORT_MEMORY_WIN32_HANDLE_INFO_KHR"
    },
    {
     "enum_field_value" : 1000073001,
     "name" : "VK_STRUCTURE_TYPE_EXPORT_MEMORY_WIN32_HANDLE_INFO_KHR"
    },
    {
     "enum_field_value" : 1000073002,
     "name" : "VK_STRUCTURE_TYPE_MEMORY_WIN32_HANDLE_PROPERTIES_KHR"
    },
    {
     "enum_field_value" : 1000073003,
     "name" : "VK_STRUCTURE_TYPE_MEMORY_GET_WIN32_HANDLE_INFO_KHR"
    },
    {
     "enum_field_value" : 1000074000,
     "name" : "VK_STRUCTURE_TYPE_IMPORT_MEMORY_FD_INFO_KHR"
    },
    {
     "enum_field_value" : 1000074001,
     "name" : "VK_STRUCTURE_TYPE_MEMORY_FD_PROPERTIES_KHR"
    },
    {
     "enum_field_value" : 1000074002,
     "name" : "VK_STRUCTURE_TYPE_MEMORY_GET_FD_INFO_KHR"
    },
    {
     "enum_field_value" : 1000075000,
     "name" : "VK_STRUCTURE_TYPE_WIN32_KEYED_MUTEX_ACQUIRE_RELEASE_INFO_KHR"
    },
    {
     "enum_field_value" : 1000078000,
     "name" : "VK_STRUCTURE_TYPE_IMPORT_SEMAPHORE_WIN32_HANDLE_INFO_KHR"
    },
    {
     "enum_field_value" : 1000078001,
     "name" : "VK_STRUCTURE_TYPE_EXPORT_SEMAPHORE_WIN32_HANDLE_INFO_KHR"
    },
    {
     "enum_field_value" : 1000078002,
     "name" : "VK_STRUCTURE_TYPE_D3D12_FENCE_SUBMIT_INFO_KHR"
    },
    {
     "enum_field_value" : 1000078003,
     "name" : "VK_STRUCTURE_TYPE_SEMAPHORE_GET_WIN32_HANDLE_INFO_KHR"
    },
    {
     "enum_field_value" : 1000079000,
     "name" : "VK_STRUCTURE_TYPE_IMPORT_SEMAPHORE_FD_INFO_KHR"
    },
    {
     "enum_field_value" : 1000079001,
     "name" : "VK_STRUCTURE_TYPE_SEMAPHORE_GET_FD_INFO_KHR"
    },
    {
     "enum_field_value" : 1000080000,
     "name" : "VK_STRUCTURE_TYPE_PHYSICAL_DEVICE_PUSH_DESCRIPTOR_PROPERTIES_KHR"
    },
    {
     "enum_field_value" : 1000081000,
     "name" : "VK_STRUCTURE_TYPE_COMMAND_BUFFER_INHERITANCE_CONDITIONAL_RENDERING_INFO_EXT"
    },
    {
     "enum_field_value" : 1000081001,
     "name" : "VK_STRUCTURE_TYPE_PHYSICAL_DEVICE_CONDITIONAL_RENDERING_FEATURES_EXT"
    },
    {
     "enum_field_value" : 1000081002,
     "name" : "VK_STRUCTURE_TYPE_CONDITIONAL_RENDERING_BEGIN_INFO_EXT"
    },
    {
     "enum_field_value" : 1000082000,
     "name" : "VK_STRUCTURE_TYPE_PHYSICAL_DEVICE_SHADER_FLOAT16_INT8_FEATURES_KHR"
    },
    {
     "enum_field_value" : 1000084000,
     "name" : "VK_STRUCTURE_TYPE_PRESENT_REGIONS_KHR"
    },
    {
     "enum_field_value" : 1000086000,
     "name" : "VK_STRUCTURE_TYPE_OBJECT_TABLE_CREATE_INFO_NVX"
    },
    {
     "enum_field_value" : 1000086001,
     "name" : "VK_STRUCTURE_TYPE_INDIRECT_COMMANDS_LAYOUT_CREATE_INFO_NVX"
    },
    {
     "enum_field_value" : 1000086002,
     "name" : "VK_STRUCTURE_TYPE_CMD_PROCESS_COMMANDS_INFO_NVX"
    },
    {
     "enum_field_value" : 1000086003,
     "name" : "VK_STRUCTURE_TYPE_CMD_RESERVE_SPACE_FOR_COMMANDS_INFO_NVX"
    },
    {
     "enum_field_value" : 1000086004,
     "name" : "VK_STRUCTURE_TYPE_DEVICE_GENERATED_COMMANDS_LIMITS_NVX"
    },
    {
     "enum_field_value" : 1000086005,
     "name" : "VK_STRUCTURE_TYPE_DEVICE_GENERATED_COMMANDS_FEATURES_NVX"
    },
    {
     "enum_field_value" : 1000087000,
     "name" : "VK_STRUCTURE_TYPE_PIPELINE_VIEWPORT_W_SCALING_STATE_CREATE_INFO_NV"
    },
    {
     "enum_field_value" : 1000090000,
     "name" : "VK_STRUCTURE_TYPE_SURFACE_CAPABILITIES_2_EXT"
    },
    {
     "enum_field_value" : 1000091000,
     "name" : "VK_STRUCTURE_TYPE_DISPLAY_POWER_INFO_EXT"
    },
    {
     "enum_field_value" : 1000091001,
     "name" : "VK_STRUCTURE_TYPE_DEVICE_EVENT_INFO_EXT"
    },
    {
     "enum_field_value" : 1000091002,
     "name" : "VK_STRUCTURE_TYPE_DISPLAY_EVENT_INFO_EXT"
    },
    {
     "enum_field_value" : 1000091003,
     "name" : "VK_STRUCTURE_TYPE_SWAPCHAIN_COUNTER_CREATE_INFO_EXT"
    },
    {
     "enum_field_value" : 1000092000,
     "name" : "VK_STRUCTURE_TYPE_PRESENT_TIMES_INFO_GOOGLE"
    },
    {
     "enum_field_value" : 1000097000,
     "name" : "VK_STRUCTURE_TYPE_PHYSICAL_DEVICE_MULTIVIEW_PER_VIEW_ATTRIBUTES_PROPERTIES_NVX"
    },
    {
     "enum_field_value" : 1000098000,
     "name" : "VK_STRUCTURE_TYPE_PIPELINE_VIEWPORT_SWIZZLE_STATE_CREATE_INFO_NV"
    },
    {
     "enum_field_value" : 1000099000,
     "name" : "VK_STRUCTURE_TYPE_PHYSICAL_DEVICE_DISCARD_RECTANGLE_PROPERTIES_EXT"
    },
    {
     "enum_field_value" : 1000099001,
     "name" : "VK_STRUCTURE_TYPE_PIPELINE_DISCARD_RECTANGLE_STATE_CREATE_INFO_EXT"
    },
    {
     "enum_field_value" : 1000101000,
     "name" : "VK_STRUCTURE_TYPE_PHYSICAL_DEVICE_CONSERVATIVE_RASTERIZATION_PROPERTIES_EXT"
    },
    {
     "enum_field_value" : 1000101001,
     "name" : "VK_STRUCTURE_TYPE_PIPELINE_RASTERIZATION_CONSERVATIVE_STATE_CREATE_INFO_EXT"
    },
    {
     "enum_field_value" : 1000102000,
     "name" : "VK_STRUCTURE_TYPE_PHYSICAL_DEVICE_DEPTH_CLIP_ENABLE_FEATURES_EXT"
    },
    {
     "enum_field_value" : 1000102001,
     "name" : "VK_STRUCTURE_TYPE_PIPELINE_RASTERIZATION_DEPTH_CLIP_STATE_CREATE_INFO_EXT"
    },
    {
     "enum_field_value" : 1000105000,
     "name" : "VK_STRUCTURE_TYPE_HDR_METADATA_EXT"
    },
    {
     "enum_field_value" : 1000108000,
     "name" : "VK_STRUCTURE_TYPE_PHYSICAL_DEVICE_IMAGELESS_FRAMEBUFFER_FEATURES_KHR"
    },
    {
     "enum_field_value" : 1000108001,
     "name" : "VK_STRUCTURE_TYPE_FRAMEBUFFER_ATTACHMENTS_CREATE_INFO_KHR"
    },
    {
     "enum_field_value" : 1000108002,
     "name" : "VK_STRUCTURE_TYPE_FRAMEBUFFER_ATTACHMENT_IMAGE_INFO_KHR"
    },
    {
     "enum_field_value" : 1000108003,
     "name" : "VK_STRUCTURE_TYPE_RENDER_PASS_ATTACHMENT_BEGIN_INFO_KHR"
    },
    {
     "enum_field_value" : 1000109000,
     "name" : "VK_STRUCTURE_TYPE_ATTACHMENT_DESCRIPTION_2_KHR"
    },
    {
     "enum_field_value" : 1000109001,
     "name" : "VK_STRUCTURE_TYPE_ATTACHMENT_REFERENCE_2_KHR"
    },
    {
     "enum_field_value" : 1000109002,
     "name" : "VK_STRUCTURE_TYPE_SUBPASS_DESCRIPTION_2_KHR"
    },
    {
     "enum_field_value" : 1000109003,
     "name" : "VK_STRUCTURE_TYPE_SUBPASS_DEPENDENCY_2_KHR"
    },
    {
     "enum_field_value" : 1000109004,
     "name" : "VK_STRUCTURE_TYPE_RENDER_PASS_CREATE_INFO_2_KHR"
    },
    {
     "enum_field_value" : 1000109005,
     "name" : "VK_STRUCTURE_TYPE_SUBPASS_BEGIN_INFO_KHR"
    },
    {
     "enum_field_value" : 1000109006,
     "name" : "VK_STRUCTURE_TYPE_SUBPASS_END_INFO_KHR"
    },
    {
     "enum_field_value" : 1000111000,
     "name" : "VK_STRUCTURE_TYPE_SHARED_PRESENT_SURFACE_CAPABILITIES_KHR"
    },
    {
     "enum_field_value" : 1000114000,
     "name" : "VK_STRUCTURE_TYPE_IMPORT_FENCE_WIN32_HANDLE_INFO_KHR"
    },
    {
     "enum_field_value" : 1000114001,
     "name" : "VK_STRUCTURE_TYPE_EXPORT_FENCE_WIN32_HANDLE_INFO_KHR"
    },
    {
     "enum_field_value" : 1000114002,
     "name" : "VK_STRUCTURE_TYPE_FENCE_GET_WIN32_HANDLE_INFO_KHR"
    },
    {
     "enum_field_value" : 1000115000,
     "name" : "VK_STRUCTURE_TYPE_IMPORT_FENCE_FD_INFO_KHR"
    },
    {
     "enum_field_value" : 1000115001,
     "name" : "VK_STRUCTURE_TYPE_FENCE_GET_FD_INFO_KHR"
    },
    {
     "enum_field_value" : 1000119000,
     "name" : "VK_STRUCTURE_TYPE_PHYSICAL_DEVICE_SURFACE_INFO_2_KHR"
    },
    {
     "enum_field_value" : 1000119001,
     "name" : "VK_STRUCTURE_TYPE_SURFACE_CAPABILITIES_2_KHR"
    },
    {
     "enum_field_value" : 1000119002,
     "name" : "VK_STRUCTURE_TYPE_SURFACE_FORMAT_2_KHR"
    },
    {
     "enum_field_value" : 1000121000,
     "name" : "VK_STRUCTURE_TYPE_DISPLAY_PROPERTIES_2_KHR"
    },
    {
     "enum_field_value" : 1000121001,
     "name" : "VK_STRUCTURE_TYPE_DISPLAY_PLANE_PROPERTIES_2_KHR"
    },
    {
     "enum_field_value" : 1000121002,
     "name" : "VK_STRUCTURE_TYPE_DISPLAY_MODE_PROPERTIES_2_KHR"
    },
    {
     "enum_field_value" : 1000121003,
     "name" : "VK_STRUCTURE_TYPE_DISPLAY_PLANE_INFO_2_KHR"
    },
    {
     "enum_field_value" : 1000121004,
     "name" : "VK_STRUCTURE_TYPE_DISPLAY_PLANE_CAPABILITIES_2_KHR"
    },
    {
     "enum_field_value" : 1000122000,
     "name" : "VK_STRUCTURE_TYPE_IOS_SURFACE_CREATE_INFO_MVK"
    },
    {
     "enum_field_value" : 1000123000,
     "name" : "VK_STRUCTURE_TYPE_MACOS_SURFACE_CREATE_INFO_MVK"
    },
    {
     "enum_field_value" : 1000128000,
     "name" : "VK_STRUCTURE_TYPE_DEBUG_UTILS_OBJECT_NAME_INFO_EXT"
    },
    {
     "enum_field_value" : 1000128001,
     "name" : "VK_STRUCTURE_TYPE_DEBUG_UTILS_OBJECT_TAG_INFO_EXT"
    },
    {
     "enum_field_value" : 1000128002,
     "name" : "VK_STRUCTURE_TYPE_DEBUG_UTILS_LABEL_EXT"
    },
    {
     "enum_field_value" : 1000128003,
     "name" : "VK_STRUCTURE_TYPE_DEBUG_UTILS_MESSENGER_CALLBACK_DATA_EXT"
    },
    {
     "enum_field_value" : 1000128004,
     "name" : "VK_STRUCTURE_TYPE_DEBUG_UTILS_MESSENGER_CREATE_INFO_EXT"
    },
    {
     "enum_field_value" : 1000129000,
     "name" : "VK_STRUCTURE_TYPE_ANDROID_HARDWARE_BUFFER_USAGE_ANDROID"
    },
    {
     "enum_field_value" : 1000129001,
     "name" : "VK_STRUCTURE_TYPE_ANDROID_HARDWARE_BUFFER_PROPERTIES_ANDROID"
    },
    {
     "enum_field_value" : 1000129002,
     "name" : "VK_STRUCTURE_TYPE_ANDROID_HARDWARE_BUFFER_FORMAT_PROPERTIES_ANDROID"
    },
    {
     "enum_field_value" : 1000129003,
     "name" : "VK_STRUCTURE_TYPE_IMPORT_ANDROID_HARDWARE_BUFFER_INFO_ANDROID"
    },
    {
     "enum_field_value" : 1000129004,
     "name" : "VK_STRUCTURE_TYPE_MEMORY_GET_ANDROID_HARDWARE_BUFFER_INFO_ANDROID"
    },
    {
     "enum_field_value" : 1000129005,
     "name" : "VK_STRUCTURE_TYPE_EXTERNAL_FORMAT_ANDROID"
    },
    {
     "enum_field_value" : 1000130000,
     "name" : "VK_STRUCTURE_TYPE_PHYSICAL_DEVICE_SAMPLER_FILTER_MINMAX_PROPERTIES_EXT"
    },
    {
     "enum_field_value" : 1000130001,
     "name" : "VK_STRUCTURE_TYPE_SAMPLER_REDUCTION_MODE_CREATE_INFO_EXT"
    },
    {
     "enum_field_value" : 1000138000,
     "name" : "VK_STRUCTURE_TYPE_PHYSICAL_DEVICE_INLINE_UNIFORM_BLOCK_FEATURES_EXT"
    },
    {
     "enum_field_value" : 1000138001,
     "name" : "VK_STRUCTURE_TYPE_PHYSICAL_DEVICE_INLINE_UNIFORM_BLOCK_PROPERTIES_EXT"
    },
    {
     "enum_field_value" : 1000138002,
     "name" : "VK_STRUCTURE_TYPE_WRITE_DESCRIPTOR_SET_INLINE_UNIFORM_BLOCK_EXT"
    },
    {
     "enum_field_value" : 1000138003,
     "name" : "VK_STRUCTURE_TYPE_DESCRIPTOR_POOL_INLINE_UNIFORM_BLOCK_CREATE_INFO_EXT"
    },
    {
     "enum_field_value" : 1000143000,
     "name" : "VK_STRUCTURE_TYPE_SAMPLE_LOCATIONS_INFO_EXT"
    },
    {
     "enum_field_value" : 1000143001,
     "name" : "VK_STRUCTURE_TYPE_RENDER_PASS_SAMPLE_LOCATIONS_BEGIN_INFO_EXT"
    },
    {
     "enum_field_value" : 1000143002,
     "name" : "VK_STRUCTURE_TYPE_PIPELINE_SAMPLE_LOCATIONS_STATE_CREATE_INFO_EXT"
    },
    {
     "enum_field_value" : 1000143003,
     "name" : "VK_STRUCTURE_TYPE_PHYSICAL_DEVICE_SAMPLE_LOCATIONS_PROPERTIES_EXT"
    },
    {
     "enum_field_value" : 1000143004,
     "name" : "VK_STRUCTURE_TYPE_MULTISAMPLE_PROPERTIES_EXT"
    },
    {
     "enum_field_value" : 1000147000,
     "name" : "VK_STRUCTURE_TYPE_IMAGE_FORMAT_LIST_CREATE_INFO_KHR"
    },
    {
     "enum_field_value" : 1000148000,
     "name" : "VK_STRUCTURE_TYPE_PHYSICAL_DEVICE_BLEND_OPERATION_ADVANCED_FEATURES_EXT"
    },
    {
     "enum_field_value" : 1000148001,
     "name" : "VK_STRUCTURE_TYPE_PHYSICAL_DEVICE_BLEND_OPERATION_ADVANCED_PROPERTIES_EXT"
    },
    {
     "enum_field_value" : 1000148002,
     "name" : "VK_STRUCTURE_TYPE_PIPELINE_COLOR_BLEND_ADVANCED_STATE_CREATE_INFO_EXT"
    },
    {
     "enum_field_value" : 1000149000,
     "name" : "VK_STRUCTURE_TYPE_PIPELINE_COVERAGE_TO_COLOR_STATE_CREATE_INFO_NV"
    },
    {
     "enum_field_value" : 1000152000,
     "name" : "VK_STRUCTURE_TYPE_PIPELINE_COVERAGE_MODULATION_STATE_CREATE_INFO_NV"
    },
    {
     "enum_field_value" : 1000154000,
     "name" : "VK_STRUCTURE_TYPE_PHYSICAL_DEVICE_SHADER_SM_BUILTINS_FEATURES_NV"
    },
    {
     "enum_field_value" : 1000154001,
     "name" : "VK_STRUCTURE_TYPE_PHYSICAL_DEVICE_SHADER_SM_BUILTINS_PROPERTIES_NV"
    },
    {
     "enum_field_value" : 1000158000,
     "name" : "VK_STRUCTURE_TYPE_DRM_FORMAT_MODIFIER_PROPERTIES_LIST_EXT"
    },
    {
     "enum_field_value" : 1000158001,
     "name" : "VK_STRUCTURE_TYPE_DRM_FORMAT_MODIFIER_PROPERTIES_EXT"
    },
    {
     "enum_field_value" : 1000158002,
     "name" : "VK_STRUCTURE_TYPE_PHYSICAL_DEVICE_IMAGE_DRM_FORMAT_MODIFIER_INFO_EXT"
    },
    {
     "enum_field_value" : 1000158003,
     "name" : "VK_STRUCTURE_TYPE_IMAGE_DRM_FORMAT_MODIFIER_LIST_CREATE_INFO_EXT"
    },
    {
     "enum_field_value" : 1000158004,
     "name" : "VK_STRUCTURE_TYPE_IMAGE_DRM_FORMAT_MODIFIER_EXPLICIT_CREATE_INFO_EXT"
    },
    {
     "enum_field_value" : 1000158005,
     "name" : "VK_STRUCTURE_TYPE_IMAGE_DRM_FORMAT_MODIFIER_PROPERTIES_EXT"
    },
    {
     "enum_field_value" : 1000160000,
     "name" : "VK_STRUCTURE_TYPE_VALIDATION_CACHE_CREATE_INFO_EXT"
    },
    {
     "enum_field_value" : 1000160001,
     "name" : "VK_STRUCTURE_TYPE_SHADER_MODULE_VALIDATION_CACHE_CREATE_INFO_EXT"
    },
    {
     "enum_field_value" : 1000161000,
     "name" : "VK_STRUCTURE_TYPE_DESCRIPTOR_SET_LAYOUT_BINDING_FLAGS_CREATE_INFO_EXT"
    },
    {
     "enum_field_value" : 1000161001,
     "name" : "VK_STRUCTURE_TYPE_PHYSICAL_DEVICE_DESCRIPTOR_INDEXING_FEATURES_EXT"
    },
    {
     "enum_field_value" : 1000161002,
     "name" : "VK_STRUCTURE_TYPE_PHYSICAL_DEVICE_DESCRIPTOR_INDEXING_PROPERTIES_EXT"
    },
    {
     "enum_field_value" : 1000161003,
     "name" : "VK_STRUCTURE_TYPE_DESCRIPTOR_SET_VARIABLE_DESCRIPTOR_COUNT_ALLOCATE_INFO_EXT"
    },
    {
     "enum_field_value" : 1000161004,
     "name" : "VK_STRUCTURE_TYPE_DESCRIPTOR_SET_VARIABLE_DESCRIPTOR_COUNT_LAYOUT_SUPPORT_EXT"
    },
    {
     "enum_field_value" : 1000164000,
     "name" : "VK_STRUCTURE_TYPE_PIPELINE_VIEWPORT_SHADING_RATE_IMAGE_STATE_CREATE_INFO_NV"
    },
    {
     "enum_field_value" : 1000164001,
     "name" : "VK_STRUCTURE_TYPE_PHYSICAL_DEVICE_SHADING_RATE_IMAGE_FEATURES_NV"
    },
    {
     "enum_field_value" : 1000164002,
     "name" : "VK_STRUCTURE_TYPE_PHYSICAL_DEVICE_SHADING_RATE_IMAGE_PROPERTIES_NV"
    },
    {
     "enum_field_value" : 1000164005,
     "name" : "VK_STRUCTURE_TYPE_PIPELINE_VIEWPORT_COARSE_SAMPLE_ORDER_STATE_CREATE_INFO_NV"
    },
    {
     "enum_field_value" : 1000165000,
     "name" : "VK_STRUCTURE_TYPE_RAY_TRACING_PIPELINE_CREATE_INFO_NV"
    },
    {
     "enum_field_value" : 1000165001,
     "name" : "VK_STRUCTURE_TYPE_ACCELERATION_STRUCTURE_CREATE_INFO_NV"
    },
    {
     "enum_field_value" : 1000165003,
     "name" : "VK_STRUCTURE_TYPE_GEOMETRY_NV"
    },
    {
     "enum_field_value" : 1000165004,
     "name" : "VK_STRUCTURE_TYPE_GEOMETRY_TRIANGLES_NV"
    },
    {
     "enum_field_value" : 1000165005,
     "name" : "VK_STRUCTURE_TYPE_GEOMETRY_AABB_NV"
    },
    {
     "enum_field_value" : 1000165006,
     "name" : "VK_STRUCTURE_TYPE_BIND_ACCELERATION_STRUCTURE_MEMORY_INFO_NV"
    },
    {
     "enum_field_value" : 1000165007,
     "name" : "VK_STRUCTURE_TYPE_WRITE_DESCRIPTOR_SET_ACCELERATION_STRUCTURE_NV"
    },
    {
     "enum_field_value" : 1000165008,
     "name" : "VK_STRUCTURE_TYPE_ACCELERATION_STRUCTURE_MEMORY_REQUIREMENTS_INFO_NV"
    },
    {
     "enum_field_value" : 1000165009,
     "name" : "VK_STRUCTURE_TYPE_PHYSICAL_DEVICE_RAY_TRACING_PROPERTIES_NV"
    },
    {
     "enum_field_value" : 1000165011,
     "name" : "VK_STRUCTURE_TYPE_RAY_TRACING_SHADER_GROUP_CREATE_INFO_NV"
    },
    {
     "enum_field_value" : 1000165012,
     "name" : "VK_STRUCTURE_TYPE_ACCELERATION_STRUCTURE_INFO_NV"
    },
    {
     "enum_field_value" : 1000166000,
     "name" : "VK_STRUCTURE_TYPE_PHYSICAL_DEVICE_REPRESENTATIVE_FRAGMENT_TEST_FEATURES_NV"
    },
    {
     "enum_field_value" : 1000166001,
     "name" : "VK_STRUCTURE_TYPE_PIPELINE_REPRESENTATIVE_FRAGMENT_TEST_STATE_CREATE_INFO_NV"
    },
    {
     "enum_field_value" : 1000170000,
     "name" : "VK_STRUCTURE_TYPE_PHYSICAL_DEVICE_IMAGE_VIEW_IMAGE_FORMAT_INFO_EXT"
    },
    {
     "enum_field_value" : 1000170001,
     "name" : "VK_STRUCTURE_TYPE_FILTER_CUBIC_IMAGE_VIEW_IMAGE_FORMAT_PROPERTIES_EXT"
    },
    {
     "enum_field_value" : 1000174000,
     "name" : "VK_STRUCTURE_TYPE_DEVICE_QUEUE_GLOBAL_PRIORITY_CREATE_INFO_EXT"
    },
    {
     "enum_field_value" : 1000177000,
     "name" : "VK_STRUCTURE_TYPE_PHYSICAL_DEVICE_8BIT_STORAGE_FEATURES_KHR"
    },
    {
     "enum_field_value" : 1000178000,
     "name" : "VK_STRUCTURE_TYPE_IMPORT_MEMORY_HOST_POINTER_INFO_EXT"
    },
    {
     "enum_field_value" : 1000178001,
     "name" : "VK_STRUCTURE_TYPE_MEMORY_HOST_POINTER_PROPERTIES_EXT"
    },
    {
     "enum_field_value" : 1000178002,
     "name" : "VK_STRUCTURE_TYPE_PHYSICAL_DEVICE_EXTERNAL_MEMORY_HOST_PROPERTIES_EXT"
    },
    {
     "enum_field_value" : 1000180000,
     "name" : "VK_STRUCTURE_TYPE_PHYSICAL_DEVICE_SHADER_ATOMIC_INT64_FEATURES_KHR"
    },
    {
     "enum_field_value" : 1000183000,
     "name" : "VK_STRUCTURE_TYPE_PIPELINE_COMPILER_CONTROL_CREATE_INFO_AMD"
    },
    {
     "enum_field_value" : 1000184000,
     "name" : "VK_STRUCTURE_TYPE_CALIBRATED_TIMESTAMP_INFO_EXT"
    },
    {
     "enum_field_value" : 1000185000,
     "name" : "VK_STRUCTURE_TYPE_PHYSICAL_DEVICE_SHADER_CORE_PROPERTIES_AMD"
    },
    {
     "enum_field_value" : 1000189000,
     "name" : "VK_STRUCTURE_TYPE_DEVICE_MEMORY_OVERALLOCATION_CREATE_INFO_AMD"
    },
    {
     "enum_field_value" : 1000190000,
     "name" : "VK_STRUCTURE_TYPE_PHYSICAL_DEVICE_VERTEX_ATTRIBUTE_DIVISOR_PROPERTIES_EXT"
    },
    {
     "enum_field_value" : 1000190001,
     "name" : "VK_STRUCTURE_TYPE_PIPELINE_VERTEX_INPUT_DIVISOR_STATE_CREATE_INFO_EXT"
    },
    {
     "enum_field_value" : 1000190002,
     "name" : "VK_STRUCTURE_TYPE_PHYSICAL_DEVICE_VERTEX_ATTRIBUTE_DIVISOR_FEATURES_EXT"
    },
    {
     "enum_field_value" : 1000191000,
     "name" : "VK_STRUCTURE_TYPE_PRESENT_FRAME_TOKEN_GGP"
    },
    {
     "enum_field_value" : 1000192000,
     "name" : "VK_STRUCTURE_TYPE_PIPELINE_CREATION_FEEDBACK_CREATE_INFO_EXT"
    },
    {
     "enum_field_value" : 1000196000,
     "name" : "VK_STRUCTURE_TYPE_PHYSICAL_DEVICE_DRIVER_PROPERTIES_KHR"
    },
    {
     "enum_field_value" : 1000197000,
     "name" : "VK_STRUCTURE_TYPE_PHYSICAL_DEVICE_FLOAT_CONTROLS_PROPERTIES_KHR"
    },
    {
     "enum_field_value" : 1000199000,
     "name" : "VK_STRUCTURE_TYPE_PHYSICAL_DEVICE_DEPTH_STENCIL_RESOLVE_PROPERTIES_KHR"
    },
    {
     "enum_field_value" : 1000199001,
     "name" : "VK_STRUCTURE_TYPE_SUBPASS_DESCRIPTION_DEPTH_STENCIL_RESOLVE_KHR"
    },
    {
     "enum_field_value" : 1000201000,
     "name" : "VK_STRUCTURE_TYPE_PHYSICAL_DEVICE_COMPUTE_SHADER_DERIVATIVES_FEATURES_NV"
    },
    {
     "enum_field_value" : 1000202000,
     "name" : "VK_STRUCTURE_TYPE_PHYSICAL_DEVICE_MESH_SHADER_FEATURES_NV"
    },
    {
     "enum_field_value" : 1000202001,
     "name" : "VK_STRUCTURE_TYPE_PHYSICAL_DEVICE_MESH_SHADER_PROPERTIES_NV"
    },
    {
     "enum_field_value" : 1000203000,
     "name" : "VK_STRUCTURE_TYPE_PHYSICAL_DEVICE_FRAGMENT_SHADER_BARYCENTRIC_FEATURES_NV"
    },
    {
     "enum_field_value" : 1000204000,
     "name" : "VK_STRUCTURE_TYPE_PHYSICAL_DEVICE_SHADER_IMAGE_FOOTPRINT_FEATURES_NV"
    },
    {
     "enum_field_value" : 1000205000,
     "name" : "VK_STRUCTURE_TYPE_PIPELINE_VIEWPORT_EXCLUSIVE_SCISSOR_STATE_CREATE_INFO_NV"
    },
    {
     "enum_field_value" : 1000205002,
     "name" : "VK_STRUCTURE_TYPE_PHYSICAL_DEVICE_EXCLUSIVE_SCISSOR_FEATURES_NV"
    },
    {
     "enum_field_value" : 1000206000,
     "name" : "VK_STRUCTURE_TYPE_CHECKPOINT_DATA_NV"
    },
    {
     "enum_field_value" : 1000206001,
     "name" : "VK_STRUCTURE_TYPE_QUEUE_FAMILY_CHECKPOINT_PROPERTIES_NV"
    },
    {
     "enum_field_value" : 1000209000,
     "name" : "VK_STRUCTURE_TYPE_PHYSICAL_DEVICE_SHADER_INTEGER_FUNCTIONS_2_FEATURES_INTEL"
    },
    {
     "enum_field_value" : 1000210000,
     "name" : "VK_STRUCTURE_TYPE_QUERY_POOL_CREATE_INFO_INTEL"
    },
    {
     "enum_field_value" : 1000210001,
     "name" : "VK_STRUCTURE_TYPE_INITIALIZE_PERFORMANCE_API_INFO_INTEL"
    },
    {
     "enum_field_value" : 1000210002,
     "name" : "VK_STRUCTURE_TYPE_PERFORMANCE_MARKER_INFO_INTEL"
    },
    {
     "enum_field_value" : 1000210003,
     "name" : "VK_STRUCTURE_TYPE_PERFORMANCE_STREAM_MARKER_INFO_INTEL"
    },
    {
     "enum_field_value" : 1000210004,
     "name" : "VK_STRUCTURE_TYPE_PERFORMANCE_OVERRIDE_INFO_INTEL"
    },
    {
     "enum_field_value" : 1000210005,
     "name" : "VK_STRUCTURE_TYPE_PERFORMANCE_CONFIGURATION_ACQUIRE_INFO_INTEL"
    },
    {
     "enum_field_value" : 1000211000,
     "name" : "VK_STRUCTURE_TYPE_PHYSICAL_DEVICE_VULKAN_MEMORY_MODEL_FEATURES_KHR"
    },
    {
     "enum_field_value" : 1000212000,
     "name" : "VK_STRUCTURE_TYPE_PHYSICAL_DEVICE_PCI_BUS_INFO_PROPERTIES_EXT"
    },
    {
     "enum_field_value" : 1000213000,
     "name" : "VK_STRUCTURE_TYPE_DISPLAY_NATIVE_HDR_SURFACE_CAPABILITIES_AMD"
    },
    {
     "enum_field_value" : 1000213001,
     "name" : "VK_STRUCTURE_TYPE_SWAPCHAIN_DISPLAY_NATIVE_HDR_CREATE_INFO_AMD"
    },
    {
     "enum_field_value" : 1000214000,
     "name" : "VK_STRUCTURE_TYPE_IMAGEPIPE_SURFACE_CREATE_INFO_FUCHSIA"
    },
    {
     "enum_field_value" : 1000217000,
     "name" : "VK_STRUCTURE_TYPE_METAL_SURFACE_CREATE_INFO_EXT"
    },
    {
     "enum_field_value" : 1000218000,
     "name" : "VK_STRUCTURE_TYPE_PHYSICAL_DEVICE_FRAGMENT_DENSITY_MAP_FEATURES_EXT"
    },
    {
     "enum_field_value" : 1000218001,
     "name" : "VK_STRUCTURE_TYPE_PHYSICAL_DEVICE_FRAGMENT_DENSITY_MAP_PROPERTIES_EXT"
    },
    {
     "enum_field_value" : 1000218002,
     "name" : "VK_STRUCTURE_TYPE_RENDER_PASS_FRAGMENT_DENSITY_MAP_CREATE_INFO_EXT"
    },
    {
     "enum_field_value" : 1000221000,
     "name" : "VK_STRUCTURE_TYPE_PHYSICAL_DEVICE_SCALAR_BLOCK_LAYOUT_FEATURES_EXT"
    },
    {
     "enum_field_value" : 1000225000,
     "name" : "VK_STRUCTURE_TYPE_PHYSICAL_DEVICE_SUBGROUP_SIZE_CONTROL_PROPERTIES_EXT"
    },
    {
     "enum_field_value" : 1000225001,
     "name" : "VK_STRUCTURE_TYPE_PIPELINE_SHADER_STAGE_REQUIRED_SUBGROUP_SIZE_CREATE_INFO_EXT"
    },
    {
     "enum_field_value" : 1000225002,
     "name" : "VK_STRUCTURE_TYPE_PHYSICAL_DEVICE_SUBGROUP_SIZE_CONTROL_FEATURES_EXT"
    },
    {
     "enum_field_value" : 1000227000,
     "name" : "VK_STRUCTURE_TYPE_PHYSICAL_DEVICE_SHADER_CORE_PROPERTIES_2_AMD"
    },
    {
     "enum_field_value" : 1000229000,
     "name" : "VK_STRUCTURE_TYPE_PHYSICAL_DEVICE_COHERENT_MEMORY_FEATURES_AMD"
    },
    {
     "enum_field_value" : 1000237000,
     "name" : "VK_STRUCTURE_TYPE_PHYSICAL_DEVICE_MEMORY_BUDGET_PROPERTIES_EXT"
    },
    {
     "enum_field_value" : 1000238000,
     "name" : "VK_STRUCTURE_TYPE_PHYSICAL_DEVICE_MEMORY_PRIORITY_FEATURES_EXT"
    },
    {
     "enum_field_value" : 1000238001,
     "name" : "VK_STRUCTURE_TYPE_MEMORY_PRIORITY_ALLOCATE_INFO_EXT"
    },
    {
     "enum_field_value" : 1000239000,
     "name" : "VK_STRUCTURE_TYPE_SURFACE_PROTECTED_CAPABILITIES_KHR"
    },
    {
     "enum_field_value" : 1000240000,
     "name" : "VK_STRUCTURE_TYPE_PHYSICAL_DEVICE_DEDICATED_ALLOCATION_IMAGE_ALIASING_FEATURES_NV"
    },
    {
     "enum_field_value" : 1000244000,
     "name" : "VK_STRUCTURE_TYPE_PHYSICAL_DEVICE_BUFFER_DEVICE_ADDRESS_FEATURES_EXT"
    },
    {
     "enum_field_value" : 1000244001,
     "name" : "VK_STRUCTURE_TYPE_BUFFER_DEVICE_ADDRESS_INFO_EXT"
    },
    {
     "enum_field_value" : 1000244002,
     "name" : "VK_STRUCTURE_TYPE_BUFFER_DEVICE_ADDRESS_CREATE_INFO_EXT"
    },
    {
     "enum_field_value" : 1000246000,
     "name" : "VK_STRUCTURE_TYPE_IMAGE_STENCIL_USAGE_CREATE_INFO_EXT"
    },
    {
     "enum_field_value" : 1000247000,
     "name" : "VK_STRUCTURE_TYPE_VALIDATION_FEATURES_EXT"
    },
    {
     "enum_field_value" : 1000249000,
     "name" : "VK_STRUCTURE_TYPE_PHYSICAL_DEVICE_COOPERATIVE_MATRIX_FEATURES_NV"
    },
    {
     "enum_field_value" : 1000249001,
     "name" : "VK_STRUCTURE_TYPE_COOPERATIVE_MATRIX_PROPERTIES_NV"
    },
    {
     "enum_field_value" : 1000249002,
     "name" : "VK_STRUCTURE_TYPE_PHYSICAL_DEVICE_COOPERATIVE_MATRIX_PROPERTIES_NV"
    },
    {
     "enum_field_value" : 1000250000,
     "name" : "VK_STRUCTURE_TYPE_PHYSICAL_DEVICE_COVERAGE_REDUCTION_MODE_FEATURES_NV"
    },
    {
     "enum_field_value" : 1000250001,
     "name" : "VK_STRUCTURE_TYPE_PIPELINE_COVERAGE_REDUCTION_STATE_CREATE_INFO_NV"
    },
    {
     "enum_field_value" : 1000250002,
     "name" : "VK_STRUCTURE_TYPE_FRAMEBUFFER_MIXED_SAMPLES_COMBINATION_NV"
    },
    {
     "enum_field_value" : 1000251000,
     "name" : "VK_STRUCTURE_TYPE_PHYSICAL_DEVICE_FRAGMENT_SHADER_INTERLOCK_FEATURES_EXT"
    },
    {
     "enum_field_value" : 1000252000,
     "name" : "VK_STRUCTURE_TYPE_PHYSICAL_DEVICE_YCBCR_IMAGE_ARRAYS_FEATURES_EXT"
    },
    {
     "enum_field_value" : 1000253000,
     "name" : "VK_STRUCTURE_TYPE_PHYSICAL_DEVICE_UNIFORM_BUFFER_STANDARD_LAYOUT_FEATURES_KHR"
    },
    {
     "enum_field_value" : 1000255000,
     "name" : "VK_STRUCTURE_TYPE_SURFACE_FULL_SCREEN_EXCLUSIVE_INFO_EXT"
    },
    {
     "enum_field_value" : 1000255002,
     "name" : "VK_STRUCTURE_TYPE_SURFACE_CAPABILITIES_FULL_SCREEN_EXCLUSIVE_EXT"
    },
    {
     "enum_field_value" : 1000255001,
     "name" : "VK_STRUCTURE_TYPE_SURFACE_FULL_SCREEN_EXCLUSIVE_WIN32_INFO_EXT"
    },
    {
     "enum_field_value" : 1000256000,
     "name" : "VK_STRUCTURE_TYPE_HEADLESS_SURFACE_CREATE_INFO_EXT"
    },
    {
     "enum_field_value" : 1000259000,
     "name" : "VK_STRUCTURE_TYPE_PHYSICAL_DEVICE_LINE_RASTERIZATION_FEATURES_EXT"
    },
    {
     "enum_field_value" : 1000259001,
     "name" : "VK_STRUCTURE_TYPE_PIPELINE_RASTERIZATION_LINE_STATE_CREATE_INFO_EXT"
    },
    {
     "enum_field_value" : 1000259002,
     "name" : "VK_STRUCTURE_TYPE_PHYSICAL_DEVICE_LINE_RASTERIZATION_PROPERTIES_EXT"
    },
    {
     "enum_field_value" : 1000261000,
     "name" : "VK_STRUCTURE_TYPE_PHYSICAL_DEVICE_HOST_QUERY_RESET_FEATURES_EXT"
    },
    {
     "enum_field_value" : 1000265000,
     "name" : "VK_STRUCTURE_TYPE_PHYSICAL_DEVICE_INDEX_TYPE_UINT8_FEATURES_EXT"
    },
    {
     "enum_field_value" : 1000269000,
     "name" : "VK_STRUCTURE_TYPE_PHYSICAL_DEVICE_PIPELINE_EXECUTABLE_PROPERTIES_FEATURES_KHR"
    },
    {
     "enum_field_value" : 1000269001,
     "name" : "VK_STRUCTURE_TYPE_PIPELINE_INFO_KHR"
    },
    {
     "enum_field_value" : 1000269002,
     "name" : "VK_STRUCTURE_TYPE_PIPELINE_EXECUTABLE_PROPERTIES_KHR"
    },
    {
     "enum_field_value" : 1000269003,
     "name" : "VK_STRUCTURE_TYPE_PIPELINE_EXECUTABLE_INFO_KHR"
    },
    {
     "enum_field_value" : 1000269004,
     "name" : "VK_STRUCTURE_TYPE_PIPELINE_EXECUTABLE_STATISTIC_KHR"
    },
    {
     "enum_field_value" : 1000269005,
     "name" : "VK_STRUCTURE_TYPE_PIPELINE_EXECUTABLE_INTERNAL_REPRESENTATION_KHR"
    },
    {
     "enum_field_value" : 1000276000,
     "name" : "VK_STRUCTURE_TYPE_PHYSICAL_DEVICE_SHADER_DEMOTE_TO_HELPER_INVOCATION_FEATURES_EXT"
    },
    {
     "enum_field_value" : 1000281000,
     "name" : "VK_STRUCTURE_TYPE_PHYSICAL_DEVICE_TEXEL_BUFFER_ALIGNMENT_FEATURES_EXT"
    },
    {
     "enum_field_value" : 1000281001,
     "name" : "VK_STRUCTURE_TYPE_PHYSICAL_DEVICE_TEXEL_BUFFER_ALIGNMENT_PROPERTIES_EXT"
    },
    {
     "enum_field_value" : 1000120000,
     "name" : "VK_STRUCTURE_TYPE_PHYSICAL_DEVICE_VARIABLE_POINTER_FEATURES"
    },
    {
     "enum_field_value" : 1000063000,
     "name" : "VK_STRUCTURE_TYPE_PHYSICAL_DEVICE_SHADER_DRAW_PARAMETER_FEATURES"
    },
    {
     "enum_field_value" : 1000011000,
     "name" : "VK_STRUCTURE_TYPE_DEBUG_REPORT_CREATE_INFO_EXT"
    },
    {
     "enum_field_value" : 1000053000,
     "name" : "VK_STRUCTURE_TYPE_RENDER_PASS_MULTIVIEW_CREATE_INFO_KHR"
    },
    {
     "enum_field_value" : 1000053001,
     "name" : "VK_STRUCTURE_TYPE_PHYSICAL_DEVICE_MULTIVIEW_FEATURES_KHR"
    },
    {
     "enum_field_value" : 1000053002,
     "name" : "VK_STRUCTURE_TYPE_PHYSICAL_DEVICE_MULTIVIEW_PROPERTIES_KHR"
    },
    {
     "enum_field_value" : 1000059000,
     "name" : "VK_STRUCTURE_TYPE_PHYSICAL_DEVICE_FEATURES_2_KHR"
    },
    {
     "enum_field_value" : 1000059001,
     "name" : "VK_STRUCTURE_TYPE_PHYSICAL_DEVICE_PROPERTIES_2_KHR"
    },
    {
     "enum_field_value" : 1000059002,
     "name" : "VK_STRUCTURE_TYPE_FORMAT_PROPERTIES_2_KHR"
    },
    {
     "enum_field_value" : 1000059003,
     "name" : "VK_STRUCTURE_TYPE_IMAGE_FORMAT_PROPERTIES_2_KHR"
    },
    {
     "enum_field_value" : 1000059004,
     "name" : "VK_STRUCTURE_TYPE_PHYSICAL_DEVICE_IMAGE_FORMAT_INFO_2_KHR"
    },
    {
     "enum_field_value" : 1000059005,
     "name" : "VK_STRUCTURE_TYPE_QUEUE_FAMILY_PROPERTIES_2_KHR"
    },
    {
     "enum_field_value" : 1000059006,
     "name" : "VK_STRUCTURE_TYPE_PHYSICAL_DEVICE_MEMORY_PROPERTIES_2_KHR"
    },
    {
     "enum_field_value" : 1000059007,
     "name" : "VK_STRUCTURE_TYPE_SPARSE_IMAGE_FORMAT_PROPERTIES_2_KHR"
    },
    {
     "enum_field_value" : 1000059008,
     "name" : "VK_STRUCTURE_TYPE_PHYSICAL_DEVICE_SPARSE_IMAGE_FORMAT_INFO_2_KHR"
    },
    {
     "enum_field_value" : 1000060000,
     "name" : "VK_STRUCTURE_TYPE_MEMORY_ALLOCATE_FLAGS_INFO_KHR"
    },
    {
     "enum_field_value" : 1000060003,
     "name" : "VK_STRUCTURE_TYPE_DEVICE_GROUP_RENDER_PASS_BEGIN_INFO_KHR"
    },
    {
     "enum_field_value" : 1000060004,
     "name" : "VK_STRUCTURE_TYPE_DEVICE_GROUP_COMMAND_BUFFER_BEGIN_INFO_KHR"
    },
    {
     "enum_field_value" : 1000060005,
     "name" : "VK_STRUCTURE_TYPE_DEVICE_GROUP_SUBMIT_INFO_KHR"
    },
    {
     "enum_field_value" : 1000060006,
     "name" : "VK_STRUCTURE_TYPE_DEVICE_GROUP_BIND_SPARSE_INFO_KHR"
    },
    {
     "enum_field_value" : 1000060013,
     "name" : "VK_STRUCTURE_TYPE_BIND_BUFFER_MEMORY_DEVICE_GROUP_INFO_KHR"
    },
    {
     "enum_field_value" : 1000060014,
     "name" : "VK_STRUCTURE_TYPE_BIND_IMAGE_MEMORY_DEVICE_GROUP_INFO_KHR"
    },
    {
     "enum_field_value" : 1000070000,
     "name" : "VK_STRUCTURE_TYPE_PHYSICAL_DEVICE_GROUP_PROPERTIES_KHR"
    },
    {
     "enum_field_value" : 1000070001,
     "name" : "VK_STRUCTURE_TYPE_DEVICE_GROUP_DEVICE_CREATE_INFO_KHR"
    },
    {
     "enum_field_value" : 1000071000,
     "name" : "VK_STRUCTURE_TYPE_PHYSICAL_DEVICE_EXTERNAL_IMAGE_FORMAT_INFO_KHR"
    },
    {
     "enum_field_value" : 1000071001,
     "name" : "VK_STRUCTURE_TYPE_EXTERNAL_IMAGE_FORMAT_PROPERTIES_KHR"
    },
    {
     "enum_field_value" : 1000071002,
     "name" : "VK_STRUCTURE_TYPE_PHYSICAL_DEVICE_EXTERNAL_BUFFER_INFO_KHR"
    },
    {
     "enum_field_value" : 1000071003,
     "name" : "VK_STRUCTURE_TYPE_EXTERNAL_BUFFER_PROPERTIES_KHR"
    },
    {
     "enum_field_value" : 1000071004,
     "name" : "VK_STRUCTURE_TYPE_PHYSICAL_DEVICE_ID_PROPERTIES_KHR"
    },
    {
     "enum_field_value" : 1000072000,
     "name" : "VK_STRUCTURE_TYPE_EXTERNAL_MEMORY_BUFFER_CREATE_INFO_KHR"
    },
    {
     "enum_field_value" : 1000072001,
     "name" : "VK_STRUCTURE_TYPE_EXTERNAL_MEMORY_IMAGE_CREATE_INFO_KHR"
    },
    {
     "enum_field_value" : 1000072002,
     "name" : "VK_STRUCTURE_TYPE_EXPORT_MEMORY_ALLOCATE_INFO_KHR"
    },
    {
     "enum_field_value" : 1000076000,
     "name" : "VK_STRUCTURE_TYPE_PHYSICAL_DEVICE_EXTERNAL_SEMAPHORE_INFO_KHR"
    },
    {
     "enum_field_value" : 1000076001,
     "name" : "VK_STRUCTURE_TYPE_EXTERNAL_SEMAPHORE_PROPERTIES_KHR"
    },
    {
     "enum_field_value" : 1000077000,
     "name" : "VK_STRUCTURE_TYPE_EXPORT_SEMAPHORE_CREATE_INFO_KHR"
    },
    {
     "enum_field_value" : 1000082000,
     "name" : "VK_STRUCTURE_TYPE_PHYSICAL_DEVICE_FLOAT16_INT8_FEATURES_KHR"
    },
    {
     "enum_field_value" : 1000083000,
     "name" : "VK_STRUCTURE_TYPE_PHYSICAL_DEVICE_16BIT_STORAGE_FEATURES_KHR"
    },
    {
     "enum_field_value" : 1000085000,
     "name" : "VK_STRUCTURE_TYPE_DESCRIPTOR_UPDATE_TEMPLATE_CREATE_INFO_KHR"
    },
    {
     "enum_field_value" : 1000090000,
     "name" : "VK_STRUCTURE_TYPE_SURFACE_CAPABILITIES2_EXT"
    },
    {
     "enum_field_value" : 1000112000,
     "name" : "VK_STRUCTURE_TYPE_PHYSICAL_DEVICE_EXTERNAL_FENCE_INFO_KHR"
    },
    {
     "enum_field_value" : 1000112001,
     "name" : "VK_STRUCTURE_TYPE_EXTERNAL_FENCE_PROPERTIES_KHR"
    },
    {
     "enum_field_value" : 1000113000,
     "name" : "VK_STRUCTURE_TYPE_EXPORT_FENCE_CREATE_INFO_KHR"
    },
    {
     "enum_field_value" : 1000117000,
     "name" : "VK_STRUCTURE_TYPE_PHYSICAL_DEVICE_POINT_CLIPPING_PROPERTIES_KHR"
    },
    {
     "enum_field_value" : 1000117001,
     "name" : "VK_STRUCTURE_TYPE_RENDER_PASS_INPUT_ATTACHMENT_ASPECT_CREATE_INFO_KHR"
    },
    {
     "enum_field_value" : 1000117002,
     "name" : "VK_STRUCTURE_TYPE_IMAGE_VIEW_USAGE_CREATE_INFO_KHR"
    },
    {
     "enum_field_value" : 1000117003,
     "name" : "VK_STRUCTURE_TYPE_PIPELINE_TESSELLATION_DOMAIN_ORIGIN_STATE_CREATE_INFO_KHR"
    },
    {
     "enum_field_value" : 1000120000,
     "name" : "VK_STRUCTURE_TYPE_PHYSICAL_DEVICE_VARIABLE_POINTER_FEATURES_KHR"
    },
    {
     "enum_field_value" : 1000120000,
     "name" : "VK_STRUCTURE_TYPE_PHYSICAL_DEVICE_VARIABLE_POINTERS_FEATURES_KHR"
    },
    {
     "enum_field_value" : 1000127000,
     "name" : "VK_STRUCTURE_TYPE_MEMORY_DEDICATED_REQUIREMENTS_KHR"
    },
    {
     "enum_field_value" : 1000127001,
     "name" : "VK_STRUCTURE_TYPE_MEMORY_DEDICATED_ALLOCATE_INFO_KHR"
    },
    {
     "enum_field_value" : 1000146000,
     "name" : "VK_STRUCTURE_TYPE_BUFFER_MEMORY_REQUIREMENTS_INFO_2_KHR"
    },
    {
     "enum_field_value" : 1000146001,
     "name" : "VK_STRUCTURE_TYPE_IMAGE_MEMORY_REQUIREMENTS_INFO_2_KHR"
    },
    {
     "enum_field_value" : 1000146002,
     "name" : "VK_STRUCTURE_TYPE_IMAGE_SPARSE_MEMORY_REQUIREMENTS_INFO_2_KHR"
    },
    {
     "enum_field_value" : 1000146003,
     "name" : "VK_STRUCTURE_TYPE_MEMORY_REQUIREMENTS_2_KHR"
    },
    {
     "enum_field_value" : 1000146004,
     "name" : "VK_STRUCTURE_TYPE_SPARSE_IMAGE_MEMORY_REQUIREMENTS_2_KHR"
    },
    {
     "enum_field_value" : 1000156000,
     "name" : "VK_STRUCTURE_TYPE_SAMPLER_YCBCR_CONVERSION_CREATE_INFO_KHR"
    },
    {
     "enum_field_value" : 1000156001,
     "name" : "VK_STRUCTURE_TYPE_SAMPLER_YCBCR_CONVERSION_INFO_KHR"
    },
    {
     "enum_field_value" : 1000156002,
     "name" : "VK_STRUCTURE_TYPE_BIND_IMAGE_PLANE_MEMORY_INFO_KHR"
    },
    {
     "enum_field_value" : 1000156003,
     "name" : "VK_STRUCTURE_TYPE_IMAGE_PLANE_MEMORY_REQUIREMENTS_INFO_KHR"
    },
    {
     "enum_field_value" : 1000156004,
     "name" : "VK_STRUCTURE_TYPE_PHYSICAL_DEVICE_SAMPLER_YCBCR_CONVERSION_FEATURES_KHR"
    },
    {
     "enum_field_value" : 1000156005,
     "name" : "VK_STRUCTURE_TYPE_SAMPLER_YCBCR_CONVERSION_IMAGE_FORMAT_PROPERTIES_KHR"
    },
    {
     "enum_field_value" : 1000157000,
     "name" : "VK_STRUCTURE_TYPE_BIND_BUFFER_MEMORY_INFO_KHR"
    },
    {
     "enum_field_value" : 1000157001,
     "name" : "VK_STRUCTURE_TYPE_BIND_IMAGE_MEMORY_INFO_KHR"
    },
    {
     "enum_field_value" : 1000168000,
     "name" : "VK_STRUCTURE_TYPE_PHYSICAL_DEVICE_MAINTENANCE_3_PROPERTIES_KHR"
    },
    {
     "enum_field_value" : 1000168001,
     "name" : "VK_STRUCTURE_TYPE_DESCRIPTOR_SET_LAYOUT_SUPPORT_KHR"
    },
    {
     "enum_field_value" : 1000244000,
     "name" : "VK_STRUCTURE_TYPE_PHYSICAL_DEVICE_BUFFER_ADDRESS_FEATURES_EXT"
    },
    {
     "enum_field_value" : 0,
     "name" : "VK_STRUCTURE_TYPE_BEGIN_RANGE"
    },
    {
     "enum_field_value" : 48,
     "name" : "VK_STRUCTURE_TYPE_END_RANGE"
    },
    {
     "enum_field_value" : 49,
     "name" : "VK_STRUCTURE_TYPE_RANGE_SIZE"
    },
    {
     "enum_field_value" : 2147483647,
     "name" : "VK_STRUCTURE_TYPE_MAX_ENUM"
    }
   ],
   "linker_set_key" : "_ZTI15VkStructureType",
   "name" : "VkStructureType",
   "referenced_type" : "_ZTI15VkStructureType",
   "self_type" : "_ZTI15VkStructureType",
   "size" : 4,
   "source_file" : "/external/vulkan-headers/include/vulkan/vulkan_core.h",
   "underlying_type" : "_ZTIj"
  },
  {
   "alignment" : 4,
   "enum_fields" :
   [
    {
     "enum_field_value" : 0,
     "name" : "VK_TIME_DOMAIN_DEVICE_EXT"
    },
    {
     "enum_field_value" : 1,
     "name" : "VK_TIME_DOMAIN_CLOCK_MONOTONIC_EXT"
    },
    {
     "enum_field_value" : 2,
     "name" : "VK_TIME_DOMAIN_CLOCK_MONOTONIC_RAW_EXT"
    },
    {
     "enum_field_value" : 3,
     "name" : "VK_TIME_DOMAIN_QUERY_PERFORMANCE_COUNTER_EXT"
    },
    {
     "enum_field_value" : 0,
     "name" : "VK_TIME_DOMAIN_BEGIN_RANGE_EXT"
    },
    {
     "enum_field_value" : 3,
     "name" : "VK_TIME_DOMAIN_END_RANGE_EXT"
    },
    {
     "enum_field_value" : 4,
     "name" : "VK_TIME_DOMAIN_RANGE_SIZE_EXT"
    },
    {
     "enum_field_value" : 2147483647,
     "name" : "VK_TIME_DOMAIN_MAX_ENUM_EXT"
    }
   ],
   "linker_set_key" : "_ZTI15VkTimeDomainEXT",
   "name" : "VkTimeDomainEXT",
   "referenced_type" : "_ZTI15VkTimeDomainEXT",
   "self_type" : "_ZTI15VkTimeDomainEXT",
   "size" : 4,
   "source_file" : "/external/vulkan-headers/include/vulkan/vulkan_core.h",
   "underlying_type" : "_ZTIj"
  },
  {
   "alignment" : 4,
   "enum_fields" :
   [
    {
     "enum_field_value" : 1,
     "name" : "VK_ACCESS_INDIRECT_COMMAND_READ_BIT"
    },
    {
     "enum_field_value" : 2,
     "name" : "VK_ACCESS_INDEX_READ_BIT"
    },
    {
     "enum_field_value" : 4,
     "name" : "VK_ACCESS_VERTEX_ATTRIBUTE_READ_BIT"
    },
    {
     "enum_field_value" : 8,
     "name" : "VK_ACCESS_UNIFORM_READ_BIT"
    },
    {
     "enum_field_value" : 16,
     "name" : "VK_ACCESS_INPUT_ATTACHMENT_READ_BIT"
    },
    {
     "enum_field_value" : 32,
     "name" : "VK_ACCESS_SHADER_READ_BIT"
    },
    {
     "enum_field_value" : 64,
     "name" : "VK_ACCESS_SHADER_WRITE_BIT"
    },
    {
     "enum_field_value" : 128,
     "name" : "VK_ACCESS_COLOR_ATTACHMENT_READ_BIT"
    },
    {
     "enum_field_value" : 256,
     "name" : "VK_ACCESS_COLOR_ATTACHMENT_WRITE_BIT"
    },
    {
     "enum_field_value" : 512,
     "name" : "VK_ACCESS_DEPTH_STENCIL_ATTACHMENT_READ_BIT"
    },
    {
     "enum_field_value" : 1024,
     "name" : "VK_ACCESS_DEPTH_STENCIL_ATTACHMENT_WRITE_BIT"
    },
    {
     "enum_field_value" : 2048,
     "name" : "VK_ACCESS_TRANSFER_READ_BIT"
    },
    {
     "enum_field_value" : 4096,
     "name" : "VK_ACCESS_TRANSFER_WRITE_BIT"
    },
    {
     "enum_field_value" : 8192,
     "name" : "VK_ACCESS_HOST_READ_BIT"
    },
    {
     "enum_field_value" : 16384,
     "name" : "VK_ACCESS_HOST_WRITE_BIT"
    },
    {
     "enum_field_value" : 32768,
     "name" : "VK_ACCESS_MEMORY_READ_BIT"
    },
    {
     "enum_field_value" : 65536,
     "name" : "VK_ACCESS_MEMORY_WRITE_BIT"
    },
    {
     "enum_field_value" : 33554432,
     "name" : "VK_ACCESS_TRANSFORM_FEEDBACK_WRITE_BIT_EXT"
    },
    {
     "enum_field_value" : 67108864,
     "name" : "VK_ACCESS_TRANSFORM_FEEDBACK_COUNTER_READ_BIT_EXT"
    },
    {
     "enum_field_value" : 134217728,
     "name" : "VK_ACCESS_TRANSFORM_FEEDBACK_COUNTER_WRITE_BIT_EXT"
    },
    {
     "enum_field_value" : 1048576,
     "name" : "VK_ACCESS_CONDITIONAL_RENDERING_READ_BIT_EXT"
    },
    {
     "enum_field_value" : 131072,
     "name" : "VK_ACCESS_COMMAND_PROCESS_READ_BIT_NVX"
    },
    {
     "enum_field_value" : 262144,
     "name" : "VK_ACCESS_COMMAND_PROCESS_WRITE_BIT_NVX"
    },
    {
     "enum_field_value" : 524288,
     "name" : "VK_ACCESS_COLOR_ATTACHMENT_READ_NONCOHERENT_BIT_EXT"
    },
    {
     "enum_field_value" : 8388608,
     "name" : "VK_ACCESS_SHADING_RATE_IMAGE_READ_BIT_NV"
    },
    {
     "enum_field_value" : 2097152,
     "name" : "VK_ACCESS_ACCELERATION_STRUCTURE_READ_BIT_NV"
    },
    {
     "enum_field_value" : 4194304,
     "name" : "VK_ACCESS_ACCELERATION_STRUCTURE_WRITE_BIT_NV"
    },
    {
     "enum_field_value" : 16777216,
     "name" : "VK_ACCESS_FRAGMENT_DENSITY_MAP_READ_BIT_EXT"
    },
    {
     "enum_field_value" : 2147483647,
     "name" : "VK_ACCESS_FLAG_BITS_MAX_ENUM"
    }
   ],
   "linker_set_key" : "_ZTI16VkAccessFlagBits",
   "name" : "VkAccessFlagBits",
   "referenced_type" : "_ZTI16VkAccessFlagBits",
   "self_type" : "_ZTI16VkAccessFlagBits",
   "size" : 4,
   "source_file" : "/external/vulkan-headers/include/vulkan/vulkan_core.h",
   "underlying_type" : "_ZTIj"
  },
  {
   "alignment" : 4,
   "enum_fields" :
   [
    {
     "enum_field_value" : 0,
     "name" : "VK_CHROMA_LOCATION_COSITED_EVEN"
    },
    {
     "enum_field_value" : 1,
     "name" : "VK_CHROMA_LOCATION_MIDPOINT"
    },
    {
     "enum_field_value" : 0,
     "name" : "VK_CHROMA_LOCATION_COSITED_EVEN_KHR"
    },
    {
     "enum_field_value" : 1,
     "name" : "VK_CHROMA_LOCATION_MIDPOINT_KHR"
    },
    {
     "enum_field_value" : 0,
     "name" : "VK_CHROMA_LOCATION_BEGIN_RANGE"
    },
    {
     "enum_field_value" : 1,
     "name" : "VK_CHROMA_LOCATION_END_RANGE"
    },
    {
     "enum_field_value" : 2,
     "name" : "VK_CHROMA_LOCATION_RANGE_SIZE"
    },
    {
     "enum_field_value" : 2147483647,
     "name" : "VK_CHROMA_LOCATION_MAX_ENUM"
    }
   ],
   "linker_set_key" : "_ZTI16VkChromaLocation",
   "name" : "VkChromaLocation",
   "referenced_type" : "_ZTI16VkChromaLocation",
   "self_type" : "_ZTI16VkChromaLocation",
   "size" : 4,
   "source_file" : "/external/vulkan-headers/include/vulkan/vulkan_core.h",
   "underlying_type" : "_ZTIj"
  },
  {
   "alignment" : 4,
   "enum_fields" :
   [
    {
     "enum_field_value" : 0,
     "name" : "VK_DESCRIPTOR_TYPE_SAMPLER"
    },
    {
     "enum_field_value" : 1,
     "name" : "VK_DESCRIPTOR_TYPE_COMBINED_IMAGE_SAMPLER"
    },
    {
     "enum_field_value" : 2,
     "name" : "VK_DESCRIPTOR_TYPE_SAMPLED_IMAGE"
    },
    {
     "enum_field_value" : 3,
     "name" : "VK_DESCRIPTOR_TYPE_STORAGE_IMAGE"
    },
    {
     "enum_field_value" : 4,
     "name" : "VK_DESCRIPTOR_TYPE_UNIFORM_TEXEL_BUFFER"
    },
    {
     "enum_field_value" : 5,
     "name" : "VK_DESCRIPTOR_TYPE_STORAGE_TEXEL_BUFFER"
    },
    {
     "enum_field_value" : 6,
     "name" : "VK_DESCRIPTOR_TYPE_UNIFORM_BUFFER"
    },
    {
     "enum_field_value" : 7,
     "name" : "VK_DESCRIPTOR_TYPE_STORAGE_BUFFER"
    },
    {
     "enum_field_value" : 8,
     "name" : "VK_DESCRIPTOR_TYPE_UNIFORM_BUFFER_DYNAMIC"
    },
    {
     "enum_field_value" : 9,
     "name" : "VK_DESCRIPTOR_TYPE_STORAGE_BUFFER_DYNAMIC"
    },
    {
     "enum_field_value" : 10,
     "name" : "VK_DESCRIPTOR_TYPE_INPUT_ATTACHMENT"
    },
    {
     "enum_field_value" : 1000138000,
     "name" : "VK_DESCRIPTOR_TYPE_INLINE_UNIFORM_BLOCK_EXT"
    },
    {
     "enum_field_value" : 1000165000,
     "name" : "VK_DESCRIPTOR_TYPE_ACCELERATION_STRUCTURE_NV"
    },
    {
     "enum_field_value" : 0,
     "name" : "VK_DESCRIPTOR_TYPE_BEGIN_RANGE"
    },
    {
     "enum_field_value" : 10,
     "name" : "VK_DESCRIPTOR_TYPE_END_RANGE"
    },
    {
     "enum_field_value" : 11,
     "name" : "VK_DESCRIPTOR_TYPE_RANGE_SIZE"
    },
    {
     "enum_field_value" : 2147483647,
     "name" : "VK_DESCRIPTOR_TYPE_MAX_ENUM"
    }
   ],
   "linker_set_key" : "_ZTI16VkDescriptorType",
   "name" : "VkDescriptorType",
   "referenced_type" : "_ZTI16VkDescriptorType",
   "self_type" : "_ZTI16VkDescriptorType",
   "size" : 4,
   "source_file" : "/external/vulkan-headers/include/vulkan/vulkan_core.h",
   "underlying_type" : "_ZTIj"
  },
  {
   "alignment" : 4,
   "enum_fields" :
   [
    {
     "enum_field_value" : 0,
     "name" : "VK_GEOMETRY_TYPE_TRIANGLES_NV"
    },
    {
     "enum_field_value" : 1,
     "name" : "VK_GEOMETRY_TYPE_AABBS_NV"
    },
    {
     "enum_field_value" : 0,
     "name" : "VK_GEOMETRY_TYPE_BEGIN_RANGE_NV"
    },
    {
     "enum_field_value" : 1,
     "name" : "VK_GEOMETRY_TYPE_END_RANGE_NV"
    },
    {
     "enum_field_value" : 2,
     "name" : "VK_GEOMETRY_TYPE_RANGE_SIZE_NV"
    },
    {
     "enum_field_value" : 2147483647,
     "name" : "VK_GEOMETRY_TYPE_MAX_ENUM_NV"
    }
   ],
   "linker_set_key" : "_ZTI16VkGeometryTypeNV",
   "name" : "VkGeometryTypeNV",
   "referenced_type" : "_ZTI16VkGeometryTypeNV",
   "self_type" : "_ZTI16VkGeometryTypeNV",
   "size" : 4,
   "source_file" : "/external/vulkan-headers/include/vulkan/vulkan_core.h",
   "underlying_type" : "_ZTIj"
  },
  {
   "alignment" : 4,
   "enum_fields" :
   [
    {
     "enum_field_value" : 0,
     "name" : "VK_PRESENT_MODE_IMMEDIATE_KHR"
    },
    {
     "enum_field_value" : 1,
     "name" : "VK_PRESENT_MODE_MAILBOX_KHR"
    },
    {
     "enum_field_value" : 2,
     "name" : "VK_PRESENT_MODE_FIFO_KHR"
    },
    {
     "enum_field_value" : 3,
     "name" : "VK_PRESENT_MODE_FIFO_RELAXED_KHR"
    },
    {
     "enum_field_value" : 1000111000,
     "name" : "VK_PRESENT_MODE_SHARED_DEMAND_REFRESH_KHR"
    },
    {
     "enum_field_value" : 1000111001,
     "name" : "VK_PRESENT_MODE_SHARED_CONTINUOUS_REFRESH_KHR"
    },
    {
     "enum_field_value" : 0,
     "name" : "VK_PRESENT_MODE_BEGIN_RANGE_KHR"
    },
    {
     "enum_field_value" : 3,
     "name" : "VK_PRESENT_MODE_END_RANGE_KHR"
    },
    {
     "enum_field_value" : 4,
     "name" : "VK_PRESENT_MODE_RANGE_SIZE_KHR"
    },
    {
     "enum_field_value" : 2147483647,
     "name" : "VK_PRESENT_MODE_MAX_ENUM_KHR"
    }
   ],
   "linker_set_key" : "_ZTI16VkPresentModeKHR",
   "name" : "VkPresentModeKHR",
   "referenced_type" : "_ZTI16VkPresentModeKHR",
   "self_type" : "_ZTI16VkPresentModeKHR",
   "size" : 4,
   "source_file" : "/external/vulkan-headers/include/vulkan/vulkan_core.h",
   "underlying_type" : "_ZTIj"
  },
  {
   "alignment" : 4,
   "enum_fields" :
   [
    {
     "enum_field_value" : 0,
     "name" : "VK_BLEND_OVERLAP_UNCORRELATED_EXT"
    },
    {
     "enum_field_value" : 1,
     "name" : "VK_BLEND_OVERLAP_DISJOINT_EXT"
    },
    {
     "enum_field_value" : 2,
     "name" : "VK_BLEND_OVERLAP_CONJOINT_EXT"
    },
    {
     "enum_field_value" : 0,
     "name" : "VK_BLEND_OVERLAP_BEGIN_RANGE_EXT"
    },
    {
     "enum_field_value" : 2,
     "name" : "VK_BLEND_OVERLAP_END_RANGE_EXT"
    },
    {
     "enum_field_value" : 3,
     "name" : "VK_BLEND_OVERLAP_RANGE_SIZE_EXT"
    },
    {
     "enum_field_value" : 2147483647,
     "name" : "VK_BLEND_OVERLAP_MAX_ENUM_EXT"
    }
   ],
   "linker_set_key" : "_ZTI17VkBlendOverlapEXT",
   "name" : "VkBlendOverlapEXT",
   "referenced_type" : "_ZTI17VkBlendOverlapEXT",
   "self_type" : "_ZTI17VkBlendOverlapEXT",
   "size" : 4,
   "source_file" : "/external/vulkan-headers/include/vulkan/vulkan_core.h",
   "underlying_type" : "_ZTIj"
  },
  {
   "alignment" : 4,
   "enum_fields" :
   [
    {
     "enum_field_value" : 0,
     "name" : "VK_COMPONENT_TYPE_FLOAT16_NV"
    },
    {
     "enum_field_value" : 1,
     "name" : "VK_COMPONENT_TYPE_FLOAT32_NV"
    },
    {
     "enum_field_value" : 2,
     "name" : "VK_COMPONENT_TYPE_FLOAT64_NV"
    },
    {
     "enum_field_value" : 3,
     "name" : "VK_COMPONENT_TYPE_SINT8_NV"
    },
    {
     "enum_field_value" : 4,
     "name" : "VK_COMPONENT_TYPE_SINT16_NV"
    },
    {
     "enum_field_value" : 5,
     "name" : "VK_COMPONENT_TYPE_SINT32_NV"
    },
    {
     "enum_field_value" : 6,
     "name" : "VK_COMPONENT_TYPE_SINT64_NV"
    },
    {
     "enum_field_value" : 7,
     "name" : "VK_COMPONENT_TYPE_UINT8_NV"
    },
    {
     "enum_field_value" : 8,
     "name" : "VK_COMPONENT_TYPE_UINT16_NV"
    },
    {
     "enum_field_value" : 9,
     "name" : "VK_COMPONENT_TYPE_UINT32_NV"
    },
    {
     "enum_field_value" : 10,
     "name" : "VK_COMPONENT_TYPE_UINT64_NV"
    },
    {
     "enum_field_value" : 0,
     "name" : "VK_COMPONENT_TYPE_BEGIN_RANGE_NV"
    },
    {
     "enum_field_value" : 10,
     "name" : "VK_COMPONENT_TYPE_END_RANGE_NV"
    },
    {
     "enum_field_value" : 11,
     "name" : "VK_COMPONENT_TYPE_RANGE_SIZE_NV"
    },
    {
     "enum_field_value" : 2147483647,
     "name" : "VK_COMPONENT_TYPE_MAX_ENUM_NV"
    }
   ],
   "linker_set_key" : "_ZTI17VkComponentTypeNV",
   "name" : "VkComponentTypeNV",
   "referenced_type" : "_ZTI17VkComponentTypeNV",
   "self_type" : "_ZTI17VkComponentTypeNV",
   "size" : 4,
   "source_file" : "/external/vulkan-headers/include/vulkan/vulkan_core.h",
   "underlying_type" : "_ZTIj"
  },
  {
   "alignment" : 4,
   "enum_fields" :
   [
    {
     "enum_field_value" : 0,
     "name" : "VK_SUBPASS_CONTENTS_INLINE"
    },
    {
     "enum_field_value" : 1,
     "name" : "VK_SUBPASS_CONTENTS_SECONDARY_COMMAND_BUFFERS"
    },
    {
     "enum_field_value" : 0,
     "name" : "VK_SUBPASS_CONTENTS_BEGIN_RANGE"
    },
    {
     "enum_field_value" : 1,
     "name" : "VK_SUBPASS_CONTENTS_END_RANGE"
    },
    {
     "enum_field_value" : 2,
     "name" : "VK_SUBPASS_CONTENTS_RANGE_SIZE"
    },
    {
     "enum_field_value" : 2147483647,
     "name" : "VK_SUBPASS_CONTENTS_MAX_ENUM"
    }
   ],
   "linker_set_key" : "_ZTI17VkSubpassContents",
   "name" : "VkSubpassContents",
   "referenced_type" : "_ZTI17VkSubpassContents",
   "self_type" : "_ZTI17VkSubpassContents",
   "size" : 4,
   "source_file" : "/external/vulkan-headers/include/vulkan/vulkan_core.h",
   "underlying_type" : "_ZTIj"
  },
  {
   "alignment" : 4,
   "enum_fields" :
   [
    {
     "enum_field_value" : 0,
     "name" : "VK_VERTEX_INPUT_RATE_VERTEX"
    },
    {
     "enum_field_value" : 1,
     "name" : "VK_VERTEX_INPUT_RATE_INSTANCE"
    },
    {
     "enum_field_value" : 0,
     "name" : "VK_VERTEX_INPUT_RATE_BEGIN_RANGE"
    },
    {
     "enum_field_value" : 1,
     "name" : "VK_VERTEX_INPUT_RATE_END_RANGE"
    },
    {
     "enum_field_value" : 2,
     "name" : "VK_VERTEX_INPUT_RATE_RANGE_SIZE"
    },
    {
     "enum_field_value" : 2147483647,
     "name" : "VK_VERTEX_INPUT_RATE_MAX_ENUM"
    }
   ],
   "linker_set_key" : "_ZTI17VkVertexInputRate",
   "name" : "VkVertexInputRate",
   "referenced_type" : "_ZTI17VkVertexInputRate",
   "self_type" : "_ZTI17VkVertexInputRate",
   "size" : 4,
   "source_file" : "/external/vulkan-headers/include/vulkan/vulkan_core.h",
   "underlying_type" : "_ZTIj"
  },
  {
   "alignment" : 4,
   "enum_fields" :
   [
    {
     "enum_field_value" : 0,
     "name" : "VK_ATTACHMENT_LOAD_OP_LOAD"
    },
    {
     "enum_field_value" : 1,
     "name" : "VK_ATTACHMENT_LOAD_OP_CLEAR"
    },
    {
     "enum_field_value" : 2,
     "name" : "VK_ATTACHMENT_LOAD_OP_DONT_CARE"
    },
    {
     "enum_field_value" : 0,
     "name" : "VK_ATTACHMENT_LOAD_OP_BEGIN_RANGE"
    },
    {
     "enum_field_value" : 2,
     "name" : "VK_ATTACHMENT_LOAD_OP_END_RANGE"
    },
    {
     "enum_field_value" : 3,
     "name" : "VK_ATTACHMENT_LOAD_OP_RANGE_SIZE"
    },
    {
     "enum_field_value" : 2147483647,
     "name" : "VK_ATTACHMENT_LOAD_OP_MAX_ENUM"
    }
   ],
   "linker_set_key" : "_ZTI18VkAttachmentLoadOp",
   "name" : "VkAttachmentLoadOp",
   "referenced_type" : "_ZTI18VkAttachmentLoadOp",
   "self_type" : "_ZTI18VkAttachmentLoadOp",
   "size" : 4,
   "source_file" : "/external/vulkan-headers/include/vulkan/vulkan_core.h",
   "underlying_type" : "_ZTIj"
  },
  {
   "alignment" : 4,
   "enum_fields" :
   [
    {
     "enum_field_value" : 0,
     "name" : "VK_COMPONENT_SWIZZLE_IDENTITY"
    },
    {
     "enum_field_value" : 1,
     "name" : "VK_COMPONENT_SWIZZLE_ZERO"
    },
    {
     "enum_field_value" : 2,
     "name" : "VK_COMPONENT_SWIZZLE_ONE"
    },
    {
     "enum_field_value" : 3,
     "name" : "VK_COMPONENT_SWIZZLE_R"
    },
    {
     "enum_field_value" : 4,
     "name" : "VK_COMPONENT_SWIZZLE_G"
    },
    {
     "enum_field_value" : 5,
     "name" : "VK_COMPONENT_SWIZZLE_B"
    },
    {
     "enum_field_value" : 6,
     "name" : "VK_COMPONENT_SWIZZLE_A"
    },
    {
     "enum_field_value" : 0,
     "name" : "VK_COMPONENT_SWIZZLE_BEGIN_RANGE"
    },
    {
     "enum_field_value" : 6,
     "name" : "VK_COMPONENT_SWIZZLE_END_RANGE"
    },
    {
     "enum_field_value" : 7,
     "name" : "VK_COMPONENT_SWIZZLE_RANGE_SIZE"
    },
    {
     "enum_field_value" : 2147483647,
     "name" : "VK_COMPONENT_SWIZZLE_MAX_ENUM"
    }
   ],
   "linker_set_key" : "_ZTI18VkComponentSwizzle",
   "name" : "VkComponentSwizzle",
   "referenced_type" : "_ZTI18VkComponentSwizzle",
   "self_type" : "_ZTI18VkComponentSwizzle",
   "size" : 4,
   "source_file" : "/external/vulkan-headers/include/vulkan/vulkan_core.h",
   "underlying_type" : "_ZTIj"
  },
  {
   "alignment" : 4,
   "enum_fields" :
   [
    {
     "enum_field_value" : 0,
     "name" : "VK_CULL_MODE_NONE"
    },
    {
     "enum_field_value" : 1,
     "name" : "VK_CULL_MODE_FRONT_BIT"
    },
    {
     "enum_field_value" : 2,
     "name" : "VK_CULL_MODE_BACK_BIT"
    },
    {
     "enum_field_value" : 3,
     "name" : "VK_CULL_MODE_FRONT_AND_BACK"
    },
    {
     "enum_field_value" : 2147483647,
     "name" : "VK_CULL_MODE_FLAG_BITS_MAX_ENUM"
    }
   ],
   "linker_set_key" : "_ZTI18VkCullModeFlagBits",
   "name" : "VkCullModeFlagBits",
   "referenced_type" : "_ZTI18VkCullModeFlagBits",
   "self_type" : "_ZTI18VkCullModeFlagBits",
   "size" : 4,
   "source_file" : "/external/vulkan-headers/include/vulkan/vulkan_core.h",
   "underlying_type" : "_ZTIj"
  },
  {
   "alignment" : 4,
   "enum_fields" :
   [
    {
     "enum_field_value" : 0,
     "name" : "VK_ATTACHMENT_STORE_OP_STORE"
    },
    {
     "enum_field_value" : 1,
     "name" : "VK_ATTACHMENT_STORE_OP_DONT_CARE"
    },
    {
     "enum_field_value" : 0,
     "name" : "VK_ATTACHMENT_STORE_OP_BEGIN_RANGE"
    },
    {
     "enum_field_value" : 1,
     "name" : "VK_ATTACHMENT_STORE_OP_END_RANGE"
    },
    {
     "enum_field_value" : 2,
     "name" : "VK_ATTACHMENT_STORE_OP_RANGE_SIZE"
    },
    {
     "enum_field_value" : 2147483647,
     "name" : "VK_ATTACHMENT_STORE_OP_MAX_ENUM"
    }
   ],
   "linker_set_key" : "_ZTI19VkAttachmentStoreOp",
   "name" : "VkAttachmentStoreOp",
   "referenced_type" : "_ZTI19VkAttachmentStoreOp",
   "self_type" : "_ZTI19VkAttachmentStoreOp",
   "size" : 4,
   "source_file" : "/external/vulkan-headers/include/vulkan/vulkan_core.h",
   "underlying_type" : "_ZTIj"
  },
  {
   "alignment" : 4,
   "enum_fields" :
   [
    {
     "enum_field_value" : 0,
     "name" : "VK_PIPELINE_BIND_POINT_GRAPHICS"
    },
    {
     "enum_field_value" : 1,
     "name" : "VK_PIPELINE_BIND_POINT_COMPUTE"
    },
    {
     "enum_field_value" : 1000165000,
     "name" : "VK_PIPELINE_BIND_POINT_RAY_TRACING_NV"
    },
    {
     "enum_field_value" : 0,
     "name" : "VK_PIPELINE_BIND_POINT_BEGIN_RANGE"
    },
    {
     "enum_field_value" : 1,
     "name" : "VK_PIPELINE_BIND_POINT_END_RANGE"
    },
    {
     "enum_field_value" : 2,
     "name" : "VK_PIPELINE_BIND_POINT_RANGE_SIZE"
    },
    {
     "enum_field_value" : 2147483647,
     "name" : "VK_PIPELINE_BIND_POINT_MAX_ENUM"
    }
   ],
   "linker_set_key" : "_ZTI19VkPipelineBindPoint",
   "name" : "VkPipelineBindPoint",
   "referenced_type" : "_ZTI19VkPipelineBindPoint",
   "self_type" : "_ZTI19VkPipelineBindPoint",
   "size" : 4,
   "source_file" : "/external/vulkan-headers/include/vulkan/vulkan_core.h",
   "underlying_type" : "_ZTIj"
  },
  {
   "alignment" : 4,
   "enum_fields" :
   [
    {
     "enum_field_value" : 0,
     "name" : "VK_PRIMITIVE_TOPOLOGY_POINT_LIST"
    },
    {
     "enum_field_value" : 1,
     "name" : "VK_PRIMITIVE_TOPOLOGY_LINE_LIST"
    },
    {
     "enum_field_value" : 2,
     "name" : "VK_PRIMITIVE_TOPOLOGY_LINE_STRIP"
    },
    {
     "enum_field_value" : 3,
     "name" : "VK_PRIMITIVE_TOPOLOGY_TRIANGLE_LIST"
    },
    {
     "enum_field_value" : 4,
     "name" : "VK_PRIMITIVE_TOPOLOGY_TRIANGLE_STRIP"
    },
    {
     "enum_field_value" : 5,
     "name" : "VK_PRIMITIVE_TOPOLOGY_TRIANGLE_FAN"
    },
    {
     "enum_field_value" : 6,
     "name" : "VK_PRIMITIVE_TOPOLOGY_LINE_LIST_WITH_ADJACENCY"
    },
    {
     "enum_field_value" : 7,
     "name" : "VK_PRIMITIVE_TOPOLOGY_LINE_STRIP_WITH_ADJACENCY"
    },
    {
     "enum_field_value" : 8,
     "name" : "VK_PRIMITIVE_TOPOLOGY_TRIANGLE_LIST_WITH_ADJACENCY"
    },
    {
     "enum_field_value" : 9,
     "name" : "VK_PRIMITIVE_TOPOLOGY_TRIANGLE_STRIP_WITH_ADJACENCY"
    },
    {
     "enum_field_value" : 10,
     "name" : "VK_PRIMITIVE_TOPOLOGY_PATCH_LIST"
    },
    {
     "enum_field_value" : 0,
     "name" : "VK_PRIMITIVE_TOPOLOGY_BEGIN_RANGE"
    },
    {
     "enum_field_value" : 10,
     "name" : "VK_PRIMITIVE_TOPOLOGY_END_RANGE"
    },
    {
     "enum_field_value" : 11,
     "name" : "VK_PRIMITIVE_TOPOLOGY_RANGE_SIZE"
    },
    {
     "enum_field_value" : 2147483647,
     "name" : "VK_PRIMITIVE_TOPOLOGY_MAX_ENUM"
    }
   ],
   "linker_set_key" : "_ZTI19VkPrimitiveTopology",
   "name" : "VkPrimitiveTopology",
   "referenced_type" : "_ZTI19VkPrimitiveTopology",
   "self_type" : "_ZTI19VkPrimitiveTopology",
   "size" : 4,
   "source_file" : "/external/vulkan-headers/include/vulkan/vulkan_core.h",
   "underlying_type" : "_ZTIj"
  },
  {
   "alignment" : 4,
   "enum_fields" :
   [
    {
     "enum_field_value" : 0,
     "name" : "VK_SAMPLER_MIPMAP_MODE_NEAREST"
    },
    {
     "enum_field_value" : 1,
     "name" : "VK_SAMPLER_MIPMAP_MODE_LINEAR"
    },
    {
     "enum_field_value" : 0,
     "name" : "VK_SAMPLER_MIPMAP_MODE_BEGIN_RANGE"
    },
    {
     "enum_field_value" : 1,
     "name" : "VK_SAMPLER_MIPMAP_MODE_END_RANGE"
    },
    {
     "enum_field_value" : 2,
     "name" : "VK_SAMPLER_MIPMAP_MODE_RANGE_SIZE"
    },
    {
     "enum_field_value" : 2147483647,
     "name" : "VK_SAMPLER_MIPMAP_MODE_MAX_ENUM"
    }
   ],
   "linker_set_key" : "_ZTI19VkSamplerMipmapMode",
   "name" : "VkSamplerMipmapMode",
   "referenced_type" : "_ZTI19VkSamplerMipmapMode",
   "self_type" : "_ZTI19VkSamplerMipmapMode",
   "size" : 4,
   "source_file" : "/external/vulkan-headers/include/vulkan/vulkan_core.h",
   "underlying_type" : "_ZTIj"
  },
  {
   "alignment" : 4,
   "enum_fields" :
   [
    {
     "enum_field_value" : 0,
     "name" : "VK_SAMPLER_YCBCR_RANGE_ITU_FULL"
    },
    {
     "enum_field_value" : 1,
     "name" : "VK_SAMPLER_YCBCR_RANGE_ITU_NARROW"
    },
    {
     "enum_field_value" : 0,
     "name" : "VK_SAMPLER_YCBCR_RANGE_ITU_FULL_KHR"
    },
    {
     "enum_field_value" : 1,
     "name" : "VK_SAMPLER_YCBCR_RANGE_ITU_NARROW_KHR"
    },
    {
     "enum_field_value" : 0,
     "name" : "VK_SAMPLER_YCBCR_RANGE_BEGIN_RANGE"
    },
    {
     "enum_field_value" : 1,
     "name" : "VK_SAMPLER_YCBCR_RANGE_END_RANGE"
    },
    {
     "enum_field_value" : 2,
     "name" : "VK_SAMPLER_YCBCR_RANGE_RANGE_SIZE"
    },
    {
     "enum_field_value" : 2147483647,
     "name" : "VK_SAMPLER_YCBCR_RANGE_MAX_ENUM"
    }
   ],
   "linker_set_key" : "_ZTI19VkSamplerYcbcrRange",
   "name" : "VkSamplerYcbcrRange",
   "referenced_type" : "_ZTI19VkSamplerYcbcrRange",
   "self_type" : "_ZTI19VkSamplerYcbcrRange",
   "size" : 4,
   "source_file" : "/external/vulkan-headers/include/vulkan/vulkan_core.h",
   "underlying_type" : "_ZTIj"
  },
  {
   "alignment" : 4,
   "enum_fields" :
   [
    {
     "enum_field_value" : 0,
     "name" : "VK_SHADER_INFO_TYPE_STATISTICS_AMD"
    },
    {
     "enum_field_value" : 1,
     "name" : "VK_SHADER_INFO_TYPE_BINARY_AMD"
    },
    {
     "enum_field_value" : 2,
     "name" : "VK_SHADER_INFO_TYPE_DISASSEMBLY_AMD"
    },
    {
     "enum_field_value" : 0,
     "name" : "VK_SHADER_INFO_TYPE_BEGIN_RANGE_AMD"
    },
    {
     "enum_field_value" : 2,
     "name" : "VK_SHADER_INFO_TYPE_END_RANGE_AMD"
    },
    {
     "enum_field_value" : 3,
     "name" : "VK_SHADER_INFO_TYPE_RANGE_SIZE_AMD"
    },
    {
     "enum_field_value" : 2147483647,
     "name" : "VK_SHADER_INFO_TYPE_MAX_ENUM_AMD"
    }
   ],
   "linker_set_key" : "_ZTI19VkShaderInfoTypeAMD",
   "name" : "VkShaderInfoTypeAMD",
   "referenced_type" : "_ZTI19VkShaderInfoTypeAMD",
   "self_type" : "_ZTI19VkShaderInfoTypeAMD",
   "size" : 4,
   "source_file" : "/external/vulkan-headers/include/vulkan/vulkan_core.h",
   "underlying_type" : "_ZTIj"
  },
  {
   "alignment" : 4,
   "enum_fields" :
   [
    {
     "enum_field_value" : 0,
     "name" : "VK_COMMAND_BUFFER_LEVEL_PRIMARY"
    },
    {
     "enum_field_value" : 1,
     "name" : "VK_COMMAND_BUFFER_LEVEL_SECONDARY"
    },
    {
     "enum_field_value" : 0,
     "name" : "VK_COMMAND_BUFFER_LEVEL_BEGIN_RANGE"
    },
    {
     "enum_field_value" : 1,
     "name" : "VK_COMMAND_BUFFER_LEVEL_END_RANGE"
    },
    {
     "enum_field_value" : 2,
     "name" : "VK_COMMAND_BUFFER_LEVEL_RANGE_SIZE"
    },
    {
     "enum_field_value" : 2147483647,
     "name" : "VK_COMMAND_BUFFER_LEVEL_MAX_ENUM"
    }
   ],
   "linker_set_key" : "_ZTI20VkCommandBufferLevel",
   "name" : "VkCommandBufferLevel",
   "referenced_type" : "_ZTI20VkCommandBufferLevel",
   "self_type" : "_ZTI20VkCommandBufferLevel",
   "size" : 4,
   "source_file" : "/external/vulkan-headers/include/vulkan/vulkan_core.h",
   "underlying_type" : "_ZTIj"
  },
  {
   "alignment" : 4,
   "enum_fields" :
   [
    {
     "enum_field_value" : 1,
     "name" : "VK_DEPENDENCY_BY_REGION_BIT"
    },
    {
     "enum_field_value" : 4,
     "name" : "VK_DEPENDENCY_DEVICE_GROUP_BIT"
    },
    {
     "enum_field_value" : 2,
     "name" : "VK_DEPENDENCY_VIEW_LOCAL_BIT"
    },
    {
     "enum_field_value" : 2,
     "name" : "VK_DEPENDENCY_VIEW_LOCAL_BIT_KHR"
    },
    {
     "enum_field_value" : 4,
     "name" : "VK_DEPENDENCY_DEVICE_GROUP_BIT_KHR"
    },
    {
     "enum_field_value" : 2147483647,
     "name" : "VK_DEPENDENCY_FLAG_BITS_MAX_ENUM"
    }
   ],
   "linker_set_key" : "_ZTI20VkDependencyFlagBits",
   "name" : "VkDependencyFlagBits",
   "referenced_type" : "_ZTI20VkDependencyFlagBits",
   "self_type" : "_ZTI20VkDependencyFlagBits",
   "size" : 4,
   "source_file" : "/external/vulkan-headers/include/vulkan/vulkan_core.h",
   "underlying_type" : "_ZTIj"
  },
  {
   "alignment" : 4,
   "enum_fields" :
   [
    {
     "enum_field_value" : 0,
     "name" : "VK_DEVICE_EVENT_TYPE_DISPLAY_HOTPLUG_EXT"
    },
    {
     "enum_field_value" : 0,
     "name" : "VK_DEVICE_EVENT_TYPE_BEGIN_RANGE_EXT"
    },
    {
     "enum_field_value" : 0,
     "name" : "VK_DEVICE_EVENT_TYPE_END_RANGE_EXT"
    },
    {
     "enum_field_value" : 1,
     "name" : "VK_DEVICE_EVENT_TYPE_RANGE_SIZE_EXT"
    },
    {
     "enum_field_value" : 2147483647,
     "name" : "VK_DEVICE_EVENT_TYPE_MAX_ENUM_EXT"
    }
   ],
   "linker_set_key" : "_ZTI20VkDeviceEventTypeEXT",
   "name" : "VkDeviceEventTypeEXT",
   "referenced_type" : "_ZTI20VkDeviceEventTypeEXT",
   "self_type" : "_ZTI20VkDeviceEventTypeEXT",
   "size" : 4,
   "source_file" : "/external/vulkan-headers/include/vulkan/vulkan_core.h",
   "underlying_type" : "_ZTIj"
  },
  {
   "alignment" : 4,
   "enum_fields" :
   [
    {
     "enum_field_value" : 1,
     "name" : "VK_GEOMETRY_OPAQUE_BIT_NV"
    },
    {
     "enum_field_value" : 2,
     "name" : "VK_GEOMETRY_NO_DUPLICATE_ANY_HIT_INVOCATION_BIT_NV"
    },
    {
     "enum_field_value" : 2147483647,
     "name" : "VK_GEOMETRY_FLAG_BITS_MAX_ENUM_NV"
    }
   ],
   "linker_set_key" : "_ZTI20VkGeometryFlagBitsNV",
   "name" : "VkGeometryFlagBitsNV",
   "referenced_type" : "_ZTI20VkGeometryFlagBitsNV",
   "self_type" : "_ZTI20VkGeometryFlagBitsNV",
   "size" : 4,
   "source_file" : "/external/vulkan-headers/include/vulkan/vulkan_core.h",
   "underlying_type" : "_ZTIj"
  },
  {
   "alignment" : 4,
   "enum_fields" :
   [
    {
     "enum_field_value" : 1,
     "name" : "VK_IMAGE_USAGE_TRANSFER_SRC_BIT"
    },
    {
     "enum_field_value" : 2,
     "name" : "VK_IMAGE_USAGE_TRANSFER_DST_BIT"
    },
    {
     "enum_field_value" : 4,
     "name" : "VK_IMAGE_USAGE_SAMPLED_BIT"
    },
    {
     "enum_field_value" : 8,
     "name" : "VK_IMAGE_USAGE_STORAGE_BIT"
    },
    {
     "enum_field_value" : 16,
     "name" : "VK_IMAGE_USAGE_COLOR_ATTACHMENT_BIT"
    },
    {
     "enum_field_value" : 32,
     "name" : "VK_IMAGE_USAGE_DEPTH_STENCIL_ATTACHMENT_BIT"
    },
    {
     "enum_field_value" : 64,
     "name" : "VK_IMAGE_USAGE_TRANSIENT_ATTACHMENT_BIT"
    },
    {
     "enum_field_value" : 128,
     "name" : "VK_IMAGE_USAGE_INPUT_ATTACHMENT_BIT"
    },
    {
     "enum_field_value" : 256,
     "name" : "VK_IMAGE_USAGE_SHADING_RATE_IMAGE_BIT_NV"
    },
    {
     "enum_field_value" : 512,
     "name" : "VK_IMAGE_USAGE_FRAGMENT_DENSITY_MAP_BIT_EXT"
    },
    {
     "enum_field_value" : 2147483647,
     "name" : "VK_IMAGE_USAGE_FLAG_BITS_MAX_ENUM"
    }
   ],
   "linker_set_key" : "_ZTI20VkImageUsageFlagBits",
   "name" : "VkImageUsageFlagBits",
   "referenced_type" : "_ZTI20VkImageUsageFlagBits",
   "self_type" : "_ZTI20VkImageUsageFlagBits",
   "size" : 4,
   "source_file" : "/external/vulkan-headers/include/vulkan/vulkan_core.h",
   "underlying_type" : "_ZTIj"
  },
  {
   "alignment" : 4,
   "enum_fields" :
   [
    {
     "enum_field_value" : 1,
     "name" : "VK_MEMORY_HEAP_DEVICE_LOCAL_BIT"
    },
    {
     "enum_field_value" : 2,
     "name" : "VK_MEMORY_HEAP_MULTI_INSTANCE_BIT"
    },
    {
     "enum_field_value" : 2,
     "name" : "VK_MEMORY_HEAP_MULTI_INSTANCE_BIT_KHR"
    },
    {
     "enum_field_value" : 2147483647,
     "name" : "VK_MEMORY_HEAP_FLAG_BITS_MAX_ENUM"
    }
   ],
   "linker_set_key" : "_ZTI20VkMemoryHeapFlagBits",
   "name" : "VkMemoryHeapFlagBits",
   "referenced_type" : "_ZTI20VkMemoryHeapFlagBits",
   "self_type" : "_ZTI20VkMemoryHeapFlagBits",
   "size" : 4,
   "source_file" : "/external/vulkan-headers/include/vulkan/vulkan_core.h",
   "underlying_type" : "_ZTIj"
  },
  {
   "alignment" : 4,
   "enum_fields" :
   [
    {
     "enum_field_value" : 0,
     "name" : "VK_OBJECT_ENTRY_TYPE_DESCRIPTOR_SET_NVX"
    },
    {
     "enum_field_value" : 1,
     "name" : "VK_OBJECT_ENTRY_TYPE_PIPELINE_NVX"
    },
    {
     "enum_field_value" : 2,
     "name" : "VK_OBJECT_ENTRY_TYPE_INDEX_BUFFER_NVX"
    },
    {
     "enum_field_value" : 3,
     "name" : "VK_OBJECT_ENTRY_TYPE_VERTEX_BUFFER_NVX"
    },
    {
     "enum_field_value" : 4,
     "name" : "VK_OBJECT_ENTRY_TYPE_PUSH_CONSTANT_NVX"
    },
    {
     "enum_field_value" : 0,
     "name" : "VK_OBJECT_ENTRY_TYPE_BEGIN_RANGE_NVX"
    },
    {
     "enum_field_value" : 4,
     "name" : "VK_OBJECT_ENTRY_TYPE_END_RANGE_NVX"
    },
    {
     "enum_field_value" : 5,
     "name" : "VK_OBJECT_ENTRY_TYPE_RANGE_SIZE_NVX"
    },
    {
     "enum_field_value" : 2147483647,
     "name" : "VK_OBJECT_ENTRY_TYPE_MAX_ENUM_NVX"
    }
   ],
   "linker_set_key" : "_ZTI20VkObjectEntryTypeNVX",
   "name" : "VkObjectEntryTypeNVX",
   "referenced_type" : "_ZTI20VkObjectEntryTypeNVX",
   "self_type" : "_ZTI20VkObjectEntryTypeNVX",
   "size" : 4,
   "source_file" : "/external/vulkan-headers/include/vulkan/vulkan_core.h",
   "underlying_type" : "_ZTIj"
  },
  {
   "alignment" : 4,
   "enum_fields" :
   [
    {
     "enum_field_value" : 0,
     "name" : "VK_PHYSICAL_DEVICE_TYPE_OTHER"
    },
    {
     "enum_field_value" : 1,
     "name" : "VK_PHYSICAL_DEVICE_TYPE_INTEGRATED_GPU"
    },
    {
     "enum_field_value" : 2,
     "name" : "VK_PHYSICAL_DEVICE_TYPE_DISCRETE_GPU"
    },
    {
     "enum_field_value" : 3,
     "name" : "VK_PHYSICAL_DEVICE_TYPE_VIRTUAL_GPU"
    },
    {
     "enum_field_value" : 4,
     "name" : "VK_PHYSICAL_DEVICE_TYPE_CPU"
    },
    {
     "enum_field_value" : 0,
     "name" : "VK_PHYSICAL_DEVICE_TYPE_BEGIN_RANGE"
    },
    {
     "enum_field_value" : 4,
     "name" : "VK_PHYSICAL_DEVICE_TYPE_END_RANGE"
    },
    {
     "enum_field_value" : 5,
     "name" : "VK_PHYSICAL_DEVICE_TYPE_RANGE_SIZE"
    },
    {
     "enum_field_value" : 2147483647,
     "name" : "VK_PHYSICAL_DEVICE_TYPE_MAX_ENUM"
    }
   ],
   "linker_set_key" : "_ZTI20VkPhysicalDeviceType",
   "name" : "VkPhysicalDeviceType",
   "referenced_type" : "_ZTI20VkPhysicalDeviceType",
   "self_type" : "_ZTI20VkPhysicalDeviceType",
   "size" : 4,
   "source_file" : "/external/vulkan-headers/include/vulkan/vulkan_core.h",
   "underlying_type" : "_ZTIj"
  },
  {
   "alignment" : 4,
   "enum_fields" :
   [
    {
     "enum_field_value" : 0,
     "name" : "VK_SAMPLER_ADDRESS_MODE_REPEAT"
    },
    {
     "enum_field_value" : 1,
     "name" : "VK_SAMPLER_ADDRESS_MODE_MIRRORED_REPEAT"
    },
    {
     "enum_field_value" : 2,
     "name" : "VK_SAMPLER_ADDRESS_MODE_CLAMP_TO_EDGE"
    },
    {
     "enum_field_value" : 3,
     "name" : "VK_SAMPLER_ADDRESS_MODE_CLAMP_TO_BORDER"
    },
    {
     "enum_field_value" : 4,
     "name" : "VK_SAMPLER_ADDRESS_MODE_MIRROR_CLAMP_TO_EDGE"
    },
    {
     "enum_field_value" : 4,
     "name" : "VK_SAMPLER_ADDRESS_MODE_MIRROR_CLAMP_TO_EDGE_KHR"
    },
    {
     "enum_field_value" : 0,
     "name" : "VK_SAMPLER_ADDRESS_MODE_BEGIN_RANGE"
    },
    {
     "enum_field_value" : 3,
     "name" : "VK_SAMPLER_ADDRESS_MODE_END_RANGE"
    },
    {
     "enum_field_value" : 4,
     "name" : "VK_SAMPLER_ADDRESS_MODE_RANGE_SIZE"
    },
    {
     "enum_field_value" : 2147483647,
     "name" : "VK_SAMPLER_ADDRESS_MODE_MAX_ENUM"
    }
   ],
   "linker_set_key" : "_ZTI20VkSamplerAddressMode",
   "name" : "VkSamplerAddressMode",
   "referenced_type" : "_ZTI20VkSamplerAddressMode",
   "self_type" : "_ZTI20VkSamplerAddressMode",
   "size" : 4,
   "source_file" : "/external/vulkan-headers/include/vulkan/vulkan_core.h",
   "underlying_type" : "_ZTIj"
  },
  {
   "alignment" : 4,
   "enum_fields" :
   [
    {
     "enum_field_value" : 0,
     "name" : "VK_VALIDATION_CHECK_ALL_EXT"
    },
    {
     "enum_field_value" : 1,
     "name" : "VK_VALIDATION_CHECK_SHADERS_EXT"
    },
    {
     "enum_field_value" : 0,
     "name" : "VK_VALIDATION_CHECK_BEGIN_RANGE_EXT"
    },
    {
     "enum_field_value" : 1,
     "name" : "VK_VALIDATION_CHECK_END_RANGE_EXT"
    },
    {
     "enum_field_value" : 2,
     "name" : "VK_VALIDATION_CHECK_RANGE_SIZE_EXT"
    },
    {
     "enum_field_value" : 2147483647,
     "name" : "VK_VALIDATION_CHECK_MAX_ENUM_EXT"
    }
   ],
   "linker_set_key" : "_ZTI20VkValidationCheckEXT",
   "name" : "VkValidationCheckEXT",
   "referenced_type" : "_ZTI20VkValidationCheckEXT",
   "self_type" : "_ZTI20VkValidationCheckEXT",
   "size" : 4,
   "source_file" : "/external/vulkan-headers/include/vulkan/vulkan_core.h",
   "underlying_type" : "_ZTIj"
  },
  {
   "alignment" : 4,
   "enum_fields" :
   [
    {
     "enum_field_value" : 1,
     "name" : "VK_BUFFER_USAGE_TRANSFER_SRC_BIT"
    },
    {
     "enum_field_value" : 2,
     "name" : "VK_BUFFER_USAGE_TRANSFER_DST_BIT"
    },
    {
     "enum_field_value" : 4,
     "name" : "VK_BUFFER_USAGE_UNIFORM_TEXEL_BUFFER_BIT"
    },
    {
     "enum_field_value" : 8,
     "name" : "VK_BUFFER_USAGE_STORAGE_TEXEL_BUFFER_BIT"
    },
    {
     "enum_field_value" : 16,
     "name" : "VK_BUFFER_USAGE_UNIFORM_BUFFER_BIT"
    },
    {
     "enum_field_value" : 32,
     "name" : "VK_BUFFER_USAGE_STORAGE_BUFFER_BIT"
    },
    {
     "enum_field_value" : 64,
     "name" : "VK_BUFFER_USAGE_INDEX_BUFFER_BIT"
    },
    {
     "enum_field_value" : 128,
     "name" : "VK_BUFFER_USAGE_VERTEX_BUFFER_BIT"
    },
    {
     "enum_field_value" : 256,
     "name" : "VK_BUFFER_USAGE_INDIRECT_BUFFER_BIT"
    },
    {
     "enum_field_value" : 2048,
     "name" : "VK_BUFFER_USAGE_TRANSFORM_FEEDBACK_BUFFER_BIT_EXT"
    },
    {
     "enum_field_value" : 4096,
     "name" : "VK_BUFFER_USAGE_TRANSFORM_FEEDBACK_COUNTER_BUFFER_BIT_EXT"
    },
    {
     "enum_field_value" : 512,
     "name" : "VK_BUFFER_USAGE_CONDITIONAL_RENDERING_BIT_EXT"
    },
    {
     "enum_field_value" : 1024,
     "name" : "VK_BUFFER_USAGE_RAY_TRACING_BIT_NV"
    },
    {
     "enum_field_value" : 131072,
     "name" : "VK_BUFFER_USAGE_SHADER_DEVICE_ADDRESS_BIT_EXT"
    },
    {
     "enum_field_value" : 2147483647,
     "name" : "VK_BUFFER_USAGE_FLAG_BITS_MAX_ENUM"
    }
   ],
   "linker_set_key" : "_ZTI21VkBufferUsageFlagBits",
   "name" : "VkBufferUsageFlagBits",
   "referenced_type" : "_ZTI21VkBufferUsageFlagBits",
   "self_type" : "_ZTI21VkBufferUsageFlagBits",
   "size" : 4,
   "source_file" : "/external/vulkan-headers/include/vulkan/vulkan_core.h",
   "underlying_type" : "_ZTIj"
  },
  {
   "alignment" : 4,
   "enum_fields" :
   [
    {
     "enum_field_value" : 0,
     "name" : "VK_DISPLAY_EVENT_TYPE_FIRST_PIXEL_OUT_EXT"
    },
    {
     "enum_field_value" : 0,
     "name" : "VK_DISPLAY_EVENT_TYPE_BEGIN_RANGE_EXT"
    },
    {
     "enum_field_value" : 0,
     "name" : "VK_DISPLAY_EVENT_TYPE_END_RANGE_EXT"
    },
    {
     "enum_field_value" : 1,
     "name" : "VK_DISPLAY_EVENT_TYPE_RANGE_SIZE_EXT"
    },
    {
     "enum_field_value" : 2147483647,
     "name" : "VK_DISPLAY_EVENT_TYPE_MAX_ENUM_EXT"
    }
   ],
   "linker_set_key" : "_ZTI21VkDisplayEventTypeEXT",
   "name" : "VkDisplayEventTypeEXT",
   "referenced_type" : "_ZTI21VkDisplayEventTypeEXT",
   "self_type" : "_ZTI21VkDisplayEventTypeEXT",
   "size" : 4,
   "source_file" : "/external/vulkan-headers/include/vulkan/vulkan_core.h",
   "underlying_type" : "_ZTIj"
  },
  {
   "alignment" : 4,
   "enum_fields" :
   [
    {
     "enum_field_value" : 1,
     "name" : "VK_FENCE_CREATE_SIGNALED_BIT"
    },
    {
     "enum_field_value" : 2147483647,
     "name" : "VK_FENCE_CREATE_FLAG_BITS_MAX_ENUM"
    }
   ],
   "linker_set_key" : "_ZTI21VkFenceCreateFlagBits",
   "name" : "VkFenceCreateFlagBits",
   "referenced_type" : "_ZTI21VkFenceCreateFlagBits",
   "self_type" : "_ZTI21VkFenceCreateFlagBits",
   "size" : 4,
   "source_file" : "/external/vulkan-headers/include/vulkan/vulkan_core.h",
   "underlying_type" : "_ZTIj"
  },
  {
   "alignment" : 4,
   "enum_fields" :
   [
    {
     "enum_field_value" : 1,
     "name" : "VK_FENCE_IMPORT_TEMPORARY_BIT"
    },
    {
     "enum_field_value" : 1,
     "name" : "VK_FENCE_IMPORT_TEMPORARY_BIT_KHR"
    },
    {
     "enum_field_value" : 2147483647,
     "name" : "VK_FENCE_IMPORT_FLAG_BITS_MAX_ENUM"
    }
   ],
   "linker_set_key" : "_ZTI21VkFenceImportFlagBits",
   "name" : "VkFenceImportFlagBits",
   "referenced_type" : "_ZTI21VkFenceImportFlagBits",
   "self_type" : "_ZTI21VkFenceImportFlagBits",
   "size" : 4,
   "source_file" : "/external/vulkan-headers/include/vulkan/vulkan_core.h",
   "underlying_type" : "_ZTIj"
  },
  {
   "alignment" : 4,
   "enum_fields" :
   [
    {
     "enum_field_value" : 1,
     "name" : "VK_IMAGE_ASPECT_COLOR_BIT"
    },
    {
     "enum_field_value" : 2,
     "name" : "VK_IMAGE_ASPECT_DEPTH_BIT"
    },
    {
     "enum_field_value" : 4,
     "name" : "VK_IMAGE_ASPECT_STENCIL_BIT"
    },
    {
     "enum_field_value" : 8,
     "name" : "VK_IMAGE_ASPECT_METADATA_BIT"
    },
    {
     "enum_field_value" : 16,
     "name" : "VK_IMAGE_ASPECT_PLANE_0_BIT"
    },
    {
     "enum_field_value" : 32,
     "name" : "VK_IMAGE_ASPECT_PLANE_1_BIT"
    },
    {
     "enum_field_value" : 64,
     "name" : "VK_IMAGE_ASPECT_PLANE_2_BIT"
    },
    {
     "enum_field_value" : 128,
     "name" : "VK_IMAGE_ASPECT_MEMORY_PLANE_0_BIT_EXT"
    },
    {
     "enum_field_value" : 256,
     "name" : "VK_IMAGE_ASPECT_MEMORY_PLANE_1_BIT_EXT"
    },
    {
     "enum_field_value" : 512,
     "name" : "VK_IMAGE_ASPECT_MEMORY_PLANE_2_BIT_EXT"
    },
    {
     "enum_field_value" : 1024,
     "name" : "VK_IMAGE_ASPECT_MEMORY_PLANE_3_BIT_EXT"
    },
    {
     "enum_field_value" : 16,
     "name" : "VK_IMAGE_ASPECT_PLANE_0_BIT_KHR"
    },
    {
     "enum_field_value" : 32,
     "name" : "VK_IMAGE_ASPECT_PLANE_1_BIT_KHR"
    },
    {
     "enum_field_value" : 64,
     "name" : "VK_IMAGE_ASPECT_PLANE_2_BIT_KHR"
    },
    {
     "enum_field_value" : 2147483647,
     "name" : "VK_IMAGE_ASPECT_FLAG_BITS_MAX_ENUM"
    }
   ],
   "linker_set_key" : "_ZTI21VkImageAspectFlagBits",
   "name" : "VkImageAspectFlagBits",
   "referenced_type" : "_ZTI21VkImageAspectFlagBits",
   "self_type" : "_ZTI21VkImageAspectFlagBits",
   "size" : 4,
   "source_file" : "/external/vulkan-headers/include/vulkan/vulkan_core.h",
   "underlying_type" : "_ZTIj"
  },
  {
   "alignment" : 4,
   "enum_fields" :
   [
    {
     "enum_field_value" : 1,
     "name" : "VK_IMAGE_CREATE_SPARSE_BINDING_BIT"
    },
    {
     "enum_field_value" : 2,
     "name" : "VK_IMAGE_CREATE_SPARSE_RESIDENCY_BIT"
    },
    {
     "enum_field_value" : 4,
     "name" : "VK_IMAGE_CREATE_SPARSE_ALIASED_BIT"
    },
    {
     "enum_field_value" : 8,
     "name" : "VK_IMAGE_CREATE_MUTABLE_FORMAT_BIT"
    },
    {
     "enum_field_value" : 16,
     "name" : "VK_IMAGE_CREATE_CUBE_COMPATIBLE_BIT"
    },
    {
     "enum_field_value" : 1024,
     "name" : "VK_IMAGE_CREATE_ALIAS_BIT"
    },
    {
     "enum_field_value" : 64,
     "name" : "VK_IMAGE_CREATE_SPLIT_INSTANCE_BIND_REGIONS_BIT"
    },
    {
     "enum_field_value" : 32,
     "name" : "VK_IMAGE_CREATE_2D_ARRAY_COMPATIBLE_BIT"
    },
    {
     "enum_field_value" : 128,
     "name" : "VK_IMAGE_CREATE_BLOCK_TEXEL_VIEW_COMPATIBLE_BIT"
    },
    {
     "enum_field_value" : 256,
     "name" : "VK_IMAGE_CREATE_EXTENDED_USAGE_BIT"
    },
    {
     "enum_field_value" : 2048,
     "name" : "VK_IMAGE_CREATE_PROTECTED_BIT"
    },
    {
     "enum_field_value" : 512,
     "name" : "VK_IMAGE_CREATE_DISJOINT_BIT"
    },
    {
     "enum_field_value" : 8192,
     "name" : "VK_IMAGE_CREATE_CORNER_SAMPLED_BIT_NV"
    },
    {
     "enum_field_value" : 4096,
     "name" : "VK_IMAGE_CREATE_SAMPLE_LOCATIONS_COMPATIBLE_DEPTH_BIT_EXT"
    },
    {
     "enum_field_value" : 16384,
     "name" : "VK_IMAGE_CREATE_SUBSAMPLED_BIT_EXT"
    },
    {
     "enum_field_value" : 64,
     "name" : "VK_IMAGE_CREATE_SPLIT_INSTANCE_BIND_REGIONS_BIT_KHR"
    },
    {
     "enum_field_value" : 32,
     "name" : "VK_IMAGE_CREATE_2D_ARRAY_COMPATIBLE_BIT_KHR"
    },
    {
     "enum_field_value" : 128,
     "name" : "VK_IMAGE_CREATE_BLOCK_TEXEL_VIEW_COMPATIBLE_BIT_KHR"
    },
    {
     "enum_field_value" : 256,
     "name" : "VK_IMAGE_CREATE_EXTENDED_USAGE_BIT_KHR"
    },
    {
     "enum_field_value" : 512,
     "name" : "VK_IMAGE_CREATE_DISJOINT_BIT_KHR"
    },
    {
     "enum_field_value" : 1024,
     "name" : "VK_IMAGE_CREATE_ALIAS_BIT_KHR"
    },
    {
     "enum_field_value" : 2147483647,
     "name" : "VK_IMAGE_CREATE_FLAG_BITS_MAX_ENUM"
    }
   ],
   "linker_set_key" : "_ZTI21VkImageCreateFlagBits",
   "name" : "VkImageCreateFlagBits",
   "referenced_type" : "_ZTI21VkImageCreateFlagBits",
   "self_type" : "_ZTI21VkImageCreateFlagBits",
   "size" : 4,
   "source_file" : "/external/vulkan-headers/include/vulkan/vulkan_core.h",
   "underlying_type" : "_ZTIj"
  },
  {
   "alignment" : 4,
   "enum_fields" :
   [
    {
     "enum_field_value" : 1,
     "name" : "VK_QUERY_RESULT_64_BIT"
    },
    {
     "enum_field_value" : 2,
     "name" : "VK_QUERY_RESULT_WAIT_BIT"
    },
    {
     "enum_field_value" : 4,
     "name" : "VK_QUERY_RESULT_WITH_AVAILABILITY_BIT"
    },
    {
     "enum_field_value" : 8,
     "name" : "VK_QUERY_RESULT_PARTIAL_BIT"
    },
    {
     "enum_field_value" : 2147483647,
     "name" : "VK_QUERY_RESULT_FLAG_BITS_MAX_ENUM"
    }
   ],
   "linker_set_key" : "_ZTI21VkQueryResultFlagBits",
   "name" : "VkQueryResultFlagBits",
   "referenced_type" : "_ZTI21VkQueryResultFlagBits",
   "self_type" : "_ZTI21VkQueryResultFlagBits",
   "size" : 4,
   "source_file" : "/external/vulkan-headers/include/vulkan/vulkan_core.h",
   "underlying_type" : "_ZTIj"
  },
  {
   "alignment" : 4,
   "enum_fields" :
   [
    {
     "enum_field_value" : 1,
     "name" : "VK_SAMPLE_COUNT_1_BIT"
    },
    {
     "enum_field_value" : 2,
     "name" : "VK_SAMPLE_COUNT_2_BIT"
    },
    {
     "enum_field_value" : 4,
     "name" : "VK_SAMPLE_COUNT_4_BIT"
    },
    {
     "enum_field_value" : 8,
     "name" : "VK_SAMPLE_COUNT_8_BIT"
    },
    {
     "enum_field_value" : 16,
     "name" : "VK_SAMPLE_COUNT_16_BIT"
    },
    {
     "enum_field_value" : 32,
     "name" : "VK_SAMPLE_COUNT_32_BIT"
    },
    {
     "enum_field_value" : 64,
     "name" : "VK_SAMPLE_COUNT_64_BIT"
    },
    {
     "enum_field_value" : 2147483647,
     "name" : "VK_SAMPLE_COUNT_FLAG_BITS_MAX_ENUM"
    }
   ],
   "linker_set_key" : "_ZTI21VkSampleCountFlagBits",
   "name" : "VkSampleCountFlagBits",
   "referenced_type" : "_ZTI21VkSampleCountFlagBits",
   "self_type" : "_ZTI21VkSampleCountFlagBits",
   "size" : 4,
   "source_file" : "/external/vulkan-headers/include/vulkan/vulkan_core.h",
   "underlying_type" : "_ZTIj"
  },
  {
   "alignment" : 4,
   "enum_fields" :
   [
    {
     "enum_field_value" : 1,
     "name" : "VK_SHADER_STAGE_VERTEX_BIT"
    },
    {
     "enum_field_value" : 2,
     "name" : "VK_SHADER_STAGE_TESSELLATION_CONTROL_BIT"
    },
    {
     "enum_field_value" : 4,
     "name" : "VK_SHADER_STAGE_TESSELLATION_EVALUATION_BIT"
    },
    {
     "enum_field_value" : 8,
     "name" : "VK_SHADER_STAGE_GEOMETRY_BIT"
    },
    {
     "enum_field_value" : 16,
     "name" : "VK_SHADER_STAGE_FRAGMENT_BIT"
    },
    {
     "enum_field_value" : 32,
     "name" : "VK_SHADER_STAGE_COMPUTE_BIT"
    },
    {
     "enum_field_value" : 31,
     "name" : "VK_SHADER_STAGE_ALL_GRAPHICS"
    },
    {
     "enum_field_value" : 2147483647,
     "name" : "VK_SHADER_STAGE_ALL"
    },
    {
     "enum_field_value" : 256,
     "name" : "VK_SHADER_STAGE_RAYGEN_BIT_NV"
    },
    {
     "enum_field_value" : 512,
     "name" : "VK_SHADER_STAGE_ANY_HIT_BIT_NV"
    },
    {
     "enum_field_value" : 1024,
     "name" : "VK_SHADER_STAGE_CLOSEST_HIT_BIT_NV"
    },
    {
     "enum_field_value" : 2048,
     "name" : "VK_SHADER_STAGE_MISS_BIT_NV"
    },
    {
     "enum_field_value" : 4096,
     "name" : "VK_SHADER_STAGE_INTERSECTION_BIT_NV"
    },
    {
     "enum_field_value" : 8192,
     "name" : "VK_SHADER_STAGE_CALLABLE_BIT_NV"
    },
    {
     "enum_field_value" : 64,
     "name" : "VK_SHADER_STAGE_TASK_BIT_NV"
    },
    {
     "enum_field_value" : 128,
     "name" : "VK_SHADER_STAGE_MESH_BIT_NV"
    },
    {
     "enum_field_value" : 2147483647,
     "name" : "VK_SHADER_STAGE_FLAG_BITS_MAX_ENUM"
    }
   ],
   "linker_set_key" : "_ZTI21VkShaderStageFlagBits",
   "name" : "VkShaderStageFlagBits",
   "referenced_type" : "_ZTI21VkShaderStageFlagBits",
   "self_type" : "_ZTI21VkShaderStageFlagBits",
   "size" : 4,
   "source_file" : "/external/vulkan-headers/include/vulkan/vulkan_core.h",
   "underlying_type" : "_ZTIj"
  },
  {
   "alignment" : 4,
   "enum_fields" :
   [
    {
     "enum_field_value" : 1,
     "name" : "VK_STENCIL_FACE_FRONT_BIT"
    },
    {
     "enum_field_value" : 2,
     "name" : "VK_STENCIL_FACE_BACK_BIT"
    },
    {
     "enum_field_value" : 3,
     "name" : "VK_STENCIL_FACE_FRONT_AND_BACK"
    },
    {
     "enum_field_value" : 3,
     "name" : "VK_STENCIL_FRONT_AND_BACK"
    },
    {
     "enum_field_value" : 2147483647,
     "name" : "VK_STENCIL_FACE_FLAG_BITS_MAX_ENUM"
    }
   ],
   "linker_set_key" : "_ZTI21VkStencilFaceFlagBits",
   "name" : "VkStencilFaceFlagBits",
   "referenced_type" : "_ZTI21VkStencilFaceFlagBits",
   "self_type" : "_ZTI21VkStencilFaceFlagBits",
   "size" : 4,
   "source_file" : "/external/vulkan-headers/include/vulkan/vulkan_core.h",
   "underlying_type" : "_ZTIj"
  },
  {
   "alignment" : 4,
   "enum_fields" :
   [
    {
     "enum_field_value" : 1,
     "name" : "VK_BUFFER_CREATE_SPARSE_BINDING_BIT"
    },
    {
     "enum_field_value" : 2,
     "name" : "VK_BUFFER_CREATE_SPARSE_RESIDENCY_BIT"
    },
    {
     "enum_field_value" : 4,
     "name" : "VK_BUFFER_CREATE_SPARSE_ALIASED_BIT"
    },
    {
     "enum_field_value" : 8,
     "name" : "VK_BUFFER_CREATE_PROTECTED_BIT"
    },
    {
     "enum_field_value" : 16,
     "name" : "VK_BUFFER_CREATE_DEVICE_ADDRESS_CAPTURE_REPLAY_BIT_EXT"
    },
    {
     "enum_field_value" : 2147483647,
     "name" : "VK_BUFFER_CREATE_FLAG_BITS_MAX_ENUM"
    }
   ],
   "linker_set_key" : "_ZTI22VkBufferCreateFlagBits",
   "name" : "VkBufferCreateFlagBits",
   "referenced_type" : "_ZTI22VkBufferCreateFlagBits",
   "self_type" : "_ZTI22VkBufferCreateFlagBits",
   "size" : 4,
   "source_file" : "/external/vulkan-headers/include/vulkan/vulkan_core.h",
   "underlying_type" : "_ZTIj"
  },
  {
   "alignment" : 4,
   "enum_fields" :
   [
    {
     "enum_field_value" : 0,
     "name" : "VK_DISPLAY_POWER_STATE_OFF_EXT"
    },
    {
     "enum_field_value" : 1,
     "name" : "VK_DISPLAY_POWER_STATE_SUSPEND_EXT"
    },
    {
     "enum_field_value" : 2,
     "name" : "VK_DISPLAY_POWER_STATE_ON_EXT"
    },
    {
     "enum_field_value" : 0,
     "name" : "VK_DISPLAY_POWER_STATE_BEGIN_RANGE_EXT"
    },
    {
     "enum_field_value" : 2,
     "name" : "VK_DISPLAY_POWER_STATE_END_RANGE_EXT"
    },
    {
     "enum_field_value" : 3,
     "name" : "VK_DISPLAY_POWER_STATE_RANGE_SIZE_EXT"
    },
    {
     "enum_field_value" : 2147483647,
     "name" : "VK_DISPLAY_POWER_STATE_MAX_ENUM_EXT"
    }
   ],
   "linker_set_key" : "_ZTI22VkDisplayPowerStateEXT",
   "name" : "VkDisplayPowerStateEXT",
   "referenced_type" : "_ZTI22VkDisplayPowerStateEXT",
   "self_type" : "_ZTI22VkDisplayPowerStateEXT",
   "size" : 4,
   "source_file" : "/external/vulkan-headers/include/vulkan/vulkan_core.h",
   "underlying_type" : "_ZTIj"
  },
  {
   "alignment" : 4,
   "enum_fields" :
   [
    {
     "enum_field_value" : 1,
     "name" : "VK_QUERY_CONTROL_PRECISE_BIT"
    },
    {
     "enum_field_value" : 2147483647,
     "name" : "VK_QUERY_CONTROL_FLAG_BITS_MAX_ENUM"
    }
   ],
   "linker_set_key" : "_ZTI22VkQueryControlFlagBits",
   "name" : "VkQueryControlFlagBits",
   "referenced_type" : "_ZTI22VkQueryControlFlagBits",
   "self_type" : "_ZTI22VkQueryControlFlagBits",
   "size" : 4,
   "source_file" : "/external/vulkan-headers/include/vulkan/vulkan_core.h",
   "underlying_type" : "_ZTIj"
  },
  {
   "alignment" : 4,
   "enum_fields" :
   [
    {
     "enum_field_value" : 1,
     "name" : "VK_FORMAT_FEATURE_SAMPLED_IMAGE_BIT"
    },
    {
     "enum_field_value" : 2,
     "name" : "VK_FORMAT_FEATURE_STORAGE_IMAGE_BIT"
    },
    {
     "enum_field_value" : 4,
     "name" : "VK_FORMAT_FEATURE_STORAGE_IMAGE_ATOMIC_BIT"
    },
    {
     "enum_field_value" : 8,
     "name" : "VK_FORMAT_FEATURE_UNIFORM_TEXEL_BUFFER_BIT"
    },
    {
     "enum_field_value" : 16,
     "name" : "VK_FORMAT_FEATURE_STORAGE_TEXEL_BUFFER_BIT"
    },
    {
     "enum_field_value" : 32,
     "name" : "VK_FORMAT_FEATURE_STORAGE_TEXEL_BUFFER_ATOMIC_BIT"
    },
    {
     "enum_field_value" : 64,
     "name" : "VK_FORMAT_FEATURE_VERTEX_BUFFER_BIT"
    },
    {
     "enum_field_value" : 128,
     "name" : "VK_FORMAT_FEATURE_COLOR_ATTACHMENT_BIT"
    },
    {
     "enum_field_value" : 256,
     "name" : "VK_FORMAT_FEATURE_COLOR_ATTACHMENT_BLEND_BIT"
    },
    {
     "enum_field_value" : 512,
     "name" : "VK_FORMAT_FEATURE_DEPTH_STENCIL_ATTACHMENT_BIT"
    },
    {
     "enum_field_value" : 1024,
     "name" : "VK_FORMAT_FEATURE_BLIT_SRC_BIT"
    },
    {
     "enum_field_value" : 2048,
     "name" : "VK_FORMAT_FEATURE_BLIT_DST_BIT"
    },
    {
     "enum_field_value" : 4096,
     "name" : "VK_FORMAT_FEATURE_SAMPLED_IMAGE_FILTER_LINEAR_BIT"
    },
    {
     "enum_field_value" : 16384,
     "name" : "VK_FORMAT_FEATURE_TRANSFER_SRC_BIT"
    },
    {
     "enum_field_value" : 32768,
     "name" : "VK_FORMAT_FEATURE_TRANSFER_DST_BIT"
    },
    {
     "enum_field_value" : 131072,
     "name" : "VK_FORMAT_FEATURE_MIDPOINT_CHROMA_SAMPLES_BIT"
    },
    {
     "enum_field_value" : 262144,
     "name" : "VK_FORMAT_FEATURE_SAMPLED_IMAGE_YCBCR_CONVERSION_LINEAR_FILTER_BIT"
    },
    {
     "enum_field_value" : 524288,
     "name" : "VK_FORMAT_FEATURE_SAMPLED_IMAGE_YCBCR_CONVERSION_SEPARATE_RECONSTRUCTION_FILTER_BIT"
    },
    {
     "enum_field_value" : 1048576,
     "name" : "VK_FORMAT_FEATURE_SAMPLED_IMAGE_YCBCR_CONVERSION_CHROMA_RECONSTRUCTION_EXPLICIT_BIT"
    },
    {
     "enum_field_value" : 2097152,
     "name" : "VK_FORMAT_FEATURE_SAMPLED_IMAGE_YCBCR_CONVERSION_CHROMA_RECONSTRUCTION_EXPLICIT_FORCEABLE_BIT"
    },
    {
     "enum_field_value" : 4194304,
     "name" : "VK_FORMAT_FEATURE_DISJOINT_BIT"
    },
    {
     "enum_field_value" : 8388608,
     "name" : "VK_FORMAT_FEATURE_COSITED_CHROMA_SAMPLES_BIT"
    },
    {
     "enum_field_value" : 8192,
     "name" : "VK_FORMAT_FEATURE_SAMPLED_IMAGE_FILTER_CUBIC_BIT_IMG"
    },
    {
     "enum_field_value" : 65536,
     "name" : "VK_FORMAT_FEATURE_SAMPLED_IMAGE_FILTER_MINMAX_BIT_EXT"
    },
    {
     "enum_field_value" : 16777216,
     "name" : "VK_FORMAT_FEATURE_FRAGMENT_DENSITY_MAP_BIT_EXT"
    },
    {
     "enum_field_value" : 16384,
     "name" : "VK_FORMAT_FEATURE_TRANSFER_SRC_BIT_KHR"
    },
    {
     "enum_field_value" : 32768,
     "name" : "VK_FORMAT_FEATURE_TRANSFER_DST_BIT_KHR"
    },
    {
     "enum_field_value" : 131072,
     "name" : "VK_FORMAT_FEATURE_MIDPOINT_CHROMA_SAMPLES_BIT_KHR"
    },
    {
     "enum_field_value" : 262144,
     "name" : "VK_FORMAT_FEATURE_SAMPLED_IMAGE_YCBCR_CONVERSION_LINEAR_FILTER_BIT_KHR"
    },
    {
     "enum_field_value" : 524288,
     "name" : "VK_FORMAT_FEATURE_SAMPLED_IMAGE_YCBCR_CONVERSION_SEPARATE_RECONSTRUCTION_FILTER_BIT_KHR"
    },
    {
     "enum_field_value" : 1048576,
     "name" : "VK_FORMAT_FEATURE_SAMPLED_IMAGE_YCBCR_CONVERSION_CHROMA_RECONSTRUCTION_EXPLICIT_BIT_KHR"
    },
    {
     "enum_field_value" : 2097152,
     "name" : "VK_FORMAT_FEATURE_SAMPLED_IMAGE_YCBCR_CONVERSION_CHROMA_RECONSTRUCTION_EXPLICIT_FORCEABLE_BIT_KHR"
    },
    {
     "enum_field_value" : 4194304,
     "name" : "VK_FORMAT_FEATURE_DISJOINT_BIT_KHR"
    },
    {
     "enum_field_value" : 8388608,
     "name" : "VK_FORMAT_FEATURE_COSITED_CHROMA_SAMPLES_BIT_KHR"
    },
    {
     "enum_field_value" : 8192,
     "name" : "VK_FORMAT_FEATURE_SAMPLED_IMAGE_FILTER_CUBIC_BIT_EXT"
    },
    {
     "enum_field_value" : 2147483647,
     "name" : "VK_FORMAT_FEATURE_FLAG_BITS_MAX_ENUM"
    }
   ],
   "linker_set_key" : "_ZTI23VkFormatFeatureFlagBits",
   "name" : "VkFormatFeatureFlagBits",
   "referenced_type" : "_ZTI23VkFormatFeatureFlagBits",
   "self_type" : "_ZTI23VkFormatFeatureFlagBits",
   "size" : 4,
   "source_file" : "/external/vulkan-headers/include/vulkan/vulkan_core.h",
   "underlying_type" : "_ZTIj"
  },
  {
   "alignment" : 4,
   "enum_fields" :
   [
    {
     "enum_field_value" : 1,
     "name" : "VK_PIPELINE_STAGE_TOP_OF_PIPE_BIT"
    },
    {
     "enum_field_value" : 2,
     "name" : "VK_PIPELINE_STAGE_DRAW_INDIRECT_BIT"
    },
    {
     "enum_field_value" : 4,
     "name" : "VK_PIPELINE_STAGE_VERTEX_INPUT_BIT"
    },
    {
     "enum_field_value" : 8,
     "name" : "VK_PIPELINE_STAGE_VERTEX_SHADER_BIT"
    },
    {
     "enum_field_value" : 16,
     "name" : "VK_PIPELINE_STAGE_TESSELLATION_CONTROL_SHADER_BIT"
    },
    {
     "enum_field_value" : 32,
     "name" : "VK_PIPELINE_STAGE_TESSELLATION_EVALUATION_SHADER_BIT"
    },
    {
     "enum_field_value" : 64,
     "name" : "VK_PIPELINE_STAGE_GEOMETRY_SHADER_BIT"
    },
    {
     "enum_field_value" : 128,
     "name" : "VK_PIPELINE_STAGE_FRAGMENT_SHADER_BIT"
    },
    {
     "enum_field_value" : 256,
     "name" : "VK_PIPELINE_STAGE_EARLY_FRAGMENT_TESTS_BIT"
    },
    {
     "enum_field_value" : 512,
     "name" : "VK_PIPELINE_STAGE_LATE_FRAGMENT_TESTS_BIT"
    },
    {
     "enum_field_value" : 1024,
     "name" : "VK_PIPELINE_STAGE_COLOR_ATTACHMENT_OUTPUT_BIT"
    },
    {
     "enum_field_value" : 2048,
     "name" : "VK_PIPELINE_STAGE_COMPUTE_SHADER_BIT"
    },
    {
     "enum_field_value" : 4096,
     "name" : "VK_PIPELINE_STAGE_TRANSFER_BIT"
    },
    {
     "enum_field_value" : 8192,
     "name" : "VK_PIPELINE_STAGE_BOTTOM_OF_PIPE_BIT"
    },
    {
     "enum_field_value" : 16384,
     "name" : "VK_PIPELINE_STAGE_HOST_BIT"
    },
    {
     "enum_field_value" : 32768,
     "name" : "VK_PIPELINE_STAGE_ALL_GRAPHICS_BIT"
    },
    {
     "enum_field_value" : 65536,
     "name" : "VK_PIPELINE_STAGE_ALL_COMMANDS_BIT"
    },
    {
     "enum_field_value" : 16777216,
     "name" : "VK_PIPELINE_STAGE_TRANSFORM_FEEDBACK_BIT_EXT"
    },
    {
     "enum_field_value" : 262144,
     "name" : "VK_PIPELINE_STAGE_CONDITIONAL_RENDERING_BIT_EXT"
    },
    {
     "enum_field_value" : 131072,
     "name" : "VK_PIPELINE_STAGE_COMMAND_PROCESS_BIT_NVX"
    },
    {
     "enum_field_value" : 4194304,
     "name" : "VK_PIPELINE_STAGE_SHADING_RATE_IMAGE_BIT_NV"
    },
    {
     "enum_field_value" : 2097152,
     "name" : "VK_PIPELINE_STAGE_RAY_TRACING_SHADER_BIT_NV"
    },
    {
     "enum_field_value" : 33554432,
     "name" : "VK_PIPELINE_STAGE_ACCELERATION_STRUCTURE_BUILD_BIT_NV"
    },
    {
     "enum_field_value" : 524288,
     "name" : "VK_PIPELINE_STAGE_TASK_SHADER_BIT_NV"
    },
    {
     "enum_field_value" : 1048576,
     "name" : "VK_PIPELINE_STAGE_MESH_SHADER_BIT_NV"
    },
    {
     "enum_field_value" : 8388608,
     "name" : "VK_PIPELINE_STAGE_FRAGMENT_DENSITY_PROCESS_BIT_EXT"
    },
    {
     "enum_field_value" : 2147483647,
     "name" : "VK_PIPELINE_STAGE_FLAG_BITS_MAX_ENUM"
    }
   ],
   "linker_set_key" : "_ZTI23VkPipelineStageFlagBits",
   "name" : "VkPipelineStageFlagBits",
   "referenced_type" : "_ZTI23VkPipelineStageFlagBits",
   "self_type" : "_ZTI23VkPipelineStageFlagBits",
   "size" : 4,
   "source_file" : "/external/vulkan-headers/include/vulkan/vulkan_core.h",
   "underlying_type" : "_ZTIj"
  },
  {
   "alignment" : 4,
   "enum_fields" :
   [
    {
     "enum_field_value" : 0,
     "name" : "VK_POINT_CLIPPING_BEHAVIOR_ALL_CLIP_PLANES"
    },
    {
     "enum_field_value" : 1,
     "name" : "VK_POINT_CLIPPING_BEHAVIOR_USER_CLIP_PLANES_ONLY"
    },
    {
     "enum_field_value" : 0,
     "name" : "VK_POINT_CLIPPING_BEHAVIOR_ALL_CLIP_PLANES_KHR"
    },
    {
     "enum_field_value" : 1,
     "name" : "VK_POINT_CLIPPING_BEHAVIOR_USER_CLIP_PLANES_ONLY_KHR"
    },
    {
     "enum_field_value" : 0,
     "name" : "VK_POINT_CLIPPING_BEHAVIOR_BEGIN_RANGE"
    },
    {
     "enum_field_value" : 1,
     "name" : "VK_POINT_CLIPPING_BEHAVIOR_END_RANGE"
    },
    {
     "enum_field_value" : 2,
     "name" : "VK_POINT_CLIPPING_BEHAVIOR_RANGE_SIZE"
    },
    {
     "enum_field_value" : 2147483647,
     "name" : "VK_POINT_CLIPPING_BEHAVIOR_MAX_ENUM"
    }
   ],
   "linker_set_key" : "_ZTI23VkPointClippingBehavior",
   "name" : "VkPointClippingBehavior",
   "referenced_type" : "_ZTI23VkPointClippingBehavior",
   "self_type" : "_ZTI23VkPointClippingBehavior",
   "size" : 4,
   "source_file" : "/external/vulkan-headers/include/vulkan/vulkan_core.h",
   "underlying_type" : "_ZTIj"
  },
  {
   "alignment" : 4,
   "enum_fields" :
   [
    {
     "enum_field_value" : 0,
     "name" : "VK_RASTERIZATION_ORDER_STRICT_AMD"
    },
    {
     "enum_field_value" : 1,
     "name" : "VK_RASTERIZATION_ORDER_RELAXED_AMD"
    },
    {
     "enum_field_value" : 0,
     "name" : "VK_RASTERIZATION_ORDER_BEGIN_RANGE_AMD"
    },
    {
     "enum_field_value" : 1,
     "name" : "VK_RASTERIZATION_ORDER_END_RANGE_AMD"
    },
    {
     "enum_field_value" : 2,
     "name" : "VK_RASTERIZATION_ORDER_RANGE_SIZE_AMD"
    },
    {
     "enum_field_value" : 2147483647,
     "name" : "VK_RASTERIZATION_ORDER_MAX_ENUM_AMD"
    }
   ],
   "linker_set_key" : "_ZTI23VkRasterizationOrderAMD",
   "name" : "VkRasterizationOrderAMD",
   "referenced_type" : "_ZTI23VkRasterizationOrderAMD",
   "self_type" : "_ZTI23VkRasterizationOrderAMD",
   "size" : 4,
   "source_file" : "/external/vulkan-headers/include/vulkan/vulkan_core.h",
   "underlying_type" : "_ZTIj"
  },
  {
   "alignment" : 4,
   "enum_fields" :
   [
    {
     "enum_field_value" : 1,
     "name" : "VK_SAMPLER_CREATE_SUBSAMPLED_BIT_EXT"
    },
    {
     "enum_field_value" : 2,
     "name" : "VK_SAMPLER_CREATE_SUBSAMPLED_COARSE_RECONSTRUCTION_BIT_EXT"
    },
    {
     "enum_field_value" : 2147483647,
     "name" : "VK_SAMPLER_CREATE_FLAG_BITS_MAX_ENUM"
    }
   ],
   "linker_set_key" : "_ZTI23VkSamplerCreateFlagBits",
   "name" : "VkSamplerCreateFlagBits",
   "referenced_type" : "_ZTI23VkSamplerCreateFlagBits",
   "self_type" : "_ZTI23VkSamplerCreateFlagBits",
   "size" : 4,
   "source_file" : "/external/vulkan-headers/include/vulkan/vulkan_core.h",
   "underlying_type" : "_ZTIj"
  },
  {
   "alignment" : 4,
   "enum_fields" :
   [
    {
     "enum_field_value" : 0,
     "name" : "VK_SYSTEM_ALLOCATION_SCOPE_COMMAND"
    },
    {
     "enum_field_value" : 1,
     "name" : "VK_SYSTEM_ALLOCATION_SCOPE_OBJECT"
    },
    {
     "enum_field_value" : 2,
     "name" : "VK_SYSTEM_ALLOCATION_SCOPE_CACHE"
    },
    {
     "enum_field_value" : 3,
     "name" : "VK_SYSTEM_ALLOCATION_SCOPE_DEVICE"
    },
    {
     "enum_field_value" : 4,
     "name" : "VK_SYSTEM_ALLOCATION_SCOPE_INSTANCE"
    },
    {
     "enum_field_value" : 0,
     "name" : "VK_SYSTEM_ALLOCATION_SCOPE_BEGIN_RANGE"
    },
    {
     "enum_field_value" : 4,
     "name" : "VK_SYSTEM_ALLOCATION_SCOPE_END_RANGE"
    },
    {
     "enum_field_value" : 5,
     "name" : "VK_SYSTEM_ALLOCATION_SCOPE_RANGE_SIZE"
    },
    {
     "enum_field_value" : 2147483647,
     "name" : "VK_SYSTEM_ALLOCATION_SCOPE_MAX_ENUM"
    }
   ],
   "linker_set_key" : "_ZTI23VkSystemAllocationScope",
   "name" : "VkSystemAllocationScope",
   "referenced_type" : "_ZTI23VkSystemAllocationScope",
   "self_type" : "_ZTI23VkSystemAllocationScope",
   "size" : 4,
   "source_file" : "/external/vulkan-headers/include/vulkan/vulkan_core.h",
   "underlying_type" : "_ZTIj"
  },
  {
   "alignment" : 4,
   "enum_fields" :
   [
    {
     "enum_field_value" : 1,
     "name" : "VK_COLOR_COMPONENT_R_BIT"
    },
    {
     "enum_field_value" : 2,
     "name" : "VK_COLOR_COMPONENT_G_BIT"
    },
    {
     "enum_field_value" : 4,
     "name" : "VK_COLOR_COMPONENT_B_BIT"
    },
    {
     "enum_field_value" : 8,
     "name" : "VK_COLOR_COMPONENT_A_BIT"
    },
    {
     "enum_field_value" : 2147483647,
     "name" : "VK_COLOR_COMPONENT_FLAG_BITS_MAX_ENUM"
    }
   ],
   "linker_set_key" : "_ZTI24VkColorComponentFlagBits",
   "name" : "VkColorComponentFlagBits",
   "referenced_type" : "_ZTI24VkColorComponentFlagBits",
   "self_type" : "_ZTI24VkColorComponentFlagBits",
   "size" : 4,
   "source_file" : "/external/vulkan-headers/include/vulkan/vulkan_core.h",
   "underlying_type" : "_ZTIj"
  },
  {
   "alignment" : 4,
   "enum_fields" :
   [
    {
     "enum_field_value" : 1,
     "name" : "VK_DEBUG_REPORT_INFORMATION_BIT_EXT"
    },
    {
     "enum_field_value" : 2,
     "name" : "VK_DEBUG_REPORT_WARNING_BIT_EXT"
    },
    {
     "enum_field_value" : 4,
     "name" : "VK_DEBUG_REPORT_PERFORMANCE_WARNING_BIT_EXT"
    },
    {
     "enum_field_value" : 8,
     "name" : "VK_DEBUG_REPORT_ERROR_BIT_EXT"
    },
    {
     "enum_field_value" : 16,
     "name" : "VK_DEBUG_REPORT_DEBUG_BIT_EXT"
    },
    {
     "enum_field_value" : 2147483647,
     "name" : "VK_DEBUG_REPORT_FLAG_BITS_MAX_ENUM_EXT"
    }
   ],
   "linker_set_key" : "_ZTI24VkDebugReportFlagBitsEXT",
   "name" : "VkDebugReportFlagBitsEXT",
   "referenced_type" : "_ZTI24VkDebugReportFlagBitsEXT",
   "self_type" : "_ZTI24VkDebugReportFlagBitsEXT",
   "size" : 4,
   "source_file" : "/external/vulkan-headers/include/vulkan/vulkan_core.h",
   "underlying_type" : "_ZTIj"
  },
  {
   "alignment" : 4,
   "enum_fields" :
   [
    {
     "enum_field_value" : 0,
     "name" : "VK_INTERNAL_ALLOCATION_TYPE_EXECUTABLE"
    },
    {
     "enum_field_value" : 0,
     "name" : "VK_INTERNAL_ALLOCATION_TYPE_BEGIN_RANGE"
    },
    {
     "enum_field_value" : 0,
     "name" : "VK_INTERNAL_ALLOCATION_TYPE_END_RANGE"
    },
    {
     "enum_field_value" : 1,
     "name" : "VK_INTERNAL_ALLOCATION_TYPE_RANGE_SIZE"
    },
    {
     "enum_field_value" : 2147483647,
     "name" : "VK_INTERNAL_ALLOCATION_TYPE_MAX_ENUM"
    }
   ],
   "linker_set_key" : "_ZTI24VkInternalAllocationType",
   "name" : "VkInternalAllocationType",
   "referenced_type" : "_ZTI24VkInternalAllocationType",
   "self_type" : "_ZTI24VkInternalAllocationType",
   "size" : 4,
   "source_file" : "/external/vulkan-headers/include/vulkan/vulkan_core.h",
   "underlying_type" : "_ZTIj"
  },
  {
   "alignment" : 4,
   "enum_fields" :
   [
    {
     "enum_field_value" : 1,
     "name" : "VK_MEMORY_ALLOCATE_DEVICE_MASK_BIT"
    },
    {
     "enum_field_value" : 1,
     "name" : "VK_MEMORY_ALLOCATE_DEVICE_MASK_BIT_KHR"
    },
    {
     "enum_field_value" : 2147483647,
     "name" : "VK_MEMORY_ALLOCATE_FLAG_BITS_MAX_ENUM"
    }
   ],
   "linker_set_key" : "_ZTI24VkMemoryAllocateFlagBits",
   "name" : "VkMemoryAllocateFlagBits",
   "referenced_type" : "_ZTI24VkMemoryAllocateFlagBits",
   "self_type" : "_ZTI24VkMemoryAllocateFlagBits",
   "size" : 4,
   "source_file" : "/external/vulkan-headers/include/vulkan/vulkan_core.h",
   "underlying_type" : "_ZTIj"
  },
  {
   "alignment" : 4,
   "enum_fields" :
   [
    {
     "enum_field_value" : 1,
     "name" : "VK_MEMORY_PROPERTY_DEVICE_LOCAL_BIT"
    },
    {
     "enum_field_value" : 2,
     "name" : "VK_MEMORY_PROPERTY_HOST_VISIBLE_BIT"
    },
    {
     "enum_field_value" : 4,
     "name" : "VK_MEMORY_PROPERTY_HOST_COHERENT_BIT"
    },
    {
     "enum_field_value" : 8,
     "name" : "VK_MEMORY_PROPERTY_HOST_CACHED_BIT"
    },
    {
     "enum_field_value" : 16,
     "name" : "VK_MEMORY_PROPERTY_LAZILY_ALLOCATED_BIT"
    },
    {
     "enum_field_value" : 32,
     "name" : "VK_MEMORY_PROPERTY_PROTECTED_BIT"
    },
    {
     "enum_field_value" : 64,
     "name" : "VK_MEMORY_PROPERTY_DEVICE_COHERENT_BIT_AMD"
    },
    {
     "enum_field_value" : 128,
     "name" : "VK_MEMORY_PROPERTY_DEVICE_UNCACHED_BIT_AMD"
    },
    {
     "enum_field_value" : 2147483647,
     "name" : "VK_MEMORY_PROPERTY_FLAG_BITS_MAX_ENUM"
    }
   ],
   "linker_set_key" : "_ZTI24VkMemoryPropertyFlagBits",
   "name" : "VkMemoryPropertyFlagBits",
   "referenced_type" : "_ZTI24VkMemoryPropertyFlagBits",
   "self_type" : "_ZTI24VkMemoryPropertyFlagBits",
   "size" : 4,
   "source_file" : "/external/vulkan-headers/include/vulkan/vulkan_core.h",
   "underlying_type" : "_ZTIj"
  },
  {
   "alignment" : 4,
   "enum_fields" :
   [
    {
     "enum_field_value" : 1,
     "name" : "VK_PIPELINE_CREATE_DISABLE_OPTIMIZATION_BIT"
    },
    {
     "enum_field_value" : 2,
     "name" : "VK_PIPELINE_CREATE_ALLOW_DERIVATIVES_BIT"
    },
    {
     "enum_field_value" : 4,
     "name" : "VK_PIPELINE_CREATE_DERIVATIVE_BIT"
    },
    {
     "enum_field_value" : 8,
     "name" : "VK_PIPELINE_CREATE_VIEW_INDEX_FROM_DEVICE_INDEX_BIT"
    },
    {
     "enum_field_value" : 16,
     "name" : "VK_PIPELINE_CREATE_DISPATCH_BASE"
    },
    {
     "enum_field_value" : 32,
     "name" : "VK_PIPELINE_CREATE_DEFER_COMPILE_BIT_NV"
    },
    {
     "enum_field_value" : 64,
     "name" : "VK_PIPELINE_CREATE_CAPTURE_STATISTICS_BIT_KHR"
    },
    {
     "enum_field_value" : 128,
     "name" : "VK_PIPELINE_CREATE_CAPTURE_INTERNAL_REPRESENTATIONS_BIT_KHR"
    },
    {
     "enum_field_value" : 8,
     "name" : "VK_PIPELINE_CREATE_VIEW_INDEX_FROM_DEVICE_INDEX_BIT_KHR"
    },
    {
     "enum_field_value" : 16,
     "name" : "VK_PIPELINE_CREATE_DISPATCH_BASE_KHR"
    },
    {
     "enum_field_value" : 2147483647,
     "name" : "VK_PIPELINE_CREATE_FLAG_BITS_MAX_ENUM"
    }
   ],
   "linker_set_key" : "_ZTI24VkPipelineCreateFlagBits",
   "name" : "VkPipelineCreateFlagBits",
   "referenced_type" : "_ZTI24VkPipelineCreateFlagBits",
   "self_type" : "_ZTI24VkPipelineCreateFlagBits",
   "size" : 4,
   "source_file" : "/external/vulkan-headers/include/vulkan/vulkan_core.h",
   "underlying_type" : "_ZTIj"
  },
  {
   "alignment" : 4,
   "enum_fields" :
   [
    {
     "enum_field_value" : 128,
     "name" : "VK_QUEUE_GLOBAL_PRIORITY_LOW_EXT"
    },
    {
     "enum_field_value" : 256,
     "name" : "VK_QUEUE_GLOBAL_PRIORITY_MEDIUM_EXT"
    },
    {
     "enum_field_value" : 512,
     "name" : "VK_QUEUE_GLOBAL_PRIORITY_HIGH_EXT"
    },
    {
     "enum_field_value" : 1024,
     "name" : "VK_QUEUE_GLOBAL_PRIORITY_REALTIME_EXT"
    },
    {
     "enum_field_value" : 128,
     "name" : "VK_QUEUE_GLOBAL_PRIORITY_BEGIN_RANGE_EXT"
    },
    {
     "enum_field_value" : 1024,
     "name" : "VK_QUEUE_GLOBAL_PRIORITY_END_RANGE_EXT"
    },
    {
     "enum_field_value" : 897,
     "name" : "VK_QUEUE_GLOBAL_PRIORITY_RANGE_SIZE_EXT"
    },
    {
     "enum_field_value" : 2147483647,
     "name" : "VK_QUEUE_GLOBAL_PRIORITY_MAX_ENUM_EXT"
    }
   ],
   "linker_set_key" : "_ZTI24VkQueueGlobalPriorityEXT",
   "name" : "VkQueueGlobalPriorityEXT",
   "referenced_type" : "_ZTI24VkQueueGlobalPriorityEXT",
   "self_type" : "_ZTI24VkQueueGlobalPriorityEXT",
   "size" : 4,
   "source_file" : "/external/vulkan-headers/include/vulkan/vulkan_core.h",
   "underlying_type" : "_ZTIj"
  },
  {
   "alignment" : 4,
   "enum_fields" :
   [
    {
     "enum_field_value" : 0,
     "name" : "VK_RESOLVE_MODE_NONE_KHR"
    },
    {
     "enum_field_value" : 1,
     "name" : "VK_RESOLVE_MODE_SAMPLE_ZERO_BIT_KHR"
    },
    {
     "enum_field_value" : 2,
     "name" : "VK_RESOLVE_MODE_AVERAGE_BIT_KHR"
    },
    {
     "enum_field_value" : 4,
     "name" : "VK_RESOLVE_MODE_MIN_BIT_KHR"
    },
    {
     "enum_field_value" : 8,
     "name" : "VK_RESOLVE_MODE_MAX_BIT_KHR"
    },
    {
     "enum_field_value" : 2147483647,
     "name" : "VK_RESOLVE_MODE_FLAG_BITS_MAX_ENUM_KHR"
    }
   ],
   "linker_set_key" : "_ZTI24VkResolveModeFlagBitsKHR",
   "name" : "VkResolveModeFlagBitsKHR",
   "referenced_type" : "_ZTI24VkResolveModeFlagBitsKHR",
   "self_type" : "_ZTI24VkResolveModeFlagBitsKHR",
   "size" : 4,
   "source_file" : "/external/vulkan-headers/include/vulkan/vulkan_core.h",
   "underlying_type" : "_ZTIj"
  },
  {
   "alignment" : 4,
   "enum_fields" :
   [
    {
     "enum_field_value" : 0,
     "name" : "VK_COARSE_SAMPLE_ORDER_TYPE_DEFAULT_NV"
    },
    {
     "enum_field_value" : 1,
     "name" : "VK_COARSE_SAMPLE_ORDER_TYPE_CUSTOM_NV"
    },
    {
     "enum_field_value" : 2,
     "name" : "VK_COARSE_SAMPLE_ORDER_TYPE_PIXEL_MAJOR_NV"
    },
    {
     "enum_field_value" : 3,
     "name" : "VK_COARSE_SAMPLE_ORDER_TYPE_SAMPLE_MAJOR_NV"
    },
    {
     "enum_field_value" : 0,
     "name" : "VK_COARSE_SAMPLE_ORDER_TYPE_BEGIN_RANGE_NV"
    },
    {
     "enum_field_value" : 3,
     "name" : "VK_COARSE_SAMPLE_ORDER_TYPE_END_RANGE_NV"
    },
    {
     "enum_field_value" : 4,
     "name" : "VK_COARSE_SAMPLE_ORDER_TYPE_RANGE_SIZE_NV"
    },
    {
     "enum_field_value" : 2147483647,
     "name" : "VK_COARSE_SAMPLE_ORDER_TYPE_MAX_ENUM_NV"
    }
   ],
   "linker_set_key" : "_ZTI25VkCoarseSampleOrderTypeNV",
   "name" : "VkCoarseSampleOrderTypeNV",
   "referenced_type" : "_ZTI25VkCoarseSampleOrderTypeNV",
   "self_type" : "_ZTI25VkCoarseSampleOrderTypeNV",
   "size" : 4,
   "source_file" : "/external/vulkan-headers/include/vulkan/vulkan_core.h",
   "underlying_type" : "_ZTIj"
  },
  {
   "alignment" : 4,
   "enum_fields" :
   [
    {
     "enum_field_value" : 0,
     "name" : "VK_COVERAGE_REDUCTION_MODE_MERGE_NV"
    },
    {
     "enum_field_value" : 1,
     "name" : "VK_COVERAGE_REDUCTION_MODE_TRUNCATE_NV"
    },
    {
     "enum_field_value" : 0,
     "name" : "VK_COVERAGE_REDUCTION_MODE_BEGIN_RANGE_NV"
    },
    {
     "enum_field_value" : 1,
     "name" : "VK_COVERAGE_REDUCTION_MODE_END_RANGE_NV"
    },
    {
     "enum_field_value" : 2,
     "name" : "VK_COVERAGE_REDUCTION_MODE_RANGE_SIZE_NV"
    },
    {
     "enum_field_value" : 2147483647,
     "name" : "VK_COVERAGE_REDUCTION_MODE_MAX_ENUM_NV"
    }
   ],
   "linker_set_key" : "_ZTI25VkCoverageReductionModeNV",
   "name" : "VkCoverageReductionModeNV",
   "referenced_type" : "_ZTI25VkCoverageReductionModeNV",
   "self_type" : "_ZTI25VkCoverageReductionModeNV",
   "size" : 4,
   "source_file" : "/external/vulkan-headers/include/vulkan/vulkan_core.h",
   "underlying_type" : "_ZTIj"
  },
  {
   "alignment" : 4,
   "enum_fields" :
   [
    {
     "enum_field_value" : 0,
     "name" : "VK_DISCARD_RECTANGLE_MODE_INCLUSIVE_EXT"
    },
    {
     "enum_field_value" : 1,
     "name" : "VK_DISCARD_RECTANGLE_MODE_EXCLUSIVE_EXT"
    },
    {
     "enum_field_value" : 0,
     "name" : "VK_DISCARD_RECTANGLE_MODE_BEGIN_RANGE_EXT"
    },
    {
     "enum_field_value" : 1,
     "name" : "VK_DISCARD_RECTANGLE_MODE_END_RANGE_EXT"
    },
    {
     "enum_field_value" : 2,
     "name" : "VK_DISCARD_RECTANGLE_MODE_RANGE_SIZE_EXT"
    },
    {
     "enum_field_value" : 2147483647,
     "name" : "VK_DISCARD_RECTANGLE_MODE_MAX_ENUM_EXT"
    }
   ],
   "linker_set_key" : "_ZTI25VkDiscardRectangleModeEXT",
   "name" : "VkDiscardRectangleModeEXT",
   "referenced_type" : "_ZTI25VkDiscardRectangleModeEXT",
   "self_type" : "_ZTI25VkDiscardRectangleModeEXT",
   "size" : 4,
   "source_file" : "/external/vulkan-headers/include/vulkan/vulkan_core.h",
   "underlying_type" : "_ZTIj"
  },
  {
   "alignment" : 4,
   "enum_fields" :
   [
    {
     "enum_field_value" : 1,
     "name" : "VK_IMAGE_VIEW_CREATE_FRAGMENT_DENSITY_MAP_DYNAMIC_BIT_EXT"
    },
    {
     "enum_field_value" : 2147483647,
     "name" : "VK_IMAGE_VIEW_CREATE_FLAG_BITS_MAX_ENUM"
    }
   ],
   "linker_set_key" : "_ZTI25VkImageViewCreateFlagBits",
   "name" : "VkImageViewCreateFlagBits",
   "referenced_type" : "_ZTI25VkImageViewCreateFlagBits",
   "self_type" : "_ZTI25VkImageViewCreateFlagBits",
   "size" : 4,
   "source_file" : "/external/vulkan-headers/include/vulkan/vulkan_core.h",
   "underlying_type" : "_ZTIj"
  },
  {
   "alignment" : 4,
   "enum_fields" :
   [
    {
     "enum_field_value" : 0,
     "name" : "VK_SAMPLER_REDUCTION_MODE_WEIGHTED_AVERAGE_EXT"
    },
    {
     "enum_field_value" : 1,
     "name" : "VK_SAMPLER_REDUCTION_MODE_MIN_EXT"
    },
    {
     "enum_field_value" : 2,
     "name" : "VK_SAMPLER_REDUCTION_MODE_MAX_EXT"
    },
    {
     "enum_field_value" : 0,
     "name" : "VK_SAMPLER_REDUCTION_MODE_BEGIN_RANGE_EXT"
    },
    {
     "enum_field_value" : 2,
     "name" : "VK_SAMPLER_REDUCTION_MODE_END_RANGE_EXT"
    },
    {
     "enum_field_value" : 3,
     "name" : "VK_SAMPLER_REDUCTION_MODE_RANGE_SIZE_EXT"
    },
    {
     "enum_field_value" : 2147483647,
     "name" : "VK_SAMPLER_REDUCTION_MODE_MAX_ENUM_EXT"
    }
   ],
   "linker_set_key" : "_ZTI25VkSamplerReductionModeEXT",
   "name" : "VkSamplerReductionModeEXT",
   "referenced_type" : "_ZTI25VkSamplerReductionModeEXT",
   "self_type" : "_ZTI25VkSamplerReductionModeEXT",
   "size" : 4,
   "source_file" : "/external/vulkan-headers/include/vulkan/vulkan_core.h",
   "underlying_type" : "_ZTIj"
  },
  {
   "alignment" : 4,
   "enum_fields" :
   [
    {
     "enum_field_value" : 1,
     "name" : "VK_SEMAPHORE_IMPORT_TEMPORARY_BIT"
    },
    {
     "enum_field_value" : 1,
     "name" : "VK_SEMAPHORE_IMPORT_TEMPORARY_BIT_KHR"
    },
    {
     "enum_field_value" : 2147483647,
     "name" : "VK_SEMAPHORE_IMPORT_FLAG_BITS_MAX_ENUM"
    }
   ],
   "linker_set_key" : "_ZTI25VkSemaphoreImportFlagBits",
   "name" : "VkSemaphoreImportFlagBits",
   "referenced_type" : "_ZTI25VkSemaphoreImportFlagBits",
   "self_type" : "_ZTI25VkSemaphoreImportFlagBits",
   "size" : 4,
   "source_file" : "/external/vulkan-headers/include/vulkan/vulkan_core.h",
   "underlying_type" : "_ZTIj"
  },
  {
   "alignment" : 4,
   "enum_fields" :
   [
    {
     "enum_field_value" : 1,
     "name" : "VK_SUBGROUP_FEATURE_BASIC_BIT"
    },
    {
     "enum_field_value" : 2,
     "name" : "VK_SUBGROUP_FEATURE_VOTE_BIT"
    },
    {
     "enum_field_value" : 4,
     "name" : "VK_SUBGROUP_FEATURE_ARITHMETIC_BIT"
    },
    {
     "enum_field_value" : 8,
     "name" : "VK_SUBGROUP_FEATURE_BALLOT_BIT"
    },
    {
     "enum_field_value" : 16,
     "name" : "VK_SUBGROUP_FEATURE_SHUFFLE_BIT"
    },
    {
     "enum_field_value" : 32,
     "name" : "VK_SUBGROUP_FEATURE_SHUFFLE_RELATIVE_BIT"
    },
    {
     "enum_field_value" : 64,
     "name" : "VK_SUBGROUP_FEATURE_CLUSTERED_BIT"
    },
    {
     "enum_field_value" : 128,
     "name" : "VK_SUBGROUP_FEATURE_QUAD_BIT"
    },
    {
     "enum_field_value" : 256,
     "name" : "VK_SUBGROUP_FEATURE_PARTITIONED_BIT_NV"
    },
    {
     "enum_field_value" : 2147483647,
     "name" : "VK_SUBGROUP_FEATURE_FLAG_BITS_MAX_ENUM"
    }
   ],
   "linker_set_key" : "_ZTI25VkSubgroupFeatureFlagBits",
   "name" : "VkSubgroupFeatureFlagBits",
   "referenced_type" : "_ZTI25VkSubgroupFeatureFlagBits",
   "self_type" : "_ZTI25VkSubgroupFeatureFlagBits",
   "size" : 4,
   "source_file" : "/external/vulkan-headers/include/vulkan/vulkan_core.h",
   "underlying_type" : "_ZTIj"
  },
  {
   "alignment" : 4,
   "enum_fields" :
   [
    {
     "enum_field_value" : 1,
     "name" : "VK_COMMAND_POOL_RESET_RELEASE_RESOURCES_BIT"
    },
    {
     "enum_field_value" : 2147483647,
     "name" : "VK_COMMAND_POOL_RESET_FLAG_BITS_MAX_ENUM"
    }
   ],
   "linker_set_key" : "_ZTI26VkCommandPoolResetFlagBits",
   "name" : "VkCommandPoolResetFlagBits",
   "referenced_type" : "_ZTI26VkCommandPoolResetFlagBits",
   "self_type" : "_ZTI26VkCommandPoolResetFlagBits",
   "size" : 4,
   "source_file" : "/external/vulkan-headers/include/vulkan/vulkan_core.h",
   "underlying_type" : "_ZTIj"
  },
  {
   "alignment" : 4,
   "enum_fields" :
   [
    {
     "enum_field_value" : 0,
     "name" : "VK_COVERAGE_MODULATION_MODE_NONE_NV"
    },
    {
     "enum_field_value" : 1,
     "name" : "VK_COVERAGE_MODULATION_MODE_RGB_NV"
    },
    {
     "enum_field_value" : 2,
     "name" : "VK_COVERAGE_MODULATION_MODE_ALPHA_NV"
    },
    {
     "enum_field_value" : 3,
     "name" : "VK_COVERAGE_MODULATION_MODE_RGBA_NV"
    },
    {
     "enum_field_value" : 0,
     "name" : "VK_COVERAGE_MODULATION_MODE_BEGIN_RANGE_NV"
    },
    {
     "enum_field_value" : 3,
     "name" : "VK_COVERAGE_MODULATION_MODE_END_RANGE_NV"
    },
    {
     "enum_field_value" : 4,
     "name" : "VK_COVERAGE_MODULATION_MODE_RANGE_SIZE_NV"
    },
    {
     "enum_field_value" : 2147483647,
     "name" : "VK_COVERAGE_MODULATION_MODE_MAX_ENUM_NV"
    }
   ],
   "linker_set_key" : "_ZTI26VkCoverageModulationModeNV",
   "name" : "VkCoverageModulationModeNV",
   "referenced_type" : "_ZTI26VkCoverageModulationModeNV",
   "self_type" : "_ZTI26VkCoverageModulationModeNV",
   "size" : 4,
   "source_file" : "/external/vulkan-headers/include/vulkan/vulkan_core.h",
   "underlying_type" : "_ZTIj"
  },
  {
   "alignment" : 4,
   "enum_fields" :
   [
    {
     "enum_field_value" : 0,
     "name" : "VK_DEBUG_REPORT_OBJECT_TYPE_UNKNOWN_EXT"
    },
    {
     "enum_field_value" : 1,
     "name" : "VK_DEBUG_REPORT_OBJECT_TYPE_INSTANCE_EXT"
    },
    {
     "enum_field_value" : 2,
     "name" : "VK_DEBUG_REPORT_OBJECT_TYPE_PHYSICAL_DEVICE_EXT"
    },
    {
     "enum_field_value" : 3,
     "name" : "VK_DEBUG_REPORT_OBJECT_TYPE_DEVICE_EXT"
    },
    {
     "enum_field_value" : 4,
     "name" : "VK_DEBUG_REPORT_OBJECT_TYPE_QUEUE_EXT"
    },
    {
     "enum_field_value" : 5,
     "name" : "VK_DEBUG_REPORT_OBJECT_TYPE_SEMAPHORE_EXT"
    },
    {
     "enum_field_value" : 6,
     "name" : "VK_DEBUG_REPORT_OBJECT_TYPE_COMMAND_BUFFER_EXT"
    },
    {
     "enum_field_value" : 7,
     "name" : "VK_DEBUG_REPORT_OBJECT_TYPE_FENCE_EXT"
    },
    {
     "enum_field_value" : 8,
     "name" : "VK_DEBUG_REPORT_OBJECT_TYPE_DEVICE_MEMORY_EXT"
    },
    {
     "enum_field_value" : 9,
     "name" : "VK_DEBUG_REPORT_OBJECT_TYPE_BUFFER_EXT"
    },
    {
     "enum_field_value" : 10,
     "name" : "VK_DEBUG_REPORT_OBJECT_TYPE_IMAGE_EXT"
    },
    {
     "enum_field_value" : 11,
     "name" : "VK_DEBUG_REPORT_OBJECT_TYPE_EVENT_EXT"
    },
    {
     "enum_field_value" : 12,
     "name" : "VK_DEBUG_REPORT_OBJECT_TYPE_QUERY_POOL_EXT"
    },
    {
     "enum_field_value" : 13,
     "name" : "VK_DEBUG_REPORT_OBJECT_TYPE_BUFFER_VIEW_EXT"
    },
    {
     "enum_field_value" : 14,
     "name" : "VK_DEBUG_REPORT_OBJECT_TYPE_IMAGE_VIEW_EXT"
    },
    {
     "enum_field_value" : 15,
     "name" : "VK_DEBUG_REPORT_OBJECT_TYPE_SHADER_MODULE_EXT"
    },
    {
     "enum_field_value" : 16,
     "name" : "VK_DEBUG_REPORT_OBJECT_TYPE_PIPELINE_CACHE_EXT"
    },
    {
     "enum_field_value" : 17,
     "name" : "VK_DEBUG_REPORT_OBJECT_TYPE_PIPELINE_LAYOUT_EXT"
    },
    {
     "enum_field_value" : 18,
     "name" : "VK_DEBUG_REPORT_OBJECT_TYPE_RENDER_PASS_EXT"
    },
    {
     "enum_field_value" : 19,
     "name" : "VK_DEBUG_REPORT_OBJECT_TYPE_PIPELINE_EXT"
    },
    {
     "enum_field_value" : 20,
     "name" : "VK_DEBUG_REPORT_OBJECT_TYPE_DESCRIPTOR_SET_LAYOUT_EXT"
    },
    {
     "enum_field_value" : 21,
     "name" : "VK_DEBUG_REPORT_OBJECT_TYPE_SAMPLER_EXT"
    },
    {
     "enum_field_value" : 22,
     "name" : "VK_DEBUG_REPORT_OBJECT_TYPE_DESCRIPTOR_POOL_EXT"
    },
    {
     "enum_field_value" : 23,
     "name" : "VK_DEBUG_REPORT_OBJECT_TYPE_DESCRIPTOR_SET_EXT"
    },
    {
     "enum_field_value" : 24,
     "name" : "VK_DEBUG_REPORT_OBJECT_TYPE_FRAMEBUFFER_EXT"
    },
    {
     "enum_field_value" : 25,
     "name" : "VK_DEBUG_REPORT_OBJECT_TYPE_COMMAND_POOL_EXT"
    },
    {
     "enum_field_value" : 26,
     "name" : "VK_DEBUG_REPORT_OBJECT_TYPE_SURFACE_KHR_EXT"
    },
    {
     "enum_field_value" : 27,
     "name" : "VK_DEBUG_REPORT_OBJECT_TYPE_SWAPCHAIN_KHR_EXT"
    },
    {
     "enum_field_value" : 28,
     "name" : "VK_DEBUG_REPORT_OBJECT_TYPE_DEBUG_REPORT_CALLBACK_EXT_EXT"
    },
    {
     "enum_field_value" : 29,
     "name" : "VK_DEBUG_REPORT_OBJECT_TYPE_DISPLAY_KHR_EXT"
    },
    {
     "enum_field_value" : 30,
     "name" : "VK_DEBUG_REPORT_OBJECT_TYPE_DISPLAY_MODE_KHR_EXT"
    },
    {
     "enum_field_value" : 31,
     "name" : "VK_DEBUG_REPORT_OBJECT_TYPE_OBJECT_TABLE_NVX_EXT"
    },
    {
     "enum_field_value" : 32,
     "name" : "VK_DEBUG_REPORT_OBJECT_TYPE_INDIRECT_COMMANDS_LAYOUT_NVX_EXT"
    },
    {
     "enum_field_value" : 33,
     "name" : "VK_DEBUG_REPORT_OBJECT_TYPE_VALIDATION_CACHE_EXT_EXT"
    },
    {
     "enum_field_value" : 1000156000,
     "name" : "VK_DEBUG_REPORT_OBJECT_TYPE_SAMPLER_YCBCR_CONVERSION_EXT"
    },
    {
     "enum_field_value" : 1000085000,
     "name" : "VK_DEBUG_REPORT_OBJECT_TYPE_DESCRIPTOR_UPDATE_TEMPLATE_EXT"
    },
    {
     "enum_field_value" : 1000165000,
     "name" : "VK_DEBUG_REPORT_OBJECT_TYPE_ACCELERATION_STRUCTURE_NV_EXT"
    },
    {
     "enum_field_value" : 28,
     "name" : "VK_DEBUG_REPORT_OBJECT_TYPE_DEBUG_REPORT_EXT"
    },
    {
     "enum_field_value" : 33,
     "name" : "VK_DEBUG_REPORT_OBJECT_TYPE_VALIDATION_CACHE_EXT"
    },
    {
     "enum_field_value" : 1000085000,
     "name" : "VK_DEBUG_REPORT_OBJECT_TYPE_DESCRIPTOR_UPDATE_TEMPLATE_KHR_EXT"
    },
    {
     "enum_field_value" : 1000156000,
     "name" : "VK_DEBUG_REPORT_OBJECT_TYPE_SAMPLER_YCBCR_CONVERSION_KHR_EXT"
    },
    {
     "enum_field_value" : 0,
     "name" : "VK_DEBUG_REPORT_OBJECT_TYPE_BEGIN_RANGE_EXT"
    },
    {
     "enum_field_value" : 33,
     "name" : "VK_DEBUG_REPORT_OBJECT_TYPE_END_RANGE_EXT"
    },
    {
     "enum_field_value" : 34,
     "name" : "VK_DEBUG_REPORT_OBJECT_TYPE_RANGE_SIZE_EXT"
    },
    {
     "enum_field_value" : 2147483647,
     "name" : "VK_DEBUG_REPORT_OBJECT_TYPE_MAX_ENUM_EXT"
    }
   ],
   "linker_set_key" : "_ZTI26VkDebugReportObjectTypeEXT",
   "name" : "VkDebugReportObjectTypeEXT",
   "referenced_type" : "_ZTI26VkDebugReportObjectTypeEXT",
   "self_type" : "_ZTI26VkDebugReportObjectTypeEXT",
   "size" : 4,
   "source_file" : "/external/vulkan-headers/include/vulkan/vulkan_core.h",
   "underlying_type" : "_ZTIj"
  },
  {
   "alignment" : 4,
   "enum_fields" :
   [
    {
     "enum_field_value" : 0,
     "name" : "VK_LINE_RASTERIZATION_MODE_DEFAULT_EXT"
    },
    {
     "enum_field_value" : 1,
     "name" : "VK_LINE_RASTERIZATION_MODE_RECTANGULAR_EXT"
    },
    {
     "enum_field_value" : 2,
     "name" : "VK_LINE_RASTERIZATION_MODE_BRESENHAM_EXT"
    },
    {
     "enum_field_value" : 3,
     "name" : "VK_LINE_RASTERIZATION_MODE_RECTANGULAR_SMOOTH_EXT"
    },
    {
     "enum_field_value" : 0,
     "name" : "VK_LINE_RASTERIZATION_MODE_BEGIN_RANGE_EXT"
    },
    {
     "enum_field_value" : 3,
     "name" : "VK_LINE_RASTERIZATION_MODE_END_RANGE_EXT"
    },
    {
     "enum_field_value" : 4,
     "name" : "VK_LINE_RASTERIZATION_MODE_RANGE_SIZE_EXT"
    },
    {
     "enum_field_value" : 2147483647,
     "name" : "VK_LINE_RASTERIZATION_MODE_MAX_ENUM_EXT"
    }
   ],
   "linker_set_key" : "_ZTI26VkLineRasterizationModeEXT",
   "name" : "VkLineRasterizationModeEXT",
   "referenced_type" : "_ZTI26VkLineRasterizationModeEXT",
   "self_type" : "_ZTI26VkLineRasterizationModeEXT",
   "size" : 4,
   "source_file" : "/external/vulkan-headers/include/vulkan/vulkan_core.h",
   "underlying_type" : "_ZTIj"
  },
  {
   "alignment" : 4,
   "enum_fields" :
   [
    {
     "enum_field_value" : 2147483647,
     "name" : "VK_RENDER_PASS_CREATE_FLAG_BITS_MAX_ENUM"
    }
   ],
   "linker_set_key" : "_ZTI26VkRenderPassCreateFlagBits",
   "name" : "VkRenderPassCreateFlagBits",
   "referenced_type" : "_ZTI26VkRenderPassCreateFlagBits",
   "self_type" : "_ZTI26VkRenderPassCreateFlagBits",
   "size" : 4,
   "source_file" : "/external/vulkan-headers/include/vulkan/vulkan_core.h",
   "underlying_type" : "_ZTIj"
  },
  {
   "alignment" : 4,
   "enum_fields" :
   [
    {
     "enum_field_value" : 1,
     "name" : "VK_SPARSE_MEMORY_BIND_METADATA_BIT"
    },
    {
     "enum_field_value" : 2147483647,
     "name" : "VK_SPARSE_MEMORY_BIND_FLAG_BITS_MAX_ENUM"
    }
   ],
   "linker_set_key" : "_ZTI26VkSparseMemoryBindFlagBits",
   "name" : "VkSparseMemoryBindFlagBits",
   "referenced_type" : "_ZTI26VkSparseMemoryBindFlagBits",
   "self_type" : "_ZTI26VkSparseMemoryBindFlagBits",
   "size" : 4,
   "source_file" : "/external/vulkan-headers/include/vulkan/vulkan_core.h",
   "underlying_type" : "_ZTIj"
  },
  {
   "alignment" : 4,
   "enum_fields" :
   [
    {
     "enum_field_value" : 0,
     "name" : "VK_TESSELLATION_DOMAIN_ORIGIN_UPPER_LEFT"
    },
    {
     "enum_field_value" : 1,
     "name" : "VK_TESSELLATION_DOMAIN_ORIGIN_LOWER_LEFT"
    },
    {
     "enum_field_value" : 0,
     "name" : "VK_TESSELLATION_DOMAIN_ORIGIN_UPPER_LEFT_KHR"
    },
    {
     "enum_field_value" : 1,
     "name" : "VK_TESSELLATION_DOMAIN_ORIGIN_LOWER_LEFT_KHR"
    },
    {
     "enum_field_value" : 0,
     "name" : "VK_TESSELLATION_DOMAIN_ORIGIN_BEGIN_RANGE"
    },
    {
     "enum_field_value" : 1,
     "name" : "VK_TESSELLATION_DOMAIN_ORIGIN_END_RANGE"
    },
    {
     "enum_field_value" : 2,
     "name" : "VK_TESSELLATION_DOMAIN_ORIGIN_RANGE_SIZE"
    },
    {
     "enum_field_value" : 2147483647,
     "name" : "VK_TESSELLATION_DOMAIN_ORIGIN_MAX_ENUM"
    }
   ],
   "linker_set_key" : "_ZTI26VkTessellationDomainOrigin",
   "name" : "VkTessellationDomainOrigin",
   "referenced_type" : "_ZTI26VkTessellationDomainOrigin",
   "self_type" : "_ZTI26VkTessellationDomainOrigin",
   "size" : 4,
   "source_file" : "/external/vulkan-headers/include/vulkan/vulkan_core.h",
   "underlying_type" : "_ZTIj"
  },
  {
   "alignment" : 4,
   "enum_fields" :
   [
    {
     "enum_field_value" : 1,
     "name" : "VK_COMMAND_POOL_CREATE_TRANSIENT_BIT"
    },
    {
     "enum_field_value" : 2,
     "name" : "VK_COMMAND_POOL_CREATE_RESET_COMMAND_BUFFER_BIT"
    },
    {
     "enum_field_value" : 4,
     "name" : "VK_COMMAND_POOL_CREATE_PROTECTED_BIT"
    },
    {
     "enum_field_value" : 2147483647,
     "name" : "VK_COMMAND_POOL_CREATE_FLAG_BITS_MAX_ENUM"
    }
   ],
   "linker_set_key" : "_ZTI27VkCommandPoolCreateFlagBits",
   "name" : "VkCommandPoolCreateFlagBits",
   "referenced_type" : "_ZTI27VkCommandPoolCreateFlagBits",
   "self_type" : "_ZTI27VkCommandPoolCreateFlagBits",
   "size" : 4,
   "source_file" : "/external/vulkan-headers/include/vulkan/vulkan_core.h",
   "underlying_type" : "_ZTIj"
  },
  {
   "alignment" : 4,
   "enum_fields" :
   [
    {
     "enum_field_value" : 1,
     "name" : "VK_COMPOSITE_ALPHA_OPAQUE_BIT_KHR"
    },
    {
     "enum_field_value" : 2,
     "name" : "VK_COMPOSITE_ALPHA_PRE_MULTIPLIED_BIT_KHR"
    },
    {
     "enum_field_value" : 4,
     "name" : "VK_COMPOSITE_ALPHA_POST_MULTIPLIED_BIT_KHR"
    },
    {
     "enum_field_value" : 8,
     "name" : "VK_COMPOSITE_ALPHA_INHERIT_BIT_KHR"
    },
    {
     "enum_field_value" : 2147483647,
     "name" : "VK_COMPOSITE_ALPHA_FLAG_BITS_MAX_ENUM_KHR"
    }
   ],
   "linker_set_key" : "_ZTI27VkCompositeAlphaFlagBitsKHR",
   "name" : "VkCompositeAlphaFlagBitsKHR",
   "referenced_type" : "_ZTI27VkCompositeAlphaFlagBitsKHR",
   "self_type" : "_ZTI27VkCompositeAlphaFlagBitsKHR",
   "size" : 4,
   "source_file" : "/external/vulkan-headers/include/vulkan/vulkan_core.h",
   "underlying_type" : "_ZTIj"
  },
  {
   "alignment" : 4,
   "enum_fields" :
   [
    {
     "enum_field_value" : 1,
     "name" : "VK_DEVICE_QUEUE_CREATE_PROTECTED_BIT"
    },
    {
     "enum_field_value" : 2147483647,
     "name" : "VK_DEVICE_QUEUE_CREATE_FLAG_BITS_MAX_ENUM"
    }
   ],
   "linker_set_key" : "_ZTI27VkDeviceQueueCreateFlagBits",
   "name" : "VkDeviceQueueCreateFlagBits",
   "referenced_type" : "_ZTI27VkDeviceQueueCreateFlagBits",
   "self_type" : "_ZTI27VkDeviceQueueCreateFlagBits",
   "size" : 4,
   "source_file" : "/external/vulkan-headers/include/vulkan/vulkan_core.h",
   "underlying_type" : "_ZTIj"
  },
  {
   "alignment" : 4,
   "enum_fields" :
   [
    {
     "enum_field_value" : 1,
     "name" : "VK_FRAMEBUFFER_CREATE_IMAGELESS_BIT_KHR"
    },
    {
     "enum_field_value" : 2147483647,
     "name" : "VK_FRAMEBUFFER_CREATE_FLAG_BITS_MAX_ENUM"
    }
   ],
   "linker_set_key" : "_ZTI27VkFramebufferCreateFlagBits",
   "name" : "VkFramebufferCreateFlagBits",
   "referenced_type" : "_ZTI27VkFramebufferCreateFlagBits",
   "self_type" : "_ZTI27VkFramebufferCreateFlagBits",
   "size" : 4,
   "source_file" : "/external/vulkan-headers/include/vulkan/vulkan_core.h",
   "underlying_type" : "_ZTIj"
  },
  {
   "alignment" : 4,
   "enum_fields" :
   [
    {
     "enum_field_value" : 1,
     "name" : "VK_PEER_MEMORY_FEATURE_COPY_SRC_BIT"
    },
    {
     "enum_field_value" : 2,
     "name" : "VK_PEER_MEMORY_FEATURE_COPY_DST_BIT"
    },
    {
     "enum_field_value" : 4,
     "name" : "VK_PEER_MEMORY_FEATURE_GENERIC_SRC_BIT"
    },
    {
     "enum_field_value" : 8,
     "name" : "VK_PEER_MEMORY_FEATURE_GENERIC_DST_BIT"
    },
    {
     "enum_field_value" : 1,
     "name" : "VK_PEER_MEMORY_FEATURE_COPY_SRC_BIT_KHR"
    },
    {
     "enum_field_value" : 2,
     "name" : "VK_PEER_MEMORY_FEATURE_COPY_DST_BIT_KHR"
    },
    {
     "enum_field_value" : 4,
     "name" : "VK_PEER_MEMORY_FEATURE_GENERIC_SRC_BIT_KHR"
    },
    {
     "enum_field_value" : 8,
     "name" : "VK_PEER_MEMORY_FEATURE_GENERIC_DST_BIT_KHR"
    },
    {
     "enum_field_value" : 2147483647,
     "name" : "VK_PEER_MEMORY_FEATURE_FLAG_BITS_MAX_ENUM"
    }
   ],
   "linker_set_key" : "_ZTI27VkPeerMemoryFeatureFlagBits",
   "name" : "VkPeerMemoryFeatureFlagBits",
   "referenced_type" : "_ZTI27VkPeerMemoryFeatureFlagBits",
   "self_type" : "_ZTI27VkPeerMemoryFeatureFlagBits",
   "size" : 4,
   "source_file" : "/external/vulkan-headers/include/vulkan/vulkan_core.h",
   "underlying_type" : "_ZTIj"
  },
  {
   "alignment" : 4,
   "enum_fields" :
   [
    {
     "enum_field_value" : 0,
     "name" : "VK_PERFORMANCE_VALUE_TYPE_UINT32_INTEL"
    },
    {
     "enum_field_value" : 1,
     "name" : "VK_PERFORMANCE_VALUE_TYPE_UINT64_INTEL"
    },
    {
     "enum_field_value" : 2,
     "name" : "VK_PERFORMANCE_VALUE_TYPE_FLOAT_INTEL"
    },
    {
     "enum_field_value" : 3,
     "name" : "VK_PERFORMANCE_VALUE_TYPE_BOOL_INTEL"
    },
    {
     "enum_field_value" : 4,
     "name" : "VK_PERFORMANCE_VALUE_TYPE_STRING_INTEL"
    },
    {
     "enum_field_value" : 0,
     "name" : "VK_PERFORMANCE_VALUE_TYPE_BEGIN_RANGE_INTEL"
    },
    {
     "enum_field_value" : 4,
     "name" : "VK_PERFORMANCE_VALUE_TYPE_END_RANGE_INTEL"
    },
    {
     "enum_field_value" : 5,
     "name" : "VK_PERFORMANCE_VALUE_TYPE_RANGE_SIZE_INTEL"
    },
    {
     "enum_field_value" : 2147483647,
     "name" : "VK_PERFORMANCE_VALUE_TYPE_MAX_ENUM_INTEL"
    }
   ],
   "linker_set_key" : "_ZTI27VkPerformanceValueTypeINTEL",
   "name" : "VkPerformanceValueTypeINTEL",
   "referenced_type" : "_ZTI27VkPerformanceValueTypeINTEL",
   "self_type" : "_ZTI27VkPerformanceValueTypeINTEL",
   "size" : 4,
   "source_file" : "/external/vulkan-headers/include/vulkan/vulkan_core.h",
   "underlying_type" : "_ZTIj"
  },
  {
   "alignment" : 4,
   "enum_fields" :
   [
    {
     "enum_field_value" : 0,
     "name" : "VK_SHADING_RATE_PALETTE_ENTRY_NO_INVOCATIONS_NV"
    },
    {
     "enum_field_value" : 1,
     "name" : "VK_SHADING_RATE_PALETTE_ENTRY_16_INVOCATIONS_PER_PIXEL_NV"
    },
    {
     "enum_field_value" : 2,
     "name" : "VK_SHADING_RATE_PALETTE_ENTRY_8_INVOCATIONS_PER_PIXEL_NV"
    },
    {
     "enum_field_value" : 3,
     "name" : "VK_SHADING_RATE_PALETTE_ENTRY_4_INVOCATIONS_PER_PIXEL_NV"
    },
    {
     "enum_field_value" : 4,
     "name" : "VK_SHADING_RATE_PALETTE_ENTRY_2_INVOCATIONS_PER_PIXEL_NV"
    },
    {
     "enum_field_value" : 5,
     "name" : "VK_SHADING_RATE_PALETTE_ENTRY_1_INVOCATION_PER_PIXEL_NV"
    },
    {
     "enum_field_value" : 6,
     "name" : "VK_SHADING_RATE_PALETTE_ENTRY_1_INVOCATION_PER_2X1_PIXELS_NV"
    },
    {
     "enum_field_value" : 7,
     "name" : "VK_SHADING_RATE_PALETTE_ENTRY_1_INVOCATION_PER_1X2_PIXELS_NV"
    },
    {
     "enum_field_value" : 8,
     "name" : "VK_SHADING_RATE_PALETTE_ENTRY_1_INVOCATION_PER_2X2_PIXELS_NV"
    },
    {
     "enum_field_value" : 9,
     "name" : "VK_SHADING_RATE_PALETTE_ENTRY_1_INVOCATION_PER_4X2_PIXELS_NV"
    },
    {
     "enum_field_value" : 10,
     "name" : "VK_SHADING_RATE_PALETTE_ENTRY_1_INVOCATION_PER_2X4_PIXELS_NV"
    },
    {
     "enum_field_value" : 11,
     "name" : "VK_SHADING_RATE_PALETTE_ENTRY_1_INVOCATION_PER_4X4_PIXELS_NV"
    },
    {
     "enum_field_value" : 0,
     "name" : "VK_SHADING_RATE_PALETTE_ENTRY_BEGIN_RANGE_NV"
    },
    {
     "enum_field_value" : 11,
     "name" : "VK_SHADING_RATE_PALETTE_ENTRY_END_RANGE_NV"
    },
    {
     "enum_field_value" : 12,
     "name" : "VK_SHADING_RATE_PALETTE_ENTRY_RANGE_SIZE_NV"
    },
    {
     "enum_field_value" : 2147483647,
     "name" : "VK_SHADING_RATE_PALETTE_ENTRY_MAX_ENUM_NV"
    }
   ],
   "linker_set_key" : "_ZTI27VkShadingRatePaletteEntryNV",
   "name" : "VkShadingRatePaletteEntryNV",
   "referenced_type" : "_ZTI27VkShadingRatePaletteEntryNV",
   "self_type" : "_ZTI27VkShadingRatePaletteEntryNV",
   "size" : 4,
   "source_file" : "/external/vulkan-headers/include/vulkan/vulkan_core.h",
   "underlying_type" : "_ZTIj"
  },
  {
   "alignment" : 4,
   "enum_fields" :
   [
    {
     "enum_field_value" : 1,
     "name" : "VK_SPARSE_IMAGE_FORMAT_SINGLE_MIPTAIL_BIT"
    },
    {
     "enum_field_value" : 2,
     "name" : "VK_SPARSE_IMAGE_FORMAT_ALIGNED_MIP_SIZE_BIT"
    },
    {
     "enum_field_value" : 4,
     "name" : "VK_SPARSE_IMAGE_FORMAT_NONSTANDARD_BLOCK_SIZE_BIT"
    },
    {
     "enum_field_value" : 2147483647,
     "name" : "VK_SPARSE_IMAGE_FORMAT_FLAG_BITS_MAX_ENUM"
    }
   ],
   "linker_set_key" : "_ZTI27VkSparseImageFormatFlagBits",
   "name" : "VkSparseImageFormatFlagBits",
   "referenced_type" : "_ZTI27VkSparseImageFormatFlagBits",
   "self_type" : "_ZTI27VkSparseImageFormatFlagBits",
   "size" : 4,
   "source_file" : "/external/vulkan-headers/include/vulkan/vulkan_core.h",
   "underlying_type" : "_ZTIj"
  },
  {
   "alignment" : 4,
   "enum_fields" :
   [
    {
     "enum_field_value" : 1,
     "name" : "VK_SURFACE_COUNTER_VBLANK_EXT"
    },
    {
     "enum_field_value" : 2147483647,
     "name" : "VK_SURFACE_COUNTER_FLAG_BITS_MAX_ENUM_EXT"
    }
   ],
   "linker_set_key" : "_ZTI27VkSurfaceCounterFlagBitsEXT",
   "name" : "VkSurfaceCounterFlagBitsEXT",
   "referenced_type" : "_ZTI27VkSurfaceCounterFlagBitsEXT",
   "self_type" : "_ZTI27VkSurfaceCounterFlagBitsEXT",
   "size" : 4,
   "source_file" : "/external/vulkan-headers/include/vulkan/vulkan_core.h",
   "underlying_type" : "_ZTIj"
  },
  {
   "alignment" : 4,
   "enum_fields" :
   [
    {
     "enum_field_value" : 1,
     "name" : "VK_COMMAND_BUFFER_RESET_RELEASE_RESOURCES_BIT"
    },
    {
     "enum_field_value" : 2147483647,
     "name" : "VK_COMMAND_BUFFER_RESET_FLAG_BITS_MAX_ENUM"
    }
   ],
   "linker_set_key" : "_ZTI28VkCommandBufferResetFlagBits",
   "name" : "VkCommandBufferResetFlagBits",
   "referenced_type" : "_ZTI28VkCommandBufferResetFlagBits",
   "self_type" : "_ZTI28VkCommandBufferResetFlagBits",
   "size" : 4,
   "source_file" : "/external/vulkan-headers/include/vulkan/vulkan_core.h",
   "underlying_type" : "_ZTIj"
  },
  {
   "alignment" : 4,
   "enum_fields" :
   [
    {
     "enum_field_value" : 1,
     "name" : "VK_COMMAND_BUFFER_USAGE_ONE_TIME_SUBMIT_BIT"
    },
    {
     "enum_field_value" : 2,
     "name" : "VK_COMMAND_BUFFER_USAGE_RENDER_PASS_CONTINUE_BIT"
    },
    {
     "enum_field_value" : 4,
     "name" : "VK_COMMAND_BUFFER_USAGE_SIMULTANEOUS_USE_BIT"
    },
    {
     "enum_field_value" : 2147483647,
     "name" : "VK_COMMAND_BUFFER_USAGE_FLAG_BITS_MAX_ENUM"
    }
   ],
   "linker_set_key" : "_ZTI28VkCommandBufferUsageFlagBits",
   "name" : "VkCommandBufferUsageFlagBits",
   "referenced_type" : "_ZTI28VkCommandBufferUsageFlagBits",
   "self_type" : "_ZTI28VkCommandBufferUsageFlagBits",
   "size" : 4,
   "source_file" : "/external/vulkan-headers/include/vulkan/vulkan_core.h",
   "underlying_type" : "_ZTIj"
  },
  {
   "alignment" : 4,
   "enum_fields" :
   [
    {
     "enum_field_value" : 1,
     "name" : "VK_GEOMETRY_INSTANCE_TRIANGLE_CULL_DISABLE_BIT_NV"
    },
    {
     "enum_field_value" : 2,
     "name" : "VK_GEOMETRY_INSTANCE_TRIANGLE_FRONT_COUNTERCLOCKWISE_BIT_NV"
    },
    {
     "enum_field_value" : 4,
     "name" : "VK_GEOMETRY_INSTANCE_FORCE_OPAQUE_BIT_NV"
    },
    {
     "enum_field_value" : 8,
     "name" : "VK_GEOMETRY_INSTANCE_FORCE_NO_OPAQUE_BIT_NV"
    },
    {
     "enum_field_value" : 2147483647,
     "name" : "VK_GEOMETRY_INSTANCE_FLAG_BITS_MAX_ENUM_NV"
    }
   ],
   "linker_set_key" : "_ZTI28VkGeometryInstanceFlagBitsNV",
   "name" : "VkGeometryInstanceFlagBitsNV",
   "referenced_type" : "_ZTI28VkGeometryInstanceFlagBitsNV",
   "self_type" : "_ZTI28VkGeometryInstanceFlagBitsNV",
   "size" : 4,
   "source_file" : "/external/vulkan-headers/include/vulkan/vulkan_core.h",
   "underlying_type" : "_ZTIj"
  },
  {
   "alignment" : 4,
   "enum_fields" :
   [
    {
     "enum_field_value" : 1,
     "name" : "VK_PIPELINE_CACHE_HEADER_VERSION_ONE"
    },
    {
     "enum_field_value" : 1,
     "name" : "VK_PIPELINE_CACHE_HEADER_VERSION_BEGIN_RANGE"
    },
    {
     "enum_field_value" : 1,
     "name" : "VK_PIPELINE_CACHE_HEADER_VERSION_END_RANGE"
    },
    {
     "enum_field_value" : 1,
     "name" : "VK_PIPELINE_CACHE_HEADER_VERSION_RANGE_SIZE"
    },
    {
     "enum_field_value" : 2147483647,
     "name" : "VK_PIPELINE_CACHE_HEADER_VERSION_MAX_ENUM"
    }
   ],
   "linker_set_key" : "_ZTI28VkPipelineCacheHeaderVersion",
   "name" : "VkPipelineCacheHeaderVersion",
   "referenced_type" : "_ZTI28VkPipelineCacheHeaderVersion",
   "self_type" : "_ZTI28VkPipelineCacheHeaderVersion",
   "size" : 4,
   "source_file" : "/external/vulkan-headers/include/vulkan/vulkan_core.h",
   "underlying_type" : "_ZTIj"
  },
  {
   "alignment" : 4,
   "enum_fields" :
   [
    {
     "enum_field_value" : 0,
     "name" : "VK_QUERY_POOL_SAMPLING_MODE_MANUAL_INTEL"
    },
    {
     "enum_field_value" : 0,
     "name" : "VK_QUERY_POOL_SAMPLING_MODE_BEGIN_RANGE_INTEL"
    },
    {
     "enum_field_value" : 0,
     "name" : "VK_QUERY_POOL_SAMPLING_MODE_END_RANGE_INTEL"
    },
    {
     "enum_field_value" : 1,
     "name" : "VK_QUERY_POOL_SAMPLING_MODE_RANGE_SIZE_INTEL"
    },
    {
     "enum_field_value" : 2147483647,
     "name" : "VK_QUERY_POOL_SAMPLING_MODE_MAX_ENUM_INTEL"
    }
   ],
   "linker_set_key" : "_ZTI28VkQueryPoolSamplingModeINTEL",
   "name" : "VkQueryPoolSamplingModeINTEL",
   "referenced_type" : "_ZTI28VkQueryPoolSamplingModeINTEL",
   "self_type" : "_ZTI28VkQueryPoolSamplingModeINTEL",
   "size" : 4,
   "source_file" : "/external/vulkan-headers/include/vulkan/vulkan_core.h",
   "underlying_type" : "_ZTIj"
  },
  {
   "alignment" : 4,
   "enum_fields" :
   [
    {
     "enum_field_value" : 2147483647,
     "name" : "VK_SHADER_MODULE_CREATE_FLAG_BITS_MAX_ENUM"
    }
   ],
   "linker_set_key" : "_ZTI28VkShaderModuleCreateFlagBits",
   "name" : "VkShaderModuleCreateFlagBits",
   "referenced_type" : "_ZTI28VkShaderModuleCreateFlagBits",
   "self_type" : "_ZTI28VkShaderModuleCreateFlagBits",
   "size" : 4,
   "source_file" : "/external/vulkan-headers/include/vulkan/vulkan_core.h",
   "underlying_type" : "_ZTIj"
  },
  {
   "alignment" : 4,
   "enum_fields" :
   [
    {
     "enum_field_value" : 1,
     "name" : "VK_SUBPASS_DESCRIPTION_PER_VIEW_ATTRIBUTES_BIT_NVX"
    },
    {
     "enum_field_value" : 2,
     "name" : "VK_SUBPASS_DESCRIPTION_PER_VIEW_POSITION_X_ONLY_BIT_NVX"
    },
    {
     "enum_field_value" : 2147483647,
     "name" : "VK_SUBPASS_DESCRIPTION_FLAG_BITS_MAX_ENUM"
    }
   ],
   "linker_set_key" : "_ZTI28VkSubpassDescriptionFlagBits",
   "name" : "VkSubpassDescriptionFlagBits",
   "referenced_type" : "_ZTI28VkSubpassDescriptionFlagBits",
   "self_type" : "_ZTI28VkSubpassDescriptionFlagBits",
   "size" : 4,
   "source_file" : "/external/vulkan-headers/include/vulkan/vulkan_core.h",
   "underlying_type" : "_ZTIj"
  },
  {
   "alignment" : 4,
   "enum_fields" :
   [
    {
     "enum_field_value" : 1,
     "name" : "VK_SWAPCHAIN_CREATE_SPLIT_INSTANCE_BIND_REGIONS_BIT_KHR"
    },
    {
     "enum_field_value" : 2,
     "name" : "VK_SWAPCHAIN_CREATE_PROTECTED_BIT_KHR"
    },
    {
     "enum_field_value" : 4,
     "name" : "VK_SWAPCHAIN_CREATE_MUTABLE_FORMAT_BIT_KHR"
    },
    {
     "enum_field_value" : 2147483647,
     "name" : "VK_SWAPCHAIN_CREATE_FLAG_BITS_MAX_ENUM_KHR"
    }
   ],
   "linker_set_key" : "_ZTI28VkSwapchainCreateFlagBitsKHR",
   "name" : "VkSwapchainCreateFlagBitsKHR",
   "referenced_type" : "_ZTI28VkSwapchainCreateFlagBitsKHR",
   "self_type" : "_ZTI28VkSwapchainCreateFlagBitsKHR",
   "size" : 4,
   "source_file" : "/external/vulkan-headers/include/vulkan/vulkan_core.h",
   "underlying_type" : "_ZTIj"
  },
  {
   "alignment" : 4,
   "enum_fields" :
   [
    {
     "enum_field_value" : 0,
     "name" : "VK_VALIDATION_FEATURE_ENABLE_GPU_ASSISTED_EXT"
    },
    {
     "enum_field_value" : 1,
     "name" : "VK_VALIDATION_FEATURE_ENABLE_GPU_ASSISTED_RESERVE_BINDING_SLOT_EXT"
    },
    {
     "enum_field_value" : 2,
     "name" : "VK_VALIDATION_FEATURE_ENABLE_BEST_PRACTICES_EXT"
    },
    {
     "enum_field_value" : 0,
     "name" : "VK_VALIDATION_FEATURE_ENABLE_BEGIN_RANGE_EXT"
    },
    {
     "enum_field_value" : 2,
     "name" : "VK_VALIDATION_FEATURE_ENABLE_END_RANGE_EXT"
    },
    {
     "enum_field_value" : 3,
     "name" : "VK_VALIDATION_FEATURE_ENABLE_RANGE_SIZE_EXT"
    },
    {
     "enum_field_value" : 2147483647,
     "name" : "VK_VALIDATION_FEATURE_ENABLE_MAX_ENUM_EXT"
    }
   ],
   "linker_set_key" : "_ZTI28VkValidationFeatureEnableEXT",
   "name" : "VkValidationFeatureEnableEXT",
   "referenced_type" : "_ZTI28VkValidationFeatureEnableEXT",
   "self_type" : "_ZTI28VkValidationFeatureEnableEXT",
   "size" : 4,
   "source_file" : "/external/vulkan-headers/include/vulkan/vulkan_core.h",
   "underlying_type" : "_ZTIj"
  },
  {
   "alignment" : 4,
   "enum_fields" :
   [
    {
     "enum_field_value" : 0,
     "name" : "VK_ACCELERATION_STRUCTURE_TYPE_TOP_LEVEL_NV"
    },
    {
     "enum_field_value" : 1,
     "name" : "VK_ACCELERATION_STRUCTURE_TYPE_BOTTOM_LEVEL_NV"
    },
    {
     "enum_field_value" : 0,
     "name" : "VK_ACCELERATION_STRUCTURE_TYPE_BEGIN_RANGE_NV"
    },
    {
     "enum_field_value" : 1,
     "name" : "VK_ACCELERATION_STRUCTURE_TYPE_END_RANGE_NV"
    },
    {
     "enum_field_value" : 2,
     "name" : "VK_ACCELERATION_STRUCTURE_TYPE_RANGE_SIZE_NV"
    },
    {
     "enum_field_value" : 2147483647,
     "name" : "VK_ACCELERATION_STRUCTURE_TYPE_MAX_ENUM_NV"
    }
   ],
   "linker_set_key" : "_ZTI29VkAccelerationStructureTypeNV",
   "name" : "VkAccelerationStructureTypeNV",
   "referenced_type" : "_ZTI29VkAccelerationStructureTypeNV",
   "self_type" : "_ZTI29VkAccelerationStructureTypeNV",
   "size" : 4,
   "source_file" : "/external/vulkan-headers/include/vulkan/vulkan_core.h",
   "underlying_type" : "_ZTIj"
  },
  {
   "alignment" : 4,
   "enum_fields" :
   [
    {
     "enum_field_value" : 1,
     "name" : "VK_OBJECT_ENTRY_USAGE_GRAPHICS_BIT_NVX"
    },
    {
     "enum_field_value" : 2,
     "name" : "VK_OBJECT_ENTRY_USAGE_COMPUTE_BIT_NVX"
    },
    {
     "enum_field_value" : 2147483647,
     "name" : "VK_OBJECT_ENTRY_USAGE_FLAG_BITS_MAX_ENUM_NVX"
    }
   ],
   "linker_set_key" : "_ZTI29VkObjectEntryUsageFlagBitsNVX",
   "name" : "VkObjectEntryUsageFlagBitsNVX",
   "referenced_type" : "_ZTI29VkObjectEntryUsageFlagBitsNVX",
   "self_type" : "_ZTI29VkObjectEntryUsageFlagBitsNVX",
   "size" : 4,
   "source_file" : "/external/vulkan-headers/include/vulkan/vulkan_core.h",
   "underlying_type" : "_ZTIj"
  },
  {
   "alignment" : 4,
   "enum_fields" :
   [
    {
     "enum_field_value" : 0,
     "name" : "VK_RAY_TRACING_SHADER_GROUP_TYPE_GENERAL_NV"
    },
    {
     "enum_field_value" : 1,
     "name" : "VK_RAY_TRACING_SHADER_GROUP_TYPE_TRIANGLES_HIT_GROUP_NV"
    },
    {
     "enum_field_value" : 2,
     "name" : "VK_RAY_TRACING_SHADER_GROUP_TYPE_PROCEDURAL_HIT_GROUP_NV"
    },
    {
     "enum_field_value" : 0,
     "name" : "VK_RAY_TRACING_SHADER_GROUP_TYPE_BEGIN_RANGE_NV"
    },
    {
     "enum_field_value" : 2,
     "name" : "VK_RAY_TRACING_SHADER_GROUP_TYPE_END_RANGE_NV"
    },
    {
     "enum_field_value" : 3,
     "name" : "VK_RAY_TRACING_SHADER_GROUP_TYPE_RANGE_SIZE_NV"
    },
    {
     "enum_field_value" : 2147483647,
     "name" : "VK_RAY_TRACING_SHADER_GROUP_TYPE_MAX_ENUM_NV"
    }
   ],
   "linker_set_key" : "_ZTI29VkRayTracingShaderGroupTypeNV",
   "name" : "VkRayTracingShaderGroupTypeNV",
   "referenced_type" : "_ZTI29VkRayTracingShaderGroupTypeNV",
   "self_type" : "_ZTI29VkRayTracingShaderGroupTypeNV",
   "size" : 4,
   "source_file" : "/external/vulkan-headers/include/vulkan/vulkan_core.h",
   "underlying_type" : "_ZTIj"
  },
  {
   "alignment" : 4,
   "enum_fields" :
   [
    {
     "enum_field_value" : 0,
     "name" : "VK_SAMPLER_YCBCR_MODEL_CONVERSION_RGB_IDENTITY"
    },
    {
     "enum_field_value" : 1,
     "name" : "VK_SAMPLER_YCBCR_MODEL_CONVERSION_YCBCR_IDENTITY"
    },
    {
     "enum_field_value" : 2,
     "name" : "VK_SAMPLER_YCBCR_MODEL_CONVERSION_YCBCR_709"
    },
    {
     "enum_field_value" : 3,
     "name" : "VK_SAMPLER_YCBCR_MODEL_CONVERSION_YCBCR_601"
    },
    {
     "enum_field_value" : 4,
     "name" : "VK_SAMPLER_YCBCR_MODEL_CONVERSION_YCBCR_2020"
    },
    {
     "enum_field_value" : 0,
     "name" : "VK_SAMPLER_YCBCR_MODEL_CONVERSION_RGB_IDENTITY_KHR"
    },
    {
     "enum_field_value" : 1,
     "name" : "VK_SAMPLER_YCBCR_MODEL_CONVERSION_YCBCR_IDENTITY_KHR"
    },
    {
     "enum_field_value" : 2,
     "name" : "VK_SAMPLER_YCBCR_MODEL_CONVERSION_YCBCR_709_KHR"
    },
    {
     "enum_field_value" : 3,
     "name" : "VK_SAMPLER_YCBCR_MODEL_CONVERSION_YCBCR_601_KHR"
    },
    {
     "enum_field_value" : 4,
     "name" : "VK_SAMPLER_YCBCR_MODEL_CONVERSION_YCBCR_2020_KHR"
    },
    {
     "enum_field_value" : 0,
     "name" : "VK_SAMPLER_YCBCR_MODEL_CONVERSION_BEGIN_RANGE"
    },
    {
     "enum_field_value" : 4,
     "name" : "VK_SAMPLER_YCBCR_MODEL_CONVERSION_END_RANGE"
    },
    {
     "enum_field_value" : 5,
     "name" : "VK_SAMPLER_YCBCR_MODEL_CONVERSION_RANGE_SIZE"
    },
    {
     "enum_field_value" : 2147483647,
     "name" : "VK_SAMPLER_YCBCR_MODEL_CONVERSION_MAX_ENUM"
    }
   ],
   "linker_set_key" : "_ZTI29VkSamplerYcbcrModelConversion",
   "name" : "VkSamplerYcbcrModelConversion",
   "referenced_type" : "_ZTI29VkSamplerYcbcrModelConversion",
   "self_type" : "_ZTI29VkSamplerYcbcrModelConversion",
   "size" : 4,
   "source_file" : "/external/vulkan-headers/include/vulkan/vulkan_core.h",
   "underlying_type" : "_ZTIj"
  },
  {
   "alignment" : 4,
   "enum_fields" :
   [
    {
     "enum_field_value" : 1,
     "name" : "VK_SURFACE_TRANSFORM_IDENTITY_BIT_KHR"
    },
    {
     "enum_field_value" : 2,
     "name" : "VK_SURFACE_TRANSFORM_ROTATE_90_BIT_KHR"
    },
    {
     "enum_field_value" : 4,
     "name" : "VK_SURFACE_TRANSFORM_ROTATE_180_BIT_KHR"
    },
    {
     "enum_field_value" : 8,
     "name" : "VK_SURFACE_TRANSFORM_ROTATE_270_BIT_KHR"
    },
    {
     "enum_field_value" : 16,
     "name" : "VK_SURFACE_TRANSFORM_HORIZONTAL_MIRROR_BIT_KHR"
    },
    {
     "enum_field_value" : 32,
     "name" : "VK_SURFACE_TRANSFORM_HORIZONTAL_MIRROR_ROTATE_90_BIT_KHR"
    },
    {
     "enum_field_value" : 64,
     "name" : "VK_SURFACE_TRANSFORM_HORIZONTAL_MIRROR_ROTATE_180_BIT_KHR"
    },
    {
     "enum_field_value" : 128,
     "name" : "VK_SURFACE_TRANSFORM_HORIZONTAL_MIRROR_ROTATE_270_BIT_KHR"
    },
    {
     "enum_field_value" : 256,
     "name" : "VK_SURFACE_TRANSFORM_INHERIT_BIT_KHR"
    },
    {
     "enum_field_value" : 2147483647,
     "name" : "VK_SURFACE_TRANSFORM_FLAG_BITS_MAX_ENUM_KHR"
    }
   ],
   "linker_set_key" : "_ZTI29VkSurfaceTransformFlagBitsKHR",
   "name" : "VkSurfaceTransformFlagBitsKHR",
   "referenced_type" : "_ZTI29VkSurfaceTransformFlagBitsKHR",
   "self_type" : "_ZTI29VkSurfaceTransformFlagBitsKHR",
   "size" : 4,
   "source_file" : "/external/vulkan-headers/include/vulkan/vulkan_core.h",
   "underlying_type" : "_ZTIj"
  },
  {
   "alignment" : 4,
   "enum_fields" :
   [
    {
     "enum_field_value" : 0,
     "name" : "VK_VALIDATION_FEATURE_DISABLE_ALL_EXT"
    },
    {
     "enum_field_value" : 1,
     "name" : "VK_VALIDATION_FEATURE_DISABLE_SHADERS_EXT"
    },
    {
     "enum_field_value" : 2,
     "name" : "VK_VALIDATION_FEATURE_DISABLE_THREAD_SAFETY_EXT"
    },
    {
     "enum_field_value" : 3,
     "name" : "VK_VALIDATION_FEATURE_DISABLE_API_PARAMETERS_EXT"
    },
    {
     "enum_field_value" : 4,
     "name" : "VK_VALIDATION_FEATURE_DISABLE_OBJECT_LIFETIMES_EXT"
    },
    {
     "enum_field_value" : 5,
     "name" : "VK_VALIDATION_FEATURE_DISABLE_CORE_CHECKS_EXT"
    },
    {
     "enum_field_value" : 6,
     "name" : "VK_VALIDATION_FEATURE_DISABLE_UNIQUE_HANDLES_EXT"
    },
    {
     "enum_field_value" : 0,
     "name" : "VK_VALIDATION_FEATURE_DISABLE_BEGIN_RANGE_EXT"
    },
    {
     "enum_field_value" : 6,
     "name" : "VK_VALIDATION_FEATURE_DISABLE_END_RANGE_EXT"
    },
    {
     "enum_field_value" : 7,
     "name" : "VK_VALIDATION_FEATURE_DISABLE_RANGE_SIZE_EXT"
    },
    {
     "enum_field_value" : 2147483647,
     "name" : "VK_VALIDATION_FEATURE_DISABLE_MAX_ENUM_EXT"
    }
   ],
   "linker_set_key" : "_ZTI29VkValidationFeatureDisableEXT",
   "name" : "VkValidationFeatureDisableEXT",
   "referenced_type" : "_ZTI29VkValidationFeatureDisableEXT",
   "self_type" : "_ZTI29VkValidationFeatureDisableEXT",
   "size" : 4,
   "source_file" : "/external/vulkan-headers/include/vulkan/vulkan_core.h",
   "underlying_type" : "_ZTIj"
  },
  {
   "alignment" : 4,
   "enum_fields" :
   [
    {
     "enum_field_value" : 0,
     "name" : "VK_VIEWPORT_COORDINATE_SWIZZLE_POSITIVE_X_NV"
    },
    {
     "enum_field_value" : 1,
     "name" : "VK_VIEWPORT_COORDINATE_SWIZZLE_NEGATIVE_X_NV"
    },
    {
     "enum_field_value" : 2,
     "name" : "VK_VIEWPORT_COORDINATE_SWIZZLE_POSITIVE_Y_NV"
    },
    {
     "enum_field_value" : 3,
     "name" : "VK_VIEWPORT_COORDINATE_SWIZZLE_NEGATIVE_Y_NV"
    },
    {
     "enum_field_value" : 4,
     "name" : "VK_VIEWPORT_COORDINATE_SWIZZLE_POSITIVE_Z_NV"
    },
    {
     "enum_field_value" : 5,
     "name" : "VK_VIEWPORT_COORDINATE_SWIZZLE_NEGATIVE_Z_NV"
    },
    {
     "enum_field_value" : 6,
     "name" : "VK_VIEWPORT_COORDINATE_SWIZZLE_POSITIVE_W_NV"
    },
    {
     "enum_field_value" : 7,
     "name" : "VK_VIEWPORT_COORDINATE_SWIZZLE_NEGATIVE_W_NV"
    },
    {
     "enum_field_value" : 0,
     "name" : "VK_VIEWPORT_COORDINATE_SWIZZLE_BEGIN_RANGE_NV"
    },
    {
     "enum_field_value" : 7,
     "name" : "VK_VIEWPORT_COORDINATE_SWIZZLE_END_RANGE_NV"
    },
    {
     "enum_field_value" : 8,
     "name" : "VK_VIEWPORT_COORDINATE_SWIZZLE_RANGE_SIZE_NV"
    },
    {
     "enum_field_value" : 2147483647,
     "name" : "VK_VIEWPORT_COORDINATE_SWIZZLE_MAX_ENUM_NV"
    }
   ],
   "linker_set_key" : "_ZTI29VkViewportCoordinateSwizzleNV",
   "name" : "VkViewportCoordinateSwizzleNV",
   "referenced_type" : "_ZTI29VkViewportCoordinateSwizzleNV",
   "self_type" : "_ZTI29VkViewportCoordinateSwizzleNV",
   "size" : 4,
   "source_file" : "/external/vulkan-headers/include/vulkan/vulkan_core.h",
   "underlying_type" : "_ZTIj"
  },
  {
   "alignment" : 4,
   "enum_fields" :
   [
    {
     "enum_field_value" : 1,
     "name" : "VK_DESCRIPTOR_BINDING_UPDATE_AFTER_BIND_BIT_EXT"
    },
    {
     "enum_field_value" : 2,
     "name" : "VK_DESCRIPTOR_BINDING_UPDATE_UNUSED_WHILE_PENDING_BIT_EXT"
    },
    {
     "enum_field_value" : 4,
     "name" : "VK_DESCRIPTOR_BINDING_PARTIALLY_BOUND_BIT_EXT"
    },
    {
     "enum_field_value" : 8,
     "name" : "VK_DESCRIPTOR_BINDING_VARIABLE_DESCRIPTOR_COUNT_BIT_EXT"
    },
    {
     "enum_field_value" : 2147483647,
     "name" : "VK_DESCRIPTOR_BINDING_FLAG_BITS_MAX_ENUM_EXT"
    }
   ],
   "linker_set_key" : "_ZTI30VkDescriptorBindingFlagBitsEXT",
   "name" : "VkDescriptorBindingFlagBitsEXT",
   "referenced_type" : "_ZTI30VkDescriptorBindingFlagBitsEXT",
   "self_type" : "_ZTI30VkDescriptorBindingFlagBitsEXT",
   "size" : 4,
   "source_file" : "/external/vulkan-headers/include/vulkan/vulkan_core.h",
   "underlying_type" : "_ZTIj"
  },
  {
   "alignment" : 4,
   "enum_fields" :
   [
    {
     "enum_field_value" : 1,
     "name" : "VK_DESCRIPTOR_POOL_CREATE_FREE_DESCRIPTOR_SET_BIT"
    },
    {
     "enum_field_value" : 2,
     "name" : "VK_DESCRIPTOR_POOL_CREATE_UPDATE_AFTER_BIND_BIT_EXT"
    },
    {
     "enum_field_value" : 2147483647,
     "name" : "VK_DESCRIPTOR_POOL_CREATE_FLAG_BITS_MAX_ENUM"
    }
   ],
   "linker_set_key" : "_ZTI30VkDescriptorPoolCreateFlagBits",
   "name" : "VkDescriptorPoolCreateFlagBits",
   "referenced_type" : "_ZTI30VkDescriptorPoolCreateFlagBits",
   "self_type" : "_ZTI30VkDescriptorPoolCreateFlagBits",
   "size" : 4,
   "source_file" : "/external/vulkan-headers/include/vulkan/vulkan_core.h",
   "underlying_type" : "_ZTIj"
  },
  {
   "alignment" : 4,
   "enum_fields" :
   [
    {
     "enum_field_value" : 0,
     "name" : "VK_DESCRIPTOR_UPDATE_TEMPLATE_TYPE_DESCRIPTOR_SET"
    },
    {
     "enum_field_value" : 1,
     "name" : "VK_DESCRIPTOR_UPDATE_TEMPLATE_TYPE_PUSH_DESCRIPTORS_KHR"
    },
    {
     "enum_field_value" : 0,
     "name" : "VK_DESCRIPTOR_UPDATE_TEMPLATE_TYPE_DESCRIPTOR_SET_KHR"
    },
    {
     "enum_field_value" : 0,
     "name" : "VK_DESCRIPTOR_UPDATE_TEMPLATE_TYPE_BEGIN_RANGE"
    },
    {
     "enum_field_value" : 0,
     "name" : "VK_DESCRIPTOR_UPDATE_TEMPLATE_TYPE_END_RANGE"
    },
    {
     "enum_field_value" : 1,
     "name" : "VK_DESCRIPTOR_UPDATE_TEMPLATE_TYPE_RANGE_SIZE"
    },
    {
     "enum_field_value" : 2147483647,
     "name" : "VK_DESCRIPTOR_UPDATE_TEMPLATE_TYPE_MAX_ENUM"
    }
   ],
   "linker_set_key" : "_ZTI30VkDescriptorUpdateTemplateType",
   "name" : "VkDescriptorUpdateTemplateType",
   "referenced_type" : "_ZTI30VkDescriptorUpdateTemplateType",
   "self_type" : "_ZTI30VkDescriptorUpdateTemplateType",
   "size" : 4,
   "source_file" : "/external/vulkan-headers/include/vulkan/vulkan_core.h",
   "underlying_type" : "_ZTIj"
  },
  {
   "alignment" : 4,
   "enum_fields" :
   [
    {
     "enum_field_value" : 1,
     "name" : "VK_DISPLAY_PLANE_ALPHA_OPAQUE_BIT_KHR"
    },
    {
     "enum_field_value" : 2,
     "name" : "VK_DISPLAY_PLANE_ALPHA_GLOBAL_BIT_KHR"
    },
    {
     "enum_field_value" : 4,
     "name" : "VK_DISPLAY_PLANE_ALPHA_PER_PIXEL_BIT_KHR"
    },
    {
     "enum_field_value" : 8,
     "name" : "VK_DISPLAY_PLANE_ALPHA_PER_PIXEL_PREMULTIPLIED_BIT_KHR"
    },
    {
     "enum_field_value" : 2147483647,
     "name" : "VK_DISPLAY_PLANE_ALPHA_FLAG_BITS_MAX_ENUM_KHR"
    }
   ],
   "linker_set_key" : "_ZTI30VkDisplayPlaneAlphaFlagBitsKHR",
   "name" : "VkDisplayPlaneAlphaFlagBitsKHR",
   "referenced_type" : "_ZTI30VkDisplayPlaneAlphaFlagBitsKHR",
   "self_type" : "_ZTI30VkDisplayPlaneAlphaFlagBitsKHR",
   "size" : 4,
   "source_file" : "/external/vulkan-headers/include/vulkan/vulkan_core.h",
   "underlying_type" : "_ZTIj"
  },
  {
   "alignment" : 4,
   "enum_fields" :
   [
    {
     "enum_field_value" : 1,
     "name" : "VK_EXTERNAL_FENCE_FEATURE_EXPORTABLE_BIT"
    },
    {
     "enum_field_value" : 2,
     "name" : "VK_EXTERNAL_FENCE_FEATURE_IMPORTABLE_BIT"
    },
    {
     "enum_field_value" : 1,
     "name" : "VK_EXTERNAL_FENCE_FEATURE_EXPORTABLE_BIT_KHR"
    },
    {
     "enum_field_value" : 2,
     "name" : "VK_EXTERNAL_FENCE_FEATURE_IMPORTABLE_BIT_KHR"
    },
    {
     "enum_field_value" : 2147483647,
     "name" : "VK_EXTERNAL_FENCE_FEATURE_FLAG_BITS_MAX_ENUM"
    }
   ],
   "linker_set_key" : "_ZTI30VkExternalFenceFeatureFlagBits",
   "name" : "VkExternalFenceFeatureFlagBits",
   "referenced_type" : "_ZTI30VkExternalFenceFeatureFlagBits",
   "self_type" : "_ZTI30VkExternalFenceFeatureFlagBits",
   "size" : 4,
   "source_file" : "/external/vulkan-headers/include/vulkan/vulkan_core.h",
   "underlying_type" : "_ZTIj"
  },
  {
   "alignment" : 4,
   "enum_fields" :
   [
    {
     "enum_field_value" : 0,
     "name" : "VK_INDIRECT_COMMANDS_TOKEN_TYPE_PIPELINE_NVX"
    },
    {
     "enum_field_value" : 1,
     "name" : "VK_INDIRECT_COMMANDS_TOKEN_TYPE_DESCRIPTOR_SET_NVX"
    },
    {
     "enum_field_value" : 2,
     "name" : "VK_INDIRECT_COMMANDS_TOKEN_TYPE_INDEX_BUFFER_NVX"
    },
    {
     "enum_field_value" : 3,
     "name" : "VK_INDIRECT_COMMANDS_TOKEN_TYPE_VERTEX_BUFFER_NVX"
    },
    {
     "enum_field_value" : 4,
     "name" : "VK_INDIRECT_COMMANDS_TOKEN_TYPE_PUSH_CONSTANT_NVX"
    },
    {
     "enum_field_value" : 5,
     "name" : "VK_INDIRECT_COMMANDS_TOKEN_TYPE_DRAW_INDEXED_NVX"
    },
    {
     "enum_field_value" : 6,
     "name" : "VK_INDIRECT_COMMANDS_TOKEN_TYPE_DRAW_NVX"
    },
    {
     "enum_field_value" : 7,
     "name" : "VK_INDIRECT_COMMANDS_TOKEN_TYPE_DISPATCH_NVX"
    },
    {
     "enum_field_value" : 0,
     "name" : "VK_INDIRECT_COMMANDS_TOKEN_TYPE_BEGIN_RANGE_NVX"
    },
    {
     "enum_field_value" : 7,
     "name" : "VK_INDIRECT_COMMANDS_TOKEN_TYPE_END_RANGE_NVX"
    },
    {
     "enum_field_value" : 8,
     "name" : "VK_INDIRECT_COMMANDS_TOKEN_TYPE_RANGE_SIZE_NVX"
    },
    {
     "enum_field_value" : 2147483647,
     "name" : "VK_INDIRECT_COMMANDS_TOKEN_TYPE_MAX_ENUM_NVX"
    }
   ],
   "linker_set_key" : "_ZTI30VkIndirectCommandsTokenTypeNVX",
   "name" : "VkIndirectCommandsTokenTypeNVX",
   "referenced_type" : "_ZTI30VkIndirectCommandsTokenTypeNVX",
   "self_type" : "_ZTI30VkIndirectCommandsTokenTypeNVX",
   "size" : 4,
   "source_file" : "/external/vulkan-headers/include/vulkan/vulkan_core.h",
   "underlying_type" : "_ZTIj"
  },
  {
   "alignment" : 4,
   "enum_fields" :
   [
    {
     "enum_field_value" : 0,
     "name" : "VK_PERFORMANCE_OVERRIDE_TYPE_NULL_HARDWARE_INTEL"
    },
    {
     "enum_field_value" : 1,
     "name" : "VK_PERFORMANCE_OVERRIDE_TYPE_FLUSH_GPU_CACHES_INTEL"
    },
    {
     "enum_field_value" : 0,
     "name" : "VK_PERFORMANCE_OVERRIDE_TYPE_BEGIN_RANGE_INTEL"
    },
    {
     "enum_field_value" : 1,
     "name" : "VK_PERFORMANCE_OVERRIDE_TYPE_END_RANGE_INTEL"
    },
    {
     "enum_field_value" : 2,
     "name" : "VK_PERFORMANCE_OVERRIDE_TYPE_RANGE_SIZE_INTEL"
    },
    {
     "enum_field_value" : 2147483647,
     "name" : "VK_PERFORMANCE_OVERRIDE_TYPE_MAX_ENUM_INTEL"
    }
   ],
   "linker_set_key" : "_ZTI30VkPerformanceOverrideTypeINTEL",
   "name" : "VkPerformanceOverrideTypeINTEL",
   "referenced_type" : "_ZTI30VkPerformanceOverrideTypeINTEL",
   "self_type" : "_ZTI30VkPerformanceOverrideTypeINTEL",
   "size" : 4,
   "source_file" : "/external/vulkan-headers/include/vulkan/vulkan_core.h",
   "underlying_type" : "_ZTIj"
  },
  {
   "alignment" : 4,
   "enum_fields" :
   [
    {
     "enum_field_value" : 1,
     "name" : "VK_ATTACHMENT_DESCRIPTION_MAY_ALIAS_BIT"
    },
    {
     "enum_field_value" : 2147483647,
     "name" : "VK_ATTACHMENT_DESCRIPTION_FLAG_BITS_MAX_ENUM"
    }
   ],
   "linker_set_key" : "_ZTI31VkAttachmentDescriptionFlagBits",
   "name" : "VkAttachmentDescriptionFlagBits",
   "referenced_type" : "_ZTI31VkAttachmentDescriptionFlagBits",
   "self_type" : "_ZTI31VkAttachmentDescriptionFlagBits",
   "size" : 4,
   "source_file" : "/external/vulkan-headers/include/vulkan/vulkan_core.h",
   "underlying_type" : "_ZTIj"
  },
  {
   "alignment" : 4,
   "enum_fields" :
   [
    {
     "enum_field_value" : 1,
     "name" : "VK_EXTERNAL_MEMORY_FEATURE_DEDICATED_ONLY_BIT"
    },
    {
     "enum_field_value" : 2,
     "name" : "VK_EXTERNAL_MEMORY_FEATURE_EXPORTABLE_BIT"
    },
    {
     "enum_field_value" : 4,
     "name" : "VK_EXTERNAL_MEMORY_FEATURE_IMPORTABLE_BIT"
    },
    {
     "enum_field_value" : 1,
     "name" : "VK_EXTERNAL_MEMORY_FEATURE_DEDICATED_ONLY_BIT_KHR"
    },
    {
     "enum_field_value" : 2,
     "name" : "VK_EXTERNAL_MEMORY_FEATURE_EXPORTABLE_BIT_KHR"
    },
    {
     "enum_field_value" : 4,
     "name" : "VK_EXTERNAL_MEMORY_FEATURE_IMPORTABLE_BIT_KHR"
    },
    {
     "enum_field_value" : 2147483647,
     "name" : "VK_EXTERNAL_MEMORY_FEATURE_FLAG_BITS_MAX_ENUM"
    }
   ],
   "linker_set_key" : "_ZTI31VkExternalMemoryFeatureFlagBits",
   "name" : "VkExternalMemoryFeatureFlagBits",
   "referenced_type" : "_ZTI31VkExternalMemoryFeatureFlagBits",
   "self_type" : "_ZTI31VkExternalMemoryFeatureFlagBits",
   "size" : 4,
   "source_file" : "/external/vulkan-headers/include/vulkan/vulkan_core.h",
   "underlying_type" : "_ZTIj"
  },
  {
   "alignment" : 4,
   "enum_fields" :
   [
    {
     "enum_field_value" : 0,
     "name" : "VK_PERFORMANCE_PARAMETER_TYPE_HW_COUNTERS_SUPPORTED_INTEL"
    },
    {
     "enum_field_value" : 1,
     "name" : "VK_PERFORMANCE_PARAMETER_TYPE_STREAM_MARKER_VALID_BITS_INTEL"
    },
    {
     "enum_field_value" : 0,
     "name" : "VK_PERFORMANCE_PARAMETER_TYPE_BEGIN_RANGE_INTEL"
    },
    {
     "enum_field_value" : 1,
     "name" : "VK_PERFORMANCE_PARAMETER_TYPE_END_RANGE_INTEL"
    },
    {
     "enum_field_value" : 2,
     "name" : "VK_PERFORMANCE_PARAMETER_TYPE_RANGE_SIZE_INTEL"
    },
    {
     "enum_field_value" : 2147483647,
     "name" : "VK_PERFORMANCE_PARAMETER_TYPE_MAX_ENUM_INTEL"
    }
   ],
   "linker_set_key" : "_ZTI31VkPerformanceParameterTypeINTEL",
   "name" : "VkPerformanceParameterTypeINTEL",
   "referenced_type" : "_ZTI31VkPerformanceParameterTypeINTEL",
   "self_type" : "_ZTI31VkPerformanceParameterTypeINTEL",
   "size" : 4,
   "source_file" : "/external/vulkan-headers/include/vulkan/vulkan_core.h",
   "underlying_type" : "_ZTIj"
  },
  {
   "alignment" : 4,
   "enum_fields" :
   [
    {
     "enum_field_value" : 1,
     "name" : "VK_QUERY_PIPELINE_STATISTIC_INPUT_ASSEMBLY_VERTICES_BIT"
    },
    {
     "enum_field_value" : 2,
     "name" : "VK_QUERY_PIPELINE_STATISTIC_INPUT_ASSEMBLY_PRIMITIVES_BIT"
    },
    {
     "enum_field_value" : 4,
     "name" : "VK_QUERY_PIPELINE_STATISTIC_VERTEX_SHADER_INVOCATIONS_BIT"
    },
    {
     "enum_field_value" : 8,
     "name" : "VK_QUERY_PIPELINE_STATISTIC_GEOMETRY_SHADER_INVOCATIONS_BIT"
    },
    {
     "enum_field_value" : 16,
     "name" : "VK_QUERY_PIPELINE_STATISTIC_GEOMETRY_SHADER_PRIMITIVES_BIT"
    },
    {
     "enum_field_value" : 32,
     "name" : "VK_QUERY_PIPELINE_STATISTIC_CLIPPING_INVOCATIONS_BIT"
    },
    {
     "enum_field_value" : 64,
     "name" : "VK_QUERY_PIPELINE_STATISTIC_CLIPPING_PRIMITIVES_BIT"
    },
    {
     "enum_field_value" : 128,
     "name" : "VK_QUERY_PIPELINE_STATISTIC_FRAGMENT_SHADER_INVOCATIONS_BIT"
    },
    {
     "enum_field_value" : 256,
     "name" : "VK_QUERY_PIPELINE_STATISTIC_TESSELLATION_CONTROL_SHADER_PATCHES_BIT"
    },
    {
     "enum_field_value" : 512,
     "name" : "VK_QUERY_PIPELINE_STATISTIC_TESSELLATION_EVALUATION_SHADER_INVOCATIONS_BIT"
    },
    {
     "enum_field_value" : 1024,
     "name" : "VK_QUERY_PIPELINE_STATISTIC_COMPUTE_SHADER_INVOCATIONS_BIT"
    },
    {
     "enum_field_value" : 2147483647,
     "name" : "VK_QUERY_PIPELINE_STATISTIC_FLAG_BITS_MAX_ENUM"
    }
   ],
   "linker_set_key" : "_ZTI32VkQueryPipelineStatisticFlagBits",
   "name" : "VkQueryPipelineStatisticFlagBits",
   "referenced_type" : "_ZTI32VkQueryPipelineStatisticFlagBits",
   "self_type" : "_ZTI32VkQueryPipelineStatisticFlagBits",
   "size" : 4,
   "source_file" : "/external/vulkan-headers/include/vulkan/vulkan_core.h",
   "underlying_type" : "_ZTIj"
  },
  {
   "alignment" : 4,
   "enum_fields" :
   [
    {
     "enum_field_value" : 1,
     "name" : "VK_CONDITIONAL_RENDERING_INVERTED_BIT_EXT"
    },
    {
     "enum_field_value" : 2147483647,
     "name" : "VK_CONDITIONAL_RENDERING_FLAG_BITS_MAX_ENUM_EXT"
    }
   ],
   "linker_set_key" : "_ZTI33VkConditionalRenderingFlagBitsEXT",
   "name" : "VkConditionalRenderingFlagBitsEXT",
   "referenced_type" : "_ZTI33VkConditionalRenderingFlagBitsEXT",
   "self_type" : "_ZTI33VkConditionalRenderingFlagBitsEXT",
   "size" : 4,
   "source_file" : "/external/vulkan-headers/include/vulkan/vulkan_core.h",
   "underlying_type" : "_ZTIj"
  },
  {
   "alignment" : 4,
   "enum_fields" :
   [
    {
     "enum_field_value" : 0,
     "name" : "VK_COPY_ACCELERATION_STRUCTURE_MODE_CLONE_NV"
    },
    {
     "enum_field_value" : 1,
     "name" : "VK_COPY_ACCELERATION_STRUCTURE_MODE_COMPACT_NV"
    },
    {
     "enum_field_value" : 0,
     "name" : "VK_COPY_ACCELERATION_STRUCTURE_MODE_BEGIN_RANGE_NV"
    },
    {
     "enum_field_value" : 1,
     "name" : "VK_COPY_ACCELERATION_STRUCTURE_MODE_END_RANGE_NV"
    },
    {
     "enum_field_value" : 2,
     "name" : "VK_COPY_ACCELERATION_STRUCTURE_MODE_RANGE_SIZE_NV"
    },
    {
     "enum_field_value" : 2147483647,
     "name" : "VK_COPY_ACCELERATION_STRUCTURE_MODE_MAX_ENUM_NV"
    }
   ],
   "linker_set_key" : "_ZTI33VkCopyAccelerationStructureModeNV",
   "name" : "VkCopyAccelerationStructureModeNV",
   "referenced_type" : "_ZTI33VkCopyAccelerationStructureModeNV",
   "self_type" : "_ZTI33VkCopyAccelerationStructureModeNV",
   "size" : 4,
   "source_file" : "/external/vulkan-headers/include/vulkan/vulkan_core.h",
   "underlying_type" : "_ZTIj"
  },
  {
   "alignment" : 4,
   "enum_fields" :
   [
    {
     "enum_field_value" : 1,
     "name" : "VK_EXTERNAL_FENCE_HANDLE_TYPE_OPAQUE_FD_BIT"
    },
    {
     "enum_field_value" : 2,
     "name" : "VK_EXTERNAL_FENCE_HANDLE_TYPE_OPAQUE_WIN32_BIT"
    },
    {
     "enum_field_value" : 4,
     "name" : "VK_EXTERNAL_FENCE_HANDLE_TYPE_OPAQUE_WIN32_KMT_BIT"
    },
    {
     "enum_field_value" : 8,
     "name" : "VK_EXTERNAL_FENCE_HANDLE_TYPE_SYNC_FD_BIT"
    },
    {
     "enum_field_value" : 1,
     "name" : "VK_EXTERNAL_FENCE_HANDLE_TYPE_OPAQUE_FD_BIT_KHR"
    },
    {
     "enum_field_value" : 2,
     "name" : "VK_EXTERNAL_FENCE_HANDLE_TYPE_OPAQUE_WIN32_BIT_KHR"
    },
    {
     "enum_field_value" : 4,
     "name" : "VK_EXTERNAL_FENCE_HANDLE_TYPE_OPAQUE_WIN32_KMT_BIT_KHR"
    },
    {
     "enum_field_value" : 8,
     "name" : "VK_EXTERNAL_FENCE_HANDLE_TYPE_SYNC_FD_BIT_KHR"
    },
    {
     "enum_field_value" : 2147483647,
     "name" : "VK_EXTERNAL_FENCE_HANDLE_TYPE_FLAG_BITS_MAX_ENUM"
    }
   ],
   "linker_set_key" : "_ZTI33VkExternalFenceHandleTypeFlagBits",
   "name" : "VkExternalFenceHandleTypeFlagBits",
   "referenced_type" : "_ZTI33VkExternalFenceHandleTypeFlagBits",
   "self_type" : "_ZTI33VkExternalFenceHandleTypeFlagBits",
   "size" : 4,
   "source_file" : "/external/vulkan-headers/include/vulkan/vulkan_core.h",
   "underlying_type" : "_ZTIj"
  },
  {
   "alignment" : 4,
   "enum_fields" :
   [
    {
     "enum_field_value" : 1,
     "name" : "VK_EXTERNAL_MEMORY_FEATURE_DEDICATED_ONLY_BIT_NV"
    },
    {
     "enum_field_value" : 2,
     "name" : "VK_EXTERNAL_MEMORY_FEATURE_EXPORTABLE_BIT_NV"
    },
    {
     "enum_field_value" : 4,
     "name" : "VK_EXTERNAL_MEMORY_FEATURE_IMPORTABLE_BIT_NV"
    },
    {
     "enum_field_value" : 2147483647,
     "name" : "VK_EXTERNAL_MEMORY_FEATURE_FLAG_BITS_MAX_ENUM_NV"
    }
   ],
   "linker_set_key" : "_ZTI33VkExternalMemoryFeatureFlagBitsNV",
   "name" : "VkExternalMemoryFeatureFlagBitsNV",
   "referenced_type" : "_ZTI33VkExternalMemoryFeatureFlagBitsNV",
   "self_type" : "_ZTI33VkExternalMemoryFeatureFlagBitsNV",
   "size" : 4,
   "source_file" : "/external/vulkan-headers/include/vulkan/vulkan_core.h",
   "underlying_type" : "_ZTIj"
  },
  {
   "alignment" : 4,
   "enum_fields" :
   [
    {
     "enum_field_value" : 0,
     "name" : "VK_MEMORY_OVERALLOCATION_BEHAVIOR_DEFAULT_AMD"
    },
    {
     "enum_field_value" : 1,
     "name" : "VK_MEMORY_OVERALLOCATION_BEHAVIOR_ALLOWED_AMD"
    },
    {
     "enum_field_value" : 2,
     "name" : "VK_MEMORY_OVERALLOCATION_BEHAVIOR_DISALLOWED_AMD"
    },
    {
     "enum_field_value" : 0,
     "name" : "VK_MEMORY_OVERALLOCATION_BEHAVIOR_BEGIN_RANGE_AMD"
    },
    {
     "enum_field_value" : 2,
     "name" : "VK_MEMORY_OVERALLOCATION_BEHAVIOR_END_RANGE_AMD"
    },
    {
     "enum_field_value" : 3,
     "name" : "VK_MEMORY_OVERALLOCATION_BEHAVIOR_RANGE_SIZE_AMD"
    },
    {
     "enum_field_value" : 2147483647,
     "name" : "VK_MEMORY_OVERALLOCATION_BEHAVIOR_MAX_ENUM_AMD"
    }
   ],
   "linker_set_key" : "_ZTI33VkMemoryOverallocationBehaviorAMD",
   "name" : "VkMemoryOverallocationBehaviorAMD",
   "referenced_type" : "_ZTI33VkMemoryOverallocationBehaviorAMD",
   "self_type" : "_ZTI33VkMemoryOverallocationBehaviorAMD",
   "size" : 4,
   "source_file" : "/external/vulkan-headers/include/vulkan/vulkan_core.h",
   "underlying_type" : "_ZTIj"
  },
  {
   "alignment" : 4,
   "enum_fields" :
   [
    {
     "enum_field_value" : 2147483647,
     "name" : "VK_SHADER_CORE_PROPERTIES_FLAG_BITS_MAX_ENUM_AMD"
    }
   ],
   "linker_set_key" : "_ZTI33VkShaderCorePropertiesFlagBitsAMD",
   "name" : "VkShaderCorePropertiesFlagBitsAMD",
   "referenced_type" : "_ZTI33VkShaderCorePropertiesFlagBitsAMD",
   "self_type" : "_ZTI33VkShaderCorePropertiesFlagBitsAMD",
   "size" : 4,
   "source_file" : "/external/vulkan-headers/include/vulkan/vulkan_core.h",
   "underlying_type" : "_ZTIj"
  },
  {
   "alignment" : 4,
   "enum_fields" :
   [
    {
     "enum_field_value" : 1,
     "name" : "VK_VALIDATION_CACHE_HEADER_VERSION_ONE_EXT"
    },
    {
     "enum_field_value" : 1,
     "name" : "VK_VALIDATION_CACHE_HEADER_VERSION_BEGIN_RANGE_EXT"
    },
    {
     "enum_field_value" : 1,
     "name" : "VK_VALIDATION_CACHE_HEADER_VERSION_END_RANGE_EXT"
    },
    {
     "enum_field_value" : 1,
     "name" : "VK_VALIDATION_CACHE_HEADER_VERSION_RANGE_SIZE_EXT"
    },
    {
     "enum_field_value" : 2147483647,
     "name" : "VK_VALIDATION_CACHE_HEADER_VERSION_MAX_ENUM_EXT"
    }
   ],
   "linker_set_key" : "_ZTI33VkValidationCacheHeaderVersionEXT",
   "name" : "VkValidationCacheHeaderVersionEXT",
   "referenced_type" : "_ZTI33VkValidationCacheHeaderVersionEXT",
   "self_type" : "_ZTI33VkValidationCacheHeaderVersionEXT",
   "size" : 4,
   "source_file" : "/external/vulkan-headers/include/vulkan/vulkan_core.h",
   "underlying_type" : "_ZTIj"
  },
  {
   "alignment" : 4,
   "enum_fields" :
   [
    {
     "enum_field_value" : 0,
     "name" : "VK_CONSERVATIVE_RASTERIZATION_MODE_DISABLED_EXT"
    },
    {
     "enum_field_value" : 1,
     "name" : "VK_CONSERVATIVE_RASTERIZATION_MODE_OVERESTIMATE_EXT"
    },
    {
     "enum_field_value" : 2,
     "name" : "VK_CONSERVATIVE_RASTERIZATION_MODE_UNDERESTIMATE_EXT"
    },
    {
     "enum_field_value" : 0,
     "name" : "VK_CONSERVATIVE_RASTERIZATION_MODE_BEGIN_RANGE_EXT"
    },
    {
     "enum_field_value" : 2,
     "name" : "VK_CONSERVATIVE_RASTERIZATION_MODE_END_RANGE_EXT"
    },
    {
     "enum_field_value" : 3,
     "name" : "VK_CONSERVATIVE_RASTERIZATION_MODE_RANGE_SIZE_EXT"
    },
    {
     "enum_field_value" : 2147483647,
     "name" : "VK_CONSERVATIVE_RASTERIZATION_MODE_MAX_ENUM_EXT"
    }
   ],
   "linker_set_key" : "_ZTI34VkConservativeRasterizationModeEXT",
   "name" : "VkConservativeRasterizationModeEXT",
   "referenced_type" : "_ZTI34VkConservativeRasterizationModeEXT",
   "self_type" : "_ZTI34VkConservativeRasterizationModeEXT",
   "size" : 4,
   "source_file" : "/external/vulkan-headers/include/vulkan/vulkan_core.h",
   "underlying_type" : "_ZTIj"
  },
  {
   "alignment" : 4,
   "enum_fields" :
   [
    {
     "enum_field_value" : 1,
     "name" : "VK_DEBUG_UTILS_MESSAGE_TYPE_GENERAL_BIT_EXT"
    },
    {
     "enum_field_value" : 2,
     "name" : "VK_DEBUG_UTILS_MESSAGE_TYPE_VALIDATION_BIT_EXT"
    },
    {
     "enum_field_value" : 4,
     "name" : "VK_DEBUG_UTILS_MESSAGE_TYPE_PERFORMANCE_BIT_EXT"
    },
    {
     "enum_field_value" : 2147483647,
     "name" : "VK_DEBUG_UTILS_MESSAGE_TYPE_FLAG_BITS_MAX_ENUM_EXT"
    }
   ],
   "linker_set_key" : "_ZTI34VkDebugUtilsMessageTypeFlagBitsEXT",
   "name" : "VkDebugUtilsMessageTypeFlagBitsEXT",
   "referenced_type" : "_ZTI34VkDebugUtilsMessageTypeFlagBitsEXT",
   "self_type" : "_ZTI34VkDebugUtilsMessageTypeFlagBitsEXT",
   "size" : 4,
   "source_file" : "/external/vulkan-headers/include/vulkan/vulkan_core.h",
   "underlying_type" : "_ZTIj"
  },
  {
   "alignment" : 4,
   "enum_fields" :
   [
    {
     "enum_field_value" : 1,
     "name" : "VK_EXTERNAL_MEMORY_HANDLE_TYPE_OPAQUE_FD_BIT"
    },
    {
     "enum_field_value" : 2,
     "name" : "VK_EXTERNAL_MEMORY_HANDLE_TYPE_OPAQUE_WIN32_BIT"
    },
    {
     "enum_field_value" : 4,
     "name" : "VK_EXTERNAL_MEMORY_HANDLE_TYPE_OPAQUE_WIN32_KMT_BIT"
    },
    {
     "enum_field_value" : 8,
     "name" : "VK_EXTERNAL_MEMORY_HANDLE_TYPE_D3D11_TEXTURE_BIT"
    },
    {
     "enum_field_value" : 16,
     "name" : "VK_EXTERNAL_MEMORY_HANDLE_TYPE_D3D11_TEXTURE_KMT_BIT"
    },
    {
     "enum_field_value" : 32,
     "name" : "VK_EXTERNAL_MEMORY_HANDLE_TYPE_D3D12_HEAP_BIT"
    },
    {
     "enum_field_value" : 64,
     "name" : "VK_EXTERNAL_MEMORY_HANDLE_TYPE_D3D12_RESOURCE_BIT"
    },
    {
     "enum_field_value" : 512,
     "name" : "VK_EXTERNAL_MEMORY_HANDLE_TYPE_DMA_BUF_BIT_EXT"
    },
    {
     "enum_field_value" : 1024,
     "name" : "VK_EXTERNAL_MEMORY_HANDLE_TYPE_ANDROID_HARDWARE_BUFFER_BIT_ANDROID"
    },
    {
     "enum_field_value" : 128,
     "name" : "VK_EXTERNAL_MEMORY_HANDLE_TYPE_HOST_ALLOCATION_BIT_EXT"
    },
    {
     "enum_field_value" : 256,
     "name" : "VK_EXTERNAL_MEMORY_HANDLE_TYPE_HOST_MAPPED_FOREIGN_MEMORY_BIT_EXT"
    },
    {
     "enum_field_value" : 1,
     "name" : "VK_EXTERNAL_MEMORY_HANDLE_TYPE_OPAQUE_FD_BIT_KHR"
    },
    {
     "enum_field_value" : 2,
     "name" : "VK_EXTERNAL_MEMORY_HANDLE_TYPE_OPAQUE_WIN32_BIT_KHR"
    },
    {
     "enum_field_value" : 4,
     "name" : "VK_EXTERNAL_MEMORY_HANDLE_TYPE_OPAQUE_WIN32_KMT_BIT_KHR"
    },
    {
     "enum_field_value" : 8,
     "name" : "VK_EXTERNAL_MEMORY_HANDLE_TYPE_D3D11_TEXTURE_BIT_KHR"
    },
    {
     "enum_field_value" : 16,
     "name" : "VK_EXTERNAL_MEMORY_HANDLE_TYPE_D3D11_TEXTURE_KMT_BIT_KHR"
    },
    {
     "enum_field_value" : 32,
     "name" : "VK_EXTERNAL_MEMORY_HANDLE_TYPE_D3D12_HEAP_BIT_KHR"
    },
    {
     "enum_field_value" : 64,
     "name" : "VK_EXTERNAL_MEMORY_HANDLE_TYPE_D3D12_RESOURCE_BIT_KHR"
    },
    {
     "enum_field_value" : 2147483647,
     "name" : "VK_EXTERNAL_MEMORY_HANDLE_TYPE_FLAG_BITS_MAX_ENUM"
    }
   ],
   "linker_set_key" : "_ZTI34VkExternalMemoryHandleTypeFlagBits",
   "name" : "VkExternalMemoryHandleTypeFlagBits",
   "referenced_type" : "_ZTI34VkExternalMemoryHandleTypeFlagBits",
   "self_type" : "_ZTI34VkExternalMemoryHandleTypeFlagBits",
   "size" : 4,
   "source_file" : "/external/vulkan-headers/include/vulkan/vulkan_core.h",
   "underlying_type" : "_ZTIj"
  },
  {
   "alignment" : 4,
   "enum_fields" :
   [
    {
     "enum_field_value" : 1,
     "name" : "VK_EXTERNAL_SEMAPHORE_FEATURE_EXPORTABLE_BIT"
    },
    {
     "enum_field_value" : 2,
     "name" : "VK_EXTERNAL_SEMAPHORE_FEATURE_IMPORTABLE_BIT"
    },
    {
     "enum_field_value" : 1,
     "name" : "VK_EXTERNAL_SEMAPHORE_FEATURE_EXPORTABLE_BIT_KHR"
    },
    {
     "enum_field_value" : 2,
     "name" : "VK_EXTERNAL_SEMAPHORE_FEATURE_IMPORTABLE_BIT_KHR"
    },
    {
     "enum_field_value" : 2147483647,
     "name" : "VK_EXTERNAL_SEMAPHORE_FEATURE_FLAG_BITS_MAX_ENUM"
    }
   ],
   "linker_set_key" : "_ZTI34VkExternalSemaphoreFeatureFlagBits",
   "name" : "VkExternalSemaphoreFeatureFlagBits",
   "referenced_type" : "_ZTI34VkExternalSemaphoreFeatureFlagBits",
   "self_type" : "_ZTI34VkExternalSemaphoreFeatureFlagBits",
   "size" : 4,
   "source_file" : "/external/vulkan-headers/include/vulkan/vulkan_core.h",
   "underlying_type" : "_ZTIj"
  },
  {
   "alignment" : 4,
   "enum_fields" :
   [
    {
     "enum_field_value" : 1,
     "name" : "VK_DESCRIPTOR_SET_LAYOUT_CREATE_PUSH_DESCRIPTOR_BIT_KHR"
    },
    {
     "enum_field_value" : 2,
     "name" : "VK_DESCRIPTOR_SET_LAYOUT_CREATE_UPDATE_AFTER_BIND_POOL_BIT_EXT"
    },
    {
     "enum_field_value" : 2147483647,
     "name" : "VK_DESCRIPTOR_SET_LAYOUT_CREATE_FLAG_BITS_MAX_ENUM"
    }
   ],
   "linker_set_key" : "_ZTI35VkDescriptorSetLayoutCreateFlagBits",
   "name" : "VkDescriptorSetLayoutCreateFlagBits",
   "referenced_type" : "_ZTI35VkDescriptorSetLayoutCreateFlagBits",
   "self_type" : "_ZTI35VkDescriptorSetLayoutCreateFlagBits",
   "size" : 4,
   "source_file" : "/external/vulkan-headers/include/vulkan/vulkan_core.h",
   "underlying_type" : "_ZTIj"
  },
  {
   "alignment" : 4,
   "enum_fields" :
   [
    {
     "enum_field_value" : 1,
     "name" : "VK_DEVICE_GROUP_PRESENT_MODE_LOCAL_BIT_KHR"
    },
    {
     "enum_field_value" : 2,
     "name" : "VK_DEVICE_GROUP_PRESENT_MODE_REMOTE_BIT_KHR"
    },
    {
     "enum_field_value" : 4,
     "name" : "VK_DEVICE_GROUP_PRESENT_MODE_SUM_BIT_KHR"
    },
    {
     "enum_field_value" : 8,
     "name" : "VK_DEVICE_GROUP_PRESENT_MODE_LOCAL_MULTI_DEVICE_BIT_KHR"
    },
    {
     "enum_field_value" : 2147483647,
     "name" : "VK_DEVICE_GROUP_PRESENT_MODE_FLAG_BITS_MAX_ENUM_KHR"
    }
   ],
   "linker_set_key" : "_ZTI35VkDeviceGroupPresentModeFlagBitsKHR",
   "name" : "VkDeviceGroupPresentModeFlagBitsKHR",
   "referenced_type" : "_ZTI35VkDeviceGroupPresentModeFlagBitsKHR",
   "self_type" : "_ZTI35VkDeviceGroupPresentModeFlagBitsKHR",
   "size" : 4,
   "source_file" : "/external/vulkan-headers/include/vulkan/vulkan_core.h",
   "underlying_type" : "_ZTIj"
  },
  {
   "alignment" : 4,
   "enum_fields" :
   [
    {
     "enum_field_value" : 0,
     "name" : "VK_PERFORMANCE_CONFIGURATION_TYPE_COMMAND_QUEUE_METRICS_DISCOVERY_ACTIVATED_INTEL"
    },
    {
     "enum_field_value" : 0,
     "name" : "VK_PERFORMANCE_CONFIGURATION_TYPE_BEGIN_RANGE_INTEL"
    },
    {
     "enum_field_value" : 0,
     "name" : "VK_PERFORMANCE_CONFIGURATION_TYPE_END_RANGE_INTEL"
    },
    {
     "enum_field_value" : 1,
     "name" : "VK_PERFORMANCE_CONFIGURATION_TYPE_RANGE_SIZE_INTEL"
    },
    {
     "enum_field_value" : 2147483647,
     "name" : "VK_PERFORMANCE_CONFIGURATION_TYPE_MAX_ENUM_INTEL"
    }
   ],
   "linker_set_key" : "_ZTI35VkPerformanceConfigurationTypeINTEL",
   "name" : "VkPerformanceConfigurationTypeINTEL",
   "referenced_type" : "_ZTI35VkPerformanceConfigurationTypeINTEL",
   "self_type" : "_ZTI35VkPerformanceConfigurationTypeINTEL",
   "size" : 4,
   "source_file" : "/external/vulkan-headers/include/vulkan/vulkan_core.h",
   "underlying_type" : "_ZTIj"
  },
  {
   "alignment" : 4,
   "enum_fields" :
   [
    {
     "enum_field_value" : 1,
     "name" : "VK_PIPELINE_SHADER_STAGE_CREATE_ALLOW_VARYING_SUBGROUP_SIZE_BIT_EXT"
    },
    {
     "enum_field_value" : 2,
     "name" : "VK_PIPELINE_SHADER_STAGE_CREATE_REQUIRE_FULL_SUBGROUPS_BIT_EXT"
    },
    {
     "enum_field_value" : 2147483647,
     "name" : "VK_PIPELINE_SHADER_STAGE_CREATE_FLAG_BITS_MAX_ENUM"
    }
   ],
   "linker_set_key" : "_ZTI35VkPipelineShaderStageCreateFlagBits",
   "name" : "VkPipelineShaderStageCreateFlagBits",
   "referenced_type" : "_ZTI35VkPipelineShaderStageCreateFlagBits",
   "self_type" : "_ZTI35VkPipelineShaderStageCreateFlagBits",
   "size" : 4,
   "source_file" : "/external/vulkan-headers/include/vulkan/vulkan_core.h",
   "underlying_type" : "_ZTIj"
  },
  {
   "alignment" : 4,
   "enum_fields" :
   [
    {
     "enum_field_value" : 1,
     "name" : "VK_EXTERNAL_MEMORY_HANDLE_TYPE_OPAQUE_WIN32_BIT_NV"
    },
    {
     "enum_field_value" : 2,
     "name" : "VK_EXTERNAL_MEMORY_HANDLE_TYPE_OPAQUE_WIN32_KMT_BIT_NV"
    },
    {
     "enum_field_value" : 4,
     "name" : "VK_EXTERNAL_MEMORY_HANDLE_TYPE_D3D11_IMAGE_BIT_NV"
    },
    {
     "enum_field_value" : 8,
     "name" : "VK_EXTERNAL_MEMORY_HANDLE_TYPE_D3D11_IMAGE_KMT_BIT_NV"
    },
    {
     "enum_field_value" : 2147483647,
     "name" : "VK_EXTERNAL_MEMORY_HANDLE_TYPE_FLAG_BITS_MAX_ENUM_NV"
    }
   ],
   "linker_set_key" : "_ZTI36VkExternalMemoryHandleTypeFlagBitsNV",
   "name" : "VkExternalMemoryHandleTypeFlagBitsNV",
   "referenced_type" : "_ZTI36VkExternalMemoryHandleTypeFlagBitsNV",
   "self_type" : "_ZTI36VkExternalMemoryHandleTypeFlagBitsNV",
   "size" : 4,
   "source_file" : "/external/vulkan-headers/include/vulkan/vulkan_core.h",
   "underlying_type" : "_ZTIj"
  },
  {
   "alignment" : 4,
   "enum_fields" :
   [
    {
     "enum_field_value" : 2147483647,
     "name" : "VK_PIPELINE_COMPILER_CONTROL_FLAG_BITS_MAX_ENUM_AMD"
    }
   ],
   "linker_set_key" : "_ZTI36VkPipelineCompilerControlFlagBitsAMD",
   "name" : "VkPipelineCompilerControlFlagBitsAMD",
   "referenced_type" : "_ZTI36VkPipelineCompilerControlFlagBitsAMD",
   "self_type" : "_ZTI36VkPipelineCompilerControlFlagBitsAMD",
   "size" : 4,
   "source_file" : "/external/vulkan-headers/include/vulkan/vulkan_core.h",
   "underlying_type" : "_ZTIj"
  },
  {
   "alignment" : 4,
   "enum_fields" :
   [
    {
     "enum_field_value" : 0,
     "name" : "VK_SHADER_FLOAT_CONTROLS_INDEPENDENCE_32_BIT_ONLY_KHR"
    },
    {
     "enum_field_value" : 1,
     "name" : "VK_SHADER_FLOAT_CONTROLS_INDEPENDENCE_ALL_KHR"
    },
    {
     "enum_field_value" : 2,
     "name" : "VK_SHADER_FLOAT_CONTROLS_INDEPENDENCE_NONE_KHR"
    },
    {
     "enum_field_value" : 0,
     "name" : "VK_SHADER_FLOAT_CONTROLS_INDEPENDENCE_BEGIN_RANGE_KHR"
    },
    {
     "enum_field_value" : 2,
     "name" : "VK_SHADER_FLOAT_CONTROLS_INDEPENDENCE_END_RANGE_KHR"
    },
    {
     "enum_field_value" : 3,
     "name" : "VK_SHADER_FLOAT_CONTROLS_INDEPENDENCE_RANGE_SIZE_KHR"
    },
    {
     "enum_field_value" : 2147483647,
     "name" : "VK_SHADER_FLOAT_CONTROLS_INDEPENDENCE_MAX_ENUM_KHR"
    }
   ],
   "linker_set_key" : "_ZTI36VkShaderFloatControlsIndependenceKHR",
   "name" : "VkShaderFloatControlsIndependenceKHR",
   "referenced_type" : "_ZTI36VkShaderFloatControlsIndependenceKHR",
   "self_type" : "_ZTI36VkShaderFloatControlsIndependenceKHR",
   "size" : 4,
   "source_file" : "/external/vulkan-headers/include/vulkan/vulkan_core.h",
   "underlying_type" : "_ZTIj"
  },
  {
   "alignment" : 4,
   "enum_fields" :
   [
    {
     "enum_field_value" : 1,
     "name" : "VK_EXTERNAL_SEMAPHORE_HANDLE_TYPE_OPAQUE_FD_BIT"
    },
    {
     "enum_field_value" : 2,
     "name" : "VK_EXTERNAL_SEMAPHORE_HANDLE_TYPE_OPAQUE_WIN32_BIT"
    },
    {
     "enum_field_value" : 4,
     "name" : "VK_EXTERNAL_SEMAPHORE_HANDLE_TYPE_OPAQUE_WIN32_KMT_BIT"
    },
    {
     "enum_field_value" : 8,
     "name" : "VK_EXTERNAL_SEMAPHORE_HANDLE_TYPE_D3D12_FENCE_BIT"
    },
    {
     "enum_field_value" : 16,
     "name" : "VK_EXTERNAL_SEMAPHORE_HANDLE_TYPE_SYNC_FD_BIT"
    },
    {
     "enum_field_value" : 1,
     "name" : "VK_EXTERNAL_SEMAPHORE_HANDLE_TYPE_OPAQUE_FD_BIT_KHR"
    },
    {
     "enum_field_value" : 2,
     "name" : "VK_EXTERNAL_SEMAPHORE_HANDLE_TYPE_OPAQUE_WIN32_BIT_KHR"
    },
    {
     "enum_field_value" : 4,
     "name" : "VK_EXTERNAL_SEMAPHORE_HANDLE_TYPE_OPAQUE_WIN32_KMT_BIT_KHR"
    },
    {
     "enum_field_value" : 8,
     "name" : "VK_EXTERNAL_SEMAPHORE_HANDLE_TYPE_D3D12_FENCE_BIT_KHR"
    },
    {
     "enum_field_value" : 16,
     "name" : "VK_EXTERNAL_SEMAPHORE_HANDLE_TYPE_SYNC_FD_BIT_KHR"
    },
    {
     "enum_field_value" : 2147483647,
     "name" : "VK_EXTERNAL_SEMAPHORE_HANDLE_TYPE_FLAG_BITS_MAX_ENUM"
    }
   ],
   "linker_set_key" : "_ZTI37VkExternalSemaphoreHandleTypeFlagBits",
   "name" : "VkExternalSemaphoreHandleTypeFlagBits",
   "referenced_type" : "_ZTI37VkExternalSemaphoreHandleTypeFlagBits",
   "self_type" : "_ZTI37VkExternalSemaphoreHandleTypeFlagBits",
   "size" : 4,
   "source_file" : "/external/vulkan-headers/include/vulkan/vulkan_core.h",
   "underlying_type" : "_ZTIj"
  },
  {
   "alignment" : 4,
   "enum_fields" :
   [
    {
     "enum_field_value" : 1,
     "name" : "VK_PIPELINE_CREATION_FEEDBACK_VALID_BIT_EXT"
    },
    {
     "enum_field_value" : 2,
     "name" : "VK_PIPELINE_CREATION_FEEDBACK_APPLICATION_PIPELINE_CACHE_HIT_BIT_EXT"
    },
    {
     "enum_field_value" : 4,
     "name" : "VK_PIPELINE_CREATION_FEEDBACK_BASE_PIPELINE_ACCELERATION_BIT_EXT"
    },
    {
     "enum_field_value" : 2147483647,
     "name" : "VK_PIPELINE_CREATION_FEEDBACK_FLAG_BITS_MAX_ENUM_EXT"
    }
   ],
   "linker_set_key" : "_ZTI37VkPipelineCreationFeedbackFlagBitsEXT",
   "name" : "VkPipelineCreationFeedbackFlagBitsEXT",
   "referenced_type" : "_ZTI37VkPipelineCreationFeedbackFlagBitsEXT",
   "self_type" : "_ZTI37VkPipelineCreationFeedbackFlagBitsEXT",
   "size" : 4,
   "source_file" : "/external/vulkan-headers/include/vulkan/vulkan_core.h",
   "underlying_type" : "_ZTIj"
  },
  {
   "alignment" : 4,
   "enum_fields" :
   [
    {
     "enum_field_value" : 1,
     "name" : "VK_BUILD_ACCELERATION_STRUCTURE_ALLOW_UPDATE_BIT_NV"
    },
    {
     "enum_field_value" : 2,
     "name" : "VK_BUILD_ACCELERATION_STRUCTURE_ALLOW_COMPACTION_BIT_NV"
    },
    {
     "enum_field_value" : 4,
     "name" : "VK_BUILD_ACCELERATION_STRUCTURE_PREFER_FAST_TRACE_BIT_NV"
    },
    {
     "enum_field_value" : 8,
     "name" : "VK_BUILD_ACCELERATION_STRUCTURE_PREFER_FAST_BUILD_BIT_NV"
    },
    {
     "enum_field_value" : 16,
     "name" : "VK_BUILD_ACCELERATION_STRUCTURE_LOW_MEMORY_BIT_NV"
    },
    {
     "enum_field_value" : 2147483647,
     "name" : "VK_BUILD_ACCELERATION_STRUCTURE_FLAG_BITS_MAX_ENUM_NV"
    }
   ],
   "linker_set_key" : "_ZTI38VkBuildAccelerationStructureFlagBitsNV",
   "name" : "VkBuildAccelerationStructureFlagBitsNV",
   "referenced_type" : "_ZTI38VkBuildAccelerationStructureFlagBitsNV",
   "self_type" : "_ZTI38VkBuildAccelerationStructureFlagBitsNV",
   "size" : 4,
   "source_file" : "/external/vulkan-headers/include/vulkan/vulkan_core.h",
   "underlying_type" : "_ZTIj"
  },
  {
   "alignment" : 4,
   "enum_fields" :
   [
    {
     "enum_field_value" : 1,
     "name" : "VK_DEBUG_UTILS_MESSAGE_SEVERITY_VERBOSE_BIT_EXT"
    },
    {
     "enum_field_value" : 16,
     "name" : "VK_DEBUG_UTILS_MESSAGE_SEVERITY_INFO_BIT_EXT"
    },
    {
     "enum_field_value" : 256,
     "name" : "VK_DEBUG_UTILS_MESSAGE_SEVERITY_WARNING_BIT_EXT"
    },
    {
     "enum_field_value" : 4096,
     "name" : "VK_DEBUG_UTILS_MESSAGE_SEVERITY_ERROR_BIT_EXT"
    },
    {
     "enum_field_value" : 2147483647,
     "name" : "VK_DEBUG_UTILS_MESSAGE_SEVERITY_FLAG_BITS_MAX_ENUM_EXT"
    }
   ],
   "linker_set_key" : "_ZTI38VkDebugUtilsMessageSeverityFlagBitsEXT",
   "name" : "VkDebugUtilsMessageSeverityFlagBitsEXT",
   "referenced_type" : "_ZTI38VkDebugUtilsMessageSeverityFlagBitsEXT",
   "self_type" : "_ZTI38VkDebugUtilsMessageSeverityFlagBitsEXT",
   "size" : 4,
   "source_file" : "/external/vulkan-headers/include/vulkan/vulkan_core.h",
   "underlying_type" : "_ZTIj"
  },
  {
   "alignment" : 4,
   "enum_fields" :
   [
    {
     "enum_field_value" : 0,
     "name" : "VK_PIPELINE_EXECUTABLE_STATISTIC_FORMAT_BOOL32_KHR"
    },
    {
     "enum_field_value" : 1,
     "name" : "VK_PIPELINE_EXECUTABLE_STATISTIC_FORMAT_INT64_KHR"
    },
    {
     "enum_field_value" : 2,
     "name" : "VK_PIPELINE_EXECUTABLE_STATISTIC_FORMAT_UINT64_KHR"
    },
    {
     "enum_field_value" : 3,
     "name" : "VK_PIPELINE_EXECUTABLE_STATISTIC_FORMAT_FLOAT64_KHR"
    },
    {
     "enum_field_value" : 0,
     "name" : "VK_PIPELINE_EXECUTABLE_STATISTIC_FORMAT_BEGIN_RANGE_KHR"
    },
    {
     "enum_field_value" : 3,
     "name" : "VK_PIPELINE_EXECUTABLE_STATISTIC_FORMAT_END_RANGE_KHR"
    },
    {
     "enum_field_value" : 4,
     "name" : "VK_PIPELINE_EXECUTABLE_STATISTIC_FORMAT_RANGE_SIZE_KHR"
    },
    {
     "enum_field_value" : 2147483647,
     "name" : "VK_PIPELINE_EXECUTABLE_STATISTIC_FORMAT_MAX_ENUM_KHR"
    }
   ],
   "linker_set_key" : "_ZTI38VkPipelineExecutableStatisticFormatKHR",
   "name" : "VkPipelineExecutableStatisticFormatKHR",
   "referenced_type" : "_ZTI38VkPipelineExecutableStatisticFormatKHR",
   "self_type" : "_ZTI38VkPipelineExecutableStatisticFormatKHR",
   "size" : 4,
   "source_file" : "/external/vulkan-headers/include/vulkan/vulkan_core.h",
   "underlying_type" : "_ZTIj"
  },
  {
   "alignment" : 4,
   "enum_fields" :
   [
    {
     "enum_field_value" : 1,
     "name" : "VK_INDIRECT_COMMANDS_LAYOUT_USAGE_UNORDERED_SEQUENCES_BIT_NVX"
    },
    {
     "enum_field_value" : 2,
     "name" : "VK_INDIRECT_COMMANDS_LAYOUT_USAGE_SPARSE_SEQUENCES_BIT_NVX"
    },
    {
     "enum_field_value" : 4,
     "name" : "VK_INDIRECT_COMMANDS_LAYOUT_USAGE_EMPTY_EXECUTIONS_BIT_NVX"
    },
    {
     "enum_field_value" : 8,
     "name" : "VK_INDIRECT_COMMANDS_LAYOUT_USAGE_INDEXED_SEQUENCES_BIT_NVX"
    },
    {
     "enum_field_value" : 2147483647,
     "name" : "VK_INDIRECT_COMMANDS_LAYOUT_USAGE_FLAG_BITS_MAX_ENUM_NVX"
    }
   ],
   "linker_set_key" : "_ZTI40VkIndirectCommandsLayoutUsageFlagBitsNVX",
   "name" : "VkIndirectCommandsLayoutUsageFlagBitsNVX",
   "referenced_type" : "_ZTI40VkIndirectCommandsLayoutUsageFlagBitsNVX",
   "self_type" : "_ZTI40VkIndirectCommandsLayoutUsageFlagBitsNVX",
   "size" : 4,
   "source_file" : "/external/vulkan-headers/include/vulkan/vulkan_core.h",
   "underlying_type" : "_ZTIj"
  },
  {
   "alignment" : 4,
   "enum_fields" :
   [
    {
     "enum_field_value" : 0,
     "name" : "VK_ACCELERATION_STRUCTURE_MEMORY_REQUIREMENTS_TYPE_OBJECT_NV"
    },
    {
     "enum_field_value" : 1,
     "name" : "VK_ACCELERATION_STRUCTURE_MEMORY_REQUIREMENTS_TYPE_BUILD_SCRATCH_NV"
    },
    {
     "enum_field_value" : 2,
     "name" : "VK_ACCELERATION_STRUCTURE_MEMORY_REQUIREMENTS_TYPE_UPDATE_SCRATCH_NV"
    },
    {
     "enum_field_value" : 0,
     "name" : "VK_ACCELERATION_STRUCTURE_MEMORY_REQUIREMENTS_TYPE_BEGIN_RANGE_NV"
    },
    {
     "enum_field_value" : 2,
     "name" : "VK_ACCELERATION_STRUCTURE_MEMORY_REQUIREMENTS_TYPE_END_RANGE_NV"
    },
    {
     "enum_field_value" : 3,
     "name" : "VK_ACCELERATION_STRUCTURE_MEMORY_REQUIREMENTS_TYPE_RANGE_SIZE_NV"
    },
    {
     "enum_field_value" : 2147483647,
     "name" : "VK_ACCELERATION_STRUCTURE_MEMORY_REQUIREMENTS_TYPE_MAX_ENUM_NV"
    }
   ],
   "linker_set_key" : "_ZTI47VkAccelerationStructureMemoryRequirementsTypeNV",
   "name" : "VkAccelerationStructureMemoryRequirementsTypeNV",
   "referenced_type" : "_ZTI47VkAccelerationStructureMemoryRequirementsTypeNV",
   "self_type" : "_ZTI47VkAccelerationStructureMemoryRequirementsTypeNV",
   "size" : 4,
   "source_file" : "/external/vulkan-headers/include/vulkan/vulkan_core.h",
   "underlying_type" : "_ZTIj"
  },
  {
   "alignment" : 4,
   "enum_fields" :
   [
    {
     "enum_field_value" : 0,
     "name" : "VK_FILTER_NEAREST"
    },
    {
     "enum_field_value" : 1,
     "name" : "VK_FILTER_LINEAR"
    },
    {
     "enum_field_value" : 1000015000,
     "name" : "VK_FILTER_CUBIC_IMG"
    },
    {
     "enum_field_value" : 1000015000,
     "name" : "VK_FILTER_CUBIC_EXT"
    },
    {
     "enum_field_value" : 0,
     "name" : "VK_FILTER_BEGIN_RANGE"
    },
    {
     "enum_field_value" : 1,
     "name" : "VK_FILTER_END_RANGE"
    },
    {
     "enum_field_value" : 2,
     "name" : "VK_FILTER_RANGE_SIZE"
    },
    {
     "enum_field_value" : 2147483647,
     "name" : "VK_FILTER_MAX_ENUM"
    }
   ],
   "linker_set_key" : "_ZTI8VkFilter",
   "name" : "VkFilter",
   "referenced_type" : "_ZTI8VkFilter",
   "self_type" : "_ZTI8VkFilter",
   "size" : 4,
   "source_file" : "/external/vulkan-headers/include/vulkan/vulkan_core.h",
   "underlying_type" : "_ZTIj"
  },
  {
   "alignment" : 4,
   "enum_fields" :
   [
    {
     "enum_field_value" : 0,
     "name" : "VK_FORMAT_UNDEFINED"
    },
    {
     "enum_field_value" : 1,
     "name" : "VK_FORMAT_R4G4_UNORM_PACK8"
    },
    {
     "enum_field_value" : 2,
     "name" : "VK_FORMAT_R4G4B4A4_UNORM_PACK16"
    },
    {
     "enum_field_value" : 3,
     "name" : "VK_FORMAT_B4G4R4A4_UNORM_PACK16"
    },
    {
     "enum_field_value" : 4,
     "name" : "VK_FORMAT_R5G6B5_UNORM_PACK16"
    },
    {
     "enum_field_value" : 5,
     "name" : "VK_FORMAT_B5G6R5_UNORM_PACK16"
    },
    {
     "enum_field_value" : 6,
     "name" : "VK_FORMAT_R5G5B5A1_UNORM_PACK16"
    },
    {
     "enum_field_value" : 7,
     "name" : "VK_FORMAT_B5G5R5A1_UNORM_PACK16"
    },
    {
     "enum_field_value" : 8,
     "name" : "VK_FORMAT_A1R5G5B5_UNORM_PACK16"
    },
    {
     "enum_field_value" : 9,
     "name" : "VK_FORMAT_R8_UNORM"
    },
    {
     "enum_field_value" : 10,
     "name" : "VK_FORMAT_R8_SNORM"
    },
    {
     "enum_field_value" : 11,
     "name" : "VK_FORMAT_R8_USCALED"
    },
    {
     "enum_field_value" : 12,
     "name" : "VK_FORMAT_R8_SSCALED"
    },
    {
     "enum_field_value" : 13,
     "name" : "VK_FORMAT_R8_UINT"
    },
    {
     "enum_field_value" : 14,
     "name" : "VK_FORMAT_R8_SINT"
    },
    {
     "enum_field_value" : 15,
     "name" : "VK_FORMAT_R8_SRGB"
    },
    {
     "enum_field_value" : 16,
     "name" : "VK_FORMAT_R8G8_UNORM"
    },
    {
     "enum_field_value" : 17,
     "name" : "VK_FORMAT_R8G8_SNORM"
    },
    {
     "enum_field_value" : 18,
     "name" : "VK_FORMAT_R8G8_USCALED"
    },
    {
     "enum_field_value" : 19,
     "name" : "VK_FORMAT_R8G8_SSCALED"
    },
    {
     "enum_field_value" : 20,
     "name" : "VK_FORMAT_R8G8_UINT"
    },
    {
     "enum_field_value" : 21,
     "name" : "VK_FORMAT_R8G8_SINT"
    },
    {
     "enum_field_value" : 22,
     "name" : "VK_FORMAT_R8G8_SRGB"
    },
    {
     "enum_field_value" : 23,
     "name" : "VK_FORMAT_R8G8B8_UNORM"
    },
    {
     "enum_field_value" : 24,
     "name" : "VK_FORMAT_R8G8B8_SNORM"
    },
    {
     "enum_field_value" : 25,
     "name" : "VK_FORMAT_R8G8B8_USCALED"
    },
    {
     "enum_field_value" : 26,
     "name" : "VK_FORMAT_R8G8B8_SSCALED"
    },
    {
     "enum_field_value" : 27,
     "name" : "VK_FORMAT_R8G8B8_UINT"
    },
    {
     "enum_field_value" : 28,
     "name" : "VK_FORMAT_R8G8B8_SINT"
    },
    {
     "enum_field_value" : 29,
     "name" : "VK_FORMAT_R8G8B8_SRGB"
    },
    {
     "enum_field_value" : 30,
     "name" : "VK_FORMAT_B8G8R8_UNORM"
    },
    {
     "enum_field_value" : 31,
     "name" : "VK_FORMAT_B8G8R8_SNORM"
    },
    {
     "enum_field_value" : 32,
     "name" : "VK_FORMAT_B8G8R8_USCALED"
    },
    {
     "enum_field_value" : 33,
     "name" : "VK_FORMAT_B8G8R8_SSCALED"
    },
    {
     "enum_field_value" : 34,
     "name" : "VK_FORMAT_B8G8R8_UINT"
    },
    {
     "enum_field_value" : 35,
     "name" : "VK_FORMAT_B8G8R8_SINT"
    },
    {
     "enum_field_value" : 36,
     "name" : "VK_FORMAT_B8G8R8_SRGB"
    },
    {
     "enum_field_value" : 37,
     "name" : "VK_FORMAT_R8G8B8A8_UNORM"
    },
    {
     "enum_field_value" : 38,
     "name" : "VK_FORMAT_R8G8B8A8_SNORM"
    },
    {
     "enum_field_value" : 39,
     "name" : "VK_FORMAT_R8G8B8A8_USCALED"
    },
    {
     "enum_field_value" : 40,
     "name" : "VK_FORMAT_R8G8B8A8_SSCALED"
    },
    {
     "enum_field_value" : 41,
     "name" : "VK_FORMAT_R8G8B8A8_UINT"
    },
    {
     "enum_field_value" : 42,
     "name" : "VK_FORMAT_R8G8B8A8_SINT"
    },
    {
     "enum_field_value" : 43,
     "name" : "VK_FORMAT_R8G8B8A8_SRGB"
    },
    {
     "enum_field_value" : 44,
     "name" : "VK_FORMAT_B8G8R8A8_UNORM"
    },
    {
     "enum_field_value" : 45,
     "name" : "VK_FORMAT_B8G8R8A8_SNORM"
    },
    {
     "enum_field_value" : 46,
     "name" : "VK_FORMAT_B8G8R8A8_USCALED"
    },
    {
     "enum_field_value" : 47,
     "name" : "VK_FORMAT_B8G8R8A8_SSCALED"
    },
    {
     "enum_field_value" : 48,
     "name" : "VK_FORMAT_B8G8R8A8_UINT"
    },
    {
     "enum_field_value" : 49,
     "name" : "VK_FORMAT_B8G8R8A8_SINT"
    },
    {
     "enum_field_value" : 50,
     "name" : "VK_FORMAT_B8G8R8A8_SRGB"
    },
    {
     "enum_field_value" : 51,
     "name" : "VK_FORMAT_A8B8G8R8_UNORM_PACK32"
    },
    {
     "enum_field_value" : 52,
     "name" : "VK_FORMAT_A8B8G8R8_SNORM_PACK32"
    },
    {
     "enum_field_value" : 53,
     "name" : "VK_FORMAT_A8B8G8R8_USCALED_PACK32"
    },
    {
     "enum_field_value" : 54,
     "name" : "VK_FORMAT_A8B8G8R8_SSCALED_PACK32"
    },
    {
     "enum_field_value" : 55,
     "name" : "VK_FORMAT_A8B8G8R8_UINT_PACK32"
    },
    {
     "enum_field_value" : 56,
     "name" : "VK_FORMAT_A8B8G8R8_SINT_PACK32"
    },
    {
     "enum_field_value" : 57,
     "name" : "VK_FORMAT_A8B8G8R8_SRGB_PACK32"
    },
    {
     "enum_field_value" : 58,
     "name" : "VK_FORMAT_A2R10G10B10_UNORM_PACK32"
    },
    {
     "enum_field_value" : 59,
     "name" : "VK_FORMAT_A2R10G10B10_SNORM_PACK32"
    },
    {
     "enum_field_value" : 60,
     "name" : "VK_FORMAT_A2R10G10B10_USCALED_PACK32"
    },
    {
     "enum_field_value" : 61,
     "name" : "VK_FORMAT_A2R10G10B10_SSCALED_PACK32"
    },
    {
     "enum_field_value" : 62,
     "name" : "VK_FORMAT_A2R10G10B10_UINT_PACK32"
    },
    {
     "enum_field_value" : 63,
     "name" : "VK_FORMAT_A2R10G10B10_SINT_PACK32"
    },
    {
     "enum_field_value" : 64,
     "name" : "VK_FORMAT_A2B10G10R10_UNORM_PACK32"
    },
    {
     "enum_field_value" : 65,
     "name" : "VK_FORMAT_A2B10G10R10_SNORM_PACK32"
    },
    {
     "enum_field_value" : 66,
     "name" : "VK_FORMAT_A2B10G10R10_USCALED_PACK32"
    },
    {
     "enum_field_value" : 67,
     "name" : "VK_FORMAT_A2B10G10R10_SSCALED_PACK32"
    },
    {
     "enum_field_value" : 68,
     "name" : "VK_FORMAT_A2B10G10R10_UINT_PACK32"
    },
    {
     "enum_field_value" : 69,
     "name" : "VK_FORMAT_A2B10G10R10_SINT_PACK32"
    },
    {
     "enum_field_value" : 70,
     "name" : "VK_FORMAT_R16_UNORM"
    },
    {
     "enum_field_value" : 71,
     "name" : "VK_FORMAT_R16_SNORM"
    },
    {
     "enum_field_value" : 72,
     "name" : "VK_FORMAT_R16_USCALED"
    },
    {
     "enum_field_value" : 73,
     "name" : "VK_FORMAT_R16_SSCALED"
    },
    {
     "enum_field_value" : 74,
     "name" : "VK_FORMAT_R16_UINT"
    },
    {
     "enum_field_value" : 75,
     "name" : "VK_FORMAT_R16_SINT"
    },
    {
     "enum_field_value" : 76,
     "name" : "VK_FORMAT_R16_SFLOAT"
    },
    {
     "enum_field_value" : 77,
     "name" : "VK_FORMAT_R16G16_UNORM"
    },
    {
     "enum_field_value" : 78,
     "name" : "VK_FORMAT_R16G16_SNORM"
    },
    {
     "enum_field_value" : 79,
     "name" : "VK_FORMAT_R16G16_USCALED"
    },
    {
     "enum_field_value" : 80,
     "name" : "VK_FORMAT_R16G16_SSCALED"
    },
    {
     "enum_field_value" : 81,
     "name" : "VK_FORMAT_R16G16_UINT"
    },
    {
     "enum_field_value" : 82,
     "name" : "VK_FORMAT_R16G16_SINT"
    },
    {
     "enum_field_value" : 83,
     "name" : "VK_FORMAT_R16G16_SFLOAT"
    },
    {
     "enum_field_value" : 84,
     "name" : "VK_FORMAT_R16G16B16_UNORM"
    },
    {
     "enum_field_value" : 85,
     "name" : "VK_FORMAT_R16G16B16_SNORM"
    },
    {
     "enum_field_value" : 86,
     "name" : "VK_FORMAT_R16G16B16_USCALED"
    },
    {
     "enum_field_value" : 87,
     "name" : "VK_FORMAT_R16G16B16_SSCALED"
    },
    {
     "enum_field_value" : 88,
     "name" : "VK_FORMAT_R16G16B16_UINT"
    },
    {
     "enum_field_value" : 89,
     "name" : "VK_FORMAT_R16G16B16_SINT"
    },
    {
     "enum_field_value" : 90,
     "name" : "VK_FORMAT_R16G16B16_SFLOAT"
    },
    {
     "enum_field_value" : 91,
     "name" : "VK_FORMAT_R16G16B16A16_UNORM"
    },
    {
     "enum_field_value" : 92,
     "name" : "VK_FORMAT_R16G16B16A16_SNORM"
    },
    {
     "enum_field_value" : 93,
     "name" : "VK_FORMAT_R16G16B16A16_USCALED"
    },
    {
     "enum_field_value" : 94,
     "name" : "VK_FORMAT_R16G16B16A16_SSCALED"
    },
    {
     "enum_field_value" : 95,
     "name" : "VK_FORMAT_R16G16B16A16_UINT"
    },
    {
     "enum_field_value" : 96,
     "name" : "VK_FORMAT_R16G16B16A16_SINT"
    },
    {
     "enum_field_value" : 97,
     "name" : "VK_FORMAT_R16G16B16A16_SFLOAT"
    },
    {
     "enum_field_value" : 98,
     "name" : "VK_FORMAT_R32_UINT"
    },
    {
     "enum_field_value" : 99,
     "name" : "VK_FORMAT_R32_SINT"
    },
    {
     "enum_field_value" : 100,
     "name" : "VK_FORMAT_R32_SFLOAT"
    },
    {
     "enum_field_value" : 101,
     "name" : "VK_FORMAT_R32G32_UINT"
    },
    {
     "enum_field_value" : 102,
     "name" : "VK_FORMAT_R32G32_SINT"
    },
    {
     "enum_field_value" : 103,
     "name" : "VK_FORMAT_R32G32_SFLOAT"
    },
    {
     "enum_field_value" : 104,
     "name" : "VK_FORMAT_R32G32B32_UINT"
    },
    {
     "enum_field_value" : 105,
     "name" : "VK_FORMAT_R32G32B32_SINT"
    },
    {
     "enum_field_value" : 106,
     "name" : "VK_FORMAT_R32G32B32_SFLOAT"
    },
    {
     "enum_field_value" : 107,
     "name" : "VK_FORMAT_R32G32B32A32_UINT"
    },
    {
     "enum_field_value" : 108,
     "name" : "VK_FORMAT_R32G32B32A32_SINT"
    },
    {
     "enum_field_value" : 109,
     "name" : "VK_FORMAT_R32G32B32A32_SFLOAT"
    },
    {
     "enum_field_value" : 110,
     "name" : "VK_FORMAT_R64_UINT"
    },
    {
     "enum_field_value" : 111,
     "name" : "VK_FORMAT_R64_SINT"
    },
    {
     "enum_field_value" : 112,
     "name" : "VK_FORMAT_R64_SFLOAT"
    },
    {
     "enum_field_value" : 113,
     "name" : "VK_FORMAT_R64G64_UINT"
    },
    {
     "enum_field_value" : 114,
     "name" : "VK_FORMAT_R64G64_SINT"
    },
    {
     "enum_field_value" : 115,
     "name" : "VK_FORMAT_R64G64_SFLOAT"
    },
    {
     "enum_field_value" : 116,
     "name" : "VK_FORMAT_R64G64B64_UINT"
    },
    {
     "enum_field_value" : 117,
     "name" : "VK_FORMAT_R64G64B64_SINT"
    },
    {
     "enum_field_value" : 118,
     "name" : "VK_FORMAT_R64G64B64_SFLOAT"
    },
    {
     "enum_field_value" : 119,
     "name" : "VK_FORMAT_R64G64B64A64_UINT"
    },
    {
     "enum_field_value" : 120,
     "name" : "VK_FORMAT_R64G64B64A64_SINT"
    },
    {
     "enum_field_value" : 121,
     "name" : "VK_FORMAT_R64G64B64A64_SFLOAT"
    },
    {
     "enum_field_value" : 122,
     "name" : "VK_FORMAT_B10G11R11_UFLOAT_PACK32"
    },
    {
     "enum_field_value" : 123,
     "name" : "VK_FORMAT_E5B9G9R9_UFLOAT_PACK32"
    },
    {
     "enum_field_value" : 124,
     "name" : "VK_FORMAT_D16_UNORM"
    },
    {
     "enum_field_value" : 125,
     "name" : "VK_FORMAT_X8_D24_UNORM_PACK32"
    },
    {
     "enum_field_value" : 126,
     "name" : "VK_FORMAT_D32_SFLOAT"
    },
    {
     "enum_field_value" : 127,
     "name" : "VK_FORMAT_S8_UINT"
    },
    {
     "enum_field_value" : 128,
     "name" : "VK_FORMAT_D16_UNORM_S8_UINT"
    },
    {
     "enum_field_value" : 129,
     "name" : "VK_FORMAT_D24_UNORM_S8_UINT"
    },
    {
     "enum_field_value" : 130,
     "name" : "VK_FORMAT_D32_SFLOAT_S8_UINT"
    },
    {
     "enum_field_value" : 131,
     "name" : "VK_FORMAT_BC1_RGB_UNORM_BLOCK"
    },
    {
     "enum_field_value" : 132,
     "name" : "VK_FORMAT_BC1_RGB_SRGB_BLOCK"
    },
    {
     "enum_field_value" : 133,
     "name" : "VK_FORMAT_BC1_RGBA_UNORM_BLOCK"
    },
    {
     "enum_field_value" : 134,
     "name" : "VK_FORMAT_BC1_RGBA_SRGB_BLOCK"
    },
    {
     "enum_field_value" : 135,
     "name" : "VK_FORMAT_BC2_UNORM_BLOCK"
    },
    {
     "enum_field_value" : 136,
     "name" : "VK_FORMAT_BC2_SRGB_BLOCK"
    },
    {
     "enum_field_value" : 137,
     "name" : "VK_FORMAT_BC3_UNORM_BLOCK"
    },
    {
     "enum_field_value" : 138,
     "name" : "VK_FORMAT_BC3_SRGB_BLOCK"
    },
    {
     "enum_field_value" : 139,
     "name" : "VK_FORMAT_BC4_UNORM_BLOCK"
    },
    {
     "enum_field_value" : 140,
     "name" : "VK_FORMAT_BC4_SNORM_BLOCK"
    },
    {
     "enum_field_value" : 141,
     "name" : "VK_FORMAT_BC5_UNORM_BLOCK"
    },
    {
     "enum_field_value" : 142,
     "name" : "VK_FORMAT_BC5_SNORM_BLOCK"
    },
    {
     "enum_field_value" : 143,
     "name" : "VK_FORMAT_BC6H_UFLOAT_BLOCK"
    },
    {
     "enum_field_value" : 144,
     "name" : "VK_FORMAT_BC6H_SFLOAT_BLOCK"
    },
    {
     "enum_field_value" : 145,
     "name" : "VK_FORMAT_BC7_UNORM_BLOCK"
    },
    {
     "enum_field_value" : 146,
     "name" : "VK_FORMAT_BC7_SRGB_BLOCK"
    },
    {
     "enum_field_value" : 147,
     "name" : "VK_FORMAT_ETC2_R8G8B8_UNORM_BLOCK"
    },
    {
     "enum_field_value" : 148,
     "name" : "VK_FORMAT_ETC2_R8G8B8_SRGB_BLOCK"
    },
    {
     "enum_field_value" : 149,
     "name" : "VK_FORMAT_ETC2_R8G8B8A1_UNORM_BLOCK"
    },
    {
     "enum_field_value" : 150,
     "name" : "VK_FORMAT_ETC2_R8G8B8A1_SRGB_BLOCK"
    },
    {
     "enum_field_value" : 151,
     "name" : "VK_FORMAT_ETC2_R8G8B8A8_UNORM_BLOCK"
    },
    {
     "enum_field_value" : 152,
     "name" : "VK_FORMAT_ETC2_R8G8B8A8_SRGB_BLOCK"
    },
    {
     "enum_field_value" : 153,
     "name" : "VK_FORMAT_EAC_R11_UNORM_BLOCK"
    },
    {
     "enum_field_value" : 154,
     "name" : "VK_FORMAT_EAC_R11_SNORM_BLOCK"
    },
    {
     "enum_field_value" : 155,
     "name" : "VK_FORMAT_EAC_R11G11_UNORM_BLOCK"
    },
    {
     "enum_field_value" : 156,
     "name" : "VK_FORMAT_EAC_R11G11_SNORM_BLOCK"
    },
    {
     "enum_field_value" : 157,
     "name" : "VK_FORMAT_ASTC_4x4_UNORM_BLOCK"
    },
    {
     "enum_field_value" : 158,
     "name" : "VK_FORMAT_ASTC_4x4_SRGB_BLOCK"
    },
    {
     "enum_field_value" : 159,
     "name" : "VK_FORMAT_ASTC_5x4_UNORM_BLOCK"
    },
    {
     "enum_field_value" : 160,
     "name" : "VK_FORMAT_ASTC_5x4_SRGB_BLOCK"
    },
    {
     "enum_field_value" : 161,
     "name" : "VK_FORMAT_ASTC_5x5_UNORM_BLOCK"
    },
    {
     "enum_field_value" : 162,
     "name" : "VK_FORMAT_ASTC_5x5_SRGB_BLOCK"
    },
    {
     "enum_field_value" : 163,
     "name" : "VK_FORMAT_ASTC_6x5_UNORM_BLOCK"
    },
    {
     "enum_field_value" : 164,
     "name" : "VK_FORMAT_ASTC_6x5_SRGB_BLOCK"
    },
    {
     "enum_field_value" : 165,
     "name" : "VK_FORMAT_ASTC_6x6_UNORM_BLOCK"
    },
    {
     "enum_field_value" : 166,
     "name" : "VK_FORMAT_ASTC_6x6_SRGB_BLOCK"
    },
    {
     "enum_field_value" : 167,
     "name" : "VK_FORMAT_ASTC_8x5_UNORM_BLOCK"
    },
    {
     "enum_field_value" : 168,
     "name" : "VK_FORMAT_ASTC_8x5_SRGB_BLOCK"
    },
    {
     "enum_field_value" : 169,
     "name" : "VK_FORMAT_ASTC_8x6_UNORM_BLOCK"
    },
    {
     "enum_field_value" : 170,
     "name" : "VK_FORMAT_ASTC_8x6_SRGB_BLOCK"
    },
    {
     "enum_field_value" : 171,
     "name" : "VK_FORMAT_ASTC_8x8_UNORM_BLOCK"
    },
    {
     "enum_field_value" : 172,
     "name" : "VK_FORMAT_ASTC_8x8_SRGB_BLOCK"
    },
    {
     "enum_field_value" : 173,
     "name" : "VK_FORMAT_ASTC_10x5_UNORM_BLOCK"
    },
    {
     "enum_field_value" : 174,
     "name" : "VK_FORMAT_ASTC_10x5_SRGB_BLOCK"
    },
    {
     "enum_field_value" : 175,
     "name" : "VK_FORMAT_ASTC_10x6_UNORM_BLOCK"
    },
    {
     "enum_field_value" : 176,
     "name" : "VK_FORMAT_ASTC_10x6_SRGB_BLOCK"
    },
    {
     "enum_field_value" : 177,
     "name" : "VK_FORMAT_ASTC_10x8_UNORM_BLOCK"
    },
    {
     "enum_field_value" : 178,
     "name" : "VK_FORMAT_ASTC_10x8_SRGB_BLOCK"
    },
    {
     "enum_field_value" : 179,
     "name" : "VK_FORMAT_ASTC_10x10_UNORM_BLOCK"
    },
    {
     "enum_field_value" : 180,
     "name" : "VK_FORMAT_ASTC_10x10_SRGB_BLOCK"
    },
    {
     "enum_field_value" : 181,
     "name" : "VK_FORMAT_ASTC_12x10_UNORM_BLOCK"
    },
    {
     "enum_field_value" : 182,
     "name" : "VK_FORMAT_ASTC_12x10_SRGB_BLOCK"
    },
    {
     "enum_field_value" : 183,
     "name" : "VK_FORMAT_ASTC_12x12_UNORM_BLOCK"
    },
    {
     "enum_field_value" : 184,
     "name" : "VK_FORMAT_ASTC_12x12_SRGB_BLOCK"
    },
    {
     "enum_field_value" : 1000156000,
     "name" : "VK_FORMAT_G8B8G8R8_422_UNORM"
    },
    {
     "enum_field_value" : 1000156001,
     "name" : "VK_FORMAT_B8G8R8G8_422_UNORM"
    },
    {
     "enum_field_value" : 1000156002,
     "name" : "VK_FORMAT_G8_B8_R8_3PLANE_420_UNORM"
    },
    {
     "enum_field_value" : 1000156003,
     "name" : "VK_FORMAT_G8_B8R8_2PLANE_420_UNORM"
    },
    {
     "enum_field_value" : 1000156004,
     "name" : "VK_FORMAT_G8_B8_R8_3PLANE_422_UNORM"
    },
    {
     "enum_field_value" : 1000156005,
     "name" : "VK_FORMAT_G8_B8R8_2PLANE_422_UNORM"
    },
    {
     "enum_field_value" : 1000156006,
     "name" : "VK_FORMAT_G8_B8_R8_3PLANE_444_UNORM"
    },
    {
     "enum_field_value" : 1000156007,
     "name" : "VK_FORMAT_R10X6_UNORM_PACK16"
    },
    {
     "enum_field_value" : 1000156008,
     "name" : "VK_FORMAT_R10X6G10X6_UNORM_2PACK16"
    },
    {
     "enum_field_value" : 1000156009,
     "name" : "VK_FORMAT_R10X6G10X6B10X6A10X6_UNORM_4PACK16"
    },
    {
     "enum_field_value" : 1000156010,
     "name" : "VK_FORMAT_G10X6B10X6G10X6R10X6_422_UNORM_4PACK16"
    },
    {
     "enum_field_value" : 1000156011,
     "name" : "VK_FORMAT_B10X6G10X6R10X6G10X6_422_UNORM_4PACK16"
    },
    {
     "enum_field_value" : 1000156012,
     "name" : "VK_FORMAT_G10X6_B10X6_R10X6_3PLANE_420_UNORM_3PACK16"
    },
    {
     "enum_field_value" : 1000156013,
     "name" : "VK_FORMAT_G10X6_B10X6R10X6_2PLANE_420_UNORM_3PACK16"
    },
    {
     "enum_field_value" : 1000156014,
     "name" : "VK_FORMAT_G10X6_B10X6_R10X6_3PLANE_422_UNORM_3PACK16"
    },
    {
     "enum_field_value" : 1000156015,
     "name" : "VK_FORMAT_G10X6_B10X6R10X6_2PLANE_422_UNORM_3PACK16"
    },
    {
     "enum_field_value" : 1000156016,
     "name" : "VK_FORMAT_G10X6_B10X6_R10X6_3PLANE_444_UNORM_3PACK16"
    },
    {
     "enum_field_value" : 1000156017,
     "name" : "VK_FORMAT_R12X4_UNORM_PACK16"
    },
    {
     "enum_field_value" : 1000156018,
     "name" : "VK_FORMAT_R12X4G12X4_UNORM_2PACK16"
    },
    {
     "enum_field_value" : 1000156019,
     "name" : "VK_FORMAT_R12X4G12X4B12X4A12X4_UNORM_4PACK16"
    },
    {
     "enum_field_value" : 1000156020,
     "name" : "VK_FORMAT_G12X4B12X4G12X4R12X4_422_UNORM_4PACK16"
    },
    {
     "enum_field_value" : 1000156021,
     "name" : "VK_FORMAT_B12X4G12X4R12X4G12X4_422_UNORM_4PACK16"
    },
    {
     "enum_field_value" : 1000156022,
     "name" : "VK_FORMAT_G12X4_B12X4_R12X4_3PLANE_420_UNORM_3PACK16"
    },
    {
     "enum_field_value" : 1000156023,
     "name" : "VK_FORMAT_G12X4_B12X4R12X4_2PLANE_420_UNORM_3PACK16"
    },
    {
     "enum_field_value" : 1000156024,
     "name" : "VK_FORMAT_G12X4_B12X4_R12X4_3PLANE_422_UNORM_3PACK16"
    },
    {
     "enum_field_value" : 1000156025,
     "name" : "VK_FORMAT_G12X4_B12X4R12X4_2PLANE_422_UNORM_3PACK16"
    },
    {
     "enum_field_value" : 1000156026,
     "name" : "VK_FORMAT_G12X4_B12X4_R12X4_3PLANE_444_UNORM_3PACK16"
    },
    {
     "enum_field_value" : 1000156027,
     "name" : "VK_FORMAT_G16B16G16R16_422_UNORM"
    },
    {
     "enum_field_value" : 1000156028,
     "name" : "VK_FORMAT_B16G16R16G16_422_UNORM"
    },
    {
     "enum_field_value" : 1000156029,
     "name" : "VK_FORMAT_G16_B16_R16_3PLANE_420_UNORM"
    },
    {
     "enum_field_value" : 1000156030,
     "name" : "VK_FORMAT_G16_B16R16_2PLANE_420_UNORM"
    },
    {
     "enum_field_value" : 1000156031,
     "name" : "VK_FORMAT_G16_B16_R16_3PLANE_422_UNORM"
    },
    {
     "enum_field_value" : 1000156032,
     "name" : "VK_FORMAT_G16_B16R16_2PLANE_422_UNORM"
    },
    {
     "enum_field_value" : 1000156033,
     "name" : "VK_FORMAT_G16_B16_R16_3PLANE_444_UNORM"
    },
    {
     "enum_field_value" : 1000054000,
     "name" : "VK_FORMAT_PVRTC1_2BPP_UNORM_BLOCK_IMG"
    },
    {
     "enum_field_value" : 1000054001,
     "name" : "VK_FORMAT_PVRTC1_4BPP_UNORM_BLOCK_IMG"
    },
    {
     "enum_field_value" : 1000054002,
     "name" : "VK_FORMAT_PVRTC2_2BPP_UNORM_BLOCK_IMG"
    },
    {
     "enum_field_value" : 1000054003,
     "name" : "VK_FORMAT_PVRTC2_4BPP_UNORM_BLOCK_IMG"
    },
    {
     "enum_field_value" : 1000054004,
     "name" : "VK_FORMAT_PVRTC1_2BPP_SRGB_BLOCK_IMG"
    },
    {
     "enum_field_value" : 1000054005,
     "name" : "VK_FORMAT_PVRTC1_4BPP_SRGB_BLOCK_IMG"
    },
    {
     "enum_field_value" : 1000054006,
     "name" : "VK_FORMAT_PVRTC2_2BPP_SRGB_BLOCK_IMG"
    },
    {
     "enum_field_value" : 1000054007,
     "name" : "VK_FORMAT_PVRTC2_4BPP_SRGB_BLOCK_IMG"
    },
    {
     "enum_field_value" : 1000066000,
     "name" : "VK_FORMAT_ASTC_4x4_SFLOAT_BLOCK_EXT"
    },
    {
     "enum_field_value" : 1000066001,
     "name" : "VK_FORMAT_ASTC_5x4_SFLOAT_BLOCK_EXT"
    },
    {
     "enum_field_value" : 1000066002,
     "name" : "VK_FORMAT_ASTC_5x5_SFLOAT_BLOCK_EXT"
    },
    {
     "enum_field_value" : 1000066003,
     "name" : "VK_FORMAT_ASTC_6x5_SFLOAT_BLOCK_EXT"
    },
    {
     "enum_field_value" : 1000066004,
     "name" : "VK_FORMAT_ASTC_6x6_SFLOAT_BLOCK_EXT"
    },
    {
     "enum_field_value" : 1000066005,
     "name" : "VK_FORMAT_ASTC_8x5_SFLOAT_BLOCK_EXT"
    },
    {
     "enum_field_value" : 1000066006,
     "name" : "VK_FORMAT_ASTC_8x6_SFLOAT_BLOCK_EXT"
    },
    {
     "enum_field_value" : 1000066007,
     "name" : "VK_FORMAT_ASTC_8x8_SFLOAT_BLOCK_EXT"
    },
    {
     "enum_field_value" : 1000066008,
     "name" : "VK_FORMAT_ASTC_10x5_SFLOAT_BLOCK_EXT"
    },
    {
     "enum_field_value" : 1000066009,
     "name" : "VK_FORMAT_ASTC_10x6_SFLOAT_BLOCK_EXT"
    },
    {
     "enum_field_value" : 1000066010,
     "name" : "VK_FORMAT_ASTC_10x8_SFLOAT_BLOCK_EXT"
    },
    {
     "enum_field_value" : 1000066011,
     "name" : "VK_FORMAT_ASTC_10x10_SFLOAT_BLOCK_EXT"
    },
    {
     "enum_field_value" : 1000066012,
     "name" : "VK_FORMAT_ASTC_12x10_SFLOAT_BLOCK_EXT"
    },
    {
     "enum_field_value" : 1000066013,
     "name" : "VK_FORMAT_ASTC_12x12_SFLOAT_BLOCK_EXT"
    },
    {
     "enum_field_value" : 1000156000,
     "name" : "VK_FORMAT_G8B8G8R8_422_UNORM_KHR"
    },
    {
     "enum_field_value" : 1000156001,
     "name" : "VK_FORMAT_B8G8R8G8_422_UNORM_KHR"
    },
    {
     "enum_field_value" : 1000156002,
     "name" : "VK_FORMAT_G8_B8_R8_3PLANE_420_UNORM_KHR"
    },
    {
     "enum_field_value" : 1000156003,
     "name" : "VK_FORMAT_G8_B8R8_2PLANE_420_UNORM_KHR"
    },
    {
     "enum_field_value" : 1000156004,
     "name" : "VK_FORMAT_G8_B8_R8_3PLANE_422_UNORM_KHR"
    },
    {
     "enum_field_value" : 1000156005,
     "name" : "VK_FORMAT_G8_B8R8_2PLANE_422_UNORM_KHR"
    },
    {
     "enum_field_value" : 1000156006,
     "name" : "VK_FORMAT_G8_B8_R8_3PLANE_444_UNORM_KHR"
    },
    {
     "enum_field_value" : 1000156007,
     "name" : "VK_FORMAT_R10X6_UNORM_PACK16_KHR"
    },
    {
     "enum_field_value" : 1000156008,
     "name" : "VK_FORMAT_R10X6G10X6_UNORM_2PACK16_KHR"
    },
    {
     "enum_field_value" : 1000156009,
     "name" : "VK_FORMAT_R10X6G10X6B10X6A10X6_UNORM_4PACK16_KHR"
    },
    {
     "enum_field_value" : 1000156010,
     "name" : "VK_FORMAT_G10X6B10X6G10X6R10X6_422_UNORM_4PACK16_KHR"
    },
    {
     "enum_field_value" : 1000156011,
     "name" : "VK_FORMAT_B10X6G10X6R10X6G10X6_422_UNORM_4PACK16_KHR"
    },
    {
     "enum_field_value" : 1000156012,
     "name" : "VK_FORMAT_G10X6_B10X6_R10X6_3PLANE_420_UNORM_3PACK16_KHR"
    },
    {
     "enum_field_value" : 1000156013,
     "name" : "VK_FORMAT_G10X6_B10X6R10X6_2PLANE_420_UNORM_3PACK16_KHR"
    },
    {
     "enum_field_value" : 1000156014,
     "name" : "VK_FORMAT_G10X6_B10X6_R10X6_3PLANE_422_UNORM_3PACK16_KHR"
    },
    {
     "enum_field_value" : 1000156015,
     "name" : "VK_FORMAT_G10X6_B10X6R10X6_2PLANE_422_UNORM_3PACK16_KHR"
    },
    {
     "enum_field_value" : 1000156016,
     "name" : "VK_FORMAT_G10X6_B10X6_R10X6_3PLANE_444_UNORM_3PACK16_KHR"
    },
    {
     "enum_field_value" : 1000156017,
     "name" : "VK_FORMAT_R12X4_UNORM_PACK16_KHR"
    },
    {
     "enum_field_value" : 1000156018,
     "name" : "VK_FORMAT_R12X4G12X4_UNORM_2PACK16_KHR"
    },
    {
     "enum_field_value" : 1000156019,
     "name" : "VK_FORMAT_R12X4G12X4B12X4A12X4_UNORM_4PACK16_KHR"
    },
    {
     "enum_field_value" : 1000156020,
     "name" : "VK_FORMAT_G12X4B12X4G12X4R12X4_422_UNORM_4PACK16_KHR"
    },
    {
     "enum_field_value" : 1000156021,
     "name" : "VK_FORMAT_B12X4G12X4R12X4G12X4_422_UNORM_4PACK16_KHR"
    },
    {
     "enum_field_value" : 1000156022,
     "name" : "VK_FORMAT_G12X4_B12X4_R12X4_3PLANE_420_UNORM_3PACK16_KHR"
    },
    {
     "enum_field_value" : 1000156023,
     "name" : "VK_FORMAT_G12X4_B12X4R12X4_2PLANE_420_UNORM_3PACK16_KHR"
    },
    {
     "enum_field_value" : 1000156024,
     "name" : "VK_FORMAT_G12X4_B12X4_R12X4_3PLANE_422_UNORM_3PACK16_KHR"
    },
    {
     "enum_field_value" : 1000156025,
     "name" : "VK_FORMAT_G12X4_B12X4R12X4_2PLANE_422_UNORM_3PACK16_KHR"
    },
    {
     "enum_field_value" : 1000156026,
     "name" : "VK_FORMAT_G12X4_B12X4_R12X4_3PLANE_444_UNORM_3PACK16_KHR"
    },
    {
     "enum_field_value" : 1000156027,
     "name" : "VK_FORMAT_G16B16G16R16_422_UNORM_KHR"
    },
    {
     "enum_field_value" : 1000156028,
     "name" : "VK_FORMAT_B16G16R16G16_422_UNORM_KHR"
    },
    {
     "enum_field_value" : 1000156029,
     "name" : "VK_FORMAT_G16_B16_R16_3PLANE_420_UNORM_KHR"
    },
    {
     "enum_field_value" : 1000156030,
     "name" : "VK_FORMAT_G16_B16R16_2PLANE_420_UNORM_KHR"
    },
    {
     "enum_field_value" : 1000156031,
     "name" : "VK_FORMAT_G16_B16_R16_3PLANE_422_UNORM_KHR"
    },
    {
     "enum_field_value" : 1000156032,
     "name" : "VK_FORMAT_G16_B16R16_2PLANE_422_UNORM_KHR"
    },
    {
     "enum_field_value" : 1000156033,
     "name" : "VK_FORMAT_G16_B16_R16_3PLANE_444_UNORM_KHR"
    },
    {
     "enum_field_value" : 0,
     "name" : "VK_FORMAT_BEGIN_RANGE"
    },
    {
     "enum_field_value" : 184,
     "name" : "VK_FORMAT_END_RANGE"
    },
    {
     "enum_field_value" : 185,
     "name" : "VK_FORMAT_RANGE_SIZE"
    },
    {
     "enum_field_value" : 2147483647,
     "name" : "VK_FORMAT_MAX_ENUM"
    }
   ],
   "linker_set_key" : "_ZTI8VkFormat",
   "name" : "VkFormat",
   "referenced_type" : "_ZTI8VkFormat",
   "self_type" : "_ZTI8VkFormat",
   "size" : 4,
   "source_file" : "/external/vulkan-headers/include/vulkan/vulkan_core.h",
   "underlying_type" : "_ZTIj"
  },
  {
   "alignment" : 4,
   "enum_fields" :
   [
    {
     "enum_field_value" : 0,
     "name" : "VK_SUCCESS"
    },
    {
     "enum_field_value" : 1,
     "name" : "VK_NOT_READY"
    },
    {
     "enum_field_value" : 2,
     "name" : "VK_TIMEOUT"
    },
    {
     "enum_field_value" : 3,
     "name" : "VK_EVENT_SET"
    },
    {
     "enum_field_value" : 4,
     "name" : "VK_EVENT_RESET"
    },
    {
     "enum_field_value" : 5,
     "name" : "VK_INCOMPLETE"
    },
    {
     "enum_field_value" : -1,
     "name" : "VK_ERROR_OUT_OF_HOST_MEMORY"
    },
    {
     "enum_field_value" : -2,
     "name" : "VK_ERROR_OUT_OF_DEVICE_MEMORY"
    },
    {
     "enum_field_value" : -3,
     "name" : "VK_ERROR_INITIALIZATION_FAILED"
    },
    {
     "enum_field_value" : -4,
     "name" : "VK_ERROR_DEVICE_LOST"
    },
    {
     "enum_field_value" : -5,
     "name" : "VK_ERROR_MEMORY_MAP_FAILED"
    },
    {
     "enum_field_value" : -6,
     "name" : "VK_ERROR_LAYER_NOT_PRESENT"
    },
    {
     "enum_field_value" : -7,
     "name" : "VK_ERROR_EXTENSION_NOT_PRESENT"
    },
    {
     "enum_field_value" : -8,
     "name" : "VK_ERROR_FEATURE_NOT_PRESENT"
    },
    {
     "enum_field_value" : -9,
     "name" : "VK_ERROR_INCOMPATIBLE_DRIVER"
    },
    {
     "enum_field_value" : -10,
     "name" : "VK_ERROR_TOO_MANY_OBJECTS"
    },
    {
     "enum_field_value" : -11,
     "name" : "VK_ERROR_FORMAT_NOT_SUPPORTED"
    },
    {
     "enum_field_value" : -12,
     "name" : "VK_ERROR_FRAGMENTED_POOL"
    },
    {
     "enum_field_value" : -1000069000,
     "name" : "VK_ERROR_OUT_OF_POOL_MEMORY"
    },
    {
     "enum_field_value" : -1000072003,
     "name" : "VK_ERROR_INVALID_EXTERNAL_HANDLE"
    },
    {
     "enum_field_value" : -1000000000,
     "name" : "VK_ERROR_SURFACE_LOST_KHR"
    },
    {
     "enum_field_value" : -1000000001,
     "name" : "VK_ERROR_NATIVE_WINDOW_IN_USE_KHR"
    },
    {
     "enum_field_value" : 1000001003,
     "name" : "VK_SUBOPTIMAL_KHR"
    },
    {
     "enum_field_value" : -1000001004,
     "name" : "VK_ERROR_OUT_OF_DATE_KHR"
    },
    {
     "enum_field_value" : -1000003001,
     "name" : "VK_ERROR_INCOMPATIBLE_DISPLAY_KHR"
    },
    {
     "enum_field_value" : -1000011001,
     "name" : "VK_ERROR_VALIDATION_FAILED_EXT"
    },
    {
     "enum_field_value" : -1000012000,
     "name" : "VK_ERROR_INVALID_SHADER_NV"
    },
    {
     "enum_field_value" : -1000158000,
     "name" : "VK_ERROR_INVALID_DRM_FORMAT_MODIFIER_PLANE_LAYOUT_EXT"
    },
    {
     "enum_field_value" : -1000161000,
     "name" : "VK_ERROR_FRAGMENTATION_EXT"
    },
    {
     "enum_field_value" : -1000174001,
     "name" : "VK_ERROR_NOT_PERMITTED_EXT"
    },
    {
     "enum_field_value" : -1000244000,
     "name" : "VK_ERROR_INVALID_DEVICE_ADDRESS_EXT"
    },
    {
     "enum_field_value" : -1000255000,
     "name" : "VK_ERROR_FULL_SCREEN_EXCLUSIVE_MODE_LOST_EXT"
    },
    {
     "enum_field_value" : -1000069000,
     "name" : "VK_ERROR_OUT_OF_POOL_MEMORY_KHR"
    },
    {
     "enum_field_value" : -1000072003,
     "name" : "VK_ERROR_INVALID_EXTERNAL_HANDLE_KHR"
    },
    {
     "enum_field_value" : -12,
     "name" : "VK_RESULT_BEGIN_RANGE"
    },
    {
     "enum_field_value" : 5,
     "name" : "VK_RESULT_END_RANGE"
    },
    {
     "enum_field_value" : 18,
     "name" : "VK_RESULT_RANGE_SIZE"
    },
    {
     "enum_field_value" : 2147483647,
     "name" : "VK_RESULT_MAX_ENUM"
    }
   ],
   "linker_set_key" : "_ZTI8VkResult",
   "name" : "VkResult",
   "referenced_type" : "_ZTI8VkResult",
   "self_type" : "_ZTI8VkResult",
   "size" : 4,
   "source_file" : "/external/vulkan-headers/include/vulkan/vulkan_core.h",
   "underlying_type" : "_ZTIi"
  },
  {
   "alignment" : 4,
   "enum_fields" :
   [
    {
     "enum_field_value" : 0,
     "name" : "VK_BLEND_OP_ADD"
    },
    {
     "enum_field_value" : 1,
     "name" : "VK_BLEND_OP_SUBTRACT"
    },
    {
     "enum_field_value" : 2,
     "name" : "VK_BLEND_OP_REVERSE_SUBTRACT"
    },
    {
     "enum_field_value" : 3,
     "name" : "VK_BLEND_OP_MIN"
    },
    {
     "enum_field_value" : 4,
     "name" : "VK_BLEND_OP_MAX"
    },
    {
     "enum_field_value" : 1000148000,
     "name" : "VK_BLEND_OP_ZERO_EXT"
    },
    {
     "enum_field_value" : 1000148001,
     "name" : "VK_BLEND_OP_SRC_EXT"
    },
    {
     "enum_field_value" : 1000148002,
     "name" : "VK_BLEND_OP_DST_EXT"
    },
    {
     "enum_field_value" : 1000148003,
     "name" : "VK_BLEND_OP_SRC_OVER_EXT"
    },
    {
     "enum_field_value" : 1000148004,
     "name" : "VK_BLEND_OP_DST_OVER_EXT"
    },
    {
     "enum_field_value" : 1000148005,
     "name" : "VK_BLEND_OP_SRC_IN_EXT"
    },
    {
     "enum_field_value" : 1000148006,
     "name" : "VK_BLEND_OP_DST_IN_EXT"
    },
    {
     "enum_field_value" : 1000148007,
     "name" : "VK_BLEND_OP_SRC_OUT_EXT"
    },
    {
     "enum_field_value" : 1000148008,
     "name" : "VK_BLEND_OP_DST_OUT_EXT"
    },
    {
     "enum_field_value" : 1000148009,
     "name" : "VK_BLEND_OP_SRC_ATOP_EXT"
    },
    {
     "enum_field_value" : 1000148010,
     "name" : "VK_BLEND_OP_DST_ATOP_EXT"
    },
    {
     "enum_field_value" : 1000148011,
     "name" : "VK_BLEND_OP_XOR_EXT"
    },
    {
     "enum_field_value" : 1000148012,
     "name" : "VK_BLEND_OP_MULTIPLY_EXT"
    },
    {
     "enum_field_value" : 1000148013,
     "name" : "VK_BLEND_OP_SCREEN_EXT"
    },
    {
     "enum_field_value" : 1000148014,
     "name" : "VK_BLEND_OP_OVERLAY_EXT"
    },
    {
     "enum_field_value" : 1000148015,
     "name" : "VK_BLEND_OP_DARKEN_EXT"
    },
    {
     "enum_field_value" : 1000148016,
     "name" : "VK_BLEND_OP_LIGHTEN_EXT"
    },
    {
     "enum_field_value" : 1000148017,
     "name" : "VK_BLEND_OP_COLORDODGE_EXT"
    },
    {
     "enum_field_value" : 1000148018,
     "name" : "VK_BLEND_OP_COLORBURN_EXT"
    },
    {
     "enum_field_value" : 1000148019,
     "name" : "VK_BLEND_OP_HARDLIGHT_EXT"
    },
    {
     "enum_field_value" : 1000148020,
     "name" : "VK_BLEND_OP_SOFTLIGHT_EXT"
    },
    {
     "enum_field_value" : 1000148021,
     "name" : "VK_BLEND_OP_DIFFERENCE_EXT"
    },
    {
     "enum_field_value" : 1000148022,
     "name" : "VK_BLEND_OP_EXCLUSION_EXT"
    },
    {
     "enum_field_value" : 1000148023,
     "name" : "VK_BLEND_OP_INVERT_EXT"
    },
    {
     "enum_field_value" : 1000148024,
     "name" : "VK_BLEND_OP_INVERT_RGB_EXT"
    },
    {
     "enum_field_value" : 1000148025,
     "name" : "VK_BLEND_OP_LINEARDODGE_EXT"
    },
    {
     "enum_field_value" : 1000148026,
     "name" : "VK_BLEND_OP_LINEARBURN_EXT"
    },
    {
     "enum_field_value" : 1000148027,
     "name" : "VK_BLEND_OP_VIVIDLIGHT_EXT"
    },
    {
     "enum_field_value" : 1000148028,
     "name" : "VK_BLEND_OP_LINEARLIGHT_EXT"
    },
    {
     "enum_field_value" : 1000148029,
     "name" : "VK_BLEND_OP_PINLIGHT_EXT"
    },
    {
     "enum_field_value" : 1000148030,
     "name" : "VK_BLEND_OP_HARDMIX_EXT"
    },
    {
     "enum_field_value" : 1000148031,
     "name" : "VK_BLEND_OP_HSL_HUE_EXT"
    },
    {
     "enum_field_value" : 1000148032,
     "name" : "VK_BLEND_OP_HSL_SATURATION_EXT"
    },
    {
     "enum_field_value" : 1000148033,
     "name" : "VK_BLEND_OP_HSL_COLOR_EXT"
    },
    {
     "enum_field_value" : 1000148034,
     "name" : "VK_BLEND_OP_HSL_LUMINOSITY_EXT"
    },
    {
     "enum_field_value" : 1000148035,
     "name" : "VK_BLEND_OP_PLUS_EXT"
    },
    {
     "enum_field_value" : 1000148036,
     "name" : "VK_BLEND_OP_PLUS_CLAMPED_EXT"
    },
    {
     "enum_field_value" : 1000148037,
     "name" : "VK_BLEND_OP_PLUS_CLAMPED_ALPHA_EXT"
    },
    {
     "enum_field_value" : 1000148038,
     "name" : "VK_BLEND_OP_PLUS_DARKER_EXT"
    },
    {
     "enum_field_value" : 1000148039,
     "name" : "VK_BLEND_OP_MINUS_EXT"
    },
    {
     "enum_field_value" : 1000148040,
     "name" : "VK_BLEND_OP_MINUS_CLAMPED_EXT"
    },
    {
     "enum_field_value" : 1000148041,
     "name" : "VK_BLEND_OP_CONTRAST_EXT"
    },
    {
     "enum_field_value" : 1000148042,
     "name" : "VK_BLEND_OP_INVERT_OVG_EXT"
    },
    {
     "enum_field_value" : 1000148043,
     "name" : "VK_BLEND_OP_RED_EXT"
    },
    {
     "enum_field_value" : 1000148044,
     "name" : "VK_BLEND_OP_GREEN_EXT"
    },
    {
     "enum_field_value" : 1000148045,
     "name" : "VK_BLEND_OP_BLUE_EXT"
    },
    {
     "enum_field_value" : 0,
     "name" : "VK_BLEND_OP_BEGIN_RANGE"
    },
    {
     "enum_field_value" : 4,
     "name" : "VK_BLEND_OP_END_RANGE"
    },
    {
     "enum_field_value" : 5,
     "name" : "VK_BLEND_OP_RANGE_SIZE"
    },
    {
     "enum_field_value" : 2147483647,
     "name" : "VK_BLEND_OP_MAX_ENUM"
    }
   ],
   "linker_set_key" : "_ZTI9VkBlendOp",
   "name" : "VkBlendOp",
   "referenced_type" : "_ZTI9VkBlendOp",
   "self_type" : "_ZTI9VkBlendOp",
   "size" : 4,
   "source_file" : "/external/vulkan-headers/include/vulkan/vulkan_core.h",
   "underlying_type" : "_ZTIj"
  },
  {
   "alignment" : 4,
   "enum_fields" :
   [
    {
     "enum_field_value" : 0,
     "name" : "VK_LOGIC_OP_CLEAR"
    },
    {
     "enum_field_value" : 1,
     "name" : "VK_LOGIC_OP_AND"
    },
    {
     "enum_field_value" : 2,
     "name" : "VK_LOGIC_OP_AND_REVERSE"
    },
    {
     "enum_field_value" : 3,
     "name" : "VK_LOGIC_OP_COPY"
    },
    {
     "enum_field_value" : 4,
     "name" : "VK_LOGIC_OP_AND_INVERTED"
    },
    {
     "enum_field_value" : 5,
     "name" : "VK_LOGIC_OP_NO_OP"
    },
    {
     "enum_field_value" : 6,
     "name" : "VK_LOGIC_OP_XOR"
    },
    {
     "enum_field_value" : 7,
     "name" : "VK_LOGIC_OP_OR"
    },
    {
     "enum_field_value" : 8,
     "name" : "VK_LOGIC_OP_NOR"
    },
    {
     "enum_field_value" : 9,
     "name" : "VK_LOGIC_OP_EQUIVALENT"
    },
    {
     "enum_field_value" : 10,
     "name" : "VK_LOGIC_OP_INVERT"
    },
    {
     "enum_field_value" : 11,
     "name" : "VK_LOGIC_OP_OR_REVERSE"
    },
    {
     "enum_field_value" : 12,
     "name" : "VK_LOGIC_OP_COPY_INVERTED"
    },
    {
     "enum_field_value" : 13,
     "name" : "VK_LOGIC_OP_OR_INVERTED"
    },
    {
     "enum_field_value" : 14,
     "name" : "VK_LOGIC_OP_NAND"
    },
    {
     "enum_field_value" : 15,
     "name" : "VK_LOGIC_OP_SET"
    },
    {
     "enum_field_value" : 0,
     "name" : "VK_LOGIC_OP_BEGIN_RANGE"
    },
    {
     "enum_field_value" : 15,
     "name" : "VK_LOGIC_OP_END_RANGE"
    },
    {
     "enum_field_value" : 16,
     "name" : "VK_LOGIC_OP_RANGE_SIZE"
    },
    {
     "enum_field_value" : 2147483647,
     "name" : "VK_LOGIC_OP_MAX_ENUM"
    }
   ],
   "linker_set_key" : "_ZTI9VkLogicOp",
   "name" : "VkLogicOp",
   "referenced_type" : "_ZTI9VkLogicOp",
   "self_type" : "_ZTI9VkLogicOp",
   "size" : 4,
   "source_file" : "/external/vulkan-headers/include/vulkan/vulkan_core.h",
   "underlying_type" : "_ZTIj"
  },
  {
   "alignment" : 4,
   "enum_fields" :
   [
    {
     "enum_field_value" : 1,
     "name" : "VK_SCOPE_DEVICE_NV"
    },
    {
     "enum_field_value" : 2,
     "name" : "VK_SCOPE_WORKGROUP_NV"
    },
    {
     "enum_field_value" : 3,
     "name" : "VK_SCOPE_SUBGROUP_NV"
    },
    {
     "enum_field_value" : 5,
     "name" : "VK_SCOPE_QUEUE_FAMILY_NV"
    },
    {
     "enum_field_value" : 1,
     "name" : "VK_SCOPE_BEGIN_RANGE_NV"
    },
    {
     "enum_field_value" : 5,
     "name" : "VK_SCOPE_END_RANGE_NV"
    },
    {
     "enum_field_value" : 5,
     "name" : "VK_SCOPE_RANGE_SIZE_NV"
    },
    {
     "enum_field_value" : 2147483647,
     "name" : "VK_SCOPE_MAX_ENUM_NV"
    }
   ],
   "linker_set_key" : "_ZTI9VkScopeNV",
   "name" : "VkScopeNV",
   "referenced_type" : "_ZTI9VkScopeNV",
   "self_type" : "_ZTI9VkScopeNV",
   "size" : 4,
   "source_file" : "/external/vulkan-headers/include/vulkan/vulkan_core.h",
   "underlying_type" : "_ZTIj"
  }
 ],
 "function_types" :
 [
  {
   "alignment" : 4,
   "linker_set_key" : "_ZTIFPvS_S_jj23VkSystemAllocationScopeE",
   "name" : "void *(void *, void *, unsigned int, unsigned int, VkSystemAllocationScope) __attribute__((pcs(\"aapcs-vfp\")))",
   "parameters" :
   [
    {
     "referenced_type" : "_ZTIPv"
    },
    {
     "referenced_type" : "_ZTIPv"
    },
    {
     "referenced_type" : "_ZTIj"
    },
    {
     "referenced_type" : "_ZTIj"
    },
    {
     "referenced_type" : "_ZTI23VkSystemAllocationScope"
    }
   ],
   "referenced_type" : "_ZTIFPvS_S_jj23VkSystemAllocationScopeE",
   "return_type" : "_ZTIPv",
   "self_type" : "_ZTIFPvS_S_jj23VkSystemAllocationScopeE",
   "source_file" : "/external/vulkan-headers/include/vulkan/vulkan_core.h"
  },
  {
   "alignment" : 4,
   "linker_set_key" : "_ZTIFPvS_jj23VkSystemAllocationScopeE",
   "name" : "void *(void *, unsigned int, unsigned int, VkSystemAllocationScope) __attribute__((pcs(\"aapcs-vfp\")))",
   "parameters" :
   [
    {
     "referenced_type" : "_ZTIPv"
    },
    {
     "referenced_type" : "_ZTIj"
    },
    {
     "referenced_type" : "_ZTIj"
    },
    {
     "referenced_type" : "_ZTI23VkSystemAllocationScope"
    }
   ],
   "referenced_type" : "_ZTIFPvS_jj23VkSystemAllocationScopeE",
   "return_type" : "_ZTIPv",
   "self_type" : "_ZTIFPvS_jj23VkSystemAllocationScopeE",
   "source_file" : "/external/vulkan-headers/include/vulkan/vulkan_core.h"
  },
  {
   "alignment" : 4,
   "linker_set_key" : "_ZTIFj38VkDebugUtilsMessageSeverityFlagBitsEXTjPK36VkDebugUtilsMessengerCallbackDataEXTPvE",
   "name" : "unsigned int (VkDebugUtilsMessageSeverityFlagBitsEXT, unsigned int, const VkDebugUtilsMessengerCallbackDataEXT *, void *) __attribute__((pcs(\"aapcs-vfp\")))",
   "parameters" :
   [
    {
     "referenced_type" : "_ZTI38VkDebugUtilsMessageSeverityFlagBitsEXT"
    },
    {
     "referenced_type" : "_ZTIj"
    },
    {
     "referenced_type" : "_ZTIPK36VkDebugUtilsMessengerCallbackDataEXT"
    },
    {
     "referenced_type" : "_ZTIPv"
    }
   ],
   "referenced_type" : "_ZTIFj38VkDebugUtilsMessageSeverityFlagBitsEXTjPK36VkDebugUtilsMessengerCallbackDataEXTPvE",
   "return_type" : "_ZTIj",
   "self_type" : "_ZTIFj38VkDebugUtilsMessageSeverityFlagBitsEXTjPK36VkDebugUtilsMessengerCallbackDataEXTPvE",
   "source_file" : "/external/vulkan-headers/include/vulkan/vulkan_core.h"
  },
  {
   "alignment" : 4,
   "linker_set_key" : "_ZTIFjj26VkDebugReportObjectTypeEXTyjiPKcS1_PvE",
   "name" : "unsigned int (unsigned int, VkDebugReportObjectTypeEXT, unsigned long long, unsigned int, int, const char *, const char *, void *) __attribute__((pcs(\"aapcs-vfp\")))",
   "parameters" :
   [
    {
     "referenced_type" : "_ZTIj"
    },
    {
     "referenced_type" : "_ZTI26VkDebugReportObjectTypeEXT"
    },
    {
     "referenced_type" : "_ZTIy"
    },
    {
     "referenced_type" : "_ZTIj"
    },
    {
     "referenced_type" : "_ZTIi"
    },
    {
     "referenced_type" : "_ZTIPKc"
    },
    {
     "referenced_type" : "_ZTIPKc"
    },
    {
     "referenced_type" : "_ZTIPv"
    }
   ],
   "referenced_type" : "_ZTIFjj26VkDebugReportObjectTypeEXTyjiPKcS1_PvE",
   "return_type" : "_ZTIj",
   "self_type" : "_ZTIFjj26VkDebugReportObjectTypeEXTyjiPKcS1_PvE",
   "source_file" : "/external/vulkan-headers/include/vulkan/vulkan_core.h"
  },
  {
   "alignment" : 4,
   "linker_set_key" : "_ZTIFvPvS_E",
   "name" : "void (void *, void *) __attribute__((pcs(\"aapcs-vfp\")))",
   "parameters" :
   [
    {
     "referenced_type" : "_ZTIPv"
    },
    {
     "referenced_type" : "_ZTIPv"
    }
   ],
   "referenced_type" : "_ZTIFvPvS_E",
   "return_type" : "_ZTIv",
   "self_type" : "_ZTIFvPvS_E",
   "source_file" : "/external/vulkan-headers/include/vulkan/vulkan_core.h"
  },
  {
   "alignment" : 4,
   "linker_set_key" : "_ZTIFvPvj24VkInternalAllocationType23VkSystemAllocationScopeE",
   "name" : "void (void *, unsigned int, VkInternalAllocationType, VkSystemAllocationScope) __attribute__((pcs(\"aapcs-vfp\")))",
   "parameters" :
   [
    {
     "referenced_type" : "_ZTIPv"
    },
    {
     "referenced_type" : "_ZTIj"
    },
    {
     "referenced_type" : "_ZTI24VkInternalAllocationType"
    },
    {
     "referenced_type" : "_ZTI23VkSystemAllocationScope"
    }
   ],
   "referenced_type" : "_ZTIFvPvj24VkInternalAllocationType23VkSystemAllocationScopeE",
   "return_type" : "_ZTIv",
   "self_type" : "_ZTIFvPvj24VkInternalAllocationType23VkSystemAllocationScopeE",
   "source_file" : "/external/vulkan-headers/include/vulkan/vulkan_core.h"
  },
  {
   "alignment" : 4,
   "linker_set_key" : "_ZTIFvvE",
   "name" : "void () __attribute__((pcs(\"aapcs-vfp\")))",
   "referenced_type" : "_ZTIFvvE",
   "return_type" : "_ZTIv",
   "self_type" : "_ZTIFvvE",
   "source_file" : "/external/vulkan-headers/include/vulkan/vulkan_core.h"
  }
 ],
 "functions" :
 [
  {
   "function_name" : "vkAcquireNextImage2KHR",
   "linker_set_key" : "vkAcquireNextImage2KHR",
   "parameters" :
   [
    {
     "referenced_type" : "_ZTIP10VkDevice_T"
    },
    {
     "referenced_type" : "_ZTIPK25VkAcquireNextImageInfoKHR"
    },
    {
     "referenced_type" : "_ZTIPj"
    }
   ],
   "return_type" : "_ZTI8VkResult",
   "source_file" : "/external/vulkan-headers/include/vulkan/vulkan_core.h"
  },
  {
   "function_name" : "vkAcquireNextImageKHR",
   "linker_set_key" : "vkAcquireNextImageKHR",
   "parameters" :
   [
    {
     "referenced_type" : "_ZTIP10VkDevice_T"
    },
    {
     "referenced_type" : "_ZTIy"
    },
    {
     "referenced_type" : "_ZTIy"
    },
    {
     "referenced_type" : "_ZTIy"
    },
    {
     "referenced_type" : "_ZTIy"
    },
    {
     "referenced_type" : "_ZTIPj"
    }
   ],
   "return_type" : "_ZTI8VkResult",
   "source_file" : "/external/vulkan-headers/include/vulkan/vulkan_core.h"
  },
  {
   "function_name" : "vkAllocateCommandBuffers",
   "linker_set_key" : "vkAllocateCommandBuffers",
   "parameters" :
   [
    {
     "referenced_type" : "_ZTIP10VkDevice_T"
    },
    {
     "referenced_type" : "_ZTIPK27VkCommandBufferAllocateInfo"
    },
    {
     "referenced_type" : "_ZTIPP17VkCommandBuffer_T"
    }
   ],
   "return_type" : "_ZTI8VkResult",
   "source_file" : "/external/vulkan-headers/include/vulkan/vulkan_core.h"
  },
  {
   "function_name" : "vkAllocateDescriptorSets",
   "linker_set_key" : "vkAllocateDescriptorSets",
   "parameters" :
   [
    {
     "referenced_type" : "_ZTIP10VkDevice_T"
    },
    {
     "referenced_type" : "_ZTIPK27VkDescriptorSetAllocateInfo"
    },
    {
     "referenced_type" : "_ZTIPy"
    }
   ],
   "return_type" : "_ZTI8VkResult",
   "source_file" : "/external/vulkan-headers/include/vulkan/vulkan_core.h"
  },
  {
   "function_name" : "vkAllocateMemory",
   "linker_set_key" : "vkAllocateMemory",
   "parameters" :
   [
    {
     "referenced_type" : "_ZTIP10VkDevice_T"
    },
    {
     "referenced_type" : "_ZTIPK20VkMemoryAllocateInfo"
    },
    {
     "referenced_type" : "_ZTIPK21VkAllocationCallbacks"
    },
    {
     "referenced_type" : "_ZTIPy"
    }
   ],
   "return_type" : "_ZTI8VkResult",
   "source_file" : "/external/vulkan-headers/include/vulkan/vulkan_core.h"
  },
  {
   "function_name" : "vkBeginCommandBuffer",
   "linker_set_key" : "vkBeginCommandBuffer",
   "parameters" :
   [
    {
     "referenced_type" : "_ZTIP17VkCommandBuffer_T"
    },
    {
     "referenced_type" : "_ZTIPK24VkCommandBufferBeginInfo"
    }
   ],
   "return_type" : "_ZTI8VkResult",
   "source_file" : "/external/vulkan-headers/include/vulkan/vulkan_core.h"
  },
  {
   "function_name" : "vkBindBufferMemory",
   "linker_set_key" : "vkBindBufferMemory",
   "parameters" :
   [
    {
     "referenced_type" : "_ZTIP10VkDevice_T"
    },
    {
     "referenced_type" : "_ZTIy"
    },
    {
     "referenced_type" : "_ZTIy"
    },
    {
     "referenced_type" : "_ZTIy"
    }
   ],
   "return_type" : "_ZTI8VkResult",
   "source_file" : "/external/vulkan-headers/include/vulkan/vulkan_core.h"
  },
  {
   "function_name" : "vkBindBufferMemory2",
   "linker_set_key" : "vkBindBufferMemory2",
   "parameters" :
   [
    {
     "referenced_type" : "_ZTIP10VkDevice_T"
    },
    {
     "referenced_type" : "_ZTIj"
    },
    {
     "referenced_type" : "_ZTIPK22VkBindBufferMemoryInfo"
    }
   ],
   "return_type" : "_ZTI8VkResult",
   "source_file" : "/external/vulkan-headers/include/vulkan/vulkan_core.h"
  },
  {
   "function_name" : "vkBindImageMemory",
   "linker_set_key" : "vkBindImageMemory",
   "parameters" :
   [
    {
     "referenced_type" : "_ZTIP10VkDevice_T"
    },
    {
     "referenced_type" : "_ZTIy"
    },
    {
     "referenced_type" : "_ZTIy"
    },
    {
     "referenced_type" : "_ZTIy"
    }
   ],
   "return_type" : "_ZTI8VkResult",
   "source_file" : "/external/vulkan-headers/include/vulkan/vulkan_core.h"
  },
  {
   "function_name" : "vkBindImageMemory2",
   "linker_set_key" : "vkBindImageMemory2",
   "parameters" :
   [
    {
     "referenced_type" : "_ZTIP10VkDevice_T"
    },
    {
     "referenced_type" : "_ZTIj"
    },
    {
     "referenced_type" : "_ZTIPK21VkBindImageMemoryInfo"
    }
   ],
   "return_type" : "_ZTI8VkResult",
   "source_file" : "/external/vulkan-headers/include/vulkan/vulkan_core.h"
  },
  {
   "function_name" : "vkCmdBeginQuery",
   "linker_set_key" : "vkCmdBeginQuery",
   "parameters" :
   [
    {
     "referenced_type" : "_ZTIP17VkCommandBuffer_T"
    },
    {
     "referenced_type" : "_ZTIy"
    },
    {
     "referenced_type" : "_ZTIj"
    },
    {
     "referenced_type" : "_ZTIj"
    }
   ],
   "return_type" : "_ZTIv",
   "source_file" : "/external/vulkan-headers/include/vulkan/vulkan_core.h"
  },
  {
   "function_name" : "vkCmdBeginRenderPass",
   "linker_set_key" : "vkCmdBeginRenderPass",
   "parameters" :
   [
    {
     "referenced_type" : "_ZTIP17VkCommandBuffer_T"
    },
    {
     "referenced_type" : "_ZTIPK21VkRenderPassBeginInfo"
    },
    {
     "referenced_type" : "_ZTI17VkSubpassContents"
    }
   ],
   "return_type" : "_ZTIv",
   "source_file" : "/external/vulkan-headers/include/vulkan/vulkan_core.h"
  },
  {
   "function_name" : "vkCmdBindDescriptorSets",
   "linker_set_key" : "vkCmdBindDescriptorSets",
   "parameters" :
   [
    {
     "referenced_type" : "_ZTIP17VkCommandBuffer_T"
    },
    {
     "referenced_type" : "_ZTI19VkPipelineBindPoint"
    },
    {
     "referenced_type" : "_ZTIy"
    },
    {
     "referenced_type" : "_ZTIj"
    },
    {
     "referenced_type" : "_ZTIj"
    },
    {
     "referenced_type" : "_ZTIPKy"
    },
    {
     "referenced_type" : "_ZTIj"
    },
    {
     "referenced_type" : "_ZTIPKj"
    }
   ],
   "return_type" : "_ZTIv",
   "source_file" : "/external/vulkan-headers/include/vulkan/vulkan_core.h"
  },
  {
   "function_name" : "vkCmdBindIndexBuffer",
   "linker_set_key" : "vkCmdBindIndexBuffer",
   "parameters" :
   [
    {
     "referenced_type" : "_ZTIP17VkCommandBuffer_T"
    },
    {
     "referenced_type" : "_ZTIy"
    },
    {
     "referenced_type" : "_ZTIy"
    },
    {
     "referenced_type" : "_ZTI11VkIndexType"
    }
   ],
   "return_type" : "_ZTIv",
   "source_file" : "/external/vulkan-headers/include/vulkan/vulkan_core.h"
  },
  {
   "function_name" : "vkCmdBindPipeline",
   "linker_set_key" : "vkCmdBindPipeline",
   "parameters" :
   [
    {
     "referenced_type" : "_ZTIP17VkCommandBuffer_T"
    },
    {
     "referenced_type" : "_ZTI19VkPipelineBindPoint"
    },
    {
     "referenced_type" : "_ZTIy"
    }
   ],
   "return_type" : "_ZTIv",
   "source_file" : "/external/vulkan-headers/include/vulkan/vulkan_core.h"
  },
  {
   "function_name" : "vkCmdBindVertexBuffers",
   "linker_set_key" : "vkCmdBindVertexBuffers",
   "parameters" :
   [
    {
     "referenced_type" : "_ZTIP17VkCommandBuffer_T"
    },
    {
     "referenced_type" : "_ZTIj"
    },
    {
     "referenced_type" : "_ZTIj"
    },
    {
     "referenced_type" : "_ZTIPKy"
    },
    {
     "referenced_type" : "_ZTIPKy"
    }
   ],
   "return_type" : "_ZTIv",
   "source_file" : "/external/vulkan-headers/include/vulkan/vulkan_core.h"
  },
  {
   "function_name" : "vkCmdBlitImage",
   "linker_set_key" : "vkCmdBlitImage",
   "parameters" :
   [
    {
     "referenced_type" : "_ZTIP17VkCommandBuffer_T"
    },
    {
     "referenced_type" : "_ZTIy"
    },
    {
     "referenced_type" : "_ZTI13VkImageLayout"
    },
    {
     "referenced_type" : "_ZTIy"
    },
    {
     "referenced_type" : "_ZTI13VkImageLayout"
    },
    {
     "referenced_type" : "_ZTIj"
    },
    {
     "referenced_type" : "_ZTIPK11VkImageBlit"
    },
    {
     "referenced_type" : "_ZTI8VkFilter"
    }
   ],
   "return_type" : "_ZTIv",
   "source_file" : "/external/vulkan-headers/include/vulkan/vulkan_core.h"
  },
  {
   "function_name" : "vkCmdClearAttachments",
   "linker_set_key" : "vkCmdClearAttachments",
   "parameters" :
   [
    {
     "referenced_type" : "_ZTIP17VkCommandBuffer_T"
    },
    {
     "referenced_type" : "_ZTIj"
    },
    {
     "referenced_type" : "_ZTIPK17VkClearAttachment"
    },
    {
     "referenced_type" : "_ZTIj"
    },
    {
     "referenced_type" : "_ZTIPK11VkClearRect"
    }
   ],
   "return_type" : "_ZTIv",
   "source_file" : "/external/vulkan-headers/include/vulkan/vulkan_core.h"
  },
  {
   "function_name" : "vkCmdClearColorImage",
   "linker_set_key" : "vkCmdClearColorImage",
   "parameters" :
   [
    {
     "referenced_type" : "_ZTIP17VkCommandBuffer_T"
    },
    {
     "referenced_type" : "_ZTIy"
    },
    {
     "referenced_type" : "_ZTI13VkImageLayout"
    },
    {
     "referenced_type" : "_ZTIPK17VkClearColorValue"
    },
    {
     "referenced_type" : "_ZTIj"
    },
    {
     "referenced_type" : "_ZTIPK23VkImageSubresourceRange"
    }
   ],
   "return_type" : "_ZTIv",
   "source_file" : "/external/vulkan-headers/include/vulkan/vulkan_core.h"
  },
  {
   "function_name" : "vkCmdClearDepthStencilImage",
   "linker_set_key" : "vkCmdClearDepthStencilImage",
   "parameters" :
   [
    {
     "referenced_type" : "_ZTIP17VkCommandBuffer_T"
    },
    {
     "referenced_type" : "_ZTIy"
    },
    {
     "referenced_type" : "_ZTI13VkImageLayout"
    },
    {
     "referenced_type" : "_ZTIPK24VkClearDepthStencilValue"
    },
    {
     "referenced_type" : "_ZTIj"
    },
    {
     "referenced_type" : "_ZTIPK23VkImageSubresourceRange"
    }
   ],
   "return_type" : "_ZTIv",
   "source_file" : "/external/vulkan-headers/include/vulkan/vulkan_core.h"
  },
  {
   "function_name" : "vkCmdCopyBuffer",
   "linker_set_key" : "vkCmdCopyBuffer",
   "parameters" :
   [
    {
     "referenced_type" : "_ZTIP17VkCommandBuffer_T"
    },
    {
     "referenced_type" : "_ZTIy"
    },
    {
     "referenced_type" : "_ZTIy"
    },
    {
     "referenced_type" : "_ZTIj"
    },
    {
     "referenced_type" : "_ZTIPK12VkBufferCopy"
    }
   ],
   "return_type" : "_ZTIv",
   "source_file" : "/external/vulkan-headers/include/vulkan/vulkan_core.h"
  },
  {
   "function_name" : "vkCmdCopyBufferToImage",
   "linker_set_key" : "vkCmdCopyBufferToImage",
   "parameters" :
   [
    {
     "referenced_type" : "_ZTIP17VkCommandBuffer_T"
    },
    {
     "referenced_type" : "_ZTIy"
    },
    {
     "referenced_type" : "_ZTIy"
    },
    {
     "referenced_type" : "_ZTI13VkImageLayout"
    },
    {
     "referenced_type" : "_ZTIj"
    },
    {
     "referenced_type" : "_ZTIPK17VkBufferImageCopy"
    }
   ],
   "return_type" : "_ZTIv",
   "source_file" : "/external/vulkan-headers/include/vulkan/vulkan_core.h"
  },
  {
   "function_name" : "vkCmdCopyImage",
   "linker_set_key" : "vkCmdCopyImage",
   "parameters" :
   [
    {
     "referenced_type" : "_ZTIP17VkCommandBuffer_T"
    },
    {
     "referenced_type" : "_ZTIy"
    },
    {
     "referenced_type" : "_ZTI13VkImageLayout"
    },
    {
     "referenced_type" : "_ZTIy"
    },
    {
     "referenced_type" : "_ZTI13VkImageLayout"
    },
    {
     "referenced_type" : "_ZTIj"
    },
    {
     "referenced_type" : "_ZTIPK11VkImageCopy"
    }
   ],
   "return_type" : "_ZTIv",
   "source_file" : "/external/vulkan-headers/include/vulkan/vulkan_core.h"
  },
  {
   "function_name" : "vkCmdCopyImageToBuffer",
   "linker_set_key" : "vkCmdCopyImageToBuffer",
   "parameters" :
   [
    {
     "referenced_type" : "_ZTIP17VkCommandBuffer_T"
    },
    {
     "referenced_type" : "_ZTIy"
    },
    {
     "referenced_type" : "_ZTI13VkImageLayout"
    },
    {
     "referenced_type" : "_ZTIy"
    },
    {
     "referenced_type" : "_ZTIj"
    },
    {
     "referenced_type" : "_ZTIPK17VkBufferImageCopy"
    }
   ],
   "return_type" : "_ZTIv",
   "source_file" : "/external/vulkan-headers/include/vulkan/vulkan_core.h"
  },
  {
   "function_name" : "vkCmdCopyQueryPoolResults",
   "linker_set_key" : "vkCmdCopyQueryPoolResults",
   "parameters" :
   [
    {
     "referenced_type" : "_ZTIP17VkCommandBuffer_T"
    },
    {
     "referenced_type" : "_ZTIy"
    },
    {
     "referenced_type" : "_ZTIj"
    },
    {
     "referenced_type" : "_ZTIj"
    },
    {
     "referenced_type" : "_ZTIy"
    },
    {
     "referenced_type" : "_ZTIy"
    },
    {
     "referenced_type" : "_ZTIy"
    },
    {
     "referenced_type" : "_ZTIj"
    }
   ],
   "return_type" : "_ZTIv",
   "source_file" : "/external/vulkan-headers/include/vulkan/vulkan_core.h"
  },
  {
   "function_name" : "vkCmdDispatch",
   "linker_set_key" : "vkCmdDispatch",
   "parameters" :
   [
    {
     "referenced_type" : "_ZTIP17VkCommandBuffer_T"
    },
    {
     "referenced_type" : "_ZTIj"
    },
    {
     "referenced_type" : "_ZTIj"
    },
    {
     "referenced_type" : "_ZTIj"
    }
   ],
   "return_type" : "_ZTIv",
   "source_file" : "/external/vulkan-headers/include/vulkan/vulkan_core.h"
  },
  {
   "function_name" : "vkCmdDispatchBase",
   "linker_set_key" : "vkCmdDispatchBase",
   "parameters" :
   [
    {
     "referenced_type" : "_ZTIP17VkCommandBuffer_T"
    },
    {
     "referenced_type" : "_ZTIj"
    },
    {
     "referenced_type" : "_ZTIj"
    },
    {
     "referenced_type" : "_ZTIj"
    },
    {
     "referenced_type" : "_ZTIj"
    },
    {
     "referenced_type" : "_ZTIj"
    },
    {
     "referenced_type" : "_ZTIj"
    }
   ],
   "return_type" : "_ZTIv",
   "source_file" : "/external/vulkan-headers/include/vulkan/vulkan_core.h"
  },
  {
   "function_name" : "vkCmdDispatchIndirect",
   "linker_set_key" : "vkCmdDispatchIndirect",
   "parameters" :
   [
    {
     "referenced_type" : "_ZTIP17VkCommandBuffer_T"
    },
    {
     "referenced_type" : "_ZTIy"
    },
    {
     "referenced_type" : "_ZTIy"
    }
   ],
   "return_type" : "_ZTIv",
   "source_file" : "/external/vulkan-headers/include/vulkan/vulkan_core.h"
  },
  {
   "function_name" : "vkCmdDraw",
   "linker_set_key" : "vkCmdDraw",
   "parameters" :
   [
    {
     "referenced_type" : "_ZTIP17VkCommandBuffer_T"
    },
    {
     "referenced_type" : "_ZTIj"
    },
    {
     "referenced_type" : "_ZTIj"
    },
    {
     "referenced_type" : "_ZTIj"
    },
    {
     "referenced_type" : "_ZTIj"
    }
   ],
   "return_type" : "_ZTIv",
   "source_file" : "/external/vulkan-headers/include/vulkan/vulkan_core.h"
  },
  {
   "function_name" : "vkCmdDrawIndexed",
   "linker_set_key" : "vkCmdDrawIndexed",
   "parameters" :
   [
    {
     "referenced_type" : "_ZTIP17VkCommandBuffer_T"
    },
    {
     "referenced_type" : "_ZTIj"
    },
    {
     "referenced_type" : "_ZTIj"
    },
    {
     "referenced_type" : "_ZTIj"
    },
    {
     "referenced_type" : "_ZTIi"
    },
    {
     "referenced_type" : "_ZTIj"
    }
   ],
   "return_type" : "_ZTIv",
   "source_file" : "/external/vulkan-headers/include/vulkan/vulkan_core.h"
  },
  {
   "function_name" : "vkCmdDrawIndexedIndirect",
   "linker_set_key" : "vkCmdDrawIndexedIndirect",
   "parameters" :
   [
    {
     "referenced_type" : "_ZTIP17VkCommandBuffer_T"
    },
    {
     "referenced_type" : "_ZTIy"
    },
    {
     "referenced_type" : "_ZTIy"
    },
    {
     "referenced_type" : "_ZTIj"
    },
    {
     "referenced_type" : "_ZTIj"
    }
   ],
   "return_type" : "_ZTIv",
   "source_file" : "/external/vulkan-headers/include/vulkan/vulkan_core.h"
  },
  {
   "function_name" : "vkCmdDrawIndirect",
   "linker_set_key" : "vkCmdDrawIndirect",
   "parameters" :
   [
    {
     "referenced_type" : "_ZTIP17VkCommandBuffer_T"
    },
    {
     "referenced_type" : "_ZTIy"
    },
    {
     "referenced_type" : "_ZTIy"
    },
    {
     "referenced_type" : "_ZTIj"
    },
    {
     "referenced_type" : "_ZTIj"
    }
   ],
   "return_type" : "_ZTIv",
   "source_file" : "/external/vulkan-headers/include/vulkan/vulkan_core.h"
  },
  {
   "function_name" : "vkCmdEndQuery",
   "linker_set_key" : "vkCmdEndQuery",
   "parameters" :
   [
    {
     "referenced_type" : "_ZTIP17VkCommandBuffer_T"
    },
    {
     "referenced_type" : "_ZTIy"
    },
    {
     "referenced_type" : "_ZTIj"
    }
   ],
   "return_type" : "_ZTIv",
   "source_file" : "/external/vulkan-headers/include/vulkan/vulkan_core.h"
  },
  {
   "function_name" : "vkCmdEndRenderPass",
   "linker_set_key" : "vkCmdEndRenderPass",
   "parameters" :
   [
    {
     "referenced_type" : "_ZTIP17VkCommandBuffer_T"
    }
   ],
   "return_type" : "_ZTIv",
   "source_file" : "/external/vulkan-headers/include/vulkan/vulkan_core.h"
  },
  {
   "function_name" : "vkCmdExecuteCommands",
   "linker_set_key" : "vkCmdExecuteCommands",
   "parameters" :
   [
    {
     "referenced_type" : "_ZTIP17VkCommandBuffer_T"
    },
    {
     "referenced_type" : "_ZTIj"
    },
    {
     "referenced_type" : "_ZTIPKP17VkCommandBuffer_T"
    }
   ],
   "return_type" : "_ZTIv",
   "source_file" : "/external/vulkan-headers/include/vulkan/vulkan_core.h"
  },
  {
   "function_name" : "vkCmdFillBuffer",
   "linker_set_key" : "vkCmdFillBuffer",
   "parameters" :
   [
    {
     "referenced_type" : "_ZTIP17VkCommandBuffer_T"
    },
    {
     "referenced_type" : "_ZTIy"
    },
    {
     "referenced_type" : "_ZTIy"
    },
    {
     "referenced_type" : "_ZTIy"
    },
    {
     "referenced_type" : "_ZTIj"
    }
   ],
   "return_type" : "_ZTIv",
   "source_file" : "/external/vulkan-headers/include/vulkan/vulkan_core.h"
  },
  {
   "function_name" : "vkCmdNextSubpass",
   "linker_set_key" : "vkCmdNextSubpass",
   "parameters" :
   [
    {
     "referenced_type" : "_ZTIP17VkCommandBuffer_T"
    },
    {
     "referenced_type" : "_ZTI17VkSubpassContents"
    }
   ],
   "return_type" : "_ZTIv",
   "source_file" : "/external/vulkan-headers/include/vulkan/vulkan_core.h"
  },
  {
   "function_name" : "vkCmdPipelineBarrier",
   "linker_set_key" : "vkCmdPipelineBarrier",
   "parameters" :
   [
    {
     "referenced_type" : "_ZTIP17VkCommandBuffer_T"
    },
    {
     "referenced_type" : "_ZTIj"
    },
    {
     "referenced_type" : "_ZTIj"
    },
    {
     "referenced_type" : "_ZTIj"
    },
    {
     "referenced_type" : "_ZTIj"
    },
    {
     "referenced_type" : "_ZTIPK15VkMemoryBarrier"
    },
    {
     "referenced_type" : "_ZTIj"
    },
    {
     "referenced_type" : "_ZTIPK21VkBufferMemoryBarrier"
    },
    {
     "referenced_type" : "_ZTIj"
    },
    {
     "referenced_type" : "_ZTIPK20VkImageMemoryBarrier"
    }
   ],
   "return_type" : "_ZTIv",
   "source_file" : "/external/vulkan-headers/include/vulkan/vulkan_core.h"
  },
  {
   "function_name" : "vkCmdPushConstants",
   "linker_set_key" : "vkCmdPushConstants",
   "parameters" :
   [
    {
     "referenced_type" : "_ZTIP17VkCommandBuffer_T"
    },
    {
     "referenced_type" : "_ZTIy"
    },
    {
     "referenced_type" : "_ZTIj"
    },
    {
     "referenced_type" : "_ZTIj"
    },
    {
     "referenced_type" : "_ZTIj"
    },
    {
     "referenced_type" : "_ZTIPKv"
    }
   ],
   "return_type" : "_ZTIv",
   "source_file" : "/external/vulkan-headers/include/vulkan/vulkan_core.h"
  },
  {
   "function_name" : "vkCmdResetEvent",
   "linker_set_key" : "vkCmdResetEvent",
   "parameters" :
   [
    {
     "referenced_type" : "_ZTIP17VkCommandBuffer_T"
    },
    {
     "referenced_type" : "_ZTIy"
    },
    {
     "referenced_type" : "_ZTIj"
    }
   ],
   "return_type" : "_ZTIv",
   "source_file" : "/external/vulkan-headers/include/vulkan/vulkan_core.h"
  },
  {
   "function_name" : "vkCmdResetQueryPool",
   "linker_set_key" : "vkCmdResetQueryPool",
   "parameters" :
   [
    {
     "referenced_type" : "_ZTIP17VkCommandBuffer_T"
    },
    {
     "referenced_type" : "_ZTIy"
    },
    {
     "referenced_type" : "_ZTIj"
    },
    {
     "referenced_type" : "_ZTIj"
    }
   ],
   "return_type" : "_ZTIv",
   "source_file" : "/external/vulkan-headers/include/vulkan/vulkan_core.h"
  },
  {
   "function_name" : "vkCmdResolveImage",
   "linker_set_key" : "vkCmdResolveImage",
   "parameters" :
   [
    {
     "referenced_type" : "_ZTIP17VkCommandBuffer_T"
    },
    {
     "referenced_type" : "_ZTIy"
    },
    {
     "referenced_type" : "_ZTI13VkImageLayout"
    },
    {
     "referenced_type" : "_ZTIy"
    },
    {
     "referenced_type" : "_ZTI13VkImageLayout"
    },
    {
     "referenced_type" : "_ZTIj"
    },
    {
     "referenced_type" : "_ZTIPK14VkImageResolve"
    }
   ],
   "return_type" : "_ZTIv",
   "source_file" : "/external/vulkan-headers/include/vulkan/vulkan_core.h"
  },
  {
   "function_name" : "vkCmdSetBlendConstants",
   "linker_set_key" : "vkCmdSetBlendConstants",
   "parameters" :
   [
    {
     "referenced_type" : "_ZTIP17VkCommandBuffer_T"
    },
    {
     "referenced_type" : "_ZTIPKf"
    }
   ],
   "return_type" : "_ZTIv",
   "source_file" : "/external/vulkan-headers/include/vulkan/vulkan_core.h"
  },
  {
   "function_name" : "vkCmdSetDepthBias",
   "linker_set_key" : "vkCmdSetDepthBias",
   "parameters" :
   [
    {
     "referenced_type" : "_ZTIP17VkCommandBuffer_T"
    },
    {
     "referenced_type" : "_ZTIf"
    },
    {
     "referenced_type" : "_ZTIf"
    },
    {
     "referenced_type" : "_ZTIf"
    }
   ],
   "return_type" : "_ZTIv",
   "source_file" : "/external/vulkan-headers/include/vulkan/vulkan_core.h"
  },
  {
   "function_name" : "vkCmdSetDepthBounds",
   "linker_set_key" : "vkCmdSetDepthBounds",
   "parameters" :
   [
    {
     "referenced_type" : "_ZTIP17VkCommandBuffer_T"
    },
    {
     "referenced_type" : "_ZTIf"
    },
    {
     "referenced_type" : "_ZTIf"
    }
   ],
   "return_type" : "_ZTIv",
   "source_file" : "/external/vulkan-headers/include/vulkan/vulkan_core.h"
  },
  {
   "function_name" : "vkCmdSetDeviceMask",
   "linker_set_key" : "vkCmdSetDeviceMask",
   "parameters" :
   [
    {
     "referenced_type" : "_ZTIP17VkCommandBuffer_T"
    },
    {
     "referenced_type" : "_ZTIj"
    }
   ],
   "return_type" : "_ZTIv",
   "source_file" : "/external/vulkan-headers/include/vulkan/vulkan_core.h"
  },
  {
   "function_name" : "vkCmdSetEvent",
   "linker_set_key" : "vkCmdSetEvent",
   "parameters" :
   [
    {
     "referenced_type" : "_ZTIP17VkCommandBuffer_T"
    },
    {
     "referenced_type" : "_ZTIy"
    },
    {
     "referenced_type" : "_ZTIj"
    }
   ],
   "return_type" : "_ZTIv",
   "source_file" : "/external/vulkan-headers/include/vulkan/vulkan_core.h"
  },
  {
   "function_name" : "vkCmdSetLineWidth",
   "linker_set_key" : "vkCmdSetLineWidth",
   "parameters" :
   [
    {
     "referenced_type" : "_ZTIP17VkCommandBuffer_T"
    },
    {
     "referenced_type" : "_ZTIf"
    }
   ],
   "return_type" : "_ZTIv",
   "source_file" : "/external/vulkan-headers/include/vulkan/vulkan_core.h"
  },
  {
   "function_name" : "vkCmdSetScissor",
   "linker_set_key" : "vkCmdSetScissor",
   "parameters" :
   [
    {
     "referenced_type" : "_ZTIP17VkCommandBuffer_T"
    },
    {
     "referenced_type" : "_ZTIj"
    },
    {
     "referenced_type" : "_ZTIj"
    },
    {
     "referenced_type" : "_ZTIPK8VkRect2D"
    }
   ],
   "return_type" : "_ZTIv",
   "source_file" : "/external/vulkan-headers/include/vulkan/vulkan_core.h"
  },
  {
   "function_name" : "vkCmdSetStencilCompareMask",
   "linker_set_key" : "vkCmdSetStencilCompareMask",
   "parameters" :
   [
    {
     "referenced_type" : "_ZTIP17VkCommandBuffer_T"
    },
    {
     "referenced_type" : "_ZTIj"
    },
    {
     "referenced_type" : "_ZTIj"
    }
   ],
   "return_type" : "_ZTIv",
   "source_file" : "/external/vulkan-headers/include/vulkan/vulkan_core.h"
  },
  {
   "function_name" : "vkCmdSetStencilReference",
   "linker_set_key" : "vkCmdSetStencilReference",
   "parameters" :
   [
    {
     "referenced_type" : "_ZTIP17VkCommandBuffer_T"
    },
    {
     "referenced_type" : "_ZTIj"
    },
    {
     "referenced_type" : "_ZTIj"
    }
   ],
   "return_type" : "_ZTIv",
   "source_file" : "/external/vulkan-headers/include/vulkan/vulkan_core.h"
  },
  {
   "function_name" : "vkCmdSetStencilWriteMask",
   "linker_set_key" : "vkCmdSetStencilWriteMask",
   "parameters" :
   [
    {
     "referenced_type" : "_ZTIP17VkCommandBuffer_T"
    },
    {
     "referenced_type" : "_ZTIj"
    },
    {
     "referenced_type" : "_ZTIj"
    }
   ],
   "return_type" : "_ZTIv",
   "source_file" : "/external/vulkan-headers/include/vulkan/vulkan_core.h"
  },
  {
   "function_name" : "vkCmdSetViewport",
   "linker_set_key" : "vkCmdSetViewport",
   "parameters" :
   [
    {
     "referenced_type" : "_ZTIP17VkCommandBuffer_T"
    },
    {
     "referenced_type" : "_ZTIj"
    },
    {
     "referenced_type" : "_ZTIj"
    },
    {
     "referenced_type" : "_ZTIPK10VkViewport"
    }
   ],
   "return_type" : "_ZTIv",
   "source_file" : "/external/vulkan-headers/include/vulkan/vulkan_core.h"
  },
  {
   "function_name" : "vkCmdUpdateBuffer",
   "linker_set_key" : "vkCmdUpdateBuffer",
   "parameters" :
   [
    {
     "referenced_type" : "_ZTIP17VkCommandBuffer_T"
    },
    {
     "referenced_type" : "_ZTIy"
    },
    {
     "referenced_type" : "_ZTIy"
    },
    {
     "referenced_type" : "_ZTIy"
    },
    {
     "referenced_type" : "_ZTIPKv"
    }
   ],
   "return_type" : "_ZTIv",
   "source_file" : "/external/vulkan-headers/include/vulkan/vulkan_core.h"
  },
  {
   "function_name" : "vkCmdWaitEvents",
   "linker_set_key" : "vkCmdWaitEvents",
   "parameters" :
   [
    {
     "referenced_type" : "_ZTIP17VkCommandBuffer_T"
    },
    {
     "referenced_type" : "_ZTIj"
    },
    {
     "referenced_type" : "_ZTIPKy"
    },
    {
     "referenced_type" : "_ZTIj"
    },
    {
     "referenced_type" : "_ZTIj"
    },
    {
     "referenced_type" : "_ZTIj"
    },
    {
     "referenced_type" : "_ZTIPK15VkMemoryBarrier"
    },
    {
     "referenced_type" : "_ZTIj"
    },
    {
     "referenced_type" : "_ZTIPK21VkBufferMemoryBarrier"
    },
    {
     "referenced_type" : "_ZTIj"
    },
    {
     "referenced_type" : "_ZTIPK20VkImageMemoryBarrier"
    }
   ],
   "return_type" : "_ZTIv",
   "source_file" : "/external/vulkan-headers/include/vulkan/vulkan_core.h"
  },
  {
   "function_name" : "vkCmdWriteTimestamp",
   "linker_set_key" : "vkCmdWriteTimestamp",
   "parameters" :
   [
    {
     "referenced_type" : "_ZTIP17VkCommandBuffer_T"
    },
    {
     "referenced_type" : "_ZTI23VkPipelineStageFlagBits"
    },
    {
     "referenced_type" : "_ZTIy"
    },
    {
     "referenced_type" : "_ZTIj"
    }
   ],
   "return_type" : "_ZTIv",
   "source_file" : "/external/vulkan-headers/include/vulkan/vulkan_core.h"
  },
  {
   "function_name" : "vkCreateAndroidSurfaceKHR",
   "linker_set_key" : "vkCreateAndroidSurfaceKHR",
   "parameters" :
   [
    {
     "referenced_type" : "_ZTIP12VkInstance_T"
    },
    {
     "referenced_type" : "_ZTIPK29VkAndroidSurfaceCreateInfoKHR"
    },
    {
     "referenced_type" : "_ZTIPK21VkAllocationCallbacks"
    },
    {
     "referenced_type" : "_ZTIPy"
    }
   ],
   "return_type" : "_ZTI8VkResult",
   "source_file" : "/external/vulkan-headers/include/vulkan/vulkan_android.h"
  },
  {
   "function_name" : "vkCreateBuffer",
   "linker_set_key" : "vkCreateBuffer",
   "parameters" :
   [
    {
     "referenced_type" : "_ZTIP10VkDevice_T"
    },
    {
     "referenced_type" : "_ZTIPK18VkBufferCreateInfo"
    },
    {
     "referenced_type" : "_ZTIPK21VkAllocationCallbacks"
    },
    {
     "referenced_type" : "_ZTIPy"
    }
   ],
   "return_type" : "_ZTI8VkResult",
   "source_file" : "/external/vulkan-headers/include/vulkan/vulkan_core.h"
  },
  {
   "function_name" : "vkCreateBufferView",
   "linker_set_key" : "vkCreateBufferView",
   "parameters" :
   [
    {
     "referenced_type" : "_ZTIP10VkDevice_T"
    },
    {
     "referenced_type" : "_ZTIPK22VkBufferViewCreateInfo"
    },
    {
     "referenced_type" : "_ZTIPK21VkAllocationCallbacks"
    },
    {
     "referenced_type" : "_ZTIPy"
    }
   ],
   "return_type" : "_ZTI8VkResult",
   "source_file" : "/external/vulkan-headers/include/vulkan/vulkan_core.h"
  },
  {
   "function_name" : "vkCreateCommandPool",
   "linker_set_key" : "vkCreateCommandPool",
   "parameters" :
   [
    {
     "referenced_type" : "_ZTIP10VkDevice_T"
    },
    {
     "referenced_type" : "_ZTIPK23VkCommandPoolCreateInfo"
    },
    {
     "referenced_type" : "_ZTIPK21VkAllocationCallbacks"
    },
    {
     "referenced_type" : "_ZTIPy"
    }
   ],
   "return_type" : "_ZTI8VkResult",
   "source_file" : "/external/vulkan-headers/include/vulkan/vulkan_core.h"
  },
  {
   "function_name" : "vkCreateComputePipelines",
   "linker_set_key" : "vkCreateComputePipelines",
   "parameters" :
   [
    {
     "referenced_type" : "_ZTIP10VkDevice_T"
    },
    {
     "referenced_type" : "_ZTIy"
    },
    {
     "referenced_type" : "_ZTIj"
    },
    {
     "referenced_type" : "_ZTIPK27VkComputePipelineCreateInfo"
    },
    {
     "referenced_type" : "_ZTIPK21VkAllocationCallbacks"
    },
    {
     "referenced_type" : "_ZTIPy"
    }
   ],
   "return_type" : "_ZTI8VkResult",
   "source_file" : "/external/vulkan-headers/include/vulkan/vulkan_core.h"
  },
  {
   "function_name" : "vkCreateDescriptorPool",
   "linker_set_key" : "vkCreateDescriptorPool",
   "parameters" :
   [
    {
     "referenced_type" : "_ZTIP10VkDevice_T"
    },
    {
     "referenced_type" : "_ZTIPK26VkDescriptorPoolCreateInfo"
    },
    {
     "referenced_type" : "_ZTIPK21VkAllocationCallbacks"
    },
    {
     "referenced_type" : "_ZTIPy"
    }
   ],
   "return_type" : "_ZTI8VkResult",
   "source_file" : "/external/vulkan-headers/include/vulkan/vulkan_core.h"
  },
  {
   "function_name" : "vkCreateDescriptorSetLayout",
   "linker_set_key" : "vkCreateDescriptorSetLayout",
   "parameters" :
   [
    {
     "referenced_type" : "_ZTIP10VkDevice_T"
    },
    {
     "referenced_type" : "_ZTIPK31VkDescriptorSetLayoutCreateInfo"
    },
    {
     "referenced_type" : "_ZTIPK21VkAllocationCallbacks"
    },
    {
     "referenced_type" : "_ZTIPy"
    }
   ],
   "return_type" : "_ZTI8VkResult",
   "source_file" : "/external/vulkan-headers/include/vulkan/vulkan_core.h"
  },
  {
   "function_name" : "vkCreateDescriptorUpdateTemplate",
   "linker_set_key" : "vkCreateDescriptorUpdateTemplate",
   "parameters" :
   [
    {
     "referenced_type" : "_ZTIP10VkDevice_T"
    },
    {
     "referenced_type" : "_ZTIPK36VkDescriptorUpdateTemplateCreateInfo"
    },
    {
     "referenced_type" : "_ZTIPK21VkAllocationCallbacks"
    },
    {
     "referenced_type" : "_ZTIPy"
    }
   ],
   "return_type" : "_ZTI8VkResult",
   "source_file" : "/external/vulkan-headers/include/vulkan/vulkan_core.h"
  },
  {
   "function_name" : "vkCreateDevice",
   "linker_set_key" : "vkCreateDevice",
   "parameters" :
   [
    {
     "referenced_type" : "_ZTIP18VkPhysicalDevice_T"
    },
    {
     "referenced_type" : "_ZTIPK18VkDeviceCreateInfo"
    },
    {
     "referenced_type" : "_ZTIPK21VkAllocationCallbacks"
    },
    {
     "referenced_type" : "_ZTIPP10VkDevice_T"
    }
   ],
   "return_type" : "_ZTI8VkResult",
   "source_file" : "/external/vulkan-headers/include/vulkan/vulkan_core.h"
  },
  {
   "function_name" : "vkCreateEvent",
   "linker_set_key" : "vkCreateEvent",
   "parameters" :
   [
    {
     "referenced_type" : "_ZTIP10VkDevice_T"
    },
    {
     "referenced_type" : "_ZTIPK17VkEventCreateInfo"
    },
    {
     "referenced_type" : "_ZTIPK21VkAllocationCallbacks"
    },
    {
     "referenced_type" : "_ZTIPy"
    }
   ],
   "return_type" : "_ZTI8VkResult",
   "source_file" : "/external/vulkan-headers/include/vulkan/vulkan_core.h"
  },
  {
   "function_name" : "vkCreateFence",
   "linker_set_key" : "vkCreateFence",
   "parameters" :
   [
    {
     "referenced_type" : "_ZTIP10VkDevice_T"
    },
    {
     "referenced_type" : "_ZTIPK17VkFenceCreateInfo"
    },
    {
     "referenced_type" : "_ZTIPK21VkAllocationCallbacks"
    },
    {
     "referenced_type" : "_ZTIPy"
    }
   ],
   "return_type" : "_ZTI8VkResult",
   "source_file" : "/external/vulkan-headers/include/vulkan/vulkan_core.h"
  },
  {
   "function_name" : "vkCreateFramebuffer",
   "linker_set_key" : "vkCreateFramebuffer",
   "parameters" :
   [
    {
     "referenced_type" : "_ZTIP10VkDevice_T"
    },
    {
     "referenced_type" : "_ZTIPK23VkFramebufferCreateInfo"
    },
    {
     "referenced_type" : "_ZTIPK21VkAllocationCallbacks"
    },
    {
     "referenced_type" : "_ZTIPy"
    }
   ],
   "return_type" : "_ZTI8VkResult",
   "source_file" : "/external/vulkan-headers/include/vulkan/vulkan_core.h"
  },
  {
   "function_name" : "vkCreateGraphicsPipelines",
   "linker_set_key" : "vkCreateGraphicsPipelines",
   "parameters" :
   [
    {
     "referenced_type" : "_ZTIP10VkDevice_T"
    },
    {
     "referenced_type" : "_ZTIy"
    },
    {
     "referenced_type" : "_ZTIj"
    },
    {
     "referenced_type" : "_ZTIPK28VkGraphicsPipelineCreateInfo"
    },
    {
     "referenced_type" : "_ZTIPK21VkAllocationCallbacks"
    },
    {
     "referenced_type" : "_ZTIPy"
    }
   ],
   "return_type" : "_ZTI8VkResult",
   "source_file" : "/external/vulkan-headers/include/vulkan/vulkan_core.h"
  },
  {
   "function_name" : "vkCreateImage",
   "linker_set_key" : "vkCreateImage",
   "parameters" :
   [
    {
     "referenced_type" : "_ZTIP10VkDevice_T"
    },
    {
     "referenced_type" : "_ZTIPK17VkImageCreateInfo"
    },
    {
     "referenced_type" : "_ZTIPK21VkAllocationCallbacks"
    },
    {
     "referenced_type" : "_ZTIPy"
    }
   ],
   "return_type" : "_ZTI8VkResult",
   "source_file" : "/external/vulkan-headers/include/vulkan/vulkan_core.h"
  },
  {
   "function_name" : "vkCreateImageView",
   "linker_set_key" : "vkCreateImageView",
   "parameters" :
   [
    {
     "referenced_type" : "_ZTIP10VkDevice_T"
    },
    {
     "referenced_type" : "_ZTIPK21VkImageViewCreateInfo"
    },
    {
     "referenced_type" : "_ZTIPK21VkAllocationCallbacks"
    },
    {
     "referenced_type" : "_ZTIPy"
    }
   ],
   "return_type" : "_ZTI8VkResult",
   "source_file" : "/external/vulkan-headers/include/vulkan/vulkan_core.h"
  },
  {
   "function_name" : "vkCreateInstance",
   "linker_set_key" : "vkCreateInstance",
   "parameters" :
   [
    {
     "referenced_type" : "_ZTIPK20VkInstanceCreateInfo"
    },
    {
     "referenced_type" : "_ZTIPK21VkAllocationCallbacks"
    },
    {
     "referenced_type" : "_ZTIPP12VkInstance_T"
    }
   ],
   "return_type" : "_ZTI8VkResult",
   "source_file" : "/external/vulkan-headers/include/vulkan/vulkan_core.h"
  },
  {
   "function_name" : "vkCreatePipelineCache",
   "linker_set_key" : "vkCreatePipelineCache",
   "parameters" :
   [
    {
     "referenced_type" : "_ZTIP10VkDevice_T"
    },
    {
     "referenced_type" : "_ZTIPK25VkPipelineCacheCreateInfo"
    },
    {
     "referenced_type" : "_ZTIPK21VkAllocationCallbacks"
    },
    {
     "referenced_type" : "_ZTIPy"
    }
   ],
   "return_type" : "_ZTI8VkResult",
   "source_file" : "/external/vulkan-headers/include/vulkan/vulkan_core.h"
  },
  {
   "function_name" : "vkCreatePipelineLayout",
   "linker_set_key" : "vkCreatePipelineLayout",
   "parameters" :
   [
    {
     "referenced_type" : "_ZTIP10VkDevice_T"
    },
    {
     "referenced_type" : "_ZTIPK26VkPipelineLayoutCreateInfo"
    },
    {
     "referenced_type" : "_ZTIPK21VkAllocationCallbacks"
    },
    {
     "referenced_type" : "_ZTIPy"
    }
   ],
   "return_type" : "_ZTI8VkResult",
   "source_file" : "/external/vulkan-headers/include/vulkan/vulkan_core.h"
  },
  {
   "function_name" : "vkCreateQueryPool",
   "linker_set_key" : "vkCreateQueryPool",
   "parameters" :
   [
    {
     "referenced_type" : "_ZTIP10VkDevice_T"
    },
    {
     "referenced_type" : "_ZTIPK21VkQueryPoolCreateInfo"
    },
    {
     "referenced_type" : "_ZTIPK21VkAllocationCallbacks"
    },
    {
     "referenced_type" : "_ZTIPy"
    }
   ],
   "return_type" : "_ZTI8VkResult",
   "source_file" : "/external/vulkan-headers/include/vulkan/vulkan_core.h"
  },
  {
   "function_name" : "vkCreateRenderPass",
   "linker_set_key" : "vkCreateRenderPass",
   "parameters" :
   [
    {
     "referenced_type" : "_ZTIP10VkDevice_T"
    },
    {
     "referenced_type" : "_ZTIPK22VkRenderPassCreateInfo"
    },
    {
     "referenced_type" : "_ZTIPK21VkAllocationCallbacks"
    },
    {
     "referenced_type" : "_ZTIPy"
    }
   ],
   "return_type" : "_ZTI8VkResult",
   "source_file" : "/external/vulkan-headers/include/vulkan/vulkan_core.h"
  },
  {
   "function_name" : "vkCreateSampler",
   "linker_set_key" : "vkCreateSampler",
   "parameters" :
   [
    {
     "referenced_type" : "_ZTIP10VkDevice_T"
    },
    {
     "referenced_type" : "_ZTIPK19VkSamplerCreateInfo"
    },
    {
     "referenced_type" : "_ZTIPK21VkAllocationCallbacks"
    },
    {
     "referenced_type" : "_ZTIPy"
    }
   ],
   "return_type" : "_ZTI8VkResult",
   "source_file" : "/external/vulkan-headers/include/vulkan/vulkan_core.h"
  },
  {
   "function_name" : "vkCreateSamplerYcbcrConversion",
   "linker_set_key" : "vkCreateSamplerYcbcrConversion",
   "parameters" :
   [
    {
     "referenced_type" : "_ZTIP10VkDevice_T"
    },
    {
     "referenced_type" : "_ZTIPK34VkSamplerYcbcrConversionCreateInfo"
    },
    {
     "referenced_type" : "_ZTIPK21VkAllocationCallbacks"
    },
    {
     "referenced_type" : "_ZTIPy"
    }
   ],
   "return_type" : "_ZTI8VkResult",
   "source_file" : "/external/vulkan-headers/include/vulkan/vulkan_core.h"
  },
  {
   "function_name" : "vkCreateSemaphore",
   "linker_set_key" : "vkCreateSemaphore",
   "parameters" :
   [
    {
     "referenced_type" : "_ZTIP10VkDevice_T"
    },
    {
     "referenced_type" : "_ZTIPK21VkSemaphoreCreateInfo"
    },
    {
     "referenced_type" : "_ZTIPK21VkAllocationCallbacks"
    },
    {
     "referenced_type" : "_ZTIPy"
    }
   ],
   "return_type" : "_ZTI8VkResult",
   "source_file" : "/external/vulkan-headers/include/vulkan/vulkan_core.h"
  },
  {
   "function_name" : "vkCreateShaderModule",
   "linker_set_key" : "vkCreateShaderModule",
   "parameters" :
   [
    {
     "referenced_type" : "_ZTIP10VkDevice_T"
    },
    {
     "referenced_type" : "_ZTIPK24VkShaderModuleCreateInfo"
    },
    {
     "referenced_type" : "_ZTIPK21VkAllocationCallbacks"
    },
    {
     "referenced_type" : "_ZTIPy"
    }
   ],
   "return_type" : "_ZTI8VkResult",
   "source_file" : "/external/vulkan-headers/include/vulkan/vulkan_core.h"
  },
  {
   "function_name" : "vkCreateSwapchainKHR",
   "linker_set_key" : "vkCreateSwapchainKHR",
   "parameters" :
   [
    {
     "referenced_type" : "_ZTIP10VkDevice_T"
    },
    {
     "referenced_type" : "_ZTIPK24VkSwapchainCreateInfoKHR"
    },
    {
     "referenced_type" : "_ZTIPK21VkAllocationCallbacks"
    },
    {
     "referenced_type" : "_ZTIPy"
    }
   ],
   "return_type" : "_ZTI8VkResult",
   "source_file" : "/external/vulkan-headers/include/vulkan/vulkan_core.h"
  },
  {
   "function_name" : "vkDestroyBuffer",
   "linker_set_key" : "vkDestroyBuffer",
   "parameters" :
   [
    {
     "referenced_type" : "_ZTIP10VkDevice_T"
    },
    {
     "referenced_type" : "_ZTIy"
    },
    {
     "referenced_type" : "_ZTIPK21VkAllocationCallbacks"
    }
   ],
   "return_type" : "_ZTIv",
   "source_file" : "/external/vulkan-headers/include/vulkan/vulkan_core.h"
  },
  {
   "function_name" : "vkDestroyBufferView",
   "linker_set_key" : "vkDestroyBufferView",
   "parameters" :
   [
    {
     "referenced_type" : "_ZTIP10VkDevice_T"
    },
    {
     "referenced_type" : "_ZTIy"
    },
    {
     "referenced_type" : "_ZTIPK21VkAllocationCallbacks"
    }
   ],
   "return_type" : "_ZTIv",
   "source_file" : "/external/vulkan-headers/include/vulkan/vulkan_core.h"
  },
  {
   "function_name" : "vkDestroyCommandPool",
   "linker_set_key" : "vkDestroyCommandPool",
   "parameters" :
   [
    {
     "referenced_type" : "_ZTIP10VkDevice_T"
    },
    {
     "referenced_type" : "_ZTIy"
    },
    {
     "referenced_type" : "_ZTIPK21VkAllocationCallbacks"
    }
   ],
   "return_type" : "_ZTIv",
   "source_file" : "/external/vulkan-headers/include/vulkan/vulkan_core.h"
  },
  {
   "function_name" : "vkDestroyDescriptorPool",
   "linker_set_key" : "vkDestroyDescriptorPool",
   "parameters" :
   [
    {
     "referenced_type" : "_ZTIP10VkDevice_T"
    },
    {
     "referenced_type" : "_ZTIy"
    },
    {
     "referenced_type" : "_ZTIPK21VkAllocationCallbacks"
    }
   ],
   "return_type" : "_ZTIv",
   "source_file" : "/external/vulkan-headers/include/vulkan/vulkan_core.h"
  },
  {
   "function_name" : "vkDestroyDescriptorSetLayout",
   "linker_set_key" : "vkDestroyDescriptorSetLayout",
   "parameters" :
   [
    {
     "referenced_type" : "_ZTIP10VkDevice_T"
    },
    {
     "referenced_type" : "_ZTIy"
    },
    {
     "referenced_type" : "_ZTIPK21VkAllocationCallbacks"
    }
   ],
   "return_type" : "_ZTIv",
   "source_file" : "/external/vulkan-headers/include/vulkan/vulkan_core.h"
  },
  {
   "function_name" : "vkDestroyDescriptorUpdateTemplate",
   "linker_set_key" : "vkDestroyDescriptorUpdateTemplate",
   "parameters" :
   [
    {
     "referenced_type" : "_ZTIP10VkDevice_T"
    },
    {
     "referenced_type" : "_ZTIy"
    },
    {
     "referenced_type" : "_ZTIPK21VkAllocationCallbacks"
    }
   ],
   "return_type" : "_ZTIv",
   "source_file" : "/external/vulkan-headers/include/vulkan/vulkan_core.h"
  },
  {
   "function_name" : "vkDestroyDevice",
   "linker_set_key" : "vkDestroyDevice",
   "parameters" :
   [
    {
     "referenced_type" : "_ZTIP10VkDevice_T"
    },
    {
     "referenced_type" : "_ZTIPK21VkAllocationCallbacks"
    }
   ],
   "return_type" : "_ZTIv",
   "source_file" : "/external/vulkan-headers/include/vulkan/vulkan_core.h"
  },
  {
   "function_name" : "vkDestroyEvent",
   "linker_set_key" : "vkDestroyEvent",
   "parameters" :
   [
    {
     "referenced_type" : "_ZTIP10VkDevice_T"
    },
    {
     "referenced_type" : "_ZTIy"
    },
    {
     "referenced_type" : "_ZTIPK21VkAllocationCallbacks"
    }
   ],
   "return_type" : "_ZTIv",
   "source_file" : "/external/vulkan-headers/include/vulkan/vulkan_core.h"
  },
  {
   "function_name" : "vkDestroyFence",
   "linker_set_key" : "vkDestroyFence",
   "parameters" :
   [
    {
     "referenced_type" : "_ZTIP10VkDevice_T"
    },
    {
     "referenced_type" : "_ZTIy"
    },
    {
     "referenced_type" : "_ZTIPK21VkAllocationCallbacks"
    }
   ],
   "return_type" : "_ZTIv",
   "source_file" : "/external/vulkan-headers/include/vulkan/vulkan_core.h"
  },
  {
   "function_name" : "vkDestroyFramebuffer",
   "linker_set_key" : "vkDestroyFramebuffer",
   "parameters" :
   [
    {
     "referenced_type" : "_ZTIP10VkDevice_T"
    },
    {
     "referenced_type" : "_ZTIy"
    },
    {
     "referenced_type" : "_ZTIPK21VkAllocationCallbacks"
    }
   ],
   "return_type" : "_ZTIv",
   "source_file" : "/external/vulkan-headers/include/vulkan/vulkan_core.h"
  },
  {
   "function_name" : "vkDestroyImage",
   "linker_set_key" : "vkDestroyImage",
   "parameters" :
   [
    {
     "referenced_type" : "_ZTIP10VkDevice_T"
    },
    {
     "referenced_type" : "_ZTIy"
    },
    {
     "referenced_type" : "_ZTIPK21VkAllocationCallbacks"
    }
   ],
   "return_type" : "_ZTIv",
   "source_file" : "/external/vulkan-headers/include/vulkan/vulkan_core.h"
  },
  {
   "function_name" : "vkDestroyImageView",
   "linker_set_key" : "vkDestroyImageView",
   "parameters" :
   [
    {
     "referenced_type" : "_ZTIP10VkDevice_T"
    },
    {
     "referenced_type" : "_ZTIy"
    },
    {
     "referenced_type" : "_ZTIPK21VkAllocationCallbacks"
    }
   ],
   "return_type" : "_ZTIv",
   "source_file" : "/external/vulkan-headers/include/vulkan/vulkan_core.h"
  },
  {
   "function_name" : "vkDestroyInstance",
   "linker_set_key" : "vkDestroyInstance",
   "parameters" :
   [
    {
     "referenced_type" : "_ZTIP12VkInstance_T"
    },
    {
     "referenced_type" : "_ZTIPK21VkAllocationCallbacks"
    }
   ],
   "return_type" : "_ZTIv",
   "source_file" : "/external/vulkan-headers/include/vulkan/vulkan_core.h"
  },
  {
   "function_name" : "vkDestroyPipeline",
   "linker_set_key" : "vkDestroyPipeline",
   "parameters" :
   [
    {
     "referenced_type" : "_ZTIP10VkDevice_T"
    },
    {
     "referenced_type" : "_ZTIy"
    },
    {
     "referenced_type" : "_ZTIPK21VkAllocationCallbacks"
    }
   ],
   "return_type" : "_ZTIv",
   "source_file" : "/external/vulkan-headers/include/vulkan/vulkan_core.h"
  },
  {
   "function_name" : "vkDestroyPipelineCache",
   "linker_set_key" : "vkDestroyPipelineCache",
   "parameters" :
   [
    {
     "referenced_type" : "_ZTIP10VkDevice_T"
    },
    {
     "referenced_type" : "_ZTIy"
    },
    {
     "referenced_type" : "_ZTIPK21VkAllocationCallbacks"
    }
   ],
   "return_type" : "_ZTIv",
   "source_file" : "/external/vulkan-headers/include/vulkan/vulkan_core.h"
  },
  {
   "function_name" : "vkDestroyPipelineLayout",
   "linker_set_key" : "vkDestroyPipelineLayout",
   "parameters" :
   [
    {
     "referenced_type" : "_ZTIP10VkDevice_T"
    },
    {
     "referenced_type" : "_ZTIy"
    },
    {
     "referenced_type" : "_ZTIPK21VkAllocationCallbacks"
    }
   ],
   "return_type" : "_ZTIv",
   "source_file" : "/external/vulkan-headers/include/vulkan/vulkan_core.h"
  },
  {
   "function_name" : "vkDestroyQueryPool",
   "linker_set_key" : "vkDestroyQueryPool",
   "parameters" :
   [
    {
     "referenced_type" : "_ZTIP10VkDevice_T"
    },
    {
     "referenced_type" : "_ZTIy"
    },
    {
     "referenced_type" : "_ZTIPK21VkAllocationCallbacks"
    }
   ],
   "return_type" : "_ZTIv",
   "source_file" : "/external/vulkan-headers/include/vulkan/vulkan_core.h"
  },
  {
   "function_name" : "vkDestroyRenderPass",
   "linker_set_key" : "vkDestroyRenderPass",
   "parameters" :
   [
    {
     "referenced_type" : "_ZTIP10VkDevice_T"
    },
    {
     "referenced_type" : "_ZTIy"
    },
    {
     "referenced_type" : "_ZTIPK21VkAllocationCallbacks"
    }
   ],
   "return_type" : "_ZTIv",
   "source_file" : "/external/vulkan-headers/include/vulkan/vulkan_core.h"
  },
  {
   "function_name" : "vkDestroySampler",
   "linker_set_key" : "vkDestroySampler",
   "parameters" :
   [
    {
     "referenced_type" : "_ZTIP10VkDevice_T"
    },
    {
     "referenced_type" : "_ZTIy"
    },
    {
     "referenced_type" : "_ZTIPK21VkAllocationCallbacks"
    }
   ],
   "return_type" : "_ZTIv",
   "source_file" : "/external/vulkan-headers/include/vulkan/vulkan_core.h"
  },
  {
   "function_name" : "vkDestroySamplerYcbcrConversion",
   "linker_set_key" : "vkDestroySamplerYcbcrConversion",
   "parameters" :
   [
    {
     "referenced_type" : "_ZTIP10VkDevice_T"
    },
    {
     "referenced_type" : "_ZTIy"
    },
    {
     "referenced_type" : "_ZTIPK21VkAllocationCallbacks"
    }
   ],
   "return_type" : "_ZTIv",
   "source_file" : "/external/vulkan-headers/include/vulkan/vulkan_core.h"
  },
  {
   "function_name" : "vkDestroySemaphore",
   "linker_set_key" : "vkDestroySemaphore",
   "parameters" :
   [
    {
     "referenced_type" : "_ZTIP10VkDevice_T"
    },
    {
     "referenced_type" : "_ZTIy"
    },
    {
     "referenced_type" : "_ZTIPK21VkAllocationCallbacks"
    }
   ],
   "return_type" : "_ZTIv",
   "source_file" : "/external/vulkan-headers/include/vulkan/vulkan_core.h"
  },
  {
   "function_name" : "vkDestroyShaderModule",
   "linker_set_key" : "vkDestroyShaderModule",
   "parameters" :
   [
    {
     "referenced_type" : "_ZTIP10VkDevice_T"
    },
    {
     "referenced_type" : "_ZTIy"
    },
    {
     "referenced_type" : "_ZTIPK21VkAllocationCallbacks"
    }
   ],
   "return_type" : "_ZTIv",
   "source_file" : "/external/vulkan-headers/include/vulkan/vulkan_core.h"
  },
  {
   "function_name" : "vkDestroySurfaceKHR",
   "linker_set_key" : "vkDestroySurfaceKHR",
   "parameters" :
   [
    {
     "referenced_type" : "_ZTIP12VkInstance_T"
    },
    {
     "referenced_type" : "_ZTIy"
    },
    {
     "referenced_type" : "_ZTIPK21VkAllocationCallbacks"
    }
   ],
   "return_type" : "_ZTIv",
   "source_file" : "/external/vulkan-headers/include/vulkan/vulkan_core.h"
  },
  {
   "function_name" : "vkDestroySwapchainKHR",
   "linker_set_key" : "vkDestroySwapchainKHR",
   "parameters" :
   [
    {
     "referenced_type" : "_ZTIP10VkDevice_T"
    },
    {
     "referenced_type" : "_ZTIy"
    },
    {
     "referenced_type" : "_ZTIPK21VkAllocationCallbacks"
    }
   ],
   "return_type" : "_ZTIv",
   "source_file" : "/external/vulkan-headers/include/vulkan/vulkan_core.h"
  },
  {
   "function_name" : "vkDeviceWaitIdle",
   "linker_set_key" : "vkDeviceWaitIdle",
   "parameters" :
   [
    {
     "referenced_type" : "_ZTIP10VkDevice_T"
    }
   ],
   "return_type" : "_ZTI8VkResult",
   "source_file" : "/external/vulkan-headers/include/vulkan/vulkan_core.h"
  },
  {
   "function_name" : "vkEndCommandBuffer",
   "linker_set_key" : "vkEndCommandBuffer",
   "parameters" :
   [
    {
     "referenced_type" : "_ZTIP17VkCommandBuffer_T"
    }
   ],
   "return_type" : "_ZTI8VkResult",
   "source_file" : "/external/vulkan-headers/include/vulkan/vulkan_core.h"
  },
  {
   "function_name" : "vkEnumerateDeviceExtensionProperties",
   "linker_set_key" : "vkEnumerateDeviceExtensionProperties",
   "parameters" :
   [
    {
     "referenced_type" : "_ZTIP18VkPhysicalDevice_T"
    },
    {
     "referenced_type" : "_ZTIPKc"
    },
    {
     "referenced_type" : "_ZTIPj"
    },
    {
     "referenced_type" : "_ZTIP21VkExtensionProperties"
    }
   ],
   "return_type" : "_ZTI8VkResult",
   "source_file" : "/external/vulkan-headers/include/vulkan/vulkan_core.h"
  },
  {
   "function_name" : "vkEnumerateDeviceLayerProperties",
   "linker_set_key" : "vkEnumerateDeviceLayerProperties",
   "parameters" :
   [
    {
     "referenced_type" : "_ZTIP18VkPhysicalDevice_T"
    },
    {
     "referenced_type" : "_ZTIPj"
    },
    {
     "referenced_type" : "_ZTIP17VkLayerProperties"
    }
   ],
   "return_type" : "_ZTI8VkResult",
   "source_file" : "/external/vulkan-headers/include/vulkan/vulkan_core.h"
  },
  {
   "function_name" : "vkEnumerateInstanceExtensionProperties",
   "linker_set_key" : "vkEnumerateInstanceExtensionProperties",
   "parameters" :
   [
    {
     "referenced_type" : "_ZTIPKc"
    },
    {
     "referenced_type" : "_ZTIPj"
    },
    {
     "referenced_type" : "_ZTIP21VkExtensionProperties"
    }
   ],
   "return_type" : "_ZTI8VkResult",
   "source_file" : "/external/vulkan-headers/include/vulkan/vulkan_core.h"
  },
  {
   "function_name" : "vkEnumerateInstanceLayerProperties",
   "linker_set_key" : "vkEnumerateInstanceLayerProperties",
   "parameters" :
   [
    {
     "referenced_type" : "_ZTIPj"
    },
    {
     "referenced_type" : "_ZTIP17VkLayerProperties"
    }
   ],
   "return_type" : "_ZTI8VkResult",
   "source_file" : "/external/vulkan-headers/include/vulkan/vulkan_core.h"
  },
  {
   "function_name" : "vkEnumerateInstanceVersion",
   "linker_set_key" : "vkEnumerateInstanceVersion",
   "parameters" :
   [
    {
     "referenced_type" : "_ZTIPj"
    }
   ],
   "return_type" : "_ZTI8VkResult",
   "source_file" : "/external/vulkan-headers/include/vulkan/vulkan_core.h"
  },
  {
   "function_name" : "vkEnumeratePhysicalDeviceGroups",
   "linker_set_key" : "vkEnumeratePhysicalDeviceGroups",
   "parameters" :
   [
    {
     "referenced_type" : "_ZTIP12VkInstance_T"
    },
    {
     "referenced_type" : "_ZTIPj"
    },
    {
     "referenced_type" : "_ZTIP31VkPhysicalDeviceGroupProperties"
    }
   ],
   "return_type" : "_ZTI8VkResult",
   "source_file" : "/external/vulkan-headers/include/vulkan/vulkan_core.h"
  },
  {
   "function_name" : "vkEnumeratePhysicalDevices",
   "linker_set_key" : "vkEnumeratePhysicalDevices",
   "parameters" :
   [
    {
     "referenced_type" : "_ZTIP12VkInstance_T"
    },
    {
     "referenced_type" : "_ZTIPj"
    },
    {
     "referenced_type" : "_ZTIPP18VkPhysicalDevice_T"
    }
   ],
   "return_type" : "_ZTI8VkResult",
   "source_file" : "/external/vulkan-headers/include/vulkan/vulkan_core.h"
  },
  {
   "function_name" : "vkFlushMappedMemoryRanges",
   "linker_set_key" : "vkFlushMappedMemoryRanges",
   "parameters" :
   [
    {
     "referenced_type" : "_ZTIP10VkDevice_T"
    },
    {
     "referenced_type" : "_ZTIj"
    },
    {
     "referenced_type" : "_ZTIPK19VkMappedMemoryRange"
    }
   ],
   "return_type" : "_ZTI8VkResult",
   "source_file" : "/external/vulkan-headers/include/vulkan/vulkan_core.h"
  },
  {
   "function_name" : "vkFreeCommandBuffers",
   "linker_set_key" : "vkFreeCommandBuffers",
   "parameters" :
   [
    {
     "referenced_type" : "_ZTIP10VkDevice_T"
    },
    {
     "referenced_type" : "_ZTIy"
    },
    {
     "referenced_type" : "_ZTIj"
    },
    {
     "referenced_type" : "_ZTIPKP17VkCommandBuffer_T"
    }
   ],
   "return_type" : "_ZTIv",
   "source_file" : "/external/vulkan-headers/include/vulkan/vulkan_core.h"
  },
  {
   "function_name" : "vkFreeDescriptorSets",
   "linker_set_key" : "vkFreeDescriptorSets",
   "parameters" :
   [
    {
     "referenced_type" : "_ZTIP10VkDevice_T"
    },
    {
     "referenced_type" : "_ZTIy"
    },
    {
     "referenced_type" : "_ZTIj"
    },
    {
     "referenced_type" : "_ZTIPKy"
    }
   ],
   "return_type" : "_ZTI8VkResult",
   "source_file" : "/external/vulkan-headers/include/vulkan/vulkan_core.h"
  },
  {
   "function_name" : "vkFreeMemory",
   "linker_set_key" : "vkFreeMemory",
   "parameters" :
   [
    {
     "referenced_type" : "_ZTIP10VkDevice_T"
    },
    {
     "referenced_type" : "_ZTIy"
    },
    {
     "referenced_type" : "_ZTIPK21VkAllocationCallbacks"
    }
   ],
   "return_type" : "_ZTIv",
   "source_file" : "/external/vulkan-headers/include/vulkan/vulkan_core.h"
  },
  {
   "function_name" : "vkGetAndroidHardwareBufferPropertiesANDROID",
   "linker_set_key" : "vkGetAndroidHardwareBufferPropertiesANDROID",
   "parameters" :
   [
    {
     "referenced_type" : "_ZTIP10VkDevice_T"
    },
    {
     "referenced_type" : "_ZTIPK15AHardwareBuffer"
    },
    {
     "referenced_type" : "_ZTIP40VkAndroidHardwareBufferPropertiesANDROID"
    }
   ],
   "return_type" : "_ZTI8VkResult",
   "source_file" : "/external/vulkan-headers/include/vulkan/vulkan_android.h"
  },
  {
   "function_name" : "vkGetBufferMemoryRequirements",
   "linker_set_key" : "vkGetBufferMemoryRequirements",
   "parameters" :
   [
    {
     "referenced_type" : "_ZTIP10VkDevice_T"
    },
    {
     "referenced_type" : "_ZTIy"
    },
    {
     "referenced_type" : "_ZTIP20VkMemoryRequirements"
    }
   ],
   "return_type" : "_ZTIv",
   "source_file" : "/external/vulkan-headers/include/vulkan/vulkan_core.h"
  },
  {
   "function_name" : "vkGetBufferMemoryRequirements2",
   "linker_set_key" : "vkGetBufferMemoryRequirements2",
   "parameters" :
   [
    {
     "referenced_type" : "_ZTIP10VkDevice_T"
    },
    {
     "referenced_type" : "_ZTIPK31VkBufferMemoryRequirementsInfo2"
    },
    {
     "referenced_type" : "_ZTIP21VkMemoryRequirements2"
    }
   ],
   "return_type" : "_ZTIv",
   "source_file" : "/external/vulkan-headers/include/vulkan/vulkan_core.h"
  },
  {
   "function_name" : "vkGetDescriptorSetLayoutSupport",
   "linker_set_key" : "vkGetDescriptorSetLayoutSupport",
   "parameters" :
   [
    {
     "referenced_type" : "_ZTIP10VkDevice_T"
    },
    {
     "referenced_type" : "_ZTIPK31VkDescriptorSetLayoutCreateInfo"
    },
    {
     "referenced_type" : "_ZTIP28VkDescriptorSetLayoutSupport"
    }
   ],
   "return_type" : "_ZTIv",
   "source_file" : "/external/vulkan-headers/include/vulkan/vulkan_core.h"
  },
  {
   "function_name" : "vkGetDeviceGroupPeerMemoryFeatures",
   "linker_set_key" : "vkGetDeviceGroupPeerMemoryFeatures",
   "parameters" :
   [
    {
     "referenced_type" : "_ZTIP10VkDevice_T"
    },
    {
     "referenced_type" : "_ZTIj"
    },
    {
     "referenced_type" : "_ZTIj"
    },
    {
     "referenced_type" : "_ZTIj"
    },
    {
     "referenced_type" : "_ZTIPj"
    }
   ],
   "return_type" : "_ZTIv",
   "source_file" : "/external/vulkan-headers/include/vulkan/vulkan_core.h"
  },
  {
   "function_name" : "vkGetDeviceGroupPresentCapabilitiesKHR",
   "linker_set_key" : "vkGetDeviceGroupPresentCapabilitiesKHR",
   "parameters" :
   [
    {
     "referenced_type" : "_ZTIP10VkDevice_T"
    },
    {
     "referenced_type" : "_ZTIP35VkDeviceGroupPresentCapabilitiesKHR"
    }
   ],
   "return_type" : "_ZTI8VkResult",
   "source_file" : "/external/vulkan-headers/include/vulkan/vulkan_core.h"
  },
  {
   "function_name" : "vkGetDeviceGroupSurfacePresentModesKHR",
   "linker_set_key" : "vkGetDeviceGroupSurfacePresentModesKHR",
   "parameters" :
   [
    {
     "referenced_type" : "_ZTIP10VkDevice_T"
    },
    {
     "referenced_type" : "_ZTIy"
    },
    {
     "referenced_type" : "_ZTIPj"
    }
   ],
   "return_type" : "_ZTI8VkResult",
   "source_file" : "/external/vulkan-headers/include/vulkan/vulkan_core.h"
  },
  {
   "function_name" : "vkGetDeviceMemoryCommitment",
   "linker_set_key" : "vkGetDeviceMemoryCommitment",
   "parameters" :
   [
    {
     "referenced_type" : "_ZTIP10VkDevice_T"
    },
    {
     "referenced_type" : "_ZTIy"
    },
    {
     "referenced_type" : "_ZTIPy"
    }
   ],
   "return_type" : "_ZTIv",
   "source_file" : "/external/vulkan-headers/include/vulkan/vulkan_core.h"
  },
  {
   "function_name" : "vkGetDeviceProcAddr",
   "linker_set_key" : "vkGetDeviceProcAddr",
   "parameters" :
   [
    {
     "referenced_type" : "_ZTIP10VkDevice_T"
    },
    {
     "referenced_type" : "_ZTIPKc"
    }
   ],
   "return_type" : "_ZTIPFvvE",
   "source_file" : "/external/vulkan-headers/include/vulkan/vulkan_core.h"
  },
  {
   "function_name" : "vkGetDeviceQueue",
   "linker_set_key" : "vkGetDeviceQueue",
   "parameters" :
   [
    {
     "referenced_type" : "_ZTIP10VkDevice_T"
    },
    {
     "referenced_type" : "_ZTIj"
    },
    {
     "referenced_type" : "_ZTIj"
    },
    {
     "referenced_type" : "_ZTIPP9VkQueue_T"
    }
   ],
   "return_type" : "_ZTIv",
   "source_file" : "/external/vulkan-headers/include/vulkan/vulkan_core.h"
  },
  {
   "function_name" : "vkGetDeviceQueue2",
   "linker_set_key" : "vkGetDeviceQueue2",
   "parameters" :
   [
    {
     "referenced_type" : "_ZTIP10VkDevice_T"
    },
    {
     "referenced_type" : "_ZTIPK18VkDeviceQueueInfo2"
    },
    {
     "referenced_type" : "_ZTIPP9VkQueue_T"
    }
   ],
   "return_type" : "_ZTIv",
   "source_file" : "/external/vulkan-headers/include/vulkan/vulkan_core.h"
  },
  {
   "function_name" : "vkGetEventStatus",
   "linker_set_key" : "vkGetEventStatus",
   "parameters" :
   [
    {
     "referenced_type" : "_ZTIP10VkDevice_T"
    },
    {
     "referenced_type" : "_ZTIy"
    }
   ],
   "return_type" : "_ZTI8VkResult",
   "source_file" : "/external/vulkan-headers/include/vulkan/vulkan_core.h"
  },
  {
   "function_name" : "vkGetFenceStatus",
   "linker_set_key" : "vkGetFenceStatus",
   "parameters" :
   [
    {
     "referenced_type" : "_ZTIP10VkDevice_T"
    },
    {
     "referenced_type" : "_ZTIy"
    }
   ],
   "return_type" : "_ZTI8VkResult",
   "source_file" : "/external/vulkan-headers/include/vulkan/vulkan_core.h"
  },
  {
   "function_name" : "vkGetImageMemoryRequirements",
   "linker_set_key" : "vkGetImageMemoryRequirements",
   "parameters" :
   [
    {
     "referenced_type" : "_ZTIP10VkDevice_T"
    },
    {
     "referenced_type" : "_ZTIy"
    },
    {
     "referenced_type" : "_ZTIP20VkMemoryRequirements"
    }
   ],
   "return_type" : "_ZTIv",
   "source_file" : "/external/vulkan-headers/include/vulkan/vulkan_core.h"
  },
  {
   "function_name" : "vkGetImageMemoryRequirements2",
   "linker_set_key" : "vkGetImageMemoryRequirements2",
   "parameters" :
   [
    {
     "referenced_type" : "_ZTIP10VkDevice_T"
    },
    {
     "referenced_type" : "_ZTIPK30VkImageMemoryRequirementsInfo2"
    },
    {
     "referenced_type" : "_ZTIP21VkMemoryRequirements2"
    }
   ],
   "return_type" : "_ZTIv",
   "source_file" : "/external/vulkan-headers/include/vulkan/vulkan_core.h"
  },
  {
   "function_name" : "vkGetImageSparseMemoryRequirements",
   "linker_set_key" : "vkGetImageSparseMemoryRequirements",
   "parameters" :
   [
    {
     "referenced_type" : "_ZTIP10VkDevice_T"
    },
    {
     "referenced_type" : "_ZTIy"
    },
    {
     "referenced_type" : "_ZTIPj"
    },
    {
     "referenced_type" : "_ZTIP31VkSparseImageMemoryRequirements"
    }
   ],
   "return_type" : "_ZTIv",
   "source_file" : "/external/vulkan-headers/include/vulkan/vulkan_core.h"
  },
  {
   "function_name" : "vkGetImageSparseMemoryRequirements2",
   "linker_set_key" : "vkGetImageSparseMemoryRequirements2",
   "parameters" :
   [
    {
     "referenced_type" : "_ZTIP10VkDevice_T"
    },
    {
     "referenced_type" : "_ZTIPK36VkImageSparseMemoryRequirementsInfo2"
    },
    {
     "referenced_type" : "_ZTIPj"
    },
    {
     "referenced_type" : "_ZTIP32VkSparseImageMemoryRequirements2"
    }
   ],
   "return_type" : "_ZTIv",
   "source_file" : "/external/vulkan-headers/include/vulkan/vulkan_core.h"
  },
  {
   "function_name" : "vkGetImageSubresourceLayout",
   "linker_set_key" : "vkGetImageSubresourceLayout",
   "parameters" :
   [
    {
     "referenced_type" : "_ZTIP10VkDevice_T"
    },
    {
     "referenced_type" : "_ZTIy"
    },
    {
     "referenced_type" : "_ZTIPK18VkImageSubresource"
    },
    {
     "referenced_type" : "_ZTIP19VkSubresourceLayout"
    }
   ],
   "return_type" : "_ZTIv",
   "source_file" : "/external/vulkan-headers/include/vulkan/vulkan_core.h"
  },
  {
   "function_name" : "vkGetInstanceProcAddr",
   "linker_set_key" : "vkGetInstanceProcAddr",
   "parameters" :
   [
    {
     "referenced_type" : "_ZTIP12VkInstance_T"
    },
    {
     "referenced_type" : "_ZTIPKc"
    }
   ],
   "return_type" : "_ZTIPFvvE",
   "source_file" : "/external/vulkan-headers/include/vulkan/vulkan_core.h"
  },
  {
   "function_name" : "vkGetMemoryAndroidHardwareBufferANDROID",
   "linker_set_key" : "vkGetMemoryAndroidHardwareBufferANDROID",
   "parameters" :
   [
    {
     "referenced_type" : "_ZTIP10VkDevice_T"
    },
    {
     "referenced_type" : "_ZTIPK43VkMemoryGetAndroidHardwareBufferInfoANDROID"
    },
    {
     "referenced_type" : "_ZTIPP15AHardwareBuffer"
    }
   ],
   "return_type" : "_ZTI8VkResult",
   "source_file" : "/external/vulkan-headers/include/vulkan/vulkan_android.h"
  },
  {
   "function_name" : "vkGetPhysicalDeviceExternalBufferProperties",
   "linker_set_key" : "vkGetPhysicalDeviceExternalBufferProperties",
   "parameters" :
   [
    {
     "referenced_type" : "_ZTIP18VkPhysicalDevice_T"
    },
    {
     "referenced_type" : "_ZTIPK34VkPhysicalDeviceExternalBufferInfo"
    },
    {
     "referenced_type" : "_ZTIP26VkExternalBufferProperties"
    }
   ],
   "return_type" : "_ZTIv",
   "source_file" : "/external/vulkan-headers/include/vulkan/vulkan_core.h"
  },
  {
   "function_name" : "vkGetPhysicalDeviceExternalFenceProperties",
   "linker_set_key" : "vkGetPhysicalDeviceExternalFenceProperties",
   "parameters" :
   [
    {
     "referenced_type" : "_ZTIP18VkPhysicalDevice_T"
    },
    {
     "referenced_type" : "_ZTIPK33VkPhysicalDeviceExternalFenceInfo"
    },
    {
     "referenced_type" : "_ZTIP25VkExternalFenceProperties"
    }
   ],
   "return_type" : "_ZTIv",
   "source_file" : "/external/vulkan-headers/include/vulkan/vulkan_core.h"
  },
  {
   "function_name" : "vkGetPhysicalDeviceExternalSemaphoreProperties",
   "linker_set_key" : "vkGetPhysicalDeviceExternalSemaphoreProperties",
   "parameters" :
   [
    {
     "referenced_type" : "_ZTIP18VkPhysicalDevice_T"
    },
    {
     "referenced_type" : "_ZTIPK37VkPhysicalDeviceExternalSemaphoreInfo"
    },
    {
     "referenced_type" : "_ZTIP29VkExternalSemaphoreProperties"
    }
   ],
   "return_type" : "_ZTIv",
   "source_file" : "/external/vulkan-headers/include/vulkan/vulkan_core.h"
  },
  {
   "function_name" : "vkGetPhysicalDeviceFeatures",
   "linker_set_key" : "vkGetPhysicalDeviceFeatures",
   "parameters" :
   [
    {
     "referenced_type" : "_ZTIP18VkPhysicalDevice_T"
    },
    {
     "referenced_type" : "_ZTIP24VkPhysicalDeviceFeatures"
    }
   ],
   "return_type" : "_ZTIv",
   "source_file" : "/external/vulkan-headers/include/vulkan/vulkan_core.h"
  },
  {
   "function_name" : "vkGetPhysicalDeviceFeatures2",
   "linker_set_key" : "vkGetPhysicalDeviceFeatures2",
   "parameters" :
   [
    {
     "referenced_type" : "_ZTIP18VkPhysicalDevice_T"
    },
    {
     "referenced_type" : "_ZTIP25VkPhysicalDeviceFeatures2"
    }
   ],
   "return_type" : "_ZTIv",
   "source_file" : "/external/vulkan-headers/include/vulkan/vulkan_core.h"
  },
  {
   "function_name" : "vkGetPhysicalDeviceFormatProperties",
   "linker_set_key" : "vkGetPhysicalDeviceFormatProperties",
   "parameters" :
   [
    {
     "referenced_type" : "_ZTIP18VkPhysicalDevice_T"
    },
    {
     "referenced_type" : "_ZTI8VkFormat"
    },
    {
     "referenced_type" : "_ZTIP18VkFormatProperties"
    }
   ],
   "return_type" : "_ZTIv",
   "source_file" : "/external/vulkan-headers/include/vulkan/vulkan_core.h"
  },
  {
   "function_name" : "vkGetPhysicalDeviceFormatProperties2",
   "linker_set_key" : "vkGetPhysicalDeviceFormatProperties2",
   "parameters" :
   [
    {
     "referenced_type" : "_ZTIP18VkPhysicalDevice_T"
    },
    {
     "referenced_type" : "_ZTI8VkFormat"
    },
    {
     "referenced_type" : "_ZTIP19VkFormatProperties2"
    }
   ],
   "return_type" : "_ZTIv",
   "source_file" : "/external/vulkan-headers/include/vulkan/vulkan_core.h"
  },
  {
   "function_name" : "vkGetPhysicalDeviceImageFormatProperties",
   "linker_set_key" : "vkGetPhysicalDeviceImageFormatProperties",
   "parameters" :
   [
    {
     "referenced_type" : "_ZTIP18VkPhysicalDevice_T"
    },
    {
     "referenced_type" : "_ZTI8VkFormat"
    },
    {
     "referenced_type" : "_ZTI11VkImageType"
    },
    {
     "referenced_type" : "_ZTI13VkImageTiling"
    },
    {
     "referenced_type" : "_ZTIj"
    },
    {
     "referenced_type" : "_ZTIj"
    },
    {
     "referenced_type" : "_ZTIP23VkImageFormatProperties"
    }
   ],
   "return_type" : "_ZTI8VkResult",
   "source_file" : "/external/vulkan-headers/include/vulkan/vulkan_core.h"
  },
  {
   "function_name" : "vkGetPhysicalDeviceImageFormatProperties2",
   "linker_set_key" : "vkGetPhysicalDeviceImageFormatProperties2",
   "parameters" :
   [
    {
     "referenced_type" : "_ZTIP18VkPhysicalDevice_T"
    },
    {
     "referenced_type" : "_ZTIPK32VkPhysicalDeviceImageFormatInfo2"
    },
    {
     "referenced_type" : "_ZTIP24VkImageFormatProperties2"
    }
   ],
   "return_type" : "_ZTI8VkResult",
   "source_file" : "/external/vulkan-headers/include/vulkan/vulkan_core.h"
  },
  {
   "function_name" : "vkGetPhysicalDeviceMemoryProperties",
   "linker_set_key" : "vkGetPhysicalDeviceMemoryProperties",
   "parameters" :
   [
    {
     "referenced_type" : "_ZTIP18VkPhysicalDevice_T"
    },
    {
     "referenced_type" : "_ZTIP32VkPhysicalDeviceMemoryProperties"
    }
   ],
   "return_type" : "_ZTIv",
   "source_file" : "/external/vulkan-headers/include/vulkan/vulkan_core.h"
  },
  {
   "function_name" : "vkGetPhysicalDeviceMemoryProperties2",
   "linker_set_key" : "vkGetPhysicalDeviceMemoryProperties2",
   "parameters" :
   [
    {
     "referenced_type" : "_ZTIP18VkPhysicalDevice_T"
    },
    {
     "referenced_type" : "_ZTIP33VkPhysicalDeviceMemoryProperties2"
    }
   ],
   "return_type" : "_ZTIv",
   "source_file" : "/external/vulkan-headers/include/vulkan/vulkan_core.h"
  },
  {
   "function_name" : "vkGetPhysicalDevicePresentRectanglesKHR",
   "linker_set_key" : "vkGetPhysicalDevicePresentRectanglesKHR",
   "parameters" :
   [
    {
     "referenced_type" : "_ZTIP18VkPhysicalDevice_T"
    },
    {
     "referenced_type" : "_ZTIy"
    },
    {
     "referenced_type" : "_ZTIPj"
    },
    {
     "referenced_type" : "_ZTIP8VkRect2D"
    }
   ],
   "return_type" : "_ZTI8VkResult",
   "source_file" : "/external/vulkan-headers/include/vulkan/vulkan_core.h"
  },
  {
   "function_name" : "vkGetPhysicalDeviceProperties",
   "linker_set_key" : "vkGetPhysicalDeviceProperties",
   "parameters" :
   [
    {
     "referenced_type" : "_ZTIP18VkPhysicalDevice_T"
    },
    {
     "referenced_type" : "_ZTIP26VkPhysicalDeviceProperties"
    }
   ],
   "return_type" : "_ZTIv",
   "source_file" : "/external/vulkan-headers/include/vulkan/vulkan_core.h"
  },
  {
   "function_name" : "vkGetPhysicalDeviceProperties2",
   "linker_set_key" : "vkGetPhysicalDeviceProperties2",
   "parameters" :
   [
    {
     "referenced_type" : "_ZTIP18VkPhysicalDevice_T"
    },
    {
     "referenced_type" : "_ZTIP27VkPhysicalDeviceProperties2"
    }
   ],
   "return_type" : "_ZTIv",
   "source_file" : "/external/vulkan-headers/include/vulkan/vulkan_core.h"
  },
  {
   "function_name" : "vkGetPhysicalDeviceQueueFamilyProperties",
   "linker_set_key" : "vkGetPhysicalDeviceQueueFamilyProperties",
   "parameters" :
   [
    {
     "referenced_type" : "_ZTIP18VkPhysicalDevice_T"
    },
    {
     "referenced_type" : "_ZTIPj"
    },
    {
     "referenced_type" : "_ZTIP23VkQueueFamilyProperties"
    }
   ],
   "return_type" : "_ZTIv",
   "source_file" : "/external/vulkan-headers/include/vulkan/vulkan_core.h"
  },
  {
   "function_name" : "vkGetPhysicalDeviceQueueFamilyProperties2",
   "linker_set_key" : "vkGetPhysicalDeviceQueueFamilyProperties2",
   "parameters" :
   [
    {
     "referenced_type" : "_ZTIP18VkPhysicalDevice_T"
    },
    {
     "referenced_type" : "_ZTIPj"
    },
    {
     "referenced_type" : "_ZTIP24VkQueueFamilyProperties2"
    }
   ],
   "return_type" : "_ZTIv",
   "source_file" : "/external/vulkan-headers/include/vulkan/vulkan_core.h"
  },
  {
   "function_name" : "vkGetPhysicalDeviceSparseImageFormatProperties",
   "linker_set_key" : "vkGetPhysicalDeviceSparseImageFormatProperties",
   "parameters" :
   [
    {
     "referenced_type" : "_ZTIP18VkPhysicalDevice_T"
    },
    {
     "referenced_type" : "_ZTI8VkFormat"
    },
    {
     "referenced_type" : "_ZTI11VkImageType"
    },
    {
     "referenced_type" : "_ZTI21VkSampleCountFlagBits"
    },
    {
     "referenced_type" : "_ZTIj"
    },
    {
     "referenced_type" : "_ZTI13VkImageTiling"
    },
    {
     "referenced_type" : "_ZTIPj"
    },
    {
     "referenced_type" : "_ZTIP29VkSparseImageFormatProperties"
    }
   ],
   "return_type" : "_ZTIv",
   "source_file" : "/external/vulkan-headers/include/vulkan/vulkan_core.h"
  },
  {
   "function_name" : "vkGetPhysicalDeviceSparseImageFormatProperties2",
   "linker_set_key" : "vkGetPhysicalDeviceSparseImageFormatProperties2",
   "parameters" :
   [
    {
     "referenced_type" : "_ZTIP18VkPhysicalDevice_T"
    },
    {
     "referenced_type" : "_ZTIPK38VkPhysicalDeviceSparseImageFormatInfo2"
    },
    {
     "referenced_type" : "_ZTIPj"
    },
    {
     "referenced_type" : "_ZTIP30VkSparseImageFormatProperties2"
    }
   ],
   "return_type" : "_ZTIv",
   "source_file" : "/external/vulkan-headers/include/vulkan/vulkan_core.h"
  },
  {
   "function_name" : "vkGetPhysicalDeviceSurfaceCapabilitiesKHR",
   "linker_set_key" : "vkGetPhysicalDeviceSurfaceCapabilitiesKHR",
   "parameters" :
   [
    {
     "referenced_type" : "_ZTIP18VkPhysicalDevice_T"
    },
    {
     "referenced_type" : "_ZTIy"
    },
    {
     "referenced_type" : "_ZTIP24VkSurfaceCapabilitiesKHR"
    }
   ],
   "return_type" : "_ZTI8VkResult",
   "source_file" : "/external/vulkan-headers/include/vulkan/vulkan_core.h"
  },
  {
   "function_name" : "vkGetPhysicalDeviceSurfaceFormatsKHR",
   "linker_set_key" : "vkGetPhysicalDeviceSurfaceFormatsKHR",
   "parameters" :
   [
    {
     "referenced_type" : "_ZTIP18VkPhysicalDevice_T"
    },
    {
     "referenced_type" : "_ZTIy"
    },
    {
     "referenced_type" : "_ZTIPj"
    },
    {
     "referenced_type" : "_ZTIP18VkSurfaceFormatKHR"
    }
   ],
   "return_type" : "_ZTI8VkResult",
   "source_file" : "/external/vulkan-headers/include/vulkan/vulkan_core.h"
  },
  {
   "function_name" : "vkGetPhysicalDeviceSurfacePresentModesKHR",
   "linker_set_key" : "vkGetPhysicalDeviceSurfacePresentModesKHR",
   "parameters" :
   [
    {
     "referenced_type" : "_ZTIP18VkPhysicalDevice_T"
    },
    {
     "referenced_type" : "_ZTIy"
    },
    {
     "referenced_type" : "_ZTIPj"
    },
    {
     "referenced_type" : "_ZTIP16VkPresentModeKHR"
    }
   ],
   "return_type" : "_ZTI8VkResult",
   "source_file" : "/external/vulkan-headers/include/vulkan/vulkan_core.h"
  },
  {
   "function_name" : "vkGetPhysicalDeviceSurfaceSupportKHR",
   "linker_set_key" : "vkGetPhysicalDeviceSurfaceSupportKHR",
   "parameters" :
   [
    {
     "referenced_type" : "_ZTIP18VkPhysicalDevice_T"
    },
    {
     "referenced_type" : "_ZTIj"
    },
    {
     "referenced_type" : "_ZTIy"
    },
    {
     "referenced_type" : "_ZTIPj"
    }
   ],
   "return_type" : "_ZTI8VkResult",
   "source_file" : "/external/vulkan-headers/include/vulkan/vulkan_core.h"
  },
  {
   "function_name" : "vkGetPipelineCacheData",
   "linker_set_key" : "vkGetPipelineCacheData",
   "parameters" :
   [
    {
     "referenced_type" : "_ZTIP10VkDevice_T"
    },
    {
     "referenced_type" : "_ZTIy"
    },
    {
     "referenced_type" : "_ZTIPj"
    },
    {
     "referenced_type" : "_ZTIPv"
    }
   ],
   "return_type" : "_ZTI8VkResult",
   "source_file" : "/external/vulkan-headers/include/vulkan/vulkan_core.h"
  },
  {
   "function_name" : "vkGetQueryPoolResults",
   "linker_set_key" : "vkGetQueryPoolResults",
   "parameters" :
   [
    {
     "referenced_type" : "_ZTIP10VkDevice_T"
    },
    {
     "referenced_type" : "_ZTIy"
    },
    {
     "referenced_type" : "_ZTIj"
    },
    {
     "referenced_type" : "_ZTIj"
    },
    {
     "referenced_type" : "_ZTIj"
    },
    {
     "referenced_type" : "_ZTIPv"
    },
    {
     "referenced_type" : "_ZTIy"
    },
    {
     "referenced_type" : "_ZTIj"
    }
   ],
   "return_type" : "_ZTI8VkResult",
   "source_file" : "/external/vulkan-headers/include/vulkan/vulkan_core.h"
  },
  {
   "function_name" : "vkGetRenderAreaGranularity",
   "linker_set_key" : "vkGetRenderAreaGranularity",
   "parameters" :
   [
    {
     "referenced_type" : "_ZTIP10VkDevice_T"
    },
    {
     "referenced_type" : "_ZTIy"
    },
    {
     "referenced_type" : "_ZTIP10VkExtent2D"
    }
   ],
   "return_type" : "_ZTIv",
   "source_file" : "/external/vulkan-headers/include/vulkan/vulkan_core.h"
  },
  {
   "function_name" : "vkGetSwapchainImagesKHR",
   "linker_set_key" : "vkGetSwapchainImagesKHR",
   "parameters" :
   [
    {
     "referenced_type" : "_ZTIP10VkDevice_T"
    },
    {
     "referenced_type" : "_ZTIy"
    },
    {
     "referenced_type" : "_ZTIPj"
    },
    {
     "referenced_type" : "_ZTIPy"
    }
   ],
   "return_type" : "_ZTI8VkResult",
   "source_file" : "/external/vulkan-headers/include/vulkan/vulkan_core.h"
  },
  {
   "function_name" : "vkInvalidateMappedMemoryRanges",
   "linker_set_key" : "vkInvalidateMappedMemoryRanges",
   "parameters" :
   [
    {
     "referenced_type" : "_ZTIP10VkDevice_T"
    },
    {
     "referenced_type" : "_ZTIj"
    },
    {
     "referenced_type" : "_ZTIPK19VkMappedMemoryRange"
    }
   ],
   "return_type" : "_ZTI8VkResult",
   "source_file" : "/external/vulkan-headers/include/vulkan/vulkan_core.h"
  },
  {
   "function_name" : "vkMapMemory",
   "linker_set_key" : "vkMapMemory",
   "parameters" :
   [
    {
     "referenced_type" : "_ZTIP10VkDevice_T"
    },
    {
     "referenced_type" : "_ZTIy"
    },
    {
     "referenced_type" : "_ZTIy"
    },
    {
     "referenced_type" : "_ZTIy"
    },
    {
     "referenced_type" : "_ZTIj"
    },
    {
     "referenced_type" : "_ZTIPPv"
    }
   ],
   "return_type" : "_ZTI8VkResult",
   "source_file" : "/external/vulkan-headers/include/vulkan/vulkan_core.h"
  },
  {
   "function_name" : "vkMergePipelineCaches",
   "linker_set_key" : "vkMergePipelineCaches",
   "parameters" :
   [
    {
     "referenced_type" : "_ZTIP10VkDevice_T"
    },
    {
     "referenced_type" : "_ZTIy"
    },
    {
     "referenced_type" : "_ZTIj"
    },
    {
     "referenced_type" : "_ZTIPKy"
    }
   ],
   "return_type" : "_ZTI8VkResult",
   "source_file" : "/external/vulkan-headers/include/vulkan/vulkan_core.h"
  },
  {
   "function_name" : "vkQueueBindSparse",
   "linker_set_key" : "vkQueueBindSparse",
   "parameters" :
   [
    {
     "referenced_type" : "_ZTIP9VkQueue_T"
    },
    {
     "referenced_type" : "_ZTIj"
    },
    {
     "referenced_type" : "_ZTIPK16VkBindSparseInfo"
    },
    {
     "referenced_type" : "_ZTIy"
    }
   ],
   "return_type" : "_ZTI8VkResult",
   "source_file" : "/external/vulkan-headers/include/vulkan/vulkan_core.h"
  },
  {
   "function_name" : "vkQueuePresentKHR",
   "linker_set_key" : "vkQueuePresentKHR",
   "parameters" :
   [
    {
     "referenced_type" : "_ZTIP9VkQueue_T"
    },
    {
     "referenced_type" : "_ZTIPK16VkPresentInfoKHR"
    }
   ],
   "return_type" : "_ZTI8VkResult",
   "source_file" : "/external/vulkan-headers/include/vulkan/vulkan_core.h"
  },
  {
   "function_name" : "vkQueueSubmit",
   "linker_set_key" : "vkQueueSubmit",
   "parameters" :
   [
    {
     "referenced_type" : "_ZTIP9VkQueue_T"
    },
    {
     "referenced_type" : "_ZTIj"
    },
    {
     "referenced_type" : "_ZTIPK12VkSubmitInfo"
    },
    {
     "referenced_type" : "_ZTIy"
    }
   ],
   "return_type" : "_ZTI8VkResult",
   "source_file" : "/external/vulkan-headers/include/vulkan/vulkan_core.h"
  },
  {
   "function_name" : "vkQueueWaitIdle",
   "linker_set_key" : "vkQueueWaitIdle",
   "parameters" :
   [
    {
     "referenced_type" : "_ZTIP9VkQueue_T"
    }
   ],
   "return_type" : "_ZTI8VkResult",
   "source_file" : "/external/vulkan-headers/include/vulkan/vulkan_core.h"
  },
  {
   "function_name" : "vkResetCommandBuffer",
   "linker_set_key" : "vkResetCommandBuffer",
   "parameters" :
   [
    {
     "referenced_type" : "_ZTIP17VkCommandBuffer_T"
    },
    {
     "referenced_type" : "_ZTIj"
    }
   ],
   "return_type" : "_ZTI8VkResult",
   "source_file" : "/external/vulkan-headers/include/vulkan/vulkan_core.h"
  },
  {
   "function_name" : "vkResetCommandPool",
   "linker_set_key" : "vkResetCommandPool",
   "parameters" :
   [
    {
     "referenced_type" : "_ZTIP10VkDevice_T"
    },
    {
     "referenced_type" : "_ZTIy"
    },
    {
     "referenced_type" : "_ZTIj"
    }
   ],
   "return_type" : "_ZTI8VkResult",
   "source_file" : "/external/vulkan-headers/include/vulkan/vulkan_core.h"
  },
  {
   "function_name" : "vkResetDescriptorPool",
   "linker_set_key" : "vkResetDescriptorPool",
   "parameters" :
   [
    {
     "referenced_type" : "_ZTIP10VkDevice_T"
    },
    {
     "referenced_type" : "_ZTIy"
    },
    {
     "referenced_type" : "_ZTIj"
    }
   ],
   "return_type" : "_ZTI8VkResult",
   "source_file" : "/external/vulkan-headers/include/vulkan/vulkan_core.h"
  },
  {
   "function_name" : "vkResetEvent",
   "linker_set_key" : "vkResetEvent",
   "parameters" :
   [
    {
     "referenced_type" : "_ZTIP10VkDevice_T"
    },
    {
     "referenced_type" : "_ZTIy"
    }
   ],
   "return_type" : "_ZTI8VkResult",
   "source_file" : "/external/vulkan-headers/include/vulkan/vulkan_core.h"
  },
  {
   "function_name" : "vkResetFences",
   "linker_set_key" : "vkResetFences",
   "parameters" :
   [
    {
     "referenced_type" : "_ZTIP10VkDevice_T"
    },
    {
     "referenced_type" : "_ZTIj"
    },
    {
     "referenced_type" : "_ZTIPKy"
    }
   ],
   "return_type" : "_ZTI8VkResult",
   "source_file" : "/external/vulkan-headers/include/vulkan/vulkan_core.h"
  },
  {
   "function_name" : "vkSetEvent",
   "linker_set_key" : "vkSetEvent",
   "parameters" :
   [
    {
     "referenced_type" : "_ZTIP10VkDevice_T"
    },
    {
     "referenced_type" : "_ZTIy"
    }
   ],
   "return_type" : "_ZTI8VkResult",
   "source_file" : "/external/vulkan-headers/include/vulkan/vulkan_core.h"
  },
  {
   "function_name" : "vkTrimCommandPool",
   "linker_set_key" : "vkTrimCommandPool",
   "parameters" :
   [
    {
     "referenced_type" : "_ZTIP10VkDevice_T"
    },
    {
     "referenced_type" : "_ZTIy"
    },
    {
     "referenced_type" : "_ZTIj"
    }
   ],
   "return_type" : "_ZTIv",
   "source_file" : "/external/vulkan-headers/include/vulkan/vulkan_core.h"
  },
  {
   "function_name" : "vkUnmapMemory",
   "linker_set_key" : "vkUnmapMemory",
   "parameters" :
   [
    {
     "referenced_type" : "_ZTIP10VkDevice_T"
    },
    {
     "referenced_type" : "_ZTIy"
    }
   ],
   "return_type" : "_ZTIv",
   "source_file" : "/external/vulkan-headers/include/vulkan/vulkan_core.h"
  },
  {
   "function_name" : "vkUpdateDescriptorSetWithTemplate",
   "linker_set_key" : "vkUpdateDescriptorSetWithTemplate",
   "parameters" :
   [
    {
     "referenced_type" : "_ZTIP10VkDevice_T"
    },
    {
     "referenced_type" : "_ZTIy"
    },
    {
     "referenced_type" : "_ZTIy"
    },
    {
     "referenced_type" : "_ZTIPKv"
    }
   ],
   "return_type" : "_ZTIv",
   "source_file" : "/external/vulkan-headers/include/vulkan/vulkan_core.h"
  },
  {
   "function_name" : "vkUpdateDescriptorSets",
   "linker_set_key" : "vkUpdateDescriptorSets",
   "parameters" :
   [
    {
     "referenced_type" : "_ZTIP10VkDevice_T"
    },
    {
     "referenced_type" : "_ZTIj"
    },
    {
     "referenced_type" : "_ZTIPK20VkWriteDescriptorSet"
    },
    {
     "referenced_type" : "_ZTIj"
    },
    {
     "referenced_type" : "_ZTIPK19VkCopyDescriptorSet"
    }
   ],
   "return_type" : "_ZTIv",
   "source_file" : "/external/vulkan-headers/include/vulkan/vulkan_core.h"
  },
  {
   "function_name" : "vkWaitForFences",
   "linker_set_key" : "vkWaitForFences",
   "parameters" :
   [
    {
     "referenced_type" : "_ZTIP10VkDevice_T"
    },
    {
     "referenced_type" : "_ZTIj"
    },
    {
     "referenced_type" : "_ZTIPKy"
    },
    {
     "referenced_type" : "_ZTIj"
    },
    {
     "referenced_type" : "_ZTIy"
    }
   ],
   "return_type" : "_ZTI8VkResult",
   "source_file" : "/external/vulkan-headers/include/vulkan/vulkan_core.h"
  }
 ],
 "global_vars" : [],
 "lvalue_reference_types" : [],
 "pointer_types" :
 [
  {
   "alignment" : 4,
   "linker_set_key" : "_ZTIP10VkDevice_T",
   "name" : "VkDevice_T *",
   "referenced_type" : "_ZTI10VkDevice_T",
   "self_type" : "_ZTIP10VkDevice_T",
   "size" : 4,
   "source_file" : "/external/vulkan-headers/include/vulkan/vulkan_core.h"
  },
  {
   "alignment" : 4,
   "linker_set_key" : "_ZTIP10VkExtent2D",
   "name" : "VkExtent2D *",
   "referenced_type" : "_ZTI10VkExtent2D",
   "self_type" : "_ZTIP10VkExtent2D",
   "size" : 4,
   "source_file" : "/external/vulkan-headers/include/vulkan/vulkan_core.h"
  },
  {
   "alignment" : 4,
   "linker_set_key" : "_ZTIP12VkInstance_T",
   "name" : "VkInstance_T *",
   "referenced_type" : "_ZTI12VkInstance_T",
   "self_type" : "_ZTIP12VkInstance_T",
   "size" : 4,
   "source_file" : "/external/vulkan-headers/include/vulkan/vulkan_core.h"
  },
  {
   "alignment" : 4,
   "linker_set_key" : "_ZTIP13ANativeWindow",
   "name" : "ANativeWindow *",
   "referenced_type" : "_ZTI13ANativeWindow",
   "self_type" : "_ZTIP13ANativeWindow",
   "size" : 4,
   "source_file" : "/external/vulkan-headers/include/vulkan/vulkan_android.h"
  },
  {
   "alignment" : 4,
   "linker_set_key" : "_ZTIP15AHardwareBuffer",
   "name" : "AHardwareBuffer *",
   "referenced_type" : "_ZTI15AHardwareBuffer",
   "self_type" : "_ZTIP15AHardwareBuffer",
   "size" : 4,
   "source_file" : "/external/vulkan-headers/include/vulkan/vulkan_android.h"
  },
  {
   "alignment" : 4,
   "linker_set_key" : "_ZTIP16VkPresentModeKHR",
   "name" : "VkPresentModeKHR *",
   "referenced_type" : "_ZTI16VkPresentModeKHR",
   "self_type" : "_ZTIP16VkPresentModeKHR",
   "size" : 4,
   "source_file" : "/external/vulkan-headers/include/vulkan/vulkan_core.h"
  },
  {
   "alignment" : 4,
   "linker_set_key" : "_ZTIP17VkCommandBuffer_T",
   "name" : "VkCommandBuffer_T *",
   "referenced_type" : "_ZTI17VkCommandBuffer_T",
   "self_type" : "_ZTIP17VkCommandBuffer_T",
   "size" : 4,
   "source_file" : "/external/vulkan-headers/include/vulkan/vulkan_core.h"
  },
  {
   "alignment" : 4,
   "linker_set_key" : "_ZTIP17VkLayerProperties",
   "name" : "VkLayerProperties *",
   "referenced_type" : "_ZTI17VkLayerProperties",
   "self_type" : "_ZTIP17VkLayerProperties",
   "size" : 4,
   "source_file" : "/external/vulkan-headers/include/vulkan/vulkan_core.h"
  },
  {
   "alignment" : 4,
   "linker_set_key" : "_ZTIP18VkBaseOutStructure",
   "name" : "VkBaseOutStructure *",
   "referenced_type" : "_ZTI18VkBaseOutStructure",
   "self_type" : "_ZTIP18VkBaseOutStructure",
   "size" : 4,
   "source_file" : "/external/vulkan-headers/include/vulkan/vulkan_core.h"
  },
  {
   "alignment" : 4,
   "linker_set_key" : "_ZTIP18VkFormatProperties",
   "name" : "VkFormatProperties *",
   "referenced_type" : "_ZTI18VkFormatProperties",
   "self_type" : "_ZTIP18VkFormatProperties",
   "size" : 4,
   "source_file" : "/external/vulkan-headers/include/vulkan/vulkan_core.h"
  },
  {
   "alignment" : 4,
   "linker_set_key" : "_ZTIP18VkPhysicalDevice_T",
   "name" : "VkPhysicalDevice_T *",
   "referenced_type" : "_ZTI18VkPhysicalDevice_T",
   "self_type" : "_ZTIP18VkPhysicalDevice_T",
   "size" : 4,
   "source_file" : "/external/vulkan-headers/include/vulkan/vulkan_core.h"
  },
  {
   "alignment" : 4,
   "linker_set_key" : "_ZTIP18VkSurfaceFormatKHR",
   "name" : "VkSurfaceFormatKHR *",
   "referenced_type" : "_ZTI18VkSurfaceFormatKHR",
   "self_type" : "_ZTIP18VkSurfaceFormatKHR",
   "size" : 4,
   "source_file" : "/external/vulkan-headers/include/vulkan/vulkan_core.h"
  },
  {
   "alignment" : 4,
   "linker_set_key" : "_ZTIP19VkFormatProperties2",
   "name" : "VkFormatProperties2 *",
   "referenced_type" : "_ZTI19VkFormatProperties2",
   "self_type" : "_ZTIP19VkFormatProperties2",
   "size" : 4,
   "source_file" : "/external/vulkan-headers/include/vulkan/vulkan_core.h"
  },
  {
   "alignment" : 4,
   "linker_set_key" : "_ZTIP19VkSubresourceLayout",
   "name" : "VkSubresourceLayout *",
   "referenced_type" : "_ZTI19VkSubresourceLayout",
   "self_type" : "_ZTIP19VkSubresourceLayout",
   "size" : 4,
   "source_file" : "/external/vulkan-headers/include/vulkan/vulkan_core.h"
  },
  {
   "alignment" : 4,
   "linker_set_key" : "_ZTIP20VkMemoryRequirements",
   "name" : "VkMemoryRequirements *",
   "referenced_type" : "_ZTI20VkMemoryRequirements",
   "self_type" : "_ZTIP20VkMemoryRequirements",
   "size" : 4,
   "source_file" : "/external/vulkan-headers/include/vulkan/vulkan_core.h"
  },
  {
   "alignment" : 4,
   "linker_set_key" : "_ZTIP21VkExtensionProperties",
   "name" : "VkExtensionProperties *",
   "referenced_type" : "_ZTI21VkExtensionProperties",
   "self_type" : "_ZTIP21VkExtensionProperties",
   "size" : 4,
   "source_file" : "/external/vulkan-headers/include/vulkan/vulkan_core.h"
  },
  {
   "alignment" : 4,
   "linker_set_key" : "_ZTIP21VkMemoryRequirements2",
   "name" : "VkMemoryRequirements2 *",
   "referenced_type" : "_ZTI21VkMemoryRequirements2",
   "self_type" : "_ZTIP21VkMemoryRequirements2",
   "size" : 4,
   "source_file" : "/external/vulkan-headers/include/vulkan/vulkan_core.h"
  },
  {
   "alignment" : 4,
   "linker_set_key" : "_ZTIP23VkImageFormatProperties",
   "name" : "VkImageFormatProperties *",
   "referenced_type" : "_ZTI23VkImageFormatProperties",
   "self_type" : "_ZTIP23VkImageFormatProperties",
   "size" : 4,
   "source_file" : "/external/vulkan-headers/include/vulkan/vulkan_core.h"
  },
  {
   "alignment" : 4,
   "linker_set_key" : "_ZTIP23VkQueueFamilyProperties",
   "name" : "VkQueueFamilyProperties *",
   "referenced_type" : "_ZTI23VkQueueFamilyProperties",
   "self_type" : "_ZTIP23VkQueueFamilyProperties",
   "size" : 4,
   "source_file" : "/external/vulkan-headers/include/vulkan/vulkan_core.h"
  },
  {
   "alignment" : 4,
   "linker_set_key" : "_ZTIP24VkImageFormatProperties2",
   "name" : "VkImageFormatProperties2 *",
   "referenced_type" : "_ZTI24VkImageFormatProperties2",
   "self_type" : "_ZTIP24VkImageFormatProperties2",
   "size" : 4,
   "source_file" : "/external/vulkan-headers/include/vulkan/vulkan_core.h"
  },
  {
   "alignment" : 4,
   "linker_set_key" : "_ZTIP24VkPhysicalDeviceFeatures",
   "name" : "VkPhysicalDeviceFeatures *",
   "referenced_type" : "_ZTI24VkPhysicalDeviceFeatures",
   "self_type" : "_ZTIP24VkPhysicalDeviceFeatures",
   "size" : 4,
   "source_file" : "/external/vulkan-headers/include/vulkan/vulkan_core.h"
  },
  {
   "alignment" : 4,
   "linker_set_key" : "_ZTIP24VkQueueFamilyProperties2",
   "name" : "VkQueueFamilyProperties2 *",
   "referenced_type" : "_ZTI24VkQueueFamilyProperties2",
   "self_type" : "_ZTIP24VkQueueFamilyProperties2",
   "size" : 4,
   "source_file" : "/external/vulkan-headers/include/vulkan/vulkan_core.h"
  },
  {
   "alignment" : 4,
   "linker_set_key" : "_ZTIP24VkSurfaceCapabilitiesKHR",
   "name" : "VkSurfaceCapabilitiesKHR *",
   "referenced_type" : "_ZTI24VkSurfaceCapabilitiesKHR",
   "self_type" : "_ZTIP24VkSurfaceCapabilitiesKHR",
   "size" : 4,
   "source_file" : "/external/vulkan-headers/include/vulkan/vulkan_core.h"
  },
  {
   "alignment" : 4,
   "linker_set_key" : "_ZTIP25VkExternalFenceProperties",
   "name" : "VkExternalFenceProperties *",
   "referenced_type" : "_ZTI25VkExternalFenceProperties",
   "self_type" : "_ZTIP25VkExternalFenceProperties",
   "size" : 4,
   "source_file" : "/external/vulkan-headers/include/vulkan/vulkan_core.h"
  },
  {
   "alignment" : 4,
   "linker_set_key" : "_ZTIP25VkPhysicalDeviceFeatures2",
   "name" : "VkPhysicalDeviceFeatures2 *",
   "referenced_type" : "_ZTI25VkPhysicalDeviceFeatures2",
   "self_type" : "_ZTIP25VkPhysicalDeviceFeatures2",
   "size" : 4,
   "source_file" : "/external/vulkan-headers/include/vulkan/vulkan_core.h"
  },
  {
   "alignment" : 4,
   "linker_set_key" : "_ZTIP26VkExternalBufferProperties",
   "name" : "VkExternalBufferProperties *",
   "referenced_type" : "_ZTI26VkExternalBufferProperties",
   "self_type" : "_ZTIP26VkExternalBufferProperties",
   "size" : 4,
   "source_file" : "/external/vulkan-headers/include/vulkan/vulkan_core.h"
  },
  {
   "alignment" : 4,
   "linker_set_key" : "_ZTIP26VkPhysicalDeviceProperties",
   "name" : "VkPhysicalDeviceProperties *",
   "referenced_type" : "_ZTI26VkPhysicalDeviceProperties",
   "self_type" : "_ZTIP26VkPhysicalDeviceProperties",
   "size" : 4,
   "source_file" : "/external/vulkan-headers/include/vulkan/vulkan_core.h"
  },
  {
   "alignment" : 4,
   "linker_set_key" : "_ZTIP27VkPhysicalDeviceProperties2",
   "name" : "VkPhysicalDeviceProperties2 *",
   "referenced_type" : "_ZTI27VkPhysicalDeviceProperties2",
   "self_type" : "_ZTIP27VkPhysicalDeviceProperties2",
   "size" : 4,
   "source_file" : "/external/vulkan-headers/include/vulkan/vulkan_core.h"
  },
  {
   "alignment" : 4,
   "linker_set_key" : "_ZTIP28VkDescriptorSetLayoutSupport",
   "name" : "VkDescriptorSetLayoutSupport *",
   "referenced_type" : "_ZTI28VkDescriptorSetLayoutSupport",
   "self_type" : "_ZTIP28VkDescriptorSetLayoutSupport",
   "size" : 4,
   "source_file" : "/external/vulkan-headers/include/vulkan/vulkan_core.h"
  },
  {
   "alignment" : 4,
   "linker_set_key" : "_ZTIP29VkExternalSemaphoreProperties",
   "name" : "VkExternalSemaphoreProperties *",
   "referenced_type" : "_ZTI29VkExternalSemaphoreProperties",
   "self_type" : "_ZTIP29VkExternalSemaphoreProperties",
   "size" : 4,
   "source_file" : "/external/vulkan-headers/include/vulkan/vulkan_core.h"
  },
  {
   "alignment" : 4,
   "linker_set_key" : "_ZTIP29VkPipelineCreationFeedbackEXT",
   "name" : "VkPipelineCreationFeedbackEXT *",
   "referenced_type" : "_ZTI29VkPipelineCreationFeedbackEXT",
   "self_type" : "_ZTIP29VkPipelineCreationFeedbackEXT",
   "size" : 4,
   "source_file" : "/external/vulkan-headers/include/vulkan/vulkan_core.h"
  },
  {
   "alignment" : 4,
   "linker_set_key" : "_ZTIP29VkSparseImageFormatProperties",
   "name" : "VkSparseImageFormatProperties *",
   "referenced_type" : "_ZTI29VkSparseImageFormatProperties",
   "self_type" : "_ZTIP29VkSparseImageFormatProperties",
   "size" : 4,
   "source_file" : "/external/vulkan-headers/include/vulkan/vulkan_core.h"
  },
  {
   "alignment" : 4,
   "linker_set_key" : "_ZTIP30VkSparseImageFormatProperties2",
   "name" : "VkSparseImageFormatProperties2 *",
   "referenced_type" : "_ZTI30VkSparseImageFormatProperties2",
   "self_type" : "_ZTIP30VkSparseImageFormatProperties2",
   "size" : 4,
   "source_file" : "/external/vulkan-headers/include/vulkan/vulkan_core.h"
  },
  {
   "alignment" : 4,
   "linker_set_key" : "_ZTIP31VkPhysicalDeviceGroupProperties",
   "name" : "VkPhysicalDeviceGroupProperties *",
   "referenced_type" : "_ZTI31VkPhysicalDeviceGroupProperties",
   "self_type" : "_ZTIP31VkPhysicalDeviceGroupProperties",
   "size" : 4,
   "source_file" : "/external/vulkan-headers/include/vulkan/vulkan_core.h"
  },
  {
   "alignment" : 4,
   "linker_set_key" : "_ZTIP31VkSparseImageMemoryRequirements",
   "name" : "VkSparseImageMemoryRequirements *",
   "referenced_type" : "_ZTI31VkSparseImageMemoryRequirements",
   "self_type" : "_ZTIP31VkSparseImageMemoryRequirements",
   "size" : 4,
   "source_file" : "/external/vulkan-headers/include/vulkan/vulkan_core.h"
  },
  {
   "alignment" : 4,
   "linker_set_key" : "_ZTIP32VkDrmFormatModifierPropertiesEXT",
   "name" : "VkDrmFormatModifierPropertiesEXT *",
   "referenced_type" : "_ZTI32VkDrmFormatModifierPropertiesEXT",
   "self_type" : "_ZTIP32VkDrmFormatModifierPropertiesEXT",
   "size" : 4,
   "source_file" : "/external/vulkan-headers/include/vulkan/vulkan_core.h"
  },
  {
   "alignment" : 4,
   "linker_set_key" : "_ZTIP32VkPhysicalDeviceMemoryProperties",
   "name" : "VkPhysicalDeviceMemoryProperties *",
   "referenced_type" : "_ZTI32VkPhysicalDeviceMemoryProperties",
   "self_type" : "_ZTIP32VkPhysicalDeviceMemoryProperties",
   "size" : 4,
   "source_file" : "/external/vulkan-headers/include/vulkan/vulkan_core.h"
  },
  {
   "alignment" : 4,
   "linker_set_key" : "_ZTIP32VkSparseImageMemoryRequirements2",
   "name" : "VkSparseImageMemoryRequirements2 *",
   "referenced_type" : "_ZTI32VkSparseImageMemoryRequirements2",
   "self_type" : "_ZTIP32VkSparseImageMemoryRequirements2",
   "size" : 4,
   "source_file" : "/external/vulkan-headers/include/vulkan/vulkan_core.h"
  },
  {
   "alignment" : 4,
   "linker_set_key" : "_ZTIP33VkPhysicalDeviceMemoryProperties2",
   "name" : "VkPhysicalDeviceMemoryProperties2 *",
   "referenced_type" : "_ZTI33VkPhysicalDeviceMemoryProperties2",
   "self_type" : "_ZTIP33VkPhysicalDeviceMemoryProperties2",
   "size" : 4,
   "source_file" : "/external/vulkan-headers/include/vulkan/vulkan_core.h"
  },
  {
   "alignment" : 4,
   "linker_set_key" : "_ZTIP35VkDeviceGroupPresentCapabilitiesKHR",
   "name" : "VkDeviceGroupPresentCapabilitiesKHR *",
   "referenced_type" : "_ZTI35VkDeviceGroupPresentCapabilitiesKHR",
   "self_type" : "_ZTIP35VkDeviceGroupPresentCapabilitiesKHR",
   "size" : 4,
   "source_file" : "/external/vulkan-headers/include/vulkan/vulkan_core.h"
  },
  {
   "alignment" : 4,
   "linker_set_key" : "_ZTIP40VkAndroidHardwareBufferPropertiesANDROID",
   "name" : "VkAndroidHardwareBufferPropertiesANDROID *",
   "referenced_type" : "_ZTI40VkAndroidHardwareBufferPropertiesANDROID",
   "self_type" : "_ZTIP40VkAndroidHardwareBufferPropertiesANDROID",
   "size" : 4,
   "source_file" : "/external/vulkan-headers/include/vulkan/vulkan_android.h"
  },
  {
   "alignment" : 4,
   "linker_set_key" : "_ZTIP8VkRect2D",
   "name" : "VkRect2D *",
   "referenced_type" : "_ZTI8VkRect2D",
   "self_type" : "_ZTIP8VkRect2D",
   "size" : 4,
   "source_file" : "/external/vulkan-headers/include/vulkan/vulkan_core.h"
  },
  {
   "alignment" : 4,
   "linker_set_key" : "_ZTIP8VkResult",
   "name" : "VkResult *",
   "referenced_type" : "_ZTI8VkResult",
   "self_type" : "_ZTIP8VkResult",
   "size" : 4,
   "source_file" : "/external/vulkan-headers/include/vulkan/vulkan_core.h"
  },
  {
   "alignment" : 4,
   "linker_set_key" : "_ZTIP9VkQueue_T",
   "name" : "VkQueue_T *",
   "referenced_type" : "_ZTI9VkQueue_T",
   "self_type" : "_ZTIP9VkQueue_T",
   "size" : 4,
   "source_file" : "/external/vulkan-headers/include/vulkan/vulkan_core.h"
  },
  {
   "alignment" : 4,
   "linker_set_key" : "_ZTIPFPvS_S_jj23VkSystemAllocationScopeE",
   "name" : "void *(*)(void *, void *, unsigned int, unsigned int, VkSystemAllocationScope) __attribute__((pcs(\"aapcs-vfp\")))",
   "referenced_type" : "_ZTIFPvS_S_jj23VkSystemAllocationScopeE",
   "self_type" : "_ZTIPFPvS_S_jj23VkSystemAllocationScopeE",
   "size" : 4,
   "source_file" : "/external/vulkan-headers/include/vulkan/vulkan_core.h"
  },
  {
   "alignment" : 4,
   "linker_set_key" : "_ZTIPFPvS_jj23VkSystemAllocationScopeE",
   "name" : "void *(*)(void *, unsigned int, unsigned int, VkSystemAllocationScope) __attribute__((pcs(\"aapcs-vfp\")))",
   "referenced_type" : "_ZTIFPvS_jj23VkSystemAllocationScopeE",
   "self_type" : "_ZTIPFPvS_jj23VkSystemAllocationScopeE",
   "size" : 4,
   "source_file" : "/external/vulkan-headers/include/vulkan/vulkan_core.h"
  },
  {
   "alignment" : 4,
   "linker_set_key" : "_ZTIPFj38VkDebugUtilsMessageSeverityFlagBitsEXTjPK36VkDebugUtilsMessengerCallbackDataEXTPvE",
   "name" : "unsigned int (*)(VkDebugUtilsMessageSeverityFlagBitsEXT, unsigned int, const VkDebugUtilsMessengerCallbackDataEXT *, void *) __attribute__((pcs(\"aapcs-vfp\")))",
   "referenced_type" : "_ZTIFj38VkDebugUtilsMessageSeverityFlagBitsEXTjPK36VkDebugUtilsMessengerCallbackDataEXTPvE",
   "self_type" : "_ZTIPFj38VkDebugUtilsMessageSeverityFlagBitsEXTjPK36VkDebugUtilsMessengerCallbackDataEXTPvE",
   "size" : 4,
   "source_file" : "/external/vulkan-headers/include/vulkan/vulkan_core.h"
  },
  {
   "alignment" : 4,
   "linker_set_key" : "_ZTIPFjj26VkDebugReportObjectTypeEXTyjiPKcS1_PvE",
   "name" : "unsigned int (*)(unsigned int, VkDebugReportObjectTypeEXT, unsigned long long, unsigned int, int, const char *, const char *, void *) __attribute__((pcs(\"aapcs-vfp\")))",
   "referenced_type" : "_ZTIFjj26VkDebugReportObjectTypeEXTyjiPKcS1_PvE",
   "self_type" : "_ZTIPFjj26VkDebugReportObjectTypeEXTyjiPKcS1_PvE",
   "size" : 4,
   "source_file" : "/external/vulkan-headers/include/vulkan/vulkan_core.h"
  },
  {
   "alignment" : 4,
   "linker_set_key" : "_ZTIPFvPvS_E",
   "name" : "void (*)(void *, void *) __attribute__((pcs(\"aapcs-vfp\")))",
   "referenced_type" : "_ZTIFvPvS_E",
   "self_type" : "_ZTIPFvPvS_E",
   "size" : 4,
   "source_file" : "/external/vulkan-headers/include/vulkan/vulkan_core.h"
  },
  {
   "alignment" : 4,
   "linker_set_key" : "_ZTIPFvPvj24VkInternalAllocationType23VkSystemAllocationScopeE",
   "name" : "void (*)(void *, unsigned int, VkInternalAllocationType, VkSystemAllocationScope) __attribute__((pcs(\"aapcs-vfp\")))",
   "referenced_type" : "_ZTIFvPvj24VkInternalAllocationType23VkSystemAllocationScopeE",
   "self_type" : "_ZTIPFvPvj24VkInternalAllocationType23VkSystemAllocationScopeE",
   "size" : 4,
   "source_file" : "/external/vulkan-headers/include/vulkan/vulkan_core.h"
  },
  {
   "alignment" : 4,
   "linker_set_key" : "_ZTIPFvvE",
   "name" : "void (*)() __attribute__((pcs(\"aapcs-vfp\")))",
   "referenced_type" : "_ZTIFvvE",
   "self_type" : "_ZTIPFvvE",
   "size" : 4,
   "source_file" : "/external/vulkan-headers/include/vulkan/vulkan_core.h"
  },
  {
   "alignment" : 4,
   "linker_set_key" : "_ZTIPK10VkViewport",
   "name" : "const VkViewport *",
   "referenced_type" : "_ZTIK10VkViewport",
   "self_type" : "_ZTIPK10VkViewport",
   "size" : 4,
   "source_file" : "/external/vulkan-headers/include/vulkan/vulkan_core.h"
  },
  {
   "alignment" : 4,
   "linker_set_key" : "_ZTIPK11VkClearRect",
   "name" : "const VkClearRect *",
   "referenced_type" : "_ZTIK11VkClearRect",
   "self_type" : "_ZTIPK11VkClearRect",
   "size" : 4,
   "source_file" : "/external/vulkan-headers/include/vulkan/vulkan_core.h"
  },
  {
   "alignment" : 4,
   "linker_set_key" : "_ZTIPK11VkImageBlit",
   "name" : "const VkImageBlit *",
   "referenced_type" : "_ZTIK11VkImageBlit",
   "self_type" : "_ZTIPK11VkImageBlit",
   "size" : 4,
   "source_file" : "/external/vulkan-headers/include/vulkan/vulkan_core.h"
  },
  {
   "alignment" : 4,
   "linker_set_key" : "_ZTIPK11VkImageCopy",
   "name" : "const VkImageCopy *",
   "referenced_type" : "_ZTIK11VkImageCopy",
   "self_type" : "_ZTIPK11VkImageCopy",
   "size" : 4,
   "source_file" : "/external/vulkan-headers/include/vulkan/vulkan_core.h"
  },
  {
   "alignment" : 4,
   "linker_set_key" : "_ZTIPK12VkBufferCopy",
   "name" : "const VkBufferCopy *",
   "referenced_type" : "_ZTIK12VkBufferCopy",
   "self_type" : "_ZTIPK12VkBufferCopy",
   "size" : 4,
   "source_file" : "/external/vulkan-headers/include/vulkan/vulkan_core.h"
  },
  {
   "alignment" : 4,
   "linker_set_key" : "_ZTIPK12VkClearValue",
   "name" : "const VkClearValue *",
   "referenced_type" : "_ZTIK12VkClearValue",
   "self_type" : "_ZTIPK12VkClearValue",
   "size" : 4,
   "source_file" : "/external/vulkan-headers/include/vulkan/vulkan_core.h"
  },
  {
   "alignment" : 4,
   "linker_set_key" : "_ZTIPK12VkGeometryNV",
   "name" : "const VkGeometryNV *",
   "referenced_type" : "_ZTIK12VkGeometryNV",
   "self_type" : "_ZTIPK12VkGeometryNV",
   "size" : 4,
   "source_file" : "/external/vulkan-headers/include/vulkan/vulkan_core.h"
  },
  {
   "alignment" : 4,
   "linker_set_key" : "_ZTIPK12VkSubmitInfo",
   "name" : "const VkSubmitInfo *",
   "referenced_type" : "_ZTIK12VkSubmitInfo",
   "self_type" : "_ZTIPK12VkSubmitInfo",
   "size" : 4,
   "source_file" : "/external/vulkan-headers/include/vulkan/vulkan_core.h"
  },
  {
   "alignment" : 4,
   "linker_set_key" : "_ZTIPK14VkDynamicState",
   "name" : "const VkDynamicState *",
   "referenced_type" : "_ZTIK14VkDynamicState",
   "self_type" : "_ZTIPK14VkDynamicState",
   "size" : 4,
   "source_file" : "/external/vulkan-headers/include/vulkan/vulkan_core.h"
  },
  {
   "alignment" : 4,
   "linker_set_key" : "_ZTIPK14VkImageResolve",
   "name" : "const VkImageResolve *",
   "referenced_type" : "_ZTIK14VkImageResolve",
   "self_type" : "_ZTIPK14VkImageResolve",
   "size" : 4,
   "source_file" : "/external/vulkan-headers/include/vulkan/vulkan_core.h"
  },
  {
   "alignment" : 4,
   "linker_set_key" : "_ZTIPK14VkRectLayerKHR",
   "name" : "const VkRectLayerKHR *",
   "referenced_type" : "_ZTIK14VkRectLayerKHR",
   "self_type" : "_ZTIPK14VkRectLayerKHR",
   "size" : 4,
   "source_file" : "/external/vulkan-headers/include/vulkan/vulkan_core.h"
  },
  {
   "alignment" : 4,
   "linker_set_key" : "_ZTIPK15AHardwareBuffer",
   "name" : "const AHardwareBuffer *",
   "referenced_type" : "_ZTIK15AHardwareBuffer",
   "self_type" : "_ZTIPK15AHardwareBuffer",
   "size" : 4,
   "source_file" : "/external/vulkan-headers/include/vulkan/vulkan_android.h"
  },
  {
   "alignment" : 4,
   "linker_set_key" : "_ZTIPK15VkMemoryBarrier",
   "name" : "const VkMemoryBarrier *",
   "referenced_type" : "_ZTIK15VkMemoryBarrier",
   "self_type" : "_ZTIPK15VkMemoryBarrier",
   "size" : 4,
   "source_file" : "/external/vulkan-headers/include/vulkan/vulkan_core.h"
  },
  {
   "alignment" : 4,
   "linker_set_key" : "_ZTIPK16VkBindSparseInfo",
   "name" : "const VkBindSparseInfo *",
   "referenced_type" : "_ZTIK16VkBindSparseInfo",
   "self_type" : "_ZTIPK16VkBindSparseInfo",
   "size" : 4,
   "source_file" : "/external/vulkan-headers/include/vulkan/vulkan_core.h"
  },
  {
   "alignment" : 4,
   "linker_set_key" : "_ZTIPK16VkPresentInfoKHR",
   "name" : "const VkPresentInfoKHR *",
   "referenced_type" : "_ZTIK16VkPresentInfoKHR",
   "self_type" : "_ZTIPK16VkPresentInfoKHR",
   "size" : 4,
   "source_file" : "/external/vulkan-headers/include/vulkan/vulkan_core.h"
  },
  {
   "alignment" : 4,
   "linker_set_key" : "_ZTIPK17VkApplicationInfo",
   "name" : "const VkApplicationInfo *",
   "referenced_type" : "_ZTIK17VkApplicationInfo",
   "self_type" : "_ZTIPK17VkApplicationInfo",
   "size" : 4,
   "source_file" : "/external/vulkan-headers/include/vulkan/vulkan_core.h"
  },
  {
   "alignment" : 4,
   "linker_set_key" : "_ZTIPK17VkBaseInStructure",
   "name" : "const VkBaseInStructure *",
   "referenced_type" : "_ZTIK17VkBaseInStructure",
   "self_type" : "_ZTIPK17VkBaseInStructure",
   "size" : 4,
   "source_file" : "/external/vulkan-headers/include/vulkan/vulkan_core.h"
  },
  {
   "alignment" : 4,
   "linker_set_key" : "_ZTIPK17VkBufferImageCopy",
   "name" : "const VkBufferImageCopy *",
   "referenced_type" : "_ZTIK17VkBufferImageCopy",
   "self_type" : "_ZTIPK17VkBufferImageCopy",
   "size" : 4,
   "source_file" : "/external/vulkan-headers/include/vulkan/vulkan_core.h"
  },
  {
   "alignment" : 4,
   "linker_set_key" : "_ZTIPK17VkClearAttachment",
   "name" : "const VkClearAttachment *",
   "referenced_type" : "_ZTIK17VkClearAttachment",
   "self_type" : "_ZTIPK17VkClearAttachment",
   "size" : 4,
   "source_file" : "/external/vulkan-headers/include/vulkan/vulkan_core.h"
  },
  {
   "alignment" : 4,
   "linker_set_key" : "_ZTIPK17VkClearColorValue",
   "name" : "const VkClearColorValue *",
   "referenced_type" : "_ZTIK17VkClearColorValue",
   "self_type" : "_ZTIPK17VkClearColorValue",
   "size" : 4,
   "source_file" : "/external/vulkan-headers/include/vulkan/vulkan_core.h"
  },
  {
   "alignment" : 4,
   "linker_set_key" : "_ZTIPK17VkEventCreateInfo",
   "name" : "const VkEventCreateInfo *",
   "referenced_type" : "_ZTIK17VkEventCreateInfo",
   "self_type" : "_ZTIPK17VkEventCreateInfo",
   "size" : 4,
   "source_file" : "/external/vulkan-headers/include/vulkan/vulkan_core.h"
  },
  {
   "alignment" : 4,
   "linker_set_key" : "_ZTIPK17VkFenceCreateInfo",
   "name" : "const VkFenceCreateInfo *",
   "referenced_type" : "_ZTIK17VkFenceCreateInfo",
   "self_type" : "_ZTIPK17VkFenceCreateInfo",
   "size" : 4,
   "source_file" : "/external/vulkan-headers/include/vulkan/vulkan_core.h"
  },
  {
   "alignment" : 4,
   "linker_set_key" : "_ZTIPK17VkImageCreateInfo",
   "name" : "const VkImageCreateInfo *",
   "referenced_type" : "_ZTIK17VkImageCreateInfo",
   "self_type" : "_ZTIPK17VkImageCreateInfo",
   "size" : 4,
   "source_file" : "/external/vulkan-headers/include/vulkan/vulkan_core.h"
  },
  {
   "alignment" : 4,
   "linker_set_key" : "_ZTIPK18VkBufferCreateInfo",
   "name" : "const VkBufferCreateInfo *",
   "referenced_type" : "_ZTIK18VkBufferCreateInfo",
   "self_type" : "_ZTIPK18VkBufferCreateInfo",
   "size" : 4,
   "source_file" : "/external/vulkan-headers/include/vulkan/vulkan_core.h"
  },
  {
   "alignment" : 4,
   "linker_set_key" : "_ZTIPK18VkDeviceCreateInfo",
   "name" : "const VkDeviceCreateInfo *",
   "referenced_type" : "_ZTIK18VkDeviceCreateInfo",
   "self_type" : "_ZTIPK18VkDeviceCreateInfo",
   "size" : 4,
   "source_file" : "/external/vulkan-headers/include/vulkan/vulkan_core.h"
  },
  {
   "alignment" : 4,
   "linker_set_key" : "_ZTIPK18VkDeviceQueueInfo2",
   "name" : "const VkDeviceQueueInfo2 *",
   "referenced_type" : "_ZTIK18VkDeviceQueueInfo2",
   "self_type" : "_ZTIPK18VkDeviceQueueInfo2",
   "size" : 4,
   "source_file" : "/external/vulkan-headers/include/vulkan/vulkan_core.h"
  },
  {
   "alignment" : 4,
   "linker_set_key" : "_ZTIPK18VkImageSubresource",
   "name" : "const VkImageSubresource *",
   "referenced_type" : "_ZTIK18VkImageSubresource",
   "self_type" : "_ZTIPK18VkImageSubresource",
   "size" : 4,
   "source_file" : "/external/vulkan-headers/include/vulkan/vulkan_core.h"
  },
  {
   "alignment" : 4,
   "linker_set_key" : "_ZTIPK18VkPresentRegionKHR",
   "name" : "const VkPresentRegionKHR *",
   "referenced_type" : "_ZTIK18VkPresentRegionKHR",
   "self_type" : "_ZTIPK18VkPresentRegionKHR",
   "size" : 4,
   "source_file" : "/external/vulkan-headers/include/vulkan/vulkan_core.h"
  },
  {
   "alignment" : 4,
   "linker_set_key" : "_ZTIPK18VkSparseMemoryBind",
   "name" : "const VkSparseMemoryBind *",
   "referenced_type" : "_ZTIK18VkSparseMemoryBind",
   "self_type" : "_ZTIPK18VkSparseMemoryBind",
   "size" : 4,
   "source_file" : "/external/vulkan-headers/include/vulkan/vulkan_core.h"
  },
  {
   "alignment" : 4,
   "linker_set_key" : "_ZTIPK19VkCopyDescriptorSet",
   "name" : "const VkCopyDescriptorSet *",
   "referenced_type" : "_ZTIK19VkCopyDescriptorSet",
   "self_type" : "_ZTIPK19VkCopyDescriptorSet",
   "size" : 4,
   "source_file" : "/external/vulkan-headers/include/vulkan/vulkan_core.h"
  },
  {
   "alignment" : 4,
   "linker_set_key" : "_ZTIPK19VkMappedMemoryRange",
   "name" : "const VkMappedMemoryRange *",
   "referenced_type" : "_ZTIK19VkMappedMemoryRange",
   "self_type" : "_ZTIPK19VkMappedMemoryRange",
   "size" : 4,
   "source_file" : "/external/vulkan-headers/include/vulkan/vulkan_core.h"
  },
  {
   "alignment" : 4,
   "linker_set_key" : "_ZTIPK19VkPresentTimeGOOGLE",
   "name" : "const VkPresentTimeGOOGLE *",
   "referenced_type" : "_ZTIK19VkPresentTimeGOOGLE",
   "self_type" : "_ZTIPK19VkPresentTimeGOOGLE",
   "size" : 4,
   "source_file" : "/external/vulkan-headers/include/vulkan/vulkan_core.h"
  },
  {
   "alignment" : 4,
   "linker_set_key" : "_ZTIPK19VkPushConstantRange",
   "name" : "const VkPushConstantRange *",
   "referenced_type" : "_ZTIK19VkPushConstantRange",
   "self_type" : "_ZTIPK19VkPushConstantRange",
   "size" : 4,
   "source_file" : "/external/vulkan-headers/include/vulkan/vulkan_core.h"
  },
  {
   "alignment" : 4,
   "linker_set_key" : "_ZTIPK19VkSampleLocationEXT",
   "name" : "const VkSampleLocationEXT *",
   "referenced_type" : "_ZTIK19VkSampleLocationEXT",
   "self_type" : "_ZTIPK19VkSampleLocationEXT",
   "size" : 4,
   "source_file" : "/external/vulkan-headers/include/vulkan/vulkan_core.h"
  },
  {
   "alignment" : 4,
   "linker_set_key" : "_ZTIPK19VkSamplerCreateInfo",
   "name" : "const VkSamplerCreateInfo *",
   "referenced_type" : "_ZTIK19VkSamplerCreateInfo",
   "self_type" : "_ZTIPK19VkSamplerCreateInfo",
   "size" : 4,
   "source_file" : "/external/vulkan-headers/include/vulkan/vulkan_core.h"
  },
  {
   "alignment" : 4,
   "linker_set_key" : "_ZTIPK19VkSubpassDependency",
   "name" : "const VkSubpassDependency *",
   "referenced_type" : "_ZTIK19VkSubpassDependency",
   "self_type" : "_ZTIPK19VkSubpassDependency",
   "size" : 4,
   "source_file" : "/external/vulkan-headers/include/vulkan/vulkan_core.h"
  },
  {
   "alignment" : 4,
   "linker_set_key" : "_ZTIPK19VkSubresourceLayout",
   "name" : "const VkSubresourceLayout *",
   "referenced_type" : "_ZTIK19VkSubresourceLayout",
   "self_type" : "_ZTIPK19VkSubresourceLayout",
   "size" : 4,
   "source_file" : "/external/vulkan-headers/include/vulkan/vulkan_core.h"
  },
  {
   "alignment" : 4,
   "linker_set_key" : "_ZTIPK19VkViewportSwizzleNV",
   "name" : "const VkViewportSwizzleNV *",
   "referenced_type" : "_ZTIK19VkViewportSwizzleNV",
   "self_type" : "_ZTIPK19VkViewportSwizzleNV",
   "size" : 4,
   "source_file" : "/external/vulkan-headers/include/vulkan/vulkan_core.h"
  },
  {
   "alignment" : 4,
   "linker_set_key" : "_ZTIPK20VkDebugUtilsLabelEXT",
   "name" : "const VkDebugUtilsLabelEXT *",
   "referenced_type" : "_ZTIK20VkDebugUtilsLabelEXT",
   "self_type" : "_ZTIPK20VkDebugUtilsLabelEXT",
   "size" : 4,
   "source_file" : "/external/vulkan-headers/include/vulkan/vulkan_core.h"
  },
  {
   "alignment" : 4,
   "linker_set_key" : "_ZTIPK20VkDescriptorPoolSize",
   "name" : "const VkDescriptorPoolSize *",
   "referenced_type" : "_ZTIK20VkDescriptorPoolSize",
   "self_type" : "_ZTIPK20VkDescriptorPoolSize",
   "size" : 4,
   "source_file" : "/external/vulkan-headers/include/vulkan/vulkan_core.h"
  },
  {
   "alignment" : 4,
   "linker_set_key" : "_ZTIPK20VkImageMemoryBarrier",
   "name" : "const VkImageMemoryBarrier *",
   "referenced_type" : "_ZTIK20VkImageMemoryBarrier",
   "self_type" : "_ZTIPK20VkImageMemoryBarrier",
   "size" : 4,
   "source_file" : "/external/vulkan-headers/include/vulkan/vulkan_core.h"
  },
  {
   "alignment" : 4,
   "linker_set_key" : "_ZTIPK20VkInstanceCreateInfo",
   "name" : "const VkInstanceCreateInfo *",
   "referenced_type" : "_ZTIK20VkInstanceCreateInfo",
   "self_type" : "_ZTIPK20VkInstanceCreateInfo",
   "size" : 4,
   "source_file" : "/external/vulkan-headers/include/vulkan/vulkan_core.h"
  },
  {
   "alignment" : 4,
   "linker_set_key" : "_ZTIPK20VkMemoryAllocateInfo",
   "name" : "const VkMemoryAllocateInfo *",
   "referenced_type" : "_ZTIK20VkMemoryAllocateInfo",
   "self_type" : "_ZTIPK20VkMemoryAllocateInfo",
   "size" : 4,
   "source_file" : "/external/vulkan-headers/include/vulkan/vulkan_core.h"
  },
  {
   "alignment" : 4,
   "linker_set_key" : "_ZTIPK20VkObjectEntryTypeNVX",
   "name" : "const VkObjectEntryTypeNVX *",
   "referenced_type" : "_ZTIK20VkObjectEntryTypeNVX",
   "self_type" : "_ZTIPK20VkObjectEntryTypeNVX",
   "size" : 4,
   "source_file" : "/external/vulkan-headers/include/vulkan/vulkan_core.h"
  },
  {
   "alignment" : 4,
   "linker_set_key" : "_ZTIPK20VkSpecializationInfo",
   "name" : "const VkSpecializationInfo *",
   "referenced_type" : "_ZTIK20VkSpecializationInfo",
   "self_type" : "_ZTIPK20VkSpecializationInfo",
   "size" : 4,
   "source_file" : "/external/vulkan-headers/include/vulkan/vulkan_core.h"
  },
  {
   "alignment" : 4,
   "linker_set_key" : "_ZTIPK20VkSubpassDescription",
   "name" : "const VkSubpassDescription *",
   "referenced_type" : "_ZTIK20VkSubpassDescription",
   "self_type" : "_ZTIPK20VkSubpassDescription",
   "size" : 4,
   "source_file" : "/external/vulkan-headers/include/vulkan/vulkan_core.h"
  },
  {
   "alignment" : 4,
   "linker_set_key" : "_ZTIPK20VkValidationCheckEXT",
   "name" : "const VkValidationCheckEXT *",
   "referenced_type" : "_ZTIK20VkValidationCheckEXT",
   "self_type" : "_ZTIPK20VkValidationCheckEXT",
   "size" : 4,
   "source_file" : "/external/vulkan-headers/include/vulkan/vulkan_core.h"
  },
  {
   "alignment" : 4,
   "linker_set_key" : "_ZTIPK20VkViewportWScalingNV",
   "name" : "const VkViewportWScalingNV *",
   "referenced_type" : "_ZTIK20VkViewportWScalingNV",
   "self_type" : "_ZTIPK20VkViewportWScalingNV",
   "size" : 4,
   "source_file" : "/external/vulkan-headers/include/vulkan/vulkan_core.h"
  },
  {
   "alignment" : 4,
   "linker_set_key" : "_ZTIPK20VkWriteDescriptorSet",
   "name" : "const VkWriteDescriptorSet *",
   "referenced_type" : "_ZTIK20VkWriteDescriptorSet",
   "self_type" : "_ZTIPK20VkWriteDescriptorSet",
   "size" : 4,
   "source_file" : "/external/vulkan-headers/include/vulkan/vulkan_core.h"
  },
  {
   "alignment" : 4,
   "linker_set_key" : "_ZTIPK21VkAllocationCallbacks",
   "name" : "const VkAllocationCallbacks *",
   "referenced_type" : "_ZTIK21VkAllocationCallbacks",
   "self_type" : "_ZTIPK21VkAllocationCallbacks",
   "size" : 4,
   "source_file" : "/external/vulkan-headers/include/vulkan/vulkan_core.h"
  },
  {
   "alignment" : 4,
   "linker_set_key" : "_ZTIPK21VkAttachmentReference",
   "name" : "const VkAttachmentReference *",
   "referenced_type" : "_ZTIK21VkAttachmentReference",
   "self_type" : "_ZTIPK21VkAttachmentReference",
   "size" : 4,
   "source_file" : "/external/vulkan-headers/include/vulkan/vulkan_core.h"
  },
  {
   "alignment" : 4,
   "linker_set_key" : "_ZTIPK21VkBindImageMemoryInfo",
   "name" : "const VkBindImageMemoryInfo *",
   "referenced_type" : "_ZTIK21VkBindImageMemoryInfo",
   "self_type" : "_ZTIPK21VkBindImageMemoryInfo",
   "size" : 4,
   "source_file" : "/external/vulkan-headers/include/vulkan/vulkan_core.h"
  },
  {
   "alignment" : 4,
   "linker_set_key" : "_ZTIPK21VkBufferMemoryBarrier",
   "name" : "const VkBufferMemoryBarrier *",
   "referenced_type" : "_ZTIK21VkBufferMemoryBarrier",
   "self_type" : "_ZTIPK21VkBufferMemoryBarrier",
   "size" : 4,
   "source_file" : "/external/vulkan-headers/include/vulkan/vulkan_core.h"
  },
  {
   "alignment" : 4,
   "linker_set_key" : "_ZTIPK21VkDescriptorImageInfo",
   "name" : "const VkDescriptorImageInfo *",
   "referenced_type" : "_ZTIK21VkDescriptorImageInfo",
   "self_type" : "_ZTIPK21VkDescriptorImageInfo",
   "size" : 4,
   "source_file" : "/external/vulkan-headers/include/vulkan/vulkan_core.h"
  },
  {
   "alignment" : 4,
   "linker_set_key" : "_ZTIPK21VkImageViewCreateInfo",
   "name" : "const VkImageViewCreateInfo *",
   "referenced_type" : "_ZTIK21VkImageViewCreateInfo",
   "self_type" : "_ZTIPK21VkImageViewCreateInfo",
   "size" : 4,
   "source_file" : "/external/vulkan-headers/include/vulkan/vulkan_core.h"
  },
  {
   "alignment" : 4,
   "linker_set_key" : "_ZTIPK21VkQueryPoolCreateInfo",
   "name" : "const VkQueryPoolCreateInfo *",
   "referenced_type" : "_ZTIK21VkQueryPoolCreateInfo",
   "self_type" : "_ZTIPK21VkQueryPoolCreateInfo",
   "size" : 4,
   "source_file" : "/external/vulkan-headers/include/vulkan/vulkan_core.h"
  },
  {
   "alignment" : 4,
   "linker_set_key" : "_ZTIPK21VkRenderPassBeginInfo",
   "name" : "const VkRenderPassBeginInfo *",
   "referenced_type" : "_ZTIK21VkRenderPassBeginInfo",
   "self_type" : "_ZTIPK21VkRenderPassBeginInfo",
   "size" : 4,
   "source_file" : "/external/vulkan-headers/include/vulkan/vulkan_core.h"
  },
  {
   "alignment" : 4,
   "linker_set_key" : "_ZTIPK21VkSemaphoreCreateInfo",
   "name" : "const VkSemaphoreCreateInfo *",
   "referenced_type" : "_ZTIK21VkSemaphoreCreateInfo",
   "self_type" : "_ZTIPK21VkSemaphoreCreateInfo",
   "size" : 4,
   "source_file" : "/external/vulkan-headers/include/vulkan/vulkan_core.h"
  },
  {
   "alignment" : 4,
   "linker_set_key" : "_ZTIPK22VkBindBufferMemoryInfo",
   "name" : "const VkBindBufferMemoryInfo *",
   "referenced_type" : "_ZTIK22VkBindBufferMemoryInfo",
   "self_type" : "_ZTIPK22VkBindBufferMemoryInfo",
   "size" : 4,
   "source_file" : "/external/vulkan-headers/include/vulkan/vulkan_core.h"
  },
  {
   "alignment" : 4,
   "linker_set_key" : "_ZTIPK22VkBufferViewCreateInfo",
   "name" : "const VkBufferViewCreateInfo *",
   "referenced_type" : "_ZTIK22VkBufferViewCreateInfo",
   "self_type" : "_ZTIPK22VkBufferViewCreateInfo",
   "size" : 4,
   "source_file" : "/external/vulkan-headers/include/vulkan/vulkan_core.h"
  },
  {
   "alignment" : 4,
   "linker_set_key" : "_ZTIPK22VkDescriptorBufferInfo",
   "name" : "const VkDescriptorBufferInfo *",
   "referenced_type" : "_ZTIK22VkDescriptorBufferInfo",
   "self_type" : "_ZTIPK22VkDescriptorBufferInfo",
   "size" : 4,
   "source_file" : "/external/vulkan-headers/include/vulkan/vulkan_core.h"
  },
  {
   "alignment" : 4,
   "linker_set_key" : "_ZTIPK22VkRenderPassCreateInfo",
   "name" : "const VkRenderPassCreateInfo *",
   "referenced_type" : "_ZTIK22VkRenderPassCreateInfo",
   "self_type" : "_ZTIPK22VkRenderPassCreateInfo",
   "size" : 4,
   "source_file" : "/external/vulkan-headers/include/vulkan/vulkan_core.h"
  },
  {
   "alignment" : 4,
   "linker_set_key" : "_ZTIPK22VkShadingRatePaletteNV",
   "name" : "const VkShadingRatePaletteNV *",
   "referenced_type" : "_ZTIK22VkShadingRatePaletteNV",
   "self_type" : "_ZTIPK22VkShadingRatePaletteNV",
   "size" : 4,
   "source_file" : "/external/vulkan-headers/include/vulkan/vulkan_core.h"
  },
  {
   "alignment" : 4,
   "linker_set_key" : "_ZTIPK23VkAttachmentDescription",
   "name" : "const VkAttachmentDescription *",
   "referenced_type" : "_ZTIK23VkAttachmentDescription",
   "self_type" : "_ZTIPK23VkAttachmentDescription",
   "size" : 4,
   "source_file" : "/external/vulkan-headers/include/vulkan/vulkan_core.h"
  },
  {
   "alignment" : 4,
   "linker_set_key" : "_ZTIPK23VkCommandPoolCreateInfo",
   "name" : "const VkCommandPoolCreateInfo *",
   "referenced_type" : "_ZTIK23VkCommandPoolCreateInfo",
   "self_type" : "_ZTIPK23VkCommandPoolCreateInfo",
   "size" : 4,
   "source_file" : "/external/vulkan-headers/include/vulkan/vulkan_core.h"
  },
  {
   "alignment" : 4,
   "linker_set_key" : "_ZTIPK23VkDeviceQueueCreateInfo",
   "name" : "const VkDeviceQueueCreateInfo *",
   "referenced_type" : "_ZTIK23VkDeviceQueueCreateInfo",
   "self_type" : "_ZTIPK23VkDeviceQueueCreateInfo",
   "size" : 4,
   "source_file" : "/external/vulkan-headers/include/vulkan/vulkan_core.h"
  },
  {
   "alignment" : 4,
   "linker_set_key" : "_ZTIPK23VkFramebufferCreateInfo",
   "name" : "const VkFramebufferCreateInfo *",
   "referenced_type" : "_ZTIK23VkFramebufferCreateInfo",
   "self_type" : "_ZTIPK23VkFramebufferCreateInfo",
   "size" : 4,
   "source_file" : "/external/vulkan-headers/include/vulkan/vulkan_core.h"
  },
  {
   "alignment" : 4,
   "linker_set_key" : "_ZTIPK23VkImageSubresourceRange",
   "name" : "const VkImageSubresourceRange *",
   "referenced_type" : "_ZTIK23VkImageSubresourceRange",
   "self_type" : "_ZTIPK23VkImageSubresourceRange",
   "size" : 4,
   "source_file" : "/external/vulkan-headers/include/vulkan/vulkan_core.h"
  },
  {
   "alignment" : 4,
   "linker_set_key" : "_ZTIPK23VkSparseImageMemoryBind",
   "name" : "const VkSparseImageMemoryBind *",
   "referenced_type" : "_ZTIK23VkSparseImageMemoryBind",
   "self_type" : "_ZTIPK23VkSparseImageMemoryBind",
   "size" : 4,
   "source_file" : "/external/vulkan-headers/include/vulkan/vulkan_core.h"
  },
  {
   "alignment" : 4,
   "linker_set_key" : "_ZTIPK23VkSubpassDependency2KHR",
   "name" : "const VkSubpassDependency2KHR *",
   "referenced_type" : "_ZTIK23VkSubpassDependency2KHR",
   "self_type" : "_ZTIPK23VkSubpassDependency2KHR",
   "size" : 4,
   "source_file" : "/external/vulkan-headers/include/vulkan/vulkan_core.h"
  },
  {
   "alignment" : 4,
   "linker_set_key" : "_ZTIPK24VkClearDepthStencilValue",
   "name" : "const VkClearDepthStencilValue *",
   "referenced_type" : "_ZTIK24VkClearDepthStencilValue",
   "self_type" : "_ZTIPK24VkClearDepthStencilValue",
   "size" : 4,
   "source_file" : "/external/vulkan-headers/include/vulkan/vulkan_core.h"
  },
  {
   "alignment" : 4,
   "linker_set_key" : "_ZTIPK24VkCoarseSampleLocationNV",
   "name" : "const VkCoarseSampleLocationNV *",
   "referenced_type" : "_ZTIK24VkCoarseSampleLocationNV",
   "self_type" : "_ZTIPK24VkCoarseSampleLocationNV",
   "size" : 4,
   "source_file" : "/external/vulkan-headers/include/vulkan/vulkan_core.h"
  },
  {
   "alignment" : 4,
   "linker_set_key" : "_ZTIPK24VkCommandBufferBeginInfo",
   "name" : "const VkCommandBufferBeginInfo *",
   "referenced_type" : "_ZTIK24VkCommandBufferBeginInfo",
   "self_type" : "_ZTIPK24VkCommandBufferBeginInfo",
   "size" : 4,
   "source_file" : "/external/vulkan-headers/include/vulkan/vulkan_core.h"
  },
  {
   "alignment" : 4,
   "linker_set_key" : "_ZTIPK24VkPhysicalDeviceFeatures",
   "name" : "const VkPhysicalDeviceFeatures *",
   "referenced_type" : "_ZTIK24VkPhysicalDeviceFeatures",
   "self_type" : "_ZTIPK24VkPhysicalDeviceFeatures",
   "size" : 4,
   "source_file" : "/external/vulkan-headers/include/vulkan/vulkan_core.h"
  },
  {
   "alignment" : 4,
   "linker_set_key" : "_ZTIPK24VkShaderModuleCreateInfo",
   "name" : "const VkShaderModuleCreateInfo *",
   "referenced_type" : "_ZTIK24VkShaderModuleCreateInfo",
   "self_type" : "_ZTIPK24VkShaderModuleCreateInfo",
   "size" : 4,
   "source_file" : "/external/vulkan-headers/include/vulkan/vulkan_core.h"
  },
  {
   "alignment" : 4,
   "linker_set_key" : "_ZTIPK24VkSpecializationMapEntry",
   "name" : "const VkSpecializationMapEntry *",
   "referenced_type" : "_ZTIK24VkSpecializationMapEntry",
   "self_type" : "_ZTIPK24VkSpecializationMapEntry",
   "size" : 4,
   "source_file" : "/external/vulkan-headers/include/vulkan/vulkan_core.h"
  },
  {
   "alignment" : 4,
   "linker_set_key" : "_ZTIPK24VkSubpassDescription2KHR",
   "name" : "const VkSubpassDescription2KHR *",
   "referenced_type" : "_ZTIK24VkSubpassDescription2KHR",
   "self_type" : "_ZTIPK24VkSubpassDescription2KHR",
   "size" : 4,
   "source_file" : "/external/vulkan-headers/include/vulkan/vulkan_core.h"
  },
  {
   "alignment" : 4,
   "linker_set_key" : "_ZTIPK24VkSwapchainCreateInfoKHR",
   "name" : "const VkSwapchainCreateInfoKHR *",
   "referenced_type" : "_ZTIK24VkSwapchainCreateInfoKHR",
   "self_type" : "_ZTIPK24VkSwapchainCreateInfoKHR",
   "size" : 4,
   "source_file" : "/external/vulkan-headers/include/vulkan/vulkan_core.h"
  },
  {
   "alignment" : 4,
   "linker_set_key" : "_ZTIPK25VkAcquireNextImageInfoKHR",
   "name" : "const VkAcquireNextImageInfoKHR *",
   "referenced_type" : "_ZTIK25VkAcquireNextImageInfoKHR",
   "self_type" : "_ZTIPK25VkAcquireNextImageInfoKHR",
   "size" : 4,
   "source_file" : "/external/vulkan-headers/include/vulkan/vulkan_core.h"
  },
  {
   "alignment" : 4,
   "linker_set_key" : "_ZTIPK25VkAttachmentReference2KHR",
   "name" : "const VkAttachmentReference2KHR *",
   "referenced_type" : "_ZTIK25VkAttachmentReference2KHR",
   "self_type" : "_ZTIPK25VkAttachmentReference2KHR",
   "size" : 4,
   "source_file" : "/external/vulkan-headers/include/vulkan/vulkan_core.h"
  },
  {
   "alignment" : 4,
   "linker_set_key" : "_ZTIPK25VkPipelineCacheCreateInfo",
   "name" : "const VkPipelineCacheCreateInfo *",
   "referenced_type" : "_ZTIK25VkPipelineCacheCreateInfo",
   "self_type" : "_ZTIPK25VkPipelineCacheCreateInfo",
   "size" : 4,
   "source_file" : "/external/vulkan-headers/include/vulkan/vulkan_core.h"
  },
  {
   "alignment" : 4,
   "linker_set_key" : "_ZTIPK26VkDescriptorPoolCreateInfo",
   "name" : "const VkDescriptorPoolCreateInfo *",
   "referenced_type" : "_ZTIK26VkDescriptorPoolCreateInfo",
   "self_type" : "_ZTIPK26VkDescriptorPoolCreateInfo",
   "size" : 4,
   "source_file" : "/external/vulkan-headers/include/vulkan/vulkan_core.h"
  },
  {
   "alignment" : 4,
   "linker_set_key" : "_ZTIPK26VkIndirectCommandsTokenNVX",
   "name" : "const VkIndirectCommandsTokenNVX *",
   "referenced_type" : "_ZTIK26VkIndirectCommandsTokenNVX",
   "self_type" : "_ZTIPK26VkIndirectCommandsTokenNVX",
   "size" : 4,
   "source_file" : "/external/vulkan-headers/include/vulkan/vulkan_core.h"
  },
  {
   "alignment" : 4,
   "linker_set_key" : "_ZTIPK26VkPipelineLayoutCreateInfo",
   "name" : "const VkPipelineLayoutCreateInfo *",
   "referenced_type" : "_ZTIK26VkPipelineLayoutCreateInfo",
   "self_type" : "_ZTIPK26VkPipelineLayoutCreateInfo",
   "size" : 4,
   "source_file" : "/external/vulkan-headers/include/vulkan/vulkan_core.h"
  },
  {
   "alignment" : 4,
   "linker_set_key" : "_ZTIPK27VkAttachmentDescription2KHR",
   "name" : "const VkAttachmentDescription2KHR *",
   "referenced_type" : "_ZTIK27VkAttachmentDescription2KHR",
   "self_type" : "_ZTIPK27VkAttachmentDescription2KHR",
   "size" : 4,
   "source_file" : "/external/vulkan-headers/include/vulkan/vulkan_core.h"
  },
  {
   "alignment" : 4,
   "linker_set_key" : "_ZTIPK27VkCoarseSampleOrderCustomNV",
   "name" : "const VkCoarseSampleOrderCustomNV *",
   "referenced_type" : "_ZTIK27VkCoarseSampleOrderCustomNV",
   "self_type" : "_ZTIPK27VkCoarseSampleOrderCustomNV",
   "size" : 4,
   "source_file" : "/external/vulkan-headers/include/vulkan/vulkan_core.h"
  },
  {
   "alignment" : 4,
   "linker_set_key" : "_ZTIPK27VkCommandBufferAllocateInfo",
   "name" : "const VkCommandBufferAllocateInfo *",
   "referenced_type" : "_ZTIK27VkCommandBufferAllocateInfo",
   "self_type" : "_ZTIPK27VkCommandBufferAllocateInfo",
   "size" : 4,
   "source_file" : "/external/vulkan-headers/include/vulkan/vulkan_core.h"
  },
  {
   "alignment" : 4,
   "linker_set_key" : "_ZTIPK27VkComputePipelineCreateInfo",
   "name" : "const VkComputePipelineCreateInfo *",
   "referenced_type" : "_ZTIK27VkComputePipelineCreateInfo",
   "self_type" : "_ZTIPK27VkComputePipelineCreateInfo",
   "size" : 4,
   "source_file" : "/external/vulkan-headers/include/vulkan/vulkan_core.h"
  },
  {
   "alignment" : 4,
   "linker_set_key" : "_ZTIPK27VkDescriptorSetAllocateInfo",
   "name" : "const VkDescriptorSetAllocateInfo *",
   "referenced_type" : "_ZTIK27VkDescriptorSetAllocateInfo",
   "self_type" : "_ZTIPK27VkDescriptorSetAllocateInfo",
   "size" : 4,
   "source_file" : "/external/vulkan-headers/include/vulkan/vulkan_core.h"
  },
  {
   "alignment" : 4,
   "linker_set_key" : "_ZTIPK27VkShadingRatePaletteEntryNV",
   "name" : "const VkShadingRatePaletteEntryNV *",
   "referenced_type" : "_ZTIK27VkShadingRatePaletteEntryNV",
   "self_type" : "_ZTIPK27VkShadingRatePaletteEntryNV",
   "size" : 4,
   "source_file" : "/external/vulkan-headers/include/vulkan/vulkan_core.h"
  },
  {
   "alignment" : 4,
   "linker_set_key" : "_ZTIPK27VkSparseImageMemoryBindInfo",
   "name" : "const VkSparseImageMemoryBindInfo *",
   "referenced_type" : "_ZTIK27VkSparseImageMemoryBindInfo",
   "self_type" : "_ZTIPK27VkSparseImageMemoryBindInfo",
   "size" : 4,
   "source_file" : "/external/vulkan-headers/include/vulkan/vulkan_core.h"
  },
  {
   "alignment" : 4,
   "linker_set_key" : "_ZTIPK27VkSubpassSampleLocationsEXT",
   "name" : "const VkSubpassSampleLocationsEXT *",
   "referenced_type" : "_ZTIK27VkSubpassSampleLocationsEXT",
   "self_type" : "_ZTIPK27VkSubpassSampleLocationsEXT",
   "size" : 4,
   "source_file" : "/external/vulkan-headers/include/vulkan/vulkan_core.h"
  },
  {
   "alignment" : 4,
   "linker_set_key" : "_ZTIPK28VkDescriptorSetLayoutBinding",
   "name" : "const VkDescriptorSetLayoutBinding *",
   "referenced_type" : "_ZTIK28VkDescriptorSetLayoutBinding",
   "self_type" : "_ZTIPK28VkDescriptorSetLayoutBinding",
   "size" : 4,
   "source_file" : "/external/vulkan-headers/include/vulkan/vulkan_core.h"
  },
  {
   "alignment" : 4,
   "linker_set_key" : "_ZTIPK28VkGraphicsPipelineCreateInfo",
   "name" : "const VkGraphicsPipelineCreateInfo *",
   "referenced_type" : "_ZTIK28VkGraphicsPipelineCreateInfo",
   "self_type" : "_ZTIPK28VkGraphicsPipelineCreateInfo",
   "size" : 4,
   "source_file" : "/external/vulkan-headers/include/vulkan/vulkan_core.h"
  },
  {
   "alignment" : 4,
   "linker_set_key" : "_ZTIPK28VkSparseBufferMemoryBindInfo",
   "name" : "const VkSparseBufferMemoryBindInfo *",
   "referenced_type" : "_ZTIK28VkSparseBufferMemoryBindInfo",
   "self_type" : "_ZTIPK28VkSparseBufferMemoryBindInfo",
   "size" : 4,
   "source_file" : "/external/vulkan-headers/include/vulkan/vulkan_core.h"
  },
  {
   "alignment" : 4,
   "linker_set_key" : "_ZTIPK28VkValidationFeatureEnableEXT",
   "name" : "const VkValidationFeatureEnableEXT *",
   "referenced_type" : "_ZTIK28VkValidationFeatureEnableEXT",
   "self_type" : "_ZTIPK28VkValidationFeatureEnableEXT",
   "size" : 4,
   "source_file" : "/external/vulkan-headers/include/vulkan/vulkan_core.h"
  },
  {
   "alignment" : 4,
   "linker_set_key" : "_ZTIPK29VkAndroidSurfaceCreateInfoKHR",
   "name" : "const VkAndroidSurfaceCreateInfoKHR *",
   "referenced_type" : "_ZTIK29VkAndroidSurfaceCreateInfoKHR",
   "self_type" : "_ZTIPK29VkAndroidSurfaceCreateInfoKHR",
   "size" : 4,
   "source_file" : "/external/vulkan-headers/include/vulkan/vulkan_android.h"
  },
  {
   "alignment" : 4,
   "linker_set_key" : "_ZTIPK29VkDebugUtilsObjectNameInfoEXT",
   "name" : "const VkDebugUtilsObjectNameInfoEXT *",
   "referenced_type" : "_ZTIK29VkDebugUtilsObjectNameInfoEXT",
   "self_type" : "_ZTIPK29VkDebugUtilsObjectNameInfoEXT",
   "size" : 4,
   "source_file" : "/external/vulkan-headers/include/vulkan/vulkan_core.h"
  },
  {
   "alignment" : 4,
   "linker_set_key" : "_ZTIPK29VkValidationFeatureDisableEXT",
   "name" : "const VkValidationFeatureDisableEXT *",
   "referenced_type" : "_ZTIK29VkValidationFeatureDisableEXT",
   "self_type" : "_ZTIPK29VkValidationFeatureDisableEXT",
   "size" : 4,
   "source_file" : "/external/vulkan-headers/include/vulkan/vulkan_core.h"
  },
  {
   "alignment" : 4,
   "linker_set_key" : "_ZTIPK30VkAttachmentSampleLocationsEXT",
   "name" : "const VkAttachmentSampleLocationsEXT *",
   "referenced_type" : "_ZTIK30VkAttachmentSampleLocationsEXT",
   "self_type" : "_ZTIPK30VkAttachmentSampleLocationsEXT",
   "size" : 4,
   "source_file" : "/external/vulkan-headers/include/vulkan/vulkan_core.h"
  },
  {
   "alignment" : 4,
   "linker_set_key" : "_ZTIPK30VkCommandBufferInheritanceInfo",
   "name" : "const VkCommandBufferInheritanceInfo *",
   "referenced_type" : "_ZTIK30VkCommandBufferInheritanceInfo",
   "self_type" : "_ZTIPK30VkCommandBufferInheritanceInfo",
   "size" : 4,
   "source_file" : "/external/vulkan-headers/include/vulkan/vulkan_core.h"
  },
  {
   "alignment" : 4,
   "linker_set_key" : "_ZTIPK30VkImageMemoryRequirementsInfo2",
   "name" : "const VkImageMemoryRequirementsInfo2 *",
   "referenced_type" : "_ZTIK30VkImageMemoryRequirementsInfo2",
   "self_type" : "_ZTIPK30VkImageMemoryRequirementsInfo2",
   "size" : 4,
   "source_file" : "/external/vulkan-headers/include/vulkan/vulkan_core.h"
  },
  {
   "alignment" : 4,
   "linker_set_key" : "_ZTIPK31VkBufferMemoryRequirementsInfo2",
   "name" : "const VkBufferMemoryRequirementsInfo2 *",
   "referenced_type" : "_ZTIK31VkBufferMemoryRequirementsInfo2",
   "self_type" : "_ZTIPK31VkBufferMemoryRequirementsInfo2",
   "size" : 4,
   "source_file" : "/external/vulkan-headers/include/vulkan/vulkan_core.h"
  },
  {
   "alignment" : 4,
   "linker_set_key" : "_ZTIPK31VkDescriptorSetLayoutCreateInfo",
   "name" : "const VkDescriptorSetLayoutCreateInfo *",
   "referenced_type" : "_ZTIK31VkDescriptorSetLayoutCreateInfo",
   "self_type" : "_ZTIPK31VkDescriptorSetLayoutCreateInfo",
   "size" : 4,
   "source_file" : "/external/vulkan-headers/include/vulkan/vulkan_core.h"
  },
  {
   "alignment" : 4,
   "linker_set_key" : "_ZTIPK31VkDescriptorUpdateTemplateEntry",
   "name" : "const VkDescriptorUpdateTemplateEntry *",
   "referenced_type" : "_ZTIK31VkDescriptorUpdateTemplateEntry",
   "self_type" : "_ZTIPK31VkDescriptorUpdateTemplateEntry",
   "size" : 4,
   "source_file" : "/external/vulkan-headers/include/vulkan/vulkan_core.h"
  },
  {
   "alignment" : 4,
   "linker_set_key" : "_ZTIPK31VkPipelineShaderStageCreateInfo",
   "name" : "const VkPipelineShaderStageCreateInfo *",
   "referenced_type" : "_ZTIK31VkPipelineShaderStageCreateInfo",
   "self_type" : "_ZTIPK31VkPipelineShaderStageCreateInfo",
   "size" : 4,
   "source_file" : "/external/vulkan-headers/include/vulkan/vulkan_core.h"
  },
  {
   "alignment" : 4,
   "linker_set_key" : "_ZTIPK31VkVertexInputBindingDescription",
   "name" : "const VkVertexInputBindingDescription *",
   "referenced_type" : "_ZTIK31VkVertexInputBindingDescription",
   "self_type" : "_ZTIPK31VkVertexInputBindingDescription",
   "size" : 4,
   "source_file" : "/external/vulkan-headers/include/vulkan/vulkan_core.h"
  },
  {
   "alignment" : 4,
   "linker_set_key" : "_ZTIPK32VkIndirectCommandsLayoutTokenNVX",
   "name" : "const VkIndirectCommandsLayoutTokenNVX *",
   "referenced_type" : "_ZTIK32VkIndirectCommandsLayoutTokenNVX",
   "self_type" : "_ZTIPK32VkIndirectCommandsLayoutTokenNVX",
   "size" : 4,
   "source_file" : "/external/vulkan-headers/include/vulkan/vulkan_core.h"
  },
  {
   "alignment" : 4,
   "linker_set_key" : "_ZTIPK32VkInputAttachmentAspectReference",
   "name" : "const VkInputAttachmentAspectReference *",
   "referenced_type" : "_ZTIK32VkInputAttachmentAspectReference",
   "self_type" : "_ZTIPK32VkInputAttachmentAspectReference",
   "size" : 4,
   "source_file" : "/external/vulkan-headers/include/vulkan/vulkan_core.h"
  },
  {
   "alignment" : 4,
   "linker_set_key" : "_ZTIPK32VkPhysicalDeviceImageFormatInfo2",
   "name" : "const VkPhysicalDeviceImageFormatInfo2 *",
   "referenced_type" : "_ZTIK32VkPhysicalDeviceImageFormatInfo2",
   "self_type" : "_ZTIPK32VkPhysicalDeviceImageFormatInfo2",
   "size" : 4,
   "source_file" : "/external/vulkan-headers/include/vulkan/vulkan_core.h"
  },
  {
   "alignment" : 4,
   "linker_set_key" : "_ZTIPK32VkPipelineDynamicStateCreateInfo",
   "name" : "const VkPipelineDynamicStateCreateInfo *",
   "referenced_type" : "_ZTIK32VkPipelineDynamicStateCreateInfo",
   "self_type" : "_ZTIPK32VkPipelineDynamicStateCreateInfo",
   "size" : 4,
   "source_file" : "/external/vulkan-headers/include/vulkan/vulkan_core.h"
  },
  {
   "alignment" : 4,
   "linker_set_key" : "_ZTIPK33VkPhysicalDeviceExternalFenceInfo",
   "name" : "const VkPhysicalDeviceExternalFenceInfo *",
   "referenced_type" : "_ZTIK33VkPhysicalDeviceExternalFenceInfo",
   "self_type" : "_ZTIPK33VkPhysicalDeviceExternalFenceInfo",
   "size" : 4,
   "source_file" : "/external/vulkan-headers/include/vulkan/vulkan_core.h"
  },
  {
   "alignment" : 4,
   "linker_set_key" : "_ZTIPK33VkPipelineViewportStateCreateInfo",
   "name" : "const VkPipelineViewportStateCreateInfo *",
   "referenced_type" : "_ZTIK33VkPipelineViewportStateCreateInfo",
   "self_type" : "_ZTIPK33VkPipelineViewportStateCreateInfo",
   "size" : 4,
   "source_file" : "/external/vulkan-headers/include/vulkan/vulkan_core.h"
  },
  {
   "alignment" : 4,
   "linker_set_key" : "_ZTIPK33VkSparseImageOpaqueMemoryBindInfo",
   "name" : "const VkSparseImageOpaqueMemoryBindInfo *",
   "referenced_type" : "_ZTIK33VkSparseImageOpaqueMemoryBindInfo",
   "self_type" : "_ZTIPK33VkSparseImageOpaqueMemoryBindInfo",
   "size" : 4,
   "source_file" : "/external/vulkan-headers/include/vulkan/vulkan_core.h"
  },
  {
   "alignment" : 4,
   "linker_set_key" : "_ZTIPK33VkVertexInputAttributeDescription",
   "name" : "const VkVertexInputAttributeDescription *",
   "referenced_type" : "_ZTIK33VkVertexInputAttributeDescription",
   "self_type" : "_ZTIPK33VkVertexInputAttributeDescription",
   "size" : 4,
   "source_file" : "/external/vulkan-headers/include/vulkan/vulkan_core.h"
  },
  {
   "alignment" : 4,
   "linker_set_key" : "_ZTIPK34VkPhysicalDeviceExternalBufferInfo",
   "name" : "const VkPhysicalDeviceExternalBufferInfo *",
   "referenced_type" : "_ZTIK34VkPhysicalDeviceExternalBufferInfo",
   "self_type" : "_ZTIPK34VkPhysicalDeviceExternalBufferInfo",
   "size" : 4,
   "source_file" : "/external/vulkan-headers/include/vulkan/vulkan_core.h"
  },
  {
   "alignment" : 4,
   "linker_set_key" : "_ZTIPK34VkSamplerYcbcrConversionCreateInfo",
   "name" : "const VkSamplerYcbcrConversionCreateInfo *",
   "referenced_type" : "_ZTIK34VkSamplerYcbcrConversionCreateInfo",
   "self_type" : "_ZTIPK34VkSamplerYcbcrConversionCreateInfo",
   "size" : 4,
   "source_file" : "/external/vulkan-headers/include/vulkan/vulkan_core.h"
  },
  {
   "alignment" : 4,
   "linker_set_key" : "_ZTIPK35VkFramebufferAttachmentImageInfoKHR",
   "name" : "const VkFramebufferAttachmentImageInfoKHR *",
   "referenced_type" : "_ZTIK35VkFramebufferAttachmentImageInfoKHR",
   "self_type" : "_ZTIPK35VkFramebufferAttachmentImageInfoKHR",
   "size" : 4,
   "source_file" : "/external/vulkan-headers/include/vulkan/vulkan_core.h"
  },
  {
   "alignment" : 4,
   "linker_set_key" : "_ZTIPK35VkPipelineColorBlendAttachmentState",
   "name" : "const VkPipelineColorBlendAttachmentState *",
   "referenced_type" : "_ZTIK35VkPipelineColorBlendAttachmentState",
   "self_type" : "_ZTIPK35VkPipelineColorBlendAttachmentState",
   "size" : 4,
   "source_file" : "/external/vulkan-headers/include/vulkan/vulkan_core.h"
  },
  {
   "alignment" : 4,
   "linker_set_key" : "_ZTIPK35VkPipelineColorBlendStateCreateInfo",
   "name" : "const VkPipelineColorBlendStateCreateInfo *",
   "referenced_type" : "_ZTIK35VkPipelineColorBlendStateCreateInfo",
   "self_type" : "_ZTIPK35VkPipelineColorBlendStateCreateInfo",
   "size" : 4,
   "source_file" : "/external/vulkan-headers/include/vulkan/vulkan_core.h"
  },
  {
   "alignment" : 4,
   "linker_set_key" : "_ZTIPK35VkRayTracingShaderGroupCreateInfoNV",
   "name" : "const VkRayTracingShaderGroupCreateInfoNV *",
   "referenced_type" : "_ZTIK35VkRayTracingShaderGroupCreateInfoNV",
   "self_type" : "_ZTIPK35VkRayTracingShaderGroupCreateInfoNV",
   "size" : 4,
   "source_file" : "/external/vulkan-headers/include/vulkan/vulkan_core.h"
  },
  {
   "alignment" : 4,
   "linker_set_key" : "_ZTIPK36VkDebugUtilsMessengerCallbackDataEXT",
   "name" : "const VkDebugUtilsMessengerCallbackDataEXT *",
   "referenced_type" : "_ZTIK36VkDebugUtilsMessengerCallbackDataEXT",
   "self_type" : "_ZTIPK36VkDebugUtilsMessengerCallbackDataEXT",
   "size" : 4,
   "source_file" : "/external/vulkan-headers/include/vulkan/vulkan_core.h"
  },
  {
   "alignment" : 4,
   "linker_set_key" : "_ZTIPK36VkDescriptorUpdateTemplateCreateInfo",
   "name" : "const VkDescriptorUpdateTemplateCreateInfo *",
   "referenced_type" : "_ZTIK36VkDescriptorUpdateTemplateCreateInfo",
   "self_type" : "_ZTIPK36VkDescriptorUpdateTemplateCreateInfo",
   "size" : 4,
   "source_file" : "/external/vulkan-headers/include/vulkan/vulkan_core.h"
  },
  {
   "alignment" : 4,
   "linker_set_key" : "_ZTIPK36VkImageSparseMemoryRequirementsInfo2",
   "name" : "const VkImageSparseMemoryRequirementsInfo2 *",
   "referenced_type" : "_ZTIK36VkImageSparseMemoryRequirementsInfo2",
   "self_type" : "_ZTIPK36VkImageSparseMemoryRequirementsInfo2",
   "size" : 4,
   "source_file" : "/external/vulkan-headers/include/vulkan/vulkan_core.h"
  },
  {
   "alignment" : 4,
   "linker_set_key" : "_ZTIPK36VkPipelineMultisampleStateCreateInfo",
   "name" : "const VkPipelineMultisampleStateCreateInfo *",
   "referenced_type" : "_ZTIK36VkPipelineMultisampleStateCreateInfo",
   "self_type" : "_ZTIPK36VkPipelineMultisampleStateCreateInfo",
   "size" : 4,
   "source_file" : "/external/vulkan-headers/include/vulkan/vulkan_core.h"
  },
  {
   "alignment" : 4,
   "linker_set_key" : "_ZTIPK36VkPipelineVertexInputStateCreateInfo",
   "name" : "const VkPipelineVertexInputStateCreateInfo *",
   "referenced_type" : "_ZTIK36VkPipelineVertexInputStateCreateInfo",
   "self_type" : "_ZTIPK36VkPipelineVertexInputStateCreateInfo",
   "size" : 4,
   "source_file" : "/external/vulkan-headers/include/vulkan/vulkan_core.h"
  },
  {
   "alignment" : 4,
   "linker_set_key" : "_ZTIPK37VkPhysicalDeviceExternalSemaphoreInfo",
   "name" : "const VkPhysicalDeviceExternalSemaphoreInfo *",
   "referenced_type" : "_ZTIK37VkPhysicalDeviceExternalSemaphoreInfo",
   "self_type" : "_ZTIPK37VkPhysicalDeviceExternalSemaphoreInfo",
   "size" : 4,
   "source_file" : "/external/vulkan-headers/include/vulkan/vulkan_core.h"
  },
  {
   "alignment" : 4,
   "linker_set_key" : "_ZTIPK37VkPipelineDepthStencilStateCreateInfo",
   "name" : "const VkPipelineDepthStencilStateCreateInfo *",
   "referenced_type" : "_ZTIK37VkPipelineDepthStencilStateCreateInfo",
   "self_type" : "_ZTIPK37VkPipelineDepthStencilStateCreateInfo",
   "size" : 4,
   "source_file" : "/external/vulkan-headers/include/vulkan/vulkan_core.h"
  },
  {
   "alignment" : 4,
   "linker_set_key" : "_ZTIPK37VkPipelineTessellationStateCreateInfo",
   "name" : "const VkPipelineTessellationStateCreateInfo *",
   "referenced_type" : "_ZTIK37VkPipelineTessellationStateCreateInfo",
   "self_type" : "_ZTIPK37VkPipelineTessellationStateCreateInfo",
   "size" : 4,
   "source_file" : "/external/vulkan-headers/include/vulkan/vulkan_core.h"
  },
  {
   "alignment" : 4,
   "linker_set_key" : "_ZTIPK38VkPhysicalDeviceSparseImageFormatInfo2",
   "name" : "const VkPhysicalDeviceSparseImageFormatInfo2 *",
   "referenced_type" : "_ZTIK38VkPhysicalDeviceSparseImageFormatInfo2",
   "self_type" : "_ZTIPK38VkPhysicalDeviceSparseImageFormatInfo2",
   "size" : 4,
   "source_file" : "/external/vulkan-headers/include/vulkan/vulkan_core.h"
  },
  {
   "alignment" : 4,
   "linker_set_key" : "_ZTIPK38VkPipelineInputAssemblyStateCreateInfo",
   "name" : "const VkPipelineInputAssemblyStateCreateInfo *",
   "referenced_type" : "_ZTIK38VkPipelineInputAssemblyStateCreateInfo",
   "self_type" : "_ZTIPK38VkPipelineInputAssemblyStateCreateInfo",
   "size" : 4,
   "source_file" : "/external/vulkan-headers/include/vulkan/vulkan_core.h"
  },
  {
   "alignment" : 4,
   "linker_set_key" : "_ZTIPK38VkPipelineRasterizationStateCreateInfo",
   "name" : "const VkPipelineRasterizationStateCreateInfo *",
   "referenced_type" : "_ZTIK38VkPipelineRasterizationStateCreateInfo",
   "self_type" : "_ZTIPK38VkPipelineRasterizationStateCreateInfo",
   "size" : 4,
   "source_file" : "/external/vulkan-headers/include/vulkan/vulkan_core.h"
  },
  {
   "alignment" : 4,
   "linker_set_key" : "_ZTIPK41VkVertexInputBindingDivisorDescriptionEXT",
   "name" : "const VkVertexInputBindingDivisorDescriptionEXT *",
   "referenced_type" : "_ZTIK41VkVertexInputBindingDivisorDescriptionEXT",
   "self_type" : "_ZTIPK41VkVertexInputBindingDivisorDescriptionEXT",
   "size" : 4,
   "source_file" : "/external/vulkan-headers/include/vulkan/vulkan_core.h"
  },
  {
   "alignment" : 4,
   "linker_set_key" : "_ZTIPK43VkMemoryGetAndroidHardwareBufferInfoANDROID",
   "name" : "const VkMemoryGetAndroidHardwareBufferInfoANDROID *",
   "referenced_type" : "_ZTIK43VkMemoryGetAndroidHardwareBufferInfoANDROID",
   "self_type" : "_ZTIPK43VkMemoryGetAndroidHardwareBufferInfoANDROID",
   "size" : 4,
   "source_file" : "/external/vulkan-headers/include/vulkan/vulkan_android.h"
  },
  {
   "alignment" : 4,
   "linker_set_key" : "_ZTIPK8VkFormat",
   "name" : "const VkFormat *",
   "referenced_type" : "_ZTIK8VkFormat",
   "self_type" : "_ZTIPK8VkFormat",
   "size" : 4,
   "source_file" : "/external/vulkan-headers/include/vulkan/vulkan_core.h"
  },
  {
   "alignment" : 4,
   "linker_set_key" : "_ZTIPK8VkRect2D",
   "name" : "const VkRect2D *",
   "referenced_type" : "_ZTIK8VkRect2D",
   "self_type" : "_ZTIPK8VkRect2D",
   "size" : 4,
   "source_file" : "/external/vulkan-headers/include/vulkan/vulkan_core.h"
  },
  {
   "alignment" : 4,
   "linker_set_key" : "_ZTIPKP17VkCommandBuffer_T",
   "name" : "VkCommandBuffer_T *const *",
   "referenced_type" : "_ZTIKP17VkCommandBuffer_T",
   "self_type" : "_ZTIPKP17VkCommandBuffer_T",
   "size" : 4,
   "source_file" : "/external/vulkan-headers/include/vulkan/vulkan_core.h"
  },
  {
   "alignment" : 4,
   "linker_set_key" : "_ZTIPKP18VkPhysicalDevice_T",
   "name" : "VkPhysicalDevice_T *const *",
   "referenced_type" : "_ZTIKP18VkPhysicalDevice_T",
   "self_type" : "_ZTIPKP18VkPhysicalDevice_T",
   "size" : 4,
   "source_file" : "/external/vulkan-headers/include/vulkan/vulkan_core.h"
  },
  {
   "alignment" : 4,
   "linker_set_key" : "_ZTIPKPKc",
   "name" : "const char *const *",
   "referenced_type" : "_ZTIKPKc",
   "self_type" : "_ZTIPKPKc",
   "size" : 4,
   "source_file" : "/external/vulkan-headers/include/vulkan/vulkan_core.h"
  },
  {
   "alignment" : 4,
   "linker_set_key" : "_ZTIPKc",
   "name" : "const char *",
   "referenced_type" : "_ZTIKc",
   "self_type" : "_ZTIPKc",
   "size" : 4,
   "source_file" : "/external/vulkan-headers/include/vulkan/vulkan_core.h"
  },
  {
   "alignment" : 4,
   "linker_set_key" : "_ZTIPKf",
   "name" : "const float *",
   "referenced_type" : "_ZTIKf",
   "self_type" : "_ZTIPKf",
   "size" : 4,
   "source_file" : "/external/vulkan-headers/include/vulkan/vulkan_core.h"
  },
  {
   "alignment" : 4,
   "linker_set_key" : "_ZTIPKi",
   "name" : "const int *",
   "referenced_type" : "_ZTIKi",
   "self_type" : "_ZTIPKi",
   "size" : 4,
   "source_file" : "/external/vulkan-headers/include/vulkan/vulkan_core.h"
  },
  {
   "alignment" : 4,
   "linker_set_key" : "_ZTIPKj",
   "name" : "const unsigned int *",
   "referenced_type" : "_ZTIKj",
   "self_type" : "_ZTIPKj",
   "size" : 4,
   "source_file" : "/external/vulkan-headers/include/vulkan/vulkan_core.h"
  },
  {
   "alignment" : 4,
   "linker_set_key" : "_ZTIPKv",
   "name" : "const void *",
   "referenced_type" : "_ZTIKv",
   "self_type" : "_ZTIPKv",
   "size" : 4,
   "source_file" : "/external/vulkan-headers/include/vulkan/vulkan_core.h"
  },
  {
   "alignment" : 4,
   "linker_set_key" : "_ZTIPKy",
   "name" : "const unsigned long long *",
   "referenced_type" : "_ZTIKy",
   "self_type" : "_ZTIPKy",
   "size" : 4,
   "source_file" : "/external/vulkan-headers/include/vulkan/vulkan_core.h"
  },
  {
   "alignment" : 4,
   "linker_set_key" : "_ZTIPP10VkDevice_T",
   "name" : "VkDevice_T **",
   "referenced_type" : "_ZTIP10VkDevice_T",
   "self_type" : "_ZTIPP10VkDevice_T",
   "size" : 4,
   "source_file" : "/external/vulkan-headers/include/vulkan/vulkan_core.h"
  },
  {
   "alignment" : 4,
   "linker_set_key" : "_ZTIPP12VkInstance_T",
   "name" : "VkInstance_T **",
   "referenced_type" : "_ZTIP12VkInstance_T",
   "self_type" : "_ZTIPP12VkInstance_T",
   "size" : 4,
   "source_file" : "/external/vulkan-headers/include/vulkan/vulkan_core.h"
  },
  {
   "alignment" : 4,
   "linker_set_key" : "_ZTIPP15AHardwareBuffer",
   "name" : "AHardwareBuffer **",
   "referenced_type" : "_ZTIP15AHardwareBuffer",
   "self_type" : "_ZTIPP15AHardwareBuffer",
   "size" : 4,
   "source_file" : "/external/vulkan-headers/include/vulkan/vulkan_android.h"
  },
  {
   "alignment" : 4,
   "linker_set_key" : "_ZTIPP17VkCommandBuffer_T",
   "name" : "VkCommandBuffer_T **",
   "referenced_type" : "_ZTIP17VkCommandBuffer_T",
   "self_type" : "_ZTIPP17VkCommandBuffer_T",
   "size" : 4,
   "source_file" : "/external/vulkan-headers/include/vulkan/vulkan_core.h"
  },
  {
   "alignment" : 4,
   "linker_set_key" : "_ZTIPP18VkPhysicalDevice_T",
   "name" : "VkPhysicalDevice_T **",
   "referenced_type" : "_ZTIP18VkPhysicalDevice_T",
   "self_type" : "_ZTIPP18VkPhysicalDevice_T",
   "size" : 4,
   "source_file" : "/external/vulkan-headers/include/vulkan/vulkan_core.h"
  },
  {
   "alignment" : 4,
   "linker_set_key" : "_ZTIPP9VkQueue_T",
   "name" : "VkQueue_T **",
   "referenced_type" : "_ZTIP9VkQueue_T",
   "self_type" : "_ZTIPP9VkQueue_T",
   "size" : 4,
   "source_file" : "/external/vulkan-headers/include/vulkan/vulkan_core.h"
  },
  {
   "alignment" : 4,
   "linker_set_key" : "_ZTIPPv",
   "name" : "void **",
   "referenced_type" : "_ZTIPv",
   "self_type" : "_ZTIPPv",
   "size" : 4,
   "source_file" : "/external/vulkan-headers/include/vulkan/vulkan_core.h"
  },
  {
   "alignment" : 4,
   "linker_set_key" : "_ZTIPj",
   "name" : "unsigned int *",
   "referenced_type" : "_ZTIj",
   "self_type" : "_ZTIPj",
   "size" : 4,
   "source_file" : "/external/vulkan-headers/include/vulkan/vulkan_core.h"
  },
  {
   "alignment" : 4,
   "linker_set_key" : "_ZTIPv",
   "name" : "void *",
   "referenced_type" : "_ZTIv",
   "self_type" : "_ZTIPv",
   "size" : 4,
   "source_file" : "/external/vulkan-headers/include/vulkan/vulkan_core.h"
  },
  {
   "alignment" : 4,
   "linker_set_key" : "_ZTIPy",
   "name" : "unsigned long long *",
   "referenced_type" : "_ZTIy",
   "self_type" : "_ZTIPy",
   "size" : 4,
   "source_file" : "/external/vulkan-headers/include/vulkan/vulkan_core.h"
  }
 ],
 "qualified_types" :
 [
  {
   "alignment" : 4,
   "is_const" : true,
   "linker_set_key" : "_ZTIK10VkViewport",
   "name" : "const VkViewport",
   "referenced_type" : "_ZTI10VkViewport",
   "self_type" : "_ZTIK10VkViewport",
   "size" : 24,
   "source_file" : "/external/vulkan-headers/include/vulkan/vulkan_core.h"
  },
  {
   "alignment" : 4,
   "is_const" : true,
   "linker_set_key" : "_ZTIK11VkClearRect",
   "name" : "const VkClearRect",
   "referenced_type" : "_ZTI11VkClearRect",
   "self_type" : "_ZTIK11VkClearRect",
   "size" : 24,
   "source_file" : "/external/vulkan-headers/include/vulkan/vulkan_core.h"
  },
  {
   "alignment" : 4,
   "is_const" : true,
   "linker_set_key" : "_ZTIK11VkImageBlit",
   "name" : "const VkImageBlit",
   "referenced_type" : "_ZTI11VkImageBlit",
   "self_type" : "_ZTIK11VkImageBlit",
   "size" : 80,
   "source_file" : "/external/vulkan-headers/include/vulkan/vulkan_core.h"
  },
  {
   "alignment" : 4,
   "is_const" : true,
   "linker_set_key" : "_ZTIK11VkImageCopy",
   "name" : "const VkImageCopy",
   "referenced_type" : "_ZTI11VkImageCopy",
   "self_type" : "_ZTIK11VkImageCopy",
   "size" : 68,
   "source_file" : "/external/vulkan-headers/include/vulkan/vulkan_core.h"
  },
  {
   "alignment" : 8,
   "is_const" : true,
   "linker_set_key" : "_ZTIK12VkBufferCopy",
   "name" : "const VkBufferCopy",
   "referenced_type" : "_ZTI12VkBufferCopy",
   "self_type" : "_ZTIK12VkBufferCopy",
   "size" : 24,
   "source_file" : "/external/vulkan-headers/include/vulkan/vulkan_core.h"
  },
  {
   "alignment" : 4,
   "is_const" : true,
   "linker_set_key" : "_ZTIK12VkClearValue",
   "name" : "const VkClearValue",
   "referenced_type" : "_ZTI12VkClearValue",
   "self_type" : "_ZTIK12VkClearValue",
   "size" : 16,
   "source_file" : "/external/vulkan-headers/include/vulkan/vulkan_core.h"
  },
  {
   "alignment" : 8,
   "is_const" : true,
   "linker_set_key" : "_ZTIK12VkGeometryNV",
   "name" : "const VkGeometryNV",
   "referenced_type" : "_ZTI12VkGeometryNV",
   "self_type" : "_ZTIK12VkGeometryNV",
   "size" : 144,
   "source_file" : "/external/vulkan-headers/include/vulkan/vulkan_core.h"
  },
  {
   "alignment" : 4,
   "is_const" : true,
   "linker_set_key" : "_ZTIK12VkSubmitInfo",
   "name" : "const VkSubmitInfo",
   "referenced_type" : "_ZTI12VkSubmitInfo",
   "self_type" : "_ZTIK12VkSubmitInfo",
   "size" : 36,
   "source_file" : "/external/vulkan-headers/include/vulkan/vulkan_core.h"
  },
  {
   "alignment" : 4,
   "is_const" : true,
   "linker_set_key" : "_ZTIK14VkDynamicState",
   "name" : "const VkDynamicState",
   "referenced_type" : "_ZTI14VkDynamicState",
   "self_type" : "_ZTIK14VkDynamicState",
   "size" : 4,
   "source_file" : "/external/vulkan-headers/include/vulkan/vulkan_core.h"
  },
  {
   "alignment" : 4,
   "is_const" : true,
   "linker_set_key" : "_ZTIK14VkImageResolve",
   "name" : "const VkImageResolve",
   "referenced_type" : "_ZTI14VkImageResolve",
   "self_type" : "_ZTIK14VkImageResolve",
   "size" : 68,
   "source_file" : "/external/vulkan-headers/include/vulkan/vulkan_core.h"
  },
  {
   "alignment" : 4,
   "is_const" : true,
   "linker_set_key" : "_ZTIK14VkRectLayerKHR",
   "name" : "const VkRectLayerKHR",
   "referenced_type" : "_ZTI14VkRectLayerKHR",
   "self_type" : "_ZTIK14VkRectLayerKHR",
   "size" : 20,
   "source_file" : "/external/vulkan-headers/include/vulkan/vulkan_core.h"
  },
  {
   "is_const" : true,
   "linker_set_key" : "_ZTIK15AHardwareBuffer",
   "name" : "const AHardwareBuffer",
   "referenced_type" : "_ZTI15AHardwareBuffer",
   "self_type" : "_ZTIK15AHardwareBuffer",
   "source_file" : "/external/vulkan-headers/include/vulkan/vulkan_android.h"
  },
  {
   "alignment" : 4,
   "is_const" : true,
   "linker_set_key" : "_ZTIK15VkMemoryBarrier",
   "name" : "const VkMemoryBarrier",
   "referenced_type" : "_ZTI15VkMemoryBarrier",
   "self_type" : "_ZTIK15VkMemoryBarrier",
   "size" : 16,
   "source_file" : "/external/vulkan-headers/include/vulkan/vulkan_core.h"
  },
  {
   "alignment" : 4,
   "is_const" : true,
   "linker_set_key" : "_ZTIK16VkBindSparseInfo",
   "name" : "const VkBindSparseInfo",
   "referenced_type" : "_ZTI16VkBindSparseInfo",
   "self_type" : "_ZTIK16VkBindSparseInfo",
   "size" : 48,
   "source_file" : "/external/vulkan-headers/include/vulkan/vulkan_core.h"
  },
  {
   "alignment" : 4,
   "is_const" : true,
   "linker_set_key" : "_ZTIK16VkPresentInfoKHR",
   "name" : "const VkPresentInfoKHR",
   "referenced_type" : "_ZTI16VkPresentInfoKHR",
   "self_type" : "_ZTIK16VkPresentInfoKHR",
   "size" : 32,
   "source_file" : "/external/vulkan-headers/include/vulkan/vulkan_core.h"
  },
  {
   "alignment" : 4,
   "is_const" : true,
   "linker_set_key" : "_ZTIK17VkApplicationInfo",
   "name" : "const VkApplicationInfo",
   "referenced_type" : "_ZTI17VkApplicationInfo",
   "self_type" : "_ZTIK17VkApplicationInfo",
   "size" : 28,
   "source_file" : "/external/vulkan-headers/include/vulkan/vulkan_core.h"
  },
  {
   "alignment" : 4,
   "is_const" : true,
   "linker_set_key" : "_ZTIK17VkBaseInStructure",
   "name" : "const VkBaseInStructure",
   "referenced_type" : "_ZTI17VkBaseInStructure",
   "self_type" : "_ZTIK17VkBaseInStructure",
   "size" : 8,
   "source_file" : "/external/vulkan-headers/include/vulkan/vulkan_core.h"
  },
  {
   "alignment" : 8,
   "is_const" : true,
   "linker_set_key" : "_ZTIK17VkBufferImageCopy",
   "name" : "const VkBufferImageCopy",
   "referenced_type" : "_ZTI17VkBufferImageCopy",
   "self_type" : "_ZTIK17VkBufferImageCopy",
   "size" : 56,
   "source_file" : "/external/vulkan-headers/include/vulkan/vulkan_core.h"
  },
  {
   "alignment" : 4,
   "is_const" : true,
   "linker_set_key" : "_ZTIK17VkClearAttachment",
   "name" : "const VkClearAttachment",
   "referenced_type" : "_ZTI17VkClearAttachment",
   "self_type" : "_ZTIK17VkClearAttachment",
   "size" : 24,
   "source_file" : "/external/vulkan-headers/include/vulkan/vulkan_core.h"
  },
  {
   "alignment" : 4,
   "is_const" : true,
   "linker_set_key" : "_ZTIK17VkClearColorValue",
   "name" : "const VkClearColorValue",
   "referenced_type" : "_ZTI17VkClearColorValue",
   "self_type" : "_ZTIK17VkClearColorValue",
   "size" : 16,
   "source_file" : "/external/vulkan-headers/include/vulkan/vulkan_core.h"
  },
  {
   "alignment" : 4,
   "is_const" : true,
   "linker_set_key" : "_ZTIK17VkEventCreateInfo",
   "name" : "const VkEventCreateInfo",
   "referenced_type" : "_ZTI17VkEventCreateInfo",
   "self_type" : "_ZTIK17VkEventCreateInfo",
   "size" : 12,
   "source_file" : "/external/vulkan-headers/include/vulkan/vulkan_core.h"
  },
  {
   "alignment" : 4,
   "is_const" : true,
   "linker_set_key" : "_ZTIK17VkFenceCreateInfo",
   "name" : "const VkFenceCreateInfo",
   "referenced_type" : "_ZTI17VkFenceCreateInfo",
   "self_type" : "_ZTIK17VkFenceCreateInfo",
   "size" : 12,
   "source_file" : "/external/vulkan-headers/include/vulkan/vulkan_core.h"
  },
  {
   "alignment" : 4,
   "is_const" : true,
   "linker_set_key" : "_ZTIK17VkImageCreateInfo",
   "name" : "const VkImageCreateInfo",
   "referenced_type" : "_ZTI17VkImageCreateInfo",
   "self_type" : "_ZTIK17VkImageCreateInfo",
   "size" : 68,
   "source_file" : "/external/vulkan-headers/include/vulkan/vulkan_core.h"
  },
  {
   "alignment" : 8,
   "is_const" : true,
   "linker_set_key" : "_ZTIK18VkBufferCreateInfo",
   "name" : "const VkBufferCreateInfo",
   "referenced_type" : "_ZTI18VkBufferCreateInfo",
   "self_type" : "_ZTIK18VkBufferCreateInfo",
   "size" : 40,
   "source_file" : "/external/vulkan-headers/include/vulkan/vulkan_core.h"
  },
  {
   "alignment" : 4,
   "is_const" : true,
   "linker_set_key" : "_ZTIK18VkDeviceCreateInfo",
   "name" : "const VkDeviceCreateInfo",
   "referenced_type" : "_ZTI18VkDeviceCreateInfo",
   "self_type" : "_ZTIK18VkDeviceCreateInfo",
   "size" : 40,
   "source_file" : "/external/vulkan-headers/include/vulkan/vulkan_core.h"
  },
  {
   "alignment" : 4,
   "is_const" : true,
   "linker_set_key" : "_ZTIK18VkDeviceQueueInfo2",
   "name" : "const VkDeviceQueueInfo2",
   "referenced_type" : "_ZTI18VkDeviceQueueInfo2",
   "self_type" : "_ZTIK18VkDeviceQueueInfo2",
   "size" : 20,
   "source_file" : "/external/vulkan-headers/include/vulkan/vulkan_core.h"
  },
  {
   "alignment" : 4,
   "is_const" : true,
   "linker_set_key" : "_ZTIK18VkImageSubresource",
   "name" : "const VkImageSubresource",
   "referenced_type" : "_ZTI18VkImageSubresource",
   "self_type" : "_ZTIK18VkImageSubresource",
   "size" : 12,
   "source_file" : "/external/vulkan-headers/include/vulkan/vulkan_core.h"
  },
  {
   "alignment" : 4,
   "is_const" : true,
   "linker_set_key" : "_ZTIK18VkPresentRegionKHR",
   "name" : "const VkPresentRegionKHR",
   "referenced_type" : "_ZTI18VkPresentRegionKHR",
   "self_type" : "_ZTIK18VkPresentRegionKHR",
   "size" : 8,
   "source_file" : "/external/vulkan-headers/include/vulkan/vulkan_core.h"
  },
  {
   "alignment" : 8,
   "is_const" : true,
   "linker_set_key" : "_ZTIK18VkSparseMemoryBind",
   "name" : "const VkSparseMemoryBind",
   "referenced_type" : "_ZTI18VkSparseMemoryBind",
   "self_type" : "_ZTIK18VkSparseMemoryBind",
   "size" : 40,
   "source_file" : "/external/vulkan-headers/include/vulkan/vulkan_core.h"
  },
  {
   "alignment" : 8,
   "is_const" : true,
   "linker_set_key" : "_ZTIK19VkCopyDescriptorSet",
   "name" : "const VkCopyDescriptorSet",
   "referenced_type" : "_ZTI19VkCopyDescriptorSet",
   "self_type" : "_ZTIK19VkCopyDescriptorSet",
   "size" : 48,
   "source_file" : "/external/vulkan-headers/include/vulkan/vulkan_core.h"
  },
  {
   "alignment" : 8,
   "is_const" : true,
   "linker_set_key" : "_ZTIK19VkMappedMemoryRange",
   "name" : "const VkMappedMemoryRange",
   "referenced_type" : "_ZTI19VkMappedMemoryRange",
   "self_type" : "_ZTIK19VkMappedMemoryRange",
   "size" : 32,
   "source_file" : "/external/vulkan-headers/include/vulkan/vulkan_core.h"
  },
  {
   "alignment" : 8,
   "is_const" : true,
   "linker_set_key" : "_ZTIK19VkPresentTimeGOOGLE",
   "name" : "const VkPresentTimeGOOGLE",
   "referenced_type" : "_ZTI19VkPresentTimeGOOGLE",
   "self_type" : "_ZTIK19VkPresentTimeGOOGLE",
   "size" : 16,
   "source_file" : "/external/vulkan-headers/include/vulkan/vulkan_core.h"
  },
  {
   "alignment" : 4,
   "is_const" : true,
   "linker_set_key" : "_ZTIK19VkPushConstantRange",
   "name" : "const VkPushConstantRange",
   "referenced_type" : "_ZTI19VkPushConstantRange",
   "self_type" : "_ZTIK19VkPushConstantRange",
   "size" : 12,
   "source_file" : "/external/vulkan-headers/include/vulkan/vulkan_core.h"
  },
  {
   "alignment" : 4,
   "is_const" : true,
   "linker_set_key" : "_ZTIK19VkSampleLocationEXT",
   "name" : "const VkSampleLocationEXT",
   "referenced_type" : "_ZTI19VkSampleLocationEXT",
   "self_type" : "_ZTIK19VkSampleLocationEXT",
   "size" : 8,
   "source_file" : "/external/vulkan-headers/include/vulkan/vulkan_core.h"
  },
  {
   "alignment" : 4,
   "is_const" : true,
   "linker_set_key" : "_ZTIK19VkSamplerCreateInfo",
   "name" : "const VkSamplerCreateInfo",
   "referenced_type" : "_ZTI19VkSamplerCreateInfo",
   "self_type" : "_ZTIK19VkSamplerCreateInfo",
   "size" : 72,
   "source_file" : "/external/vulkan-headers/include/vulkan/vulkan_core.h"
  },
  {
   "alignment" : 4,
   "is_const" : true,
   "linker_set_key" : "_ZTIK19VkSubpassDependency",
   "name" : "const VkSubpassDependency",
   "referenced_type" : "_ZTI19VkSubpassDependency",
   "self_type" : "_ZTIK19VkSubpassDependency",
   "size" : 28,
   "source_file" : "/external/vulkan-headers/include/vulkan/vulkan_core.h"
  },
  {
   "alignment" : 8,
   "is_const" : true,
   "linker_set_key" : "_ZTIK19VkSubresourceLayout",
   "name" : "const VkSubresourceLayout",
   "referenced_type" : "_ZTI19VkSubresourceLayout",
   "self_type" : "_ZTIK19VkSubresourceLayout",
   "size" : 40,
   "source_file" : "/external/vulkan-headers/include/vulkan/vulkan_core.h"
  },
  {
   "alignment" : 4,
   "is_const" : true,
   "linker_set_key" : "_ZTIK19VkViewportSwizzleNV",
   "name" : "const VkViewportSwizzleNV",
   "referenced_type" : "_ZTI19VkViewportSwizzleNV",
   "self_type" : "_ZTIK19VkViewportSwizzleNV",
   "size" : 16,
   "source_file" : "/external/vulkan-headers/include/vulkan/vulkan_core.h"
  },
  {
   "alignment" : 4,
   "is_const" : true,
   "linker_set_key" : "_ZTIK20VkDebugUtilsLabelEXT",
   "name" : "const VkDebugUtilsLabelEXT",
   "referenced_type" : "_ZTI20VkDebugUtilsLabelEXT",
   "self_type" : "_ZTIK20VkDebugUtilsLabelEXT",
   "size" : 28,
   "source_file" : "/external/vulkan-headers/include/vulkan/vulkan_core.h"
  },
  {
   "alignment" : 4,
   "is_const" : true,
   "linker_set_key" : "_ZTIK20VkDescriptorPoolSize",
   "name" : "const VkDescriptorPoolSize",
   "referenced_type" : "_ZTI20VkDescriptorPoolSize",
   "self_type" : "_ZTIK20VkDescriptorPoolSize",
   "size" : 8,
   "source_file" : "/external/vulkan-headers/include/vulkan/vulkan_core.h"
  },
  {
   "alignment" : 8,
   "is_const" : true,
   "linker_set_key" : "_ZTIK20VkImageMemoryBarrier",
   "name" : "const VkImageMemoryBarrier",
   "referenced_type" : "_ZTI20VkImageMemoryBarrier",
   "self_type" : "_ZTIK20VkImageMemoryBarrier",
   "size" : 64,
   "source_file" : "/external/vulkan-headers/include/vulkan/vulkan_core.h"
  },
  {
   "alignment" : 4,
   "is_const" : true,
   "linker_set_key" : "_ZTIK20VkInstanceCreateInfo",
   "name" : "const VkInstanceCreateInfo",
   "referenced_type" : "_ZTI20VkInstanceCreateInfo",
   "self_type" : "_ZTIK20VkInstanceCreateInfo",
   "size" : 32,
   "source_file" : "/external/vulkan-headers/include/vulkan/vulkan_core.h"
  },
  {
   "alignment" : 8,
   "is_const" : true,
   "linker_set_key" : "_ZTIK20VkMemoryAllocateInfo",
   "name" : "const VkMemoryAllocateInfo",
   "referenced_type" : "_ZTI20VkMemoryAllocateInfo",
   "self_type" : "_ZTIK20VkMemoryAllocateInfo",
   "size" : 24,
   "source_file" : "/external/vulkan-headers/include/vulkan/vulkan_core.h"
  },
  {
   "alignment" : 4,
   "is_const" : true,
   "linker_set_key" : "_ZTIK20VkObjectEntryTypeNVX",
   "name" : "const VkObjectEntryTypeNVX",
   "referenced_type" : "_ZTI20VkObjectEntryTypeNVX",
   "self_type" : "_ZTIK20VkObjectEntryTypeNVX",
   "size" : 4,
   "source_file" : "/external/vulkan-headers/include/vulkan/vulkan_core.h"
  },
  {
   "alignment" : 4,
   "is_const" : true,
   "linker_set_key" : "_ZTIK20VkSpecializationInfo",
   "name" : "const VkSpecializationInfo",
   "referenced_type" : "_ZTI20VkSpecializationInfo",
   "self_type" : "_ZTIK20VkSpecializationInfo",
   "size" : 16,
   "source_file" : "/external/vulkan-headers/include/vulkan/vulkan_core.h"
  },
  {
   "alignment" : 4,
   "is_const" : true,
   "linker_set_key" : "_ZTIK20VkSubpassDescription",
   "name" : "const VkSubpassDescription",
   "referenced_type" : "_ZTI20VkSubpassDescription",
   "self_type" : "_ZTIK20VkSubpassDescription",
   "size" : 40,
   "source_file" : "/external/vulkan-headers/include/vulkan/vulkan_core.h"
  },
  {
   "alignment" : 4,
   "is_const" : true,
   "linker_set_key" : "_ZTIK20VkValidationCheckEXT",
   "name" : "const VkValidationCheckEXT",
   "referenced_type" : "_ZTI20VkValidationCheckEXT",
   "self_type" : "_ZTIK20VkValidationCheckEXT",
   "size" : 4,
   "source_file" : "/external/vulkan-headers/include/vulkan/vulkan_core.h"
  },
  {
   "alignment" : 4,
   "is_const" : true,
   "linker_set_key" : "_ZTIK20VkViewportWScalingNV",
   "name" : "const VkViewportWScalingNV",
   "referenced_type" : "_ZTI20VkViewportWScalingNV",
   "self_type" : "_ZTIK20VkViewportWScalingNV",
   "size" : 8,
   "source_file" : "/external/vulkan-headers/include/vulkan/vulkan_core.h"
  },
  {
   "alignment" : 8,
   "is_const" : true,
   "linker_set_key" : "_ZTIK20VkWriteDescriptorSet",
   "name" : "const VkWriteDescriptorSet",
   "referenced_type" : "_ZTI20VkWriteDescriptorSet",
   "self_type" : "_ZTIK20VkWriteDescriptorSet",
   "size" : 48,
   "source_file" : "/external/vulkan-headers/include/vulkan/vulkan_core.h"
  },
  {
   "alignment" : 4,
   "is_const" : true,
   "linker_set_key" : "_ZTIK21VkAllocationCallbacks",
   "name" : "const VkAllocationCallbacks",
   "referenced_type" : "_ZTI21VkAllocationCallbacks",
   "self_type" : "_ZTIK21VkAllocationCallbacks",
   "size" : 24,
   "source_file" : "/external/vulkan-headers/include/vulkan/vulkan_core.h"
  },
  {
   "alignment" : 4,
   "is_const" : true,
   "linker_set_key" : "_ZTIK21VkAttachmentReference",
   "name" : "const VkAttachmentReference",
   "referenced_type" : "_ZTI21VkAttachmentReference",
   "self_type" : "_ZTIK21VkAttachmentReference",
   "size" : 8,
   "source_file" : "/external/vulkan-headers/include/vulkan/vulkan_core.h"
  },
  {
   "alignment" : 8,
   "is_const" : true,
   "linker_set_key" : "_ZTIK21VkBindImageMemoryInfo",
   "name" : "const VkBindImageMemoryInfo",
   "referenced_type" : "_ZTI21VkBindImageMemoryInfo",
   "self_type" : "_ZTIK21VkBindImageMemoryInfo",
   "size" : 32,
   "source_file" : "/external/vulkan-headers/include/vulkan/vulkan_core.h"
  },
  {
   "alignment" : 8,
   "is_const" : true,
   "linker_set_key" : "_ZTIK21VkBufferMemoryBarrier",
   "name" : "const VkBufferMemoryBarrier",
   "referenced_type" : "_ZTI21VkBufferMemoryBarrier",
   "self_type" : "_ZTIK21VkBufferMemoryBarrier",
   "size" : 48,
   "source_file" : "/external/vulkan-headers/include/vulkan/vulkan_core.h"
  },
  {
   "alignment" : 8,
   "is_const" : true,
   "linker_set_key" : "_ZTIK21VkDescriptorImageInfo",
   "name" : "const VkDescriptorImageInfo",
   "referenced_type" : "_ZTI21VkDescriptorImageInfo",
   "self_type" : "_ZTIK21VkDescriptorImageInfo",
   "size" : 24,
   "source_file" : "/external/vulkan-headers/include/vulkan/vulkan_core.h"
  },
  {
   "alignment" : 8,
   "is_const" : true,
   "linker_set_key" : "_ZTIK21VkImageViewCreateInfo",
   "name" : "const VkImageViewCreateInfo",
   "referenced_type" : "_ZTI21VkImageViewCreateInfo",
   "self_type" : "_ZTIK21VkImageViewCreateInfo",
   "size" : 72,
   "source_file" : "/external/vulkan-headers/include/vulkan/vulkan_core.h"
  },
  {
   "alignment" : 4,
   "is_const" : true,
   "linker_set_key" : "_ZTIK21VkQueryPoolCreateInfo",
   "name" : "const VkQueryPoolCreateInfo",
   "referenced_type" : "_ZTI21VkQueryPoolCreateInfo",
   "self_type" : "_ZTIK21VkQueryPoolCreateInfo",
   "size" : 24,
   "source_file" : "/external/vulkan-headers/include/vulkan/vulkan_core.h"
  },
  {
   "alignment" : 8,
   "is_const" : true,
   "linker_set_key" : "_ZTIK21VkRenderPassBeginInfo",
   "name" : "const VkRenderPassBeginInfo",
   "referenced_type" : "_ZTI21VkRenderPassBeginInfo",
   "self_type" : "_ZTIK21VkRenderPassBeginInfo",
   "size" : 48,
   "source_file" : "/external/vulkan-headers/include/vulkan/vulkan_core.h"
  },
  {
   "alignment" : 4,
   "is_const" : true,
   "linker_set_key" : "_ZTIK21VkSemaphoreCreateInfo",
   "name" : "const VkSemaphoreCreateInfo",
   "referenced_type" : "_ZTI21VkSemaphoreCreateInfo",
   "self_type" : "_ZTIK21VkSemaphoreCreateInfo",
   "size" : 12,
   "source_file" : "/external/vulkan-headers/include/vulkan/vulkan_core.h"
  },
  {
   "alignment" : 8,
   "is_const" : true,
   "linker_set_key" : "_ZTIK22VkBindBufferMemoryInfo",
   "name" : "const VkBindBufferMemoryInfo",
   "referenced_type" : "_ZTI22VkBindBufferMemoryInfo",
   "self_type" : "_ZTIK22VkBindBufferMemoryInfo",
   "size" : 32,
   "source_file" : "/external/vulkan-headers/include/vulkan/vulkan_core.h"
  },
  {
   "alignment" : 8,
   "is_const" : true,
   "linker_set_key" : "_ZTIK22VkBufferViewCreateInfo",
   "name" : "const VkBufferViewCreateInfo",
   "referenced_type" : "_ZTI22VkBufferViewCreateInfo",
   "self_type" : "_ZTIK22VkBufferViewCreateInfo",
   "size" : 48,
   "source_file" : "/external/vulkan-headers/include/vulkan/vulkan_core.h"
  },
  {
   "alignment" : 8,
   "is_const" : true,
   "linker_set_key" : "_ZTIK22VkDescriptorBufferInfo",
   "name" : "const VkDescriptorBufferInfo",
   "referenced_type" : "_ZTI22VkDescriptorBufferInfo",
   "self_type" : "_ZTIK22VkDescriptorBufferInfo",
   "size" : 24,
   "source_file" : "/external/vulkan-headers/include/vulkan/vulkan_core.h"
  },
  {
   "alignment" : 4,
   "is_const" : true,
   "linker_set_key" : "_ZTIK22VkRenderPassCreateInfo",
   "name" : "const VkRenderPassCreateInfo",
   "referenced_type" : "_ZTI22VkRenderPassCreateInfo",
   "self_type" : "_ZTIK22VkRenderPassCreateInfo",
   "size" : 36,
   "source_file" : "/external/vulkan-headers/include/vulkan/vulkan_core.h"
  },
  {
   "alignment" : 4,
   "is_const" : true,
   "linker_set_key" : "_ZTIK22VkShadingRatePaletteNV",
   "name" : "const VkShadingRatePaletteNV",
   "referenced_type" : "_ZTI22VkShadingRatePaletteNV",
   "self_type" : "_ZTIK22VkShadingRatePaletteNV",
   "size" : 8,
   "source_file" : "/external/vulkan-headers/include/vulkan/vulkan_core.h"
  },
  {
   "alignment" : 4,
   "is_const" : true,
   "linker_set_key" : "_ZTIK23VkAttachmentDescription",
   "name" : "const VkAttachmentDescription",
   "referenced_type" : "_ZTI23VkAttachmentDescription",
   "self_type" : "_ZTIK23VkAttachmentDescription",
   "size" : 36,
   "source_file" : "/external/vulkan-headers/include/vulkan/vulkan_core.h"
  },
  {
   "alignment" : 4,
   "is_const" : true,
   "linker_set_key" : "_ZTIK23VkCommandPoolCreateInfo",
   "name" : "const VkCommandPoolCreateInfo",
   "referenced_type" : "_ZTI23VkCommandPoolCreateInfo",
   "self_type" : "_ZTIK23VkCommandPoolCreateInfo",
   "size" : 16,
   "source_file" : "/external/vulkan-headers/include/vulkan/vulkan_core.h"
  },
  {
   "alignment" : 4,
   "is_const" : true,
   "linker_set_key" : "_ZTIK23VkDeviceQueueCreateInfo",
   "name" : "const VkDeviceQueueCreateInfo",
   "referenced_type" : "_ZTI23VkDeviceQueueCreateInfo",
   "self_type" : "_ZTIK23VkDeviceQueueCreateInfo",
   "size" : 24,
   "source_file" : "/external/vulkan-headers/include/vulkan/vulkan_core.h"
  },
  {
   "alignment" : 8,
   "is_const" : true,
   "linker_set_key" : "_ZTIK23VkFramebufferCreateInfo",
   "name" : "const VkFramebufferCreateInfo",
   "referenced_type" : "_ZTI23VkFramebufferCreateInfo",
   "self_type" : "_ZTIK23VkFramebufferCreateInfo",
   "size" : 48,
   "source_file" : "/external/vulkan-headers/include/vulkan/vulkan_core.h"
  },
  {
   "alignment" : 4,
   "is_const" : true,
   "linker_set_key" : "_ZTIK23VkImageSubresourceRange",
   "name" : "const VkImageSubresourceRange",
   "referenced_type" : "_ZTI23VkImageSubresourceRange",
   "self_type" : "_ZTIK23VkImageSubresourceRange",
   "size" : 20,
   "source_file" : "/external/vulkan-headers/include/vulkan/vulkan_core.h"
  },
  {
   "alignment" : 8,
   "is_const" : true,
   "linker_set_key" : "_ZTIK23VkSparseImageMemoryBind",
   "name" : "const VkSparseImageMemoryBind",
   "referenced_type" : "_ZTI23VkSparseImageMemoryBind",
   "self_type" : "_ZTIK23VkSparseImageMemoryBind",
   "size" : 64,
   "source_file" : "/external/vulkan-headers/include/vulkan/vulkan_core.h"
  },
  {
   "alignment" : 4,
   "is_const" : true,
   "linker_set_key" : "_ZTIK23VkSubpassDependency2KHR",
   "name" : "const VkSubpassDependency2KHR",
   "referenced_type" : "_ZTI23VkSubpassDependency2KHR",
   "self_type" : "_ZTIK23VkSubpassDependency2KHR",
   "size" : 40,
   "source_file" : "/external/vulkan-headers/include/vulkan/vulkan_core.h"
  },
  {
   "alignment" : 4,
   "is_const" : true,
   "linker_set_key" : "_ZTIK24VkClearDepthStencilValue",
   "name" : "const VkClearDepthStencilValue",
   "referenced_type" : "_ZTI24VkClearDepthStencilValue",
   "self_type" : "_ZTIK24VkClearDepthStencilValue",
   "size" : 8,
   "source_file" : "/external/vulkan-headers/include/vulkan/vulkan_core.h"
  },
  {
   "alignment" : 4,
   "is_const" : true,
   "linker_set_key" : "_ZTIK24VkCoarseSampleLocationNV",
   "name" : "const VkCoarseSampleLocationNV",
   "referenced_type" : "_ZTI24VkCoarseSampleLocationNV",
   "self_type" : "_ZTIK24VkCoarseSampleLocationNV",
   "size" : 12,
   "source_file" : "/external/vulkan-headers/include/vulkan/vulkan_core.h"
  },
  {
   "alignment" : 4,
   "is_const" : true,
   "linker_set_key" : "_ZTIK24VkCommandBufferBeginInfo",
   "name" : "const VkCommandBufferBeginInfo",
   "referenced_type" : "_ZTI24VkCommandBufferBeginInfo",
   "self_type" : "_ZTIK24VkCommandBufferBeginInfo",
   "size" : 16,
   "source_file" : "/external/vulkan-headers/include/vulkan/vulkan_core.h"
  },
  {
   "alignment" : 4,
   "is_const" : true,
   "linker_set_key" : "_ZTIK24VkPhysicalDeviceFeatures",
   "name" : "const VkPhysicalDeviceFeatures",
   "referenced_type" : "_ZTI24VkPhysicalDeviceFeatures",
   "self_type" : "_ZTIK24VkPhysicalDeviceFeatures",
   "size" : 220,
   "source_file" : "/external/vulkan-headers/include/vulkan/vulkan_core.h"
  },
  {
   "alignment" : 4,
   "is_const" : true,
   "linker_set_key" : "_ZTIK24VkShaderModuleCreateInfo",
   "name" : "const VkShaderModuleCreateInfo",
   "referenced_type" : "_ZTI24VkShaderModuleCreateInfo",
   "self_type" : "_ZTIK24VkShaderModuleCreateInfo",
   "size" : 20,
   "source_file" : "/external/vulkan-headers/include/vulkan/vulkan_core.h"
  },
  {
   "alignment" : 4,
   "is_const" : true,
   "linker_set_key" : "_ZTIK24VkSpecializationMapEntry",
   "name" : "const VkSpecializationMapEntry",
   "referenced_type" : "_ZTI24VkSpecializationMapEntry",
   "self_type" : "_ZTIK24VkSpecializationMapEntry",
   "size" : 12,
   "source_file" : "/external/vulkan-headers/include/vulkan/vulkan_core.h"
  },
  {
   "alignment" : 4,
   "is_const" : true,
   "linker_set_key" : "_ZTIK24VkSubpassDescription2KHR",
   "name" : "const VkSubpassDescription2KHR",
   "referenced_type" : "_ZTI24VkSubpassDescription2KHR",
   "self_type" : "_ZTIK24VkSubpassDescription2KHR",
   "size" : 52,
   "source_file" : "/external/vulkan-headers/include/vulkan/vulkan_core.h"
  },
  {
   "alignment" : 8,
   "is_const" : true,
   "linker_set_key" : "_ZTIK24VkSwapchainCreateInfoKHR",
   "name" : "const VkSwapchainCreateInfoKHR",
   "referenced_type" : "_ZTI24VkSwapchainCreateInfoKHR",
   "self_type" : "_ZTIK24VkSwapchainCreateInfoKHR",
   "size" : 88,
   "source_file" : "/external/vulkan-headers/include/vulkan/vulkan_core.h"
  },
  {
   "alignment" : 8,
   "is_const" : true,
   "linker_set_key" : "_ZTIK25VkAcquireNextImageInfoKHR",
   "name" : "const VkAcquireNextImageInfoKHR",
   "referenced_type" : "_ZTI25VkAcquireNextImageInfoKHR",
   "self_type" : "_ZTIK25VkAcquireNextImageInfoKHR",
   "size" : 48,
   "source_file" : "/external/vulkan-headers/include/vulkan/vulkan_core.h"
  },
  {
   "alignment" : 4,
   "is_const" : true,
   "linker_set_key" : "_ZTIK25VkAttachmentReference2KHR",
   "name" : "const VkAttachmentReference2KHR",
   "referenced_type" : "_ZTI25VkAttachmentReference2KHR",
   "self_type" : "_ZTIK25VkAttachmentReference2KHR",
   "size" : 20,
   "source_file" : "/external/vulkan-headers/include/vulkan/vulkan_core.h"
  },
  {
   "alignment" : 4,
   "is_const" : true,
   "linker_set_key" : "_ZTIK25VkPipelineCacheCreateInfo",
   "name" : "const VkPipelineCacheCreateInfo",
   "referenced_type" : "_ZTI25VkPipelineCacheCreateInfo",
   "self_type" : "_ZTIK25VkPipelineCacheCreateInfo",
   "size" : 20,
   "source_file" : "/external/vulkan-headers/include/vulkan/vulkan_core.h"
  },
  {
   "alignment" : 4,
   "is_const" : true,
   "linker_set_key" : "_ZTIK26VkDescriptorPoolCreateInfo",
   "name" : "const VkDescriptorPoolCreateInfo",
   "referenced_type" : "_ZTI26VkDescriptorPoolCreateInfo",
   "self_type" : "_ZTIK26VkDescriptorPoolCreateInfo",
   "size" : 24,
   "source_file" : "/external/vulkan-headers/include/vulkan/vulkan_core.h"
  },
  {
   "alignment" : 8,
   "is_const" : true,
   "linker_set_key" : "_ZTIK26VkIndirectCommandsTokenNVX",
   "name" : "const VkIndirectCommandsTokenNVX",
   "referenced_type" : "_ZTI26VkIndirectCommandsTokenNVX",
   "self_type" : "_ZTIK26VkIndirectCommandsTokenNVX",
   "size" : 24,
   "source_file" : "/external/vulkan-headers/include/vulkan/vulkan_core.h"
  },
  {
   "alignment" : 4,
   "is_const" : true,
   "linker_set_key" : "_ZTIK26VkPipelineLayoutCreateInfo",
   "name" : "const VkPipelineLayoutCreateInfo",
   "referenced_type" : "_ZTI26VkPipelineLayoutCreateInfo",
   "self_type" : "_ZTIK26VkPipelineLayoutCreateInfo",
   "size" : 28,
   "source_file" : "/external/vulkan-headers/include/vulkan/vulkan_core.h"
  },
  {
   "alignment" : 4,
   "is_const" : true,
   "linker_set_key" : "_ZTIK27VkAttachmentDescription2KHR",
   "name" : "const VkAttachmentDescription2KHR",
   "referenced_type" : "_ZTI27VkAttachmentDescription2KHR",
   "self_type" : "_ZTIK27VkAttachmentDescription2KHR",
   "size" : 44,
   "source_file" : "/external/vulkan-headers/include/vulkan/vulkan_core.h"
  },
  {
   "alignment" : 4,
   "is_const" : true,
   "linker_set_key" : "_ZTIK27VkCoarseSampleOrderCustomNV",
   "name" : "const VkCoarseSampleOrderCustomNV",
   "referenced_type" : "_ZTI27VkCoarseSampleOrderCustomNV",
   "self_type" : "_ZTIK27VkCoarseSampleOrderCustomNV",
   "size" : 16,
   "source_file" : "/external/vulkan-headers/include/vulkan/vulkan_core.h"
  },
  {
   "alignment" : 8,
   "is_const" : true,
   "linker_set_key" : "_ZTIK27VkCommandBufferAllocateInfo",
   "name" : "const VkCommandBufferAllocateInfo",
   "referenced_type" : "_ZTI27VkCommandBufferAllocateInfo",
   "self_type" : "_ZTIK27VkCommandBufferAllocateInfo",
   "size" : 24,
   "source_file" : "/external/vulkan-headers/include/vulkan/vulkan_core.h"
  },
  {
   "alignment" : 8,
   "is_const" : true,
   "linker_set_key" : "_ZTIK27VkComputePipelineCreateInfo",
   "name" : "const VkComputePipelineCreateInfo",
   "referenced_type" : "_ZTI27VkComputePipelineCreateInfo",
   "self_type" : "_ZTIK27VkComputePipelineCreateInfo",
   "size" : 72,
   "source_file" : "/external/vulkan-headers/include/vulkan/vulkan_core.h"
  },
  {
   "alignment" : 8,
   "is_const" : true,
   "linker_set_key" : "_ZTIK27VkDescriptorSetAllocateInfo",
   "name" : "const VkDescriptorSetAllocateInfo",
   "referenced_type" : "_ZTI27VkDescriptorSetAllocateInfo",
   "self_type" : "_ZTIK27VkDescriptorSetAllocateInfo",
   "size" : 24,
   "source_file" : "/external/vulkan-headers/include/vulkan/vulkan_core.h"
  },
  {
   "alignment" : 4,
   "is_const" : true,
   "linker_set_key" : "_ZTIK27VkShadingRatePaletteEntryNV",
   "name" : "const VkShadingRatePaletteEntryNV",
   "referenced_type" : "_ZTI27VkShadingRatePaletteEntryNV",
   "self_type" : "_ZTIK27VkShadingRatePaletteEntryNV",
   "size" : 4,
   "source_file" : "/external/vulkan-headers/include/vulkan/vulkan_core.h"
  },
  {
   "alignment" : 8,
   "is_const" : true,
   "linker_set_key" : "_ZTIK27VkSparseImageMemoryBindInfo",
   "name" : "const VkSparseImageMemoryBindInfo",
   "referenced_type" : "_ZTI27VkSparseImageMemoryBindInfo",
   "self_type" : "_ZTIK27VkSparseImageMemoryBindInfo",
   "size" : 16,
   "source_file" : "/external/vulkan-headers/include/vulkan/vulkan_core.h"
  },
  {
   "alignment" : 4,
   "is_const" : true,
   "linker_set_key" : "_ZTIK27VkSubpassSampleLocationsEXT",
   "name" : "const VkSubpassSampleLocationsEXT",
   "referenced_type" : "_ZTI27VkSubpassSampleLocationsEXT",
   "self_type" : "_ZTIK27VkSubpassSampleLocationsEXT",
   "size" : 32,
   "source_file" : "/external/vulkan-headers/include/vulkan/vulkan_core.h"
  },
  {
   "alignment" : 4,
   "is_const" : true,
   "linker_set_key" : "_ZTIK28VkDescriptorSetLayoutBinding",
   "name" : "const VkDescriptorSetLayoutBinding",
   "referenced_type" : "_ZTI28VkDescriptorSetLayoutBinding",
   "self_type" : "_ZTIK28VkDescriptorSetLayoutBinding",
   "size" : 20,
   "source_file" : "/external/vulkan-headers/include/vulkan/vulkan_core.h"
  },
  {
   "alignment" : 8,
   "is_const" : true,
   "linker_set_key" : "_ZTIK28VkGraphicsPipelineCreateInfo",
   "name" : "const VkGraphicsPipelineCreateInfo",
   "referenced_type" : "_ZTI28VkGraphicsPipelineCreateInfo",
   "self_type" : "_ZTIK28VkGraphicsPipelineCreateInfo",
   "size" : 96,
   "source_file" : "/external/vulkan-headers/include/vulkan/vulkan_core.h"
  },
  {
   "alignment" : 8,
   "is_const" : true,
   "linker_set_key" : "_ZTIK28VkSparseBufferMemoryBindInfo",
   "name" : "const VkSparseBufferMemoryBindInfo",
   "referenced_type" : "_ZTI28VkSparseBufferMemoryBindInfo",
   "self_type" : "_ZTIK28VkSparseBufferMemoryBindInfo",
   "size" : 16,
   "source_file" : "/external/vulkan-headers/include/vulkan/vulkan_core.h"
  },
  {
   "alignment" : 4,
   "is_const" : true,
   "linker_set_key" : "_ZTIK28VkValidationFeatureEnableEXT",
   "name" : "const VkValidationFeatureEnableEXT",
   "referenced_type" : "_ZTI28VkValidationFeatureEnableEXT",
   "self_type" : "_ZTIK28VkValidationFeatureEnableEXT",
   "size" : 4,
   "source_file" : "/external/vulkan-headers/include/vulkan/vulkan_core.h"
  },
  {
   "alignment" : 4,
   "is_const" : true,
   "linker_set_key" : "_ZTIK29VkAndroidSurfaceCreateInfoKHR",
   "name" : "const VkAndroidSurfaceCreateInfoKHR",
   "referenced_type" : "_ZTI29VkAndroidSurfaceCreateInfoKHR",
   "self_type" : "_ZTIK29VkAndroidSurfaceCreateInfoKHR",
   "size" : 16,
   "source_file" : "/external/vulkan-headers/include/vulkan/vulkan_android.h"
  },
  {
   "alignment" : 8,
   "is_const" : true,
   "linker_set_key" : "_ZTIK29VkDebugUtilsObjectNameInfoEXT",
   "name" : "const VkDebugUtilsObjectNameInfoEXT",
   "referenced_type" : "_ZTI29VkDebugUtilsObjectNameInfoEXT",
   "self_type" : "_ZTIK29VkDebugUtilsObjectNameInfoEXT",
   "size" : 32,
   "source_file" : "/external/vulkan-headers/include/vulkan/vulkan_core.h"
  },
  {
   "alignment" : 4,
   "is_const" : true,
   "linker_set_key" : "_ZTIK29VkValidationFeatureDisableEXT",
   "name" : "const VkValidationFeatureDisableEXT",
   "referenced_type" : "_ZTI29VkValidationFeatureDisableEXT",
   "self_type" : "_ZTIK29VkValidationFeatureDisableEXT",
   "size" : 4,
   "source_file" : "/external/vulkan-headers/include/vulkan/vulkan_core.h"
  },
  {
   "alignment" : 4,
   "is_const" : true,
   "linker_set_key" : "_ZTIK30VkAttachmentSampleLocationsEXT",
   "name" : "const VkAttachmentSampleLocationsEXT",
   "referenced_type" : "_ZTI30VkAttachmentSampleLocationsEXT",
   "self_type" : "_ZTIK30VkAttachmentSampleLocationsEXT",
   "size" : 32,
   "source_file" : "/external/vulkan-headers/include/vulkan/vulkan_core.h"
  },
  {
   "alignment" : 8,
   "is_const" : true,
   "linker_set_key" : "_ZTIK30VkCommandBufferInheritanceInfo",
   "name" : "const VkCommandBufferInheritanceInfo",
   "referenced_type" : "_ZTI30VkCommandBufferInheritanceInfo",
   "self_type" : "_ZTIK30VkCommandBufferInheritanceInfo",
   "size" : 48,
   "source_file" : "/external/vulkan-headers/include/vulkan/vulkan_core.h"
  },
  {
   "alignment" : 8,
   "is_const" : true,
   "linker_set_key" : "_ZTIK30VkImageMemoryRequirementsInfo2",
   "name" : "const VkImageMemoryRequirementsInfo2",
   "referenced_type" : "_ZTI30VkImageMemoryRequirementsInfo2",
   "self_type" : "_ZTIK30VkImageMemoryRequirementsInfo2",
   "size" : 16,
   "source_file" : "/external/vulkan-headers/include/vulkan/vulkan_core.h"
  },
  {
   "alignment" : 8,
   "is_const" : true,
   "linker_set_key" : "_ZTIK31VkBufferMemoryRequirementsInfo2",
   "name" : "const VkBufferMemoryRequirementsInfo2",
   "referenced_type" : "_ZTI31VkBufferMemoryRequirementsInfo2",
   "self_type" : "_ZTIK31VkBufferMemoryRequirementsInfo2",
   "size" : 16,
   "source_file" : "/external/vulkan-headers/include/vulkan/vulkan_core.h"
  },
  {
   "alignment" : 4,
   "is_const" : true,
   "linker_set_key" : "_ZTIK31VkDescriptorSetLayoutCreateInfo",
   "name" : "const VkDescriptorSetLayoutCreateInfo",
   "referenced_type" : "_ZTI31VkDescriptorSetLayoutCreateInfo",
   "self_type" : "_ZTIK31VkDescriptorSetLayoutCreateInfo",
   "size" : 20,
   "source_file" : "/external/vulkan-headers/include/vulkan/vulkan_core.h"
  },
  {
   "alignment" : 4,
   "is_const" : true,
   "linker_set_key" : "_ZTIK31VkDescriptorUpdateTemplateEntry",
   "name" : "const VkDescriptorUpdateTemplateEntry",
   "referenced_type" : "_ZTI31VkDescriptorUpdateTemplateEntry",
   "self_type" : "_ZTIK31VkDescriptorUpdateTemplateEntry",
   "size" : 24,
   "source_file" : "/external/vulkan-headers/include/vulkan/vulkan_core.h"
  },
  {
   "alignment" : 8,
   "is_const" : true,
   "linker_set_key" : "_ZTIK31VkPipelineShaderStageCreateInfo",
   "name" : "const VkPipelineShaderStageCreateInfo",
   "referenced_type" : "_ZTI31VkPipelineShaderStageCreateInfo",
   "self_type" : "_ZTIK31VkPipelineShaderStageCreateInfo",
   "size" : 32,
   "source_file" : "/external/vulkan-headers/include/vulkan/vulkan_core.h"
  },
  {
   "alignment" : 4,
   "is_const" : true,
   "linker_set_key" : "_ZTIK31VkVertexInputBindingDescription",
   "name" : "const VkVertexInputBindingDescription",
   "referenced_type" : "_ZTI31VkVertexInputBindingDescription",
   "self_type" : "_ZTIK31VkVertexInputBindingDescription",
   "size" : 12,
   "source_file" : "/external/vulkan-headers/include/vulkan/vulkan_core.h"
  },
  {
   "alignment" : 4,
   "is_const" : true,
   "linker_set_key" : "_ZTIK32VkIndirectCommandsLayoutTokenNVX",
   "name" : "const VkIndirectCommandsLayoutTokenNVX",
   "referenced_type" : "_ZTI32VkIndirectCommandsLayoutTokenNVX",
   "self_type" : "_ZTIK32VkIndirectCommandsLayoutTokenNVX",
   "size" : 16,
   "source_file" : "/external/vulkan-headers/include/vulkan/vulkan_core.h"
  },
  {
   "alignment" : 4,
   "is_const" : true,
   "linker_set_key" : "_ZTIK32VkInputAttachmentAspectReference",
   "name" : "const VkInputAttachmentAspectReference",
   "referenced_type" : "_ZTI32VkInputAttachmentAspectReference",
   "self_type" : "_ZTIK32VkInputAttachmentAspectReference",
   "size" : 12,
   "source_file" : "/external/vulkan-headers/include/vulkan/vulkan_core.h"
  },
  {
   "alignment" : 4,
   "is_const" : true,
   "linker_set_key" : "_ZTIK32VkPhysicalDeviceImageFormatInfo2",
   "name" : "const VkPhysicalDeviceImageFormatInfo2",
   "referenced_type" : "_ZTI32VkPhysicalDeviceImageFormatInfo2",
   "self_type" : "_ZTIK32VkPhysicalDeviceImageFormatInfo2",
   "size" : 28,
   "source_file" : "/external/vulkan-headers/include/vulkan/vulkan_core.h"
  },
  {
   "alignment" : 4,
   "is_const" : true,
   "linker_set_key" : "_ZTIK32VkPipelineDynamicStateCreateInfo",
   "name" : "const VkPipelineDynamicStateCreateInfo",
   "referenced_type" : "_ZTI32VkPipelineDynamicStateCreateInfo",
   "self_type" : "_ZTIK32VkPipelineDynamicStateCreateInfo",
   "size" : 20,
   "source_file" : "/external/vulkan-headers/include/vulkan/vulkan_core.h"
  },
  {
   "alignment" : 4,
   "is_const" : true,
   "linker_set_key" : "_ZTIK33VkPhysicalDeviceExternalFenceInfo",
   "name" : "const VkPhysicalDeviceExternalFenceInfo",
   "referenced_type" : "_ZTI33VkPhysicalDeviceExternalFenceInfo",
   "self_type" : "_ZTIK33VkPhysicalDeviceExternalFenceInfo",
   "size" : 12,
   "source_file" : "/external/vulkan-headers/include/vulkan/vulkan_core.h"
  },
  {
   "alignment" : 4,
   "is_const" : true,
   "linker_set_key" : "_ZTIK33VkPipelineViewportStateCreateInfo",
   "name" : "const VkPipelineViewportStateCreateInfo",
   "referenced_type" : "_ZTI33VkPipelineViewportStateCreateInfo",
   "self_type" : "_ZTIK33VkPipelineViewportStateCreateInfo",
   "size" : 28,
   "source_file" : "/external/vulkan-headers/include/vulkan/vulkan_core.h"
  },
  {
   "alignment" : 8,
   "is_const" : true,
   "linker_set_key" : "_ZTIK33VkSparseImageOpaqueMemoryBindInfo",
   "name" : "const VkSparseImageOpaqueMemoryBindInfo",
   "referenced_type" : "_ZTI33VkSparseImageOpaqueMemoryBindInfo",
   "self_type" : "_ZTIK33VkSparseImageOpaqueMemoryBindInfo",
   "size" : 16,
   "source_file" : "/external/vulkan-headers/include/vulkan/vulkan_core.h"
  },
  {
   "alignment" : 4,
   "is_const" : true,
   "linker_set_key" : "_ZTIK33VkVertexInputAttributeDescription",
   "name" : "const VkVertexInputAttributeDescription",
   "referenced_type" : "_ZTI33VkVertexInputAttributeDescription",
   "self_type" : "_ZTIK33VkVertexInputAttributeDescription",
   "size" : 16,
   "source_file" : "/external/vulkan-headers/include/vulkan/vulkan_core.h"
  },
  {
   "alignment" : 4,
   "is_const" : true,
   "linker_set_key" : "_ZTIK34VkPhysicalDeviceExternalBufferInfo",
   "name" : "const VkPhysicalDeviceExternalBufferInfo",
   "referenced_type" : "_ZTI34VkPhysicalDeviceExternalBufferInfo",
   "self_type" : "_ZTIK34VkPhysicalDeviceExternalBufferInfo",
   "size" : 20,
   "source_file" : "/external/vulkan-headers/include/vulkan/vulkan_core.h"
  },
  {
   "alignment" : 4,
   "is_const" : true,
   "linker_set_key" : "_ZTIK34VkSamplerYcbcrConversionCreateInfo",
   "name" : "const VkSamplerYcbcrConversionCreateInfo",
   "referenced_type" : "_ZTI34VkSamplerYcbcrConversionCreateInfo",
   "self_type" : "_ZTIK34VkSamplerYcbcrConversionCreateInfo",
   "size" : 52,
   "source_file" : "/external/vulkan-headers/include/vulkan/vulkan_core.h"
  },
  {
   "alignment" : 4,
   "is_const" : true,
   "linker_set_key" : "_ZTIK35VkFramebufferAttachmentImageInfoKHR",
   "name" : "const VkFramebufferAttachmentImageInfoKHR",
   "referenced_type" : "_ZTI35VkFramebufferAttachmentImageInfoKHR",
   "self_type" : "_ZTIK35VkFramebufferAttachmentImageInfoKHR",
   "size" : 36,
   "source_file" : "/external/vulkan-headers/include/vulkan/vulkan_core.h"
  },
  {
   "alignment" : 4,
   "is_const" : true,
   "linker_set_key" : "_ZTIK35VkPipelineColorBlendAttachmentState",
   "name" : "const VkPipelineColorBlendAttachmentState",
   "referenced_type" : "_ZTI35VkPipelineColorBlendAttachmentState",
   "self_type" : "_ZTIK35VkPipelineColorBlendAttachmentState",
   "size" : 32,
   "source_file" : "/external/vulkan-headers/include/vulkan/vulkan_core.h"
  },
  {
   "alignment" : 4,
   "is_const" : true,
   "linker_set_key" : "_ZTIK35VkPipelineColorBlendStateCreateInfo",
   "name" : "const VkPipelineColorBlendStateCreateInfo",
   "referenced_type" : "_ZTI35VkPipelineColorBlendStateCreateInfo",
   "self_type" : "_ZTIK35VkPipelineColorBlendStateCreateInfo",
   "size" : 44,
   "source_file" : "/external/vulkan-headers/include/vulkan/vulkan_core.h"
  },
  {
   "alignment" : 4,
   "is_const" : true,
   "linker_set_key" : "_ZTIK35VkRayTracingShaderGroupCreateInfoNV",
   "name" : "const VkRayTracingShaderGroupCreateInfoNV",
   "referenced_type" : "_ZTI35VkRayTracingShaderGroupCreateInfoNV",
   "self_type" : "_ZTIK35VkRayTracingShaderGroupCreateInfoNV",
   "size" : 28,
   "source_file" : "/external/vulkan-headers/include/vulkan/vulkan_core.h"
  },
  {
   "alignment" : 4,
   "is_const" : true,
   "linker_set_key" : "_ZTIK36VkDebugUtilsMessengerCallbackDataEXT",
   "name" : "const VkDebugUtilsMessengerCallbackDataEXT",
   "referenced_type" : "_ZTI36VkDebugUtilsMessengerCallbackDataEXT",
   "self_type" : "_ZTIK36VkDebugUtilsMessengerCallbackDataEXT",
   "size" : 48,
   "source_file" : "/external/vulkan-headers/include/vulkan/vulkan_core.h"
  },
  {
   "alignment" : 8,
   "is_const" : true,
   "linker_set_key" : "_ZTIK36VkDescriptorUpdateTemplateCreateInfo",
   "name" : "const VkDescriptorUpdateTemplateCreateInfo",
   "referenced_type" : "_ZTI36VkDescriptorUpdateTemplateCreateInfo",
   "self_type" : "_ZTIK36VkDescriptorUpdateTemplateCreateInfo",
   "size" : 56,
   "source_file" : "/external/vulkan-headers/include/vulkan/vulkan_core.h"
  },
  {
   "alignment" : 8,
   "is_const" : true,
   "linker_set_key" : "_ZTIK36VkImageSparseMemoryRequirementsInfo2",
   "name" : "const VkImageSparseMemoryRequirementsInfo2",
   "referenced_type" : "_ZTI36VkImageSparseMemoryRequirementsInfo2",
   "self_type" : "_ZTIK36VkImageSparseMemoryRequirementsInfo2",
   "size" : 16,
   "source_file" : "/external/vulkan-headers/include/vulkan/vulkan_core.h"
  },
  {
   "alignment" : 4,
   "is_const" : true,
   "linker_set_key" : "_ZTIK36VkPipelineMultisampleStateCreateInfo",
   "name" : "const VkPipelineMultisampleStateCreateInfo",
   "referenced_type" : "_ZTI36VkPipelineMultisampleStateCreateInfo",
   "self_type" : "_ZTIK36VkPipelineMultisampleStateCreateInfo",
   "size" : 36,
   "source_file" : "/external/vulkan-headers/include/vulkan/vulkan_core.h"
  },
  {
   "alignment" : 4,
   "is_const" : true,
   "linker_set_key" : "_ZTIK36VkPipelineVertexInputStateCreateInfo",
   "name" : "const VkPipelineVertexInputStateCreateInfo",
   "referenced_type" : "_ZTI36VkPipelineVertexInputStateCreateInfo",
   "self_type" : "_ZTIK36VkPipelineVertexInputStateCreateInfo",
   "size" : 28,
   "source_file" : "/external/vulkan-headers/include/vulkan/vulkan_core.h"
  },
  {
   "alignment" : 4,
   "is_const" : true,
   "linker_set_key" : "_ZTIK37VkPhysicalDeviceExternalSemaphoreInfo",
   "name" : "const VkPhysicalDeviceExternalSemaphoreInfo",
   "referenced_type" : "_ZTI37VkPhysicalDeviceExternalSemaphoreInfo",
   "self_type" : "_ZTIK37VkPhysicalDeviceExternalSemaphoreInfo",
   "size" : 12,
   "source_file" : "/external/vulkan-headers/include/vulkan/vulkan_core.h"
  },
  {
   "alignment" : 4,
   "is_const" : true,
   "linker_set_key" : "_ZTIK37VkPipelineDepthStencilStateCreateInfo",
   "name" : "const VkPipelineDepthStencilStateCreateInfo",
   "referenced_type" : "_ZTI37VkPipelineDepthStencilStateCreateInfo",
   "self_type" : "_ZTIK37VkPipelineDepthStencilStateCreateInfo",
   "size" : 96,
   "source_file" : "/external/vulkan-headers/include/vulkan/vulkan_core.h"
  },
  {
   "alignment" : 4,
   "is_const" : true,
   "linker_set_key" : "_ZTIK37VkPipelineTessellationStateCreateInfo",
   "name" : "const VkPipelineTessellationStateCreateInfo",
   "referenced_type" : "_ZTI37VkPipelineTessellationStateCreateInfo",
   "self_type" : "_ZTIK37VkPipelineTessellationStateCreateInfo",
   "size" : 16,
   "source_file" : "/external/vulkan-headers/include/vulkan/vulkan_core.h"
  },
  {
   "alignment" : 4,
   "is_const" : true,
   "linker_set_key" : "_ZTIK38VkPhysicalDeviceSparseImageFormatInfo2",
   "name" : "const VkPhysicalDeviceSparseImageFormatInfo2",
   "referenced_type" : "_ZTI38VkPhysicalDeviceSparseImageFormatInfo2",
   "self_type" : "_ZTIK38VkPhysicalDeviceSparseImageFormatInfo2",
   "size" : 28,
   "source_file" : "/external/vulkan-headers/include/vulkan/vulkan_core.h"
  },
  {
   "alignment" : 4,
   "is_const" : true,
   "linker_set_key" : "_ZTIK38VkPipelineInputAssemblyStateCreateInfo",
   "name" : "const VkPipelineInputAssemblyStateCreateInfo",
   "referenced_type" : "_ZTI38VkPipelineInputAssemblyStateCreateInfo",
   "self_type" : "_ZTIK38VkPipelineInputAssemblyStateCreateInfo",
   "size" : 20,
   "source_file" : "/external/vulkan-headers/include/vulkan/vulkan_core.h"
  },
  {
   "alignment" : 4,
   "is_const" : true,
   "linker_set_key" : "_ZTIK38VkPipelineRasterizationStateCreateInfo",
   "name" : "const VkPipelineRasterizationStateCreateInfo",
   "referenced_type" : "_ZTI38VkPipelineRasterizationStateCreateInfo",
   "self_type" : "_ZTIK38VkPipelineRasterizationStateCreateInfo",
   "size" : 52,
   "source_file" : "/external/vulkan-headers/include/vulkan/vulkan_core.h"
  },
  {
   "alignment" : 4,
   "is_const" : true,
   "linker_set_key" : "_ZTIK41VkVertexInputBindingDivisorDescriptionEXT",
   "name" : "const VkVertexInputBindingDivisorDescriptionEXT",
   "referenced_type" : "_ZTI41VkVertexInputBindingDivisorDescriptionEXT",
   "self_type" : "_ZTIK41VkVertexInputBindingDivisorDescriptionEXT",
   "size" : 8,
   "source_file" : "/external/vulkan-headers/include/vulkan/vulkan_core.h"
  },
  {
   "alignment" : 8,
   "is_const" : true,
   "linker_set_key" : "_ZTIK43VkMemoryGetAndroidHardwareBufferInfoANDROID",
   "name" : "const VkMemoryGetAndroidHardwareBufferInfoANDROID",
   "referenced_type" : "_ZTI43VkMemoryGetAndroidHardwareBufferInfoANDROID",
   "self_type" : "_ZTIK43VkMemoryGetAndroidHardwareBufferInfoANDROID",
   "size" : 16,
   "source_file" : "/external/vulkan-headers/include/vulkan/vulkan_android.h"
  },
  {
   "alignment" : 4,
   "is_const" : true,
   "linker_set_key" : "_ZTIK8VkFormat",
   "name" : "const VkFormat",
   "referenced_type" : "_ZTI8VkFormat",
   "self_type" : "_ZTIK8VkFormat",
   "size" : 4,
   "source_file" : "/external/vulkan-headers/include/vulkan/vulkan_core.h"
  },
  {
   "alignment" : 4,
   "is_const" : true,
   "linker_set_key" : "_ZTIK8VkRect2D",
   "name" : "const VkRect2D",
   "referenced_type" : "_ZTI8VkRect2D",
   "self_type" : "_ZTIK8VkRect2D",
   "size" : 16,
   "source_file" : "/external/vulkan-headers/include/vulkan/vulkan_core.h"
  },
  {
   "alignment" : 4,
   "is_const" : true,
   "linker_set_key" : "_ZTIKP17VkCommandBuffer_T",
   "name" : "VkCommandBuffer_T *const",
   "referenced_type" : "_ZTIP17VkCommandBuffer_T",
   "self_type" : "_ZTIKP17VkCommandBuffer_T",
   "size" : 4,
   "source_file" : "/external/vulkan-headers/include/vulkan/vulkan_core.h"
  },
  {
   "alignment" : 4,
   "is_const" : true,
   "linker_set_key" : "_ZTIKP18VkPhysicalDevice_T",
   "name" : "VkPhysicalDevice_T *const",
   "referenced_type" : "_ZTIP18VkPhysicalDevice_T",
   "self_type" : "_ZTIKP18VkPhysicalDevice_T",
   "size" : 4,
   "source_file" : "/external/vulkan-headers/include/vulkan/vulkan_core.h"
  },
  {
   "alignment" : 4,
   "is_const" : true,
   "linker_set_key" : "_ZTIKPKc",
   "name" : "const char *const",
   "referenced_type" : "_ZTIPKc",
   "self_type" : "_ZTIKPKc",
   "size" : 4,
   "source_file" : "/external/vulkan-headers/include/vulkan/vulkan_core.h"
  },
  {
   "alignment" : 1,
   "is_const" : true,
   "linker_set_key" : "_ZTIKc",
   "name" : "const char",
   "referenced_type" : "_ZTIc",
   "self_type" : "_ZTIKc",
   "size" : 1,
   "source_file" : "/external/vulkan-headers/include/vulkan/vulkan_core.h"
  },
  {
   "alignment" : 4,
   "is_const" : true,
   "linker_set_key" : "_ZTIKf",
   "name" : "const float",
   "referenced_type" : "_ZTIf",
   "self_type" : "_ZTIKf",
   "size" : 4,
   "source_file" : "/external/vulkan-headers/include/vulkan/vulkan_core.h"
  },
  {
   "alignment" : 4,
   "is_const" : true,
   "linker_set_key" : "_ZTIKi",
   "name" : "const int",
   "referenced_type" : "_ZTIi",
   "self_type" : "_ZTIKi",
   "size" : 4,
   "source_file" : "/external/vulkan-headers/include/vulkan/vulkan_core.h"
  },
  {
   "alignment" : 4,
   "is_const" : true,
   "linker_set_key" : "_ZTIKj",
   "name" : "const unsigned int",
   "referenced_type" : "_ZTIj",
   "self_type" : "_ZTIKj",
   "size" : 4,
   "source_file" : "/external/vulkan-headers/include/vulkan/vulkan_core.h"
  },
  {
   "is_const" : true,
   "linker_set_key" : "_ZTIKv",
   "name" : "const void",
   "referenced_type" : "_ZTIv",
   "self_type" : "_ZTIKv",
   "source_file" : "/external/vulkan-headers/include/vulkan/vulkan_core.h"
  },
  {
   "alignment" : 8,
   "is_const" : true,
   "linker_set_key" : "_ZTIKy",
   "name" : "const unsigned long long",
   "referenced_type" : "_ZTIy",
   "self_type" : "_ZTIKy",
   "size" : 8,
   "source_file" : "/external/vulkan-headers/include/vulkan/vulkan_core.h"
  }
 ],
 "record_types" :
 [
  {
   "alignment" : 4,
   "fields" :
   [
    {
     "field_name" : "width",
     "referenced_type" : "_ZTIj"
    },
    {
     "field_name" : "height",
     "field_offset" : 32,
     "referenced_type" : "_ZTIj"
    }
   ],
   "linker_set_key" : "_ZTI10VkExtent2D",
   "name" : "VkExtent2D",
   "referenced_type" : "_ZTI10VkExtent2D",
   "self_type" : "_ZTI10VkExtent2D",
   "size" : 8,
   "source_file" : "/external/vulkan-headers/include/vulkan/vulkan_core.h"
  },
  {
   "alignment" : 4,
   "fields" :
   [
    {
     "field_name" : "width",
     "referenced_type" : "_ZTIj"
    },
    {
     "field_name" : "height",
     "field_offset" : 32,
     "referenced_type" : "_ZTIj"
    },
    {
     "field_name" : "depth",
     "field_offset" : 64,
     "referenced_type" : "_ZTIj"
    }
   ],
   "linker_set_key" : "_ZTI10VkExtent3D",
   "name" : "VkExtent3D",
   "referenced_type" : "_ZTI10VkExtent3D",
   "self_type" : "_ZTI10VkExtent3D",
   "size" : 12,
   "source_file" : "/external/vulkan-headers/include/vulkan/vulkan_core.h"
  },
  {
   "alignment" : 4,
   "fields" :
   [
    {
     "field_name" : "x",
     "referenced_type" : "_ZTIi"
    },
    {
     "field_name" : "y",
     "field_offset" : 32,
     "referenced_type" : "_ZTIi"
    }
   ],
   "linker_set_key" : "_ZTI10VkOffset2D",
   "name" : "VkOffset2D",
   "referenced_type" : "_ZTI10VkOffset2D",
   "self_type" : "_ZTI10VkOffset2D",
   "size" : 8,
   "source_file" : "/external/vulkan-headers/include/vulkan/vulkan_core.h"
  },
  {
   "alignment" : 4,
   "fields" :
   [
    {
     "field_name" : "x",
     "referenced_type" : "_ZTIi"
    },
    {
     "field_name" : "y",
     "field_offset" : 32,
     "referenced_type" : "_ZTIi"
    },
    {
     "field_name" : "z",
     "field_offset" : 64,
     "referenced_type" : "_ZTIi"
    }
   ],
   "linker_set_key" : "_ZTI10VkOffset3D",
   "name" : "VkOffset3D",
   "referenced_type" : "_ZTI10VkOffset3D",
   "self_type" : "_ZTI10VkOffset3D",
   "size" : 12,
   "source_file" : "/external/vulkan-headers/include/vulkan/vulkan_core.h"
  },
  {
   "alignment" : 4,
   "fields" :
   [
    {
     "field_name" : "x",
     "referenced_type" : "_ZTIf"
    },
    {
     "field_name" : "y",
     "field_offset" : 32,
     "referenced_type" : "_ZTIf"
    },
    {
     "field_name" : "width",
     "field_offset" : 64,
     "referenced_type" : "_ZTIf"
    },
    {
     "field_name" : "height",
     "field_offset" : 96,
     "referenced_type" : "_ZTIf"
    },
    {
     "field_name" : "minDepth",
     "field_offset" : 128,
     "referenced_type" : "_ZTIf"
    },
    {
     "field_name" : "maxDepth",
     "field_offset" : 160,
     "referenced_type" : "_ZTIf"
    }
   ],
   "linker_set_key" : "_ZTI10VkViewport",
   "name" : "VkViewport",
   "referenced_type" : "_ZTI10VkViewport",
   "self_type" : "_ZTI10VkViewport",
   "size" : 24,
   "source_file" : "/external/vulkan-headers/include/vulkan/vulkan_core.h"
  },
  {
   "alignment" : 4,
   "fields" :
   [
    {
     "field_name" : "rect",
     "referenced_type" : "_ZTI8VkRect2D"
    },
    {
     "field_name" : "baseArrayLayer",
     "field_offset" : 128,
     "referenced_type" : "_ZTIj"
    },
    {
     "field_name" : "layerCount",
     "field_offset" : 160,
     "referenced_type" : "_ZTIj"
    }
   ],
   "linker_set_key" : "_ZTI11VkClearRect",
   "name" : "VkClearRect",
   "referenced_type" : "_ZTI11VkClearRect",
   "self_type" : "_ZTI11VkClearRect",
   "size" : 24,
   "source_file" : "/external/vulkan-headers/include/vulkan/vulkan_core.h"
  },
  {
   "alignment" : 4,
   "fields" :
   [
    {
     "field_name" : "srcSubresource",
     "referenced_type" : "_ZTI24VkImageSubresourceLayers"
    },
    {
     "field_name" : "srcOffsets",
     "field_offset" : 128,
     "referenced_type" : "_ZTIA2_10VkOffset3D"
    },
    {
     "field_name" : "dstSubresource",
     "field_offset" : 320,
     "referenced_type" : "_ZTI24VkImageSubresourceLayers"
    },
    {
     "field_name" : "dstOffsets",
     "field_offset" : 448,
     "referenced_type" : "_ZTIA2_10VkOffset3D"
    }
   ],
   "linker_set_key" : "_ZTI11VkImageBlit",
   "name" : "VkImageBlit",
   "referenced_type" : "_ZTI11VkImageBlit",
   "self_type" : "_ZTI11VkImageBlit",
   "size" : 80,
   "source_file" : "/external/vulkan-headers/include/vulkan/vulkan_core.h"
  },
  {
   "alignment" : 4,
   "fields" :
   [
    {
     "field_name" : "srcSubresource",
     "referenced_type" : "_ZTI24VkImageSubresourceLayers"
    },
    {
     "field_name" : "srcOffset",
     "field_offset" : 128,
