c__builtin__
set
p0
((lp1
ccopy_reg
_reconstructor
p2
(ctest_finders.test_info
TestInfo
p3
c__builtin__
object
p4
Ntp5
Rp6
(dp7
S'compatibility_suites'
p8
(lp9
S'device-tests'
p10
asS'install_locations'
p11
g0
((lp12
S'device'
p13
aS'host'
p14
atp15
Rp16
sS'test_runner'
p17
S'AtestTradefedTestRunner'
p18
sS'test_finder'
p19
S'MODULE'
p20
sS'module_class'
p21
(lp22
VNATIVE_TESTS
p23
asS'from_test_mapping'
p24
I00
sS'build_targets'
p25
g0
((lp26
VMODULES-IN-platform_testing-tests-example-native
p27
atp28
Rp29
sg14
I00
sS'test_name'
p30
S'hello_world_test'
p31
sS'suite'
p32
NsS'data'
p33
(dp34
S'rel_config'
p35
Vplatform_testing/tests/example/native/AndroidTest.xml
p36
sS'filter'
p37
c__builtin__
frozenset
p38
((lp39
tp40
Rp41
ssbatp42
Rp43
.