{
 "array_types" :
 [
  {
   "alignment" : 1,
   "linker_set_key" : "char [0]",
   "name" : "char [0]",
   "referenced_type" : "type-83",
   "self_type" : "type-389",
   "source_file" : "/system/core/liblog/include/log/log_read.h"
  },
  {
   "linker_set_key" : "float []",
   "name" : "float []",
   "referenced_type" : "type-970",
   "self_type" : "type-1525",
   "source_file" : "/system/core/libsystem/include/system/graphics.h"
  },
  {
   "alignment" : 4,
   "linker_set_key" : "int [0]",
   "name" : "int [0]",
   "referenced_type" : "type-51",
   "self_type" : "type-763",
   "source_file" : "/system/core/libcutils/include/cutils/native_handle.h"
  },
  {
   "alignment" : 1,
   "linker_set_key" : "signed char [2]",
   "name" : "signed char [2]",
   "referenced_type" : "type-332",
   "self_type" : "type-352",
   "size" : 2,
   "source_file" : "/system/libhidl/base/include/hidl/HidlSupport.h"
  },
  {
   "alignment" : 1,
   "linker_set_key" : "unsigned char [14]",
   "name" : "unsigned char [14]",
   "referenced_type" : "type-29",
   "self_type" : "type-856",
   "size" : 14,
   "source_file" : "/system/libhidl/base/include/hidl/HidlSupport.h"
  },
  {
   "alignment" : 1,
   "linker_set_key" : "unsigned char [16]",
   "name" : "unsigned char [16]",
   "referenced_type" : "type-29",
   "self_type" : "type-325",
   "size" : 16,
   "source_file" : "/system/libhidl/base/include/hidl/HidlSupport.h"
  },
  {
   "alignment" : 1,
   "linker_set_key" : "unsigned char [32]",
   "name" : "unsigned char [32]",
   "referenced_type" : "type-29",
   "self_type" : "type-722",
   "size" : 32,
   "source_file" : "/system/libhidl/base/include/hidl/HidlSupport.h"
  },
  {
   "alignment" : 1,
   "linker_set_key" : "unsigned char [4]",
   "name" : "unsigned char [4]",
   "referenced_type" : "type-29",
   "self_type" : "type-357",
   "size" : 4,
   "source_file" : "/system/libhidl/base/include/hidl/HidlSupport.h"
  },
  {
   "alignment" : 1,
   "linker_set_key" : "unsigned char [5121]",
   "name" : "unsigned char [5121]",
   "referenced_type" : "type-29",
   "self_type" : "type-387",
   "size" : 5121,
   "source_file" : "/system/core/liblog/include/log/log_read.h"
  },
  {
   "alignment" : 1,
   "linker_set_key" : "unsigned char [6]",
   "name" : "unsigned char [6]",
   "referenced_type" : "type-29",
   "self_type" : "type-152",
   "size" : 6,
   "source_file" : "/system/libhidl/base/include/hidl/HidlSupport.h"
  },
  {
   "alignment" : 1,
   "linker_set_key" : "unsigned char [8]",
   "name" : "unsigned char [8]",
   "referenced_type" : "type-29",
   "self_type" : "type-155",
   "size" : 8,
   "source_file" : "/system/libhidl/base/include/hidl/HidlSupport.h"
  },
  {
   "alignment" : 4,
   "linker_set_key" : "unsigned int [8]",
   "name" : "unsigned int [8]",
   "referenced_type" : "type-2",
   "self_type" : "type-1506",
   "size" : 32,
   "source_file" : "/system/core/libsystem/include/system/graphics.h"
  }
 ],
 "builtin_types" :
 [
  {
   "alignment" : 1,
   "is_integral" : true,
   "is_unsigned" : true,
   "linker_set_key" : "bool",
   "name" : "bool",
   "referenced_type" : "type-65",
   "self_type" : "type-65",
   "size" : 1
  },
  {
   "alignment" : 1,
   "is_integral" : true,
   "is_unsigned" : true,
   "linker_set_key" : "char",
   "name" : "char",
   "referenced_type" : "type-83",
   "self_type" : "type-83",
   "size" : 1
  },
  {
   "alignment" : 2,
   "is_integral" : true,
   "is_unsigned" : true,
   "linker_set_key" : "char16_t",
   "name" : "char16_t",
   "referenced_type" : "type-73",
   "self_type" : "type-73",
   "size" : 2
  },
  {
   "alignment" : 8,
   "linker_set_key" : "double",
   "name" : "double",
   "referenced_type" : "type-983",
   "self_type" : "type-983",
   "size" : 8
  },
  {
   "alignment" : 4,
   "linker_set_key" : "float",
   "name" : "float",
   "referenced_type" : "type-970",
   "self_type" : "type-970",
   "size" : 4
  },
  {
   "alignment" : 4,
   "is_integral" : true,
   "linker_set_key" : "int",
   "name" : "int",
   "referenced_type" : "type-51",
   "self_type" : "type-51",
   "size" : 4
  },
  {
   "alignment" : 4,
   "is_integral" : true,
   "linker_set_key" : "long",
   "name" : "long",
   "referenced_type" : "type-942",
   "self_type" : "type-942",
   "size" : 4
  },
  {
   "alignment" : 8,
   "linker_set_key" : "long double",
   "name" : "long double",
   "referenced_type" : "type-1000",
   "self_type" : "type-1000",
   "size" : 8
  },
  {
   "alignment" : 8,
   "is_integral" : true,
   "linker_set_key" : "long long",
   "name" : "long long",
   "referenced_type" : "type-56",
   "self_type" : "type-56",
   "size" : 8
  },
  {
   "alignment" : 2,
   "is_integral" : true,
   "linker_set_key" : "short",
   "name" : "short",
   "referenced_type" : "type-871",
   "self_type" : "type-871",
   "size" : 2
  },
  {
   "alignment" : 1,
   "is_integral" : true,
   "linker_set_key" : "signed char",
   "name" : "signed char",
   "referenced_type" : "type-332",
   "self_type" : "type-332",
   "size" : 1
  },
  {
   "alignment" : 1,
   "is_integral" : true,
   "is_unsigned" : true,
   "linker_set_key" : "unsigned char",
   "name" : "unsigned char",
   "referenced_type" : "type-29",
   "self_type" : "type-29",
   "size" : 1
  },
  {
   "alignment" : 4,
   "is_integral" : true,
   "is_unsigned" : true,
   "linker_set_key" : "unsigned int",
   "name" : "unsigned int",
   "referenced_type" : "type-2",
   "self_type" : "type-2",
   "size" : 4
  },
  {
   "alignment" : 4,
   "is_integral" : true,
   "is_unsigned" : true,
   "linker_set_key" : "unsigned long",
   "name" : "unsigned long",
   "referenced_type" : "type-949",
   "self_type" : "type-949",
   "size" : 4
  },
  {
   "alignment" : 8,
   "is_integral" : true,
   "is_unsigned" : true,
   "linker_set_key" : "unsigned long long",
   "name" : "unsigned long long",
   "referenced_type" : "type-30",
   "self_type" : "type-30",
   "size" : 8
  },
  {
   "alignment" : 2,
   "is_integral" : true,
   "is_unsigned" : true,
   "linker_set_key" : "unsigned short",
   "name" : "unsigned short",
   "referenced_type" : "type-44",
   "self_type" : "type-44",
   "size" : 2
  },
  {
   "linker_set_key" : "void",
   "name" : "void",
   "referenced_type" : "type-53",
   "self_type" : "type-53"
  }
 ],
 "elf_functions" :
 [
  {
   "binding" : "weak",
   "name" : "_ZN7android8hardware10fromBinderINS0_4wifi10supplicant4V1_227ISupplicantStaIfaceCallbackENS4_30BpHwSupplicantStaIfaceCallbackENS4_30BnHwSupplicantStaIfaceCallbackEEENS_2spIT_EERKNS8_INS0_7IBinderEEE"
  },
  {
   "name" : "_ZN7android8hardware4wifi10supplicant4V1_211ISupplicant10getServiceERKNSt3__112basic_stringIcNS5_11char_traitsIcEENS5_9allocatorIcEEEEb"
  },
  {
   "name" : "_ZN7android8hardware4wifi10supplicant4V1_211ISupplicant11linkToDeathERKNS_2spINS0_20hidl_death_recipientEEEy"
  },
  {
   "name" : "_ZN7android8hardware4wifi10supplicant4V1_211ISupplicant12getDebugInfoENSt3__18functionIFvRKNS_4hidl4base4V1_09DebugInfoEEEE"
  },
  {
   "name" : "_ZN7android8hardware4wifi10supplicant4V1_211ISupplicant12getHashChainENSt3__18functionIFvRKNS0_8hidl_vecINS0_10hidl_arrayIhLj32EJEEEEEEEE"
  },
  {
   "name" : "_ZN7android8hardware4wifi10supplicant4V1_211ISupplicant13tryGetServiceERKNSt3__112basic_stringIcNS5_11char_traitsIcEENS5_9allocatorIcEEEEb"
  },
  {
   "name" : "_ZN7android8hardware4wifi10supplicant4V1_211ISupplicant13unlinkToDeathERKNS_2spINS0_20hidl_death_recipientEEE"
  },
  {
   "name" : "_ZN7android8hardware4wifi10supplicant4V1_211ISupplicant14interfaceChainENSt3__18functionIFvRKNS0_8hidl_vecINS0_11hidl_stringEEEEEE"
  },
  {
   "name" : "_ZN7android8hardware4wifi10supplicant4V1_211ISupplicant17registerAsServiceERKNSt3__112basic_stringIcNS5_11char_traitsIcEENS5_9allocatorIcEEEE"
  },
  {
   "name" : "_ZN7android8hardware4wifi10supplicant4V1_211ISupplicant19interfaceDescriptorENSt3__18functionIFvRKNS0_11hidl_stringEEEE"
  },
  {
   "name" : "_ZN7android8hardware4wifi10supplicant4V1_211ISupplicant21notifySyspropsChangedEv"
  },
  {
   "name" : "_ZN7android8hardware4wifi10supplicant4V1_211ISupplicant21setHALInstrumentationEv"
  },
  {
   "name" : "_ZN7android8hardware4wifi10supplicant4V1_211ISupplicant24registerForNotificationsERKNSt3__112basic_stringIcNS5_11char_traitsIcEENS5_9allocatorIcEEEERKNS_2spINS_4hidl7manager4V1_020IServiceNotificationEEE"
  },
  {
   "name" : "_ZN7android8hardware4wifi10supplicant4V1_211ISupplicant4pingEv"
  },
  {
   "name" : "_ZN7android8hardware4wifi10supplicant4V1_211ISupplicant5debugERKNS0_11hidl_handleERKNS0_8hidl_vecINS0_11hidl_stringEEE"
  },
  {
   "name" : "_ZN7android8hardware4wifi10supplicant4V1_211ISupplicant8castFromERKNS_2spINS2_4V1_011ISupplicantEEEb"
  },
  {
   "name" : "_ZN7android8hardware4wifi10supplicant4V1_211ISupplicant8castFromERKNS_2spINS2_4V1_111ISupplicantEEEb"
  },
  {
   "name" : "_ZN7android8hardware4wifi10supplicant4V1_211ISupplicant8castFromERKNS_2spINS_4hidl4base4V1_05IBaseEEEb"
  },
  {
   "name" : "_ZN7android8hardware4wifi10supplicant4V1_211ISupplicant8castFromERKNS_2spIS4_EEb"
  },
  {
   "name" : "_ZN7android8hardware4wifi10supplicant4V1_212BsSupplicant13addOnewayTaskENSt3__18functionIFvvEEE"
  },
  {
   "name" : "_ZN7android8hardware4wifi10supplicant4V1_212BsSupplicantC1ENS_2spINS3_11ISupplicantEEE"
  },
  {
   "name" : "_ZN7android8hardware4wifi10supplicant4V1_212BsSupplicantC2ENS_2spINS3_11ISupplicantEEE"
  },
  {
   "name" : "_ZN7android8hardware4wifi10supplicant4V1_214BnHwSupplicant10onTransactEjRKNS0_6ParcelEPS5_jNSt3__18functionIFvRS5_EEE"
  },
  {
   "name" : "_ZN7android8hardware4wifi10supplicant4V1_214BnHwSupplicant12getDebugInfoENSt3__18functionIFvRKNS_4hidl4base4V1_09DebugInfoEEEE"
  },
  {
   "name" : "_ZN7android8hardware4wifi10supplicant4V1_214BnHwSupplicant4pingEv"
  },
  {
   "name" : "_ZN7android8hardware4wifi10supplicant4V1_214BnHwSupplicantC1ERKNS_2spINS3_11ISupplicantEEE"
  },
  {
   "name" : "_ZN7android8hardware4wifi10supplicant4V1_214BnHwSupplicantC2ERKNS_2spINS3_11ISupplicantEEE"
  },
  {
   "name" : "_ZN7android8hardware4wifi10supplicant4V1_214BnHwSupplicantD0Ev"
  },
  {
   "name" : "_ZN7android8hardware4wifi10supplicant4V1_214BnHwSupplicantD1Ev"
  },
  {
   "name" : "_ZN7android8hardware4wifi10supplicant4V1_214BnHwSupplicantD2Ev"
  },
  {
   "name" : "_ZN7android8hardware4wifi10supplicant4V1_214BpHwSupplicant11linkToDeathERKNS_2spINS0_20hidl_death_recipientEEEy"
  },
  {
   "name" : "_ZN7android8hardware4wifi10supplicant4V1_214BpHwSupplicant12addInterfaceERKNS2_4V1_011ISupplicant9IfaceInfoENSt3__18functionIFvRKNS5_16SupplicantStatusERKNS_2spINS5_16ISupplicantIfaceEEEEEE"
  },
  {
   "name" : "_ZN7android8hardware4wifi10supplicant4V1_214BpHwSupplicant12getDebugInfoENSt3__18functionIFvRKNS_4hidl4base4V1_09DebugInfoEEEE"
  },
  {
   "name" : "_ZN7android8hardware4wifi10supplicant4V1_214BpHwSupplicant12getHashChainENSt3__18functionIFvRKNS0_8hidl_vecINS0_10hidl_arrayIhLj32EJEEEEEEEE"
  },
  {
   "name" : "_ZN7android8hardware4wifi10supplicant4V1_214BpHwSupplicant12getInterfaceERKNS2_4V1_011ISupplicant9IfaceInfoENSt3__18functionIFvRKNS5_16SupplicantStatusERKNS_2spINS5_16ISupplicantIfaceEEEEEE"
  },
  {
   "name" : "_ZN7android8hardware4wifi10supplicant4V1_214BpHwSupplicant13getDebugLevelEv"
  },
  {
   "name" : "_ZN7android8hardware4wifi10supplicant4V1_214BpHwSupplicant13unlinkToDeathERKNS_2spINS0_20hidl_death_recipientEEE"
  },
  {
   "name" : "_ZN7android8hardware4wifi10supplicant4V1_214BpHwSupplicant14interfaceChainENSt3__18functionIFvRKNS0_8hidl_vecINS0_11hidl_stringEEEEEE"
  },
  {
   "name" : "_ZN7android8hardware4wifi10supplicant4V1_214BpHwSupplicant14listInterfacesENSt3__18functionIFvRKNS2_4V1_016SupplicantStatusERKNS0_8hidl_vecINS7_11ISupplicant9IfaceInfoEEEEEE"
  },
  {
   "name" : "_ZN7android8hardware4wifi10supplicant4V1_214BpHwSupplicant14setDebugParamsENS2_4V1_011ISupplicant10DebugLevelEbbNSt3__18functionIFvRKNS5_16SupplicantStatusEEEE"
  },
  {
   "name" : "_ZN7android8hardware4wifi10supplicant4V1_214BpHwSupplicant15removeInterfaceERKNS2_4V1_011ISupplicant9IfaceInfoENSt3__18functionIFvRKNS5_16SupplicantStatusEEEE"
  },
  {
   "name" : "_ZN7android8hardware4wifi10supplicant4V1_214BpHwSupplicant16registerCallbackERKNS_2spINS2_4V1_019ISupplicantCallbackEEENSt3__18functionIFvRKNS6_16SupplicantStatusEEEE"
  },
  {
   "name" : "_ZN7android8hardware4wifi10supplicant4V1_214BpHwSupplicant19interfaceDescriptorENSt3__18functionIFvRKNS0_11hidl_stringEEEE"
  },
  {
   "name" : "_ZN7android8hardware4wifi10supplicant4V1_214BpHwSupplicant21notifySyspropsChangedEv"
  },
  {
   "name" : "_ZN7android8hardware4wifi10supplicant4V1_214BpHwSupplicant21setHALInstrumentationEv"
  },
  {
   "name" : "_ZN7android8hardware4wifi10supplicant4V1_214BpHwSupplicant22isDebugShowKeysEnabledEv"
  },
  {
   "name" : "_ZN7android8hardware4wifi10supplicant4V1_214BpHwSupplicant22setConcurrencyPriorityENS2_4V1_09IfaceTypeENSt3__18functionIFvRKNS5_16SupplicantStatusEEEE"
  },
  {
   "name" : "_ZN7android8hardware4wifi10supplicant4V1_214BpHwSupplicant27isDebugShowTimestampEnabledEv"
  },
  {
   "name" : "_ZN7android8hardware4wifi10supplicant4V1_214BpHwSupplicant4pingEv"
  },
  {
   "name" : "_ZN7android8hardware4wifi10supplicant4V1_214BpHwSupplicant5debugERKNS0_11hidl_handleERKNS0_8hidl_vecINS0_11hidl_stringEEE"
  },
  {
   "name" : "_ZN7android8hardware4wifi10supplicant4V1_214BpHwSupplicant9terminateEv"
  },
  {
   "name" : "_ZN7android8hardware4wifi10supplicant4V1_214BpHwSupplicantC1ERKNS_2spINS0_7IBinderEEE"
  },
  {
   "name" : "_ZN7android8hardware4wifi10supplicant4V1_214BpHwSupplicantC2ERKNS_2spINS0_7IBinderEEE"
  },
  {
   "name" : "_ZN7android8hardware4wifi10supplicant4V1_219ISupplicantP2pIface10getServiceERKNSt3__112basic_stringIcNS5_11char_traitsIcEENS5_9allocatorIcEEEEb"
  },
  {
   "name" : "_ZN7android8hardware4wifi10supplicant4V1_219ISupplicantP2pIface11linkToDeathERKNS_2spINS0_20hidl_death_recipientEEEy"
  },
  {
   "name" : "_ZN7android8hardware4wifi10supplicant4V1_219ISupplicantP2pIface12getDebugInfoENSt3__18functionIFvRKNS_4hidl4base4V1_09DebugInfoEEEE"
  },
  {
   "name" : "_ZN7android8hardware4wifi10supplicant4V1_219ISupplicantP2pIface12getHashChainENSt3__18functionIFvRKNS0_8hidl_vecINS0_10hidl_arrayIhLj32EJEEEEEEEE"
  },
  {
   "name" : "_ZN7android8hardware4wifi10supplicant4V1_219ISupplicantP2pIface13tryGetServiceERKNSt3__112basic_stringIcNS5_11char_traitsIcEENS5_9allocatorIcEEEEb"
  },
  {
   "name" : "_ZN7android8hardware4wifi10supplicant4V1_219ISupplicantP2pIface13unlinkToDeathERKNS_2spINS0_20hidl_death_recipientEEE"
  },
  {
   "name" : "_ZN7android8hardware4wifi10supplicant4V1_219ISupplicantP2pIface14interfaceChainENSt3__18functionIFvRKNS0_8hidl_vecINS0_11hidl_stringEEEEEE"
  },
  {
   "name" : "_ZN7android8hardware4wifi10supplicant4V1_219ISupplicantP2pIface17registerAsServiceERKNSt3__112basic_stringIcNS5_11char_traitsIcEENS5_9allocatorIcEEEE"
  },
  {
   "name" : "_ZN7android8hardware4wifi10supplicant4V1_219ISupplicantP2pIface19interfaceDescriptorENSt3__18functionIFvRKNS0_11hidl_stringEEEE"
  },
  {
   "name" : "_ZN7android8hardware4wifi10supplicant4V1_219ISupplicantP2pIface21notifySyspropsChangedEv"
  },
  {
   "name" : "_ZN7android8hardware4wifi10supplicant4V1_219ISupplicantP2pIface21setHALInstrumentationEv"
  },
  {
   "name" : "_ZN7android8hardware4wifi10supplicant4V1_219ISupplicantP2pIface24registerForNotificationsERKNSt3__112basic_stringIcNS5_11char_traitsIcEENS5_9allocatorIcEEEERKNS_2spINS_4hidl7manager4V1_020IServiceNotificationEEE"
  },
  {
   "name" : "_ZN7android8hardware4wifi10supplicant4V1_219ISupplicantP2pIface4pingEv"
  },
  {
   "name" : "_ZN7android8hardware4wifi10supplicant4V1_219ISupplicantP2pIface5debugERKNS0_11hidl_handleERKNS0_8hidl_vecINS0_11hidl_stringEEE"
  },
  {
   "name" : "_ZN7android8hardware4wifi10supplicant4V1_219ISupplicantP2pIface8castFromERKNS_2spINS2_4V1_016ISupplicantIfaceEEEb"
  },
  {
   "name" : "_ZN7android8hardware4wifi10supplicant4V1_219ISupplicantP2pIface8castFromERKNS_2spINS2_4V1_019ISupplicantP2pIfaceEEEb"
  },
  {
   "name" : "_ZN7android8hardware4wifi10supplicant4V1_219ISupplicantP2pIface8castFromERKNS_2spINS_4hidl4base4V1_05IBaseEEEb"
  },
  {
   "name" : "_ZN7android8hardware4wifi10supplicant4V1_219ISupplicantP2pIface8castFromERKNS_2spIS4_EEb"
  },
  {
   "name" : "_ZN7android8hardware4wifi10supplicant4V1_219ISupplicantStaIface10getServiceERKNSt3__112basic_stringIcNS5_11char_traitsIcEENS5_9allocatorIcEEEEb"
  },
  {
   "name" : "_ZN7android8hardware4wifi10supplicant4V1_219ISupplicantStaIface11linkToDeathERKNS_2spINS0_20hidl_death_recipientEEEy"
  },
  {
   "name" : "_ZN7android8hardware4wifi10supplicant4V1_219ISupplicantStaIface12getDebugInfoENSt3__18functionIFvRKNS_4hidl4base4V1_09DebugInfoEEEE"
  },
  {
   "name" : "_ZN7android8hardware4wifi10supplicant4V1_219ISupplicantStaIface12getHashChainENSt3__18functionIFvRKNS0_8hidl_vecINS0_10hidl_arrayIhLj32EJEEEEEEEE"
  },
  {
   "name" : "_ZN7android8hardware4wifi10supplicant4V1_219ISupplicantStaIface13tryGetServiceERKNSt3__112basic_stringIcNS5_11char_traitsIcEENS5_9allocatorIcEEEEb"
  },
  {
   "name" : "_ZN7android8hardware4wifi10supplicant4V1_219ISupplicantStaIface13unlinkToDeathERKNS_2spINS0_20hidl_death_recipientEEE"
  },
  {
   "name" : "_ZN7android8hardware4wifi10supplicant4V1_219ISupplicantStaIface14interfaceChainENSt3__18functionIFvRKNS0_8hidl_vecINS0_11hidl_stringEEEEEE"
  },
  {
   "name" : "_ZN7android8hardware4wifi10supplicant4V1_219ISupplicantStaIface17registerAsServiceERKNSt3__112basic_stringIcNS5_11char_traitsIcEENS5_9allocatorIcEEEE"
  },
  {
   "name" : "_ZN7android8hardware4wifi10supplicant4V1_219ISupplicantStaIface19interfaceDescriptorENSt3__18functionIFvRKNS0_11hidl_stringEEEE"
  },
  {
   "name" : "_ZN7android8hardware4wifi10supplicant4V1_219ISupplicantStaIface21notifySyspropsChangedEv"
  },
  {
   "name" : "_ZN7android8hardware4wifi10supplicant4V1_219ISupplicantStaIface21setHALInstrumentationEv"
  },
  {
   "name" : "_ZN7android8hardware4wifi10supplicant4V1_219ISupplicantStaIface24registerForNotificationsERKNSt3__112basic_stringIcNS5_11char_traitsIcEENS5_9allocatorIcEEEERKNS_2spINS_4hidl7manager4V1_020IServiceNotificationEEE"
  },
  {
   "name" : "_ZN7android8hardware4wifi10supplicant4V1_219ISupplicantStaIface4pingEv"
  },
  {
   "name" : "_ZN7android8hardware4wifi10supplicant4V1_219ISupplicantStaIface5debugERKNS0_11hidl_handleERKNS0_8hidl_vecINS0_11hidl_stringEEE"
  },
  {
   "name" : "_ZN7android8hardware4wifi10supplicant4V1_219ISupplicantStaIface8castFromERKNS_2spINS2_4V1_016ISupplicantIfaceEEEb"
  },
  {
   "name" : "_ZN7android8hardware4wifi10supplicant4V1_219ISupplicantStaIface8castFromERKNS_2spINS2_4V1_019ISupplicantStaIfaceEEEb"
  },
  {
   "name" : "_ZN7android8hardware4wifi10supplicant4V1_219ISupplicantStaIface8castFromERKNS_2spINS2_4V1_119ISupplicantStaIfaceEEEb"
  },
  {
   "name" : "_ZN7android8hardware4wifi10supplicant4V1_219ISupplicantStaIface8castFromERKNS_2spINS_4hidl4base4V1_05IBaseEEEb"
  },
  {
   "name" : "_ZN7android8hardware4wifi10supplicant4V1_219ISupplicantStaIface8castFromERKNS_2spIS4_EEb"
  },
  {
   "name" : "_ZN7android8hardware4wifi10supplicant4V1_220BsSupplicantP2pIface13addOnewayTaskENSt3__18functionIFvvEEE"
  },
  {
   "name" : "_ZN7android8hardware4wifi10supplicant4V1_220BsSupplicantP2pIfaceC1ENS_2spINS3_19ISupplicantP2pIfaceEEE"
  },
  {
   "name" : "_ZN7android8hardware4wifi10supplicant4V1_220BsSupplicantP2pIfaceC2ENS_2spINS3_19ISupplicantP2pIfaceEEE"
  },
  {
   "name" : "_ZN7android8hardware4wifi10supplicant4V1_220BsSupplicantStaIface13addOnewayTaskENSt3__18functionIFvvEEE"
  },
  {
   "name" : "_ZN7android8hardware4wifi10supplicant4V1_220BsSupplicantStaIfaceC1ENS_2spINS3_19ISupplicantStaIfaceEEE"
  },
  {
   "name" : "_ZN7android8hardware4wifi10supplicant4V1_220BsSupplicantStaIfaceC2ENS_2spINS3_19ISupplicantStaIfaceEEE"
  },
  {
   "name" : "_ZN7android8hardware4wifi10supplicant4V1_221ISupplicantStaNetwork10getServiceERKNSt3__112basic_stringIcNS5_11char_traitsIcEENS5_9allocatorIcEEEEb"
  },
  {
   "name" : "_ZN7android8hardware4wifi10supplicant4V1_221ISupplicantStaNetwork11linkToDeathERKNS_2spINS0_20hidl_death_recipientEEEy"
  },
  {
   "name" : "_ZN7android8hardware4wifi10supplicant4V1_221ISupplicantStaNetwork12getDebugInfoENSt3__18functionIFvRKNS_4hidl4base4V1_09DebugInfoEEEE"
  },
  {
   "name" : "_ZN7android8hardware4wifi10supplicant4V1_221ISupplicantStaNetwork12getHashChainENSt3__18functionIFvRKNS0_8hidl_vecINS0_10hidl_arrayIhLj32EJEEEEEEEE"
  },
  {
   "name" : "_ZN7android8hardware4wifi10supplicant4V1_221ISupplicantStaNetwork13tryGetServiceERKNSt3__112basic_stringIcNS5_11char_traitsIcEENS5_9allocatorIcEEEEb"
  },
  {
   "name" : "_ZN7android8hardware4wifi10supplicant4V1_221ISupplicantStaNetwork13unlinkToDeathERKNS_2spINS0_20hidl_death_recipientEEE"
  },
  {
   "name" : "_ZN7android8hardware4wifi10supplicant4V1_221ISupplicantStaNetwork14interfaceChainENSt3__18functionIFvRKNS0_8hidl_vecINS0_11hidl_stringEEEEEE"
  },
  {
   "name" : "_ZN7android8hardware4wifi10supplicant4V1_221ISupplicantStaNetwork17registerAsServiceERKNSt3__112basic_stringIcNS5_11char_traitsIcEENS5_9allocatorIcEEEE"
  },
  {
   "name" : "_ZN7android8hardware4wifi10supplicant4V1_221ISupplicantStaNetwork19interfaceDescriptorENSt3__18functionIFvRKNS0_11hidl_stringEEEE"
  },
  {
   "name" : "_ZN7android8hardware4wifi10supplicant4V1_221ISupplicantStaNetwork21notifySyspropsChangedEv"
  },
  {
   "name" : "_ZN7android8hardware4wifi10supplicant4V1_221ISupplicantStaNetwork21setHALInstrumentationEv"
  },
  {
   "name" : "_ZN7android8hardware4wifi10supplicant4V1_221ISupplicantStaNetwork24registerForNotificationsERKNSt3__112basic_stringIcNS5_11char_traitsIcEENS5_9allocatorIcEEEERKNS_2spINS_4hidl7manager4V1_020IServiceNotificationEEE"
  },
  {
   "name" : "_ZN7android8hardware4wifi10supplicant4V1_221ISupplicantStaNetwork4pingEv"
  },
  {
   "name" : "_ZN7android8hardware4wifi10supplicant4V1_221ISupplicantStaNetwork5debugERKNS0_11hidl_handleERKNS0_8hidl_vecINS0_11hidl_stringEEE"
  },
  {
   "name" : "_ZN7android8hardware4wifi10supplicant4V1_221ISupplicantStaNetwork8castFromERKNS_2spINS2_4V1_018ISupplicantNetworkEEEb"
  },
  {
   "name" : "_ZN7android8hardware4wifi10supplicant4V1_221ISupplicantStaNetwork8castFromERKNS_2spINS2_4V1_021ISupplicantStaNetworkEEEb"
  },
  {
   "name" : "_ZN7android8hardware4wifi10supplicant4V1_221ISupplicantStaNetwork8castFromERKNS_2spINS2_4V1_121ISupplicantStaNetworkEEEb"
  },
  {
   "name" : "_ZN7android8hardware4wifi10supplicant4V1_221ISupplicantStaNetwork8castFromERKNS_2spINS_4hidl4base4V1_05IBaseEEEb"
  },
  {
   "name" : "_ZN7android8hardware4wifi10supplicant4V1_221ISupplicantStaNetwork8castFromERKNS_2spIS4_EEb"
  },
  {
   "name" : "_ZN7android8hardware4wifi10supplicant4V1_222BnHwSupplicantP2pIface10onTransactEjRKNS0_6ParcelEPS5_jNSt3__18functionIFvRS5_EEE"
  },
  {
   "name" : "_ZN7android8hardware4wifi10supplicant4V1_222BnHwSupplicantP2pIface12getDebugInfoENSt3__18functionIFvRKNS_4hidl4base4V1_09DebugInfoEEEE"
  },
  {
   "name" : "_ZN7android8hardware4wifi10supplicant4V1_222BnHwSupplicantP2pIface18_hidl_addGroup_1_2EPNS_4hidl4base4V1_08BnHwBaseERKNS0_6ParcelEPSA_NSt3__18functionIFvRSA_EEE"
  },
  {
   "name" : "_ZN7android8hardware4wifi10supplicant4V1_222BnHwSupplicantP2pIface25_hidl_setMacRandomizationEPNS_4hidl4base4V1_08BnHwBaseERKNS0_6ParcelEPSA_NSt3__18functionIFvRSA_EEE"
  },
  {
   "name" : "_ZN7android8hardware4wifi10supplicant4V1_222BnHwSupplicantP2pIface4pingEv"
  },
  {
   "name" : "_ZN7android8hardware4wifi10supplicant4V1_222BnHwSupplicantP2pIfaceC1ERKNS_2spINS3_19ISupplicantP2pIfaceEEE"
  },
  {
   "name" : "_ZN7android8hardware4wifi10supplicant4V1_222BnHwSupplicantP2pIfaceC2ERKNS_2spINS3_19ISupplicantP2pIfaceEEE"
  },
  {
   "name" : "_ZN7android8hardware4wifi10supplicant4V1_222BnHwSupplicantP2pIfaceD0Ev"
  },
  {
   "name" : "_ZN7android8hardware4wifi10supplicant4V1_222BnHwSupplicantP2pIfaceD1Ev"
  },
  {
   "name" : "_ZN7android8hardware4wifi10supplicant4V1_222BnHwSupplicantP2pIfaceD2Ev"
  },
  {
   "name" : "_ZN7android8hardware4wifi10supplicant4V1_222BnHwSupplicantStaIface10onTransactEjRKNS0_6ParcelEPS5_jNSt3__18functionIFvRS5_EEE"
  },
  {
   "name" : "_ZN7android8hardware4wifi10supplicant4V1_222BnHwSupplicantStaIface12getDebugInfoENSt3__18functionIFvRKNS_4hidl4base4V1_09DebugInfoEEEE"
  },
  {
   "name" : "_ZN7android8hardware4wifi10supplicant4V1_222BnHwSupplicantStaIface18_hidl_removeDppUriEPNS_4hidl4base4V1_08BnHwBaseERKNS0_6ParcelEPSA_NSt3__18functionIFvRSA_EEE"
  },
  {
   "name" : "_ZN7android8hardware4wifi10supplicant4V1_222BnHwSupplicantStaIface19_hidl_addDppPeerUriEPNS_4hidl4base4V1_08BnHwBaseERKNS0_6ParcelEPSA_NSt3__18functionIFvRSA_EEE"
  },
  {
   "name" : "_ZN7android8hardware4wifi10supplicant4V1_222BnHwSupplicantStaIface22_hidl_stopDppInitiatorEPNS_4hidl4base4V1_08BnHwBaseERKNS0_6ParcelEPSA_NSt3__18functionIFvRSA_EEE"
  },
  {
   "name" : "_ZN7android8hardware4wifi10supplicant4V1_222BnHwSupplicantStaIface26_hidl_registerCallback_1_2EPNS_4hidl4base4V1_08BnHwBaseERKNS0_6ParcelEPSA_NSt3__18functionIFvRSA_EEE"
  },
  {
   "name" : "_ZN7android8hardware4wifi10supplicant4V1_222BnHwSupplicantStaIface28_hidl_getKeyMgmtCapabilitiesEPNS_4hidl4base4V1_08BnHwBaseERKNS0_6ParcelEPSA_NSt3__18functionIFvRSA_EEE"
  },
  {
   "name" : "_ZN7android8hardware4wifi10supplicant4V1_222BnHwSupplicantStaIface31_hidl_startDppEnrolleeInitiatorEPNS_4hidl4base4V1_08BnHwBaseERKNS0_6ParcelEPSA_NSt3__18functionIFvRSA_EEE"
  },
  {
   "name" : "_ZN7android8hardware4wifi10supplicant4V1_222BnHwSupplicantStaIface35_hidl_startDppConfiguratorInitiatorEPNS_4hidl4base4V1_08BnHwBaseERKNS0_6ParcelEPSA_NSt3__18functionIFvRSA_EEE"
  },
  {
   "name" : "_ZN7android8hardware4wifi10supplicant4V1_222BnHwSupplicantStaIface4pingEv"
  },
  {
   "name" : "_ZN7android8hardware4wifi10supplicant4V1_222BnHwSupplicantStaIfaceC1ERKNS_2spINS3_19ISupplicantStaIfaceEEE"
  },
  {
   "name" : "_ZN7android8hardware4wifi10supplicant4V1_222BnHwSupplicantStaIfaceC2ERKNS_2spINS3_19ISupplicantStaIfaceEEE"
  },
  {
   "name" : "_ZN7android8hardware4wifi10supplicant4V1_222BnHwSupplicantStaIfaceD0Ev"
  },
  {
   "name" : "_ZN7android8hardware4wifi10supplicant4V1_222BnHwSupplicantStaIfaceD1Ev"
  },
  {
   "name" : "_ZN7android8hardware4wifi10supplicant4V1_222BnHwSupplicantStaIfaceD2Ev"
  },
  {
   "name" : "_ZN7android8hardware4wifi10supplicant4V1_222BpHwSupplicantP2pIface10addNetworkENSt3__18functionIFvRKNS2_4V1_016SupplicantStatusERKNS_2spINS7_18ISupplicantNetworkEEEEEE"
  },
  {
   "name" : "_ZN7android8hardware4wifi10supplicant4V1_222BpHwSupplicantP2pIface10getNetworkEjNSt3__18functionIFvRKNS2_4V1_016SupplicantStatusERKNS_2spINS7_18ISupplicantNetworkEEEEEE"
  },
  {
   "name" : "_ZN7android8hardware4wifi10supplicant4V1_222BpHwSupplicantP2pIface10saveConfigENSt3__18functionIFvRKNS2_4V1_016SupplicantStatusEEEE"
  },
  {
   "name" : "_ZN7android8hardware4wifi10supplicant4V1_222BpHwSupplicantP2pIface11linkToDeathERKNS_2spINS0_20hidl_death_recipientEEEy"
  },
  {
   "name" : "_ZN7android8hardware4wifi10supplicant4V1_222BpHwSupplicantP2pIface11removeGroupERKNS0_11hidl_stringENSt3__18functionIFvRKNS2_4V1_016SupplicantStatusEEEE"
  },
  {
   "name" : "_ZN7android8hardware4wifi10supplicant4V1_222BpHwSupplicantP2pIface11startWpsPbcERKNS0_11hidl_stringERKNS0_10hidl_arrayIhLj6EJEEENSt3__18functionIFvRKNS2_4V1_016SupplicantStatusEEEE"
  },
  {
   "name" : "_ZN7android8hardware4wifi10supplicant4V1_222BpHwSupplicantP2pIface12addGroup_1_2ERKNS0_8hidl_vecIhEERKNS0_11hidl_stringEbjRKNS0_10hidl_arrayIhLj6EJEEEbNSt3__18functionIFvRKNS2_4V1_016SupplicantStatusEEEE"
  },
  {
   "name" : "_ZN7android8hardware4wifi10supplicant4V1_222BpHwSupplicantP2pIface12getDebugInfoENSt3__18functionIFvRKNS_4hidl4base4V1_09DebugInfoEEEE"
  },
  {
   "name" : "_ZN7android8hardware4wifi10supplicant4V1_222BpHwSupplicantP2pIface12getHashChainENSt3__18functionIFvRKNS0_8hidl_vecINS0_10hidl_arrayIhLj32EJEEEEEEEE"
  },
  {
   "name" : "_ZN7android8hardware4wifi10supplicant4V1_222BpHwSupplicantP2pIface12listNetworksENSt3__18functionIFvRKNS2_4V1_016SupplicantStatusERKNS0_8hidl_vecIjEEEEE"
  },
  {
   "name" : "_ZN7android8hardware4wifi10supplicant4V1_222BpHwSupplicantP2pIface12setGroupIdleERKNS0_11hidl_stringEjNSt3__18functionIFvRKNS2_4V1_016SupplicantStatusEEEE"
  },
  {
   "name" : "_ZN7android8hardware4wifi10supplicant4V1_222BpHwSupplicantP2pIface12setPowerSaveERKNS0_11hidl_stringEbNSt3__18functionIFvRKNS2_4V1_016SupplicantStatusEEEE"
  },
  {
   "name" : "_ZN7android8hardware4wifi10supplicant4V1_222BpHwSupplicantP2pIface13cancelConnectENSt3__18functionIFvRKNS2_4V1_016SupplicantStatusEEEE"
  },
  {
   "name" : "_ZN7android8hardware4wifi10supplicant4V1_222BpHwSupplicantP2pIface13flushServicesENSt3__18functionIFvRKNS2_4V1_016SupplicantStatusEEEE"
  },
  {
   "name" : "_ZN7android8hardware4wifi10supplicant4V1_222BpHwSupplicantP2pIface13removeNetworkEjNSt3__18functionIFvRKNS2_4V1_016SupplicantStatusEEEE"
  },
  {
   "name" : "_ZN7android8hardware4wifi10supplicant4V1_222BpHwSupplicantP2pIface13unlinkToDeathERKNS_2spINS0_20hidl_death_recipientEEE"
  },
  {
   "name" : "_ZN7android8hardware4wifi10supplicant4V1_222BpHwSupplicantP2pIface14addUpnpServiceEjRKNS0_11hidl_stringENSt3__18functionIFvRKNS2_4V1_016SupplicantStatusEEEE"
  },
  {
   "name" : "_ZN7android8hardware4wifi10supplicant4V1_222BpHwSupplicantP2pIface14interfaceChainENSt3__18functionIFvRKNS0_8hidl_vecINS0_11hidl_stringEEEEEE"
  },
  {
   "name" : "_ZN7android8hardware4wifi10supplicant4V1_222BpHwSupplicantP2pIface14setSsidPostfixERKNS0_8hidl_vecIhEENSt3__18functionIFvRKNS2_4V1_016SupplicantStatusEEEE"
  },
  {
   "name" : "_ZN7android8hardware4wifi10supplicant4V1_222BpHwSupplicantP2pIface15setMiracastModeENS2_4V1_019ISupplicantP2pIface12MiracastModeENSt3__18functionIFvRKNS5_16SupplicantStatusEEEE"
  },
  {
   "name" : "_ZN7android8hardware4wifi10supplicant4V1_222BpHwSupplicantP2pIface15setWpsModelNameERKNS0_11hidl_stringENSt3__18functionIFvRKNS2_4V1_016SupplicantStatusEEEE"
  },
  {
   "name" : "_ZN7android8hardware4wifi10supplicant4V1_222BpHwSupplicantP2pIface16getDeviceAddressENSt3__18functionIFvRKNS2_4V1_016SupplicantStatusERKNS0_10hidl_arrayIhLj6EJEEEEEE"
  },
  {
   "name" : "_ZN7android8hardware4wifi10supplicant4V1_222BpHwSupplicantP2pIface16registerCallbackERKNS_2spINS2_4V1_027ISupplicantP2pIfaceCallbackEEENSt3__18functionIFvRKNS6_16SupplicantStatusEEEE"
  },
  {
   "name" : "_ZN7android8hardware4wifi10supplicant4V1_222BpHwSupplicantP2pIface16setListenChannelEjjNSt3__18functionIFvRKNS2_4V1_016SupplicantStatusEEEE"
  },
  {
   "name" : "_ZN7android8hardware4wifi10supplicant4V1_222BpHwSupplicantP2pIface16setWfdDeviceInfoERKNS0_10hidl_arrayIhLj6EJEEENSt3__18functionIFvRKNS2_4V1_016SupplicantStatusEEEE"
  },
  {
   "name" : "_ZN7android8hardware4wifi10supplicant4V1_222BpHwSupplicantP2pIface16setWpsDeviceNameERKNS0_11hidl_stringENSt3__18functionIFvRKNS2_4V1_016SupplicantStatusEEEE"
  },
  {
   "name" : "_ZN7android8hardware4wifi10supplicant4V1_222BpHwSupplicantP2pIface16setWpsDeviceTypeERKNS0_10hidl_arrayIhLj8EJEEENSt3__18functionIFvRKNS2_4V1_016SupplicantStatusEEEE"
  },
  {
   "name" : "_ZN7android8hardware4wifi10supplicant4V1_222BpHwSupplicantP2pIface17addBonjourServiceERKNS0_8hidl_vecIhEES8_NSt3__18functionIFvRKNS2_4V1_016SupplicantStatusEEEE"
  },
  {
   "name" : "_ZN7android8hardware4wifi10supplicant4V1_222BpHwSupplicantP2pIface17removeUpnpServiceEjRKNS0_11hidl_stringENSt3__18functionIFvRKNS2_4V1_016SupplicantStatusEEEE"
  },
  {
   "name" : "_ZN7android8hardware4wifi10supplicant4V1_222BpHwSupplicantP2pIface17setWpsModelNumberERKNS0_11hidl_stringENSt3__18functionIFvRKNS2_4V1_016SupplicantStatusEEEE"
  },
  {
   "name" : "_ZN7android8hardware4wifi10supplicant4V1_222BpHwSupplicantP2pIface17startWpsPinKeypadERKNS0_11hidl_stringES7_NSt3__18functionIFvRKNS2_4V1_016SupplicantStatusEEEE"
  },
  {
   "name" : "_ZN7android8hardware4wifi10supplicant4V1_222BpHwSupplicantP2pIface18_hidl_addGroup_1_2EPNS0_10IInterfaceEPNS0_7details16HidlInstrumentorERKNS0_8hidl_vecIhEERKNS0_11hidl_stringEbjRKNS0_10hidl_arrayIhLj6EJEEEbNSt3__18functionIFvRKNS2_4V1_016SupplicantStatusEEEE"
  },
  {
   "name" : "_ZN7android8hardware4wifi10supplicant4V1_222BpHwSupplicantP2pIface18configureExtListenEjjNSt3__18functionIFvRKNS2_4V1_016SupplicantStatusEEEE"
  },
  {
   "name" : "_ZN7android8hardware4wifi10supplicant4V1_222BpHwSupplicantP2pIface18getGroupCapabilityERKNS0_10hidl_arrayIhLj6EJEEENSt3__18functionIFvRKNS2_4V1_016SupplicantStatusEjEEE"
  },
  {
   "name" : "_ZN7android8hardware4wifi10supplicant4V1_222BpHwSupplicantP2pIface18provisionDiscoveryERKNS0_10hidl_arrayIhLj6EJEEENS2_4V1_019ISupplicantP2pIface18WpsProvisionMethodENSt3__18functionIFvRKNS9_16SupplicantStatusEEEE"
  },
  {
   "name" : "_ZN7android8hardware4wifi10supplicant4V1_222BpHwSupplicantP2pIface18setWpsManufacturerERKNS0_11hidl_stringENSt3__18functionIFvRKNS2_4V1_016SupplicantStatusEEEE"
  },
  {
   "name" : "_ZN7android8hardware4wifi10supplicant4V1_222BpHwSupplicantP2pIface18setWpsSerialNumberERKNS0_11hidl_stringENSt3__18functionIFvRKNS2_4V1_016SupplicantStatusEEEE"
  },
  {
   "name" : "_ZN7android8hardware4wifi10supplicant4V1_222BpHwSupplicantP2pIface18startWpsPinDisplayERKNS0_11hidl_stringERKNS0_10hidl_arrayIhLj6EJEEENSt3__18functionIFvRKNS2_4V1_016SupplicantStatusES7_EEE"
  },
  {
   "name" : "_ZN7android8hardware4wifi10supplicant4V1_222BpHwSupplicantP2pIface19interfaceDescriptorENSt3__18functionIFvRKNS0_11hidl_stringEEEE"
  },
  {
   "name" : "_ZN7android8hardware4wifi10supplicant4V1_222BpHwSupplicantP2pIface19setMacRandomizationEbNSt3__18functionIFvRKNS2_4V1_016SupplicantStatusEEEE"
  },
  {
   "name" : "_ZN7android8hardware4wifi10supplicant4V1_222BpHwSupplicantP2pIface19setWpsConfigMethodsEtNSt3__18functionIFvRKNS2_4V1_016SupplicantStatusEEEE"
  },
  {
   "name" : "_ZN7android8hardware4wifi10supplicant4V1_222BpHwSupplicantP2pIface20removeBonjourServiceERKNS0_8hidl_vecIhEENSt3__18functionIFvRKNS2_4V1_016SupplicantStatusEEEE"
  },
  {
   "name" : "_ZN7android8hardware4wifi10supplicant4V1_222BpHwSupplicantP2pIface21notifySyspropsChangedEv"
  },
  {
   "name" : "_ZN7android8hardware4wifi10supplicant4V1_222BpHwSupplicantP2pIface21setHALInstrumentationEv"
  },
  {
   "name" : "_ZN7android8hardware4wifi10supplicant4V1_222BpHwSupplicantP2pIface22cancelServiceDiscoveryEyNSt3__18functionIFvRKNS2_4V1_016SupplicantStatusEEEE"
  },
  {
   "name" : "_ZN7android8hardware4wifi10supplicant4V1_222BpHwSupplicantP2pIface23requestServiceDiscoveryERKNS0_10hidl_arrayIhLj6EJEEERKNS0_8hidl_vecIhEENSt3__18functionIFvRKNS2_4V1_016SupplicantStatusEyEEE"
  },
  {
   "name" : "_ZN7android8hardware4wifi10supplicant4V1_222BpHwSupplicantP2pIface24setDisallowedFrequenciesERKNS0_8hidl_vecINS2_4V1_019ISupplicantP2pIface9FreqRangeEEENSt3__18functionIFvRKNS6_16SupplicantStatusEEEE"
  },
  {
   "name" : "_ZN7android8hardware4wifi10supplicant4V1_222BpHwSupplicantP2pIface25_hidl_setMacRandomizationEPNS0_10IInterfaceEPNS0_7details16HidlInstrumentorEbNSt3__18functionIFvRKNS2_4V1_016SupplicantStatusEEEE"
  },
  {
   "name" : "_ZN7android8hardware4wifi10supplicant4V1_222BpHwSupplicantP2pIface25reportNfcHandoverResponseERKNS0_8hidl_vecIhEENSt3__18functionIFvRKNS2_4V1_016SupplicantStatusEEEE"
  },
  {
   "name" : "_ZN7android8hardware4wifi10supplicant4V1_222BpHwSupplicantP2pIface27reportNfcHandoverInitiationERKNS0_8hidl_vecIhEENSt3__18functionIFvRKNS2_4V1_016SupplicantStatusEEEE"
  },
  {
   "name" : "_ZN7android8hardware4wifi10supplicant4V1_222BpHwSupplicantP2pIface30createNfcHandoverSelectMessageENSt3__18functionIFvRKNS2_4V1_016SupplicantStatusERKNS0_8hidl_vecIhEEEEE"
  },
  {
   "name" : "_ZN7android8hardware4wifi10supplicant4V1_222BpHwSupplicantP2pIface31createNfcHandoverRequestMessageENSt3__18functionIFvRKNS2_4V1_016SupplicantStatusERKNS0_8hidl_vecIhEEEEE"
  },
  {
   "name" : "_ZN7android8hardware4wifi10supplicant4V1_222BpHwSupplicantP2pIface4findEjNSt3__18functionIFvRKNS2_4V1_016SupplicantStatusEEEE"
  },
  {
   "name" : "_ZN7android8hardware4wifi10supplicant4V1_222BpHwSupplicantP2pIface4pingEv"
  },
  {
   "name" : "_ZN7android8hardware4wifi10supplicant4V1_222BpHwSupplicantP2pIface5debugERKNS0_11hidl_handleERKNS0_8hidl_vecINS0_11hidl_stringEEE"
  },
  {
   "name" : "_ZN7android8hardware4wifi10supplicant4V1_222BpHwSupplicantP2pIface5flushENSt3__18functionIFvRKNS2_4V1_016SupplicantStatusEEEE"
  },
  {
   "name" : "_ZN7android8hardware4wifi10supplicant4V1_222BpHwSupplicantP2pIface6inviteERKNS0_11hidl_stringERKNS0_10hidl_arrayIhLj6EJEEESB_NSt3__18functionIFvRKNS2_4V1_016SupplicantStatusEEEE"
  },
  {
   "name" : "_ZN7android8hardware4wifi10supplicant4V1_222BpHwSupplicantP2pIface6rejectERKNS0_10hidl_arrayIhLj6EJEEENSt3__18functionIFvRKNS2_4V1_016SupplicantStatusEEEE"
  },
  {
   "name" : "_ZN7android8hardware4wifi10supplicant4V1_222BpHwSupplicantP2pIface7connectERKNS0_10hidl_arrayIhLj6EJEEENS2_4V1_019ISupplicantP2pIface18WpsProvisionMethodERKNS0_11hidl_stringEbbjNSt3__18functionIFvRKNS9_16SupplicantStatusESE_EEE"
  },
  {
   "name" : "_ZN7android8hardware4wifi10supplicant4V1_222BpHwSupplicantP2pIface7getNameENSt3__18functionIFvRKNS2_4V1_016SupplicantStatusERKNS0_11hidl_stringEEEE"
  },
  {
   "name" : "_ZN7android8hardware4wifi10supplicant4V1_222BpHwSupplicantP2pIface7getSsidERKNS0_10hidl_arrayIhLj6EJEEENSt3__18functionIFvRKNS2_4V1_016SupplicantStatusERKNS0_8hidl_vecIhEEEEE"
  },
  {
   "name" : "_ZN7android8hardware4wifi10supplicant4V1_222BpHwSupplicantP2pIface7getTypeENSt3__18functionIFvRKNS2_4V1_016SupplicantStatusENS7_9IfaceTypeEEEE"
  },
  {
   "name" : "_ZN7android8hardware4wifi10supplicant4V1_222BpHwSupplicantP2pIface8addGroupEbjNSt3__18functionIFvRKNS2_4V1_016SupplicantStatusEEEE"
  },
  {
   "name" : "_ZN7android8hardware4wifi10supplicant4V1_222BpHwSupplicantP2pIface8reinvokeEjRKNS0_10hidl_arrayIhLj6EJEEENSt3__18functionIFvRKNS2_4V1_016SupplicantStatusEEEE"
  },
  {
   "name" : "_ZN7android8hardware4wifi10supplicant4V1_222BpHwSupplicantP2pIface8stopFindENSt3__18functionIFvRKNS2_4V1_016SupplicantStatusEEEE"
  },
  {
   "name" : "_ZN7android8hardware4wifi10supplicant4V1_222BpHwSupplicantP2pIface9cancelWpsERKNS0_11hidl_stringENSt3__18functionIFvRKNS2_4V1_016SupplicantStatusEEEE"
  },
  {
   "name" : "_ZN7android8hardware4wifi10supplicant4V1_222BpHwSupplicantP2pIface9enableWfdEbNSt3__18functionIFvRKNS2_4V1_016SupplicantStatusEEEE"
  },
  {
   "name" : "_ZN7android8hardware4wifi10supplicant4V1_222BpHwSupplicantP2pIfaceC1ERKNS_2spINS0_7IBinderEEE"
  },
  {
   "name" : "_ZN7android8hardware4wifi10supplicant4V1_222BpHwSupplicantP2pIfaceC2ERKNS_2spINS0_7IBinderEEE"
  },
  {
   "name" : "_ZN7android8hardware4wifi10supplicant4V1_222BpHwSupplicantStaIface10addNetworkENSt3__18functionIFvRKNS2_4V1_016SupplicantStatusERKNS_2spINS7_18ISupplicantNetworkEEEEEE"
  },
  {
   "name" : "_ZN7android8hardware4wifi10supplicant4V1_222BpHwSupplicantStaIface10disconnectENSt3__18functionIFvRKNS2_4V1_016SupplicantStatusEEEE"
  },
  {
   "name" : "_ZN7android8hardware4wifi10supplicant4V1_222BpHwSupplicantStaIface10getNetworkEjNSt3__18functionIFvRKNS2_4V1_016SupplicantStatusERKNS_2spINS7_18ISupplicantNetworkEEEEEE"
  },
  {
   "name" : "_ZN7android8hardware4wifi10supplicant4V1_222BpHwSupplicantStaIface11addRxFilterENS2_4V1_019ISupplicantStaIface12RxFilterTypeENSt3__18functionIFvRKNS5_16SupplicantStatusEEEE"
  },
  {
   "name" : "_ZN7android8hardware4wifi10supplicant4V1_222BpHwSupplicantStaIface11linkToDeathERKNS_2spINS0_20hidl_death_recipientEEEy"
  },
  {
   "name" : "_ZN7android8hardware4wifi10supplicant4V1_222BpHwSupplicantStaIface11reassociateENSt3__18functionIFvRKNS2_4V1_016SupplicantStatusEEEE"
  },
  {
   "name" : "_ZN7android8hardware4wifi10supplicant4V1_222BpHwSupplicantStaIface11startWpsPbcERKNS0_10hidl_arrayIhLj6EJEEENSt3__18functionIFvRKNS2_4V1_016SupplicantStatusEEEE"
  },
  {
   "name" : "_ZN7android8hardware4wifi10supplicant4V1_222BpHwSupplicantStaIface12getDebugInfoENSt3__18functionIFvRKNS_4hidl4base4V1_09DebugInfoEEEE"
  },
  {
   "name" : "_ZN7android8hardware4wifi10supplicant4V1_222BpHwSupplicantStaIface12getHashChainENSt3__18functionIFvRKNS0_8hidl_vecINS0_10hidl_arrayIhLj32EJEEEEEEEE"
  },
  {
   "name" : "_ZN7android8hardware4wifi10supplicant4V1_222BpHwSupplicantStaIface12listNetworksENSt3__18functionIFvRKNS2_4V1_016SupplicantStatusERKNS0_8hidl_vecIjEEEEE"
  },
  {
   "name" : "_ZN7android8hardware4wifi10supplicant4V1_222BpHwSupplicantStaIface12removeDppUriEjNSt3__18functionIFvRKNS2_4V1_016SupplicantStatusEEEE"
  },
  {
   "name" : "_ZN7android8hardware4wifi10supplicant4V1_222BpHwSupplicantStaIface12setPowerSaveEbNSt3__18functionIFvRKNS2_4V1_016SupplicantStatusEEEE"
  },
  {
   "name" : "_ZN7android8hardware4wifi10supplicant4V1_222BpHwSupplicantStaIface12stopRxFilterENSt3__18functionIFvRKNS2_4V1_016SupplicantStatusEEEE"
  },
  {
   "name" : "_ZN7android8hardware4wifi10supplicant4V1_222BpHwSupplicantStaIface13addDppPeerUriERKNS0_11hidl_stringENSt3__18functionIFvRKNS2_4V1_016SupplicantStatusEjEEE"
  },
  {
   "name" : "_ZN7android8hardware4wifi10supplicant4V1_222BpHwSupplicantStaIface13getMacAddressENSt3__18functionIFvRKNS2_4V1_016SupplicantStatusERKNS0_10hidl_arrayIhLj6EJEEEEEE"
  },
  {
   "name" : "_ZN7android8hardware4wifi10supplicant4V1_222BpHwSupplicantStaIface13removeNetworkEjNSt3__18functionIFvRKNS2_4V1_016SupplicantStatusEEEE"
  },
  {
   "name" : "_ZN7android8hardware4wifi10supplicant4V1_222BpHwSupplicantStaIface13startRxFilterENSt3__18functionIFvRKNS2_4V1_016SupplicantStatusEEEE"
  },
  {
   "name" : "_ZN7android8hardware4wifi10supplicant4V1_222BpHwSupplicantStaIface13unlinkToDeathERKNS_2spINS0_20hidl_death_recipientEEE"
  },
  {
   "name" : "_ZN7android8hardware4wifi10supplicant4V1_222BpHwSupplicantStaIface14interfaceChainENSt3__18functionIFvRKNS0_8hidl_vecINS0_11hidl_stringEEEEEE"
  },
  {
   "name" : "_ZN7android8hardware4wifi10supplicant4V1_222BpHwSupplicantStaIface14removeRxFilterENS2_4V1_019ISupplicantStaIface12RxFilterTypeENSt3__18functionIFvRKNS5_16SupplicantStatusEEEE"
  },
  {
   "name" : "_ZN7android8hardware4wifi10supplicant4V1_222BpHwSupplicantStaIface14setCountryCodeERKNS0_10hidl_arrayIaLj2EJEEENSt3__18functionIFvRKNS2_4V1_016SupplicantStatusEEEE"
  },
  {
   "name" : "_ZN7android8hardware4wifi10supplicant4V1_222BpHwSupplicantStaIface14setExternalSimEbNSt3__18functionIFvRKNS2_4V1_016SupplicantStatusEEEE"
  },
  {
   "name" : "_ZN7android8hardware4wifi10supplicant4V1_222BpHwSupplicantStaIface15addExtRadioWorkERKNS0_11hidl_stringEjjNSt3__18functionIFvRKNS2_4V1_016SupplicantStatusEjEEE"
  },
  {
   "name" : "_ZN7android8hardware4wifi10supplicant4V1_222BpHwSupplicantStaIface15setWpsModelNameERKNS0_11hidl_stringENSt3__18functionIFvRKNS2_4V1_016SupplicantStatusEEEE"
  },
  {
   "name" : "_ZN7android8hardware4wifi10supplicant4V1_222BpHwSupplicantStaIface16registerCallbackERKNS_2spINS2_4V1_027ISupplicantStaIfaceCallbackEEENSt3__18functionIFvRKNS6_16SupplicantStatusEEEE"
  },
  {
   "name" : "_ZN7android8hardware4wifi10supplicant4V1_222BpHwSupplicantStaIface16setWpsDeviceNameERKNS0_11hidl_stringENSt3__18functionIFvRKNS2_4V1_016SupplicantStatusEEEE"
  },
  {
   "name" : "_ZN7android8hardware4wifi10supplicant4V1_222BpHwSupplicantStaIface16setWpsDeviceTypeERKNS0_10hidl_arrayIhLj8EJEEENSt3__18functionIFvRKNS2_4V1_016SupplicantStatusEEEE"
  },
  {
   "name" : "_ZN7android8hardware4wifi10supplicant4V1_222BpHwSupplicantStaIface16stopDppInitiatorENSt3__18functionIFvRKNS2_4V1_016SupplicantStatusEEEE"
  },
  {
   "name" : "_ZN7android8hardware4wifi10supplicant4V1_222BpHwSupplicantStaIface17initiateAnqpQueryERKNS0_10hidl_arrayIhLj6EJEEERKNS0_8hidl_vecINS2_4V1_019ISupplicantStaIface10AnqpInfoIdEEERKNS9_INSB_16Hs20AnqpSubtypesEEENSt3__18functionIFvRKNSA_16SupplicantStatusEEEE"
  },
  {
   "name" : "_ZN7android8hardware4wifi10supplicant4V1_222BpHwSupplicantStaIface17initiateTdlsSetupERKNS0_10hidl_arrayIhLj6EJEEENSt3__18functionIFvRKNS2_4V1_016SupplicantStatusEEEE"
  },
  {
   "name" : "_ZN7android8hardware4wifi10supplicant4V1_222BpHwSupplicantStaIface17setWpsModelNumberERKNS0_11hidl_stringENSt3__18functionIFvRKNS2_4V1_016SupplicantStatusEEEE"
  },
  {
   "name" : "_ZN7android8hardware4wifi10supplicant4V1_222BpHwSupplicantStaIface17startWpsPinKeypadERKNS0_11hidl_stringENSt3__18functionIFvRKNS2_4V1_016SupplicantStatusEEEE"
  },
  {
   "name" : "_ZN7android8hardware4wifi10supplicant4V1_222BpHwSupplicantStaIface17startWpsRegistrarERKNS0_10hidl_arrayIhLj6EJEEERKNS0_11hidl_stringENSt3__18functionIFvRKNS2_4V1_016SupplicantStatusEEEE"
  },
  {
   "name" : "_ZN7android8hardware4wifi10supplicant4V1_222BpHwSupplicantStaIface18_hidl_removeDppUriEPNS0_10IInterfaceEPNS0_7details16HidlInstrumentorEjNSt3__18functionIFvRKNS2_4V1_016SupplicantStatusEEEE"
  },
  {
   "name" : "_ZN7android8hardware4wifi10supplicant4V1_222BpHwSupplicantStaIface18removeExtRadioWorkEjNSt3__18functionIFvRKNS2_4V1_016SupplicantStatusEEEE"
  },
  {
   "name" : "_ZN7android8hardware4wifi10supplicant4V1_222BpHwSupplicantStaIface18setWpsManufacturerERKNS0_11hidl_stringENSt3__18functionIFvRKNS2_4V1_016SupplicantStatusEEEE"
  },
  {
   "name" : "_ZN7android8hardware4wifi10supplicant4V1_222BpHwSupplicantStaIface18setWpsSerialNumberERKNS0_11hidl_stringENSt3__18functionIFvRKNS2_4V1_016SupplicantStatusEEEE"
  },
  {
   "name" : "_ZN7android8hardware4wifi10supplicant4V1_222BpHwSupplicantStaIface18startWpsPinDisplayERKNS0_10hidl_arrayIhLj6EJEEENSt3__18functionIFvRKNS2_4V1_016SupplicantStatusERKNS0_11hidl_stringEEEE"
  },
  {
   "name" : "_ZN7android8hardware4wifi10supplicant4V1_222BpHwSupplicantStaIface19_hidl_addDppPeerUriEPNS0_10IInterfaceEPNS0_7details16HidlInstrumentorERKNS0_11hidl_stringENSt3__18functionIFvRKNS2_4V1_016SupplicantStatusEjEEE"
  },
  {
   "name" : "_ZN7android8hardware4wifi10supplicant4V1_222BpHwSupplicantStaIface19enableAutoReconnectEbNSt3__18functionIFvRKNS2_4V1_016SupplicantStatusEEEE"
  },
  {
   "name" : "_ZN7android8hardware4wifi10supplicant4V1_222BpHwSupplicantStaIface19interfaceDescriptorENSt3__18functionIFvRKNS0_11hidl_stringEEEE"
  },
  {
   "name" : "_ZN7android8hardware4wifi10supplicant4V1_222BpHwSupplicantStaIface19setWpsConfigMethodsEtNSt3__18functionIFvRKNS2_4V1_016SupplicantStatusEEEE"
  },
  {
   "name" : "_ZN7android8hardware4wifi10supplicant4V1_222BpHwSupplicantStaIface20initiateTdlsDiscoverERKNS0_10hidl_arrayIhLj6EJEEENSt3__18functionIFvRKNS2_4V1_016SupplicantStatusEEEE"
  },
  {
   "name" : "_ZN7android8hardware4wifi10supplicant4V1_222BpHwSupplicantStaIface20initiateTdlsTeardownERKNS0_10hidl_arrayIhLj6EJEEENSt3__18functionIFvRKNS2_4V1_016SupplicantStatusEEEE"
  },
  {
   "name" : "_ZN7android8hardware4wifi10supplicant4V1_222BpHwSupplicantStaIface20registerCallback_1_1ERKNS_2spINS2_4V1_127ISupplicantStaIfaceCallbackEEENSt3__18functionIFvRKNS2_4V1_016SupplicantStatusEEEE"
  },
  {
   "name" : "_ZN7android8hardware4wifi10supplicant4V1_222BpHwSupplicantStaIface20registerCallback_1_2ERKNS_2spINS3_27ISupplicantStaIfaceCallbackEEENSt3__18functionIFvRKNS2_4V1_016SupplicantStatusEEEE"
  },
  {
   "name" : "_ZN7android8hardware4wifi10supplicant4V1_222BpHwSupplicantStaIface20setBtCoexistenceModeENS2_4V1_019ISupplicantStaIface17BtCoexistenceModeENSt3__18functionIFvRKNS5_16SupplicantStatusEEEE"
  },
  {
   "name" : "_ZN7android8hardware4wifi10supplicant4V1_222BpHwSupplicantStaIface21initiateHs20IconQueryERKNS0_10hidl_arrayIhLj6EJEEERKNS0_11hidl_stringENSt3__18functionIFvRKNS2_4V1_016SupplicantStatusEEEE"
  },
  {
   "name" : "_ZN7android8hardware4wifi10supplicant4V1_222BpHwSupplicantStaIface21notifySyspropsChangedEv"
  },
  {
   "name" : "_ZN7android8hardware4wifi10supplicant4V1_222BpHwSupplicantStaIface21setHALInstrumentationEv"
  },
  {
   "name" : "_ZN7android8hardware4wifi10supplicant4V1_222BpHwSupplicantStaIface21setSuspendModeEnabledEbNSt3__18functionIFvRKNS2_4V1_016SupplicantStatusEEEE"
  },
  {
   "name" : "_ZN7android8hardware4wifi10supplicant4V1_222BpHwSupplicantStaIface22_hidl_stopDppInitiatorEPNS0_10IInterfaceEPNS0_7details16HidlInstrumentorENSt3__18functionIFvRKNS2_4V1_016SupplicantStatusEEEE"
  },
  {
   "name" : "_ZN7android8hardware4wifi10supplicant4V1_222BpHwSupplicantStaIface22getKeyMgmtCapabilitiesENSt3__18functionIFvRKNS2_4V1_016SupplicantStatusEjEEE"
  },
  {
   "name" : "_ZN7android8hardware4wifi10supplicant4V1_222BpHwSupplicantStaIface25startDppEnrolleeInitiatorEjjNSt3__18functionIFvRKNS2_4V1_016SupplicantStatusEEEE"
  },
  {
   "name" : "_ZN7android8hardware4wifi10supplicant4V1_222BpHwSupplicantStaIface26_hidl_registerCallback_1_2EPNS0_10IInterfaceEPNS0_7details16HidlInstrumentorERKNS_2spINS3_27ISupplicantStaIfaceCallbackEEENSt3__18functionIFvRKNS2_4V1_016SupplicantStatusEEEE"
  },
  {
   "name" : "_ZN7android8hardware4wifi10supplicant4V1_222BpHwSupplicantStaIface28_hidl_getKeyMgmtCapabilitiesEPNS0_10IInterfaceEPNS0_7details16HidlInstrumentorENSt3__18functionIFvRKNS2_4V1_016SupplicantStatusEjEEE"
  },
  {
   "name" : "_ZN7android8hardware4wifi10supplicant4V1_222BpHwSupplicantStaIface29startDppConfiguratorInitiatorEjjRKNS0_11hidl_stringES7_S7_NS3_10DppNetRoleENS3_6DppAkmENSt3__18functionIFvRKNS2_4V1_016SupplicantStatusEEEE"
  },
  {
   "name" : "_ZN7android8hardware4wifi10supplicant4V1_222BpHwSupplicantStaIface31_hidl_startDppEnrolleeInitiatorEPNS0_10IInterfaceEPNS0_7details16HidlInstrumentorEjjNSt3__18functionIFvRKNS2_4V1_016SupplicantStatusEEEE"
  },
  {
   "name" : "_ZN7android8hardware4wifi10supplicant4V1_222BpHwSupplicantStaIface31setBtCoexistenceScanModeEnabledEbNSt3__18functionIFvRKNS2_4V1_016SupplicantStatusEEEE"
  },
  {
   "name" : "_ZN7android8hardware4wifi10supplicant4V1_222BpHwSupplicantStaIface35_hidl_startDppConfiguratorInitiatorEPNS0_10IInterfaceEPNS0_7details16HidlInstrumentorEjjRKNS0_11hidl_stringESC_SC_NS3_10DppNetRoleENS3_6DppAkmENSt3__18functionIFvRKNS2_4V1_016SupplicantStatusEEEE"
  },
  {
   "name" : "_ZN7android8hardware4wifi10supplicant4V1_222BpHwSupplicantStaIface4pingEv"
  },
  {
   "name" : "_ZN7android8hardware4wifi10supplicant4V1_222BpHwSupplicantStaIface5debugERKNS0_11hidl_handleERKNS0_8hidl_vecINS0_11hidl_stringEEE"
  },
  {
   "name" : "_ZN7android8hardware4wifi10supplicant4V1_222BpHwSupplicantStaIface7getNameENSt3__18functionIFvRKNS2_4V1_016SupplicantStatusERKNS0_11hidl_stringEEEE"
  },
  {
   "name" : "_ZN7android8hardware4wifi10supplicant4V1_222BpHwSupplicantStaIface7getTypeENSt3__18functionIFvRKNS2_4V1_016SupplicantStatusENS7_9IfaceTypeEEEE"
  },
  {
   "name" : "_ZN7android8hardware4wifi10supplicant4V1_222BpHwSupplicantStaIface9cancelWpsENSt3__18functionIFvRKNS2_4V1_016SupplicantStatusEEEE"
  },
  {
   "name" : "_ZN7android8hardware4wifi10supplicant4V1_222BpHwSupplicantStaIface9reconnectENSt3__18functionIFvRKNS2_4V1_016SupplicantStatusEEEE"
  },
  {
   "name" : "_ZN7android8hardware4wifi10supplicant4V1_222BpHwSupplicantStaIfaceC1ERKNS_2spINS0_7IBinderEEE"
  },
  {
   "name" : "_ZN7android8hardware4wifi10supplicant4V1_222BpHwSupplicantStaIfaceC2ERKNS_2spINS0_7IBinderEEE"
  },
  {
   "name" : "_ZN7android8hardware4wifi10supplicant4V1_222BsSupplicantStaNetwork13addOnewayTaskENSt3__18functionIFvvEEE"
  },
  {
   "name" : "_ZN7android8hardware4wifi10supplicant4V1_222BsSupplicantStaNetworkC1ENS_2spINS3_21ISupplicantStaNetworkEEE"
  },
  {
   "name" : "_ZN7android8hardware4wifi10supplicant4V1_222BsSupplicantStaNetworkC2ENS_2spINS3_21ISupplicantStaNetworkEEE"
  },
  {
   "name" : "_ZN7android8hardware4wifi10supplicant4V1_224BnHwSupplicantStaNetwork10onTransactEjRKNS0_6ParcelEPS5_jNSt3__18functionIFvRS5_EEE"
  },
  {
   "name" : "_ZN7android8hardware4wifi10supplicant4V1_224BnHwSupplicantStaNetwork12getDebugInfoENSt3__18functionIFvRKNS_4hidl4base4V1_09DebugInfoEEEE"
  },
  {
   "name" : "_ZN7android8hardware4wifi10supplicant4V1_224BnHwSupplicantStaNetwork20_hidl_getKeyMgmt_1_2EPNS_4hidl4base4V1_08BnHwBaseERKNS0_6ParcelEPSA_NSt3__18functionIFvRSA_EEE"
  },
  {
   "name" : "_ZN7android8hardware4wifi10supplicant4V1_224BnHwSupplicantStaNetwork20_hidl_getSaePasswordEPNS_4hidl4base4V1_08BnHwBaseERKNS0_6ParcelEPSA_NSt3__18functionIFvRSA_EEE"
  },
  {
   "name" : "_ZN7android8hardware4wifi10supplicant4V1_224BnHwSupplicantStaNetwork20_hidl_setKeyMgmt_1_2EPNS_4hidl4base4V1_08BnHwBaseERKNS0_6ParcelEPSA_NSt3__18functionIFvRSA_EEE"
  },
  {
   "name" : "_ZN7android8hardware4wifi10supplicant4V1_224BnHwSupplicantStaNetwork20_hidl_setSaePasswordEPNS_4hidl4base4V1_08BnHwBaseERKNS0_6ParcelEPSA_NSt3__18functionIFvRSA_EEE"
  },
  {
   "name" : "_ZN7android8hardware4wifi10supplicant4V1_224BnHwSupplicantStaNetwork22_hidl_getSaePasswordIdEPNS_4hidl4base4V1_08BnHwBaseERKNS0_6ParcelEPSA_NSt3__18functionIFvRSA_EEE"
  },
  {
   "name" : "_ZN7android8hardware4wifi10supplicant4V1_224BnHwSupplicantStaNetwork22_hidl_setSaePasswordIdEPNS_4hidl4base4V1_08BnHwBaseERKNS0_6ParcelEPSA_NSt3__18functionIFvRSA_EEE"
  },
  {
   "name" : "_ZN7android8hardware4wifi10supplicant4V1_224BnHwSupplicantStaNetwork24_hidl_getGroupCipher_1_2EPNS_4hidl4base4V1_08BnHwBaseERKNS0_6ParcelEPSA_NSt3__18functionIFvRSA_EEE"
  },
  {
   "name" : "_ZN7android8hardware4wifi10supplicant4V1_224BnHwSupplicantStaNetwork24_hidl_getGroupMgmtCipherEPNS_4hidl4base4V1_08BnHwBaseERKNS0_6ParcelEPSA_NSt3__18functionIFvRSA_EEE"
  },
  {
   "name" : "_ZN7android8hardware4wifi10supplicant4V1_224BnHwSupplicantStaNetwork24_hidl_setGroupCipher_1_2EPNS_4hidl4base4V1_08BnHwBaseERKNS0_6ParcelEPSA_NSt3__18functionIFvRSA_EEE"
  },
  {
   "name" : "_ZN7android8hardware4wifi10supplicant4V1_224BnHwSupplicantStaNetwork24_hidl_setGroupMgmtCipherEPNS_4hidl4base4V1_08BnHwBaseERKNS0_6ParcelEPSA_NSt3__18functionIFvRSA_EEE"
  },
  {
   "name" : "_ZN7android8hardware4wifi10supplicant4V1_224BnHwSupplicantStaNetwork27_hidl_getPairwiseCipher_1_2EPNS_4hidl4base4V1_08BnHwBaseERKNS0_6ParcelEPSA_NSt3__18functionIFvRSA_EEE"
  },
  {
   "name" : "_ZN7android8hardware4wifi10supplicant4V1_224BnHwSupplicantStaNetwork27_hidl_setPairwiseCipher_1_2EPNS_4hidl4base4V1_08BnHwBaseERKNS0_6ParcelEPSA_NSt3__18functionIFvRSA_EEE"
  },
  {
   "name" : "_ZN7android8hardware4wifi10supplicant4V1_224BnHwSupplicantStaNetwork35_hidl_enableSuiteBEapOpenSslCiphersEPNS_4hidl4base4V1_08BnHwBaseERKNS0_6ParcelEPSA_NSt3__18functionIFvRSA_EEE"
  },
  {
   "name" : "_ZN7android8hardware4wifi10supplicant4V1_224BnHwSupplicantStaNetwork35_hidl_enableTlsSuiteBEapPhase1ParamEPNS_4hidl4base4V1_08BnHwBaseERKNS0_6ParcelEPSA_NSt3__18functionIFvRSA_EEE"
  },
  {
   "name" : "_ZN7android8hardware4wifi10supplicant4V1_224BnHwSupplicantStaNetwork4pingEv"
  },
  {
   "name" : "_ZN7android8hardware4wifi10supplicant4V1_224BnHwSupplicantStaNetworkC1ERKNS_2spINS3_21ISupplicantStaNetworkEEE"
  },
  {
   "name" : "_ZN7android8hardware4wifi10supplicant4V1_224BnHwSupplicantStaNetworkC2ERKNS_2spINS3_21ISupplicantStaNetworkEEE"
  },
  {
   "name" : "_ZN7android8hardware4wifi10supplicant4V1_224BnHwSupplicantStaNetworkD0Ev"
  },
  {
   "name" : "_ZN7android8hardware4wifi10supplicant4V1_224BnHwSupplicantStaNetworkD1Ev"
  },
  {
   "name" : "_ZN7android8hardware4wifi10supplicant4V1_224BnHwSupplicantStaNetworkD2Ev"
  },
  {
   "name" : "_ZN7android8hardware4wifi10supplicant4V1_224BpHwSupplicantStaNetwork10getAuthAlgENSt3__18functionIFvRKNS2_4V1_016SupplicantStatusEjEEE"
  },
  {
   "name" : "_ZN7android8hardware4wifi10supplicant4V1_224BpHwSupplicantStaNetwork10getKeyMgmtENSt3__18functionIFvRKNS2_4V1_016SupplicantStatusEjEEE"
  },
  {
   "name" : "_ZN7android8hardware4wifi10supplicant4V1_224BpHwSupplicantStaNetwork10setAuthAlgEjNSt3__18functionIFvRKNS2_4V1_016SupplicantStatusEEEE"
  },
  {
   "name" : "_ZN7android8hardware4wifi10supplicant4V1_224BpHwSupplicantStaNetwork10setKeyMgmtEjNSt3__18functionIFvRKNS2_4V1_016SupplicantStatusEEEE"
  },
  {
   "name" : "_ZN7android8hardware4wifi10supplicant4V1_224BpHwSupplicantStaNetwork11getScanSsidENSt3__18functionIFvRKNS2_4V1_016SupplicantStatusEbEEE"
  },
  {
   "name" : "_ZN7android8hardware4wifi10supplicant4V1_224BpHwSupplicantStaNetwork11linkToDeathERKNS_2spINS0_20hidl_death_recipientEEEy"
  },
  {
   "name" : "_ZN7android8hardware4wifi10supplicant4V1_224BpHwSupplicantStaNetwork11setScanSsidEbNSt3__18functionIFvRKNS2_4V1_016SupplicantStatusEEEE"
  },
  {
   "name" : "_ZN7android8hardware4wifi10supplicant4V1_224BpHwSupplicantStaNetwork12getDebugInfoENSt3__18functionIFvRKNS_4hidl4base4V1_09DebugInfoEEEE"
  },
  {
   "name" : "_ZN7android8hardware4wifi10supplicant4V1_224BpHwSupplicantStaNetwork12getEapCACertENSt3__18functionIFvRKNS2_4V1_016SupplicantStatusERKNS0_11hidl_stringEEEE"
  },
  {
   "name" : "_ZN7android8hardware4wifi10supplicant4V1_224BpHwSupplicantStaNetwork12getEapCAPathENSt3__18functionIFvRKNS2_4V1_016SupplicantStatusERKNS0_11hidl_stringEEEE"
  },
  {
   "name" : "_ZN7android8hardware4wifi10supplicant4V1_224BpHwSupplicantStaNetwork12getEapEngineENSt3__18functionIFvRKNS2_4V1_016SupplicantStatusEbEEE"
  },
  {
   "name" : "_ZN7android8hardware4wifi10supplicant4V1_224BpHwSupplicantStaNetwork12getEapMethodENSt3__18functionIFvRKNS2_4V1_016SupplicantStatusENS7_21ISupplicantStaNetwork9EapMethodEEEE"
  },
  {
   "name" : "_ZN7android8hardware4wifi10supplicant4V1_224BpHwSupplicantStaNetwork12getHashChainENSt3__18functionIFvRKNS0_8hidl_vecINS0_10hidl_arrayIhLj32EJEEEEEEEE"
  },
  {
   "name" : "_ZN7android8hardware4wifi10supplicant4V1_224BpHwSupplicantStaNetwork12setEapCACertERKNS0_11hidl_stringENSt3__18functionIFvRKNS2_4V1_016SupplicantStatusEEEE"
  },
  {
   "name" : "_ZN7android8hardware4wifi10supplicant4V1_224BpHwSupplicantStaNetwork12setEapCAPathERKNS0_11hidl_stringENSt3__18functionIFvRKNS2_4V1_016SupplicantStatusEEEE"
  },
  {
   "name" : "_ZN7android8hardware4wifi10supplicant4V1_224BpHwSupplicantStaNetwork12setEapEngineEbNSt3__18functionIFvRKNS2_4V1_016SupplicantStatusEEEE"
  },
  {
   "name" : "_ZN7android8hardware4wifi10supplicant4V1_224BpHwSupplicantStaNetwork12setEapMethodENS2_4V1_021ISupplicantStaNetwork9EapMethodENSt3__18functionIFvRKNS5_16SupplicantStatusEEEE"
  },
  {
   "name" : "_ZN7android8hardware4wifi10supplicant4V1_224BpHwSupplicantStaNetwork13getRequirePmfENSt3__18functionIFvRKNS2_4V1_016SupplicantStatusEbEEE"
  },
  {
   "name" : "_ZN7android8hardware4wifi10supplicant4V1_224BpHwSupplicantStaNetwork13setRequirePmfEbNSt3__18functionIFvRKNS2_4V1_016SupplicantStatusEEEE"
  },
  {
   "name" : "_ZN7android8hardware4wifi10supplicant4V1_224BpHwSupplicantStaNetwork13unlinkToDeathERKNS_2spINS0_20hidl_death_recipientEEE"
  },
  {
   "name" : "_ZN7android8hardware4wifi10supplicant4V1_224BpHwSupplicantStaNetwork14getEapEngineIDENSt3__18functionIFvRKNS2_4V1_016SupplicantStatusERKNS0_11hidl_stringEEEE"
  },
  {
   "name" : "_ZN7android8hardware4wifi10supplicant4V1_224BpHwSupplicantStaNetwork14getEapIdentityENSt3__18functionIFvRKNS2_4V1_016SupplicantStatusERKNS0_8hidl_vecIhEEEEE"
  },
  {
   "name" : "_ZN7android8hardware4wifi10supplicant4V1_224BpHwSupplicantStaNetwork14getEapPasswordENSt3__18functionIFvRKNS2_4V1_016SupplicantStatusERKNS0_8hidl_vecIhEEEEE"
  },
  {
   "name" : "_ZN7android8hardware4wifi10supplicant4V1_224BpHwSupplicantStaNetwork14getGroupCipherENSt3__18functionIFvRKNS2_4V1_016SupplicantStatusEjEEE"
  },
  {
   "name" : "_ZN7android8hardware4wifi10supplicant4V1_224BpHwSupplicantStaNetwork14getKeyMgmt_1_2ENSt3__18functionIFvRKNS2_4V1_016SupplicantStatusEjEEE"
  },
  {
   "name" : "_ZN7android8hardware4wifi10supplicant4V1_224BpHwSupplicantStaNetwork14getSaePasswordENSt3__18functionIFvRKNS2_4V1_016SupplicantStatusERKNS0_11hidl_stringEEEE"
  },
  {
   "name" : "_ZN7android8hardware4wifi10supplicant4V1_224BpHwSupplicantStaNetwork14getWepTxKeyIdxENSt3__18functionIFvRKNS2_4V1_016SupplicantStatusEjEEE"
  },
  {
   "name" : "_ZN7android8hardware4wifi10supplicant4V1_224BpHwSupplicantStaNetwork14interfaceChainENSt3__18functionIFvRKNS0_8hidl_vecINS0_11hidl_stringEEEEEE"
  },
  {
   "name" : "_ZN7android8hardware4wifi10supplicant4V1_224BpHwSupplicantStaNetwork14setEapEngineIDERKNS0_11hidl_stringENSt3__18functionIFvRKNS2_4V1_016SupplicantStatusEEEE"
  },
  {
   "name" : "_ZN7android8hardware4wifi10supplicant4V1_224BpHwSupplicantStaNetwork14setEapIdentityERKNS0_8hidl_vecIhEENSt3__18functionIFvRKNS2_4V1_016SupplicantStatusEEEE"
  },
  {
   "name" : "_ZN7android8hardware4wifi10supplicant4V1_224BpHwSupplicantStaNetwork14setEapPasswordERKNS0_8hidl_vecIhEENSt3__18functionIFvRKNS2_4V1_016SupplicantStatusEEEE"
  },
  {
   "name" : "_ZN7android8hardware4wifi10supplicant4V1_224BpHwSupplicantStaNetwork14setGroupCipherEjNSt3__18functionIFvRKNS2_4V1_016SupplicantStatusEEEE"
  },
  {
   "name" : "_ZN7android8hardware4wifi10supplicant4V1_224BpHwSupplicantStaNetwork14setKeyMgmt_1_2EjNSt3__18functionIFvRKNS2_4V1_016SupplicantStatusEEEE"
  },
  {
   "name" : "_ZN7android8hardware4wifi10supplicant4V1_224BpHwSupplicantStaNetwork14setSaePasswordERKNS0_11hidl_stringENSt3__18functionIFvRKNS2_4V1_016SupplicantStatusEEEE"
  },
  {
   "name" : "_ZN7android8hardware4wifi10supplicant4V1_224BpHwSupplicantStaNetwork14setWepTxKeyIdxEjNSt3__18functionIFvRKNS2_4V1_016SupplicantStatusEEEE"
  },
  {
   "name" : "_ZN7android8hardware4wifi10supplicant4V1_224BpHwSupplicantStaNetwork16getEapClientCertENSt3__18functionIFvRKNS2_4V1_016SupplicantStatusERKNS0_11hidl_stringEEEE"
  },
  {
   "name" : "_ZN7android8hardware4wifi10supplicant4V1_224BpHwSupplicantStaNetwork16getInterfaceNameENSt3__18functionIFvRKNS2_4V1_016SupplicantStatusERKNS0_11hidl_stringEEEE"
  },
  {
   "name" : "_ZN7android8hardware4wifi10supplicant4V1_224BpHwSupplicantStaNetwork16getPskPassphraseENSt3__18functionIFvRKNS2_4V1_016SupplicantStatusERKNS0_11hidl_stringEEEE"
  },
  {
   "name" : "_ZN7android8hardware4wifi10supplicant4V1_224BpHwSupplicantStaNetwork16getSaePasswordIdENSt3__18functionIFvRKNS2_4V1_016SupplicantStatusERKNS0_11hidl_stringEEEE"
  },
  {
   "name" : "_ZN7android8hardware4wifi10supplicant4V1_224BpHwSupplicantStaNetwork16registerCallbackERKNS_2spINS2_4V1_029ISupplicantStaNetworkCallbackEEENSt3__18functionIFvRKNS6_16SupplicantStatusEEEE"
  },
  {
   "name" : "_ZN7android8hardware4wifi10supplicant4V1_224BpHwSupplicantStaNetwork16setEapClientCertERKNS0_11hidl_stringENSt3__18functionIFvRKNS2_4V1_016SupplicantStatusEEEE"
  },
  {
   "name" : "_ZN7android8hardware4wifi10supplicant4V1_224BpHwSupplicantStaNetwork16setPskPassphraseERKNS0_11hidl_stringENSt3__18functionIFvRKNS2_4V1_016SupplicantStatusEEEE"
  },
  {
   "name" : "_ZN7android8hardware4wifi10supplicant4V1_224BpHwSupplicantStaNetwork16setSaePasswordIdERKNS0_11hidl_stringENSt3__18functionIFvRKNS2_4V1_016SupplicantStatusEEEE"
  },
  {
   "name" : "_ZN7android8hardware4wifi10supplicant4V1_224BpHwSupplicantStaNetwork17getPairwiseCipherENSt3__18functionIFvRKNS2_4V1_016SupplicantStatusEjEEE"
  },
  {
   "name" : "_ZN7android8hardware4wifi10supplicant4V1_224BpHwSupplicantStaNetwork17setPairwiseCipherEjNSt3__18functionIFvRKNS2_4V1_016SupplicantStatusEEEE"
  },
  {
   "name" : "_ZN7android8hardware4wifi10supplicant4V1_224BpHwSupplicantStaNetwork18getEapPhase2MethodENSt3__18functionIFvRKNS2_4V1_016SupplicantStatusENS7_21ISupplicantStaNetwork15EapPhase2MethodEEEE"
  },
  {
   "name" : "_ZN7android8hardware4wifi10supplicant4V1_224BpHwSupplicantStaNetwork18getEapPrivateKeyIdENSt3__18functionIFvRKNS2_4V1_016SupplicantStatusERKNS0_11hidl_stringEEEE"
  },
  {
   "name" : "_ZN7android8hardware4wifi10supplicant4V1_224BpHwSupplicantStaNetwork18getEapSubjectMatchENSt3__18functionIFvRKNS2_4V1_016SupplicantStatusERKNS0_11hidl_stringEEEE"
  },
  {
   "name" : "_ZN7android8hardware4wifi10supplicant4V1_224BpHwSupplicantStaNetwork18getGroupCipher_1_2ENSt3__18functionIFvRKNS2_4V1_016SupplicantStatusEjEEE"
  },
  {
   "name" : "_ZN7android8hardware4wifi10supplicant4V1_224BpHwSupplicantStaNetwork18getGroupMgmtCipherENSt3__18functionIFvRKNS2_4V1_016SupplicantStatusEjEEE"
  },
  {
   "name" : "_ZN7android8hardware4wifi10supplicant4V1_224BpHwSupplicantStaNetwork18setEapPhase2MethodENS2_4V1_021ISupplicantStaNetwork15EapPhase2MethodENSt3__18functionIFvRKNS5_16SupplicantStatusEEEE"
  },
  {
   "name" : "_ZN7android8hardware4wifi10supplicant4V1_224BpHwSupplicantStaNetwork18setEapPrivateKeyIdERKNS0_11hidl_stringENSt3__18functionIFvRKNS2_4V1_016SupplicantStatusEEEE"
  },
  {
   "name" : "_ZN7android8hardware4wifi10supplicant4V1_224BpHwSupplicantStaNetwork18setEapSubjectMatchERKNS0_11hidl_stringENSt3__18functionIFvRKNS2_4V1_016SupplicantStatusEEEE"
  },
  {
   "name" : "_ZN7android8hardware4wifi10supplicant4V1_224BpHwSupplicantStaNetwork18setGroupCipher_1_2EjNSt3__18functionIFvRKNS2_4V1_016SupplicantStatusEEEE"
  },
  {
   "name" : "_ZN7android8hardware4wifi10supplicant4V1_224BpHwSupplicantStaNetwork18setGroupMgmtCipherEjNSt3__18functionIFvRKNS2_4V1_016SupplicantStatusEEEE"
  },
  {
   "name" : "_ZN7android8hardware4wifi10supplicant4V1_224BpHwSupplicantStaNetwork19interfaceDescriptorENSt3__18functionIFvRKNS0_11hidl_stringEEEE"
  },
  {
   "name" : "_ZN7android8hardware4wifi10supplicant4V1_224BpHwSupplicantStaNetwork19setUpdateIdentifierEjNSt3__18functionIFvRKNS2_4V1_016SupplicantStatusEEEE"
  },
  {
   "name" : "_ZN7android8hardware4wifi10supplicant4V1_224BpHwSupplicantStaNetwork20_hidl_getKeyMgmt_1_2EPNS0_10IInterfaceEPNS0_7details16HidlInstrumentorENSt3__18functionIFvRKNS2_4V1_016SupplicantStatusEjEEE"
  },
  {
   "name" : "_ZN7android8hardware4wifi10supplicant4V1_224BpHwSupplicantStaNetwork20_hidl_getSaePasswordEPNS0_10IInterfaceEPNS0_7details16HidlInstrumentorENSt3__18functionIFvRKNS2_4V1_016SupplicantStatusERKNS0_11hidl_stringEEEE"
  },
  {
   "name" : "_ZN7android8hardware4wifi10supplicant4V1_224BpHwSupplicantStaNetwork20_hidl_setKeyMgmt_1_2EPNS0_10IInterfaceEPNS0_7details16HidlInstrumentorEjNSt3__18functionIFvRKNS2_4V1_016SupplicantStatusEEEE"
  },
  {
   "name" : "_ZN7android8hardware4wifi10supplicant4V1_224BpHwSupplicantStaNetwork20_hidl_setSaePasswordEPNS0_10IInterfaceEPNS0_7details16HidlInstrumentorERKNS0_11hidl_stringENSt3__18functionIFvRKNS2_4V1_016SupplicantStatusEEEE"
  },
  {
   "name" : "_ZN7android8hardware4wifi10supplicant4V1_224BpHwSupplicantStaNetwork21getEapAltSubjectMatchENSt3__18functionIFvRKNS2_4V1_016SupplicantStatusERKNS0_11hidl_stringEEEE"
  },
  {
   "name" : "_ZN7android8hardware4wifi10supplicant4V1_224BpHwSupplicantStaNetwork21getPairwiseCipher_1_2ENSt3__18functionIFvRKNS2_4V1_016SupplicantStatusEjEEE"
  },
  {
   "name" : "_ZN7android8hardware4wifi10supplicant4V1_224BpHwSupplicantStaNetwork21notifySyspropsChangedEv"
  },
  {
   "name" : "_ZN7android8hardware4wifi10supplicant4V1_224BpHwSupplicantStaNetwork21setEapAltSubjectMatchERKNS0_11hidl_stringENSt3__18functionIFvRKNS2_4V1_016SupplicantStatusEEEE"
  },
  {
   "name" : "_ZN7android8hardware4wifi10supplicant4V1_224BpHwSupplicantStaNetwork21setHALInstrumentationEv"
  },
  {
   "name" : "_ZN7android8hardware4wifi10supplicant4V1_224BpHwSupplicantStaNetwork21setPairwiseCipher_1_2EjNSt3__18functionIFvRKNS2_4V1_016SupplicantStatusEEEE"
  },
  {
   "name" : "_ZN7android8hardware4wifi10supplicant4V1_224BpHwSupplicantStaNetwork22_hidl_getSaePasswordIdEPNS0_10IInterfaceEPNS0_7details16HidlInstrumentorENSt3__18functionIFvRKNS2_4V1_016SupplicantStatusERKNS0_11hidl_stringEEEE"
  },
  {
   "name" : "_ZN7android8hardware4wifi10supplicant4V1_224BpHwSupplicantStaNetwork22_hidl_setSaePasswordIdEPNS0_10IInterfaceEPNS0_7details16HidlInstrumentorERKNS0_11hidl_stringENSt3__18functionIFvRKNS2_4V1_016SupplicantStatusEEEE"
  },
  {
   "name" : "_ZN7android8hardware4wifi10supplicant4V1_224BpHwSupplicantStaNetwork22setProactiveKeyCachingEbNSt3__18functionIFvRKNS2_4V1_016SupplicantStatusEEEE"
  },
  {
   "name" : "_ZN7android8hardware4wifi10supplicant4V1_224BpHwSupplicantStaNetwork23getEapAnonymousIdentityENSt3__18functionIFvRKNS2_4V1_016SupplicantStatusERKNS0_8hidl_vecIhEEEEE"
  },
  {
   "name" : "_ZN7android8hardware4wifi10supplicant4V1_224BpHwSupplicantStaNetwork23getEapDomainSuffixMatchENSt3__18functionIFvRKNS2_4V1_016SupplicantStatusERKNS0_11hidl_stringEEEE"
  },
  {
   "name" : "_ZN7android8hardware4wifi10supplicant4V1_224BpHwSupplicantStaNetwork23setEapAnonymousIdentityERKNS0_8hidl_vecIhEENSt3__18functionIFvRKNS2_4V1_016SupplicantStatusEEEE"
  },
  {
   "name" : "_ZN7android8hardware4wifi10supplicant4V1_224BpHwSupplicantStaNetwork23setEapDomainSuffixMatchERKNS0_11hidl_stringENSt3__18functionIFvRKNS2_4V1_016SupplicantStatusEEEE"
  },
  {
   "name" : "_ZN7android8hardware4wifi10supplicant4V1_224BpHwSupplicantStaNetwork24_hidl_getGroupCipher_1_2EPNS0_10IInterfaceEPNS0_7details16HidlInstrumentorENSt3__18functionIFvRKNS2_4V1_016SupplicantStatusEjEEE"
  },
  {
   "name" : "_ZN7android8hardware4wifi10supplicant4V1_224BpHwSupplicantStaNetwork24_hidl_getGroupMgmtCipherEPNS0_10IInterfaceEPNS0_7details16HidlInstrumentorENSt3__18functionIFvRKNS2_4V1_016SupplicantStatusEjEEE"
  },
  {
   "name" : "_ZN7android8hardware4wifi10supplicant4V1_224BpHwSupplicantStaNetwork24_hidl_setGroupCipher_1_2EPNS0_10IInterfaceEPNS0_7details16HidlInstrumentorEjNSt3__18functionIFvRKNS2_4V1_016SupplicantStatusEEEE"
  },
  {
   "name" : "_ZN7android8hardware4wifi10supplicant4V1_224BpHwSupplicantStaNetwork24_hidl_setGroupMgmtCipherEPNS0_10IInterfaceEPNS0_7details16HidlInstrumentorEjNSt3__18functionIFvRKNS2_4V1_016SupplicantStatusEEEE"
  },
  {
   "name" : "_ZN7android8hardware4wifi10supplicant4V1_224BpHwSupplicantStaNetwork27_hidl_getPairwiseCipher_1_2EPNS0_10IInterfaceEPNS0_7details16HidlInstrumentorENSt3__18functionIFvRKNS2_4V1_016SupplicantStatusEjEEE"
  },
  {
   "name" : "_ZN7android8hardware4wifi10supplicant4V1_224BpHwSupplicantStaNetwork27_hidl_setPairwiseCipher_1_2EPNS0_10IInterfaceEPNS0_7details16HidlInstrumentorEjNSt3__18functionIFvRKNS2_4V1_016SupplicantStatusEEEE"
  },
  {
   "name" : "_ZN7android8hardware4wifi10supplicant4V1_224BpHwSupplicantStaNetwork27getWpsNfcConfigurationTokenENSt3__18functionIFvRKNS2_4V1_016SupplicantStatusERKNS0_8hidl_vecIhEEEEE"
  },
  {
   "name" : "_ZN7android8hardware4wifi10supplicant4V1_224BpHwSupplicantStaNetwork27setEapEncryptedImsiIdentityERKNS0_8hidl_vecIhEENSt3__18functionIFvRKNS2_4V1_016SupplicantStatusEEEE"
  },
  {
   "name" : "_ZN7android8hardware4wifi10supplicant4V1_224BpHwSupplicantStaNetwork29enableSuiteBEapOpenSslCiphersENSt3__18functionIFvRKNS2_4V1_016SupplicantStatusEEEE"
  },
  {
   "name" : "_ZN7android8hardware4wifi10supplicant4V1_224BpHwSupplicantStaNetwork29enableTlsSuiteBEapPhase1ParamEbNSt3__18functionIFvRKNS2_4V1_016SupplicantStatusEEEE"
  },
  {
   "name" : "_ZN7android8hardware4wifi10supplicant4V1_224BpHwSupplicantStaNetwork30sendNetworkEapIdentityResponseERKNS0_8hidl_vecIhEENSt3__18functionIFvRKNS2_4V1_016SupplicantStatusEEEE"
  },
  {
   "name" : "_ZN7android8hardware4wifi10supplicant4V1_224BpHwSupplicantStaNetwork31sendNetworkEapSimGsmAuthFailureENSt3__18functionIFvRKNS2_4V1_016SupplicantStatusEEEE"
  },
  {
   "name" : "_ZN7android8hardware4wifi10supplicant4V1_224BpHwSupplicantStaNetwork32sendNetworkEapSimGsmAuthResponseERKNS0_8hidl_vecINS2_4V1_021ISupplicantStaNetwork34NetworkResponseEapSimGsmAuthParamsEEENSt3__18functionIFvRKNS6_16SupplicantStatusEEEE"
  },
  {
   "name" : "_ZN7android8hardware4wifi10supplicant4V1_224BpHwSupplicantStaNetwork32sendNetworkEapSimUmtsAuthFailureENSt3__18functionIFvRKNS2_4V1_016SupplicantStatusEEEE"
  },
  {
   "name" : "_ZN7android8hardware4wifi10supplicant4V1_224BpHwSupplicantStaNetwork33sendNetworkEapSimUmtsAuthResponseERKNS2_4V1_021ISupplicantStaNetwork35NetworkResponseEapSimUmtsAuthParamsENSt3__18functionIFvRKNS5_16SupplicantStatusEEEE"
  },
  {
   "name" : "_ZN7android8hardware4wifi10supplicant4V1_224BpHwSupplicantStaNetwork33sendNetworkEapSimUmtsAutsResponseERKNS0_10hidl_arrayIhLj14EJEEENSt3__18functionIFvRKNS2_4V1_016SupplicantStatusEEEE"
  },
  {
   "name" : "_ZN7android8hardware4wifi10supplicant4V1_224BpHwSupplicantStaNetwork34sendNetworkEapIdentityResponse_1_1ERKNS0_8hidl_vecIhEES8_NSt3__18functionIFvRKNS2_4V1_016SupplicantStatusEEEE"
  },
  {
   "name" : "_ZN7android8hardware4wifi10supplicant4V1_224BpHwSupplicantStaNetwork35_hidl_enableSuiteBEapOpenSslCiphersEPNS0_10IInterfaceEPNS0_7details16HidlInstrumentorENSt3__18functionIFvRKNS2_4V1_016SupplicantStatusEEEE"
  },
  {
   "name" : "_ZN7android8hardware4wifi10supplicant4V1_224BpHwSupplicantStaNetwork35_hidl_enableTlsSuiteBEapPhase1ParamEPNS0_10IInterfaceEPNS0_7details16HidlInstrumentorEbNSt3__18functionIFvRKNS2_4V1_016SupplicantStatusEEEE"
  },
  {
   "name" : "_ZN7android8hardware4wifi10supplicant4V1_224BpHwSupplicantStaNetwork4pingEv"
  },
  {
   "name" : "_ZN7android8hardware4wifi10supplicant4V1_224BpHwSupplicantStaNetwork5debugERKNS0_11hidl_handleERKNS0_8hidl_vecINS0_11hidl_stringEEE"
  },
  {
   "name" : "_ZN7android8hardware4wifi10supplicant4V1_224BpHwSupplicantStaNetwork5getIdENSt3__18functionIFvRKNS2_4V1_016SupplicantStatusEjEEE"
  },
  {
   "name" : "_ZN7android8hardware4wifi10supplicant4V1_224BpHwSupplicantStaNetwork6enableEbNSt3__18functionIFvRKNS2_4V1_016SupplicantStatusEEEE"
  },
  {
   "name" : "_ZN7android8hardware4wifi10supplicant4V1_224BpHwSupplicantStaNetwork6getPskENSt3__18functionIFvRKNS2_4V1_016SupplicantStatusERKNS0_10hidl_arrayIhLj32EJEEEEEE"
  },
  {
   "name" : "_ZN7android8hardware4wifi10supplicant4V1_224BpHwSupplicantStaNetwork6selectENSt3__18functionIFvRKNS2_4V1_016SupplicantStatusEEEE"
  },
  {
   "name" : "_ZN7android8hardware4wifi10supplicant4V1_224BpHwSupplicantStaNetwork6setPskERKNS0_10hidl_arrayIhLj32EJEEENSt3__18functionIFvRKNS2_4V1_016SupplicantStatusEEEE"
  },
  {
   "name" : "_ZN7android8hardware4wifi10supplicant4V1_224BpHwSupplicantStaNetwork7disableENSt3__18functionIFvRKNS2_4V1_016SupplicantStatusEEEE"
  },
  {
   "name" : "_ZN7android8hardware4wifi10supplicant4V1_224BpHwSupplicantStaNetwork7getSsidENSt3__18functionIFvRKNS2_4V1_016SupplicantStatusERKNS0_8hidl_vecIhEEEEE"
  },
  {
   "name" : "_ZN7android8hardware4wifi10supplicant4V1_224BpHwSupplicantStaNetwork7getTypeENSt3__18functionIFvRKNS2_4V1_016SupplicantStatusENS7_9IfaceTypeEEEE"
  },
  {
   "name" : "_ZN7android8hardware4wifi10supplicant4V1_224BpHwSupplicantStaNetwork7setSsidERKNS0_8hidl_vecIhEENSt3__18functionIFvRKNS2_4V1_016SupplicantStatusEEEE"
  },
  {
   "name" : "_ZN7android8hardware4wifi10supplicant4V1_224BpHwSupplicantStaNetwork8getBssidENSt3__18functionIFvRKNS2_4V1_016SupplicantStatusERKNS0_10hidl_arrayIhLj6EJEEEEEE"
  },
  {
   "name" : "_ZN7android8hardware4wifi10supplicant4V1_224BpHwSupplicantStaNetwork8getIdStrENSt3__18functionIFvRKNS2_4V1_016SupplicantStatusERKNS0_11hidl_stringEEEE"
  },
  {
   "name" : "_ZN7android8hardware4wifi10supplicant4V1_224BpHwSupplicantStaNetwork8getProtoENSt3__18functionIFvRKNS2_4V1_016SupplicantStatusEjEEE"
  },
  {
   "name" : "_ZN7android8hardware4wifi10supplicant4V1_224BpHwSupplicantStaNetwork8setBssidERKNS0_10hidl_arrayIhLj6EJEEENSt3__18functionIFvRKNS2_4V1_016SupplicantStatusEEEE"
  },
  {
   "name" : "_ZN7android8hardware4wifi10supplicant4V1_224BpHwSupplicantStaNetwork8setIdStrERKNS0_11hidl_stringENSt3__18functionIFvRKNS2_4V1_016SupplicantStatusEEEE"
  },
  {
   "name" : "_ZN7android8hardware4wifi10supplicant4V1_224BpHwSupplicantStaNetwork8setProtoEjNSt3__18functionIFvRKNS2_4V1_016SupplicantStatusEEEE"
  },
  {
   "name" : "_ZN7android8hardware4wifi10supplicant4V1_224BpHwSupplicantStaNetwork9getWepKeyEjNSt3__18functionIFvRKNS2_4V1_016SupplicantStatusERKNS0_8hidl_vecIhEEEEE"
  },
  {
   "name" : "_ZN7android8hardware4wifi10supplicant4V1_224BpHwSupplicantStaNetwork9setWepKeyEjRKNS0_8hidl_vecIhEENSt3__18functionIFvRKNS2_4V1_016SupplicantStatusEEEE"
  },
  {
   "name" : "_ZN7android8hardware4wifi10supplicant4V1_224BpHwSupplicantStaNetworkC1ERKNS_2spINS0_7IBinderEEE"
  },
  {
   "name" : "_ZN7android8hardware4wifi10supplicant4V1_224BpHwSupplicantStaNetworkC2ERKNS_2spINS0_7IBinderEEE"
  },
  {
   "name" : "_ZN7android8hardware4wifi10supplicant4V1_227ISupplicantStaIfaceCallback10getServiceERKNSt3__112basic_stringIcNS5_11char_traitsIcEENS5_9allocatorIcEEEEb"
  },
  {
   "name" : "_ZN7android8hardware4wifi10supplicant4V1_227ISupplicantStaIfaceCallback11linkToDeathERKNS_2spINS0_20hidl_death_recipientEEEy"
  },
  {
   "name" : "_ZN7android8hardware4wifi10supplicant4V1_227ISupplicantStaIfaceCallback12getDebugInfoENSt3__18functionIFvRKNS_4hidl4base4V1_09DebugInfoEEEE"
  },
  {
   "name" : "_ZN7android8hardware4wifi10supplicant4V1_227ISupplicantStaIfaceCallback12getHashChainENSt3__18functionIFvRKNS0_8hidl_vecINS0_10hidl_arrayIhLj32EJEEEEEEEE"
  },
  {
   "name" : "_ZN7android8hardware4wifi10supplicant4V1_227ISupplicantStaIfaceCallback13tryGetServiceERKNSt3__112basic_stringIcNS5_11char_traitsIcEENS5_9allocatorIcEEEEb"
  },
  {
   "name" : "_ZN7android8hardware4wifi10supplicant4V1_227ISupplicantStaIfaceCallback13unlinkToDeathERKNS_2spINS0_20hidl_death_recipientEEE"
  },
  {
   "name" : "_ZN7android8hardware4wifi10supplicant4V1_227ISupplicantStaIfaceCallback14interfaceChainENSt3__18functionIFvRKNS0_8hidl_vecINS0_11hidl_stringEEEEEE"
  },
  {
   "name" : "_ZN7android8hardware4wifi10supplicant4V1_227ISupplicantStaIfaceCallback17registerAsServiceERKNSt3__112basic_stringIcNS5_11char_traitsIcEENS5_9allocatorIcEEEE"
  },
  {
   "name" : "_ZN7android8hardware4wifi10supplicant4V1_227ISupplicantStaIfaceCallback19interfaceDescriptorENSt3__18functionIFvRKNS0_11hidl_stringEEEE"
  },
  {
   "name" : "_ZN7android8hardware4wifi10supplicant4V1_227ISupplicantStaIfaceCallback21notifySyspropsChangedEv"
  },
  {
   "name" : "_ZN7android8hardware4wifi10supplicant4V1_227ISupplicantStaIfaceCallback21setHALInstrumentationEv"
  },
  {
   "name" : "_ZN7android8hardware4wifi10supplicant4V1_227ISupplicantStaIfaceCallback24registerForNotificationsERKNSt3__112basic_stringIcNS5_11char_traitsIcEENS5_9allocatorIcEEEERKNS_2spINS_4hidl7manager4V1_020IServiceNotificationEEE"
  },
  {
   "name" : "_ZN7android8hardware4wifi10supplicant4V1_227ISupplicantStaIfaceCallback4pingEv"
  },
  {
   "name" : "_ZN7android8hardware4wifi10supplicant4V1_227ISupplicantStaIfaceCallback5debugERKNS0_11hidl_handleERKNS0_8hidl_vecINS0_11hidl_stringEEE"
  },
  {
   "name" : "_ZN7android8hardware4wifi10supplicant4V1_227ISupplicantStaIfaceCallback8castFromERKNS_2spINS2_4V1_027ISupplicantStaIfaceCallbackEEEb"
  },
  {
   "name" : "_ZN7android8hardware4wifi10supplicant4V1_227ISupplicantStaIfaceCallback8castFromERKNS_2spINS2_4V1_127ISupplicantStaIfaceCallbackEEEb"
  },
  {
   "name" : "_ZN7android8hardware4wifi10supplicant4V1_227ISupplicantStaIfaceCallback8castFromERKNS_2spINS_4hidl4base4V1_05IBaseEEEb"
  },
  {
   "name" : "_ZN7android8hardware4wifi10supplicant4V1_227ISupplicantStaIfaceCallback8castFromERKNS_2spIS4_EEb"
  },
  {
   "name" : "_ZN7android8hardware4wifi10supplicant4V1_228BsSupplicantStaIfaceCallback13addOnewayTaskENSt3__18functionIFvvEEE"
  },
  {
   "name" : "_ZN7android8hardware4wifi10supplicant4V1_228BsSupplicantStaIfaceCallbackC1ENS_2spINS3_27ISupplicantStaIfaceCallbackEEE"
  },
  {
   "name" : "_ZN7android8hardware4wifi10supplicant4V1_228BsSupplicantStaIfaceCallbackC2ENS_2spINS3_27ISupplicantStaIfaceCallbackEEE"
  },
  {
   "name" : "_ZN7android8hardware4wifi10supplicant4V1_230BnHwSupplicantStaIfaceCallback10onTransactEjRKNS0_6ParcelEPS5_jNSt3__18functionIFvRS5_EEE"
  },
  {
   "name" : "_ZN7android8hardware4wifi10supplicant4V1_230BnHwSupplicantStaIfaceCallback12getDebugInfoENSt3__18functionIFvRKNS_4hidl4base4V1_09DebugInfoEEEE"
  },
  {
   "name" : "_ZN7android8hardware4wifi10supplicant4V1_230BnHwSupplicantStaIfaceCallback18_hidl_onDppFailureEPNS_4hidl4base4V1_08BnHwBaseERKNS0_6ParcelEPSA_NSt3__18functionIFvRSA_EEE"
  },
  {
   "name" : "_ZN7android8hardware4wifi10supplicant4V1_230BnHwSupplicantStaIfaceCallback19_hidl_onDppProgressEPNS_4hidl4base4V1_08BnHwBaseERKNS0_6ParcelEPSA_NSt3__18functionIFvRSA_EEE"
  },
  {
   "name" : "_ZN7android8hardware4wifi10supplicant4V1_230BnHwSupplicantStaIfaceCallback28_hidl_onDppSuccessConfigSentEPNS_4hidl4base4V1_08BnHwBaseERKNS0_6ParcelEPSA_NSt3__18functionIFvRSA_EEE"
  },
  {
   "name" : "_ZN7android8hardware4wifi10supplicant4V1_230BnHwSupplicantStaIfaceCallback32_hidl_onDppSuccessConfigReceivedEPNS_4hidl4base4V1_08BnHwBaseERKNS0_6ParcelEPSA_NSt3__18functionIFvRSA_EEE"
  },
  {
   "name" : "_ZN7android8hardware4wifi10supplicant4V1_230BnHwSupplicantStaIfaceCallback4pingEv"
  },
  {
   "name" : "_ZN7android8hardware4wifi10supplicant4V1_230BnHwSupplicantStaIfaceCallbackC1ERKNS_2spINS3_27ISupplicantStaIfaceCallbackEEE"
  },
  {
   "name" : "_ZN7android8hardware4wifi10supplicant4V1_230BnHwSupplicantStaIfaceCallbackC2ERKNS_2spINS3_27ISupplicantStaIfaceCallbackEEE"
  },
  {
   "name" : "_ZN7android8hardware4wifi10supplicant4V1_230BnHwSupplicantStaIfaceCallbackD0Ev"
  },
  {
   "name" : "_ZN7android8hardware4wifi10supplicant4V1_230BnHwSupplicantStaIfaceCallbackD1Ev"
  },
  {
   "name" : "_ZN7android8hardware4wifi10supplicant4V1_230BnHwSupplicantStaIfaceCallbackD2Ev"
  },
  {
   "name" : "_ZN7android8hardware4wifi10supplicant4V1_230BpHwSupplicantStaIfaceCallback11linkToDeathERKNS_2spINS0_20hidl_death_recipientEEEy"
  },
  {
   "name" : "_ZN7android8hardware4wifi10supplicant4V1_230BpHwSupplicantStaIfaceCallback12getDebugInfoENSt3__18functionIFvRKNS_4hidl4base4V1_09DebugInfoEEEE"
  },
  {
   "name" : "_ZN7android8hardware4wifi10supplicant4V1_230BpHwSupplicantStaIfaceCallback12getHashChainENSt3__18functionIFvRKNS0_8hidl_vecINS0_10hidl_arrayIhLj32EJEEEEEEEE"
  },
  {
   "name" : "_ZN7android8hardware4wifi10supplicant4V1_230BpHwSupplicantStaIfaceCallback12onDppFailureENS3_14DppFailureCodeE"
  },
  {
   "name" : "_ZN7android8hardware4wifi10supplicant4V1_230BpHwSupplicantStaIfaceCallback12onEapFailureEv"
  },
  {
   "name" : "_ZN7android8hardware4wifi10supplicant4V1_230BpHwSupplicantStaIfaceCallback13onDppProgressENS3_15DppProgressCodeE"
  },
  {
   "name" : "_ZN7android8hardware4wifi10supplicant4V1_230BpHwSupplicantStaIfaceCallback13unlinkToDeathERKNS_2spINS0_20hidl_death_recipientEEE"
  },
  {
   "name" : "_ZN7android8hardware4wifi10supplicant4V1_230BpHwSupplicantStaIfaceCallback14interfaceChainENSt3__18functionIFvRKNS0_8hidl_vecINS0_11hidl_stringEEEEEE"
  },
  {
   "name" : "_ZN7android8hardware4wifi10supplicant4V1_230BpHwSupplicantStaIfaceCallback14onBssidChangedENS2_4V1_027ISupplicantStaIfaceCallback17BssidChangeReasonERKNS0_10hidl_arrayIhLj6EJEEE"
  },
  {
   "name" : "_ZN7android8hardware4wifi10supplicant4V1_230BpHwSupplicantStaIfaceCallback14onDisconnectedERKNS0_10hidl_arrayIhLj6EJEEEbNS2_4V1_027ISupplicantStaIfaceCallback10ReasonCodeE"
  },
  {
   "name" : "_ZN7android8hardware4wifi10supplicant4V1_230BpHwSupplicantStaIfaceCallback14onNetworkAddedEj"
  },
  {
   "name" : "_ZN7android8hardware4wifi10supplicant4V1_230BpHwSupplicantStaIfaceCallback14onStateChangedENS2_4V1_027ISupplicantStaIfaceCallback5StateERKNS0_10hidl_arrayIhLj6EJEEEjRKNS0_8hidl_vecIhEE"
  },
  {
   "name" : "_ZN7android8hardware4wifi10supplicant4V1_230BpHwSupplicantStaIfaceCallback14onWpsEventFailERKNS0_10hidl_arrayIhLj6EJEEENS2_4V1_027ISupplicantStaIfaceCallback14WpsConfigErrorENSA_18WpsErrorIndicationE"
  },
  {
   "name" : "_ZN7android8hardware4wifi10supplicant4V1_230BpHwSupplicantStaIfaceCallback15onAnqpQueryDoneERKNS0_10hidl_arrayIhLj6EJEEERKNS2_4V1_027ISupplicantStaIfaceCallback8AnqpDataERKNSA_12Hs20AnqpDataE"
  },
  {
   "name" : "_ZN7android8hardware4wifi10supplicant4V1_230BpHwSupplicantStaIfaceCallback16onEapFailure_1_1ENS2_4V1_127ISupplicantStaIfaceCallback12EapErrorCodeE"
  },
  {
   "name" : "_ZN7android8hardware4wifi10supplicant4V1_230BpHwSupplicantStaIfaceCallback16onNetworkRemovedEj"
  },
  {
   "name" : "_ZN7android8hardware4wifi10supplicant4V1_230BpHwSupplicantStaIfaceCallback17onWpsEventSuccessEv"
  },
  {
   "name" : "_ZN7android8hardware4wifi10supplicant4V1_230BpHwSupplicantStaIfaceCallback18_hidl_onDppFailureEPNS0_10IInterfaceEPNS0_7details16HidlInstrumentorENS3_14DppFailureCodeE"
  },
  {
   "name" : "_ZN7android8hardware4wifi10supplicant4V1_230BpHwSupplicantStaIfaceCallback19_hidl_onDppProgressEPNS0_10IInterfaceEPNS0_7details16HidlInstrumentorENS3_15DppProgressCodeE"
  },
  {
   "name" : "_ZN7android8hardware4wifi10supplicant4V1_230BpHwSupplicantStaIfaceCallback19interfaceDescriptorENSt3__18functionIFvRKNS0_11hidl_stringEEEE"
  },
  {
   "name" : "_ZN7android8hardware4wifi10supplicant4V1_230BpHwSupplicantStaIfaceCallback19onExtRadioWorkStartEj"
  },
  {
   "name" : "_ZN7android8hardware4wifi10supplicant4V1_230BpHwSupplicantStaIfaceCallback19onHs20IconQueryDoneERKNS0_10hidl_arrayIhLj6EJEEERKNS0_11hidl_stringERKNS0_8hidl_vecIhEE"
  },
  {
   "name" : "_ZN7android8hardware4wifi10supplicant4V1_230BpHwSupplicantStaIfaceCallback20onWpsEventPbcOverlapEv"
  },
  {
   "name" : "_ZN7android8hardware4wifi10supplicant4V1_230BpHwSupplicantStaIfaceCallback21notifySyspropsChangedEv"
  },
  {
   "name" : "_ZN7android8hardware4wifi10supplicant4V1_230BpHwSupplicantStaIfaceCallback21onAssociationRejectedERKNS0_10hidl_arrayIhLj6EJEEENS2_4V1_027ISupplicantStaIfaceCallback10StatusCodeEb"
  },
  {
   "name" : "_ZN7android8hardware4wifi10supplicant4V1_230BpHwSupplicantStaIfaceCallback21onExtRadioWorkTimeoutEj"
  },
  {
   "name" : "_ZN7android8hardware4wifi10supplicant4V1_230BpHwSupplicantStaIfaceCallback21setHALInstrumentationEv"
  },
  {
   "name" : "_ZN7android8hardware4wifi10supplicant4V1_230BpHwSupplicantStaIfaceCallback22onDppSuccessConfigSentEv"
  },
  {
   "name" : "_ZN7android8hardware4wifi10supplicant4V1_230BpHwSupplicantStaIfaceCallback23onAuthenticationTimeoutERKNS0_10hidl_arrayIhLj6EJEEE"
  },
  {
   "name" : "_ZN7android8hardware4wifi10supplicant4V1_230BpHwSupplicantStaIfaceCallback26onDppSuccessConfigReceivedERKNS0_8hidl_vecIhEERKNS0_11hidl_stringERKNS0_10hidl_arrayIhLj32EJEEENS3_6DppAkmE"
  },
  {
   "name" : "_ZN7android8hardware4wifi10supplicant4V1_230BpHwSupplicantStaIfaceCallback26onHs20DeauthImminentNoticeERKNS0_10hidl_arrayIhLj6EJEEEjjRKNS0_11hidl_stringE"
  },
  {
   "name" : "_ZN7android8hardware4wifi10supplicant4V1_230BpHwSupplicantStaIfaceCallback28_hidl_onDppSuccessConfigSentEPNS0_10IInterfaceEPNS0_7details16HidlInstrumentorE"
  },
  {
   "name" : "_ZN7android8hardware4wifi10supplicant4V1_230BpHwSupplicantStaIfaceCallback29onHs20SubscriptionRemediationERKNS0_10hidl_arrayIhLj6EJEEENS2_4V1_027ISupplicantStaIfaceCallback9OsuMethodERKNS0_11hidl_stringE"
  },
  {
   "name" : "_ZN7android8hardware4wifi10supplicant4V1_230BpHwSupplicantStaIfaceCallback32_hidl_onDppSuccessConfigReceivedEPNS0_10IInterfaceEPNS0_7details16HidlInstrumentorERKNS0_8hidl_vecIhEERKNS0_11hidl_stringERKNS0_10hidl_arrayIhLj32EJEEENS3_6DppAkmE"
  },
  {
   "name" : "_ZN7android8hardware4wifi10supplicant4V1_230BpHwSupplicantStaIfaceCallback4pingEv"
  },
  {
   "name" : "_ZN7android8hardware4wifi10supplicant4V1_230BpHwSupplicantStaIfaceCallback5debugERKNS0_11hidl_handleERKNS0_8hidl_vecINS0_11hidl_stringEEE"
  },
  {
   "name" : "_ZN7android8hardware4wifi10supplicant4V1_230BpHwSupplicantStaIfaceCallbackC1ERKNS_2spINS0_7IBinderEEE"
  },
  {
   "name" : "_ZN7android8hardware4wifi10supplicant4V1_230BpHwSupplicantStaIfaceCallbackC2ERKNS_2spINS0_7IBinderEEE"
  },
  {
   "binding" : "weak",
   "name" : "_ZN7android8hardware7details13castInterfaceINS0_4wifi10supplicant4V1_211ISupplicantENS4_4V1_011ISupplicantENS5_14BpHwSupplicantEEENS0_6ReturnINS_2spIT_EEEENSB_IT0_EEPKcb"
  },
  {
   "binding" : "weak",
   "name" : "_ZN7android8hardware7details13castInterfaceINS0_4wifi10supplicant4V1_211ISupplicantENS4_4V1_111ISupplicantENS5_14BpHwSupplicantEEENS0_6ReturnINS_2spIT_EEEENSB_IT0_EEPKcb"
  },
  {
   "binding" : "weak",
   "name" : "_ZN7android8hardware7details13castInterfaceINS0_4wifi10supplicant4V1_211ISupplicantENS_4hidl4base4V1_05IBaseENS5_14BpHwSupplicantEEENS0_6ReturnINS_2spIT_EEEENSD_IT0_EEPKcb"
  },
  {
   "binding" : "weak",
   "name" : "_ZN7android8hardware7details13castInterfaceINS0_4wifi10supplicant4V1_219ISupplicantP2pIfaceENS4_4V1_016ISupplicantIfaceENS5_22BpHwSupplicantP2pIfaceEEENS0_6ReturnINS_2spIT_EEEENSB_IT0_EEPKcb"
  },
  {
   "binding" : "weak",
   "name" : "_ZN7android8hardware7details13castInterfaceINS0_4wifi10supplicant4V1_219ISupplicantP2pIfaceENS4_4V1_019ISupplicantP2pIfaceENS5_22BpHwSupplicantP2pIfaceEEENS0_6ReturnINS_2spIT_EEEENSB_IT0_EEPKcb"
  },
  {
   "binding" : "weak",
   "name" : "_ZN7android8hardware7details13castInterfaceINS0_4wifi10supplicant4V1_219ISupplicantP2pIfaceENS_4hidl4base4V1_05IBaseENS5_22BpHwSupplicantP2pIfaceEEENS0_6ReturnINS_2spIT_EEEENSD_IT0_EEPKcb"
  },
  {
   "binding" : "weak",
   "name" : "_ZN7android8hardware7details13castInterfaceINS0_4wifi10supplicant4V1_219ISupplicantStaIfaceENS4_4V1_016ISupplicantIfaceENS5_22BpHwSupplicantStaIfaceEEENS0_6ReturnINS_2spIT_EEEENSB_IT0_EEPKcb"
  },
  {
   "binding" : "weak",
   "name" : "_ZN7android8hardware7details13castInterfaceINS0_4wifi10supplicant4V1_219ISupplicantStaIfaceENS4_4V1_019ISupplicantStaIfaceENS5_22BpHwSupplicantStaIfaceEEENS0_6ReturnINS_2spIT_EEEENSB_IT0_EEPKcb"
  },
  {
   "binding" : "weak",
   "name" : "_ZN7android8hardware7details13castInterfaceINS0_4wifi10supplicant4V1_219ISupplicantStaIfaceENS4_4V1_119ISupplicantStaIfaceENS5_22BpHwSupplicantStaIfaceEEENS0_6ReturnINS_2spIT_EEEENSB_IT0_EEPKcb"
  },
  {
   "binding" : "weak",
   "name" : "_ZN7android8hardware7details13castInterfaceINS0_4wifi10supplicant4V1_219ISupplicantStaIfaceENS_4hidl4base4V1_05IBaseENS5_22BpHwSupplicantStaIfaceEEENS0_6ReturnINS_2spIT_EEEENSD_IT0_EEPKcb"
  },
  {
   "binding" : "weak",
   "name" : "_ZN7android8hardware7details13castInterfaceINS0_4wifi10supplicant4V1_221ISupplicantStaNetworkENS4_4V1_018ISupplicantNetworkENS5_24BpHwSupplicantStaNetworkEEENS0_6ReturnINS_2spIT_EEEENSB_IT0_EEPKcb"
  },
  {
   "binding" : "weak",
   "name" : "_ZN7android8hardware7details13castInterfaceINS0_4wifi10supplicant4V1_221ISupplicantStaNetworkENS4_4V1_021ISupplicantStaNetworkENS5_24BpHwSupplicantStaNetworkEEENS0_6ReturnINS_2spIT_EEEENSB_IT0_EEPKcb"
  },
  {
   "binding" : "weak",
   "name" : "_ZN7android8hardware7details13castInterfaceINS0_4wifi10supplicant4V1_221ISupplicantStaNetworkENS4_4V1_121ISupplicantStaNetworkENS5_24BpHwSupplicantStaNetworkEEENS0_6ReturnINS_2spIT_EEEENSB_IT0_EEPKcb"
  },
  {
   "binding" : "weak",
   "name" : "_ZN7android8hardware7details13castInterfaceINS0_4wifi10supplicant4V1_221ISupplicantStaNetworkENS_4hidl4base4V1_05IBaseENS5_24BpHwSupplicantStaNetworkEEENS0_6ReturnINS_2spIT_EEEENSD_IT0_EEPKcb"
  },
  {
   "binding" : "weak",
   "name" : "_ZN7android8hardware7details13castInterfaceINS0_4wifi10supplicant4V1_227ISupplicantStaIfaceCallbackENS4_4V1_027ISupplicantStaIfaceCallbackENS5_30BpHwSupplicantStaIfaceCallbackEEENS0_6ReturnINS_2spIT_EEEENSB_IT0_EEPKcb"
  },
  {
   "binding" : "weak",
   "name" : "_ZN7android8hardware7details13castInterfaceINS0_4wifi10supplicant4V1_227ISupplicantStaIfaceCallbackENS4_4V1_127ISupplicantStaIfaceCallbackENS5_30BpHwSupplicantStaIfaceCallbackEEENS0_6ReturnINS_2spIT_EEEENSB_IT0_EEPKcb"
  },
  {
   "binding" : "weak",
   "name" : "_ZN7android8hardware7details13castInterfaceINS0_4wifi10supplicant4V1_227ISupplicantStaIfaceCallbackENS_4hidl4base4V1_05IBaseENS5_30BpHwSupplicantStaIfaceCallbackEEENS0_6ReturnINS_2spIT_EEEENSD_IT0_EEPKcb"
  },
  {
   "binding" : "weak",
   "name" : "_ZN7android8hardware7details15wrapPassthroughINS0_4wifi10supplicant4V1_016ISupplicantIfaceEvEENS_2spIT_EES9_"
  },
  {
   "binding" : "weak",
   "name" : "_ZN7android8hardware7details15wrapPassthroughINS0_4wifi10supplicant4V1_018ISupplicantNetworkEvEENS_2spIT_EES9_"
  },
  {
   "binding" : "weak",
   "name" : "_ZN7android8hardware7details15wrapPassthroughINS0_4wifi10supplicant4V1_019ISupplicantCallbackEvEENS_2spIT_EES9_"
  },
  {
   "binding" : "weak",
   "name" : "_ZN7android8hardware7details15wrapPassthroughINS0_4wifi10supplicant4V1_027ISupplicantP2pIfaceCallbackEvEENS_2spIT_EES9_"
  },
  {
   "binding" : "weak",
   "name" : "_ZN7android8hardware7details15wrapPassthroughINS0_4wifi10supplicant4V1_027ISupplicantStaIfaceCallbackEvEENS_2spIT_EES9_"
  },
  {
   "binding" : "weak",
   "name" : "_ZN7android8hardware7details15wrapPassthroughINS0_4wifi10supplicant4V1_029ISupplicantStaNetworkCallbackEvEENS_2spIT_EES9_"
  },
  {
   "binding" : "weak",
   "name" : "_ZN7android8hardware7details15wrapPassthroughINS0_4wifi10supplicant4V1_127ISupplicantStaIfaceCallbackEvEENS_2spIT_EES9_"
  },
  {
   "binding" : "weak",
   "name" : "_ZN7android8hardware7details15wrapPassthroughINS0_4wifi10supplicant4V1_227ISupplicantStaIfaceCallbackEvEENS_2spIT_EES9_"
  },
  {
   "binding" : "weak",
   "name" : "_ZN7android8hardware7details18getServiceInternalINS0_4wifi10supplicant4V1_214BpHwSupplicantENS5_11ISupplicantEvvEENS_2spIT0_EERKNSt3__112basic_stringIcNSB_11char_traitsIcEENSB_9allocatorIcEEEEbb"
  },
  {
   "binding" : "weak",
   "name" : "_ZN7android8hardware7details18getServiceInternalINS0_4wifi10supplicant4V1_222BpHwSupplicantP2pIfaceENS5_19ISupplicantP2pIfaceEvvEENS_2spIT0_EERKNSt3__112basic_stringIcNSB_11char_traitsIcEENSB_9allocatorIcEEEEbb"
  },
  {
   "binding" : "weak",
   "name" : "_ZN7android8hardware7details18getServiceInternalINS0_4wifi10supplicant4V1_222BpHwSupplicantStaIfaceENS5_19ISupplicantStaIfaceEvvEENS_2spIT0_EERKNSt3__112basic_stringIcNSB_11char_traitsIcEENSB_9allocatorIcEEEEbb"
  },
  {
   "binding" : "weak",
   "name" : "_ZN7android8hardware7details18getServiceInternalINS0_4wifi10supplicant4V1_224BpHwSupplicantStaNetworkENS5_21ISupplicantStaNetworkEvvEENS_2spIT0_EERKNSt3__112basic_stringIcNSB_11char_traitsIcEENSB_9allocatorIcEEEEbb"
  },
  {
   "binding" : "weak",
   "name" : "_ZN7android8hardware7details18getServiceInternalINS0_4wifi10supplicant4V1_230BpHwSupplicantStaIfaceCallbackENS5_27ISupplicantStaIfaceCallbackEvvEENS_2spIT0_EERKNSt3__112basic_stringIcNSB_11char_traitsIcEENSB_9allocatorIcEEEEbb"
  },
  {
   "binding" : "weak",
   "name" : "_ZNSt3__113__tree_removeIPNS_16__tree_node_baseIPvEEEEvT_S5_"
  },
  {
   "binding" : "weak",
   "name" : "_ZNSt3__127__tree_balance_after_insertIPNS_16__tree_node_baseIPvEEEEvT_S5_"
  },
  {
   "binding" : "weak",
   "name" : "_ZNSt3__16__treeINS_12__value_typeINS_12basic_stringIcNS_11char_traitsIcEENS_9allocatorIcEEEENS_8functionIFN7android2spINS9_4hidl4base4V1_05IBaseEEEPvEEEEENS_19__map_value_compareIS7_SJ_NS_4lessIS7_EELb1EEENS5_ISJ_EEE12__find_equalIS7_EERPNS_16__tree_node_baseISG_EERPNS_15__tree_end_nodeIST_EERKT_"
  },
  {
   "binding" : "weak",
   "name" : "_ZNSt3__16__treeINS_12__value_typeINS_12basic_stringIcNS_11char_traitsIcEENS_9allocatorIcEEEENS_8functionIFN7android2spINS9_4hidl4base4V1_05IBaseEEEPvEEEEENS_19__map_value_compareIS7_SJ_NS_4lessIS7_EELb1EEENS5_ISJ_EEE4findIS7_EENS_15__tree_iteratorISJ_PNS_11__tree_nodeISJ_SG_EEiEERKT_"
  },
  {
   "binding" : "weak",
   "name" : "_ZNSt3__16__treeINS_12__value_typeINS_12basic_stringIcNS_11char_traitsIcEENS_9allocatorIcEEEENS_8functionIFN7android2spINS9_4hidl4base4V1_05IBaseEEEPvEEEEENS_19__map_value_compareIS7_SJ_NS_4lessIS7_EELb1EEENS5_ISJ_EEE5eraseENS_21__tree_const_iteratorISJ_PNS_11__tree_nodeISJ_SG_EEiEE"
  },
  {
   "binding" : "weak",
   "name" : "_ZNSt3__16__treeINS_12__value_typeINS_12basic_stringIcNS_11char_traitsIcEENS_9allocatorIcEEEENS_8functionIFN7android2spINS9_8hardware7IBinderEEEPvEEEEENS_19__map_value_compareIS7_SH_NS_4lessIS7_EELb1EEENS5_ISH_EEE12__find_equalIS7_EERPNS_16__tree_node_baseISE_EERPNS_15__tree_end_nodeISR_EERKT_"
  },
  {
   "binding" : "weak",
   "name" : "_ZNSt3__16__treeINS_12__value_typeINS_12basic_stringIcNS_11char_traitsIcEENS_9allocatorIcEEEENS_8functionIFN7android2spINS9_8hardware7IBinderEEEPvEEEEENS_19__map_value_compareIS7_SH_NS_4lessIS7_EELb1EEENS5_ISH_EEE4findIS7_EENS_15__tree_iteratorISH_PNS_11__tree_nodeISH_SE_EEiEERKT_"
  },
  {
   "binding" : "weak",
   "name" : "_ZNSt3__16__treeINS_12__value_typeINS_12basic_stringIcNS_11char_traitsIcEENS_9allocatorIcEEEENS_8functionIFN7android2spINS9_8hardware7IBinderEEEPvEEEEENS_19__map_value_compareIS7_SH_NS_4lessIS7_EELb1EEENS5_ISH_EEE5eraseENS_21__tree_const_iteratorISH_PNS_11__tree_nodeISH_SE_EEiEE"
  },
  {
   "binding" : "weak",
   "name" : "_ZNSt3__16vectorIN7android2spINS1_8hardware27hidl_binder_death_recipientEEENS_9allocatorIS5_EEE21__push_back_slow_pathIS5_EEvOT_"
  },
  {
   "binding" : "weak",
   "name" : "_ZNSt3__16vectorINS_8functionIFvN7android8hardware7details16HidlInstrumentor20InstrumentationEventEPKcS8_S8_S8_PNS0_IPvNS_9allocatorIS9_EEEEEEENSA_ISF_EEEC2ERKSH_"
  },
  {
   "binding" : "weak",
   "name" : "_ZNSt3__16vectorIPvNS_9allocatorIS1_EEE21__push_back_slow_pathIS1_EEvOT_"
  },
  {
   "name" : "_ZThn20_N7android8hardware4wifi10supplicant4V1_214BnHwSupplicantD0Ev"
  },
  {
   "name" : "_ZThn20_N7android8hardware4wifi10supplicant4V1_214BnHwSupplicantD1Ev"
  },
  {
   "name" : "_ZThn20_N7android8hardware4wifi10supplicant4V1_222BnHwSupplicantP2pIfaceD0Ev"
  },
  {
   "name" : "_ZThn20_N7android8hardware4wifi10supplicant4V1_222BnHwSupplicantP2pIfaceD1Ev"
  },
  {
   "name" : "_ZThn20_N7android8hardware4wifi10supplicant4V1_222BnHwSupplicantStaIfaceD0Ev"
  },
  {
   "name" : "_ZThn20_N7android8hardware4wifi10supplicant4V1_222BnHwSupplicantStaIfaceD1Ev"
  },
  {
   "name" : "_ZThn20_N7android8hardware4wifi10supplicant4V1_224BnHwSupplicantStaNetworkD0Ev"
  },
  {
   "name" : "_ZThn20_N7android8hardware4wifi10supplicant4V1_224BnHwSupplicantStaNetworkD1Ev"
  },
  {
   "name" : "_ZThn20_N7android8hardware4wifi10supplicant4V1_230BnHwSupplicantStaIfaceCallbackD0Ev"
  },
  {
   "name" : "_ZThn20_N7android8hardware4wifi10supplicant4V1_230BnHwSupplicantStaIfaceCallbackD1Ev"
  },
  {
   "name" : "_ZTv0_n12_N7android8hardware4wifi10supplicant4V1_214BnHwSupplicantD0Ev"
  },
  {
   "name" : "_ZTv0_n12_N7android8hardware4wifi10supplicant4V1_214BnHwSupplicantD1Ev"
  },
  {
   "name" : "_ZTv0_n12_N7android8hardware4wifi10supplicant4V1_222BnHwSupplicantP2pIfaceD0Ev"
  },
  {
   "name" : "_ZTv0_n12_N7android8hardware4wifi10supplicant4V1_222BnHwSupplicantP2pIfaceD1Ev"
  },
  {
   "name" : "_ZTv0_n12_N7android8hardware4wifi10supplicant4V1_222BnHwSupplicantStaIfaceD0Ev"
  },
  {
   "name" : "_ZTv0_n12_N7android8hardware4wifi10supplicant4V1_222BnHwSupplicantStaIfaceD1Ev"
  },
  {
   "name" : "_ZTv0_n12_N7android8hardware4wifi10supplicant4V1_224BnHwSupplicantStaNetworkD0Ev"
  },
  {
   "name" : "_ZTv0_n12_N7android8hardware4wifi10supplicant4V1_224BnHwSupplicantStaNetworkD1Ev"
  },
  {
   "name" : "_ZTv0_n12_N7android8hardware4wifi10supplicant4V1_230BnHwSupplicantStaIfaceCallbackD0Ev"
  },
  {
   "name" : "_ZTv0_n12_N7android8hardware4wifi10supplicant4V1_230BnHwSupplicantStaIfaceCallbackD1Ev"
  },
  {
   "name" : "__aeabi_memclr"
  },
  {
   "name" : "__aeabi_memclr4"
  },
  {
   "name" : "__aeabi_memclr8"
  },
  {
   "name" : "__aeabi_memcpy"
  },
  {
   "name" : "__aeabi_memcpy4"
  },
  {
   "name" : "__aeabi_memcpy8"
  },
  {
   "name" : "__aeabi_memset"
  },
  {
   "name" : "__aeabi_memset4"
  },
  {
   "name" : "__aeabi_memset8"
  }
 ],
 "elf_objects" :
 [
  {
   "name" : "_ZN7android8hardware4wifi10supplicant4V1_211ISupplicant10descriptorE"
  },
  {
   "name" : "_ZN7android8hardware4wifi10supplicant4V1_219ISupplicantP2pIface10descriptorE"
  },
  {
   "name" : "_ZN7android8hardware4wifi10supplicant4V1_219ISupplicantStaIface10descriptorE"
  },
  {
   "name" : "_ZN7android8hardware4wifi10supplicant4V1_221ISupplicantStaNetwork10descriptorE"
  },
  {
   "name" : "_ZN7android8hardware4wifi10supplicant4V1_227ISupplicantStaIfaceCallback10descriptorE"
  },
  {
   "name" : "_ZTCN7android8hardware4wifi10supplicant4V1_211ISupplicantE0_NS2_4V1_011ISupplicantE"
  },
  {
   "name" : "_ZTCN7android8hardware4wifi10supplicant4V1_211ISupplicantE0_NS2_4V1_111ISupplicantE"
  },
  {
   "name" : "_ZTCN7android8hardware4wifi10supplicant4V1_211ISupplicantE0_NS_4hidl4base4V1_05IBaseE"
  },
  {
   "binding" : "weak",
   "name" : "_ZTCN7android8hardware4wifi10supplicant4V1_212BsSupplicantE0_NS3_11ISupplicantE"
  },
  {
   "name" : "_ZTCN7android8hardware4wifi10supplicant4V1_214BnHwSupplicantE0_NS0_7IBinderE"
  },
  {
   "name" : "_ZTCN7android8hardware4wifi10supplicant4V1_214BnHwSupplicantE0_NS0_9BHwBinderE"
  },
  {
   "name" : "_ZTCN7android8hardware4wifi10supplicant4V1_214BnHwSupplicantE0_NS_4hidl4base4V1_08BnHwBaseE"
  },
  {
   "name" : "_ZTCN7android8hardware4wifi10supplicant4V1_214BpHwSupplicantE0_NS0_11BpInterfaceINS3_11ISupplicantEEE"
  },
  {
   "name" : "_ZTCN7android8hardware4wifi10supplicant4V1_214BpHwSupplicantE0_NS2_4V1_011ISupplicantE"
  },
  {
   "name" : "_ZTCN7android8hardware4wifi10supplicant4V1_214BpHwSupplicantE0_NS2_4V1_111ISupplicantE"
  },
  {
   "name" : "_ZTCN7android8hardware4wifi10supplicant4V1_214BpHwSupplicantE0_NS3_11ISupplicantE"
  },
  {
   "name" : "_ZTCN7android8hardware4wifi10supplicant4V1_214BpHwSupplicantE0_NS_4hidl4base4V1_05IBaseE"
  },
  {
   "name" : "_ZTCN7android8hardware4wifi10supplicant4V1_214BpHwSupplicantE4_NS0_10IInterfaceE"
  },
  {
   "name" : "_ZTCN7android8hardware4wifi10supplicant4V1_214BpHwSupplicantE8_NS0_11BpHwRefBaseE"
  },
  {
   "name" : "_ZTCN7android8hardware4wifi10supplicant4V1_219ISupplicantP2pIfaceE0_NS2_4V1_016ISupplicantIfaceE"
  },
  {
   "name" : "_ZTCN7android8hardware4wifi10supplicant4V1_219ISupplicantP2pIfaceE0_NS2_4V1_019ISupplicantP2pIfaceE"
  },
  {
   "name" : "_ZTCN7android8hardware4wifi10supplicant4V1_219ISupplicantP2pIfaceE0_NS_4hidl4base4V1_05IBaseE"
  },
  {
   "name" : "_ZTCN7android8hardware4wifi10supplicant4V1_219ISupplicantStaIfaceE0_NS2_4V1_016ISupplicantIfaceE"
  },
  {
   "name" : "_ZTCN7android8hardware4wifi10supplicant4V1_219ISupplicantStaIfaceE0_NS2_4V1_019ISupplicantStaIfaceE"
  },
  {
   "name" : "_ZTCN7android8hardware4wifi10supplicant4V1_219ISupplicantStaIfaceE0_NS2_4V1_119ISupplicantStaIfaceE"
  },
  {
   "name" : "_ZTCN7android8hardware4wifi10supplicant4V1_219ISupplicantStaIfaceE0_NS_4hidl4base4V1_05IBaseE"
  },
  {
   "binding" : "weak",
   "name" : "_ZTCN7android8hardware4wifi10supplicant4V1_220BsSupplicantP2pIfaceE0_NS3_19ISupplicantP2pIfaceE"
  },
  {
   "binding" : "weak",
   "name" : "_ZTCN7android8hardware4wifi10supplicant4V1_220BsSupplicantStaIfaceE0_NS3_19ISupplicantStaIfaceE"
  },
  {
   "name" : "_ZTCN7android8hardware4wifi10supplicant4V1_221ISupplicantStaNetworkE0_NS2_4V1_018ISupplicantNetworkE"
  },
  {
   "name" : "_ZTCN7android8hardware4wifi10supplicant4V1_221ISupplicantStaNetworkE0_NS2_4V1_021ISupplicantStaNetworkE"
  },
  {
   "name" : "_ZTCN7android8hardware4wifi10supplicant4V1_221ISupplicantStaNetworkE0_NS2_4V1_121ISupplicantStaNetworkE"
  },
  {
   "name" : "_ZTCN7android8hardware4wifi10supplicant4V1_221ISupplicantStaNetworkE0_NS_4hidl4base4V1_05IBaseE"
  },
  {
   "name" : "_ZTCN7android8hardware4wifi10supplicant4V1_222BnHwSupplicantP2pIfaceE0_NS0_7IBinderE"
  },
  {
   "name" : "_ZTCN7android8hardware4wifi10supplicant4V1_222BnHwSupplicantP2pIfaceE0_NS0_9BHwBinderE"
  },
  {
   "name" : "_ZTCN7android8hardware4wifi10supplicant4V1_222BnHwSupplicantP2pIfaceE0_NS_4hidl4base4V1_08BnHwBaseE"
  },
  {
   "name" : "_ZTCN7android8hardware4wifi10supplicant4V1_222BnHwSupplicantStaIfaceE0_NS0_7IBinderE"
  },
  {
   "name" : "_ZTCN7android8hardware4wifi10supplicant4V1_222BnHwSupplicantStaIfaceE0_NS0_9BHwBinderE"
  },
  {
   "name" : "_ZTCN7android8hardware4wifi10supplicant4V1_222BnHwSupplicantStaIfaceE0_NS_4hidl4base4V1_08BnHwBaseE"
  },
  {
   "name" : "_ZTCN7android8hardware4wifi10supplicant4V1_222BpHwSupplicantP2pIfaceE0_NS0_11BpInterfaceINS3_19ISupplicantP2pIfaceEEE"
  },
  {
   "name" : "_ZTCN7android8hardware4wifi10supplicant4V1_222BpHwSupplicantP2pIfaceE0_NS2_4V1_016ISupplicantIfaceE"
  },
  {
   "name" : "_ZTCN7android8hardware4wifi10supplicant4V1_222BpHwSupplicantP2pIfaceE0_NS2_4V1_019ISupplicantP2pIfaceE"
  },
  {
   "name" : "_ZTCN7android8hardware4wifi10supplicant4V1_222BpHwSupplicantP2pIfaceE0_NS3_19ISupplicantP2pIfaceE"
  },
  {
   "name" : "_ZTCN7android8hardware4wifi10supplicant4V1_222BpHwSupplicantP2pIfaceE0_NS_4hidl4base4V1_05IBaseE"
  },
  {
   "name" : "_ZTCN7android8hardware4wifi10supplicant4V1_222BpHwSupplicantP2pIfaceE4_NS0_10IInterfaceE"
  },
  {
   "name" : "_ZTCN7android8hardware4wifi10supplicant4V1_222BpHwSupplicantP2pIfaceE8_NS0_11BpHwRefBaseE"
  },
  {
   "name" : "_ZTCN7android8hardware4wifi10supplicant4V1_222BpHwSupplicantStaIfaceE0_NS0_11BpInterfaceINS3_19ISupplicantStaIfaceEEE"
  },
  {
   "name" : "_ZTCN7android8hardware4wifi10supplicant4V1_222BpHwSupplicantStaIfaceE0_NS2_4V1_016ISupplicantIfaceE"
  },
  {
   "name" : "_ZTCN7android8hardware4wifi10supplicant4V1_222BpHwSupplicantStaIfaceE0_NS2_4V1_019ISupplicantStaIfaceE"
  },
  {
   "name" : "_ZTCN7android8hardware4wifi10supplicant4V1_222BpHwSupplicantStaIfaceE0_NS2_4V1_119ISupplicantStaIfaceE"
  },
  {
   "name" : "_ZTCN7android8hardware4wifi10supplicant4V1_222BpHwSupplicantStaIfaceE0_NS3_19ISupplicantStaIfaceE"
  },
  {
   "name" : "_ZTCN7android8hardware4wifi10supplicant4V1_222BpHwSupplicantStaIfaceE0_NS_4hidl4base4V1_05IBaseE"
  },
  {
   "name" : "_ZTCN7android8hardware4wifi10supplicant4V1_222BpHwSupplicantStaIfaceE4_NS0_10IInterfaceE"
  },
  {
   "name" : "_ZTCN7android8hardware4wifi10supplicant4V1_222BpHwSupplicantStaIfaceE8_NS0_11BpHwRefBaseE"
  },
  {
   "binding" : "weak",
   "name" : "_ZTCN7android8hardware4wifi10supplicant4V1_222BsSupplicantStaNetworkE0_NS3_21ISupplicantStaNetworkE"
  },
  {
   "name" : "_ZTCN7android8hardware4wifi10supplicant4V1_224BnHwSupplicantStaNetworkE0_NS0_7IBinderE"
  },
  {
   "name" : "_ZTCN7android8hardware4wifi10supplicant4V1_224BnHwSupplicantStaNetworkE0_NS0_9BHwBinderE"
  },
  {
   "name" : "_ZTCN7android8hardware4wifi10supplicant4V1_224BnHwSupplicantStaNetworkE0_NS_4hidl4base4V1_08BnHwBaseE"
  },
  {
   "name" : "_ZTCN7android8hardware4wifi10supplicant4V1_224BpHwSupplicantStaNetworkE0_NS0_11BpInterfaceINS3_21ISupplicantStaNetworkEEE"
  },
  {
   "name" : "_ZTCN7android8hardware4wifi10supplicant4V1_224BpHwSupplicantStaNetworkE0_NS2_4V1_018ISupplicantNetworkE"
  },
  {
   "name" : "_ZTCN7android8hardware4wifi10supplicant4V1_224BpHwSupplicantStaNetworkE0_NS2_4V1_021ISupplicantStaNetworkE"
  },
  {
   "name" : "_ZTCN7android8hardware4wifi10supplicant4V1_224BpHwSupplicantStaNetworkE0_NS2_4V1_121ISupplicantStaNetworkE"
  },
  {
   "name" : "_ZTCN7android8hardware4wifi10supplicant4V1_224BpHwSupplicantStaNetworkE0_NS3_21ISupplicantStaNetworkE"
  },
  {
   "name" : "_ZTCN7android8hardware4wifi10supplicant4V1_224BpHwSupplicantStaNetworkE0_NS_4hidl4base4V1_05IBaseE"
  },
  {
   "name" : "_ZTCN7android8hardware4wifi10supplicant4V1_224BpHwSupplicantStaNetworkE4_NS0_10IInterfaceE"
  },
  {
   "name" : "_ZTCN7android8hardware4wifi10supplicant4V1_224BpHwSupplicantStaNetworkE8_NS0_11BpHwRefBaseE"
  },
  {
   "name" : "_ZTCN7android8hardware4wifi10supplicant4V1_227ISupplicantStaIfaceCallbackE0_NS2_4V1_027ISupplicantStaIfaceCallbackE"
  },
  {
   "name" : "_ZTCN7android8hardware4wifi10supplicant4V1_227ISupplicantStaIfaceCallbackE0_NS2_4V1_127ISupplicantStaIfaceCallbackE"
  },
  {
   "name" : "_ZTCN7android8hardware4wifi10supplicant4V1_227ISupplicantStaIfaceCallbackE0_NS_4hidl4base4V1_05IBaseE"
  },
  {
   "binding" : "weak",
   "name" : "_ZTCN7android8hardware4wifi10supplicant4V1_228BsSupplicantStaIfaceCallbackE0_NS3_27ISupplicantStaIfaceCallbackE"
  },
  {
   "name" : "_ZTCN7android8hardware4wifi10supplicant4V1_230BnHwSupplicantStaIfaceCallbackE0_NS0_7IBinderE"
  },
  {
   "name" : "_ZTCN7android8hardware4wifi10supplicant4V1_230BnHwSupplicantStaIfaceCallbackE0_NS0_9BHwBinderE"
  },
  {
   "name" : "_ZTCN7android8hardware4wifi10supplicant4V1_230BnHwSupplicantStaIfaceCallbackE0_NS_4hidl4base4V1_08BnHwBaseE"
  },
  {
   "name" : "_ZTCN7android8hardware4wifi10supplicant4V1_230BpHwSupplicantStaIfaceCallbackE0_NS0_11BpInterfaceINS3_27ISupplicantStaIfaceCallbackEEE"
  },
  {
   "name" : "_ZTCN7android8hardware4wifi10supplicant4V1_230BpHwSupplicantStaIfaceCallbackE0_NS2_4V1_027ISupplicantStaIfaceCallbackE"
  },
  {
   "name" : "_ZTCN7android8hardware4wifi10supplicant4V1_230BpHwSupplicantStaIfaceCallbackE0_NS2_4V1_127ISupplicantStaIfaceCallbackE"
  },
  {
   "name" : "_ZTCN7android8hardware4wifi10supplicant4V1_230BpHwSupplicantStaIfaceCallbackE0_NS3_27ISupplicantStaIfaceCallbackE"
  },
  {
   "name" : "_ZTCN7android8hardware4wifi10supplicant4V1_230BpHwSupplicantStaIfaceCallbackE0_NS_4hidl4base4V1_05IBaseE"
  },
  {
   "name" : "_ZTCN7android8hardware4wifi10supplicant4V1_230BpHwSupplicantStaIfaceCallbackE4_NS0_10IInterfaceE"
  },
  {
   "name" : "_ZTCN7android8hardware4wifi10supplicant4V1_230BpHwSupplicantStaIfaceCallbackE8_NS0_11BpHwRefBaseE"
  },
  {
   "name" : "_ZTTN7android8hardware4wifi10supplicant4V1_211ISupplicantE"
  },
  {
   "name" : "_ZTTN7android8hardware4wifi10supplicant4V1_214BnHwSupplicantE"
  },
  {
   "name" : "_ZTTN7android8hardware4wifi10supplicant4V1_214BpHwSupplicantE"
  },
  {
   "name" : "_ZTTN7android8hardware4wifi10supplicant4V1_219ISupplicantP2pIfaceE"
  },
  {
   "name" : "_ZTTN7android8hardware4wifi10supplicant4V1_219ISupplicantStaIfaceE"
  },
  {
   "name" : "_ZTTN7android8hardware4wifi10supplicant4V1_221ISupplicantStaNetworkE"
  },
  {
   "name" : "_ZTTN7android8hardware4wifi10supplicant4V1_222BnHwSupplicantP2pIfaceE"
  },
  {
   "name" : "_ZTTN7android8hardware4wifi10supplicant4V1_222BnHwSupplicantStaIfaceE"
  },
  {
   "name" : "_ZTTN7android8hardware4wifi10supplicant4V1_222BpHwSupplicantP2pIfaceE"
  },
  {
   "name" : "_ZTTN7android8hardware4wifi10supplicant4V1_222BpHwSupplicantStaIfaceE"
  },
  {
   "name" : "_ZTTN7android8hardware4wifi10supplicant4V1_224BnHwSupplicantStaNetworkE"
  },
  {
   "name" : "_ZTTN7android8hardware4wifi10supplicant4V1_224BpHwSupplicantStaNetworkE"
  },
  {
   "name" : "_ZTTN7android8hardware4wifi10supplicant4V1_227ISupplicantStaIfaceCallbackE"
  },
  {
   "name" : "_ZTTN7android8hardware4wifi10supplicant4V1_230BnHwSupplicantStaIfaceCallbackE"
  },
  {
   "name" : "_ZTTN7android8hardware4wifi10supplicant4V1_230BpHwSupplicantStaIfaceCallbackE"
  },
  {
   "name" : "_ZTVN7android8hardware4wifi10supplicant4V1_211ISupplicantE"
  },
  {
   "binding" : "weak",
   "name" : "_ZTVN7android8hardware4wifi10supplicant4V1_212BsSupplicantE"
  },
  {
   "name" : "_ZTVN7android8hardware4wifi10supplicant4V1_214BnHwSupplicantE"
  },
  {
   "name" : "_ZTVN7android8hardware4wifi10supplicant4V1_214BpHwSupplicantE"
  },
  {
   "name" : "_ZTVN7android8hardware4wifi10supplicant4V1_219ISupplicantP2pIfaceE"
  },
  {
   "name" : "_ZTVN7android8hardware4wifi10supplicant4V1_219ISupplicantStaIfaceE"
  },
  {
   "binding" : "weak",
   "name" : "_ZTVN7android8hardware4wifi10supplicant4V1_220BsSupplicantP2pIfaceE"
  },
  {
   "binding" : "weak",
   "name" : "_ZTVN7android8hardware4wifi10supplicant4V1_220BsSupplicantStaIfaceE"
  },
  {
   "name" : "_ZTVN7android8hardware4wifi10supplicant4V1_221ISupplicantStaNetworkE"
  },
  {
   "name" : "_ZTVN7android8hardware4wifi10supplicant4V1_222BnHwSupplicantP2pIfaceE"
  },
  {
   "name" : "_ZTVN7android8hardware4wifi10supplicant4V1_222BnHwSupplicantStaIfaceE"
  },
  {
   "name" : "_ZTVN7android8hardware4wifi10supplicant4V1_222BpHwSupplicantP2pIfaceE"
  },
  {
   "name" : "_ZTVN7android8hardware4wifi10supplicant4V1_222BpHwSupplicantStaIfaceE"
  },
  {
   "binding" : "weak",
   "name" : "_ZTVN7android8hardware4wifi10supplicant4V1_222BsSupplicantStaNetworkE"
  },
  {
   "name" : "_ZTVN7android8hardware4wifi10supplicant4V1_224BnHwSupplicantStaNetworkE"
  },
  {
   "name" : "_ZTVN7android8hardware4wifi10supplicant4V1_224BpHwSupplicantStaNetworkE"
  },
  {
   "name" : "_ZTVN7android8hardware4wifi10supplicant4V1_227ISupplicantStaIfaceCallbackE"
  },
  {
   "binding" : "weak",
   "name" : "_ZTVN7android8hardware4wifi10supplicant4V1_228BsSupplicantStaIfaceCallbackE"
  },
  {
   "name" : "_ZTVN7android8hardware4wifi10supplicant4V1_230BnHwSupplicantStaIfaceCallbackE"
  },
  {
   "name" : "_ZTVN7android8hardware4wifi10supplicant4V1_230BpHwSupplicantStaIfaceCallbackE"
  }
 ],
 "enum_types" :
 [
  {
   "alignment" : 4,
   "enum_fields" :
   [
    {
     "enum_field_value" : 0,
     "name" : "android::Condition::WAKE_UP_ONE"
    },
    {
     "enum_field_value" : 1,
     "name" : "android::Condition::WAKE_UP_ALL"
    }
   ],
   "linker_set_key" : "android::Condition::WakeUpType",
   "name" : "android::Condition::WakeUpType",
   "referenced_type" : "type-1557",
   "self_type" : "type-1557",
   "size" : 4,
   "source_file" : "/system/core/libutils/include/utils/Condition.h",
   "underlying_type" : "type-2",
   "unique_id" : "_ZTSN7android9Condition10WakeUpTypeE"
  },
  {
   "alignment" : 4,
   "enum_fields" :
   [
    {
     "enum_field_value" : 0,
     "name" : "android::String16::kEmptyString"
    }
   ],
   "linker_set_key" : "android::String16::StaticLinkage",
   "name" : "android::String16::StaticLinkage",
   "referenced_type" : "type-1249",
   "self_type" : "type-1249",
   "size" : 4,
   "source_file" : "/system/core/libutils/include/utils/String16.h",
   "underlying_type" : "type-2",
   "unique_id" : "_ZTSN7android8String1613StaticLinkageE"
  },
  {
   "alignment" : 4,
   "enum_fields" :
   [
    {
     "enum_field_value" : 0,
     "name" : "android::String8::kEmptyString"
    }
   ],
   "linker_set_key" : "android::String8::StaticLinkage",
   "name" : "android::String8::StaticLinkage",
   "referenced_type" : "type-1220",
   "self_type" : "type-1220",
   "size" : 4,
   "source_file" : "/system/core/libutils/include/utils/String8.h",
   "underlying_type" : "type-2",
   "unique_id" : "_ZTSN7android7String813StaticLinkageE"
  },
  {
   "alignment" : 4,
   "enum_fields" :
   [
    {
     "enum_field_value" : 0,
     "name" : "android::hardware::HidlReturnRestriction::NONE"
    },
    {
     "enum_field_value" : 1,
     "name" : "android::hardware::HidlReturnRestriction::ERROR_IF_UNCHECKED"
    },
    {
     "enum_field_value" : 2,
     "name" : "android::hardware::HidlReturnRestriction::FATAL_IF_UNCHECKED"
    }
   ],
   "linker_set_key" : "android::hardware::HidlReturnRestriction",
   "name" : "android::hardware::HidlReturnRestriction",
   "referenced_type" : "type-794",
   "self_type" : "type-794",
   "size" : 4,
   "source_file" : "/system/libhidl/base/include/hidl/Status.h",
   "underlying_type" : "type-51",
   "unique_id" : "_ZTSN7android8hardware21HidlReturnRestrictionE"
  },
  {
   "alignment" : 4,
   "enum_fields" :
   [
    {
     "enum_field_value" : 0,
     "name" : "android::hardware::MQDescriptor<char, android::hardware::kSynchronizedReadWrite>::READPTRPOS"
    },
    {
     "enum_field_value" : 1,
     "name" : "android::hardware::MQDescriptor<char, android::hardware::kSynchronizedReadWrite>::WRITEPTRPOS"
    },
    {
     "enum_field_value" : 2,
     "name" : "android::hardware::MQDescriptor<char, android::hardware::kSynchronizedReadWrite>::DATAPTRPOS"
    },
    {
     "enum_field_value" : 3,
     "name" : "android::hardware::MQDescriptor<char, android::hardware::kSynchronizedReadWrite>::EVFLAGWORDPOS"
    }
   ],
   "linker_set_key" : "android::hardware::MQDescriptor<char, android::hardware::kSynchronizedReadWrite>::GrantorType",
   "name" : "android::hardware::MQDescriptor<char, android::hardware::kSynchronizedReadWrite>::GrantorType",
   "referenced_type" : "type-1202",
   "self_type" : "type-1202",
   "size" : 4,
   "source_file" : "/system/libhidl/base/include/hidl/MQDescriptor.h",
   "underlying_type" : "type-51",
   "unique_id" : "_ZTSN7android8hardware12MQDescriptorIcLNS0_8MQFlavorE1EE11GrantorTypeE"
  },
  {
   "alignment" : 4,
   "enum_fields" :
   [
    {
     "enum_field_value" : 1,
     "name" : "android::hardware::kSynchronizedReadWrite"
    },
    {
     "enum_field_value" : 2,
     "name" : "android::hardware::kUnsynchronizedWrite"
    }
   ],
   "linker_set_key" : "android::hardware::MQFlavor",
   "name" : "android::hardware::MQFlavor",
   "referenced_type" : "type-1188",
   "self_type" : "type-1188",
   "size" : 4,
   "source_file" : "/system/libhidl/base/include/hidl/MQDescriptor.h",
   "underlying_type" : "type-2",
   "unique_id" : "_ZTSN7android8hardware8MQFlavorE"
  },
  {
   "alignment" : 4,
   "enum_fields" :
   [
    {
     "enum_field_value" : 0,
     "name" : "android::hardware::ProcessState::CallRestriction::NONE"
    },
    {
     "enum_field_value" : 1,
     "name" : "android::hardware::ProcessState::CallRestriction::ERROR_IF_NOT_ONEWAY"
    },
    {
     "enum_field_value" : 2,
     "name" : "android::hardware::ProcessState::CallRestriction::FATAL_IF_NOT_ONEWAY"
    }
   ],
   "linker_set_key" : "android::hardware::ProcessState::CallRestriction",
   "name" : "android::hardware::ProcessState::CallRestriction",
   "referenced_type" : "type-85",
   "self_type" : "type-85",
   "size" : 4,
   "source_file" : "/system/libhwbinder/include/hwbinder/ProcessState.h",
   "underlying_type" : "type-51",
   "unique_id" : "_ZTSN7android8hardware12ProcessState15CallRestrictionE"
  },
  {
   "alignment" : 4,
   "enum_fields" :
   [
    {
     "enum_field_value" : 0,
     "name" : "android::hardware::Status::EX_NONE"
    },
    {
     "enum_field_value" : -1,
     "name" : "android::hardware::Status::EX_SECURITY"
    },
    {
     "enum_field_value" : -2,
     "name" : "android::hardware::Status::EX_BAD_PARCELABLE"
    },
    {
     "enum_field_value" : -3,
     "name" : "android::hardware::Status::EX_ILLEGAL_ARGUMENT"
    },
    {
     "enum_field_value" : -4,
     "name" : "android::hardware::Status::EX_NULL_POINTER"
    },
    {
     "enum_field_value" : -5,
     "name" : "android::hardware::Status::EX_ILLEGAL_STATE"
    },
    {
     "enum_field_value" : -6,
     "name" : "android::hardware::Status::EX_NETWORK_MAIN_THREAD"
    },
    {
     "enum_field_value" : -7,
     "name" : "android::hardware::Status::EX_UNSUPPORTED_OPERATION"
    },
    {
     "enum_field_value" : -128,
     "name" : "android::hardware::Status::EX_HAS_REPLY_HEADER"
    },
    {
     "enum_field_value" : -129,
     "name" : "android::hardware::Status::EX_TRANSACTION_FAILED"
    }
   ],
   "linker_set_key" : "android::hardware::Status::Exception",
   "name" : "android::hardware::Status::Exception",
   "referenced_type" : "type-683",
   "self_type" : "type-683",
   "size" : 4,
   "source_file" : "/system/libhidl/base/include/hidl/Status.h",
   "underlying_type" : "type-51",
   "unique_id" : "_ZTSN7android8hardware6Status9ExceptionE"
  },
  {
   "alignment" : 4,
   "enum_fields" :
   [
    {
     "enum_field_value" : 0,
     "name" : "android::hardware::details::HidlInstrumentor::SERVER_API_ENTRY"
    },
    {
     "enum_field_value" : 1,
     "name" : "android::hardware::details::HidlInstrumentor::SERVER_API_EXIT"
    },
    {
     "enum_field_value" : 2,
     "name" : "android::hardware::details::HidlInstrumentor::CLIENT_API_ENTRY"
    },
    {
     "enum_field_value" : 3,
     "name" : "android::hardware::details::HidlInstrumentor::CLIENT_API_EXIT"
    },
    {
     "enum_field_value" : 4,
     "name" : "android::hardware::details::HidlInstrumentor::SYNC_CALLBACK_ENTRY"
    },
    {
     "enum_field_value" : 5,
     "name" : "android::hardware::details::HidlInstrumentor::SYNC_CALLBACK_EXIT"
    },
    {
     "enum_field_value" : 6,
     "name" : "android::hardware::details::HidlInstrumentor::ASYNC_CALLBACK_ENTRY"
    },
    {
     "enum_field_value" : 7,
     "name" : "android::hardware::details::HidlInstrumentor::ASYNC_CALLBACK_EXIT"
    },
    {
     "enum_field_value" : 8,
     "name" : "android::hardware::details::HidlInstrumentor::PASSTHROUGH_ENTRY"
    },
    {
     "enum_field_value" : 9,
     "name" : "android::hardware::details::HidlInstrumentor::PASSTHROUGH_EXIT"
    }
   ],
   "linker_set_key" : "android::hardware::details::HidlInstrumentor::InstrumentationEvent",
   "name" : "android::hardware::details::HidlInstrumentor::InstrumentationEvent",
   "referenced_type" : "type-1682",
   "self_type" : "type-1682",
   "size" : 4,
   "source_file" : "/system/libhidl/base/include/hidl/HidlInternal.h",
   "underlying_type" : "type-2",
   "unique_id" : "_ZTSN7android8hardware7details16HidlInstrumentor20InstrumentationEventE"
  },
  {
   "alignment" : 4,
   "enum_fields" :
   [
    {
     "enum_field_value" : 0,
     "name" : "android::hardware::wifi::supplicant::V1_0::ISupplicant::DebugLevel::EXCESSIVE"
    },
    {
     "enum_field_value" : 1,
     "name" : "android::hardware::wifi::supplicant::V1_0::ISupplicant::DebugLevel::MSGDUMP"
    },
    {
     "enum_field_value" : 2,
     "name" : "android::hardware::wifi::supplicant::V1_0::ISupplicant::DebugLevel::DEBUG"
    },
    {
     "enum_field_value" : 3,
     "name" : "android::hardware::wifi::supplicant::V1_0::ISupplicant::DebugLevel::INFO"
    },
    {
     "enum_field_value" : 4,
     "name" : "android::hardware::wifi::supplicant::V1_0::ISupplicant::DebugLevel::WARNING"
    },
    {
     "enum_field_value" : 5,
     "name" : "android::hardware::wifi::supplicant::V1_0::ISupplicant::DebugLevel::ERROR"
    }
   ],
   "linker_set_key" : "android::hardware::wifi::supplicant::V1_0::ISupplicant::DebugLevel",
   "name" : "android::hardware::wifi::supplicant::V1_0::ISupplicant::DebugLevel",
   "referenced_type" : "type-709",
   "self_type" : "type-709",
   "size" : 4,
   "source_file" : "/out/soong/.intermediates/hardware/interfaces/wifi/supplicant/1.0/android.hardware.wifi.supplicant@1.0_genc++_headers/gen/android/hardware/wifi/supplicant/1.0/ISupplicant.h",
   "underlying_type" : "type-2",
   "unique_id" : "_ZTSN7android8hardware4wifi10supplicant4V1_011ISupplicant10DebugLevelE"
  },
  {
   "alignment" : 4,
   "enum_fields" :
   [
    {
     "enum_field_value" : 32,
     "name" : "android::hardware::wifi::supplicant::V1_0::ISupplicantIface::ParamSizeLimits::WPS_DEVICE_NAME_MAX_LEN"
    },
    {
     "enum_field_value" : 64,
     "name" : "android::hardware::wifi::supplicant::V1_0::ISupplicantIface::ParamSizeLimits::WPS_MANUFACTURER_MAX_LEN"
    },
    {
     "enum_field_value" : 32,
     "name" : "android::hardware::wifi::supplicant::V1_0::ISupplicantIface::ParamSizeLimits::WPS_MODEL_NAME_MAX_LEN"
    },
    {
     "enum_field_value" : 32,
     "name" : "android::hardware::wifi::supplicant::V1_0::ISupplicantIface::ParamSizeLimits::WPS_MODEL_NUMBER_MAX_LEN"
    },
    {
     "enum_field_value" : 32,
     "name" : "android::hardware::wifi::supplicant::V1_0::ISupplicantIface::ParamSizeLimits::WPS_SERIAL_NUMBER_MAX_LEN"
    }
   ],
   "linker_set_key" : "android::hardware::wifi::supplicant::V1_0::ISupplicantIface::ParamSizeLimits",
   "name" : "android::hardware::wifi::supplicant::V1_0::ISupplicantIface::ParamSizeLimits",
   "referenced_type" : "type-1602",
   "self_type" : "type-1602",
   "size" : 4,
   "source_file" : "/out/soong/.intermediates/hardware/interfaces/wifi/supplicant/1.0/android.hardware.wifi.supplicant@1.0_genc++_headers/gen/android/hardware/wifi/supplicant/1.0/ISupplicantIface.h",
   "underlying_type" : "type-2",
   "unique_id" : "_ZTSN7android8hardware4wifi10supplicant4V1_016ISupplicantIface15ParamSizeLimitsE"
  },
  {
   "alignment" : 1,
   "enum_fields" :
   [
    {
     "enum_field_value" : 0,
     "name" : "android::hardware::wifi::supplicant::V1_0::ISupplicantP2pIface::MiracastMode::DISABLED"
    },
    {
     "enum_field_value" : 1,
     "name" : "android::hardware::wifi::supplicant::V1_0::ISupplicantP2pIface::MiracastMode::SOURCE"
    },
    {
     "enum_field_value" : 2,
     "name" : "android::hardware::wifi::supplicant::V1_0::ISupplicantP2pIface::MiracastMode::SINK"
    }
   ],
   "linker_set_key" : "android::hardware::wifi::supplicant::V1_0::ISupplicantP2pIface::MiracastMode",
   "name" : "android::hardware::wifi::supplicant::V1_0::ISupplicantP2pIface::MiracastMode",
   "referenced_type" : "type-95",
   "self_type" : "type-95",
   "size" : 1,
   "source_file" : "/out/soong/.intermediates/hardware/interfaces/wifi/supplicant/1.0/android.hardware.wifi.supplicant@1.0_genc++_headers/gen/android/hardware/wifi/supplicant/1.0/ISupplicantP2pIface.h",
   "underlying_type" : "type-29",
   "unique_id" : "_ZTSN7android8hardware4wifi10supplicant4V1_019ISupplicantP2pIface12MiracastModeE"
  },
  {
   "alignment" : 4,
   "enum_fields" :
   [
    {
     "enum_field_value" : 0,
     "name" : "android::hardware::wifi::supplicant::V1_0::ISupplicantP2pIface::WpsProvisionMethod::PBC"
    },
    {
     "enum_field_value" : 1,
     "name" : "android::hardware::wifi::supplicant::V1_0::ISupplicantP2pIface::WpsProvisionMethod::DISPLAY"
    },
    {
     "enum_field_value" : 2,
     "name" : "android::hardware::wifi::supplicant::V1_0::ISupplicantP2pIface::WpsProvisionMethod::KEYPAD"
    }
   ],
   "linker_set_key" : "android::hardware::wifi::supplicant::V1_0::ISupplicantP2pIface::WpsProvisionMethod",
   "name" : "android::hardware::wifi::supplicant::V1_0::ISupplicantP2pIface::WpsProvisionMethod",
   "referenced_type" : "type-94",
   "self_type" : "type-94",
   "size" : 4,
   "source_file" : "/out/soong/.intermediates/hardware/interfaces/wifi/supplicant/1.0/android.hardware.wifi.supplicant@1.0_genc++_headers/gen/android/hardware/wifi/supplicant/1.0/ISupplicantP2pIface.h",
   "underlying_type" : "type-2",
   "unique_id" : "_ZTSN7android8hardware4wifi10supplicant4V1_019ISupplicantP2pIface18WpsProvisionMethodE"
  },
  {
   "alignment" : 1,
   "enum_fields" :
   [
    {
     "enum_field_value" : 0,
     "name" : "android::hardware::wifi::supplicant::V1_0::ISupplicantP2pIfaceCallback::P2pProvDiscStatusCode::SUCCESS"
    },
    {
     "enum_field_value" : 1,
     "name" : "android::hardware::wifi::supplicant::V1_0::ISupplicantP2pIfaceCallback::P2pProvDiscStatusCode::TIMEOUT"
    },
    {
     "enum_field_value" : 2,
     "name" : "android::hardware::wifi::supplicant::V1_0::ISupplicantP2pIfaceCallback::P2pProvDiscStatusCode::REJECTED"
    },
    {
     "enum_field_value" : 3,
     "name" : "android::hardware::wifi::supplicant::V1_0::ISupplicantP2pIfaceCallback::P2pProvDiscStatusCode::TIMEOUT_JOIN"
    },
    {
     "enum_field_value" : 4,
     "name" : "android::hardware::wifi::supplicant::V1_0::ISupplicantP2pIfaceCallback::P2pProvDiscStatusCode::INFO_UNAVAILABLE"
    }
   ],
   "linker_set_key" : "android::hardware::wifi::supplicant::V1_0::ISupplicantP2pIfaceCallback::P2pProvDiscStatusCode",
   "name" : "android::hardware::wifi::supplicant::V1_0::ISupplicantP2pIfaceCallback::P2pProvDiscStatusCode",
   "referenced_type" : "type-46",
   "self_type" : "type-46",
   "size" : 1,
   "source_file" : "/out/soong/.intermediates/hardware/interfaces/wifi/supplicant/1.0/android.hardware.wifi.supplicant@1.0_genc++_headers/gen/android/hardware/wifi/supplicant/1.0/ISupplicantP2pIfaceCallback.h",
   "underlying_type" : "type-29",
   "unique_id" : "_ZTSN7android8hardware4wifi10supplicant4V1_027ISupplicantP2pIfaceCallback21P2pProvDiscStatusCodeE"
  },
  {
   "alignment" : 4,
   "enum_fields" :
   [
    {
     "enum_field_value" : 0,
     "name" : "android::hardware::wifi::supplicant::V1_0::ISupplicantP2pIfaceCallback::P2pStatusCode::SUCCESS"
    },
    {
     "enum_field_value" : 1,
     "name" : "android::hardware::wifi::supplicant::V1_0::ISupplicantP2pIfaceCallback::P2pStatusCode::FAIL_INFO_CURRENTLY_UNAVAILABLE"
    },
    {
     "enum_field_value" : 2,
     "name" : "android::hardware::wifi::supplicant::V1_0::ISupplicantP2pIfaceCallback::P2pStatusCode::FAIL_INCOMPATIBLE_PARAMS"
    },
    {
     "enum_field_value" : 3,
     "name" : "android::hardware::wifi::supplicant::V1_0::ISupplicantP2pIfaceCallback::P2pStatusCode::FAIL_LIMIT_REACHED"
    },
    {
     "enum_field_value" : 4,
     "name" : "android::hardware::wifi::supplicant::V1_0::ISupplicantP2pIfaceCallback::P2pStatusCode::FAIL_INVALID_PARAMS"
    },
    {
     "enum_field_value" : 5,
     "name" : "android::hardware::wifi::supplicant::V1_0::ISupplicantP2pIfaceCallback::P2pStatusCode::FAIL_UNABLE_TO_ACCOMMODATE"
    },
    {
     "enum_field_value" : 6,
     "name" : "android::hardware::wifi::supplicant::V1_0::ISupplicantP2pIfaceCallback::P2pStatusCode::FAIL_PREV_PROTOCOL_ERROR"
    },
    {
     "enum_field_value" : 7,
     "name" : "android::hardware::wifi::supplicant::V1_0::ISupplicantP2pIfaceCallback::P2pStatusCode::FAIL_NO_COMMON_CHANNELS"
    },
    {
     "enum_field_value" : 8,
     "name" : "android::hardware::wifi::supplicant::V1_0::ISupplicantP2pIfaceCallback::P2pStatusCode::FAIL_UNKNOWN_GROUP"
    },
    {
     "enum_field_value" : 9,
     "name" : "android::hardware::wifi::supplicant::V1_0::ISupplicantP2pIfaceCallback::P2pStatusCode::FAIL_BOTH_GO_INTENT_15"
    },
    {
     "enum_field_value" : 10,
     "name" : "android::hardware::wifi::supplicant::V1_0::ISupplicantP2pIfaceCallback::P2pStatusCode::FAIL_INCOMPATIBLE_PROV_METHOD"
    },
    {
     "enum_field_value" : 11,
     "name" : "android::hardware::wifi::supplicant::V1_0::ISupplicantP2pIfaceCallback::P2pStatusCode::FAIL_REJECTED_BY_USER"
    },
    {
     "enum_field_value" : 12,
     "name" : "android::hardware::wifi::supplicant::V1_0::ISupplicantP2pIfaceCallback::P2pStatusCode::SUCCESS_DEFERRED"
    }
   ],
   "linker_set_key" : "android::hardware::wifi::supplicant::V1_0::ISupplicantP2pIfaceCallback::P2pStatusCode",
   "name" : "android::hardware::wifi::supplicant::V1_0::ISupplicantP2pIfaceCallback::P2pStatusCode",
   "referenced_type" : "type-45",
   "self_type" : "type-45",
   "size" : 4,
   "source_file" : "/out/soong/.intermediates/hardware/interfaces/wifi/supplicant/1.0/android.hardware.wifi.supplicant@1.0_genc++_headers/gen/android/hardware/wifi/supplicant/1.0/ISupplicantP2pIfaceCallback.h",
   "underlying_type" : "type-2",
   "unique_id" : "_ZTSN7android8hardware4wifi10supplicant4V1_027ISupplicantP2pIfaceCallback13P2pStatusCodeE"
  },
  {
   "alignment" : 2,
   "enum_fields" :
   [
    {
     "enum_field_value" : 0,
     "name" : "android::hardware::wifi::supplicant::V1_0::ISupplicantP2pIfaceCallback::WpsDevPasswordId::DEFAULT"
    },
    {
     "enum_field_value" : 1,
     "name" : "android::hardware::wifi::supplicant::V1_0::ISupplicantP2pIfaceCallback::WpsDevPasswordId::USER_SPECIFIED"
    },
    {
     "enum_field_value" : 2,
     "name" : "android::hardware::wifi::supplicant::V1_0::ISupplicantP2pIfaceCallback::WpsDevPasswordId::MACHINE_SPECIFIED"
    },
    {
     "enum_field_value" : 3,
     "name" : "android::hardware::wifi::supplicant::V1_0::ISupplicantP2pIfaceCallback::WpsDevPasswordId::REKEY"
    },
    {
     "enum_field_value" : 4,
     "name" : "android::hardware::wifi::supplicant::V1_0::ISupplicantP2pIfaceCallback::WpsDevPasswordId::PUSHBUTTON"
    },
    {
     "enum_field_value" : 5,
     "name" : "android::hardware::wifi::supplicant::V1_0::ISupplicantP2pIfaceCallback::WpsDevPasswordId::REGISTRAR_SPECIFIED"
    },
    {
     "enum_field_value" : 7,
     "name" : "android::hardware::wifi::supplicant::V1_0::ISupplicantP2pIfaceCallback::WpsDevPasswordId::NFC_CONNECTION_HANDOVER"
    },
    {
     "enum_field_value" : 8,
     "name" : "android::hardware::wifi::supplicant::V1_0::ISupplicantP2pIfaceCallback::WpsDevPasswordId::P2PS_DEFAULT"
    }
   ],
   "linker_set_key" : "android::hardware::wifi::supplicant::V1_0::ISupplicantP2pIfaceCallback::WpsDevPasswordId",
   "name" : "android::hardware::wifi::supplicant::V1_0::ISupplicantP2pIfaceCallback::WpsDevPasswordId",
   "referenced_type" : "type-43",
   "self_type" : "type-43",
   "size" : 2,
   "source_file" : "/out/soong/.intermediates/hardware/interfaces/wifi/supplicant/1.0/android.hardware.wifi.supplicant@1.0_genc++_headers/gen/android/hardware/wifi/supplicant/1.0/ISupplicantP2pIfaceCallback.h",
   "underlying_type" : "type-44",
   "unique_id" : "_ZTSN7android8hardware4wifi10supplicant4V1_027ISupplicantP2pIfaceCallback16WpsDevPasswordIdE"
  },
  {
   "alignment" : 2,
   "enum_fields" :
   [
    {
     "enum_field_value" : 258,
     "name" : "android::hardware::wifi::supplicant::V1_0::ISupplicantStaIface::AnqpInfoId::VENUE_NAME"
    },
    {
     "enum_field_value" : 261,
     "name" : "android::hardware::wifi::supplicant::V1_0::ISupplicantStaIface::AnqpInfoId::ROAMING_CONSORTIUM"
    },
    {
     "enum_field_value" : 262,
     "name" : "android::hardware::wifi::supplicant::V1_0::ISupplicantStaIface::AnqpInfoId::IP_ADDR_TYPE_AVAILABILITY"
    },
    {
     "enum_field_value" : 263,
     "name" : "android::hardware::wifi::supplicant::V1_0::ISupplicantStaIface::AnqpInfoId::NAI_REALM"
    },
    {
     "enum_field_value" : 264,
     "name" : "android::hardware::wifi::supplicant::V1_0::ISupplicantStaIface::AnqpInfoId::ANQP_3GPP_CELLULAR_NETWORK"
    },
    {
     "enum_field_value" : 268,
     "name" : "android::hardware::wifi::supplicant::V1_0::ISupplicantStaIface::AnqpInfoId::DOMAIN_NAME"
    }
   ],
   "linker_set_key" : "android::hardware::wifi::supplicant::V1_0::ISupplicantStaIface::AnqpInfoId",
   "name" : "android::hardware::wifi::supplicant::V1_0::ISupplicantStaIface::AnqpInfoId",
   "referenced_type" : "type-314",
   "self_type" : "type-314",
   "size" : 2,
   "source_file" : "/out/soong/.intermediates/hardware/interfaces/wifi/supplicant/1.0/android.hardware.wifi.supplicant@1.0_genc++_headers/gen/android/hardware/wifi/supplicant/1.0/ISupplicantStaIface.h",
   "underlying_type" : "type-44",
   "unique_id" : "_ZTSN7android8hardware4wifi10supplicant4V1_019ISupplicantStaIface10AnqpInfoIdE"
  },
  {
   "alignment" : 1,
   "enum_fields" :
   [
    {
     "enum_field_value" : 0,
     "name" : "android::hardware::wifi::supplicant::V1_0::ISupplicantStaIface::BtCoexistenceMode::ENABLED"
    },
    {
     "enum_field_value" : 1,
     "name" : "android::hardware::wifi::supplicant::V1_0::ISupplicantStaIface::BtCoexistenceMode::DISABLED"
    },
    {
     "enum_field_value" : 2,
     "name" : "android::hardware::wifi::supplicant::V1_0::ISupplicantStaIface::BtCoexistenceMode::SENSE"
    }
   ],
   "linker_set_key" : "android::hardware::wifi::supplicant::V1_0::ISupplicantStaIface::BtCoexistenceMode",
   "name" : "android::hardware::wifi::supplicant::V1_0::ISupplicantStaIface::BtCoexistenceMode",
   "referenced_type" : "type-464",
   "self_type" : "type-464",
   "size" : 1,
   "source_file" : "/out/soong/.intermediates/hardware/interfaces/wifi/supplicant/1.0/android.hardware.wifi.supplicant@1.0_genc++_headers/gen/android/hardware/wifi/supplicant/1.0/ISupplicantStaIface.h",
   "underlying_type" : "type-29",
   "unique_id" : "_ZTSN7android8hardware4wifi10supplicant4V1_019ISupplicantStaIface17BtCoexistenceModeE"
  },
  {
   "alignment" : 4,
   "enum_fields" :
   [
    {
     "enum_field_value" : 10,
     "name" : "android::hardware::wifi::supplicant::V1_0::ISupplicantStaIface::ExtRadioWorkDefaults::TIMEOUT_IN_SECS"
    }
   ],
   "linker_set_key" : "android::hardware::wifi::supplicant::V1_0::ISupplicantStaIface::ExtRadioWorkDefaults",
   "name" : "android::hardware::wifi::supplicant::V1_0::ISupplicantStaIface::ExtRadioWorkDefaults",
   "referenced_type" : "type-466",
   "self_type" : "type-466",
   "size" : 4,
   "source_file" : "/out/soong/.intermediates/hardware/interfaces/wifi/supplicant/1.0/android.hardware.wifi.supplicant@1.0_genc++_headers/gen/android/hardware/wifi/supplicant/1.0/ISupplicantStaIface.h",
   "underlying_type" : "type-2",
   "unique_id" : "_ZTSN7android8hardware4wifi10supplicant4V1_019ISupplicantStaIface20ExtRadioWorkDefaultsE"
  },
  {
   "alignment" : 4,
   "enum_fields" :
   [
    {
     "enum_field_value" : 3,
     "name" : "android::hardware::wifi::supplicant::V1_0::ISupplicantStaIface::Hs20AnqpSubtypes::OPERATOR_FRIENDLY_NAME"
    },
    {
     "enum_field_value" : 4,
     "name" : "android::hardware::wifi::supplicant::V1_0::ISupplicantStaIface::Hs20AnqpSubtypes::WAN_METRICS"
    },
    {
     "enum_field_value" : 5,
     "name" : "android::hardware::wifi::supplicant::V1_0::ISupplicantStaIface::Hs20AnqpSubtypes::CONNECTION_CAPABILITY"
    },
    {
     "enum_field_value" : 8,
     "name" : "android::hardware::wifi::supplicant::V1_0::ISupplicantStaIface::Hs20AnqpSubtypes::OSU_PROVIDERS_LIST"
    }
   ],
   "linker_set_key" : "android::hardware::wifi::supplicant::V1_0::ISupplicantStaIface::Hs20AnqpSubtypes",
   "name" : "android::hardware::wifi::supplicant::V1_0::ISupplicantStaIface::Hs20AnqpSubtypes",
   "referenced_type" : "type-319",
   "self_type" : "type-319",
   "size" : 4,
   "source_file" : "/out/soong/.intermediates/hardware/interfaces/wifi/supplicant/1.0/android.hardware.wifi.supplicant@1.0_genc++_headers/gen/android/hardware/wifi/supplicant/1.0/ISupplicantStaIface.h",
   "underlying_type" : "type-2",
   "unique_id" : "_ZTSN7android8hardware4wifi10supplicant4V1_019ISupplicantStaIface16Hs20AnqpSubtypesE"
  },
  {
   "alignment" : 1,
   "enum_fields" :
   [
    {
     "enum_field_value" : 0,
     "name" : "android::hardware::wifi::supplicant::V1_0::ISupplicantStaIface::RxFilterType::V4_MULTICAST"
    },
    {
     "enum_field_value" : 1,
     "name" : "android::hardware::wifi::supplicant::V1_0::ISupplicantStaIface::RxFilterType::V6_MULTICAST"
    }
   ],
   "linker_set_key" : "android::hardware::wifi::supplicant::V1_0::ISupplicantStaIface::RxFilterType",
   "name" : "android::hardware::wifi::supplicant::V1_0::ISupplicantStaIface::RxFilterType",
   "referenced_type" : "type-463",
   "self_type" : "type-463",
   "size" : 1,
   "source_file" : "/out/soong/.intermediates/hardware/interfaces/wifi/supplicant/1.0/android.hardware.wifi.supplicant@1.0_genc++_headers/gen/android/hardware/wifi/supplicant/1.0/ISupplicantStaIface.h",
   "underlying_type" : "type-29",
   "unique_id" : "_ZTSN7android8hardware4wifi10supplicant4V1_019ISupplicantStaIface12RxFilterTypeE"
  },
  {
   "alignment" : 1,
   "enum_fields" :
   [
    {
     "enum_field_value" : 0,
     "name" : "android::hardware::wifi::supplicant::V1_0::ISupplicantStaIfaceCallback::BssidChangeReason::ASSOC_START"
    },
    {
     "enum_field_value" : 1,
     "name" : "android::hardware::wifi::supplicant::V1_0::ISupplicantStaIfaceCallback::BssidChangeReason::ASSOC_COMPLETE"
    },
    {
     "enum_field_value" : 2,
     "name" : "android::hardware::wifi::supplicant::V1_0::ISupplicantStaIfaceCallback::BssidChangeReason::DISASSOC"
    }
   ],
   "linker_set_key" : "android::hardware::wifi::supplicant::V1_0::ISupplicantStaIfaceCallback::BssidChangeReason",
   "name" : "android::hardware::wifi::supplicant::V1_0::ISupplicantStaIfaceCallback::BssidChangeReason",
   "referenced_type" : "type-439",
   "self_type" : "type-439",
   "size" : 1,
   "source_file" : "/out/soong/.intermediates/hardware/interfaces/wifi/supplicant/1.0/android.hardware.wifi.supplicant@1.0_genc++_headers/gen/android/hardware/wifi/supplicant/1.0/ISupplicantStaIfaceCallback.h",
   "underlying_type" : "type-29",
   "unique_id" : "_ZTSN7android8hardware4wifi10supplicant4V1_027ISupplicantStaIfaceCallback17BssidChangeReasonE"
  },
  {
   "alignment" : 1,
   "enum_fields" :
   [
    {
     "enum_field_value" : 0,
     "name" : "android::hardware::wifi::supplicant::V1_0::ISupplicantStaIfaceCallback::OsuMethod::OMA_DM"
    },
    {
     "enum_field_value" : 1,
     "name" : "android::hardware::wifi::supplicant::V1_0::ISupplicantStaIfaceCallback::OsuMethod::SOAP_XML_SPP"
    }
   ],
   "linker_set_key" : "android::hardware::wifi::supplicant::V1_0::ISupplicantStaIfaceCallback::OsuMethod",
   "name" : "android::hardware::wifi::supplicant::V1_0::ISupplicantStaIfaceCallback::OsuMethod",
   "referenced_type" : "type-430",
   "self_type" : "type-430",
   "size" : 1,
   "source_file" : "/out/soong/.intermediates/hardware/interfaces/wifi/supplicant/1.0/android.hardware.wifi.supplicant@1.0_genc++_headers/gen/android/hardware/wifi/supplicant/1.0/ISupplicantStaIfaceCallback.h",
   "underlying_type" : "type-29",
   "unique_id" : "_ZTSN7android8hardware4wifi10supplicant4V1_027ISupplicantStaIfaceCallback9OsuMethodE"
  },
  {
   "alignment" : 4,
   "enum_fields" :
   [
    {
     "enum_field_value" : 1,
     "name" : "android::hardware::wifi::supplicant::V1_0::ISupplicantStaIfaceCallback::ReasonCode::UNSPECIFIED"
    },
    {
     "enum_field_value" : 2,
     "name" : "android::hardware::wifi::supplicant::V1_0::ISupplicantStaIfaceCallback::ReasonCode::PREV_AUTH_NOT_VALID"
    },
    {
     "enum_field_value" : 3,
     "name" : "android::hardware::wifi::supplicant::V1_0::ISupplicantStaIfaceCallback::ReasonCode::DEAUTH_LEAVING"
    },
    {
     "enum_field_value" : 4,
     "name" : "android::hardware::wifi::supplicant::V1_0::ISupplicantStaIfaceCallback::ReasonCode::DISASSOC_DUE_TO_INACTIVITY"
    },
    {
     "enum_field_value" : 5,
     "name" : "android::hardware::wifi::supplicant::V1_0::ISupplicantStaIfaceCallback::ReasonCode::DISASSOC_AP_BUSY"
    },
    {
     "enum_field_value" : 6,
     "name" : "android::hardware::wifi::supplicant::V1_0::ISupplicantStaIfaceCallback::ReasonCode::CLASS2_FRAME_FROM_NONAUTH_STA"
    },
    {
     "enum_field_value" : 7,
     "name" : "android::hardware::wifi::supplicant::V1_0::ISupplicantStaIfaceCallback::ReasonCode::CLASS3_FRAME_FROM_NONASSOC_STA"
    },
    {
     "enum_field_value" : 8,
     "name" : "android::hardware::wifi::supplicant::V1_0::ISupplicantStaIfaceCallback::ReasonCode::DISASSOC_STA_HAS_LEFT"
    },
    {
     "enum_field_value" : 9,
     "name" : "android::hardware::wifi::supplicant::V1_0::ISupplicantStaIfaceCallback::ReasonCode::STA_REQ_ASSOC_WITHOUT_AUTH"
    },
    {
     "enum_field_value" : 10,
     "name" : "android::hardware::wifi::supplicant::V1_0::ISupplicantStaIfaceCallback::ReasonCode::PWR_CAPABILITY_NOT_VALID"
    },
    {
     "enum_field_value" : 11,
     "name" : "android::hardware::wifi::supplicant::V1_0::ISupplicantStaIfaceCallback::ReasonCode::SUPPORTED_CHANNEL_NOT_VALID"
    },
    {
     "enum_field_value" : 12,
     "name" : "android::hardware::wifi::supplicant::V1_0::ISupplicantStaIfaceCallback::ReasonCode::BSS_TRANSITION_DISASSOC"
    },
    {
     "enum_field_value" : 13,
     "name" : "android::hardware::wifi::supplicant::V1_0::ISupplicantStaIfaceCallback::ReasonCode::INVALID_IE"
    },
    {
     "enum_field_value" : 14,
     "name" : "android::hardware::wifi::supplicant::V1_0::ISupplicantStaIfaceCallback::ReasonCode::MICHAEL_MIC_FAILURE"
    },
    {
     "enum_field_value" : 15,
     "name" : "android::hardware::wifi::supplicant::V1_0::ISupplicantStaIfaceCallback::ReasonCode::FOURWAY_HANDSHAKE_TIMEOUT"
    },
    {
     "enum_field_value" : 16,
     "name" : "android::hardware::wifi::supplicant::V1_0::ISupplicantStaIfaceCallback::ReasonCode::GROUP_KEY_UPDATE_TIMEOUT"
    },
    {
     "enum_field_value" : 17,
     "name" : "android::hardware::wifi::supplicant::V1_0::ISupplicantStaIfaceCallback::ReasonCode::IE_IN_4WAY_DIFFERS"
    },
    {
     "enum_field_value" : 18,
     "name" : "android::hardware::wifi::supplicant::V1_0::ISupplicantStaIfaceCallback::ReasonCode::GROUP_CIPHER_NOT_VALID"
    },
    {
     "enum_field_value" : 19,
     "name" : "android::hardware::wifi::supplicant::V1_0::ISupplicantStaIfaceCallback::ReasonCode::PAIRWISE_CIPHER_NOT_VALID"
    },
    {
     "enum_field_value" : 20,
     "name" : "android::hardware::wifi::supplicant::V1_0::ISupplicantStaIfaceCallback::ReasonCode::AKMP_NOT_VALID"
    },
    {
     "enum_field_value" : 21,
     "name" : "android::hardware::wifi::supplicant::V1_0::ISupplicantStaIfaceCallback::ReasonCode::UNSUPPORTED_RSN_IE_VERSION"
    },
    {
     "enum_field_value" : 22,
     "name" : "android::hardware::wifi::supplicant::V1_0::ISupplicantStaIfaceCallback::ReasonCode::INVALID_RSN_IE_CAPAB"
    },
    {
     "enum_field_value" : 23,
     "name" : "android::hardware::wifi::supplicant::V1_0::ISupplicantStaIfaceCallback::ReasonCode::IEEE_802_1X_AUTH_FAILED"
    },
    {
     "enum_field_value" : 24,
     "name" : "android::hardware::wifi::supplicant::V1_0::ISupplicantStaIfaceCallback::ReasonCode::CIPHER_SUITE_REJECTED"
    },
    {
     "enum_field_value" : 25,
     "name" : "android::hardware::wifi::supplicant::V1_0::ISupplicantStaIfaceCallback::ReasonCode::TDLS_TEARDOWN_UNREACHABLE"
    },
    {
     "enum_field_value" : 26,
     "name" : "android::hardware::wifi::supplicant::V1_0::ISupplicantStaIfaceCallback::ReasonCode::TDLS_TEARDOWN_UNSPECIFIED"
    },
    {
     "enum_field_value" : 27,
     "name" : "android::hardware::wifi::supplicant::V1_0::ISupplicantStaIfaceCallback::ReasonCode::SSP_REQUESTED_DISASSOC"
    },
    {
     "enum_field_value" : 28,
     "name" : "android::hardware::wifi::supplicant::V1_0::ISupplicantStaIfaceCallback::ReasonCode::NO_SSP_ROAMING_AGREEMENT"
    },
    {
     "enum_field_value" : 29,
     "name" : "android::hardware::wifi::supplicant::V1_0::ISupplicantStaIfaceCallback::ReasonCode::BAD_CIPHER_OR_AKM"
    },
    {
     "enum_field_value" : 30,
     "name" : "android::hardware::wifi::supplicant::V1_0::ISupplicantStaIfaceCallback::ReasonCode::NOT_AUTHORIZED_THIS_LOCATION"
    },
    {
     "enum_field_value" : 31,
     "name" : "android::hardware::wifi::supplicant::V1_0::ISupplicantStaIfaceCallback::ReasonCode::SERVICE_CHANGE_PRECLUDES_TS"
    },
    {
     "enum_field_value" : 32,
     "name" : "android::hardware::wifi::supplicant::V1_0::ISupplicantStaIfaceCallback::ReasonCode::UNSPECIFIED_QOS_REASON"
    },
    {
     "enum_field_value" : 33,
     "name" : "android::hardware::wifi::supplicant::V1_0::ISupplicantStaIfaceCallback::ReasonCode::NOT_ENOUGH_BANDWIDTH"
    },
    {
     "enum_field_value" : 34,
     "name" : "android::hardware::wifi::supplicant::V1_0::ISupplicantStaIfaceCallback::ReasonCode::DISASSOC_LOW_ACK"
    },
    {
     "enum_field_value" : 35,
     "name" : "android::hardware::wifi::supplicant::V1_0::ISupplicantStaIfaceCallback::ReasonCode::EXCEEDED_TXOP"
    },
    {
     "enum_field_value" : 36,
     "name" : "android::hardware::wifi::supplicant::V1_0::ISupplicantStaIfaceCallback::ReasonCode::STA_LEAVING"
    },
    {
     "enum_field_value" : 37,
     "name" : "android::hardware::wifi::supplicant::V1_0::ISupplicantStaIfaceCallback::ReasonCode::END_TS_BA_DLS"
    },
    {
     "enum_field_value" : 38,
     "name" : "android::hardware::wifi::supplicant::V1_0::ISupplicantStaIfaceCallback::ReasonCode::UNKNOWN_TS_BA"
    },
    {
     "enum_field_value" : 39,
     "name" : "android::hardware::wifi::supplicant::V1_0::ISupplicantStaIfaceCallback::ReasonCode::TIMEOUT"
    },
    {
     "enum_field_value" : 45,
     "name" : "android::hardware::wifi::supplicant::V1_0::ISupplicantStaIfaceCallback::ReasonCode::PEERKEY_MISMATCH"
    },
    {
     "enum_field_value" : 46,
     "name" : "android::hardware::wifi::supplicant::V1_0::ISupplicantStaIfaceCallback::ReasonCode::AUTHORIZED_ACCESS_LIMIT_REACHED"
    },
    {
     "enum_field_value" : 47,
     "name" : "android::hardware::wifi::supplicant::V1_0::ISupplicantStaIfaceCallback::ReasonCode::EXTERNAL_SERVICE_REQUIREMENTS"
    },
    {
     "enum_field_value" : 48,
     "name" : "android::hardware::wifi::supplicant::V1_0::ISupplicantStaIfaceCallback::ReasonCode::INVALID_FT_ACTION_FRAME_COUNT"
    },
    {
     "enum_field_value" : 49,
     "name" : "android::hardware::wifi::supplicant::V1_0::ISupplicantStaIfaceCallback::ReasonCode::INVALID_PMKID"
    },
    {
     "enum_field_value" : 50,
     "name" : "android::hardware::wifi::supplicant::V1_0::ISupplicantStaIfaceCallback::ReasonCode::INVALID_MDE"
    },
    {
     "enum_field_value" : 51,
     "name" : "android::hardware::wifi::supplicant::V1_0::ISupplicantStaIfaceCallback::ReasonCode::INVALID_FTE"
    },
    {
     "enum_field_value" : 52,
     "name" : "android::hardware::wifi::supplicant::V1_0::ISupplicantStaIfaceCallback::ReasonCode::MESH_PEERING_CANCELLED"
    },
    {
     "enum_field_value" : 53,
     "name" : "android::hardware::wifi::supplicant::V1_0::ISupplicantStaIfaceCallback::ReasonCode::MESH_MAX_PEERS"
    },
    {
     "enum_field_value" : 54,
     "name" : "android::hardware::wifi::supplicant::V1_0::ISupplicantStaIfaceCallback::ReasonCode::MESH_CONFIG_POLICY_VIOLATION"
    },
    {
     "enum_field_value" : 55,
     "name" : "android::hardware::wifi::supplicant::V1_0::ISupplicantStaIfaceCallback::ReasonCode::MESH_CLOSE_RCVD"
    },
    {
     "enum_field_value" : 56,
     "name" : "android::hardware::wifi::supplicant::V1_0::ISupplicantStaIfaceCallback::ReasonCode::MESH_MAX_RETRIES"
    },
    {
     "enum_field_value" : 57,
     "name" : "android::hardware::wifi::supplicant::V1_0::ISupplicantStaIfaceCallback::ReasonCode::MESH_CONFIRM_TIMEOUT"
    },
    {
     "enum_field_value" : 58,
     "name" : "android::hardware::wifi::supplicant::V1_0::ISupplicantStaIfaceCallback::ReasonCode::MESH_INVALID_GTK"
    },
    {
     "enum_field_value" : 59,
     "name" : "android::hardware::wifi::supplicant::V1_0::ISupplicantStaIfaceCallback::ReasonCode::MESH_INCONSISTENT_PARAMS"
    },
    {
     "enum_field_value" : 60,
     "name" : "android::hardware::wifi::supplicant::V1_0::ISupplicantStaIfaceCallback::ReasonCode::MESH_INVALID_SECURITY_CAP"
    },
    {
     "enum_field_value" : 61,
     "name" : "android::hardware::wifi::supplicant::V1_0::ISupplicantStaIfaceCallback::ReasonCode::MESH_PATH_ERROR_NO_PROXY_INFO"
    },
    {
     "enum_field_value" : 62,
     "name" : "android::hardware::wifi::supplicant::V1_0::ISupplicantStaIfaceCallback::ReasonCode::MESH_PATH_ERROR_NO_FORWARDING_INFO"
    },
    {
     "enum_field_value" : 63,
     "name" : "android::hardware::wifi::supplicant::V1_0::ISupplicantStaIfaceCallback::ReasonCode::MESH_PATH_ERROR_DEST_UNREACHABLE"
    },
    {
     "enum_field_value" : 64,
     "name" : "android::hardware::wifi::supplicant::V1_0::ISupplicantStaIfaceCallback::ReasonCode::MAC_ADDRESS_ALREADY_EXISTS_IN_MBSS"
    },
    {
     "enum_field_value" : 65,
     "name" : "android::hardware::wifi::supplicant::V1_0::ISupplicantStaIfaceCallback::ReasonCode::MESH_CHANNEL_SWITCH_REGULATORY_REQ"
    },
    {
     "enum_field_value" : 66,
     "name" : "android::hardware::wifi::supplicant::V1_0::ISupplicantStaIfaceCallback::ReasonCode::MESH_CHANNEL_SWITCH_UNSPECIFIED"
    }
   ],
   "linker_set_key" : "android::hardware::wifi::supplicant::V1_0::ISupplicantStaIfaceCallback::ReasonCode",
   "name" : "android::hardware::wifi::supplicant::V1_0::ISupplicantStaIfaceCallback::ReasonCode",
   "referenced_type" : "type-438",
   "self_type" : "type-438",
   "size" : 4,
   "source_file" : "/out/soong/.intermediates/hardware/interfaces/wifi/supplicant/1.0/android.hardware.wifi.supplicant@1.0_genc++_headers/gen/android/hardware/wifi/supplicant/1.0/ISupplicantStaIfaceCallback.h",
   "underlying_type" : "type-2",
   "unique_id" : "_ZTSN7android8hardware4wifi10supplicant4V1_027ISupplicantStaIfaceCallback10ReasonCodeE"
  },
  {
   "alignment" : 4,
   "enum_fields" :
   [
    {
     "enum_field_value" : 0,
     "name" : "android::hardware::wifi::supplicant::V1_0::ISupplicantStaIfaceCallback::State::DISCONNECTED"
    },
    {
     "enum_field_value" : 1,
     "name" : "android::hardware::wifi::supplicant::V1_0::ISupplicantStaIfaceCallback::State::IFACE_DISABLED"
    },
    {
     "enum_field_value" : 2,
     "name" : "android::hardware::wifi::supplicant::V1_0::ISupplicantStaIfaceCallback::State::INACTIVE"
    },
    {
     "enum_field_value" : 3,
     "name" : "android::hardware::wifi::supplicant::V1_0::ISupplicantStaIfaceCallback::State::SCANNING"
    },
    {
     "enum_field_value" : 4,
     "name" : "android::hardware::wifi::supplicant::V1_0::ISupplicantStaIfaceCallback::State::AUTHENTICATING"
    },
    {
     "enum_field_value" : 5,
     "name" : "android::hardware::wifi::supplicant::V1_0::ISupplicantStaIfaceCallback::State::ASSOCIATING"
    },
    {
     "enum_field_value" : 6,
     "name" : "android::hardware::wifi::supplicant::V1_0::ISupplicantStaIfaceCallback::State::ASSOCIATED"
    },
    {
     "enum_field_value" : 7,
     "name" : "android::hardware::wifi::supplicant::V1_0::ISupplicantStaIfaceCallback::State::FOURWAY_HANDSHAKE"
    },
    {
     "enum_field_value" : 8,
     "name" : "android::hardware::wifi::supplicant::V1_0::ISupplicantStaIfaceCallback::State::GROUP_HANDSHAKE"
    },
    {
     "enum_field_value" : 9,
     "name" : "android::hardware::wifi::supplicant::V1_0::ISupplicantStaIfaceCallback::State::COMPLETED"
    }
   ],
   "linker_set_key" : "android::hardware::wifi::supplicant::V1_0::ISupplicantStaIfaceCallback::State",
   "name" : "android::hardware::wifi::supplicant::V1_0::ISupplicantStaIfaceCallback::State",
   "referenced_type" : "type-429",
   "self_type" : "type-429",
   "size" : 4,
   "source_file" : "/out/soong/.intermediates/hardware/interfaces/wifi/supplicant/1.0/android.hardware.wifi.supplicant@1.0_genc++_headers/gen/android/hardware/wifi/supplicant/1.0/ISupplicantStaIfaceCallback.h",
   "underlying_type" : "type-2",
   "unique_id" : "_ZTSN7android8hardware4wifi10supplicant4V1_027ISupplicantStaIfaceCallback5StateE"
  },
  {
   "alignment" : 4,
   "enum_fields" :
   [
    {
     "enum_field_value" : 0,
     "name" : "android::hardware::wifi::supplicant::V1_0::ISupplicantStaIfaceCallback::StatusCode::SUCCESS"
    },
    {
     "enum_field_value" : 1,
     "name" : "android::hardware::wifi::supplicant::V1_0::ISupplicantStaIfaceCallback::StatusCode::UNSPECIFIED_FAILURE"
    },
    {
     "enum_field_value" : 2,
     "name" : "android::hardware::wifi::supplicant::V1_0::ISupplicantStaIfaceCallback::StatusCode::TDLS_WAKEUP_ALTERNATE"
    },
    {
     "enum_field_value" : 3,
     "name" : "android::hardware::wifi::supplicant::V1_0::ISupplicantStaIfaceCallback::StatusCode::TDLS_WAKEUP_REJECT"
    },
    {
     "enum_field_value" : 5,
     "name" : "android::hardware::wifi::supplicant::V1_0::ISupplicantStaIfaceCallback::StatusCode::SECURITY_DISABLED"
    },
    {
     "enum_field_value" : 6,
     "name" : "android::hardware::wifi::supplicant::V1_0::ISupplicantStaIfaceCallback::StatusCode::UNACCEPTABLE_LIFETIME"
    },
    {
     "enum_field_value" : 7,
     "name" : "android::hardware::wifi::supplicant::V1_0::ISupplicantStaIfaceCallback::StatusCode::NOT_IN_SAME_BSS"
    },
    {
     "enum_field_value" : 10,
     "name" : "android::hardware::wifi::supplicant::V1_0::ISupplicantStaIfaceCallback::StatusCode::CAPS_UNSUPPORTED"
    },
    {
     "enum_field_value" : 11,
     "name" : "android::hardware::wifi::supplicant::V1_0::ISupplicantStaIfaceCallback::StatusCode::REASSOC_NO_ASSOC"
    },
    {
     "enum_field_value" : 12,
     "name" : "android::hardware::wifi::supplicant::V1_0::ISupplicantStaIfaceCallback::StatusCode::ASSOC_DENIED_UNSPEC"
    },
    {
     "enum_field_value" : 13,
     "name" : "android::hardware::wifi::supplicant::V1_0::ISupplicantStaIfaceCallback::StatusCode::NOT_SUPPORTED_AUTH_ALG"
    },
    {
     "enum_field_value" : 14,
     "name" : "android::hardware::wifi::supplicant::V1_0::ISupplicantStaIfaceCallback::StatusCode::UNKNOWN_AUTH_TRANSACTION"
    },
    {
     "enum_field_value" : 15,
     "name" : "android::hardware::wifi::supplicant::V1_0::ISupplicantStaIfaceCallback::StatusCode::CHALLENGE_FAIL"
    },
    {
     "enum_field_value" : 16,
     "name" : "android::hardware::wifi::supplicant::V1_0::ISupplicantStaIfaceCallback::StatusCode::AUTH_TIMEOUT"
    },
    {
     "enum_field_value" : 17,
     "name" : "android::hardware::wifi::supplicant::V1_0::ISupplicantStaIfaceCallback::StatusCode::AP_UNABLE_TO_HANDLE_NEW_STA"
    },
    {
     "enum_field_value" : 18,
     "name" : "android::hardware::wifi::supplicant::V1_0::ISupplicantStaIfaceCallback::StatusCode::ASSOC_DENIED_RATES"
    },
    {
     "enum_field_value" : 19,
     "name" : "android::hardware::wifi::supplicant::V1_0::ISupplicantStaIfaceCallback::StatusCode::ASSOC_DENIED_NOSHORT"
    },
    {
     "enum_field_value" : 22,
     "name" : "android::hardware::wifi::supplicant::V1_0::ISupplicantStaIfaceCallback::StatusCode::SPEC_MGMT_REQUIRED"
    },
    {
     "enum_field_value" : 23,
     "name" : "android::hardware::wifi::supplicant::V1_0::ISupplicantStaIfaceCallback::StatusCode::PWR_CAPABILITY_NOT_VALID"
    },
    {
     "enum_field_value" : 24,
     "name" : "android::hardware::wifi::supplicant::V1_0::ISupplicantStaIfaceCallback::StatusCode::SUPPORTED_CHANNEL_NOT_VALID"
    },
    {
     "enum_field_value" : 25,
     "name" : "android::hardware::wifi::supplicant::V1_0::ISupplicantStaIfaceCallback::StatusCode::ASSOC_DENIED_NO_SHORT_SLOT_TIME"
    },
    {
     "enum_field_value" : 27,
     "name" : "android::hardware::wifi::supplicant::V1_0::ISupplicantStaIfaceCallback::StatusCode::ASSOC_DENIED_NO_HT"
    },
    {
     "enum_field_value" : 28,
     "name" : "android::hardware::wifi::supplicant::V1_0::ISupplicantStaIfaceCallback::StatusCode::R0KH_UNREACHABLE"
    },
    {
     "enum_field_value" : 29,
     "name" : "android::hardware::wifi::supplicant::V1_0::ISupplicantStaIfaceCallback::StatusCode::ASSOC_DENIED_NO_PCO"
    },
    {
     "enum_field_value" : 30,
     "name" : "android::hardware::wifi::supplicant::V1_0::ISupplicantStaIfaceCallback::StatusCode::ASSOC_REJECTED_TEMPORARILY"
    },
    {
     "enum_field_value" : 31,
     "name" : "android::hardware::wifi::supplicant::V1_0::ISupplicantStaIfaceCallback::StatusCode::ROBUST_MGMT_FRAME_POLICY_VIOLATION"
    },
    {
     "enum_field_value" : 32,
     "name" : "android::hardware::wifi::supplicant::V1_0::ISupplicantStaIfaceCallback::StatusCode::UNSPECIFIED_QOS_FAILURE"
    },
    {
     "enum_field_value" : 33,
     "name" : "android::hardware::wifi::supplicant::V1_0::ISupplicantStaIfaceCallback::StatusCode::DENIED_INSUFFICIENT_BANDWIDTH"
    },
    {
     "enum_field_value" : 34,
     "name" : "android::hardware::wifi::supplicant::V1_0::ISupplicantStaIfaceCallback::StatusCode::DENIED_POOR_CHANNEL_CONDITIONS"
    },
    {
     "enum_field_value" : 35,
     "name" : "android::hardware::wifi::supplicant::V1_0::ISupplicantStaIfaceCallback::StatusCode::DENIED_QOS_NOT_SUPPORTED"
    },
    {
     "enum_field_value" : 37,
     "name" : "android::hardware::wifi::supplicant::V1_0::ISupplicantStaIfaceCallback::StatusCode::REQUEST_DECLINED"
    },
    {
     "enum_field_value" : 38,
     "name" : "android::hardware::wifi::supplicant::V1_0::ISupplicantStaIfaceCallback::StatusCode::INVALID_PARAMETERS"
    },
    {
     "enum_field_value" : 39,
     "name" : "android::hardware::wifi::supplicant::V1_0::ISupplicantStaIfaceCallback::StatusCode::REJECTED_WITH_SUGGESTED_CHANGES"
    },
    {
     "enum_field_value" : 40,
     "name" : "android::hardware::wifi::supplicant::V1_0::ISupplicantStaIfaceCallback::StatusCode::INVALID_IE"
    },
    {
     "enum_field_value" : 41,
     "name" : "android::hardware::wifi::supplicant::V1_0::ISupplicantStaIfaceCallback::StatusCode::GROUP_CIPHER_NOT_VALID"
    },
    {
     "enum_field_value" : 42,
     "name" : "android::hardware::wifi::supplicant::V1_0::ISupplicantStaIfaceCallback::StatusCode::PAIRWISE_CIPHER_NOT_VALID"
    },
    {
     "enum_field_value" : 43,
     "name" : "android::hardware::wifi::supplicant::V1_0::ISupplicantStaIfaceCallback::StatusCode::AKMP_NOT_VALID"
    },
    {
     "enum_field_value" : 44,
     "name" : "android::hardware::wifi::supplicant::V1_0::ISupplicantStaIfaceCallback::StatusCode::UNSUPPORTED_RSN_IE_VERSION"
    },
    {
     "enum_field_value" : 45,
     "name" : "android::hardware::wifi::supplicant::V1_0::ISupplicantStaIfaceCallback::StatusCode::INVALID_RSN_IE_CAPAB"
    },
    {
     "enum_field_value" : 46,
     "name" : "android::hardware::wifi::supplicant::V1_0::ISupplicantStaIfaceCallback::StatusCode::CIPHER_REJECTED_PER_POLICY"
    },
    {
     "enum_field_value" : 47,
     "name" : "android::hardware::wifi::supplicant::V1_0::ISupplicantStaIfaceCallback::StatusCode::TS_NOT_CREATED"
    },
    {
     "enum_field_value" : 48,
     "name" : "android::hardware::wifi::supplicant::V1_0::ISupplicantStaIfaceCallback::StatusCode::DIRECT_LINK_NOT_ALLOWED"
    },
    {
     "enum_field_value" : 49,
     "name" : "android::hardware::wifi::supplicant::V1_0::ISupplicantStaIfaceCallback::StatusCode::DEST_STA_NOT_PRESENT"
    },
    {
     "enum_field_value" : 50,
     "name" : "android::hardware::wifi::supplicant::V1_0::ISupplicantStaIfaceCallback::StatusCode::DEST_STA_NOT_QOS_STA"
    },
    {
     "enum_field_value" : 51,
     "name" : "android::hardware::wifi::supplicant::V1_0::ISupplicantStaIfaceCallback::StatusCode::ASSOC_DENIED_LISTEN_INT_TOO_LARGE"
    },
    {
     "enum_field_value" : 52,
     "name" : "android::hardware::wifi::supplicant::V1_0::ISupplicantStaIfaceCallback::StatusCode::INVALID_FT_ACTION_FRAME_COUNT"
    },
    {
     "enum_field_value" : 53,
     "name" : "android::hardware::wifi::supplicant::V1_0::ISupplicantStaIfaceCallback::StatusCode::INVALID_PMKID"
    },
    {
     "enum_field_value" : 54,
     "name" : "android::hardware::wifi::supplicant::V1_0::ISupplicantStaIfaceCallback::StatusCode::INVALID_MDIE"
    },
    {
     "enum_field_value" : 55,
     "name" : "android::hardware::wifi::supplicant::V1_0::ISupplicantStaIfaceCallback::StatusCode::INVALID_FTIE"
    },
    {
     "enum_field_value" : 56,
     "name" : "android::hardware::wifi::supplicant::V1_0::ISupplicantStaIfaceCallback::StatusCode::REQUESTED_TCLAS_NOT_SUPPORTED"
    },
    {
     "enum_field_value" : 57,
     "name" : "android::hardware::wifi::supplicant::V1_0::ISupplicantStaIfaceCallback::StatusCode::INSUFFICIENT_TCLAS_PROCESSING_RESOURCES"
    },
    {
     "enum_field_value" : 58,
     "name" : "android::hardware::wifi::supplicant::V1_0::ISupplicantStaIfaceCallback::StatusCode::TRY_ANOTHER_BSS"
    },
    {
     "enum_field_value" : 59,
     "name" : "android::hardware::wifi::supplicant::V1_0::ISupplicantStaIfaceCallback::StatusCode::GAS_ADV_PROTO_NOT_SUPPORTED"
    },
    {
     "enum_field_value" : 60,
     "name" : "android::hardware::wifi::supplicant::V1_0::ISupplicantStaIfaceCallback::StatusCode::NO_OUTSTANDING_GAS_REQ"
    },
    {
     "enum_field_value" : 61,
     "name" : "android::hardware::wifi::supplicant::V1_0::ISupplicantStaIfaceCallback::StatusCode::GAS_RESP_NOT_RECEIVED"
    },
    {
     "enum_field_value" : 62,
     "name" : "android::hardware::wifi::supplicant::V1_0::ISupplicantStaIfaceCallback::StatusCode::STA_TIMED_OUT_WAITING_FOR_GAS_RESP"
    },
    {
     "enum_field_value" : 63,
     "name" : "android::hardware::wifi::supplicant::V1_0::ISupplicantStaIfaceCallback::StatusCode::GAS_RESP_LARGER_THAN_LIMIT"
    },
    {
     "enum_field_value" : 64,
     "name" : "android::hardware::wifi::supplicant::V1_0::ISupplicantStaIfaceCallback::StatusCode::REQ_REFUSED_HOME"
    },
    {
     "enum_field_value" : 65,
     "name" : "android::hardware::wifi::supplicant::V1_0::ISupplicantStaIfaceCallback::StatusCode::ADV_SRV_UNREACHABLE"
    },
    {
     "enum_field_value" : 67,
     "name" : "android::hardware::wifi::supplicant::V1_0::ISupplicantStaIfaceCallback::StatusCode::REQ_REFUSED_SSPN"
    },
    {
     "enum_field_value" : 68,
     "name" : "android::hardware::wifi::supplicant::V1_0::ISupplicantStaIfaceCallback::StatusCode::REQ_REFUSED_UNAUTH_ACCESS"
    },
    {
     "enum_field_value" : 72,
     "name" : "android::hardware::wifi::supplicant::V1_0::ISupplicantStaIfaceCallback::StatusCode::INVALID_RSNIE"
    },
    {
     "enum_field_value" : 73,
     "name" : "android::hardware::wifi::supplicant::V1_0::ISupplicantStaIfaceCallback::StatusCode::U_APSD_COEX_NOT_SUPPORTED"
    },
    {
     "enum_field_value" : 74,
     "name" : "android::hardware::wifi::supplicant::V1_0::ISupplicantStaIfaceCallback::StatusCode::U_APSD_COEX_MODE_NOT_SUPPORTED"
    },
    {
     "enum_field_value" : 75,
     "name" : "android::hardware::wifi::supplicant::V1_0::ISupplicantStaIfaceCallback::StatusCode::BAD_INTERVAL_WITH_U_APSD_COEX"
    },
    {
     "enum_field_value" : 76,
     "name" : "android::hardware::wifi::supplicant::V1_0::ISupplicantStaIfaceCallback::StatusCode::ANTI_CLOGGING_TOKEN_REQ"
    },
    {
     "enum_field_value" : 77,
     "name" : "android::hardware::wifi::supplicant::V1_0::ISupplicantStaIfaceCallback::StatusCode::FINITE_CYCLIC_GROUP_NOT_SUPPORTED"
    },
    {
     "enum_field_value" : 78,
     "name" : "android::hardware::wifi::supplicant::V1_0::ISupplicantStaIfaceCallback::StatusCode::CANNOT_FIND_ALT_TBTT"
    },
    {
     "enum_field_value" : 79,
     "name" : "android::hardware::wifi::supplicant::V1_0::ISupplicantStaIfaceCallback::StatusCode::TRANSMISSION_FAILURE"
    },
    {
     "enum_field_value" : 80,
     "name" : "android::hardware::wifi::supplicant::V1_0::ISupplicantStaIfaceCallback::StatusCode::REQ_TCLAS_NOT_SUPPORTED"
    },
    {
     "enum_field_value" : 81,
     "name" : "android::hardware::wifi::supplicant::V1_0::ISupplicantStaIfaceCallback::StatusCode::TCLAS_RESOURCES_EXCHAUSTED"
    },
    {
     "enum_field_value" : 82,
     "name" : "android::hardware::wifi::supplicant::V1_0::ISupplicantStaIfaceCallback::StatusCode::REJECTED_WITH_SUGGESTED_BSS_TRANSITION"
    },
    {
     "enum_field_value" : 83,
     "name" : "android::hardware::wifi::supplicant::V1_0::ISupplicantStaIfaceCallback::StatusCode::REJECT_WITH_SCHEDULE"
    },
    {
     "enum_field_value" : 84,
     "name" : "android::hardware::wifi::supplicant::V1_0::ISupplicantStaIfaceCallback::StatusCode::REJECT_NO_WAKEUP_SPECIFIED"
    },
    {
     "enum_field_value" : 85,
     "name" : "android::hardware::wifi::supplicant::V1_0::ISupplicantStaIfaceCallback::StatusCode::SUCCESS_POWER_SAVE_MODE"
    },
    {
     "enum_field_value" : 86,
     "name" : "android::hardware::wifi::supplicant::V1_0::ISupplicantStaIfaceCallback::StatusCode::PENDING_ADMITTING_FST_SESSION"
    },
    {
     "enum_field_value" : 87,
     "name" : "android::hardware::wifi::supplicant::V1_0::ISupplicantStaIfaceCallback::StatusCode::PERFORMING_FST_NOW"
    },
    {
     "enum_field_value" : 88,
     "name" : "android::hardware::wifi::supplicant::V1_0::ISupplicantStaIfaceCallback::StatusCode::PENDING_GAP_IN_BA_WINDOW"
    },
    {
     "enum_field_value" : 89,
     "name" : "android::hardware::wifi::supplicant::V1_0::ISupplicantStaIfaceCallback::StatusCode::REJECT_U_PID_SETTING"
    },
    {
     "enum_field_value" : 92,
     "name" : "android::hardware::wifi::supplicant::V1_0::ISupplicantStaIfaceCallback::StatusCode::REFUSED_EXTERNAL_REASON"
    },
    {
     "enum_field_value" : 93,
     "name" : "android::hardware::wifi::supplicant::V1_0::ISupplicantStaIfaceCallback::StatusCode::REFUSED_AP_OUT_OF_MEMORY"
    },
    {
     "enum_field_value" : 94,
     "name" : "android::hardware::wifi::supplicant::V1_0::ISupplicantStaIfaceCallback::StatusCode::REJECTED_EMERGENCY_SERVICE_NOT_SUPPORTED"
    },
    {
     "enum_field_value" : 95,
     "name" : "android::hardware::wifi::supplicant::V1_0::ISupplicantStaIfaceCallback::StatusCode::QUERY_RESP_OUTSTANDING"
    },
    {
     "enum_field_value" : 96,
     "name" : "android::hardware::wifi::supplicant::V1_0::ISupplicantStaIfaceCallback::StatusCode::REJECT_DSE_BAND"
    },
    {
     "enum_field_value" : 97,
     "name" : "android::hardware::wifi::supplicant::V1_0::ISupplicantStaIfaceCallback::StatusCode::TCLAS_PROCESSING_TERMINATED"
    },
    {
     "enum_field_value" : 98,
     "name" : "android::hardware::wifi::supplicant::V1_0::ISupplicantStaIfaceCallback::StatusCode::TS_SCHEDULE_CONFLICT"
    },
    {
     "enum_field_value" : 99,
     "name" : "android::hardware::wifi::supplicant::V1_0::ISupplicantStaIfaceCallback::StatusCode::DENIED_WITH_SUGGESTED_BAND_AND_CHANNEL"
    },
    {
     "enum_field_value" : 100,
     "name" : "android::hardware::wifi::supplicant::V1_0::ISupplicantStaIfaceCallback::StatusCode::MCCAOP_RESERVATION_CONFLICT"
    },
    {
     "enum_field_value" : 101,
     "name" : "android::hardware::wifi::supplicant::V1_0::ISupplicantStaIfaceCallback::StatusCode::MAF_LIMIT_EXCEEDED"
    },
    {
     "enum_field_value" : 102,
     "name" : "android::hardware::wifi::supplicant::V1_0::ISupplicantStaIfaceCallback::StatusCode::MCCA_TRACK_LIMIT_EXCEEDED"
    },
    {
     "enum_field_value" : 103,
     "name" : "android::hardware::wifi::supplicant::V1_0::ISupplicantStaIfaceCallback::StatusCode::DENIED_DUE_TO_SPECTRUM_MANAGEMENT"
    },
    {
     "enum_field_value" : 104,
     "name" : "android::hardware::wifi::supplicant::V1_0::ISupplicantStaIfaceCallback::StatusCode::ASSOC_DENIED_NO_VHT"
    },
    {
     "enum_field_value" : 105,
     "name" : "android::hardware::wifi::supplicant::V1_0::ISupplicantStaIfaceCallback::StatusCode::ENABLEMENT_DENIED"
    },
    {
     "enum_field_value" : 106,
     "name" : "android::hardware::wifi::supplicant::V1_0::ISupplicantStaIfaceCallback::StatusCode::RESTRICTION_FROM_AUTHORIZED_GDB"
    },
    {
     "enum_field_value" : 107,
     "name" : "android::hardware::wifi::supplicant::V1_0::ISupplicantStaIfaceCallback::StatusCode::AUTHORIZATION_DEENABLED"
    },
    {
     "enum_field_value" : 112,
     "name" : "android::hardware::wifi::supplicant::V1_0::ISupplicantStaIfaceCallback::StatusCode::FILS_AUTHENTICATION_FAILURE"
    },
    {
     "enum_field_value" : 113,
     "name" : "android::hardware::wifi::supplicant::V1_0::ISupplicantStaIfaceCallback::StatusCode::UNKNOWN_AUTHENTICATION_SERVER"
    }
   ],
   "linker_set_key" : "android::hardware::wifi::supplicant::V1_0::ISupplicantStaIfaceCallback::StatusCode",
   "name" : "android::hardware::wifi::supplicant::V1_0::ISupplicantStaIfaceCallback::StatusCode",
   "referenced_type" : "type-437",
   "self_type" : "type-437",
   "size" : 4,
   "source_file" : "/out/soong/.intermediates/hardware/interfaces/wifi/supplicant/1.0/android.hardware.wifi.supplicant@1.0_genc++_headers/gen/android/hardware/wifi/supplicant/1.0/ISupplicantStaIfaceCallback.h",
   "underlying_type" : "type-2",
   "unique_id" : "_ZTSN7android8hardware4wifi10supplicant4V1_027ISupplicantStaIfaceCallback10StatusCodeE"
  },
  {
   "alignment" : 2,
   "enum_fields" :
   [
    {
     "enum_field_value" : 0,
     "name" : "android::hardware::wifi::supplicant::V1_0::ISupplicantStaIfaceCallback::WpsConfigError::NO_ERROR"
    },
    {
     "enum_field_value" : 1,
     "name" : "android::hardware::wifi::supplicant::V1_0::ISupplicantStaIfaceCallback::WpsConfigError::OOB_IFACE_READ_ERROR"
    },
    {
     "enum_field_value" : 2,
     "name" : "android::hardware::wifi::supplicant::V1_0::ISupplicantStaIfaceCallback::WpsConfigError::DECRYPTION_CRC_FAILURE"
    },
    {
     "enum_field_value" : 3,
     "name" : "android::hardware::wifi::supplicant::V1_0::ISupplicantStaIfaceCallback::WpsConfigError::CHAN_24_NOT_SUPPORTED"
    },
    {
     "enum_field_value" : 4,
     "name" : "android::hardware::wifi::supplicant::V1_0::ISupplicantStaIfaceCallback::WpsConfigError::CHAN_50_NOT_SUPPORTED"
    },
    {
     "enum_field_value" : 5,
     "name" : "android::hardware::wifi::supplicant::V1_0::ISupplicantStaIfaceCallback::WpsConfigError::SIGNAL_TOO_WEAK"
    },
    {
     "enum_field_value" : 6,
     "name" : "android::hardware::wifi::supplicant::V1_0::ISupplicantStaIfaceCallback::WpsConfigError::NETWORK_AUTH_FAILURE"
    },
    {
     "enum_field_value" : 7,
     "name" : "android::hardware::wifi::supplicant::V1_0::ISupplicantStaIfaceCallback::WpsConfigError::NETWORK_ASSOC_FAILURE"
    },
    {
     "enum_field_value" : 8,
     "name" : "android::hardware::wifi::supplicant::V1_0::ISupplicantStaIfaceCallback::WpsConfigError::NO_DHCP_RESPONSE"
    },
    {
     "enum_field_value" : 9,
     "name" : "android::hardware::wifi::supplicant::V1_0::ISupplicantStaIfaceCallback::WpsConfigError::FAILED_DHCP_CONFIG"
    },
    {
     "enum_field_value" : 10,
     "name" : "android::hardware::wifi::supplicant::V1_0::ISupplicantStaIfaceCallback::WpsConfigError::IP_ADDR_CONFLICT"
    },
    {
     "enum_field_value" : 11,
     "name" : "android::hardware::wifi::supplicant::V1_0::ISupplicantStaIfaceCallback::WpsConfigError::NO_CONN_TO_REGISTRAR"
    },
    {
     "enum_field_value" : 12,
     "name" : "android::hardware::wifi::supplicant::V1_0::ISupplicantStaIfaceCallback::WpsConfigError::MULTIPLE_PBC_DETECTED"
    },
    {
     "enum_field_value" : 13,
     "name" : "android::hardware::wifi::supplicant::V1_0::ISupplicantStaIfaceCallback::WpsConfigError::ROGUE_SUSPECTED"
    },
    {
     "enum_field_value" : 14,
     "name" : "android::hardware::wifi::supplicant::V1_0::ISupplicantStaIfaceCallback::WpsConfigError::DEVICE_BUSY"
    },
    {
     "enum_field_value" : 15,
     "name" : "android::hardware::wifi::supplicant::V1_0::ISupplicantStaIfaceCallback::WpsConfigError::SETUP_LOCKED"
    },
    {
     "enum_field_value" : 16,
     "name" : "android::hardware::wifi::supplicant::V1_0::ISupplicantStaIfaceCallback::WpsConfigError::MSG_TIMEOUT"
    },
    {
     "enum_field_value" : 17,
     "name" : "android::hardware::wifi::supplicant::V1_0::ISupplicantStaIfaceCallback::WpsConfigError::REG_SESS_TIMEOUT"
    },
    {
     "enum_field_value" : 18,
     "name" : "android::hardware::wifi::supplicant::V1_0::ISupplicantStaIfaceCallback::WpsConfigError::DEV_PASSWORD_AUTH_FAILURE"
    },
    {
     "enum_field_value" : 19,
     "name" : "android::hardware::wifi::supplicant::V1_0::ISupplicantStaIfaceCallback::WpsConfigError::CHAN_60G_NOT_SUPPORTED"
    },
    {
     "enum_field_value" : 20,
     "name" : "android::hardware::wifi::supplicant::V1_0::ISupplicantStaIfaceCallback::WpsConfigError::PUBLIC_KEY_HASH_MISMATCH"
    }
   ],
   "linker_set_key" : "android::hardware::wifi::supplicant::V1_0::ISupplicantStaIfaceCallback::WpsConfigError",
   "name" : "android::hardware::wifi::supplicant::V1_0::ISupplicantStaIfaceCallback::WpsConfigError",
   "referenced_type" : "type-435",
   "self_type" : "type-435",
   "size" : 2,
   "source_file" : "/out/soong/.intermediates/hardware/interfaces/wifi/supplicant/1.0/android.hardware.wifi.supplicant@1.0_genc++_headers/gen/android/hardware/wifi/supplicant/1.0/ISupplicantStaIfaceCallback.h",
   "underlying_type" : "type-44",
   "unique_id" : "_ZTSN7android8hardware4wifi10supplicant4V1_027ISupplicantStaIfaceCallback14WpsConfigErrorE"
  },
  {
   "alignment" : 2,
   "enum_fields" :
   [
    {
     "enum_field_value" : 0,
     "name" : "android::hardware::wifi::supplicant::V1_0::ISupplicantStaIfaceCallback::WpsErrorIndication::NO_ERROR"
    },
    {
     "enum_field_value" : 1,
     "name" : "android::hardware::wifi::supplicant::V1_0::ISupplicantStaIfaceCallback::WpsErrorIndication::SECURITY_TKIP_ONLY_PROHIBITED"
    },
    {
     "enum_field_value" : 2,
     "name" : "android::hardware::wifi::supplicant::V1_0::ISupplicantStaIfaceCallback::WpsErrorIndication::SECURITY_WEP_PROHIBITED"
    },
    {
     "enum_field_value" : 3,
     "name" : "android::hardware::wifi::supplicant::V1_0::ISupplicantStaIfaceCallback::WpsErrorIndication::AUTH_FAILURE"
    }
   ],
   "linker_set_key" : "android::hardware::wifi::supplicant::V1_0::ISupplicantStaIfaceCallback::WpsErrorIndication",
   "name" : "android::hardware::wifi::supplicant::V1_0::ISupplicantStaIfaceCallback::WpsErrorIndication",
   "referenced_type" : "type-436",
   "self_type" : "type-436",
   "size" : 2,
   "source_file" : "/out/soong/.intermediates/hardware/interfaces/wifi/supplicant/1.0/android.hardware.wifi.supplicant@1.0_genc++_headers/gen/android/hardware/wifi/supplicant/1.0/ISupplicantStaIfaceCallback.h",
   "underlying_type" : "type-44",
   "unique_id" : "_ZTSN7android8hardware4wifi10supplicant4V1_027ISupplicantStaIfaceCallback18WpsErrorIndicationE"
  },
  {
   "alignment" : 4,
   "enum_fields" :
   [
    {
     "enum_field_value" : 1,
     "name" : "android::hardware::wifi::supplicant::V1_0::ISupplicantStaNetwork::AuthAlgMask::OPEN"
    },
    {
     "enum_field_value" : 2,
     "name" : "android::hardware::wifi::supplicant::V1_0::ISupplicantStaNetwork::AuthAlgMask::SHARED"
    },
    {
     "enum_field_value" : 4,
     "name" : "android::hardware::wifi::supplicant::V1_0::ISupplicantStaNetwork::AuthAlgMask::LEAP"
    }
   ],
   "linker_set_key" : "android::hardware::wifi::supplicant::V1_0::ISupplicantStaNetwork::AuthAlgMask",
   "name" : "android::hardware::wifi::supplicant::V1_0::ISupplicantStaNetwork::AuthAlgMask",
   "referenced_type" : "type-519",
   "self_type" : "type-519",
   "size" : 4,
   "source_file" : "/out/soong/.intermediates/hardware/interfaces/wifi/supplicant/1.0/android.hardware.wifi.supplicant@1.0_genc++_headers/gen/android/hardware/wifi/supplicant/1.0/ISupplicantStaNetwork.h",
   "underlying_type" : "type-2",
   "unique_id" : "_ZTSN7android8hardware4wifi10supplicant4V1_021ISupplicantStaNetwork11AuthAlgMaskE"
  },
  {
   "alignment" : 4,
   "enum_fields" :
   [
    {
     "enum_field_value" : 0,
     "name" : "android::hardware::wifi::supplicant::V1_0::ISupplicantStaNetwork::EapMethod::PEAP"
    },
    {
     "enum_field_value" : 1,
     "name" : "android::hardware::wifi::supplicant::V1_0::ISupplicantStaNetwork::EapMethod::TLS"
    },
    {
     "enum_field_value" : 2,
     "name" : "android::hardware::wifi::supplicant::V1_0::ISupplicantStaNetwork::EapMethod::TTLS"
    },
    {
     "enum_field_value" : 3,
     "name" : "android::hardware::wifi::supplicant::V1_0::ISupplicantStaNetwork::EapMethod::PWD"
    },
    {
     "enum_field_value" : 4,
     "name" : "android::hardware::wifi::supplicant::V1_0::ISupplicantStaNetwork::EapMethod::SIM"
    },
    {
     "enum_field_value" : 5,
     "name" : "android::hardware::wifi::supplicant::V1_0::ISupplicantStaNetwork::EapMethod::AKA"
    },
    {
     "enum_field_value" : 6,
     "name" : "android::hardware::wifi::supplicant::V1_0::ISupplicantStaNetwork::EapMethod::AKA_PRIME"
    },
    {
     "enum_field_value" : 7,
     "name" : "android::hardware::wifi::supplicant::V1_0::ISupplicantStaNetwork::EapMethod::WFA_UNAUTH_TLS"
    }
   ],
   "linker_set_key" : "android::hardware::wifi::supplicant::V1_0::ISupplicantStaNetwork::EapMethod",
   "name" : "android::hardware::wifi::supplicant::V1_0::ISupplicantStaNetwork::EapMethod",
   "referenced_type" : "type-524",
   "self_type" : "type-524",
   "size" : 4,
   "source_file" : "/out/soong/.intermediates/hardware/interfaces/wifi/supplicant/1.0/android.hardware.wifi.supplicant@1.0_genc++_headers/gen/android/hardware/wifi/supplicant/1.0/ISupplicantStaNetwork.h",
   "underlying_type" : "type-2",
   "unique_id" : "_ZTSN7android8hardware4wifi10supplicant4V1_021ISupplicantStaNetwork9EapMethodE"
  },
  {
   "alignment" : 4,
   "enum_fields" :
   [
    {
     "enum_field_value" : 0,
     "name" : "android::hardware::wifi::supplicant::V1_0::ISupplicantStaNetwork::EapPhase2Method::NONE"
    },
    {
     "enum_field_value" : 1,
     "name" : "android::hardware::wifi::supplicant::V1_0::ISupplicantStaNetwork::EapPhase2Method::PAP"
    },
    {
     "enum_field_value" : 2,
     "name" : "android::hardware::wifi::supplicant::V1_0::ISupplicantStaNetwork::EapPhase2Method::MSPAP"
    },
    {
     "enum_field_value" : 3,
     "name" : "android::hardware::wifi::supplicant::V1_0::ISupplicantStaNetwork::EapPhase2Method::MSPAPV2"
    },
    {
     "enum_field_value" : 4,
     "name" : "android::hardware::wifi::supplicant::V1_0::ISupplicantStaNetwork::EapPhase2Method::GTC"
    },
    {
     "enum_field_value" : 5,
     "name" : "android::hardware::wifi::supplicant::V1_0::ISupplicantStaNetwork::EapPhase2Method::SIM"
    },
    {
     "enum_field_value" : 6,
     "name" : "android::hardware::wifi::supplicant::V1_0::ISupplicantStaNetwork::EapPhase2Method::AKA"
    },
    {
     "enum_field_value" : 7,
     "name" : "android::hardware::wifi::supplicant::V1_0::ISupplicantStaNetwork::EapPhase2Method::AKA_PRIME"
    }
   ],
   "linker_set_key" : "android::hardware::wifi::supplicant::V1_0::ISupplicantStaNetwork::EapPhase2Method",
   "name" : "android::hardware::wifi::supplicant::V1_0::ISupplicantStaNetwork::EapPhase2Method",
   "referenced_type" : "type-525",
   "self_type" : "type-525",
   "size" : 4,
   "source_file" : "/out/soong/.intermediates/hardware/interfaces/wifi/supplicant/1.0/android.hardware.wifi.supplicant@1.0_genc++_headers/gen/android/hardware/wifi/supplicant/1.0/ISupplicantStaNetwork.h",
   "underlying_type" : "type-2",
   "unique_id" : "_ZTSN7android8hardware4wifi10supplicant4V1_021ISupplicantStaNetwork15EapPhase2MethodE"
  },
  {
   "alignment" : 4,
   "enum_fields" :
   [
    {
     "enum_field_value" : 2,
     "name" : "android::hardware::wifi::supplicant::V1_0::ISupplicantStaNetwork::GroupCipherMask::WEP40"
    },
    {
     "enum_field_value" : 4,
     "name" : "android::hardware::wifi::supplicant::V1_0::ISupplicantStaNetwork::GroupCipherMask::WEP104"
    },
    {
     "enum_field_value" : 8,
     "name" : "android::hardware::wifi::supplicant::V1_0::ISupplicantStaNetwork::GroupCipherMask::TKIP"
    },
    {
     "enum_field_value" : 16,
     "name" : "android::hardware::wifi::supplicant::V1_0::ISupplicantStaNetwork::GroupCipherMask::CCMP"
    },
    {
     "enum_field_value" : 16384,
     "name" : "android::hardware::wifi::supplicant::V1_0::ISupplicantStaNetwork::GroupCipherMask::GTK_NOT_USED"
    }
   ],
   "linker_set_key" : "android::hardware::wifi::supplicant::V1_0::ISupplicantStaNetwork::GroupCipherMask",
   "name" : "android::hardware::wifi::supplicant::V1_0::ISupplicantStaNetwork::GroupCipherMask",
   "referenced_type" : "type-520",
   "self_type" : "type-520",
   "size" : 4,
   "source_file" : "/out/soong/.intermediates/hardware/interfaces/wifi/supplicant/1.0/android.hardware.wifi.supplicant@1.0_genc++_headers/gen/android/hardware/wifi/supplicant/1.0/ISupplicantStaNetwork.h",
   "underlying_type" : "type-2",
   "unique_id" : "_ZTSN7android8hardware4wifi10supplicant4V1_021ISupplicantStaNetwork15GroupCipherMaskE"
  },
  {
   "alignment" : 4,
   "enum_fields" :
   [
    {
     "enum_field_value" : 1,
     "name" : "android::hardware::wifi::supplicant::V1_0::ISupplicantStaNetwork::KeyMgmtMask::WPA_EAP"
    },
    {
     "enum_field_value" : 2,
     "name" : "android::hardware::wifi::supplicant::V1_0::ISupplicantStaNetwork::KeyMgmtMask::WPA_PSK"
    },
    {
     "enum_field_value" : 4,
     "name" : "android::hardware::wifi::supplicant::V1_0::ISupplicantStaNetwork::KeyMgmtMask::NONE"
    },
    {
     "enum_field_value" : 8,
     "name" : "android::hardware::wifi::supplicant::V1_0::ISupplicantStaNetwork::KeyMgmtMask::IEEE8021X"
    },
    {
     "enum_field_value" : 32,
     "name" : "android::hardware::wifi::supplicant::V1_0::ISupplicantStaNetwork::KeyMgmtMask::FT_EAP"
    },
    {
     "enum_field_value" : 64,
     "name" : "android::hardware::wifi::supplicant::V1_0::ISupplicantStaNetwork::KeyMgmtMask::FT_PSK"
    },
    {
     "enum_field_value" : 32768,
     "name" : "android::hardware::wifi::supplicant::V1_0::ISupplicantStaNetwork::KeyMgmtMask::OSEN"
    }
   ],
   "linker_set_key" : "android::hardware::wifi::supplicant::V1_0::ISupplicantStaNetwork::KeyMgmtMask",
   "name" : "android::hardware::wifi::supplicant::V1_0::ISupplicantStaNetwork::KeyMgmtMask",
   "referenced_type" : "type-517",
   "self_type" : "type-517",
   "size" : 4,
   "source_file" : "/out/soong/.intermediates/hardware/interfaces/wifi/supplicant/1.0/android.hardware.wifi.supplicant@1.0_genc++_headers/gen/android/hardware/wifi/supplicant/1.0/ISupplicantStaNetwork.h",
   "underlying_type" : "type-2",
   "unique_id" : "_ZTSN7android8hardware4wifi10supplicant4V1_021ISupplicantStaNetwork11KeyMgmtMaskE"
  },
  {
   "alignment" : 4,
   "enum_fields" :
   [
    {
     "enum_field_value" : 1,
     "name" : "android::hardware::wifi::supplicant::V1_0::ISupplicantStaNetwork::PairwiseCipherMask::NONE"
    },
    {
     "enum_field_value" : 8,
     "name" : "android::hardware::wifi::supplicant::V1_0::ISupplicantStaNetwork::PairwiseCipherMask::TKIP"
    },
    {
     "enum_field_value" : 16,
     "name" : "android::hardware::wifi::supplicant::V1_0::ISupplicantStaNetwork::PairwiseCipherMask::CCMP"
    }
   ],
   "linker_set_key" : "android::hardware::wifi::supplicant::V1_0::ISupplicantStaNetwork::PairwiseCipherMask",
   "name" : "android::hardware::wifi::supplicant::V1_0::ISupplicantStaNetwork::PairwiseCipherMask",
   "referenced_type" : "type-521",
   "self_type" : "type-521",
   "size" : 4,
   "source_file" : "/out/soong/.intermediates/hardware/interfaces/wifi/supplicant/1.0/android.hardware.wifi.supplicant@1.0_genc++_headers/gen/android/hardware/wifi/supplicant/1.0/ISupplicantStaNetwork.h",
   "underlying_type" : "type-2",
   "unique_id" : "_ZTSN7android8hardware4wifi10supplicant4V1_021ISupplicantStaNetwork18PairwiseCipherMaskE"
  },
  {
   "alignment" : 4,
   "enum_fields" :
   [
    {
     "enum_field_value" : 32,
     "name" : "android::hardware::wifi::supplicant::V1_0::ISupplicantStaNetwork::ParamSizeLimits::SSID_MAX_LEN_IN_BYTES"
    },
    {
     "enum_field_value" : 8,
     "name" : "android::hardware::wifi::supplicant::V1_0::ISupplicantStaNetwork::ParamSizeLimits::PSK_PASSPHRASE_MIN_LEN_IN_BYTES"
    },
    {
     "enum_field_value" : 63,
     "name" : "android::hardware::wifi::supplicant::V1_0::ISupplicantStaNetwork::ParamSizeLimits::PSK_PASSPHRASE_MAX_LEN_IN_BYTES"
    },
    {
     "enum_field_value" : 4,
     "name" : "android::hardware::wifi::supplicant::V1_0::ISupplicantStaNetwork::ParamSizeLimits::WEP_KEYS_MAX_NUM"
    },
    {
     "enum_field_value" : 5,
     "name" : "android::hardware::wifi::supplicant::V1_0::ISupplicantStaNetwork::ParamSizeLimits::WEP40_KEY_LEN_IN_BYTES"
    },
    {
     "enum_field_value" : 13,
     "name" : "android::hardware::wifi::supplicant::V1_0::ISupplicantStaNetwork::ParamSizeLimits::WEP104_KEY_LEN_IN_BYTES"
    }
   ],
   "linker_set_key" : "android::hardware::wifi::supplicant::V1_0::ISupplicantStaNetwork::ParamSizeLimits",
   "name" : "android::hardware::wifi::supplicant::V1_0::ISupplicantStaNetwork::ParamSizeLimits",
   "referenced_type" : "type-516",
   "self_type" : "type-516",
   "size" : 4,
   "source_file" : "/out/soong/.intermediates/hardware/interfaces/wifi/supplicant/1.0/android.hardware.wifi.supplicant@1.0_genc++_headers/gen/android/hardware/wifi/supplicant/1.0/ISupplicantStaNetwork.h",
   "underlying_type" : "type-2",
   "unique_id" : "_ZTSN7android8hardware4wifi10supplicant4V1_021ISupplicantStaNetwork15ParamSizeLimitsE"
  },
  {
   "alignment" : 4,
   "enum_fields" :
   [
    {
     "enum_field_value" : 1,
     "name" : "android::hardware::wifi::supplicant::V1_0::ISupplicantStaNetwork::ProtoMask::WPA"
    },
    {
     "enum_field_value" : 2,
     "name" : "android::hardware::wifi::supplicant::V1_0::ISupplicantStaNetwork::ProtoMask::RSN"
    },
    {
     "enum_field_value" : 8,
     "name" : "android::hardware::wifi::supplicant::V1_0::ISupplicantStaNetwork::ProtoMask::OSEN"
    }
   ],
   "linker_set_key" : "android::hardware::wifi::supplicant::V1_0::ISupplicantStaNetwork::ProtoMask",
   "name" : "android::hardware::wifi::supplicant::V1_0::ISupplicantStaNetwork::ProtoMask",
   "referenced_type" : "type-518",
   "self_type" : "type-518",
   "size" : 4,
   "source_file" : "/out/soong/.intermediates/hardware/interfaces/wifi/supplicant/1.0/android.hardware.wifi.supplicant@1.0_genc++_headers/gen/android/hardware/wifi/supplicant/1.0/ISupplicantStaNetwork.h",
   "underlying_type" : "type-2",
   "unique_id" : "_ZTSN7android8hardware4wifi10supplicant4V1_021ISupplicantStaNetwork9ProtoMaskE"
  },
  {
   "alignment" : 4,
   "enum_fields" :
   [
    {
     "enum_field_value" : 0,
     "name" : "android::hardware::wifi::supplicant::V1_0::IfaceType::STA"
    },
    {
     "enum_field_value" : 1,
     "name" : "android::hardware::wifi::supplicant::V1_0::IfaceType::P2P"
    }
   ],
   "linker_set_key" : "android::hardware::wifi::supplicant::V1_0::IfaceType",
   "name" : "android::hardware::wifi::supplicant::V1_0::IfaceType",
   "referenced_type" : "type-1167",
   "self_type" : "type-1167",
   "size" : 4,
   "source_file" : "/out/soong/.intermediates/hardware/interfaces/wifi/supplicant/1.0/android.hardware.wifi.supplicant@1.0_genc++_headers/gen/android/hardware/wifi/supplicant/1.0/types.h",
   "underlying_type" : "type-2",
   "unique_id" : "_ZTSN7android8hardware4wifi10supplicant4V1_09IfaceTypeE"
  },
  {
   "alignment" : 4,
   "enum_fields" :
   [
    {
     "enum_field_value" : 1,
     "name" : "android::hardware::wifi::supplicant::V1_0::P2pGroupCapabilityMask::GROUP_OWNER"
    },
    {
     "enum_field_value" : 2,
     "name" : "android::hardware::wifi::supplicant::V1_0::P2pGroupCapabilityMask::PERSISTENT_GROUP"
    },
    {
     "enum_field_value" : 4,
     "name" : "android::hardware::wifi::supplicant::V1_0::P2pGroupCapabilityMask::GROUP_LIMIT"
    },
    {
     "enum_field_value" : 8,
     "name" : "android::hardware::wifi::supplicant::V1_0::P2pGroupCapabilityMask::INTRA_BSS_DIST"
    },
    {
     "enum_field_value" : 16,
     "name" : "android::hardware::wifi::supplicant::V1_0::P2pGroupCapabilityMask::CROSS_CONN"
    },
    {
     "enum_field_value" : 32,
     "name" : "android::hardware::wifi::supplicant::V1_0::P2pGroupCapabilityMask::PERSISTENT_RECONN"
    },
    {
     "enum_field_value" : 64,
     "name" : "android::hardware::wifi::supplicant::V1_0::P2pGroupCapabilityMask::GROUP_FORMATION"
    }
   ],
   "linker_set_key" : "android::hardware::wifi::supplicant::V1_0::P2pGroupCapabilityMask",
   "name" : "android::hardware::wifi::supplicant::V1_0::P2pGroupCapabilityMask",
   "referenced_type" : "type-1583",
   "self_type" : "type-1583",
   "size" : 4,
   "source_file" : "/out/soong/.intermediates/hardware/interfaces/wifi/supplicant/1.0/android.hardware.wifi.supplicant@1.0_genc++_headers/gen/android/hardware/wifi/supplicant/1.0/types.h",
   "underlying_type" : "type-2",
   "unique_id" : "_ZTSN7android8hardware4wifi10supplicant4V1_022P2pGroupCapabilityMaskE"
  },
  {
   "alignment" : 4,
   "enum_fields" :
   [
    {
     "enum_field_value" : 0,
     "name" : "android::hardware::wifi::supplicant::V1_0::SupplicantStatusCode::SUCCESS"
    },
    {
     "enum_field_value" : 1,
     "name" : "android::hardware::wifi::supplicant::V1_0::SupplicantStatusCode::FAILURE_UNKNOWN"
    },
    {
     "enum_field_value" : 2,
     "name" : "android::hardware::wifi::supplicant::V1_0::SupplicantStatusCode::FAILURE_ARGS_INVALID"
    },
    {
     "enum_field_value" : 3,
     "name" : "android::hardware::wifi::supplicant::V1_0::SupplicantStatusCode::FAILURE_IFACE_INVALID"
    },
    {
     "enum_field_value" : 4,
     "name" : "android::hardware::wifi::supplicant::V1_0::SupplicantStatusCode::FAILURE_IFACE_UNKNOWN"
    },
    {
     "enum_field_value" : 5,
     "name" : "android::hardware::wifi::supplicant::V1_0::SupplicantStatusCode::FAILURE_IFACE_EXISTS"
    },
    {
     "enum_field_value" : 6,
     "name" : "android::hardware::wifi::supplicant::V1_0::SupplicantStatusCode::FAILURE_IFACE_DISABLED"
    },
    {
     "enum_field_value" : 7,
     "name" : "android::hardware::wifi::supplicant::V1_0::SupplicantStatusCode::FAILURE_IFACE_NOT_DISCONNECTED"
    },
    {
     "enum_field_value" : 8,
     "name" : "android::hardware::wifi::supplicant::V1_0::SupplicantStatusCode::FAILURE_NETWORK_INVALID"
    },
    {
     "enum_field_value" : 9,
     "name" : "android::hardware::wifi::supplicant::V1_0::SupplicantStatusCode::FAILURE_NETWORK_UNKNOWN"
    }
   ],
   "linker_set_key" : "android::hardware::wifi::supplicant::V1_0::SupplicantStatusCode",
   "name" : "android::hardware::wifi::supplicant::V1_0::SupplicantStatusCode",
   "referenced_type" : "type-1581",
   "self_type" : "type-1581",
   "size" : 4,
   "source_file" : "/out/soong/.intermediates/hardware/interfaces/wifi/supplicant/1.0/android.hardware.wifi.supplicant@1.0_genc++_headers/gen/android/hardware/wifi/supplicant/1.0/types.h",
   "underlying_type" : "type-2",
   "unique_id" : "_ZTSN7android8hardware4wifi10supplicant4V1_020SupplicantStatusCodeE"
  },
  {
   "alignment" : 2,
   "enum_fields" :
   [
    {
     "enum_field_value" : 1,
     "name" : "android::hardware::wifi::supplicant::V1_0::WpsConfigMethods::USBA"
    },
    {
     "enum_field_value" : 2,
     "name" : "android::hardware::wifi::supplicant::V1_0::WpsConfigMethods::ETHERNET"
    },
    {
     "enum_field_value" : 4,
     "name" : "android::hardware::wifi::supplicant::V1_0::WpsConfigMethods::LABEL"
    },
    {
     "enum_field_value" : 8,
     "name" : "android::hardware::wifi::supplicant::V1_0::WpsConfigMethods::DISPLAY"
    },
    {
     "enum_field_value" : 16,
     "name" : "android::hardware::wifi::supplicant::V1_0::WpsConfigMethods::EXT_NFC_TOKEN"
    },
    {
     "enum_field_value" : 32,
     "name" : "android::hardware::wifi::supplicant::V1_0::WpsConfigMethods::INT_NFC_TOKEN"
    },
    {
     "enum_field_value" : 64,
     "name" : "android::hardware::wifi::supplicant::V1_0::WpsConfigMethods::NFC_INTERFACE"
    },
    {
     "enum_field_value" : 128,
     "name" : "android::hardware::wifi::supplicant::V1_0::WpsConfigMethods::PUSHBUTTON"
    },
    {
     "enum_field_value" : 256,
     "name" : "android::hardware::wifi::supplicant::V1_0::WpsConfigMethods::KEYPAD"
    },
    {
     "enum_field_value" : 640,
     "name" : "android::hardware::wifi::supplicant::V1_0::WpsConfigMethods::VIRT_PUSHBUTTON"
    },
    {
     "enum_field_value" : 1152,
     "name" : "android::hardware::wifi::supplicant::V1_0::WpsConfigMethods::PHY_PUSHBUTTON"
    },
    {
     "enum_field_value" : 4096,
     "name" : "android::hardware::wifi::supplicant::V1_0::WpsConfigMethods::P2PS"
    },
    {
     "enum_field_value" : 8200,
     "name" : "android::hardware::wifi::supplicant::V1_0::WpsConfigMethods::VIRT_DISPLAY"
    },
    {
     "enum_field_value" : 16392,
     "name" : "android::hardware::wifi::supplicant::V1_0::WpsConfigMethods::PHY_DISPLAY"
    }
   ],
   "linker_set_key" : "android::hardware::wifi::supplicant::V1_0::WpsConfigMethods",
   "name" : "android::hardware::wifi::supplicant::V1_0::WpsConfigMethods",
   "referenced_type" : "type-1584",
   "self_type" : "type-1584",
   "size" : 2,
   "source_file" : "/out/soong/.intermediates/hardware/interfaces/wifi/supplicant/1.0/android.hardware.wifi.supplicant@1.0_genc++_headers/gen/android/hardware/wifi/supplicant/1.0/types.h",
   "underlying_type" : "type-44",
   "unique_id" : "_ZTSN7android8hardware4wifi10supplicant4V1_016WpsConfigMethodsE"
  },
  {
   "alignment" : 4,
   "enum_fields" :
   [
    {
     "enum_field_value" : 0,
     "name" : "android::hardware::wifi::supplicant::V1_1::ISupplicantStaIfaceCallback::EapErrorCode::SIM_GENERAL_FAILURE_AFTER_AUTH"
    },
    {
     "enum_field_value" : 1026,
     "name" : "android::hardware::wifi::supplicant::V1_1::ISupplicantStaIfaceCallback::EapErrorCode::SIM_TEMPORARILY_DENIED"
    },
    {
     "enum_field_value" : 1031,
     "name" : "android::hardware::wifi::supplicant::V1_1::ISupplicantStaIfaceCallback::EapErrorCode::SIM_NOT_SUBSCRIBED"
    },
    {
     "enum_field_value" : 16384,
     "name" : "android::hardware::wifi::supplicant::V1_1::ISupplicantStaIfaceCallback::EapErrorCode::SIM_GENERAL_FAILURE_BEFORE_AUTH"
    },
    {
     "enum_field_value" : 16385,
     "name" : "android::hardware::wifi::supplicant::V1_1::ISupplicantStaIfaceCallback::EapErrorCode::SIM_VENDOR_SPECIFIC_EXPIRED_CERT"
    }
   ],
   "linker_set_key" : "android::hardware::wifi::supplicant::V1_1::ISupplicantStaIfaceCallback::EapErrorCode",
   "name" : "android::hardware::wifi::supplicant::V1_1::ISupplicantStaIfaceCallback::EapErrorCode",
   "referenced_type" : "type-485",
   "self_type" : "type-485",
   "size" : 4,
   "source_file" : "/out/soong/.intermediates/hardware/interfaces/wifi/supplicant/1.1/android.hardware.wifi.supplicant@1.1_genc++_headers/gen/android/hardware/wifi/supplicant/1.1/ISupplicantStaIfaceCallback.h",
   "underlying_type" : "type-2",
   "unique_id" : "_ZTSN7android8hardware4wifi10supplicant4V1_127ISupplicantStaIfaceCallback12EapErrorCodeE"
  },
  {
   "alignment" : 4,
   "enum_fields" :
   [
    {
     "enum_field_value" : 0,
     "name" : "android::hardware::wifi::supplicant::V1_2::DppAkm::PSK"
    },
    {
     "enum_field_value" : 1,
     "name" : "android::hardware::wifi::supplicant::V1_2::DppAkm::PSK_SAE"
    },
    {
     "enum_field_value" : 2,
     "name" : "android::hardware::wifi::supplicant::V1_2::DppAkm::SAE"
    },
    {
     "enum_field_value" : 3,
     "name" : "android::hardware::wifi::supplicant::V1_2::DppAkm::DPP"
    }
   ],
   "linker_set_key" : "android::hardware::wifi::supplicant::V1_2::DppAkm",
   "name" : "android::hardware::wifi::supplicant::V1_2::DppAkm",
   "referenced_type" : "type-494",
   "self_type" : "type-494",
   "size" : 4,
   "source_file" : "/out/soong/.intermediates/hardware/interfaces/wifi/supplicant/1.2/android.hardware.wifi.supplicant@1.2_genc++_headers/gen/android/hardware/wifi/supplicant/1.2/types.h",
   "underlying_type" : "type-2",
   "unique_id" : "_ZTSN7android8hardware4wifi10supplicant4V1_26DppAkmE"
  },
  {
   "alignment" : 4,
   "enum_fields" :
   [
    {
     "enum_field_value" : 0,
     "name" : "android::hardware::wifi::supplicant::V1_2::DppFailureCode::INVALID_URI"
    },
    {
     "enum_field_value" : 1,
     "name" : "android::hardware::wifi::supplicant::V1_2::DppFailureCode::AUTHENTICATION"
    },
    {
     "enum_field_value" : 2,
     "name" : "android::hardware::wifi::supplicant::V1_2::DppFailureCode::NOT_COMPATIBLE"
    },
    {
     "enum_field_value" : 3,
     "name" : "android::hardware::wifi::supplicant::V1_2::DppFailureCode::CONFIGURATION"
    },
    {
     "enum_field_value" : 4,
     "name" : "android::hardware::wifi::supplicant::V1_2::DppFailureCode::BUSY"
    },
    {
     "enum_field_value" : 5,
     "name" : "android::hardware::wifi::supplicant::V1_2::DppFailureCode::TIMEOUT"
    },
    {
     "enum_field_value" : 6,
     "name" : "android::hardware::wifi::supplicant::V1_2::DppFailureCode::FAILURE"
    },
    {
     "enum_field_value" : 7,
     "name" : "android::hardware::wifi::supplicant::V1_2::DppFailureCode::NOT_SUPPORTED"
    }
   ],
   "linker_set_key" : "android::hardware::wifi::supplicant::V1_2::DppFailureCode",
   "name" : "android::hardware::wifi::supplicant::V1_2::DppFailureCode",
   "referenced_type" : "type-497",
   "self_type" : "type-497",
   "size" : 4,
   "source_file" : "/out/soong/.intermediates/hardware/interfaces/wifi/supplicant/1.2/android.hardware.wifi.supplicant@1.2_genc++_headers/gen/android/hardware/wifi/supplicant/1.2/types.h",
   "underlying_type" : "type-2",
   "unique_id" : "_ZTSN7android8hardware4wifi10supplicant4V1_214DppFailureCodeE"
  },
  {
   "alignment" : 4,
   "enum_fields" :
   [
    {
     "enum_field_value" : 0,
     "name" : "android::hardware::wifi::supplicant::V1_2::DppNetRole::STA"
    },
    {
     "enum_field_value" : 1,
     "name" : "android::hardware::wifi::supplicant::V1_2::DppNetRole::AP"
    }
   ],
   "linker_set_key" : "android::hardware::wifi::supplicant::V1_2::DppNetRole",
   "name" : "android::hardware::wifi::supplicant::V1_2::DppNetRole",
   "referenced_type" : "type-495",
   "self_type" : "type-495",
   "size" : 4,
   "source_file" : "/out/soong/.intermediates/hardware/interfaces/wifi/supplicant/1.2/android.hardware.wifi.supplicant@1.2_genc++_headers/gen/android/hardware/wifi/supplicant/1.2/types.h",
   "underlying_type" : "type-2",
   "unique_id" : "_ZTSN7android8hardware4wifi10supplicant4V1_210DppNetRoleE"
  },
  {
   "alignment" : 4,
   "enum_fields" :
   [
    {
     "enum_field_value" : 0,
     "name" : "android::hardware::wifi::supplicant::V1_2::DppProgressCode::AUTHENTICATION_SUCCESS"
    },
    {
     "enum_field_value" : 1,
     "name" : "android::hardware::wifi::supplicant::V1_2::DppProgressCode::RESPONSE_PENDING"
    }
   ],
   "linker_set_key" : "android::hardware::wifi::supplicant::V1_2::DppProgressCode",
   "name" : "android::hardware::wifi::supplicant::V1_2::DppProgressCode",
   "referenced_type" : "type-496",
   "self_type" : "type-496",
   "size" : 4,
   "source_file" : "/out/soong/.intermediates/hardware/interfaces/wifi/supplicant/1.2/android.hardware.wifi.supplicant@1.2_genc++_headers/gen/android/hardware/wifi/supplicant/1.2/types.h",
   "underlying_type" : "type-2",
   "unique_id" : "_ZTSN7android8hardware4wifi10supplicant4V1_215DppProgressCodeE"
  },
  {
   "alignment" : 4,
   "enum_fields" :
   [
    {
     "enum_field_value" : 2,
     "name" : "android::hardware::wifi::supplicant::V1_2::ISupplicantStaNetwork::GroupCipherMask::WEP40"
    },
    {
     "enum_field_value" : 4,
     "name" : "android::hardware::wifi::supplicant::V1_2::ISupplicantStaNetwork::GroupCipherMask::WEP104"
    },
    {
     "enum_field_value" : 8,
     "name" : "android::hardware::wifi::supplicant::V1_2::ISupplicantStaNetwork::GroupCipherMask::TKIP"
    },
    {
     "enum_field_value" : 16,
     "name" : "android::hardware::wifi::supplicant::V1_2::ISupplicantStaNetwork::GroupCipherMask::CCMP"
    },
    {
     "enum_field_value" : 16384,
     "name" : "android::hardware::wifi::supplicant::V1_2::ISupplicantStaNetwork::GroupCipherMask::GTK_NOT_USED"
    },
    {
     "enum_field_value" : 256,
     "name" : "android::hardware::wifi::supplicant::V1_2::ISupplicantStaNetwork::GroupCipherMask::GCMP_256"
    }
   ],
   "linker_set_key" : "android::hardware::wifi::supplicant::V1_2::ISupplicantStaNetwork::GroupCipherMask",
   "name" : "android::hardware::wifi::supplicant::V1_2::ISupplicantStaNetwork::GroupCipherMask",
   "referenced_type" : "type-571",
   "self_type" : "type-571",
   "size" : 4,
   "source_file" : "/out/soong/.intermediates/hardware/interfaces/wifi/supplicant/1.2/android.hardware.wifi.supplicant@1.2_genc++_headers/gen/android/hardware/wifi/supplicant/1.2/ISupplicantStaNetwork.h",
   "underlying_type" : "type-2",
   "unique_id" : "_ZTSN7android8hardware4wifi10supplicant4V1_221ISupplicantStaNetwork15GroupCipherMaskE"
  },
  {
   "alignment" : 4,
   "enum_fields" :
   [
    {
     "enum_field_value" : 2048,
     "name" : "android::hardware::wifi::supplicant::V1_2::ISupplicantStaNetwork::GroupMgmtCipherMask::BIP_GMAC_128"
    },
    {
     "enum_field_value" : 4096,
     "name" : "android::hardware::wifi::supplicant::V1_2::ISupplicantStaNetwork::GroupMgmtCipherMask::BIP_GMAC_256"
    },
    {
     "enum_field_value" : 8192,
     "name" : "android::hardware::wifi::supplicant::V1_2::ISupplicantStaNetwork::GroupMgmtCipherMask::BIP_CMAC_256"
    }
   ],
   "linker_set_key" : "android::hardware::wifi::supplicant::V1_2::ISupplicantStaNetwork::GroupMgmtCipherMask",
   "name" : "android::hardware::wifi::supplicant::V1_2::ISupplicantStaNetwork::GroupMgmtCipherMask",
   "referenced_type" : "type-572",
   "self_type" : "type-572",
   "size" : 4,
   "source_file" : "/out/soong/.intermediates/hardware/interfaces/wifi/supplicant/1.2/android.hardware.wifi.supplicant@1.2_genc++_headers/gen/android/hardware/wifi/supplicant/1.2/ISupplicantStaNetwork.h",
   "underlying_type" : "type-2",
   "unique_id" : "_ZTSN7android8hardware4wifi10supplicant4V1_221ISupplicantStaNetwork19GroupMgmtCipherMaskE"
  },
  {
   "alignment" : 4,
   "enum_fields" :
   [
    {
     "enum_field_value" : 1,
     "name" : "android::hardware::wifi::supplicant::V1_2::ISupplicantStaNetwork::KeyMgmtMask::WPA_EAP"
    },
    {
     "enum_field_value" : 2,
     "name" : "android::hardware::wifi::supplicant::V1_2::ISupplicantStaNetwork::KeyMgmtMask::WPA_PSK"
    },
    {
     "enum_field_value" : 4,
     "name" : "android::hardware::wifi::supplicant::V1_2::ISupplicantStaNetwork::KeyMgmtMask::NONE"
    },
    {
     "enum_field_value" : 8,
     "name" : "android::hardware::wifi::supplicant::V1_2::ISupplicantStaNetwork::KeyMgmtMask::IEEE8021X"
    },
    {
     "enum_field_value" : 32,
     "name" : "android::hardware::wifi::supplicant::V1_2::ISupplicantStaNetwork::KeyMgmtMask::FT_EAP"
    },
    {
     "enum_field_value" : 64,
     "name" : "android::hardware::wifi::supplicant::V1_2::ISupplicantStaNetwork::KeyMgmtMask::FT_PSK"
    },
    {
     "enum_field_value" : 32768,
     "name" : "android::hardware::wifi::supplicant::V1_2::ISupplicantStaNetwork::KeyMgmtMask::OSEN"
    },
    {
     "enum_field_value" : 128,
     "name" : "android::hardware::wifi::supplicant::V1_2::ISupplicantStaNetwork::KeyMgmtMask::WPA_EAP_SHA256"
    },
    {
     "enum_field_value" : 256,
     "name" : "android::hardware::wifi::supplicant::V1_2::ISupplicantStaNetwork::KeyMgmtMask::WPA_PSK_SHA256"
    },
    {
     "enum_field_value" : 1024,
     "name" : "android::hardware::wifi::supplicant::V1_2::ISupplicantStaNetwork::KeyMgmtMask::SAE"
    },
    {
     "enum_field_value" : 131072,
     "name" : "android::hardware::wifi::supplicant::V1_2::ISupplicantStaNetwork::KeyMgmtMask::SUITE_B_192"
    },
    {
     "enum_field_value" : 4194304,
     "name" : "android::hardware::wifi::supplicant::V1_2::ISupplicantStaNetwork::KeyMgmtMask::OWE"
    },
    {
     "enum_field_value" : 8388608,
     "name" : "android::hardware::wifi::supplicant::V1_2::ISupplicantStaNetwork::KeyMgmtMask::DPP"
    }
   ],
   "linker_set_key" : "android::hardware::wifi::supplicant::V1_2::ISupplicantStaNetwork::KeyMgmtMask",
   "name" : "android::hardware::wifi::supplicant::V1_2::ISupplicantStaNetwork::KeyMgmtMask",
   "referenced_type" : "type-569",
   "self_type" : "type-569",
   "size" : 4,
   "source_file" : "/out/soong/.intermediates/hardware/interfaces/wifi/supplicant/1.2/android.hardware.wifi.supplicant@1.2_genc++_headers/gen/android/hardware/wifi/supplicant/1.2/ISupplicantStaNetwork.h",
   "underlying_type" : "type-2",
   "unique_id" : "_ZTSN7android8hardware4wifi10supplicant4V1_221ISupplicantStaNetwork11KeyMgmtMaskE"
  },
  {
   "alignment" : 4,
   "enum_fields" :
   [
    {
     "enum_field_value" : 1,
     "name" : "android::hardware::wifi::supplicant::V1_2::ISupplicantStaNetwork::PairwiseCipherMask::NONE"
    },
    {
     "enum_field_value" : 8,
     "name" : "android::hardware::wifi::supplicant::V1_2::ISupplicantStaNetwork::PairwiseCipherMask::TKIP"
    },
    {
     "enum_field_value" : 16,
     "name" : "android::hardware::wifi::supplicant::V1_2::ISupplicantStaNetwork::PairwiseCipherMask::CCMP"
    },
    {
     "enum_field_value" : 256,
     "name" : "android::hardware::wifi::supplicant::V1_2::ISupplicantStaNetwork::PairwiseCipherMask::GCMP_256"
    }
   ],
   "linker_set_key" : "android::hardware::wifi::supplicant::V1_2::ISupplicantStaNetwork::PairwiseCipherMask",
   "name" : "android::hardware::wifi::supplicant::V1_2::ISupplicantStaNetwork::PairwiseCipherMask",
   "referenced_type" : "type-570",
   "self_type" : "type-570",
   "size" : 4,
   "source_file" : "/out/soong/.intermediates/hardware/interfaces/wifi/supplicant/1.2/android.hardware.wifi.supplicant@1.2_genc++_headers/gen/android/hardware/wifi/supplicant/1.2/ISupplicantStaNetwork.h",
   "underlying_type" : "type-2",
   "unique_id" : "_ZTSN7android8hardware4wifi10supplicant4V1_221ISupplicantStaNetwork18PairwiseCipherMaskE"
  },
  {
   "alignment" : 4,
   "enum_fields" :
   [
    {
     "enum_field_value" : 0,
     "name" : "android::hidl::base::V1_0::DebugInfo::Architecture::UNKNOWN"
    },
    {
     "enum_field_value" : 1,
     "name" : "android::hidl::base::V1_0::DebugInfo::Architecture::IS_64BIT"
    },
    {
     "enum_field_value" : 2,
     "name" : "android::hidl::base::V1_0::DebugInfo::Architecture::IS_32BIT"
    }
   ],
   "linker_set_key" : "android::hidl::base::V1_0::DebugInfo::Architecture",
   "name" : "android::hidl::base::V1_0::DebugInfo::Architecture",
   "referenced_type" : "type-1206",
   "self_type" : "type-1206",
   "size" : 4,
   "source_file" : "/out/soong/.intermediates/system/libhidl/transport/base/1.0/android.hidl.base@1.0_genc++_headers/gen/android/hidl/base/1.0/types.h",
   "underlying_type" : "type-51",
   "unique_id" : "_ZTSN7android4hidl4base4V1_09DebugInfo12ArchitectureE"
  },
  {
   "alignment" : 4,
   "enum_fields" :
   [
    {
     "enum_field_value" : -1,
     "name" : "android::hidl::manager::V1_0::IServiceManager::PidConstant::NO_PID"
    }
   ],
   "linker_set_key" : "android::hidl::manager::V1_0::IServiceManager::PidConstant",
   "name" : "android::hidl::manager::V1_0::IServiceManager::PidConstant",
   "referenced_type" : "type-1572",
   "self_type" : "type-1572",
   "size" : 4,
   "source_file" : "/out/soong/.intermediates/system/libhidl/transport/manager/1.0/android.hidl.manager@1.0_genc++_headers/gen/android/hidl/manager/1.0/IServiceManager.h",
   "underlying_type" : "type-51",
   "unique_id" : "_ZTSN7android4hidl7manager4V1_015IServiceManager11PidConstantE"
  },
  {
   "alignment" : 1,
   "enum_fields" :
   [
    {
     "enum_field_value" : 0,
     "name" : "android::hidl::manager::V1_0::IServiceManager::Transport::EMPTY"
    },
    {
     "enum_field_value" : 1,
     "name" : "android::hidl::manager::V1_0::IServiceManager::Transport::HWBINDER"
    },
    {
     "enum_field_value" : 2,
     "name" : "android::hidl::manager::V1_0::IServiceManager::Transport::PASSTHROUGH"
    }
   ],
   "linker_set_key" : "android::hidl::manager::V1_0::IServiceManager::Transport",
   "name" : "android::hidl::manager::V1_0::IServiceManager::Transport",
   "referenced_type" : "type-1571",
   "self_type" : "type-1571",
   "size" : 1,
   "source_file" : "/out/soong/.intermediates/system/libhidl/transport/manager/1.0/android.hidl.manager@1.0_genc++_headers/gen/android/hidl/manager/1.0/IServiceManager.h",
   "underlying_type" : "type-29",
   "unique_id" : "_ZTSN7android4hidl7manager4V1_015IServiceManager9TransportE"
  },
  {
   "alignment" : 4,
   "enum_fields" :
   [
    {
     "enum_field_value" : 0,
     "name" : "ANDROID_LOG_UNKNOWN"
    },
    {
     "enum_field_value" : 1,
     "name" : "ANDROID_LOG_DEFAULT"
    },
    {
     "enum_field_value" : 2,
     "name" : "ANDROID_LOG_VERBOSE"
    },
    {
     "enum_field_value" : 3,
     "name" : "ANDROID_LOG_DEBUG"
    },
    {
     "enum_field_value" : 4,
     "name" : "ANDROID_LOG_INFO"
    },
    {
     "enum_field_value" : 5,
     "name" : "ANDROID_LOG_WARN"
    },
    {
     "enum_field_value" : 6,
     "name" : "ANDROID_LOG_ERROR"
    },
    {
     "enum_field_value" : 7,
     "name" : "ANDROID_LOG_FATAL"
    },
    {
     "enum_field_value" : 8,
     "name" : "ANDROID_LOG_SILENT"
    }
   ],
   "linker_set_key" : "android_LogPriority",
   "name" : "android_LogPriority",
   "referenced_type" : "type-1",
   "self_type" : "type-1",
   "size" : 4,
   "source_file" : "/system/core/liblog/include/android/log.h",
   "underlying_type" : "type-2",
   "unique_id" : "android_LogPriority"
  },
  {
   "alignment" : 4,
   "enum_fields" :
   [
    {
     "enum_field_value" : 0,
     "name" : "HAL_COLOR_MODE_NATIVE"
    },
    {
     "enum_field_value" : 1,
     "name" : "HAL_COLOR_MODE_STANDARD_BT601_625"
    },
    {
     "enum_field_value" : 2,
     "name" : "HAL_COLOR_MODE_STANDARD_BT601_625_UNADJUSTED"
    },
    {
     "enum_field_value" : 3,
     "name" : "HAL_COLOR_MODE_STANDARD_BT601_525"
    },
    {
     "enum_field_value" : 4,
     "name" : "HAL_COLOR_MODE_STANDARD_BT601_525_UNADJUSTED"
    },
    {
     "enum_field_value" : 5,
     "name" : "HAL_COLOR_MODE_STANDARD_BT709"
    },
    {
     "enum_field_value" : 6,
     "name" : "HAL_COLOR_MODE_DCI_P3"
    },
    {
     "enum_field_value" : 7,
     "name" : "HAL_COLOR_MODE_SRGB"
    },
    {
     "enum_field_value" : 8,
     "name" : "HAL_COLOR_MODE_ADOBE_RGB"
    },
    {
     "enum_field_value" : 9,
     "name" : "HAL_COLOR_MODE_DISPLAY_P3"
    }
   ],
   "linker_set_key" : "android_color_mode_t",
   "name" : "android_color_mode_t",
   "referenced_type" : "type-1454",
   "self_type" : "type-1454",
   "size" : 4,
   "source_file" : "/system/core/libsystem/include/system/graphics-base-v1.0.h",
   "underlying_type" : "type-2",
   "unique_id" : "android_color_mode_t"
  },
  {
   "alignment" : 4,
   "enum_fields" :
   [
    {
     "enum_field_value" : 10,
     "name" : "HAL_COLOR_MODE_BT2020"
    },
    {
     "enum_field_value" : 11,
     "name" : "HAL_COLOR_MODE_BT2100_PQ"
    },
    {
     "enum_field_value" : 12,
     "name" : "HAL_COLOR_MODE_BT2100_HLG"
    }
   ],
   "linker_set_key" : "android_color_mode_v1_1_t",
   "name" : "android_color_mode_v1_1_t",
   "referenced_type" : "type-1471",
   "self_type" : "type-1471",
   "size" : 4,
   "source_file" : "/system/core/libsystem/include/system/graphics-base-v1.1.h",
   "underlying_type" : "type-2",
   "unique_id" : "android_color_mode_v1_1_t"
  },
  {
   "alignment" : 4,
   "enum_fields" :
   [
    {
     "enum_field_value" : 0,
     "name" : "HAL_COLOR_TRANSFORM_IDENTITY"
    },
    {
     "enum_field_value" : 1,
     "name" : "HAL_COLOR_TRANSFORM_ARBITRARY_MATRIX"
    },
    {
     "enum_field_value" : 2,
     "name" : "HAL_COLOR_TRANSFORM_VALUE_INVERSE"
    },
    {
     "enum_field_value" : 3,
     "name" : "HAL_COLOR_TRANSFORM_GRAYSCALE"
    },
    {
     "enum_field_value" : 4,
     "name" : "HAL_COLOR_TRANSFORM_CORRECT_PROTANOPIA"
    },
    {
     "enum_field_value" : 5,
     "name" : "HAL_COLOR_TRANSFORM_CORRECT_DEUTERANOPIA"
    },
    {
     "enum_field_value" : 6,
     "name" : "HAL_COLOR_TRANSFORM_CORRECT_TRITANOPIA"
    }
   ],
   "linker_set_key" : "android_color_transform_t",
   "name" : "android_color_transform_t",
   "referenced_type" : "type-1455",
   "self_type" : "type-1455",
   "size" : 4,
   "source_file" : "/system/core/libsystem/include/system/graphics-base-v1.0.h",
   "underlying_type" : "type-2",
   "unique_id" : "android_color_transform_t"
  },
  {
   "alignment" : 4,
   "enum_fields" :
   [
    {
     "enum_field_value" : 0,
     "name" : "HAL_DATASPACE_UNKNOWN"
    },
    {
     "enum_field_value" : 1,
     "name" : "HAL_DATASPACE_ARBITRARY"
    },
    {
     "enum_field_value" : 16,
     "name" : "HAL_DATASPACE_STANDARD_SHIFT"
    },
    {
     "enum_field_value" : 4128768,
     "name" : "HAL_DATASPACE_STANDARD_MASK"
    },
    {
     "enum_field_value" : 0,
     "name" : "HAL_DATASPACE_STANDARD_UNSPECIFIED"
    },
    {
     "enum_field_value" : 65536,
     "name" : "HAL_DATASPACE_STANDARD_BT709"
    },
    {
     "enum_field_value" : 131072,
     "name" : "HAL_DATASPACE_STANDARD_BT601_625"
    },
    {
     "enum_field_value" : 196608,
     "name" : "HAL_DATASPACE_STANDARD_BT601_625_UNADJUSTED"
    },
    {
     "enum_field_value" : 262144,
     "name" : "HAL_DATASPACE_STANDARD_BT601_525"
    },
    {
     "enum_field_value" : 327680,
     "name" : "HAL_DATASPACE_STANDARD_BT601_525_UNADJUSTED"
    },
    {
     "enum_field_value" : 393216,
     "name" : "HAL_DATASPACE_STANDARD_BT2020"
    },
    {
     "enum_field_value" : 458752,
     "name" : "HAL_DATASPACE_STANDARD_BT2020_CONSTANT_LUMINANCE"
    },
    {
     "enum_field_value" : 524288,
     "name" : "HAL_DATASPACE_STANDARD_BT470M"
    },
    {
     "enum_field_value" : 589824,
     "name" : "HAL_DATASPACE_STANDARD_FILM"
    },
    {
     "enum_field_value" : 655360,
     "name" : "HAL_DATASPACE_STANDARD_DCI_P3"
    },
    {
     "enum_field_value" : 720896,
     "name" : "HAL_DATASPACE_STANDARD_ADOBE_RGB"
    },
    {
     "enum_field_value" : 22,
     "name" : "HAL_DATASPACE_TRANSFER_SHIFT"
    },
    {
     "enum_field_value" : 130023424,
     "name" : "HAL_DATASPACE_TRANSFER_MASK"
    },
    {
     "enum_field_value" : 0,
     "name" : "HAL_DATASPACE_TRANSFER_UNSPECIFIED"
    },
    {
     "enum_field_value" : 4194304,
     "name" : "HAL_DATASPACE_TRANSFER_LINEAR"
    },
    {
     "enum_field_value" : 8388608,
     "name" : "HAL_DATASPACE_TRANSFER_SRGB"
    },
    {
     "enum_field_value" : 12582912,
     "name" : "HAL_DATASPACE_TRANSFER_SMPTE_170M"
    },
    {
     "enum_field_value" : 16777216,
     "name" : "HAL_DATASPACE_TRANSFER_GAMMA2_2"
    },
    {
     "enum_field_value" : 20971520,
     "name" : "HAL_DATASPACE_TRANSFER_GAMMA2_6"
    },
    {
     "enum_field_value" : 25165824,
     "name" : "HAL_DATASPACE_TRANSFER_GAMMA2_8"
    },
    {
     "enum_field_value" : 29360128,
     "name" : "HAL_DATASPACE_TRANSFER_ST2084"
    },
    {
     "enum_field_value" : 33554432,
     "name" : "HAL_DATASPACE_TRANSFER_HLG"
    },
    {
     "enum_field_value" : 27,
     "name" : "HAL_DATASPACE_RANGE_SHIFT"
    },
    {
     "enum_field_value" : 939524096,
     "name" : "HAL_DATASPACE_RANGE_MASK"
    },
    {
     "enum_field_value" : 0,
     "name" : "HAL_DATASPACE_RANGE_UNSPECIFIED"
    },
    {
     "enum_field_value" : 134217728,
     "name" : "HAL_DATASPACE_RANGE_FULL"
    },
    {
     "enum_field_value" : 268435456,
     "name" : "HAL_DATASPACE_RANGE_LIMITED"
    },
    {
     "enum_field_value" : 402653184,
     "name" : "HAL_DATASPACE_RANGE_EXTENDED"
    },
    {
     "enum_field_value" : 512,
     "name" : "HAL_DATASPACE_SRGB_LINEAR"
    },
    {
     "enum_field_value" : 138477568,
     "name" : "HAL_DATASPACE_V0_SRGB_LINEAR"
    },
    {
     "enum_field_value" : 406913024,
     "name" : "HAL_DATASPACE_V0_SCRGB_LINEAR"
    },
    {
     "enum_field_value" : 513,
     "name" : "HAL_DATASPACE_SRGB"
    },
    {
     "enum_field_value" : 142671872,
     "name" : "HAL_DATASPACE_V0_SRGB"
    },
    {
     "enum_field_value" : 411107328,
     "name" : "HAL_DATASPACE_V0_SCRGB"
    },
    {
     "enum_field_value" : 257,
     "name" : "HAL_DATASPACE_JFIF"
    },
    {
     "enum_field_value" : 146931712,
     "name" : "HAL_DATASPACE_V0_JFIF"
    },
    {
     "enum_field_value" : 258,
     "name" : "HAL_DATASPACE_BT601_625"
    },
    {
     "enum_field_value" : 281149440,
     "name" : "HAL_DATASPACE_V0_BT601_625"
    },
    {
     "enum_field_value" : 259,
     "name" : "HAL_DATASPACE_BT601_525"
    },
    {
     "enum_field_value" : 281280512,
     "name" : "HAL_DATASPACE_V0_BT601_525"
    },
    {
     "enum_field_value" : 260,
     "name" : "HAL_DATASPACE_BT709"
    },
    {
     "enum_field_value" : 281083904,
     "name" : "HAL_DATASPACE_V0_BT709"
    },
    {
     "enum_field_value" : 139067392,
     "name" : "HAL_DATASPACE_DCI_P3_LINEAR"
    },
    {
     "enum_field_value" : 155844608,
     "name" : "HAL_DATASPACE_DCI_P3"
    },
    {
     "enum_field_value" : 139067392,
     "name" : "HAL_DATASPACE_DISPLAY_P3_LINEAR"
    },
    {
     "enum_field_value" : 143261696,
     "name" : "HAL_DATASPACE_DISPLAY_P3"
    },
    {
     "enum_field_value" : 151715840,
     "name" : "HAL_DATASPACE_ADOBE_RGB"
    },
    {
     "enum_field_value" : 138805248,
     "name" : "HAL_DATASPACE_BT2020_LINEAR"
    },
    {
     "enum_field_value" : 147193856,
     "name" : "HAL_DATASPACE_BT2020"
    },
    {
     "enum_field_value" : 163971072,
     "name" : "HAL_DATASPACE_BT2020_PQ"
    },
    {
     "enum_field_value" : 4096,
     "name" : "HAL_DATASPACE_DEPTH"
    },
    {
     "enum_field_value" : 4097,
     "name" : "HAL_DATASPACE_SENSOR"
    }
   ],
   "linker_set_key" : "android_dataspace_t",
   "name" : "android_dataspace_t",
   "referenced_type" : "type-1451",
   "self_type" : "type-1451",
   "size" : 4,
   "source_file" : "/system/core/libsystem/include/system/graphics-base-v1.0.h",
   "underlying_type" : "type-2",
   "unique_id" : "android_dataspace_t"
  },
  {
   "alignment" : 4,
   "enum_fields" :
   [
    {
     "enum_field_value" : 281411584,
     "name" : "HAL_DATASPACE_BT2020_ITU"
    },
    {
     "enum_field_value" : 298188800,
     "name" : "HAL_DATASPACE_BT2020_ITU_PQ"
    },
    {
     "enum_field_value" : 302383104,
     "name" : "HAL_DATASPACE_BT2020_ITU_HLG"
    },
    {
     "enum_field_value" : 168165376,
     "name" : "HAL_DATASPACE_BT2020_HLG"
    }
   ],
   "linker_set_key" : "android_dataspace_v1_1_t",
   "name" : "android_dataspace_v1_1_t",
   "referenced_type" : "type-1470",
   "self_type" : "type-1470",
   "size" : 4,
   "source_file" : "/system/core/libsystem/include/system/graphics-base-v1.1.h",
   "underlying_type" : "type-2",
   "unique_id" : "android_dataspace_v1_1_t"
  },
  {
   "alignment" : 4,
   "enum_fields" :
   [
    {
     "enum_field_value" : 142999552,
     "name" : "HAL_DATASPACE_DISPLAY_BT2020"
    },
    {
     "enum_field_value" : 4098,
     "name" : "HAL_DATASPACE_DYNAMIC_DEPTH"
    },
    {
     "enum_field_value" : 4099,
     "name" : "HAL_DATASPACE_JPEG_APP_SEGMENTS"
    },
    {
     "enum_field_value" : 4100,
     "name" : "HAL_DATASPACE_HEIF"
    }
   ],
   "linker_set_key" : "android_dataspace_v1_2_t",
   "name" : "android_dataspace_v1_2_t",
   "referenced_type" : "type-1486",
   "self_type" : "type-1486",
   "size" : 4,
   "source_file" : "/system/core/libsystem/include/system/graphics-base-v1.2.h",
   "underlying_type" : "type-2",
   "unique_id" : "android_dataspace_v1_2_t"
  },
  {
   "alignment" : 4,
   "enum_fields" :
   [
    {
     "enum_field_value" : 1,
     "name" : "FLEX_COMPONENT_Y"
    },
    {
     "enum_field_value" : 2,
     "name" : "FLEX_COMPONENT_Cb"
    },
    {
     "enum_field_value" : 4,
     "name" : "FLEX_COMPONENT_Cr"
    },
    {
     "enum_field_value" : 1024,
     "name" : "FLEX_COMPONENT_R"
    },
    {
     "enum_field_value" : 2048,
     "name" : "FLEX_COMPONENT_G"
    },
    {
     "enum_field_value" : 4096,
     "name" : "FLEX_COMPONENT_B"
    },
    {
     "enum_field_value" : 1073741824,
     "name" : "FLEX_COMPONENT_A"
    }
   ],
   "linker_set_key" : "android_flex_component",
   "name" : "android_flex_component",
   "referenced_type" : "type-1516",
   "self_type" : "type-1516",
   "size" : 4,
   "source_file" : "/system/core/libsystem/include/system/graphics.h",
   "underlying_type" : "type-2",
   "unique_id" : "android_flex_component"
  },
  {
   "alignment" : 4,
   "enum_fields" :
   [
    {
     "enum_field_value" : 0,
     "name" : "FLEX_FORMAT_INVALID"
    },
    {
     "enum_field_value" : 1,
     "name" : "FLEX_FORMAT_Y"
    },
    {
     "enum_field_value" : 7,
     "name" : "FLEX_FORMAT_YCbCr"
    },
    {
     "enum_field_value" : 1073741831,
     "name" : "FLEX_FORMAT_YCbCrA"
    },
    {
     "enum_field_value" : 7168,
     "name" : "FLEX_FORMAT_RGB"
    },
    {
     "enum_field_value" : 1073748992,
     "name" : "FLEX_FORMAT_RGBA"
    }
   ],
   "linker_set_key" : "android_flex_format",
   "name" : "android_flex_format",
   "referenced_type" : "type-1518",
   "self_type" : "type-1518",
   "size" : 4,
   "source_file" : "/system/core/libsystem/include/system/graphics.h",
   "underlying_type" : "type-2",
   "unique_id" : "android_flex_format"
  },
  {
   "alignment" : 4,
   "enum_fields" :
   [
    {
     "enum_field_value" : 1,
     "name" : "HAL_HDR_DOLBY_VISION"
    },
    {
     "enum_field_value" : 2,
     "name" : "HAL_HDR_HDR10"
    },
    {
     "enum_field_value" : 3,
     "name" : "HAL_HDR_HLG"
    }
   ],
   "linker_set_key" : "android_hdr_t",
   "name" : "android_hdr_t",
   "referenced_type" : "type-1458",
   "self_type" : "type-1458",
   "size" : 4,
   "source_file" : "/system/core/libsystem/include/system/graphics-base-v1.0.h",
   "underlying_type" : "type-2",
   "unique_id" : "android_hdr_t"
  },
  {
   "alignment" : 4,
   "enum_fields" :
   [
    {
     "enum_field_value" : 4,
     "name" : "HAL_HDR_HDR10_PLUS"
    }
   ],
   "linker_set_key" : "android_hdr_v1_2_t",
   "name" : "android_hdr_v1_2_t",
   "referenced_type" : "type-1477",
   "self_type" : "type-1477",
   "size" : 4,
   "source_file" : "/system/core/libsystem/include/system/graphics-base-v1.2.h",
   "underlying_type" : "type-2",
   "unique_id" : "android_hdr_v1_2_t"
  },
  {
   "alignment" : 4,
   "enum_fields" :
   [
    {
     "enum_field_value" : 39,
     "name" : "HAL_PIXEL_FORMAT_YCBCR_422_888"
    },
    {
     "enum_field_value" : 40,
     "name" : "HAL_PIXEL_FORMAT_YCBCR_444_888"
    },
    {
     "enum_field_value" : 41,
     "name" : "HAL_PIXEL_FORMAT_FLEX_RGB_888"
    },
    {
     "enum_field_value" : 42,
     "name" : "HAL_PIXEL_FORMAT_FLEX_RGBA_8888"
    }
   ],
   "linker_set_key" : "android_pixel_format_sw_t",
   "name" : "android_pixel_format_sw_t",
   "referenced_type" : "type-1496",
   "self_type" : "type-1496",
   "size" : 4,
   "source_file" : "/system/core/libsystem/include/system/graphics-sw.h",
   "underlying_type" : "type-2",
   "unique_id" : "_ZTS25android_pixel_format_sw_t"
  },
  {
   "alignment" : 4,
   "enum_fields" :
   [
    {
     "enum_field_value" : 1,
     "name" : "HAL_PIXEL_FORMAT_RGBA_8888"
    },
    {
     "enum_field_value" : 2,
     "name" : "HAL_PIXEL_FORMAT_RGBX_8888"
    },
    {
     "enum_field_value" : 3,
     "name" : "HAL_PIXEL_FORMAT_RGB_888"
    },
    {
     "enum_field_value" : 4,
     "name" : "HAL_PIXEL_FORMAT_RGB_565"
    },
    {
     "enum_field_value" : 5,
     "name" : "HAL_PIXEL_FORMAT_BGRA_8888"
    },
    {
     "enum_field_value" : 16,
     "name" : "HAL_PIXEL_FORMAT_YCBCR_422_SP"
    },
    {
     "enum_field_value" : 17,
     "name" : "HAL_PIXEL_FORMAT_YCRCB_420_SP"
    },
    {
     "enum_field_value" : 20,
     "name" : "HAL_PIXEL_FORMAT_YCBCR_422_I"
    },
    {
     "enum_field_value" : 22,
     "name" : "HAL_PIXEL_FORMAT_RGBA_FP16"
    },
    {
     "enum_field_value" : 32,
     "name" : "HAL_PIXEL_FORMAT_RAW16"
    },
    {
     "enum_field_value" : 33,
     "name" : "HAL_PIXEL_FORMAT_BLOB"
    },
    {
     "enum_field_value" : 34,
     "name" : "HAL_PIXEL_FORMAT_IMPLEMENTATION_DEFINED"
    },
    {
     "enum_field_value" : 35,
     "name" : "HAL_PIXEL_FORMAT_YCBCR_420_888"
    },
    {
     "enum_field_value" : 36,
     "name" : "HAL_PIXEL_FORMAT_RAW_OPAQUE"
    },
    {
     "enum_field_value" : 37,
     "name" : "HAL_PIXEL_FORMAT_RAW10"
    },
    {
     "enum_field_value" : 38,
     "name" : "HAL_PIXEL_FORMAT_RAW12"
    },
    {
     "enum_field_value" : 43,
     "name" : "HAL_PIXEL_FORMAT_RGBA_1010102"
    },
    {
     "enum_field_value" : 538982489,
     "name" : "HAL_PIXEL_FORMAT_Y8"
    },
    {
     "enum_field_value" : 540422489,
     "name" : "HAL_PIXEL_FORMAT_Y16"
    },
    {
     "enum_field_value" : 842094169,
     "name" : "HAL_PIXEL_FORMAT_YV12"
    }
   ],
   "linker_set_key" : "android_pixel_format_t",
   "name" : "android_pixel_format_t",
   "referenced_type" : "type-1449",
   "self_type" : "type-1449",
   "size" : 4,
   "source_file" : "/system/core/libsystem/include/system/graphics-base-v1.0.h",
   "underlying_type" : "type-2",
   "unique_id" : "android_pixel_format_t"
  },
  {
   "alignment" : 4,
   "enum_fields" :
   [
    {
     "enum_field_value" : 48,
     "name" : "HAL_PIXEL_FORMAT_DEPTH_16"
    },
    {
     "enum_field_value" : 49,
     "name" : "HAL_PIXEL_FORMAT_DEPTH_24"
    },
    {
     "enum_field_value" : 50,
     "name" : "HAL_PIXEL_FORMAT_DEPTH_24_STENCIL_8"
    },
    {
     "enum_field_value" : 51,
     "name" : "HAL_PIXEL_FORMAT_DEPTH_32F"
    },
    {
     "enum_field_value" : 52,
     "name" : "HAL_PIXEL_FORMAT_DEPTH_32F_STENCIL_8"
    },
    {
     "enum_field_value" : 53,
     "name" : "HAL_PIXEL_FORMAT_STENCIL_8"
    },
    {
     "enum_field_value" : 54,
     "name" : "HAL_PIXEL_FORMAT_YCBCR_P010"
    }
   ],
   "linker_set_key" : "android_pixel_format_v1_1_t",
   "name" : "android_pixel_format_v1_1_t",
   "referenced_type" : "type-1467",
   "self_type" : "type-1467",
   "size" : 4,
   "source_file" : "/system/core/libsystem/include/system/graphics-base-v1.1.h",
   "underlying_type" : "type-2",
   "unique_id" : "android_pixel_format_v1_1_t"
  },
  {
   "alignment" : 4,
   "enum_fields" :
   [
    {
     "enum_field_value" : 55,
     "name" : "HAL_PIXEL_FORMAT_HSV_888"
    }
   ],
   "linker_set_key" : "android_pixel_format_v1_2_t",
   "name" : "android_pixel_format_v1_2_t",
   "referenced_type" : "type-1487",
   "self_type" : "type-1487",
   "size" : 4,
   "source_file" : "/system/core/libsystem/include/system/graphics-base-v1.2.h",
   "underlying_type" : "type-2",
   "unique_id" : "android_pixel_format_v1_2_t"
  },
  {
   "alignment" : 4,
   "enum_fields" :
   [
    {
     "enum_field_value" : 0,
     "name" : "HAL_RENDER_INTENT_COLORIMETRIC"
    },
    {
     "enum_field_value" : 1,
     "name" : "HAL_RENDER_INTENT_ENHANCE"
    },
    {
     "enum_field_value" : 2,
     "name" : "HAL_RENDER_INTENT_TONE_MAP_COLORIMETRIC"
    },
    {
     "enum_field_value" : 3,
     "name" : "HAL_RENDER_INTENT_TONE_MAP_ENHANCE"
    }
   ],
   "linker_set_key" : "android_render_intent_v1_1_t",
   "name" : "android_render_intent_v1_1_t",
   "referenced_type" : "type-1472",
   "self_type" : "type-1472",
   "size" : 4,
   "source_file" : "/system/core/libsystem/include/system/graphics-base-v1.1.h",
   "underlying_type" : "type-2",
   "unique_id" : "android_render_intent_v1_1_t"
  },
  {
   "alignment" : 4,
   "enum_fields" :
   [
    {
     "enum_field_value" : 1,
     "name" : "HAL_TRANSFORM_FLIP_H"
    },
    {
     "enum_field_value" : 2,
     "name" : "HAL_TRANSFORM_FLIP_V"
    },
    {
     "enum_field_value" : 4,
     "name" : "HAL_TRANSFORM_ROT_90"
    },
    {
     "enum_field_value" : 3,
     "name" : "HAL_TRANSFORM_ROT_180"
    },
    {
     "enum_field_value" : 7,
     "name" : "HAL_TRANSFORM_ROT_270"
    }
   ],
   "linker_set_key" : "android_transform_t",
   "name" : "android_transform_t",
   "referenced_type" : "type-1450",
   "self_type" : "type-1450",
   "size" : 4,
   "source_file" : "/system/core/libsystem/include/system/graphics-base-v1.0.h",
   "underlying_type" : "type-2",
   "unique_id" : "android_transform_t"
  },
  {
   "alignment" : 4,
   "enum_fields" :
   [
    {
     "enum_field_value" : 0,
     "name" : "LOG_ID_MIN"
    },
    {
     "enum_field_value" : 0,
     "name" : "LOG_ID_MAIN"
    },
    {
     "enum_field_value" : 1,
     "name" : "LOG_ID_RADIO"
    },
    {
     "enum_field_value" : 2,
     "name" : "LOG_ID_EVENTS"
    },
    {
     "enum_field_value" : 3,
     "name" : "LOG_ID_SYSTEM"
    },
    {
     "enum_field_value" : 4,
     "name" : "LOG_ID_CRASH"
    },
    {
     "enum_field_value" : 5,
     "name" : "LOG_ID_STATS"
    },
    {
     "enum_field_value" : 6,
     "name" : "LOG_ID_SECURITY"
    },
    {
     "enum_field_value" : 7,
     "name" : "LOG_ID_KERNEL"
    },
    {
     "enum_field_value" : 8,
     "name" : "LOG_ID_MAX"
    }
   ],
   "linker_set_key" : "log_id",
   "name" : "log_id",
   "referenced_type" : "type-943",
   "self_type" : "type-943",
   "size" : 4,
   "source_file" : "/system/core/liblog/include/android/log.h",
   "underlying_type" : "type-2",
   "unique_id" : "log_id"
  }
 ],
 "function_types" :
 [
  {
   "alignment" : 4,
   "linker_set_key" : "bool (const android::String16 &, const android::sp<android::hardware::IBinder> &, void *)",
   "name" : "bool (const android::String16 &, const android::sp<android::hardware::IBinder> &, void *)",
   "parameters" :
   [
    {
     "referenced_type" : "type-68"
    },
    {
     "referenced_type" : "type-74"
    },
    {
     "referenced_type" : "type-52"
    }
   ],
   "referenced_type" : "type-67",
   "return_type" : "type-65",
   "self_type" : "type-67",
   "source_file" : "/system/libhwbinder/include/hwbinder/ProcessState.h"
  },
  {
   "alignment" : 4,
   "linker_set_key" : "int (void *)",
   "name" : "int (void *)",
   "parameters" :
   [
    {
     "referenced_type" : "type-52"
    }
   ],
   "referenced_type" : "type-1537",
   "return_type" : "type-51",
   "self_type" : "type-1537",
   "source_file" : "/system/core/libutils/include/utils/AndroidThreads.h"
  },
  {
   "alignment" : 4,
   "linker_set_key" : "void (android::hardware::Parcel *, const unsigned char *, unsigned int, const unsigned long long *, unsigned int, void *)",
   "name" : "void (android::hardware::Parcel *, const unsigned char *, unsigned int, const unsigned long long *, unsigned int, void *)",
   "parameters" :
   [
    {
     "referenced_type" : "type-1325"
    },
    {
     "referenced_type" : "type-334"
    },
    {
     "referenced_type" : "type-2"
    },
    {
     "referenced_type" : "type-1326"
    },
    {
     "referenced_type" : "type-2"
    },
    {
     "referenced_type" : "type-52"
    }
   ],
   "referenced_type" : "type-1324",
   "return_type" : "type-53",
   "self_type" : "type-1324",
   "source_file" : "/system/libhwbinder/include/hwbinder/Parcel.h"
  }
 ],
 "functions" :
 [
  {
   "function_name" : "android::hardware::fromBinder",
   "linker_set_key" : "_ZN7android8hardware10fromBinderINS0_4wifi10supplicant4V1_227ISupplicantStaIfaceCallbackENS4_30BpHwSupplicantStaIfaceCallbackENS4_30BnHwSupplicantStaIfaceCallbackEEENS_2spIT_EERKNS8_INS0_7IBinderEEE",
   "parameters" :
   [
    {
     "referenced_type" : "type-74"
    }
   ],
   "return_type" : "type-199",
   "source_file" : "/system/libhidl/transport/include/hidl/HidlBinderSupport.h",
   "template_args" : [ "type-201", "type-231", "type-395" ]
  },
  {
   "function_name" : "android::hardware::wifi::supplicant::V1_2::ISupplicant::getService",
   "linker_set_key" : "_ZN7android8hardware4wifi10supplicant4V1_211ISupplicant10getServiceERKNSt3__112basic_stringIcNS5_11char_traitsIcEENS5_9allocatorIcEEEEb",
   "parameters" :
   [
    {
     "default_arg" : true,
     "referenced_type" : "type-1345"
    },
    {
     "default_arg" : true,
     "referenced_type" : "type-65"
    }
   ],
   "return_type" : "type-669",
   "source_file" : "/out/soong/.intermediates/hardware/interfaces/wifi/supplicant/1.2/android.hardware.wifi.supplicant@1.2_genc++_headers/gen/android/hardware/wifi/supplicant/1.2/ISupplicant.h"
  },
  {
   "function_name" : "android::hardware::wifi::supplicant::V1_2::ISupplicant::linkToDeath",
   "linker_set_key" : "_ZN7android8hardware4wifi10supplicant4V1_211ISupplicant11linkToDeathERKNS_2spINS0_20hidl_death_recipientEEEy",
   "parameters" :
   [
    {
     "is_this_ptr" : true,
     "referenced_type" : "type-670"
    },
    {
     "referenced_type" : "type-1074"
    },
    {
     "referenced_type" : "type-30"
    }
   ],
   "return_type" : "type-692",
   "source_file" : "/out/soong/.intermediates/hardware/interfaces/wifi/supplicant/1.2/android.hardware.wifi.supplicant@1.2_genc++_headers/gen/android/hardware/wifi/supplicant/1.2/ISupplicant.h"
  },
  {
   "function_name" : "android::hardware::wifi::supplicant::V1_2::ISupplicant::getDebugInfo",
   "linker_set_key" : "_ZN7android8hardware4wifi10supplicant4V1_211ISupplicant12getDebugInfoENSt3__18functionIFvRKNS_4hidl4base4V1_09DebugInfoEEEE",
   "parameters" :
   [
    {
     "is_this_ptr" : true,
     "referenced_type" : "type-670"
    },
    {
     "referenced_type" : "type-1770"
    }
   ],
   "return_type" : "type-799",
   "source_file" : "/out/soong/.intermediates/hardware/interfaces/wifi/supplicant/1.2/android.hardware.wifi.supplicant@1.2_genc++_headers/gen/android/hardware/wifi/supplicant/1.2/ISupplicant.h"
  },
  {
   "function_name" : "android::hardware::wifi::supplicant::V1_2::ISupplicant::getHashChain",
   "linker_set_key" : "_ZN7android8hardware4wifi10supplicant4V1_211ISupplicant12getHashChainENSt3__18functionIFvRKNS0_8hidl_vecINS0_10hidl_arrayIhLj32EJEEEEEEEE",
   "parameters" :
   [
    {
     "is_this_ptr" : true,
     "referenced_type" : "type-670"
    },
    {
     "referenced_type" : "type-1771"
    }
   ],
   "return_type" : "type-799",
   "source_file" : "/out/soong/.intermediates/hardware/interfaces/wifi/supplicant/1.2/android.hardware.wifi.supplicant@1.2_genc++_headers/gen/android/hardware/wifi/supplicant/1.2/ISupplicant.h"
  },
  {
   "function_name" : "android::hardware::wifi::supplicant::V1_2::ISupplicant::tryGetService",
   "linker_set_key" : "_ZN7android8hardware4wifi10supplicant4V1_211ISupplicant13tryGetServiceERKNSt3__112basic_stringIcNS5_11char_traitsIcEENS5_9allocatorIcEEEEb",
   "parameters" :
   [
    {
     "default_arg" : true,
     "referenced_type" : "type-1345"
    },
    {
     "default_arg" : true,
     "referenced_type" : "type-65"
    }
   ],
   "return_type" : "type-669",
   "source_file" : "/out/soong/.intermediates/hardware/interfaces/wifi/supplicant/1.2/android.hardware.wifi.supplicant@1.2_genc++_headers/gen/android/hardware/wifi/supplicant/1.2/ISupplicant.h"
  },
  {
   "function_name" : "android::hardware::wifi::supplicant::V1_2::ISupplicant::unlinkToDeath",
   "linker_set_key" : "_ZN7android8hardware4wifi10supplicant4V1_211ISupplicant13unlinkToDeathERKNS_2spINS0_20hidl_death_recipientEEE",
   "parameters" :
   [
    {
     "is_this_ptr" : true,
     "referenced_type" : "type-670"
    },
    {
     "referenced_type" : "type-1074"
    }
   ],
   "return_type" : "type-692",
   "source_file" : "/out/soong/.intermediates/hardware/interfaces/wifi/supplicant/1.2/android.hardware.wifi.supplicant@1.2_genc++_headers/gen/android/hardware/wifi/supplicant/1.2/ISupplicant.h"
  },
  {
   "function_name" : "android::hardware::wifi::supplicant::V1_2::ISupplicant::interfaceChain",
   "linker_set_key" : "_ZN7android8hardware4wifi10supplicant4V1_211ISupplicant14interfaceChainENSt3__18functionIFvRKNS0_8hidl_vecINS0_11hidl_stringEEEEEE",
   "parameters" :
   [
    {
     "is_this_ptr" : true,
     "referenced_type" : "type-670"
    },
    {
     "referenced_type" : "type-1772"
    }
   ],
   "return_type" : "type-799",
   "source_file" : "/out/soong/.intermediates/hardware/interfaces/wifi/supplicant/1.2/android.hardware.wifi.supplicant@1.2_genc++_headers/gen/android/hardware/wifi/supplicant/1.2/ISupplicant.h"
  },
  {
   "function_name" : "android::hardware::wifi::supplicant::V1_2::ISupplicant::registerAsService",
   "linker_set_key" : "_ZN7android8hardware4wifi10supplicant4V1_211ISupplicant17registerAsServiceERKNSt3__112basic_stringIcNS5_11char_traitsIcEENS5_9allocatorIcEEEE",
   "parameters" :
   [
    {
     "is_this_ptr" : true,
     "referenced_type" : "type-670"
    },
    {
     "default_arg" : true,
     "referenced_type" : "type-1345"
    }
   ],
   "return_type" : "type-51",
   "source_file" : "/out/soong/.intermediates/hardware/interfaces/wifi/supplicant/1.2/android.hardware.wifi.supplicant@1.2_genc++_headers/gen/android/hardware/wifi/supplicant/1.2/ISupplicant.h"
  },
  {
   "function_name" : "android::hardware::wifi::supplicant::V1_2::ISupplicant::interfaceDescriptor",
   "linker_set_key" : "_ZN7android8hardware4wifi10supplicant4V1_211ISupplicant19interfaceDescriptorENSt3__18functionIFvRKNS0_11hidl_stringEEEE",
   "parameters" :
   [
    {
     "is_this_ptr" : true,
     "referenced_type" : "type-670"
    },
    {
     "referenced_type" : "type-1773"
    }
   ],
   "return_type" : "type-799",
   "source_file" : "/out/soong/.intermediates/hardware/interfaces/wifi/supplicant/1.2/android.hardware.wifi.supplicant@1.2_genc++_headers/gen/android/hardware/wifi/supplicant/1.2/ISupplicant.h"
  },
  {
   "function_name" : "android::hardware::wifi::supplicant::V1_2::ISupplicant::notifySyspropsChanged",
   "linker_set_key" : "_ZN7android8hardware4wifi10supplicant4V1_211ISupplicant21notifySyspropsChangedEv",
   "parameters" :
   [
    {
     "is_this_ptr" : true,
     "referenced_type" : "type-670"
    }
   ],
   "return_type" : "type-799",
   "source_file" : "/out/soong/.intermediates/hardware/interfaces/wifi/supplicant/1.2/android.hardware.wifi.supplicant@1.2_genc++_headers/gen/android/hardware/wifi/supplicant/1.2/ISupplicant.h"
  },
  {
   "function_name" : "android::hardware::wifi::supplicant::V1_2::ISupplicant::setHALInstrumentation",
   "linker_set_key" : "_ZN7android8hardware4wifi10supplicant4V1_211ISupplicant21setHALInstrumentationEv",
   "parameters" :
   [
    {
     "is_this_ptr" : true,
     "referenced_type" : "type-670"
    }
   ],
   "return_type" : "type-799",
   "source_file" : "/out/soong/.intermediates/hardware/interfaces/wifi/supplicant/1.2/android.hardware.wifi.supplicant@1.2_genc++_headers/gen/android/hardware/wifi/supplicant/1.2/ISupplicant.h"
  },
  {
   "function_name" : "android::hardware::wifi::supplicant::V1_2::ISupplicant::registerForNotifications",
   "linker_set_key" : "_ZN7android8hardware4wifi10supplicant4V1_211ISupplicant24registerForNotificationsERKNSt3__112basic_stringIcNS5_11char_traitsIcEENS5_9allocatorIcEEEERKNS_2spINS_4hidl7manager4V1_020IServiceNotificationEEE",
   "parameters" :
   [
    {
     "referenced_type" : "type-1345"
    },
    {
     "referenced_type" : "type-1618"
    }
   ],
   "return_type" : "type-65",
   "source_file" : "/out/soong/.intermediates/hardware/interfaces/wifi/supplicant/1.2/android.hardware.wifi.supplicant@1.2_genc++_headers/gen/android/hardware/wifi/supplicant/1.2/ISupplicant.h"
  },
  {
   "function_name" : "android::hardware::wifi::supplicant::V1_2::ISupplicant::ping",
   "linker_set_key" : "_ZN7android8hardware4wifi10supplicant4V1_211ISupplicant4pingEv",
   "parameters" :
   [
    {
     "is_this_ptr" : true,
     "referenced_type" : "type-670"
    }
   ],
   "return_type" : "type-799",
   "source_file" : "/out/soong/.intermediates/hardware/interfaces/wifi/supplicant/1.2/android.hardware.wifi.supplicant@1.2_genc++_headers/gen/android/hardware/wifi/supplicant/1.2/ISupplicant.h"
  },
  {
   "function_name" : "android::hardware::wifi::supplicant::V1_2::ISupplicant::debug",
   "linker_set_key" : "_ZN7android8hardware4wifi10supplicant4V1_211ISupplicant5debugERKNS0_11hidl_handleERKNS0_8hidl_vecINS0_11hidl_stringEEE",
   "parameters" :
   [
    {
     "is_this_ptr" : true,
     "referenced_type" : "type-670"
    },
    {
     "referenced_type" : "type-1187"
    },
    {
     "referenced_type" : "type-1617"
    }
   ],
   "return_type" : "type-799",
   "source_file" : "/out/soong/.intermediates/hardware/interfaces/wifi/supplicant/1.2/android.hardware.wifi.supplicant@1.2_genc++_headers/gen/android/hardware/wifi/supplicant/1.2/ISupplicant.h"
  },
  {
   "function_name" : "android::hardware::wifi::supplicant::V1_2::ISupplicant::castFrom",
   "linker_set_key" : "_ZN7android8hardware4wifi10supplicant4V1_211ISupplicant8castFromERKNS_2spINS2_4V1_011ISupplicantEEEb",
   "parameters" :
   [
    {
     "referenced_type" : "type-604"
    },
    {
     "default_arg" : true,
     "referenced_type" : "type-65"
    }
   ],
   "return_type" : "type-733",
   "source_file" : "/out/soong/.intermediates/hardware/interfaces/wifi/supplicant/1.2/android.hardware.wifi.supplicant@1.2_genc++_headers/gen/android/hardware/wifi/supplicant/1.2/ISupplicant.h"
  },
  {
   "function_name" : "android::hardware::wifi::supplicant::V1_2::ISupplicant::castFrom",
   "linker_set_key" : "_ZN7android8hardware4wifi10supplicant4V1_211ISupplicant8castFromERKNS_2spINS2_4V1_111ISupplicantEEEb",
   "parameters" :
   [
    {
     "referenced_type" : "type-665"
    },
    {
     "default_arg" : true,
     "referenced_type" : "type-65"
    }
   ],
   "return_type" : "type-733",
   "source_file" : "/out/soong/.intermediates/hardware/interfaces/wifi/supplicant/1.2/android.hardware.wifi.supplicant@1.2_genc++_headers/gen/android/hardware/wifi/supplicant/1.2/ISupplicant.h"
  },
  {
   "function_name" : "android::hardware::wifi::supplicant::V1_2::ISupplicant::castFrom",
   "linker_set_key" : "_ZN7android8hardware4wifi10supplicant4V1_211ISupplicant8castFromERKNS_2spINS_4hidl4base4V1_05IBaseEEEb",
   "parameters" :
   [
    {
     "referenced_type" : "type-1697"
    },
    {
     "default_arg" : true,
     "referenced_type" : "type-65"
    }
   ],
   "return_type" : "type-733",
   "source_file" : "/out/soong/.intermediates/hardware/interfaces/wifi/supplicant/1.2/android.hardware.wifi.supplicant@1.2_genc++_headers/gen/android/hardware/wifi/supplicant/1.2/ISupplicant.h"
  },
  {
   "function_name" : "android::hardware::wifi::supplicant::V1_2::ISupplicant::castFrom",
   "linker_set_key" : "_ZN7android8hardware4wifi10supplicant4V1_211ISupplicant8castFromERKNS_2spIS4_EEb",
   "parameters" :
   [
    {
     "referenced_type" : "type-1688"
    },
    {
     "default_arg" : true,
     "referenced_type" : "type-65"
    }
   ],
   "return_type" : "type-733",
   "source_file" : "/out/soong/.intermediates/hardware/interfaces/wifi/supplicant/1.2/android.hardware.wifi.supplicant@1.2_genc++_headers/gen/android/hardware/wifi/supplicant/1.2/ISupplicant.h"
  },
  {
   "access" : "private",
   "function_name" : "android::hardware::wifi::supplicant::V1_2::BsSupplicant::addOnewayTask",
   "linker_set_key" : "_ZN7android8hardware4wifi10supplicant4V1_212BsSupplicant13addOnewayTaskENSt3__18functionIFvvEEE",
   "parameters" :
   [
    {
     "is_this_ptr" : true,
     "referenced_type" : "type-1709"
    },
    {
     "referenced_type" : "type-1778"
    }
   ],
   "return_type" : "type-799",
   "source_file" : "/out/soong/.intermediates/hardware/interfaces/wifi/supplicant/1.2/android.hardware.wifi.supplicant@1.2_genc++_headers/gen/android/hardware/wifi/supplicant/1.2/BsSupplicant.h"
  },
  {
   "function_name" : "android::hardware::wifi::supplicant::V1_2::BsSupplicant::BsSupplicant",
   "linker_set_key" : "_ZN7android8hardware4wifi10supplicant4V1_212BsSupplicantC1ENS_2spINS3_11ISupplicantEEE",
   "parameters" :
   [
    {
     "is_this_ptr" : true,
     "referenced_type" : "type-1709"
    },
    {
     "referenced_type" : "type-675"
    }
   ],
   "return_type" : "type-53",
   "source_file" : "/out/soong/.intermediates/hardware/interfaces/wifi/supplicant/1.2/android.hardware.wifi.supplicant@1.2_genc++_headers/gen/android/hardware/wifi/supplicant/1.2/BsSupplicant.h"
  },
  {
   "function_name" : "android::hardware::wifi::supplicant::V1_2::BsSupplicant::BsSupplicant",
   "linker_set_key" : "_ZN7android8hardware4wifi10supplicant4V1_212BsSupplicantC2ENS_2spINS3_11ISupplicantEEE",
   "parameters" :
   [
    {
     "is_this_ptr" : true,
     "referenced_type" : "type-1709"
    },
    {
     "referenced_type" : "type-675"
    }
   ],
   "return_type" : "type-53",
   "source_file" : "/out/soong/.intermediates/hardware/interfaces/wifi/supplicant/1.2/android.hardware.wifi.supplicant@1.2_genc++_headers/gen/android/hardware/wifi/supplicant/1.2/BsSupplicant.h"
  },
  {
   "function_name" : "android::hardware::wifi::supplicant::V1_2::BnHwSupplicant::onTransact",
   "linker_set_key" : "_ZN7android8hardware4wifi10supplicant4V1_214BnHwSupplicant10onTransactEjRKNS0_6ParcelEPS5_jNSt3__18functionIFvRS5_EEE",
   "parameters" :
   [
    {
     "is_this_ptr" : true,
     "referenced_type" : "type-1601"
    },
    {
     "referenced_type" : "type-2"
    },
    {
     "referenced_type" : "type-1331"
    },
    {
     "referenced_type" : "type-1325"
    },
    {
     "default_arg" : true,
     "referenced_type" : "type-2"
    },
    {
     "default_arg" : true,
     "referenced_type" : "type-1786"
    }
   ],
   "return_type" : "type-51",
   "source_file" : "/out/soong/.intermediates/hardware/interfaces/wifi/supplicant/1.2/android.hardware.wifi.supplicant@1.2_genc++_headers/gen/android/hardware/wifi/supplicant/1.2/BnHwSupplicant.h"
  },
  {
   "access" : "private",
   "function_name" : "android::hardware::wifi::supplicant::V1_2::BnHwSupplicant::getDebugInfo",
   "linker_set_key" : "_ZN7android8hardware4wifi10supplicant4V1_214BnHwSupplicant12getDebugInfoENSt3__18functionIFvRKNS_4hidl4base4V1_09DebugInfoEEEE",
   "parameters" :
   [
    {
     "is_this_ptr" : true,
     "referenced_type" : "type-1601"
    },
    {
     "referenced_type" : "type-1787"
    }
   ],
   "return_type" : "type-799",
   "source_file" : "/out/soong/.intermediates/hardware/interfaces/wifi/supplicant/1.2/android.hardware.wifi.supplicant@1.2_genc++_headers/gen/android/hardware/wifi/supplicant/1.2/BnHwSupplicant.h"
  },
  {
   "access" : "private",
   "function_name" : "android::hardware::wifi::supplicant::V1_2::BnHwSupplicant::ping",
   "linker_set_key" : "_ZN7android8hardware4wifi10supplicant4V1_214BnHwSupplicant4pingEv",
   "parameters" :
   [
    {
     "is_this_ptr" : true,
     "referenced_type" : "type-1601"
    }
   ],
   "return_type" : "type-799",
   "source_file" : "/out/soong/.intermediates/hardware/interfaces/wifi/supplicant/1.2/android.hardware.wifi.supplicant@1.2_genc++_headers/gen/android/hardware/wifi/supplicant/1.2/BnHwSupplicant.h"
  },
  {
   "function_name" : "android::hardware::wifi::supplicant::V1_2::BnHwSupplicant::BnHwSupplicant",
   "linker_set_key" : "_ZN7android8hardware4wifi10supplicant4V1_214BnHwSupplicantC1ERKNS_2spINS3_11ISupplicantEEE",
   "parameters" :
   [
    {
     "is_this_ptr" : true,
     "referenced_type" : "type-1601"
    },
    {
     "referenced_type" : "type-1688"
    }
   ],
   "return_type" : "type-53",
   "source_file" : "/out/soong/.intermediates/hardware/interfaces/wifi/supplicant/1.2/android.hardware.wifi.supplicant@1.2_genc++_headers/gen/android/hardware/wifi/supplicant/1.2/BnHwSupplicant.h"
  },
  {
   "function_name" : "android::hardware::wifi::supplicant::V1_2::BnHwSupplicant::BnHwSupplicant",
   "linker_set_key" : "_ZN7android8hardware4wifi10supplicant4V1_214BnHwSupplicantC2ERKNS_2spINS3_11ISupplicantEEE",
   "parameters" :
   [
    {
     "is_this_ptr" : true,
     "referenced_type" : "type-1601"
    },
    {
     "referenced_type" : "type-1688"
    }
   ],
   "return_type" : "type-53",
   "source_file" : "/out/soong/.intermediates/hardware/interfaces/wifi/supplicant/1.2/android.hardware.wifi.supplicant@1.2_genc++_headers/gen/android/hardware/wifi/supplicant/1.2/BnHwSupplicant.h"
  },
  {
   "function_name" : "android::hardware::wifi::supplicant::V1_2::BnHwSupplicant::~BnHwSupplicant",
   "linker_set_key" : "_ZN7android8hardware4wifi10supplicant4V1_214BnHwSupplicantD0Ev",
   "parameters" :
   [
    {
     "is_this_ptr" : true,
     "referenced_type" : "type-1601"
    }
   ],
   "return_type" : "type-53",
   "source_file" : "/out/soong/.intermediates/hardware/interfaces/wifi/supplicant/1.2/android.hardware.wifi.supplicant@1.2_genc++_headers/gen/android/hardware/wifi/supplicant/1.2/BnHwSupplicant.h"
  },
  {
   "function_name" : "android::hardware::wifi::supplicant::V1_2::BnHwSupplicant::~BnHwSupplicant",
   "linker_set_key" : "_ZN7android8hardware4wifi10supplicant4V1_214BnHwSupplicantD1Ev",
   "parameters" :
   [
    {
     "is_this_ptr" : true,
     "referenced_type" : "type-1601"
    }
   ],
   "return_type" : "type-53",
   "source_file" : "/out/soong/.intermediates/hardware/interfaces/wifi/supplicant/1.2/android.hardware.wifi.supplicant@1.2_genc++_headers/gen/android/hardware/wifi/supplicant/1.2/BnHwSupplicant.h"
  },
  {
   "function_name" : "android::hardware::wifi::supplicant::V1_2::BnHwSupplicant::~BnHwSupplicant",
   "linker_set_key" : "_ZN7android8hardware4wifi10supplicant4V1_214BnHwSupplicantD2Ev",
   "parameters" :
   [
    {
     "is_this_ptr" : true,
     "referenced_type" : "type-1601"
    }
   ],
   "return_type" : "type-53",
   "source_file" : "/out/soong/.intermediates/hardware/interfaces/wifi/supplicant/1.2/android.hardware.wifi.supplicant@1.2_genc++_headers/gen/android/hardware/wifi/supplicant/1.2/BnHwSupplicant.h"
  },
  {
   "function_name" : "android::hardware::wifi::supplicant::V1_2::BpHwSupplicant::linkToDeath",
   "linker_set_key" : "_ZN7android8hardware4wifi10supplicant4V1_214BpHwSupplicant11linkToDeathERKNS_2spINS0_20hidl_death_recipientEEEy",
   "parameters" :
   [
    {
     "is_this_ptr" : true,
     "referenced_type" : "type-1732"
    },
    {
     "referenced_type" : "type-1074"
    },
    {
     "referenced_type" : "type-30"
    }
   ],
   "return_type" : "type-692",
   "source_file" : "/out/soong/.intermediates/hardware/interfaces/wifi/supplicant/1.2/android.hardware.wifi.supplicant@1.2_genc++_headers/gen/android/hardware/wifi/supplicant/1.2/BpHwSupplicant.h"
  },
  {
   "function_name" : "android::hardware::wifi::supplicant::V1_2::BpHwSupplicant::addInterface",
   "linker_set_key" : "_ZN7android8hardware4wifi10supplicant4V1_214BpHwSupplicant12addInterfaceERKNS2_4V1_011ISupplicant9IfaceInfoENSt3__18functionIFvRKNS5_16SupplicantStatusERKNS_2spINS5_16ISupplicantIfaceEEEEEE",
   "parameters" :
   [
    {
     "is_this_ptr" : true,
     "referenced_type" : "type-1732"
    },
    {
     "referenced_type" : "type-1673"
    },
    {
     "referenced_type" : "type-1788"
    }
   ],
   "return_type" : "type-799",
   "source_file" : "/out/soong/.intermediates/hardware/interfaces/wifi/supplicant/1.2/android.hardware.wifi.supplicant@1.2_genc++_headers/gen/android/hardware/wifi/supplicant/1.2/BpHwSupplicant.h"
  },
  {
   "function_name" : "android::hardware::wifi::supplicant::V1_2::BpHwSupplicant::getDebugInfo",
   "linker_set_key" : "_ZN7android8hardware4wifi10supplicant4V1_214BpHwSupplicant12getDebugInfoENSt3__18functionIFvRKNS_4hidl4base4V1_09DebugInfoEEEE",
   "parameters" :
   [
    {
     "is_this_ptr" : true,
     "referenced_type" : "type-1732"
    },
    {
     "referenced_type" : "type-1789"
    }
   ],
   "return_type" : "type-799",
   "source_file" : "/out/soong/.intermediates/hardware/interfaces/wifi/supplicant/1.2/android.hardware.wifi.supplicant@1.2_genc++_headers/gen/android/hardware/wifi/supplicant/1.2/BpHwSupplicant.h"
  },
  {
   "function_name" : "android::hardware::wifi::supplicant::V1_2::BpHwSupplicant::getHashChain",
   "linker_set_key" : "_ZN7android8hardware4wifi10supplicant4V1_214BpHwSupplicant12getHashChainENSt3__18functionIFvRKNS0_8hidl_vecINS0_10hidl_arrayIhLj32EJEEEEEEEE",
   "parameters" :
   [
    {
     "is_this_ptr" : true,
     "referenced_type" : "type-1732"
    },
    {
     "referenced_type" : "type-1790"
    }
   ],
   "return_type" : "type-799",
   "source_file" : "/out/soong/.intermediates/hardware/interfaces/wifi/supplicant/1.2/android.hardware.wifi.supplicant@1.2_genc++_headers/gen/android/hardware/wifi/supplicant/1.2/BpHwSupplicant.h"
  },
  {
   "function_name" : "android::hardware::wifi::supplicant::V1_2::BpHwSupplicant::getInterface",
   "linker_set_key" : "_ZN7android8hardware4wifi10supplicant4V1_214BpHwSupplicant12getInterfaceERKNS2_4V1_011ISupplicant9IfaceInfoENSt3__18functionIFvRKNS5_16SupplicantStatusERKNS_2spINS5_16ISupplicantIfaceEEEEEE",
   "parameters" :
   [
    {
     "is_this_ptr" : true,
     "referenced_type" : "type-1732"
    },
    {
     "referenced_type" : "type-1673"
    },
    {
     "referenced_type" : "type-1791"
    }
   ],
   "return_type" : "type-799",
   "source_file" : "/out/soong/.intermediates/hardware/interfaces/wifi/supplicant/1.2/android.hardware.wifi.supplicant@1.2_genc++_headers/gen/android/hardware/wifi/supplicant/1.2/BpHwSupplicant.h"
  },
  {
   "function_name" : "android::hardware::wifi::supplicant::V1_2::BpHwSupplicant::getDebugLevel",
   "linker_set_key" : "_ZN7android8hardware4wifi10supplicant4V1_214BpHwSupplicant13getDebugLevelEv",
   "parameters" :
   [
    {
     "is_this_ptr" : true,
     "referenced_type" : "type-1732"
    }
   ],
   "return_type" : "type-708",
   "source_file" : "/out/soong/.intermediates/hardware/interfaces/wifi/supplicant/1.2/android.hardware.wifi.supplicant@1.2_genc++_headers/gen/android/hardware/wifi/supplicant/1.2/BpHwSupplicant.h"
  },
  {
   "function_name" : "android::hardware::wifi::supplicant::V1_2::BpHwSupplicant::unlinkToDeath",
   "linker_set_key" : "_ZN7android8hardware4wifi10supplicant4V1_214BpHwSupplicant13unlinkToDeathERKNS_2spINS0_20hidl_death_recipientEEE",
   "parameters" :
   [
    {
     "is_this_ptr" : true,
     "referenced_type" : "type-1732"
    },
    {
     "referenced_type" : "type-1074"
    }
   ],
   "return_type" : "type-692",
   "source_file" : "/out/soong/.intermediates/hardware/interfaces/wifi/supplicant/1.2/android.hardware.wifi.supplicant@1.2_genc++_headers/gen/android/hardware/wifi/supplicant/1.2/BpHwSupplicant.h"
  },
  {
   "function_name" : "android::hardware::wifi::supplicant::V1_2::BpHwSupplicant::interfaceChain",
   "linker_set_key" : "_ZN7android8hardware4wifi10supplicant4V1_214BpHwSupplicant14interfaceChainENSt3__18functionIFvRKNS0_8hidl_vecINS0_11hidl_stringEEEEEE",
   "parameters" :
   [
    {
     "is_this_ptr" : true,
     "referenced_type" : "type-1732"
    },
    {
     "referenced_type" : "type-1792"
    }
   ],
   "return_type" : "type-799",
   "source_file" : "/out/soong/.intermediates/hardware/interfaces/wifi/supplicant/1.2/android.hardware.wifi.supplicant@1.2_genc++_headers/gen/android/hardware/wifi/supplicant/1.2/BpHwSupplicant.h"
  },
  {
   "function_name" : "android::hardware::wifi::supplicant::V1_2::BpHwSupplicant::listInterfaces",
   "linker_set_key" : "_ZN7android8hardware4wifi10supplicant4V1_214BpHwSupplicant14listInterfacesENSt3__18functionIFvRKNS2_4V1_016SupplicantStatusERKNS0_8hidl_vecINS7_11ISupplicant9IfaceInfoEEEEEE",
   "parameters" :
   [
    {
     "is_this_ptr" : true,
     "referenced_type" : "type-1732"
    },
    {
     "referenced_type" : "type-1793"
    }
   ],
   "return_type" : "type-799",
   "source_file" : "/out/soong/.intermediates/hardware/interfaces/wifi/supplicant/1.2/android.hardware.wifi.supplicant@1.2_genc++_headers/gen/android/hardware/wifi/supplicant/1.2/BpHwSupplicant.h"
  },
  {
   "function_name" : "android::hardware::wifi::supplicant::V1_2::BpHwSupplicant::setDebugParams",
   "linker_set_key" : "_ZN7android8hardware4wifi10supplicant4V1_214BpHwSupplicant14setDebugParamsENS2_4V1_011ISupplicant10DebugLevelEbbNSt3__18functionIFvRKNS5_16SupplicantStatusEEEE",
   "parameters" :
   [
    {
     "is_this_ptr" : true,
     "referenced_type" : "type-1732"
    },
    {
     "referenced_type" : "type-709"
    },
    {
     "referenced_type" : "type-65"
    },
    {
     "referenced_type" : "type-65"
    },
    {
     "referenced_type" : "type-1794"
    }
   ],
   "return_type" : "type-799",
   "source_file" : "/out/soong/.intermediates/hardware/interfaces/wifi/supplicant/1.2/android.hardware.wifi.supplicant@1.2_genc++_headers/gen/android/hardware/wifi/supplicant/1.2/BpHwSupplicant.h"
  },
  {
   "function_name" : "android::hardware::wifi::supplicant::V1_2::BpHwSupplicant::removeInterface",
   "linker_set_key" : "_ZN7android8hardware4wifi10supplicant4V1_214BpHwSupplicant15removeInterfaceERKNS2_4V1_011ISupplicant9IfaceInfoENSt3__18functionIFvRKNS5_16SupplicantStatusEEEE",
   "parameters" :
   [
    {
     "is_this_ptr" : true,
     "referenced_type" : "type-1732"
    },
    {
     "referenced_type" : "type-1673"
    },
    {
     "referenced_type" : "type-1795"
    }
   ],
   "return_type" : "type-799",
   "source_file" : "/out/soong/.intermediates/hardware/interfaces/wifi/supplicant/1.2/android.hardware.wifi.supplicant@1.2_genc++_headers/gen/android/hardware/wifi/supplicant/1.2/BpHwSupplicant.h"
  },
  {
   "function_name" : "android::hardware::wifi::supplicant::V1_2::BpHwSupplicant::registerCallback",
   "linker_set_key" : "_ZN7android8hardware4wifi10supplicant4V1_214BpHwSupplicant16registerCallbackERKNS_2spINS2_4V1_019ISupplicantCallbackEEENSt3__18functionIFvRKNS6_16SupplicantStatusEEEE",
   "parameters" :
   [
    {
     "is_this_ptr" : true,
     "referenced_type" : "type-1732"
    },
    {
     "referenced_type" : "type-1760"
    },
    {
     "referenced_type" : "type-1796"
    }
   ],
   "return_type" : "type-799",
   "source_file" : "/out/soong/.intermediates/hardware/interfaces/wifi/supplicant/1.2/android.hardware.wifi.supplicant@1.2_genc++_headers/gen/android/hardware/wifi/supplicant/1.2/BpHwSupplicant.h"
  },
  {
   "function_name" : "android::hardware::wifi::supplicant::V1_2::BpHwSupplicant::interfaceDescriptor",
   "linker_set_key" : "_ZN7android8hardware4wifi10supplicant4V1_214BpHwSupplicant19interfaceDescriptorENSt3__18functionIFvRKNS0_11hidl_stringEEEE",
   "parameters" :
   [
    {
     "is_this_ptr" : true,
     "referenced_type" : "type-1732"
    },
    {
     "referenced_type" : "type-1797"
    }
   ],
   "return_type" : "type-799",
   "source_file" : "/out/soong/.intermediates/hardware/interfaces/wifi/supplicant/1.2/android.hardware.wifi.supplicant@1.2_genc++_headers/gen/android/hardware/wifi/supplicant/1.2/BpHwSupplicant.h"
  },
  {
   "function_name" : "android::hardware::wifi::supplicant::V1_2::BpHwSupplicant::notifySyspropsChanged",
   "linker_set_key" : "_ZN7android8hardware4wifi10supplicant4V1_214BpHwSupplicant21notifySyspropsChangedEv",
   "parameters" :
   [
    {
     "is_this_ptr" : true,
     "referenced_type" : "type-1732"
    }
   ],
   "return_type" : "type-799",
   "source_file" : "/out/soong/.intermediates/hardware/interfaces/wifi/supplicant/1.2/android.hardware.wifi.supplicant@1.2_genc++_headers/gen/android/hardware/wifi/supplicant/1.2/BpHwSupplicant.h"
  },
  {
   "function_name" : "android::hardware::wifi::supplicant::V1_2::BpHwSupplicant::setHALInstrumentation",
   "linker_set_key" : "_ZN7android8hardware4wifi10supplicant4V1_214BpHwSupplicant21setHALInstrumentationEv",
   "parameters" :
   [
    {
     "is_this_ptr" : true,
     "referenced_type" : "type-1732"
    }
   ],
   "return_type" : "type-799",
   "source_file" : "/out/soong/.intermediates/hardware/interfaces/wifi/supplicant/1.2/android.hardware.wifi.supplicant@1.2_genc++_headers/gen/android/hardware/wifi/supplicant/1.2/BpHwSupplicant.h"
  },
  {
   "function_name" : "android::hardware::wifi::supplicant::V1_2::BpHwSupplicant::isDebugShowKeysEnabled",
   "linker_set_key" : "_ZN7android8hardware4wifi10supplicant4V1_214BpHwSupplicant22isDebugShowKeysEnabledEv",
   "parameters" :
   [
    {
     "is_this_ptr" : true,
     "referenced_type" : "type-1732"
    }
   ],
   "return_type" : "type-692",
   "source_file" : "/out/soong/.intermediates/hardware/interfaces/wifi/supplicant/1.2/android.hardware.wifi.supplicant@1.2_genc++_headers/gen/android/hardware/wifi/supplicant/1.2/BpHwSupplicant.h"
  },
  {
   "function_name" : "android::hardware::wifi::supplicant::V1_2::BpHwSupplicant::setConcurrencyPriority",
   "linker_set_key" : "_ZN7android8hardware4wifi10supplicant4V1_214BpHwSupplicant22setConcurrencyPriorityENS2_4V1_09IfaceTypeENSt3__18functionIFvRKNS5_16SupplicantStatusEEEE",
   "parameters" :
   [
    {
     "is_this_ptr" : true,
     "referenced_type" : "type-1732"
    },
    {
     "referenced_type" : "type-1167"
    },
    {
     "referenced_type" : "type-1798"
    }
   ],
   "return_type" : "type-799",
   "source_file" : "/out/soong/.intermediates/hardware/interfaces/wifi/supplicant/1.2/android.hardware.wifi.supplicant@1.2_genc++_headers/gen/android/hardware/wifi/supplicant/1.2/BpHwSupplicant.h"
  },
  {
   "function_name" : "android::hardware::wifi::supplicant::V1_2::BpHwSupplicant::isDebugShowTimestampEnabled",
   "linker_set_key" : "_ZN7android8hardware4wifi10supplicant4V1_214BpHwSupplicant27isDebugShowTimestampEnabledEv",
   "parameters" :
   [
    {
     "is_this_ptr" : true,
     "referenced_type" : "type-1732"
    }
   ],
   "return_type" : "type-692",
   "source_file" : "/out/soong/.intermediates/hardware/interfaces/wifi/supplicant/1.2/android.hardware.wifi.supplicant@1.2_genc++_headers/gen/android/hardware/wifi/supplicant/1.2/BpHwSupplicant.h"
  },
  {
   "function_name" : "android::hardware::wifi::supplicant::V1_2::BpHwSupplicant::ping",
   "linker_set_key" : "_ZN7android8hardware4wifi10supplicant4V1_214BpHwSupplicant4pingEv",
   "parameters" :
   [
    {
     "is_this_ptr" : true,
     "referenced_type" : "type-1732"
    }
   ],
   "return_type" : "type-799",
   "source_file" : "/out/soong/.intermediates/hardware/interfaces/wifi/supplicant/1.2/android.hardware.wifi.supplicant@1.2_genc++_headers/gen/android/hardware/wifi/supplicant/1.2/BpHwSupplicant.h"
  },
  {
   "function_name" : "android::hardware::wifi::supplicant::V1_2::BpHwSupplicant::debug",
   "linker_set_key" : "_ZN7android8hardware4wifi10supplicant4V1_214BpHwSupplicant5debugERKNS0_11hidl_handleERKNS0_8hidl_vecINS0_11hidl_stringEEE",
   "parameters" :
   [
    {
     "is_this_ptr" : true,
     "referenced_type" : "type-1732"
    },
    {
     "referenced_type" : "type-1187"
    },
    {
     "referenced_type" : "type-1617"
    }
   ],
   "return_type" : "type-799",
   "source_file" : "/out/soong/.intermediates/hardware/interfaces/wifi/supplicant/1.2/android.hardware.wifi.supplicant@1.2_genc++_headers/gen/android/hardware/wifi/supplicant/1.2/BpHwSupplicant.h"
  },
  {
   "function_name" : "android::hardware::wifi::supplicant::V1_2::BpHwSupplicant::terminate",
   "linker_set_key" : "_ZN7android8hardware4wifi10supplicant4V1_214BpHwSupplicant9terminateEv",
   "parameters" :
   [
    {
     "is_this_ptr" : true,
     "referenced_type" : "type-1732"
    }
   ],
   "return_type" : "type-799",
   "source_file" : "/out/soong/.intermediates/hardware/interfaces/wifi/supplicant/1.2/android.hardware.wifi.supplicant@1.2_genc++_headers/gen/android/hardware/wifi/supplicant/1.2/BpHwSupplicant.h"
  },
  {
   "function_name" : "android::hardware::wifi::supplicant::V1_2::BpHwSupplicant::BpHwSupplicant",
   "linker_set_key" : "_ZN7android8hardware4wifi10supplicant4V1_214BpHwSupplicantC1ERKNS_2spINS0_7IBinderEEE",
   "parameters" :
   [
    {
     "is_this_ptr" : true,
     "referenced_type" : "type-1732"
    },
    {
     "referenced_type" : "type-74"
    }
   ],
   "return_type" : "type-53",
   "source_file" : "/out/soong/.intermediates/hardware/interfaces/wifi/supplicant/1.2/android.hardware.wifi.supplicant@1.2_genc++_headers/gen/android/hardware/wifi/supplicant/1.2/BpHwSupplicant.h"
  },
  {
   "function_name" : "android::hardware::wifi::supplicant::V1_2::BpHwSupplicant::BpHwSupplicant",
   "linker_set_key" : "_ZN7android8hardware4wifi10supplicant4V1_214BpHwSupplicantC2ERKNS_2spINS0_7IBinderEEE",
   "parameters" :
   [
    {
     "is_this_ptr" : true,
     "referenced_type" : "type-1732"
    },
    {
     "referenced_type" : "type-74"
    }
   ],
   "return_type" : "type-53",
   "source_file" : "/out/soong/.intermediates/hardware/interfaces/wifi/supplicant/1.2/android.hardware.wifi.supplicant@1.2_genc++_headers/gen/android/hardware/wifi/supplicant/1.2/BpHwSupplicant.h"
  },
  {
   "function_name" : "android::hardware::wifi::supplicant::V1_2::ISupplicantP2pIface::getService",
   "linker_set_key" : "_ZN7android8hardware4wifi10supplicant4V1_219ISupplicantP2pIface10getServiceERKNSt3__112basic_stringIcNS5_11char_traitsIcEENS5_9allocatorIcEEEEb",
   "parameters" :
   [
    {
     "default_arg" : true,
     "referenced_type" : "type-1764"
    },
    {
     "default_arg" : true,
     "referenced_type" : "type-65"
    }
   ],
   "return_type" : "type-1695",
   "source_file" : "/out/soong/.intermediates/hardware/interfaces/wifi/supplicant/1.2/android.hardware.wifi.supplicant@1.2_genc++_headers/gen/android/hardware/wifi/supplicant/1.2/ISupplicantP2pIface.h"
  },
  {
   "function_name" : "android::hardware::wifi::supplicant::V1_2::ISupplicantP2pIface::linkToDeath",
   "linker_set_key" : "_ZN7android8hardware4wifi10supplicant4V1_219ISupplicantP2pIface11linkToDeathERKNS_2spINS0_20hidl_death_recipientEEEy",
   "parameters" :
   [
    {
     "is_this_ptr" : true,
     "referenced_type" : "type-1696"
    },
    {
     "referenced_type" : "type-1074"
    },
    {
     "referenced_type" : "type-30"
    }
   ],
   "return_type" : "type-692",
   "source_file" : "/out/soong/.intermediates/hardware/interfaces/wifi/supplicant/1.2/android.hardware.wifi.supplicant@1.2_genc++_headers/gen/android/hardware/wifi/supplicant/1.2/ISupplicantP2pIface.h"
  },
  {
   "function_name" : "android::hardware::wifi::supplicant::V1_2::ISupplicantP2pIface::getDebugInfo",
   "linker_set_key" : "_ZN7android8hardware4wifi10supplicant4V1_219ISupplicantP2pIface12getDebugInfoENSt3__18functionIFvRKNS_4hidl4base4V1_09DebugInfoEEEE",
   "parameters" :
   [
    {
     "is_this_ptr" : true,
     "referenced_type" : "type-1696"
    },
    {
     "referenced_type" : "type-1799"
    }
   ],
   "return_type" : "type-799",
   "source_file" : "/out/soong/.intermediates/hardware/interfaces/wifi/supplicant/1.2/android.hardware.wifi.supplicant@1.2_genc++_headers/gen/android/hardware/wifi/supplicant/1.2/ISupplicantP2pIface.h"
  },
  {
   "function_name" : "android::hardware::wifi::supplicant::V1_2::ISupplicantP2pIface::getHashChain",
   "linker_set_key" : "_ZN7android8hardware4wifi10supplicant4V1_219ISupplicantP2pIface12getHashChainENSt3__18functionIFvRKNS0_8hidl_vecINS0_10hidl_arrayIhLj32EJEEEEEEEE",
   "parameters" :
   [
    {
     "is_this_ptr" : true,
     "referenced_type" : "type-1696"
    },
    {
     "referenced_type" : "type-1800"
    }
   ],
   "return_type" : "type-799",
   "source_file" : "/out/soong/.intermediates/hardware/interfaces/wifi/supplicant/1.2/android.hardware.wifi.supplicant@1.2_genc++_headers/gen/android/hardware/wifi/supplicant/1.2/ISupplicantP2pIface.h"
  },
  {
   "function_name" : "android::hardware::wifi::supplicant::V1_2::ISupplicantP2pIface::tryGetService",
   "linker_set_key" : "_ZN7android8hardware4wifi10supplicant4V1_219ISupplicantP2pIface13tryGetServiceERKNSt3__112basic_stringIcNS5_11char_traitsIcEENS5_9allocatorIcEEEEb",
   "parameters" :
   [
    {
     "default_arg" : true,
     "referenced_type" : "type-1764"
    },
    {
     "default_arg" : true,
     "referenced_type" : "type-65"
    }
   ],
   "return_type" : "type-1695",
   "source_file" : "/out/soong/.intermediates/hardware/interfaces/wifi/supplicant/1.2/android.hardware.wifi.supplicant@1.2_genc++_headers/gen/android/hardware/wifi/supplicant/1.2/ISupplicantP2pIface.h"
  },
  {
   "function_name" : "android::hardware::wifi::supplicant::V1_2::ISupplicantP2pIface::unlinkToDeath",
   "linker_set_key" : "_ZN7android8hardware4wifi10supplicant4V1_219ISupplicantP2pIface13unlinkToDeathERKNS_2spINS0_20hidl_death_recipientEEE",
   "parameters" :
   [
    {
     "is_this_ptr" : true,
     "referenced_type" : "type-1696"
    },
    {
     "referenced_type" : "type-1074"
    }
   ],
   "return_type" : "type-692",
   "source_file" : "/out/soong/.intermediates/hardware/interfaces/wifi/supplicant/1.2/android.hardware.wifi.supplicant@1.2_genc++_headers/gen/android/hardware/wifi/supplicant/1.2/ISupplicantP2pIface.h"
  },
  {
   "function_name" : "android::hardware::wifi::supplicant::V1_2::ISupplicantP2pIface::interfaceChain",
   "linker_set_key" : "_ZN7android8hardware4wifi10supplicant4V1_219ISupplicantP2pIface14interfaceChainENSt3__18functionIFvRKNS0_8hidl_vecINS0_11hidl_stringEEEEEE",
   "parameters" :
   [
    {
     "is_this_ptr" : true,
     "referenced_type" : "type-1696"
    },
    {
     "referenced_type" : "type-1801"
    }
   ],
   "return_type" : "type-799",
   "source_file" : "/out/soong/.intermediates/hardware/interfaces/wifi/supplicant/1.2/android.hardware.wifi.supplicant@1.2_genc++_headers/gen/android/hardware/wifi/supplicant/1.2/ISupplicantP2pIface.h"
  },
  {
   "function_name" : "android::hardware::wifi::supplicant::V1_2::ISupplicantP2pIface::registerAsService",
   "linker_set_key" : "_ZN7android8hardware4wifi10supplicant4V1_219ISupplicantP2pIface17registerAsServiceERKNSt3__112basic_stringIcNS5_11char_traitsIcEENS5_9allocatorIcEEEE",
   "parameters" :
   [
    {
     "is_this_ptr" : true,
     "referenced_type" : "type-1696"
    },
    {
     "default_arg" : true,
     "referenced_type" : "type-1764"
    }
   ],
   "return_type" : "type-51",
   "source_file" : "/out/soong/.intermediates/hardware/interfaces/wifi/supplicant/1.2/android.hardware.wifi.supplicant@1.2_genc++_headers/gen/android/hardware/wifi/supplicant/1.2/ISupplicantP2pIface.h"
  },
  {
   "function_name" : "android::hardware::wifi::supplicant::V1_2::ISupplicantP2pIface::interfaceDescriptor",
   "linker_set_key" : "_ZN7android8hardware4wifi10supplicant4V1_219ISupplicantP2pIface19interfaceDescriptorENSt3__18functionIFvRKNS0_11hidl_stringEEEE",
   "parameters" :
   [
    {
     "is_this_ptr" : true,
     "referenced_type" : "type-1696"
    },
    {
     "referenced_type" : "type-1802"
    }
   ],
   "return_type" : "type-799",
   "source_file" : "/out/soong/.intermediates/hardware/interfaces/wifi/supplicant/1.2/android.hardware.wifi.supplicant@1.2_genc++_headers/gen/android/hardware/wifi/supplicant/1.2/ISupplicantP2pIface.h"
  },
  {
   "function_name" : "android::hardware::wifi::supplicant::V1_2::ISupplicantP2pIface::notifySyspropsChanged",
   "linker_set_key" : "_ZN7android8hardware4wifi10supplicant4V1_219ISupplicantP2pIface21notifySyspropsChangedEv",
   "parameters" :
   [
    {
     "is_this_ptr" : true,
     "referenced_type" : "type-1696"
    }
   ],
   "return_type" : "type-799",
   "source_file" : "/out/soong/.intermediates/hardware/interfaces/wifi/supplicant/1.2/android.hardware.wifi.supplicant@1.2_genc++_headers/gen/android/hardware/wifi/supplicant/1.2/ISupplicantP2pIface.h"
  },
  {
   "function_name" : "android::hardware::wifi::supplicant::V1_2::ISupplicantP2pIface::setHALInstrumentation",
   "linker_set_key" : "_ZN7android8hardware4wifi10supplicant4V1_219ISupplicantP2pIface21setHALInstrumentationEv",
   "parameters" :
   [
    {
     "is_this_ptr" : true,
     "referenced_type" : "type-1696"
    }
   ],
   "return_type" : "type-799",
   "source_file" : "/out/soong/.intermediates/hardware/interfaces/wifi/supplicant/1.2/android.hardware.wifi.supplicant@1.2_genc++_headers/gen/android/hardware/wifi/supplicant/1.2/ISupplicantP2pIface.h"
  },
  {
   "function_name" : "android::hardware::wifi::supplicant::V1_2::ISupplicantP2pIface::registerForNotifications",
   "linker_set_key" : "_ZN7android8hardware4wifi10supplicant4V1_219ISupplicantP2pIface24registerForNotificationsERKNSt3__112basic_stringIcNS5_11char_traitsIcEENS5_9allocatorIcEEEERKNS_2spINS_4hidl7manager4V1_020IServiceNotificationEEE",
   "parameters" :
   [
    {
     "referenced_type" : "type-1764"
    },
    {
     "referenced_type" : "type-1618"
    }
   ],
   "return_type" : "type-65",
   "source_file" : "/out/soong/.intermediates/hardware/interfaces/wifi/supplicant/1.2/android.hardware.wifi.supplicant@1.2_genc++_headers/gen/android/hardware/wifi/supplicant/1.2/ISupplicantP2pIface.h"
  },
  {
   "function_name" : "android::hardware::wifi::supplicant::V1_2::ISupplicantP2pIface::ping",
   "linker_set_key" : "_ZN7android8hardware4wifi10supplicant4V1_219ISupplicantP2pIface4pingEv",
   "parameters" :
   [
    {
     "is_this_ptr" : true,
     "referenced_type" : "type-1696"
    }
   ],
   "return_type" : "type-799",
   "source_file" : "/out/soong/.intermediates/hardware/interfaces/wifi/supplicant/1.2/android.hardware.wifi.supplicant@1.2_genc++_headers/gen/android/hardware/wifi/supplicant/1.2/ISupplicantP2pIface.h"
  },
  {
   "function_name" : "android::hardware::wifi::supplicant::V1_2::ISupplicantP2pIface::debug",
   "linker_set_key" : "_ZN7android8hardware4wifi10supplicant4V1_219ISupplicantP2pIface5debugERKNS0_11hidl_handleERKNS0_8hidl_vecINS0_11hidl_stringEEE",
   "parameters" :
   [
    {
     "is_this_ptr" : true,
     "referenced_type" : "type-1696"
    },
    {
     "referenced_type" : "type-1187"
    },
    {
     "referenced_type" : "type-1617"
    }
   ],
   "return_type" : "type-799",
   "source_file" : "/out/soong/.intermediates/hardware/interfaces/wifi/supplicant/1.2/android.hardware.wifi.supplicant@1.2_genc++_headers/gen/android/hardware/wifi/supplicant/1.2/ISupplicantP2pIface.h"
  },
  {
   "function_name" : "android::hardware::wifi::supplicant::V1_2::ISupplicantP2pIface::castFrom",
   "linker_set_key" : "_ZN7android8hardware4wifi10supplicant4V1_219ISupplicantP2pIface8castFromERKNS_2spINS2_4V1_016ISupplicantIfaceEEEb",
   "parameters" :
   [
    {
     "referenced_type" : "type-1751"
    },
    {
     "default_arg" : true,
     "referenced_type" : "type-65"
    }
   ],
   "return_type" : "type-1726",
   "source_file" : "/out/soong/.intermediates/hardware/interfaces/wifi/supplicant/1.2/android.hardware.wifi.supplicant@1.2_genc++_headers/gen/android/hardware/wifi/supplicant/1.2/ISupplicantP2pIface.h"
  },
  {
   "function_name" : "android::hardware::wifi::supplicant::V1_2::ISupplicantP2pIface::castFrom",
   "linker_set_key" : "_ZN7android8hardware4wifi10supplicant4V1_219ISupplicantP2pIface8castFromERKNS_2spINS2_4V1_019ISupplicantP2pIfaceEEEb",
   "parameters" :
   [
    {
     "referenced_type" : "type-1720"
    },
    {
     "default_arg" : true,
     "referenced_type" : "type-65"
    }
   ],
   "return_type" : "type-1726",
   "source_file" : "/out/soong/.intermediates/hardware/interfaces/wifi/supplicant/1.2/android.hardware.wifi.supplicant@1.2_genc++_headers/gen/android/hardware/wifi/supplicant/1.2/ISupplicantP2pIface.h"
  },
  {
   "function_name" : "android::hardware::wifi::supplicant::V1_2::ISupplicantP2pIface::castFrom",
   "linker_set_key" : "_ZN7android8hardware4wifi10supplicant4V1_219ISupplicantP2pIface8castFromERKNS_2spINS_4hidl4base4V1_05IBaseEEEb",
   "parameters" :
   [
    {
     "referenced_type" : "type-1697"
    },
    {
     "default_arg" : true,
     "referenced_type" : "type-65"
    }
   ],
   "return_type" : "type-1726",
   "source_file" : "/out/soong/.intermediates/hardware/interfaces/wifi/supplicant/1.2/android.hardware.wifi.supplicant@1.2_genc++_headers/gen/android/hardware/wifi/supplicant/1.2/ISupplicantP2pIface.h"
  },
  {
   "function_name" : "android::hardware::wifi::supplicant::V1_2::ISupplicantP2pIface::castFrom",
   "linker_set_key" : "_ZN7android8hardware4wifi10supplicant4V1_219ISupplicantP2pIface8castFromERKNS_2spIS4_EEb",
   "parameters" :
   [
    {
     "referenced_type" : "type-1693"
    },
    {
     "default_arg" : true,
     "referenced_type" : "type-65"
    }
   ],
   "return_type" : "type-1726",
   "source_file" : "/out/soong/.intermediates/hardware/interfaces/wifi/supplicant/1.2/android.hardware.wifi.supplicant@1.2_genc++_headers/gen/android/hardware/wifi/supplicant/1.2/ISupplicantP2pIface.h"
  },
  {
   "function_name" : "android::hardware::wifi::supplicant::V1_2::ISupplicantStaIface::getService",
   "linker_set_key" : "_ZN7android8hardware4wifi10supplicant4V1_219ISupplicantStaIface10getServiceERKNSt3__112basic_stringIcNS5_11char_traitsIcEENS5_9allocatorIcEEEEb",
   "parameters" :
   [
    {
     "default_arg" : true,
     "referenced_type" : "type-399"
    },
    {
     "default_arg" : true,
     "referenced_type" : "type-65"
    }
   ],
   "return_type" : "type-171",
   "source_file" : "/out/soong/.intermediates/hardware/interfaces/wifi/supplicant/1.2/android.hardware.wifi.supplicant@1.2_genc++_headers/gen/android/hardware/wifi/supplicant/1.2/ISupplicantStaIface.h"
  },
  {
   "function_name" : "android::hardware::wifi::supplicant::V1_2::ISupplicantStaIface::linkToDeath",
   "linker_set_key" : "_ZN7android8hardware4wifi10supplicant4V1_219ISupplicantStaIface11linkToDeathERKNS_2spINS0_20hidl_death_recipientEEEy",
   "parameters" :
   [
    {
     "is_this_ptr" : true,
     "referenced_type" : "type-172"
    },
    {
     "referenced_type" : "type-1074"
    },
    {
     "referenced_type" : "type-30"
    }
   ],
   "return_type" : "type-692",
   "source_file" : "/out/soong/.intermediates/hardware/interfaces/wifi/supplicant/1.2/android.hardware.wifi.supplicant@1.2_genc++_headers/gen/android/hardware/wifi/supplicant/1.2/ISupplicantStaIface.h"
  },
  {
   "function_name" : "android::hardware::wifi::supplicant::V1_2::ISupplicantStaIface::getDebugInfo",
   "linker_set_key" : "_ZN7android8hardware4wifi10supplicant4V1_219ISupplicantStaIface12getDebugInfoENSt3__18functionIFvRKNS_4hidl4base4V1_09DebugInfoEEEE",
   "parameters" :
   [
    {
     "is_this_ptr" : true,
     "referenced_type" : "type-172"
    },
    {
     "referenced_type" : "type-1803"
    }
   ],
   "return_type" : "type-799",
   "source_file" : "/out/soong/.intermediates/hardware/interfaces/wifi/supplicant/1.2/android.hardware.wifi.supplicant@1.2_genc++_headers/gen/android/hardware/wifi/supplicant/1.2/ISupplicantStaIface.h"
  },
  {
   "function_name" : "android::hardware::wifi::supplicant::V1_2::ISupplicantStaIface::getHashChain",
   "linker_set_key" : "_ZN7android8hardware4wifi10supplicant4V1_219ISupplicantStaIface12getHashChainENSt3__18functionIFvRKNS0_8hidl_vecINS0_10hidl_arrayIhLj32EJEEEEEEEE",
   "parameters" :
   [
    {
     "is_this_ptr" : true,
     "referenced_type" : "type-172"
    },
    {
     "referenced_type" : "type-1804"
    }
   ],
   "return_type" : "type-799",
   "source_file" : "/out/soong/.intermediates/hardware/interfaces/wifi/supplicant/1.2/android.hardware.wifi.supplicant@1.2_genc++_headers/gen/android/hardware/wifi/supplicant/1.2/ISupplicantStaIface.h"
  },
  {
   "function_name" : "android::hardware::wifi::supplicant::V1_2::ISupplicantStaIface::tryGetService",
   "linker_set_key" : "_ZN7android8hardware4wifi10supplicant4V1_219ISupplicantStaIface13tryGetServiceERKNSt3__112basic_stringIcNS5_11char_traitsIcEENS5_9allocatorIcEEEEb",
   "parameters" :
   [
    {
     "default_arg" : true,
     "referenced_type" : "type-399"
    },
    {
     "default_arg" : true,
     "referenced_type" : "type-65"
    }
   ],
   "return_type" : "type-171",
   "source_file" : "/out/soong/.intermediates/hardware/interfaces/wifi/supplicant/1.2/android.hardware.wifi.supplicant@1.2_genc++_headers/gen/android/hardware/wifi/supplicant/1.2/ISupplicantStaIface.h"
  },
  {
   "function_name" : "android::hardware::wifi::supplicant::V1_2::ISupplicantStaIface::unlinkToDeath",
   "linker_set_key" : "_ZN7android8hardware4wifi10supplicant4V1_219ISupplicantStaIface13unlinkToDeathERKNS_2spINS0_20hidl_death_recipientEEE",
   "parameters" :
   [
    {
     "is_this_ptr" : true,
     "referenced_type" : "type-172"
    },
    {
     "referenced_type" : "type-1074"
    }
   ],
   "return_type" : "type-692",
   "source_file" : "/out/soong/.intermediates/hardware/interfaces/wifi/supplicant/1.2/android.hardware.wifi.supplicant@1.2_genc++_headers/gen/android/hardware/wifi/supplicant/1.2/ISupplicantStaIface.h"
  },
  {
   "function_name" : "android::hardware::wifi::supplicant::V1_2::ISupplicantStaIface::interfaceChain",
   "linker_set_key" : "_ZN7android8hardware4wifi10supplicant4V1_219ISupplicantStaIface14interfaceChainENSt3__18functionIFvRKNS0_8hidl_vecINS0_11hidl_stringEEEEEE",
   "parameters" :
   [
    {
     "is_this_ptr" : true,
     "referenced_type" : "type-172"
    },
    {
     "referenced_type" : "type-1805"
    }
   ],
   "return_type" : "type-799",
   "source_file" : "/out/soong/.intermediates/hardware/interfaces/wifi/supplicant/1.2/android.hardware.wifi.supplicant@1.2_genc++_headers/gen/android/hardware/wifi/supplicant/1.2/ISupplicantStaIface.h"
  },
  {
   "function_name" : "android::hardware::wifi::supplicant::V1_2::ISupplicantStaIface::registerAsService",
   "linker_set_key" : "_ZN7android8hardware4wifi10supplicant4V1_219ISupplicantStaIface17registerAsServiceERKNSt3__112basic_stringIcNS5_11char_traitsIcEENS5_9allocatorIcEEEE",
   "parameters" :
   [
    {
     "is_this_ptr" : true,
     "referenced_type" : "type-172"
    },
    {
     "default_arg" : true,
     "referenced_type" : "type-399"
    }
   ],
   "return_type" : "type-51",
   "source_file" : "/out/soong/.intermediates/hardware/interfaces/wifi/supplicant/1.2/android.hardware.wifi.supplicant@1.2_genc++_headers/gen/android/hardware/wifi/supplicant/1.2/ISupplicantStaIface.h"
  },
  {
   "function_name" : "android::hardware::wifi::supplicant::V1_2::ISupplicantStaIface::interfaceDescriptor",
   "linker_set_key" : "_ZN7android8hardware4wifi10supplicant4V1_219ISupplicantStaIface19interfaceDescriptorENSt3__18functionIFvRKNS0_11hidl_stringEEEE",
   "parameters" :
   [
    {
     "is_this_ptr" : true,
     "referenced_type" : "type-172"
    },
    {
     "referenced_type" : "type-1806"
    }
   ],
   "return_type" : "type-799",
   "source_file" : "/out/soong/.intermediates/hardware/interfaces/wifi/supplicant/1.2/android.hardware.wifi.supplicant@1.2_genc++_headers/gen/android/hardware/wifi/supplicant/1.2/ISupplicantStaIface.h"
  },
  {
   "function_name" : "android::hardware::wifi::supplicant::V1_2::ISupplicantStaIface::notifySyspropsChanged",
   "linker_set_key" : "_ZN7android8hardware4wifi10supplicant4V1_219ISupplicantStaIface21notifySyspropsChangedEv",
   "parameters" :
   [
    {
     "is_this_ptr" : true,
     "referenced_type" : "type-172"
    }
   ],
   "return_type" : "type-799",
   "source_file" : "/out/soong/.intermediates/hardware/interfaces/wifi/supplicant/1.2/android.hardware.wifi.supplicant@1.2_genc++_headers/gen/android/hardware/wifi/supplicant/1.2/ISupplicantStaIface.h"
  },
  {
   "function_name" : "android::hardware::wifi::supplicant::V1_2::ISupplicantStaIface::setHALInstrumentation",
   "linker_set_key" : "_ZN7android8hardware4wifi10supplicant4V1_219ISupplicantStaIface21setHALInstrumentationEv",
   "parameters" :
   [
    {
     "is_this_ptr" : true,
     "referenced_type" : "type-172"
    }
   ],
   "return_type" : "type-799",
   "source_file" : "/out/soong/.intermediates/hardware/interfaces/wifi/supplicant/1.2/android.hardware.wifi.supplicant@1.2_genc++_headers/gen/android/hardware/wifi/supplicant/1.2/ISupplicantStaIface.h"
  },
  {
   "function_name" : "android::hardware::wifi::supplicant::V1_2::ISupplicantStaIface::registerForNotifications",
   "linker_set_key" : "_ZN7android8hardware4wifi10supplicant4V1_219ISupplicantStaIface24registerForNotificationsERKNSt3__112basic_stringIcNS5_11char_traitsIcEENS5_9allocatorIcEEEERKNS_2spINS_4hidl7manager4V1_020IServiceNotificationEEE",
   "parameters" :
   [
    {
     "referenced_type" : "type-399"
    },
    {
     "referenced_type" : "type-1618"
    }
   ],
   "return_type" : "type-65",
   "source_file" : "/out/soong/.intermediates/hardware/interfaces/wifi/supplicant/1.2/android.hardware.wifi.supplicant@1.2_genc++_headers/gen/android/hardware/wifi/supplicant/1.2/ISupplicantStaIface.h"
  },
  {
   "function_name" : "android::hardware::wifi::supplicant::V1_2::ISupplicantStaIface::ping",
   "linker_set_key" : "_ZN7android8hardware4wifi10supplicant4V1_219ISupplicantStaIface4pingEv",
   "parameters" :
   [
    {
     "is_this_ptr" : true,
     "referenced_type" : "type-172"
    }
   ],
   "return_type" : "type-799",
   "source_file" : "/out/soong/.intermediates/hardware/interfaces/wifi/supplicant/1.2/android.hardware.wifi.supplicant@1.2_genc++_headers/gen/android/hardware/wifi/supplicant/1.2/ISupplicantStaIface.h"
  },
  {
   "function_name" : "android::hardware::wifi::supplicant::V1_2::ISupplicantStaIface::debug",
   "linker_set_key" : "_ZN7android8hardware4wifi10supplicant4V1_219ISupplicantStaIface5debugERKNS0_11hidl_handleERKNS0_8hidl_vecINS0_11hidl_stringEEE",
   "parameters" :
   [
    {
     "is_this_ptr" : true,
     "referenced_type" : "type-172"
    },
    {
     "referenced_type" : "type-1187"
    },
    {
     "referenced_type" : "type-1617"
    }
   ],
   "return_type" : "type-799",
   "source_file" : "/out/soong/.intermediates/hardware/interfaces/wifi/supplicant/1.2/android.hardware.wifi.supplicant@1.2_genc++_headers/gen/android/hardware/wifi/supplicant/1.2/ISupplicantStaIface.h"
  },
  {
   "function_name" : "android::hardware::wifi::supplicant::V1_2::ISupplicantStaIface::castFrom",
   "linker_set_key" : "_ZN7android8hardware4wifi10supplicant4V1_219ISupplicantStaIface8castFromERKNS_2spINS2_4V1_016ISupplicantIfaceEEEb",
   "parameters" :
   [
    {
     "referenced_type" : "type-1751"
    },
    {
     "default_arg" : true,
     "referenced_type" : "type-65"
    }
   ],
   "return_type" : "type-282",
   "source_file" : "/out/soong/.intermediates/hardware/interfaces/wifi/supplicant/1.2/android.hardware.wifi.supplicant@1.2_genc++_headers/gen/android/hardware/wifi/supplicant/1.2/ISupplicantStaIface.h"
  },
  {
   "function_name" : "android::hardware::wifi::supplicant::V1_2::ISupplicantStaIface::castFrom",
   "linker_set_key" : "_ZN7android8hardware4wifi10supplicant4V1_219ISupplicantStaIface8castFromERKNS_2spINS2_4V1_019ISupplicantStaIfaceEEEb",
   "parameters" :
   [
    {
     "referenced_type" : "type-214"
    },
    {
     "default_arg" : true,
     "referenced_type" : "type-65"
    }
   ],
   "return_type" : "type-282",
   "source_file" : "/out/soong/.intermediates/hardware/interfaces/wifi/supplicant/1.2/android.hardware.wifi.supplicant@1.2_genc++_headers/gen/android/hardware/wifi/supplicant/1.2/ISupplicantStaIface.h"
  },
  {
   "function_name" : "android::hardware::wifi::supplicant::V1_2::ISupplicantStaIface::castFrom",
   "linker_set_key" : "_ZN7android8hardware4wifi10supplicant4V1_219ISupplicantStaIface8castFromERKNS_2spINS2_4V1_119ISupplicantStaIfaceEEEb",
   "parameters" :
   [
    {
     "referenced_type" : "type-228"
    },
    {
     "default_arg" : true,
     "referenced_type" : "type-65"
    }
   ],
   "return_type" : "type-282",
   "source_file" : "/out/soong/.intermediates/hardware/interfaces/wifi/supplicant/1.2/android.hardware.wifi.supplicant@1.2_genc++_headers/gen/android/hardware/wifi/supplicant/1.2/ISupplicantStaIface.h"
  },
  {
   "function_name" : "android::hardware::wifi::supplicant::V1_2::ISupplicantStaIface::castFrom",
   "linker_set_key" : "_ZN7android8hardware4wifi10supplicant4V1_219ISupplicantStaIface8castFromERKNS_2spINS_4hidl4base4V1_05IBaseEEEb",
   "parameters" :
   [
    {
     "referenced_type" : "type-1697"
    },
    {
     "default_arg" : true,
     "referenced_type" : "type-65"
    }
   ],
   "return_type" : "type-282",
   "source_file" : "/out/soong/.intermediates/hardware/interfaces/wifi/supplicant/1.2/android.hardware.wifi.supplicant@1.2_genc++_headers/gen/android/hardware/wifi/supplicant/1.2/ISupplicantStaIface.h"
  },
  {
   "function_name" : "android::hardware::wifi::supplicant::V1_2::ISupplicantStaIface::castFrom",
   "linker_set_key" : "_ZN7android8hardware4wifi10supplicant4V1_219ISupplicantStaIface8castFromERKNS_2spIS4_EEb",
   "parameters" :
   [
    {
     "referenced_type" : "type-176"
    },
    {
     "default_arg" : true,
     "referenced_type" : "type-65"
    }
   ],
   "return_type" : "type-282",
   "source_file" : "/out/soong/.intermediates/hardware/interfaces/wifi/supplicant/1.2/android.hardware.wifi.supplicant@1.2_genc++_headers/gen/android/hardware/wifi/supplicant/1.2/ISupplicantStaIface.h"
  },
  {
   "access" : "private",
   "function_name" : "android::hardware::wifi::supplicant::V1_2::BsSupplicantP2pIface::addOnewayTask",
   "linker_set_key" : "_ZN7android8hardware4wifi10supplicant4V1_220BsSupplicantP2pIface13addOnewayTaskENSt3__18functionIFvvEEE",
   "parameters" :
   [
    {
     "is_this_ptr" : true,
     "referenced_type" : "type-1702"
    },
    {
     "referenced_type" : "type-1818"
    }
   ],
   "return_type" : "type-799",
   "source_file" : "/out/soong/.intermediates/hardware/interfaces/wifi/supplicant/1.2/android.hardware.wifi.supplicant@1.2_genc++_headers/gen/android/hardware/wifi/supplicant/1.2/BsSupplicantP2pIface.h"
  },
  {
   "function_name" : "android::hardware::wifi::supplicant::V1_2::BsSupplicantP2pIface::BsSupplicantP2pIface",
   "linker_set_key" : "_ZN7android8hardware4wifi10supplicant4V1_220BsSupplicantP2pIfaceC1ENS_2spINS3_19ISupplicantP2pIfaceEEE",
   "parameters" :
   [
    {
     "is_this_ptr" : true,
     "referenced_type" : "type-1702"
    },
    {
     "referenced_type" : "type-1694"
    }
   ],
   "return_type" : "type-53",
   "source_file" : "/out/soong/.intermediates/hardware/interfaces/wifi/supplicant/1.2/android.hardware.wifi.supplicant@1.2_genc++_headers/gen/android/hardware/wifi/supplicant/1.2/BsSupplicantP2pIface.h"
  },
  {
   "function_name" : "android::hardware::wifi::supplicant::V1_2::BsSupplicantP2pIface::BsSupplicantP2pIface",
   "linker_set_key" : "_ZN7android8hardware4wifi10supplicant4V1_220BsSupplicantP2pIfaceC2ENS_2spINS3_19ISupplicantP2pIfaceEEE",
   "parameters" :
   [
    {
     "is_this_ptr" : true,
     "referenced_type" : "type-1702"
    },
    {
     "referenced_type" : "type-1694"
    }
   ],
   "return_type" : "type-53",
   "source_file" : "/out/soong/.intermediates/hardware/interfaces/wifi/supplicant/1.2/android.hardware.wifi.supplicant@1.2_genc++_headers/gen/android/hardware/wifi/supplicant/1.2/BsSupplicantP2pIface.h"
  },
  {
   "access" : "private",
   "function_name" : "android::hardware::wifi::supplicant::V1_2::BsSupplicantStaIface::addOnewayTask",
   "linker_set_key" : "_ZN7android8hardware4wifi10supplicant4V1_220BsSupplicantStaIface13addOnewayTaskENSt3__18functionIFvvEEE",
   "parameters" :
   [
    {
     "is_this_ptr" : true,
     "referenced_type" : "type-182"
    },
    {
     "referenced_type" : "type-1880"
    }
   ],
   "return_type" : "type-799",
   "source_file" : "/out/soong/.intermediates/hardware/interfaces/wifi/supplicant/1.2/android.hardware.wifi.supplicant@1.2_genc++_headers/gen/android/hardware/wifi/supplicant/1.2/BsSupplicantStaIface.h"
  },
  {
   "function_name" : "android::hardware::wifi::supplicant::V1_2::BsSupplicantStaIface::BsSupplicantStaIface",
   "linker_set_key" : "_ZN7android8hardware4wifi10supplicant4V1_220BsSupplicantStaIfaceC1ENS_2spINS3_19ISupplicantStaIfaceEEE",
   "parameters" :
   [
    {
     "is_this_ptr" : true,
     "referenced_type" : "type-182"
    },
    {
     "referenced_type" : "type-170"
    }
   ],
   "return_type" : "type-53",
   "source_file" : "/out/soong/.intermediates/hardware/interfaces/wifi/supplicant/1.2/android.hardware.wifi.supplicant@1.2_genc++_headers/gen/android/hardware/wifi/supplicant/1.2/BsSupplicantStaIface.h"
  },
  {
   "function_name" : "android::hardware::wifi::supplicant::V1_2::BsSupplicantStaIface::BsSupplicantStaIface",
   "linker_set_key" : "_ZN7android8hardware4wifi10supplicant4V1_220BsSupplicantStaIfaceC2ENS_2spINS3_19ISupplicantStaIfaceEEE",
   "parameters" :
   [
    {
     "is_this_ptr" : true,
     "referenced_type" : "type-182"
    },
    {
     "referenced_type" : "type-170"
    }
   ],
   "return_type" : "type-53",
   "source_file" : "/out/soong/.intermediates/hardware/interfaces/wifi/supplicant/1.2/android.hardware.wifi.supplicant@1.2_genc++_headers/gen/android/hardware/wifi/supplicant/1.2/BsSupplicantStaIface.h"
  },
  {
   "function_name" : "android::hardware::wifi::supplicant::V1_2::ISupplicantStaNetwork::getService",
   "linker_set_key" : "_ZN7android8hardware4wifi10supplicant4V1_221ISupplicantStaNetwork10getServiceERKNSt3__112basic_stringIcNS5_11char_traitsIcEENS5_9allocatorIcEEEEb",
   "parameters" :
   [
    {
     "default_arg" : true,
     "referenced_type" : "type-872"
    },
    {
     "default_arg" : true,
     "referenced_type" : "type-65"
    }
   ],
   "return_type" : "type-268",
   "source_file" : "/out/soong/.intermediates/hardware/interfaces/wifi/supplicant/1.2/android.hardware.wifi.supplicant@1.2_genc++_headers/gen/android/hardware/wifi/supplicant/1.2/ISupplicantStaNetwork.h"
  },
  {
   "function_name" : "android::hardware::wifi::supplicant::V1_2::ISupplicantStaNetwork::linkToDeath",
   "linker_set_key" : "_ZN7android8hardware4wifi10supplicant4V1_221ISupplicantStaNetwork11linkToDeathERKNS_2spINS0_20hidl_death_recipientEEEy",
   "parameters" :
   [
    {
     "is_this_ptr" : true,
     "referenced_type" : "type-269"
    },
    {
     "referenced_type" : "type-1074"
    },
    {
     "referenced_type" : "type-30"
    }
   ],
   "return_type" : "type-692",
   "source_file" : "/out/soong/.intermediates/hardware/interfaces/wifi/supplicant/1.2/android.hardware.wifi.supplicant@1.2_genc++_headers/gen/android/hardware/wifi/supplicant/1.2/ISupplicantStaNetwork.h"
  },
  {
   "function_name" : "android::hardware::wifi::supplicant::V1_2::ISupplicantStaNetwork::getDebugInfo",
   "linker_set_key" : "_ZN7android8hardware4wifi10supplicant4V1_221ISupplicantStaNetwork12getDebugInfoENSt3__18functionIFvRKNS_4hidl4base4V1_09DebugInfoEEEE",
   "parameters" :
   [
    {
     "is_this_ptr" : true,
     "referenced_type" : "type-269"
    },
    {
     "referenced_type" : "type-1921"
    }
   ],
   "return_type" : "type-799",
   "source_file" : "/out/soong/.intermediates/hardware/interfaces/wifi/supplicant/1.2/android.hardware.wifi.supplicant@1.2_genc++_headers/gen/android/hardware/wifi/supplicant/1.2/ISupplicantStaNetwork.h"
  },
  {
   "function_name" : "android::hardware::wifi::supplicant::V1_2::ISupplicantStaNetwork::getHashChain",
   "linker_set_key" : "_ZN7android8hardware4wifi10supplicant4V1_221ISupplicantStaNetwork12getHashChainENSt3__18functionIFvRKNS0_8hidl_vecINS0_10hidl_arrayIhLj32EJEEEEEEEE",
   "parameters" :
   [
    {
     "is_this_ptr" : true,
     "referenced_type" : "type-269"
    },
    {
     "referenced_type" : "type-1922"
    }
   ],
   "return_type" : "type-799",
   "source_file" : "/out/soong/.intermediates/hardware/interfaces/wifi/supplicant/1.2/android.hardware.wifi.supplicant@1.2_genc++_headers/gen/android/hardware/wifi/supplicant/1.2/ISupplicantStaNetwork.h"
  },
  {
   "function_name" : "android::hardware::wifi::supplicant::V1_2::ISupplicantStaNetwork::tryGetService",
   "linker_set_key" : "_ZN7android8hardware4wifi10supplicant4V1_221ISupplicantStaNetwork13tryGetServiceERKNSt3__112basic_stringIcNS5_11char_traitsIcEENS5_9allocatorIcEEEEb",
   "parameters" :
   [
    {
     "default_arg" : true,
     "referenced_type" : "type-872"
    },
    {
     "default_arg" : true,
     "referenced_type" : "type-65"
    }
   ],
   "return_type" : "type-268",
   "source_file" : "/out/soong/.intermediates/hardware/interfaces/wifi/supplicant/1.2/android.hardware.wifi.supplicant@1.2_genc++_headers/gen/android/hardware/wifi/supplicant/1.2/ISupplicantStaNetwork.h"
  },
  {
   "function_name" : "android::hardware::wifi::supplicant::V1_2::ISupplicantStaNetwork::unlinkToDeath",
   "linker_set_key" : "_ZN7android8hardware4wifi10supplicant4V1_221ISupplicantStaNetwork13unlinkToDeathERKNS_2spINS0_20hidl_death_recipientEEE",
   "parameters" :
   [
    {
     "is_this_ptr" : true,
     "referenced_type" : "type-269"
    },
    {
     "referenced_type" : "type-1074"
    }
   ],
   "return_type" : "type-692",
   "source_file" : "/out/soong/.intermediates/hardware/interfaces/wifi/supplicant/1.2/android.hardware.wifi.supplicant@1.2_genc++_headers/gen/android/hardware/wifi/supplicant/1.2/ISupplicantStaNetwork.h"
  },
  {
   "function_name" : "android::hardware::wifi::supplicant::V1_2::ISupplicantStaNetwork::interfaceChain",
   "linker_set_key" : "_ZN7android8hardware4wifi10supplicant4V1_221ISupplicantStaNetwork14interfaceChainENSt3__18functionIFvRKNS0_8hidl_vecINS0_11hidl_stringEEEEEE",
   "parameters" :
   [
    {
     "is_this_ptr" : true,
     "referenced_type" : "type-269"
    },
    {
     "referenced_type" : "type-1923"
    }
   ],
   "return_type" : "type-799",
   "source_file" : "/out/soong/.intermediates/hardware/interfaces/wifi/supplicant/1.2/android.hardware.wifi.supplicant@1.2_genc++_headers/gen/android/hardware/wifi/supplicant/1.2/ISupplicantStaNetwork.h"
  },
  {
   "function_name" : "android::hardware::wifi::supplicant::V1_2::ISupplicantStaNetwork::registerAsService",
   "linker_set_key" : "_ZN7android8hardware4wifi10supplicant4V1_221ISupplicantStaNetwork17registerAsServiceERKNSt3__112basic_stringIcNS5_11char_traitsIcEENS5_9allocatorIcEEEE",
   "parameters" :
   [
    {
     "is_this_ptr" : true,
     "referenced_type" : "type-269"
    },
    {
     "default_arg" : true,
     "referenced_type" : "type-872"
    }
   ],
   "return_type" : "type-51",
   "source_file" : "/out/soong/.intermediates/hardware/interfaces/wifi/supplicant/1.2/android.hardware.wifi.supplicant@1.2_genc++_headers/gen/android/hardware/wifi/supplicant/1.2/ISupplicantStaNetwork.h"
  },
  {
   "function_name" : "android::hardware::wifi::supplicant::V1_2::ISupplicantStaNetwork::interfaceDescriptor",
   "linker_set_key" : "_ZN7android8hardware4wifi10supplicant4V1_221ISupplicantStaNetwork19interfaceDescriptorENSt3__18functionIFvRKNS0_11hidl_stringEEEE",
   "parameters" :
   [
    {
     "is_this_ptr" : true,
     "referenced_type" : "type-269"
    },
    {
     "referenced_type" : "type-1924"
    }
   ],
   "return_type" : "type-799",
   "source_file" : "/out/soong/.intermediates/hardware/interfaces/wifi/supplicant/1.2/android.hardware.wifi.supplicant@1.2_genc++_headers/gen/android/hardware/wifi/supplicant/1.2/ISupplicantStaNetwork.h"
  },
  {
   "function_name" : "android::hardware::wifi::supplicant::V1_2::ISupplicantStaNetwork::notifySyspropsChanged",
   "linker_set_key" : "_ZN7android8hardware4wifi10supplicant4V1_221ISupplicantStaNetwork21notifySyspropsChangedEv",
   "parameters" :
   [
    {
     "is_this_ptr" : true,
     "referenced_type" : "type-269"
    }
   ],
   "return_type" : "type-799",
   "source_file" : "/out/soong/.intermediates/hardware/interfaces/wifi/supplicant/1.2/android.hardware.wifi.supplicant@1.2_genc++_headers/gen/android/hardware/wifi/supplicant/1.2/ISupplicantStaNetwork.h"
  },
  {
   "function_name" : "android::hardware::wifi::supplicant::V1_2::ISupplicantStaNetwork::setHALInstrumentation",
   "linker_set_key" : "_ZN7android8hardware4wifi10supplicant4V1_221ISupplicantStaNetwork21setHALInstrumentationEv",
   "parameters" :
   [
    {
     "is_this_ptr" : true,
     "referenced_type" : "type-269"
    }
   ],
   "return_type" : "type-799",
   "source_file" : "/out/soong/.intermediates/hardware/interfaces/wifi/supplicant/1.2/android.hardware.wifi.supplicant@1.2_genc++_headers/gen/android/hardware/wifi/supplicant/1.2/ISupplicantStaNetwork.h"
  },
  {
   "function_name" : "android::hardware::wifi::supplicant::V1_2::ISupplicantStaNetwork::registerForNotifications",
   "linker_set_key" : "_ZN7android8hardware4wifi10supplicant4V1_221ISupplicantStaNetwork24registerForNotificationsERKNSt3__112basic_stringIcNS5_11char_traitsIcEENS5_9allocatorIcEEEERKNS_2spINS_4hidl7manager4V1_020IServiceNotificationEEE",
   "parameters" :
   [
    {
     "referenced_type" : "type-872"
    },
    {
     "referenced_type" : "type-1618"
    }
   ],
   "return_type" : "type-65",
   "source_file" : "/out/soong/.intermediates/hardware/interfaces/wifi/supplicant/1.2/android.hardware.wifi.supplicant@1.2_genc++_headers/gen/android/hardware/wifi/supplicant/1.2/ISupplicantStaNetwork.h"
  },
  {
   "function_name" : "android::hardware::wifi::supplicant::V1_2::ISupplicantStaNetwork::ping",
   "linker_set_key" : "_ZN7android8hardware4wifi10supplicant4V1_221ISupplicantStaNetwork4pingEv",
   "parameters" :
   [
    {
     "is_this_ptr" : true,
     "referenced_type" : "type-269"
    }
   ],
   "return_type" : "type-799",
   "source_file" : "/out/soong/.intermediates/hardware/interfaces/wifi/supplicant/1.2/android.hardware.wifi.supplicant@1.2_genc++_headers/gen/android/hardware/wifi/supplicant/1.2/ISupplicantStaNetwork.h"
  },
  {
   "function_name" : "android::hardware::wifi::supplicant::V1_2::ISupplicantStaNetwork::debug",
   "linker_set_key" : "_ZN7android8hardware4wifi10supplicant4V1_221ISupplicantStaNetwork5debugERKNS0_11hidl_handleERKNS0_8hidl_vecINS0_11hidl_stringEEE",
   "parameters" :
   [
    {
     "is_this_ptr" : true,
     "referenced_type" : "type-269"
    },
    {
     "referenced_type" : "type-1187"
    },
    {
     "referenced_type" : "type-1617"
    }
   ],
   "return_type" : "type-799",
   "source_file" : "/out/soong/.intermediates/hardware/interfaces/wifi/supplicant/1.2/android.hardware.wifi.supplicant@1.2_genc++_headers/gen/android/hardware/wifi/supplicant/1.2/ISupplicantStaNetwork.h"
  },
  {
   "function_name" : "android::hardware::wifi::supplicant::V1_2::ISupplicantStaNetwork::castFrom",
   "linker_set_key" : "_ZN7android8hardware4wifi10supplicant4V1_221ISupplicantStaNetwork8castFromERKNS_2spINS2_4V1_018ISupplicantNetworkEEEb",
   "parameters" :
   [
    {
     "referenced_type" : "type-454"
    },
    {
     "default_arg" : true,
     "referenced_type" : "type-65"
    }
   ],
   "return_type" : "type-824",
   "source_file" : "/out/soong/.intermediates/hardware/interfaces/wifi/supplicant/1.2/android.hardware.wifi.supplicant@1.2_genc++_headers/gen/android/hardware/wifi/supplicant/1.2/ISupplicantStaNetwork.h"
  },
  {
   "function_name" : "android::hardware::wifi::supplicant::V1_2::ISupplicantStaNetwork::castFrom",
   "linker_set_key" : "_ZN7android8hardware4wifi10supplicant4V1_221ISupplicantStaNetwork8castFromERKNS_2spINS2_4V1_021ISupplicantStaNetworkEEEb",
   "parameters" :
   [
    {
     "referenced_type" : "type-259"
    },
    {
     "default_arg" : true,
     "referenced_type" : "type-65"
    }
   ],
   "return_type" : "type-824",
   "source_file" : "/out/soong/.intermediates/hardware/interfaces/wifi/supplicant/1.2/android.hardware.wifi.supplicant@1.2_genc++_headers/gen/android/hardware/wifi/supplicant/1.2/ISupplicantStaNetwork.h"
  },
  {
   "function_name" : "android::hardware::wifi::supplicant::V1_2::ISupplicantStaNetwork::castFrom",
   "linker_set_key" : "_ZN7android8hardware4wifi10supplicant4V1_221ISupplicantStaNetwork8castFromERKNS_2spINS2_4V1_121ISupplicantStaNetworkEEEb",
   "parameters" :
   [
    {
     "referenced_type" : "type-266"
    },
    {
     "default_arg" : true,
     "referenced_type" : "type-65"
    }
   ],
   "return_type" : "type-824",
   "source_file" : "/out/soong/.intermediates/hardware/interfaces/wifi/supplicant/1.2/android.hardware.wifi.supplicant@1.2_genc++_headers/gen/android/hardware/wifi/supplicant/1.2/ISupplicantStaNetwork.h"
  },
  {
   "function_name" : "android::hardware::wifi::supplicant::V1_2::ISupplicantStaNetwork::castFrom",
   "linker_set_key" : "_ZN7android8hardware4wifi10supplicant4V1_221ISupplicantStaNetwork8castFromERKNS_2spINS_4hidl4base4V1_05IBaseEEEb",
   "parameters" :
   [
    {
     "referenced_type" : "type-1697"
    },
    {
     "default_arg" : true,
     "referenced_type" : "type-65"
    }
   ],
   "return_type" : "type-824",
   "source_file" : "/out/soong/.intermediates/hardware/interfaces/wifi/supplicant/1.2/android.hardware.wifi.supplicant@1.2_genc++_headers/gen/android/hardware/wifi/supplicant/1.2/ISupplicantStaNetwork.h"
  },
  {
   "function_name" : "android::hardware::wifi::supplicant::V1_2::ISupplicantStaNetwork::castFrom",
   "linker_set_key" : "_ZN7android8hardware4wifi10supplicant4V1_221ISupplicantStaNetwork8castFromERKNS_2spIS4_EEb",
   "parameters" :
   [
    {
     "referenced_type" : "type-274"
    },
    {
     "default_arg" : true,
     "referenced_type" : "type-65"
    }
   ],
   "return_type" : "type-824",
   "source_file" : "/out/soong/.intermediates/hardware/interfaces/wifi/supplicant/1.2/android.hardware.wifi.supplicant@1.2_genc++_headers/gen/android/hardware/wifi/supplicant/1.2/ISupplicantStaNetwork.h"
  },
  {
   "function_name" : "android::hardware::wifi::supplicant::V1_2::BnHwSupplicantP2pIface::onTransact",
   "linker_set_key" : "_ZN7android8hardware4wifi10supplicant4V1_222BnHwSupplicantP2pIface10onTransactEjRKNS0_6ParcelEPS5_jNSt3__18functionIFvRS5_EEE",
   "parameters" :
   [
    {
     "is_this_ptr" : true,
     "referenced_type" : "type-1700"
    },
    {
     "referenced_type" : "type-2"
    },
    {
     "referenced_type" : "type-1331"
    },
    {
     "referenced_type" : "type-1325"
    },
    {
     "default_arg" : true,
     "referenced_type" : "type-2"
    },
    {
     "default_arg" : true,
     "referenced_type" : "type-1925"
    }
   ],
   "return_type" : "type-51",
   "source_file" : "/out/soong/.intermediates/hardware/interfaces/wifi/supplicant/1.2/android.hardware.wifi.supplicant@1.2_genc++_headers/gen/android/hardware/wifi/supplicant/1.2/BnHwSupplicantP2pIface.h"
  },
  {
   "access" : "private",
   "function_name" : "android::hardware::wifi::supplicant::V1_2::BnHwSupplicantP2pIface::getDebugInfo",
   "linker_set_key" : "_ZN7android8hardware4wifi10supplicant4V1_222BnHwSupplicantP2pIface12getDebugInfoENSt3__18functionIFvRKNS_4hidl4base4V1_09DebugInfoEEEE",
   "parameters" :
   [
    {
     "is_this_ptr" : true,
     "referenced_type" : "type-1700"
    },
    {
     "referenced_type" : "type-1926"
    }
   ],
   "return_type" : "type-799",
   "source_file" : "/out/soong/.intermediates/hardware/interfaces/wifi/supplicant/1.2/android.hardware.wifi.supplicant@1.2_genc++_headers/gen/android/hardware/wifi/supplicant/1.2/BnHwSupplicantP2pIface.h"
  },
  {
   "function_name" : "android::hardware::wifi::supplicant::V1_2::BnHwSupplicantP2pIface::_hidl_addGroup_1_2",
   "linker_set_key" : "_ZN7android8hardware4wifi10supplicant4V1_222BnHwSupplicantP2pIface18_hidl_addGroup_1_2EPNS_4hidl4base4V1_08BnHwBaseERKNS0_6ParcelEPSA_NSt3__18functionIFvRSA_EEE",
   "parameters" :
   [
    {
     "referenced_type" : "type-1332"
    },
    {
     "referenced_type" : "type-1331"
    },
    {
     "referenced_type" : "type-1325"
    },
    {
     "referenced_type" : "type-1927"
    }
   ],
   "return_type" : "type-51",
   "source_file" : "/out/soong/.intermediates/hardware/interfaces/wifi/supplicant/1.2/android.hardware.wifi.supplicant@1.2_genc++_headers/gen/android/hardware/wifi/supplicant/1.2/BnHwSupplicantP2pIface.h"
  },
  {
   "function_name" : "android::hardware::wifi::supplicant::V1_2::BnHwSupplicantP2pIface::_hidl_setMacRandomization",
   "linker_set_key" : "_ZN7android8hardware4wifi10supplicant4V1_222BnHwSupplicantP2pIface25_hidl_setMacRandomizationEPNS_4hidl4base4V1_08BnHwBaseERKNS0_6ParcelEPSA_NSt3__18functionIFvRSA_EEE",
   "parameters" :
   [
    {
     "referenced_type" : "type-1332"
    },
    {
     "referenced_type" : "type-1331"
    },
    {
     "referenced_type" : "type-1325"
    },
    {
     "referenced_type" : "type-1928"
    }
   ],
   "return_type" : "type-51",
   "source_file" : "/out/soong/.intermediates/hardware/interfaces/wifi/supplicant/1.2/android.hardware.wifi.supplicant@1.2_genc++_headers/gen/android/hardware/wifi/supplicant/1.2/BnHwSupplicantP2pIface.h"
  },
  {
   "access" : "private",
   "function_name" : "android::hardware::wifi::supplicant::V1_2::BnHwSupplicantP2pIface::ping",
   "linker_set_key" : "_ZN7android8hardware4wifi10supplicant4V1_222BnHwSupplicantP2pIface4pingEv",
   "parameters" :
   [
    {
     "is_this_ptr" : true,
     "referenced_type" : "type-1700"
    }
   ],
   "return_type" : "type-799",
   "source_file" : "/out/soong/.intermediates/hardware/interfaces/wifi/supplicant/1.2/android.hardware.wifi.supplicant@1.2_genc++_headers/gen/android/hardware/wifi/supplicant/1.2/BnHwSupplicantP2pIface.h"
  },
  {
   "function_name" : "android::hardware::wifi::supplicant::V1_2::BnHwSupplicantP2pIface::BnHwSupplicantP2pIface",
   "linker_set_key" : "_ZN7android8hardware4wifi10supplicant4V1_222BnHwSupplicantP2pIfaceC1ERKNS_2spINS3_19ISupplicantP2pIfaceEEE",
   "parameters" :
   [
    {
     "is_this_ptr" : true,
     "referenced_type" : "type-1700"
    },
    {
     "referenced_type" : "type-1693"
    }
   ],
   "return_type" : "type-53",
   "source_file" : "/out/soong/.intermediates/hardware/interfaces/wifi/supplicant/1.2/android.hardware.wifi.supplicant@1.2_genc++_headers/gen/android/hardware/wifi/supplicant/1.2/BnHwSupplicantP2pIface.h"
  },
  {
   "function_name" : "android::hardware::wifi::supplicant::V1_2::BnHwSupplicantP2pIface::BnHwSupplicantP2pIface",
   "linker_set_key" : "_ZN7android8hardware4wifi10supplicant4V1_222BnHwSupplicantP2pIfaceC2ERKNS_2spINS3_19ISupplicantP2pIfaceEEE",
   "parameters" :
   [
    {
     "is_this_ptr" : true,
     "referenced_type" : "type-1700"
    },
    {
     "referenced_type" : "type-1693"
    }
   ],
   "return_type" : "type-53",
   "source_file" : "/out/soong/.intermediates/hardware/interfaces/wifi/supplicant/1.2/android.hardware.wifi.supplicant@1.2_genc++_headers/gen/android/hardware/wifi/supplicant/1.2/BnHwSupplicantP2pIface.h"
  },
  {
   "function_name" : "android::hardware::wifi::supplicant::V1_2::BnHwSupplicantP2pIface::~BnHwSupplicantP2pIface",
   "linker_set_key" : "_ZN7android8hardware4wifi10supplicant4V1_222BnHwSupplicantP2pIfaceD0Ev",
   "parameters" :
   [
    {
     "is_this_ptr" : true,
     "referenced_type" : "type-1700"
    }
   ],
   "return_type" : "type-53",
   "source_file" : "/out/soong/.intermediates/hardware/interfaces/wifi/supplicant/1.2/android.hardware.wifi.supplicant@1.2_genc++_headers/gen/android/hardware/wifi/supplicant/1.2/BnHwSupplicantP2pIface.h"
  },
  {
   "function_name" : "android::hardware::wifi::supplicant::V1_2::BnHwSupplicantP2pIface::~BnHwSupplicantP2pIface",
   "linker_set_key" : "_ZN7android8hardware4wifi10supplicant4V1_222BnHwSupplicantP2pIfaceD1Ev",
   "parameters" :
   [
    {
     "is_this_ptr" : true,
     "referenced_type" : "type-1700"
    }
   ],
   "return_type" : "type-53",
   "source_file" : "/out/soong/.intermediates/hardware/interfaces/wifi/supplicant/1.2/android.hardware.wifi.supplicant@1.2_genc++_headers/gen/android/hardware/wifi/supplicant/1.2/BnHwSupplicantP2pIface.h"
  },
  {
   "function_name" : "android::hardware::wifi::supplicant::V1_2::BnHwSupplicantP2pIface::~BnHwSupplicantP2pIface",
   "linker_set_key" : "_ZN7android8hardware4wifi10supplicant4V1_222BnHwSupplicantP2pIfaceD2Ev",
   "parameters" :
   [
    {
     "is_this_ptr" : true,
     "referenced_type" : "type-1700"
    }
   ],
   "return_type" : "type-53",
   "source_file" : "/out/soong/.intermediates/hardware/interfaces/wifi/supplicant/1.2/android.hardware.wifi.supplicant@1.2_genc++_headers/gen/android/hardware/wifi/supplicant/1.2/BnHwSupplicantP2pIface.h"
  },
  {
   "function_name" : "android::hardware::wifi::supplicant::V1_2::BnHwSupplicantStaIface::onTransact",
   "linker_set_key" : "_ZN7android8hardware4wifi10supplicant4V1_222BnHwSupplicantStaIface10onTransactEjRKNS0_6ParcelEPS5_jNSt3__18functionIFvRS5_EEE",
   "parameters" :
   [
    {
     "is_this_ptr" : true,
     "referenced_type" : "type-178"
    },
    {
     "referenced_type" : "type-2"
    },
    {
     "referenced_type" : "type-1331"
    },
    {
     "referenced_type" : "type-1325"
    },
    {
     "default_arg" : true,
     "referenced_type" : "type-2"
    },
    {
     "default_arg" : true,
     "referenced_type" : "type-1929"
    }
   ],
   "return_type" : "type-51",
   "source_file" : "/out/soong/.intermediates/hardware/interfaces/wifi/supplicant/1.2/android.hardware.wifi.supplicant@1.2_genc++_headers/gen/android/hardware/wifi/supplicant/1.2/BnHwSupplicantStaIface.h"
  },
  {
   "access" : "private",
   "function_name" : "android::hardware::wifi::supplicant::V1_2::BnHwSupplicantStaIface::getDebugInfo",
   "linker_set_key" : "_ZN7android8hardware4wifi10supplicant4V1_222BnHwSupplicantStaIface12getDebugInfoENSt3__18functionIFvRKNS_4hidl4base4V1_09DebugInfoEEEE",
   "parameters" :
   [
    {
     "is_this_ptr" : true,
     "referenced_type" : "type-178"
    },
    {
     "referenced_type" : "type-1930"
    }
   ],
   "return_type" : "type-799",
   "source_file" : "/out/soong/.intermediates/hardware/interfaces/wifi/supplicant/1.2/android.hardware.wifi.supplicant@1.2_genc++_headers/gen/android/hardware/wifi/supplicant/1.2/BnHwSupplicantStaIface.h"
  },
  {
   "function_name" : "android::hardware::wifi::supplicant::V1_2::BnHwSupplicantStaIface::_hidl_removeDppUri",
   "linker_set_key" : "_ZN7android8hardware4wifi10supplicant4V1_222BnHwSupplicantStaIface18_hidl_removeDppUriEPNS_4hidl4base4V1_08BnHwBaseERKNS0_6ParcelEPSA_NSt3__18functionIFvRSA_EEE",
   "parameters" :
   [
    {
     "referenced_type" : "type-1332"
    },
    {
     "referenced_type" : "type-1331"
    },
    {
     "referenced_type" : "type-1325"
    },
    {
     "referenced_type" : "type-1931"
    }
   ],
   "return_type" : "type-51",
   "source_file" : "/out/soong/.intermediates/hardware/interfaces/wifi/supplicant/1.2/android.hardware.wifi.supplicant@1.2_genc++_headers/gen/android/hardware/wifi/supplicant/1.2/BnHwSupplicantStaIface.h"
  },
  {
   "function_name" : "android::hardware::wifi::supplicant::V1_2::BnHwSupplicantStaIface::_hidl_addDppPeerUri",
   "linker_set_key" : "_ZN7android8hardware4wifi10supplicant4V1_222BnHwSupplicantStaIface19_hidl_addDppPeerUriEPNS_4hidl4base4V1_08BnHwBaseERKNS0_6ParcelEPSA_NSt3__18functionIFvRSA_EEE",
   "parameters" :
   [
    {
     "referenced_type" : "type-1332"
    },
    {
     "referenced_type" : "type-1331"
    },
    {
     "referenced_type" : "type-1325"
    },
    {
     "referenced_type" : "type-1932"
    }
   ],
   "return_type" : "type-51",
   "source_file" : "/out/soong/.intermediates/hardware/interfaces/wifi/supplicant/1.2/android.hardware.wifi.supplicant@1.2_genc++_headers/gen/android/hardware/wifi/supplicant/1.2/BnHwSupplicantStaIface.h"
  },
  {
   "function_name" : "android::hardware::wifi::supplicant::V1_2::BnHwSupplicantStaIface::_hidl_stopDppInitiator",
   "linker_set_key" : "_ZN7android8hardware4wifi10supplicant4V1_222BnHwSupplicantStaIface22_hidl_stopDppInitiatorEPNS_4hidl4base4V1_08BnHwBaseERKNS0_6ParcelEPSA_NSt3__18functionIFvRSA_EEE",
   "parameters" :
   [
    {
     "referenced_type" : "type-1332"
    },
    {
     "referenced_type" : "type-1331"
    },
    {
     "referenced_type" : "type-1325"
    },
    {
     "referenced_type" : "type-1933"
    }
   ],
   "return_type" : "type-51",
   "source_file" : "/out/soong/.intermediates/hardware/interfaces/wifi/supplicant/1.2/android.hardware.wifi.supplicant@1.2_genc++_headers/gen/android/hardware/wifi/supplicant/1.2/BnHwSupplicantStaIface.h"
  },
  {
   "function_name" : "android::hardware::wifi::supplicant::V1_2::BnHwSupplicantStaIface::_hidl_registerCallback_1_2",
   "linker_set_key" : "_ZN7android8hardware4wifi10supplicant4V1_222BnHwSupplicantStaIface26_hidl_registerCallback_1_2EPNS_4hidl4base4V1_08BnHwBaseERKNS0_6ParcelEPSA_NSt3__18functionIFvRSA_EEE",
   "parameters" :
   [
    {
     "referenced_type" : "type-1332"
    },
    {
     "referenced_type" : "type-1331"
    },
    {
     "referenced_type" : "type-1325"
    },
    {
     "referenced_type" : "type-1934"
    }
   ],
   "return_type" : "type-51",
   "source_file" : "/out/soong/.intermediates/hardware/interfaces/wifi/supplicant/1.2/android.hardware.wifi.supplicant@1.2_genc++_headers/gen/android/hardware/wifi/supplicant/1.2/BnHwSupplicantStaIface.h"
  },
  {
   "function_name" : "android::hardware::wifi::supplicant::V1_2::BnHwSupplicantStaIface::_hidl_getKeyMgmtCapabilities",
   "linker_set_key" : "_ZN7android8hardware4wifi10supplicant4V1_222BnHwSupplicantStaIface28_hidl_getKeyMgmtCapabilitiesEPNS_4hidl4base4V1_08BnHwBaseERKNS0_6ParcelEPSA_NSt3__18functionIFvRSA_EEE",
   "parameters" :
   [
    {
     "referenced_type" : "type-1332"
    },
    {
     "referenced_type" : "type-1331"
    },
    {
     "referenced_type" : "type-1325"
    },
    {
     "referenced_type" : "type-1935"
    }
   ],
   "return_type" : "type-51",
   "source_file" : "/out/soong/.intermediates/hardware/interfaces/wifi/supplicant/1.2/android.hardware.wifi.supplicant@1.2_genc++_headers/gen/android/hardware/wifi/supplicant/1.2/BnHwSupplicantStaIface.h"
  },
  {
   "function_name" : "android::hardware::wifi::supplicant::V1_2::BnHwSupplicantStaIface::_hidl_startDppEnrolleeInitiator",
   "linker_set_key" : "_ZN7android8hardware4wifi10supplicant4V1_222BnHwSupplicantStaIface31_hidl_startDppEnrolleeInitiatorEPNS_4hidl4base4V1_08BnHwBaseERKNS0_6ParcelEPSA_NSt3__18functionIFvRSA_EEE",
   "parameters" :
   [
    {
     "referenced_type" : "type-1332"
    },
    {
     "referenced_type" : "type-1331"
    },
    {
     "referenced_type" : "type-1325"
    },
    {
     "referenced_type" : "type-1936"
    }
   ],
   "return_type" : "type-51",
   "source_file" : "/out/soong/.intermediates/hardware/interfaces/wifi/supplicant/1.2/android.hardware.wifi.supplicant@1.2_genc++_headers/gen/android/hardware/wifi/supplicant/1.2/BnHwSupplicantStaIface.h"
  },
  {
   "function_name" : "android::hardware::wifi::supplicant::V1_2::BnHwSupplicantStaIface::_hidl_startDppConfiguratorInitiator",
   "linker_set_key" : "_ZN7android8hardware4wifi10supplicant4V1_222BnHwSupplicantStaIface35_hidl_startDppConfiguratorInitiatorEPNS_4hidl4base4V1_08BnHwBaseERKNS0_6ParcelEPSA_NSt3__18functionIFvRSA_EEE",
   "parameters" :
   [
    {
     "referenced_type" : "type-1332"
    },
    {
     "referenced_type" : "type-1331"
    },
    {
     "referenced_type" : "type-1325"
    },
    {
     "referenced_type" : "type-1937"
    }
   ],
   "return_type" : "type-51",
   "source_file" : "/out/soong/.intermediates/hardware/interfaces/wifi/supplicant/1.2/android.hardware.wifi.supplicant@1.2_genc++_headers/gen/android/hardware/wifi/supplicant/1.2/BnHwSupplicantStaIface.h"
  },
  {
   "access" : "private",
   "function_name" : "android::hardware::wifi::supplicant::V1_2::BnHwSupplicantStaIface::ping",
   "linker_set_key" : "_ZN7android8hardware4wifi10supplicant4V1_222BnHwSupplicantStaIface4pingEv",
   "parameters" :
   [
    {
     "is_this_ptr" : true,
     "referenced_type" : "type-178"
    }
   ],
   "return_type" : "type-799",
   "source_file" : "/out/soong/.intermediates/hardware/interfaces/wifi/supplicant/1.2/android.hardware.wifi.supplicant@1.2_genc++_headers/gen/android/hardware/wifi/supplicant/1.2/BnHwSupplicantStaIface.h"
  },
  {
   "function_name" : "android::hardware::wifi::supplicant::V1_2::BnHwSupplicantStaIface::BnHwSupplicantStaIface",
   "linker_set_key" : "_ZN7android8hardware4wifi10supplicant4V1_222BnHwSupplicantStaIfaceC1ERKNS_2spINS3_19ISupplicantStaIfaceEEE",
   "parameters" :
   [
    {
     "is_this_ptr" : true,
     "referenced_type" : "type-178"
    },
    {
     "referenced_type" : "type-176"
    }
   ],
   "return_type" : "type-53",
   "source_file" : "/out/soong/.intermediates/hardware/interfaces/wifi/supplicant/1.2/android.hardware.wifi.supplicant@1.2_genc++_headers/gen/android/hardware/wifi/supplicant/1.2/BnHwSupplicantStaIface.h"
  },
  {
   "function_name" : "android::hardware::wifi::supplicant::V1_2::BnHwSupplicantStaIface::BnHwSupplicantStaIface",
   "linker_set_key" : "_ZN7android8hardware4wifi10supplicant4V1_222BnHwSupplicantStaIfaceC2ERKNS_2spINS3_19ISupplicantStaIfaceEEE",
   "parameters" :
   [
    {
     "is_this_ptr" : true,
     "referenced_type" : "type-178"
    },
    {
     "referenced_type" : "type-176"
    }
   ],
   "return_type" : "type-53",
   "source_file" : "/out/soong/.intermediates/hardware/interfaces/wifi/supplicant/1.2/android.hardware.wifi.supplicant@1.2_genc++_headers/gen/android/hardware/wifi/supplicant/1.2/BnHwSupplicantStaIface.h"
  },
  {
   "function_name" : "android::hardware::wifi::supplicant::V1_2::BnHwSupplicantStaIface::~BnHwSupplicantStaIface",
   "linker_set_key" : "_ZN7android8hardware4wifi10supplicant4V1_222BnHwSupplicantStaIfaceD0Ev",
   "parameters" :
   [
    {
     "is_this_ptr" : true,
     "referenced_type" : "type-178"
    }
   ],
   "return_type" : "type-53",
   "source_file" : "/out/soong/.intermediates/hardware/interfaces/wifi/supplicant/1.2/android.hardware.wifi.supplicant@1.2_genc++_headers/gen/android/hardware/wifi/supplicant/1.2/BnHwSupplicantStaIface.h"
  },
  {
   "function_name" : "android::hardware::wifi::supplicant::V1_2::BnHwSupplicantStaIface::~BnHwSupplicantStaIface",
   "linker_set_key" : "_ZN7android8hardware4wifi10supplicant4V1_222BnHwSupplicantStaIfaceD1Ev",
   "parameters" :
   [
    {
     "is_this_ptr" : true,
     "referenced_type" : "type-178"
    }
   ],
   "return_type" : "type-53",
   "source_file" : "/out/soong/.intermediates/hardware/interfaces/wifi/supplicant/1.2/android.hardware.wifi.supplicant@1.2_genc++_headers/gen/android/hardware/wifi/supplicant/1.2/BnHwSupplicantStaIface.h"
  },
  {
   "function_name" : "android::hardware::wifi::supplicant::V1_2::BnHwSupplicantStaIface::~BnHwSupplicantStaIface",
   "linker_set_key" : "_ZN7android8hardware4wifi10supplicant4V1_222BnHwSupplicantStaIfaceD2Ev",
   "parameters" :
   [
    {
     "is_this_ptr" : true,
     "referenced_type" : "type-178"
    }
   ],
   "return_type" : "type-53",
   "source_file" : "/out/soong/.intermediates/hardware/interfaces/wifi/supplicant/1.2/android.hardware.wifi.supplicant@1.2_genc++_headers/gen/android/hardware/wifi/supplicant/1.2/BnHwSupplicantStaIface.h"
  },
  {
   "function_name" : "android::hardware::wifi::supplicant::V1_2::BpHwSupplicantP2pIface::addNetwork",
   "linker_set_key" : "_ZN7android8hardware4wifi10supplicant4V1_222BpHwSupplicantP2pIface10addNetworkENSt3__18functionIFvRKNS2_4V1_016SupplicantStatusERKNS_2spINS7_18ISupplicantNetworkEEEEEE",
   "parameters" :
   [
    {
     "is_this_ptr" : true,
     "referenced_type" : "type-1703"
    },
    {
     "referenced_type" : "type-1938"
    }
   ],
   "return_type" : "type-799",
   "source_file" : "/out/soong/.intermediates/hardware/interfaces/wifi/supplicant/1.2/android.hardware.wifi.supplicant@1.2_genc++_headers/gen/android/hardware/wifi/supplicant/1.2/BpHwSupplicantP2pIface.h"
  },
  {
   "function_name" : "android::hardware::wifi::supplicant::V1_2::BpHwSupplicantP2pIface::getNetwork",
   "linker_set_key" : "_ZN7android8hardware4wifi10supplicant4V1_222BpHwSupplicantP2pIface10getNetworkEjNSt3__18functionIFvRKNS2_4V1_016SupplicantStatusERKNS_2spINS7_18ISupplicantNetworkEEEEEE",
   "parameters" :
   [
    {
     "is_this_ptr" : true,
     "referenced_type" : "type-1703"
    },
    {
     "referenced_type" : "type-2"
    },
    {
     "referenced_type" : "type-1939"
    }
   ],
   "return_type" : "type-799",
   "source_file" : "/out/soong/.intermediates/hardware/interfaces/wifi/supplicant/1.2/android.hardware.wifi.supplicant@1.2_genc++_headers/gen/android/hardware/wifi/supplicant/1.2/BpHwSupplicantP2pIface.h"
  },
  {
   "function_name" : "android::hardware::wifi::supplicant::V1_2::BpHwSupplicantP2pIface::saveConfig",
   "linker_set_key" : "_ZN7android8hardware4wifi10supplicant4V1_222BpHwSupplicantP2pIface10saveConfigENSt3__18functionIFvRKNS2_4V1_016SupplicantStatusEEEE",
   "parameters" :
   [
    {
     "is_this_ptr" : true,
     "referenced_type" : "type-1703"
    },
    {
     "referenced_type" : "type-1940"
    }
   ],
   "return_type" : "type-799",
   "source_file" : "/out/soong/.intermediates/hardware/interfaces/wifi/supplicant/1.2/android.hardware.wifi.supplicant@1.2_genc++_headers/gen/android/hardware/wifi/supplicant/1.2/BpHwSupplicantP2pIface.h"
  },
  {
   "function_name" : "android::hardware::wifi::supplicant::V1_2::BpHwSupplicantP2pIface::linkToDeath",
   "linker_set_key" : "_ZN7android8hardware4wifi10supplicant4V1_222BpHwSupplicantP2pIface11linkToDeathERKNS_2spINS0_20hidl_death_recipientEEEy",
   "parameters" :
   [
    {
     "is_this_ptr" : true,
     "referenced_type" : "type-1703"
    },
    {
     "referenced_type" : "type-1074"
    },
    {
     "referenced_type" : "type-30"
    }
   ],
   "return_type" : "type-692",
   "source_file" : "/out/soong/.intermediates/hardware/interfaces/wifi/supplicant/1.2/android.hardware.wifi.supplicant@1.2_genc++_headers/gen/android/hardware/wifi/supplicant/1.2/BpHwSupplicantP2pIface.h"
  },
  {
   "function_name" : "android::hardware::wifi::supplicant::V1_2::BpHwSupplicantP2pIface::removeGroup",
   "linker_set_key" : "_ZN7android8hardware4wifi10supplicant4V1_222BpHwSupplicantP2pIface11removeGroupERKNS0_11hidl_stringENSt3__18functionIFvRKNS2_4V1_016SupplicantStatusEEEE",
   "parameters" :
   [
    {
     "is_this_ptr" : true,
     "referenced_type" : "type-1703"
    },
    {
     "referenced_type" : "type-1057"
    },
    {
     "referenced_type" : "type-1941"
    }
   ],
   "return_type" : "type-799",
   "source_file" : "/out/soong/.intermediates/hardware/interfaces/wifi/supplicant/1.2/android.hardware.wifi.supplicant@1.2_genc++_headers/gen/android/hardware/wifi/supplicant/1.2/BpHwSupplicantP2pIface.h"
  },
  {
   "function_name" : "android::hardware::wifi::supplicant::V1_2::BpHwSupplicantP2pIface::startWpsPbc",
   "linker_set_key" : "_ZN7android8hardware4wifi10supplicant4V1_222BpHwSupplicantP2pIface11startWpsPbcERKNS0_11hidl_stringERKNS0_10hidl_arrayIhLj6EJEEENSt3__18functionIFvRKNS2_4V1_016SupplicantStatusEEEE",
   "parameters" :
   [
    {
     "is_this_ptr" : true,
     "referenced_type" : "type-1703"
    },
    {
     "referenced_type" : "type-1057"
    },
    {
     "referenced_type" : "type-149"
    },
    {
     "referenced_type" : "type-1942"
    }
   ],
   "return_type" : "type-799",
   "source_file" : "/out/soong/.intermediates/hardware/interfaces/wifi/supplicant/1.2/android.hardware.wifi.supplicant@1.2_genc++_headers/gen/android/hardware/wifi/supplicant/1.2/BpHwSupplicantP2pIface.h"
  },
  {
   "function_name" : "android::hardware::wifi::supplicant::V1_2::BpHwSupplicantP2pIface::addGroup_1_2",
   "linker_set_key" : "_ZN7android8hardware4wifi10supplicant4V1_222BpHwSupplicantP2pIface12addGroup_1_2ERKNS0_8hidl_vecIhEERKNS0_11hidl_stringEbjRKNS0_10hidl_arrayIhLj6EJEEEbNSt3__18functionIFvRKNS2_4V1_016SupplicantStatusEEEE",
   "parameters" :
   [
    {
     "is_this_ptr" : true,
     "referenced_type" : "type-1703"
    },
    {
     "referenced_type" : "type-1761"
    },
    {
     "referenced_type" : "type-1057"
    },
    {
     "referenced_type" : "type-65"
    },
    {
     "referenced_type" : "type-2"
    },
    {
     "referenced_type" : "type-149"
    },
    {
     "referenced_type" : "type-65"
    },
    {
     "referenced_type" : "type-1943"
    }
   ],
   "return_type" : "type-799",
   "source_file" : "/out/soong/.intermediates/hardware/interfaces/wifi/supplicant/1.2/android.hardware.wifi.supplicant@1.2_genc++_headers/gen/android/hardware/wifi/supplicant/1.2/BpHwSupplicantP2pIface.h"
  },
  {
   "function_name" : "android::hardware::wifi::supplicant::V1_2::BpHwSupplicantP2pIface::getDebugInfo",
   "linker_set_key" : "_ZN7android8hardware4wifi10supplicant4V1_222BpHwSupplicantP2pIface12getDebugInfoENSt3__18functionIFvRKNS_4hidl4base4V1_09DebugInfoEEEE",
   "parameters" :
   [
    {
     "is_this_ptr" : true,
     "referenced_type" : "type-1703"
    },
    {
     "referenced_type" : "type-1944"
    }
   ],
   "return_type" : "type-799",
   "source_file" : "/out/soong/.intermediates/hardware/interfaces/wifi/supplicant/1.2/android.hardware.wifi.supplicant@1.2_genc++_headers/gen/android/hardware/wifi/supplicant/1.2/BpHwSupplicantP2pIface.h"
  },
  {
   "function_name" : "android::hardware::wifi::supplicant::V1_2::BpHwSupplicantP2pIface::getHashChain",
   "linker_set_key" : "_ZN7android8hardware4wifi10supplicant4V1_222BpHwSupplicantP2pIface12getHashChainENSt3__18functionIFvRKNS0_8hidl_vecINS0_10hidl_arrayIhLj32EJEEEEEEEE",
   "parameters" :
   [
    {
     "is_this_ptr" : true,
     "referenced_type" : "type-1703"
    },
    {
     "referenced_type" : "type-1945"
    }
   ],
   "return_type" : "type-799",
   "source_file" : "/out/soong/.intermediates/hardware/interfaces/wifi/supplicant/1.2/android.hardware.wifi.supplicant@1.2_genc++_headers/gen/android/hardware/wifi/supplicant/1.2/BpHwSupplicantP2pIface.h"
  },
  {
   "function_name" : "android::hardware::wifi::supplicant::V1_2::BpHwSupplicantP2pIface::listNetworks",
   "linker_set_key" : "_ZN7android8hardware4wifi10supplicant4V1_222BpHwSupplicantP2pIface12listNetworksENSt3__18functionIFvRKNS2_4V1_016SupplicantStatusERKNS0_8hidl_vecIjEEEEE",
   "parameters" :
   [
    {
     "is_this_ptr" : true,
     "referenced_type" : "type-1703"
    },
    {
     "referenced_type" : "type-1946"
    }
   ],
   "return_type" : "type-799",
   "source_file" : "/out/soong/.intermediates/hardware/interfaces/wifi/supplicant/1.2/android.hardware.wifi.supplicant@1.2_genc++_headers/gen/android/hardware/wifi/supplicant/1.2/BpHwSupplicantP2pIface.h"
  },
  {
   "function_name" : "android::hardware::wifi::supplicant::V1_2::BpHwSupplicantP2pIface::setGroupIdle",
   "linker_set_key" : "_ZN7android8hardware4wifi10supplicant4V1_222BpHwSupplicantP2pIface12setGroupIdleERKNS0_11hidl_stringEjNSt3__18functionIFvRKNS2_4V1_016SupplicantStatusEEEE",
   "parameters" :
   [
    {
     "is_this_ptr" : true,
     "referenced_type" : "type-1703"
    },
    {
     "referenced_type" : "type-1057"
    },
    {
     "referenced_type" : "type-2"
    },
    {
     "referenced_type" : "type-1947"
    }
   ],
   "return_type" : "type-799",
   "source_file" : "/out/soong/.intermediates/hardware/interfaces/wifi/supplicant/1.2/android.hardware.wifi.supplicant@1.2_genc++_headers/gen/android/hardware/wifi/supplicant/1.2/BpHwSupplicantP2pIface.h"
  },
  {
   "function_name" : "android::hardware::wifi::supplicant::V1_2::BpHwSupplicantP2pIface::setPowerSave",
   "linker_set_key" : "_ZN7android8hardware4wifi10supplicant4V1_222BpHwSupplicantP2pIface12setPowerSaveERKNS0_11hidl_stringEbNSt3__18functionIFvRKNS2_4V1_016SupplicantStatusEEEE",
   "parameters" :
   [
    {
     "is_this_ptr" : true,
     "referenced_type" : "type-1703"
    },
    {
     "referenced_type" : "type-1057"
    },
    {
     "referenced_type" : "type-65"
    },
    {
     "referenced_type" : "type-1948"
    }
   ],
   "return_type" : "type-799",
   "source_file" : "/out/soong/.intermediates/hardware/interfaces/wifi/supplicant/1.2/android.hardware.wifi.supplicant@1.2_genc++_headers/gen/android/hardware/wifi/supplicant/1.2/BpHwSupplicantP2pIface.h"
  },
  {
   "function_name" : "android::hardware::wifi::supplicant::V1_2::BpHwSupplicantP2pIface::cancelConnect",
   "linker_set_key" : "_ZN7android8hardware4wifi10supplicant4V1_222BpHwSupplicantP2pIface13cancelConnectENSt3__18functionIFvRKNS2_4V1_016SupplicantStatusEEEE",
   "parameters" :
   [
    {
     "is_this_ptr" : true,
     "referenced_type" : "type-1703"
    },
    {
     "referenced_type" : "type-1949"
    }
   ],
   "return_type" : "type-799",
   "source_file" : "/out/soong/.intermediates/hardware/interfaces/wifi/supplicant/1.2/android.hardware.wifi.supplicant@1.2_genc++_headers/gen/android/hardware/wifi/supplicant/1.2/BpHwSupplicantP2pIface.h"
  },
  {
   "function_name" : "android::hardware::wifi::supplicant::V1_2::BpHwSupplicantP2pIface::flushServices",
   "linker_set_key" : "_ZN7android8hardware4wifi10supplicant4V1_222BpHwSupplicantP2pIface13flushServicesENSt3__18functionIFvRKNS2_4V1_016SupplicantStatusEEEE",
   "parameters" :
   [
    {
     "is_this_ptr" : true,
     "referenced_type" : "type-1703"
    },
    {
     "referenced_type" : "type-1950"
    }
   ],
   "return_type" : "type-799",
   "source_file" : "/out/soong/.intermediates/hardware/interfaces/wifi/supplicant/1.2/android.hardware.wifi.supplicant@1.2_genc++_headers/gen/android/hardware/wifi/supplicant/1.2/BpHwSupplicantP2pIface.h"
  },
  {
   "function_name" : "android::hardware::wifi::supplicant::V1_2::BpHwSupplicantP2pIface::removeNetwork",
   "linker_set_key" : "_ZN7android8hardware4wifi10supplicant4V1_222BpHwSupplicantP2pIface13removeNetworkEjNSt3__18functionIFvRKNS2_4V1_016SupplicantStatusEEEE",
   "parameters" :
   [
    {
     "is_this_ptr" : true,
     "referenced_type" : "type-1703"
    },
    {
     "referenced_type" : "type-2"
    },
    {
     "referenced_type" : "type-1951"
    }
   ],
   "return_type" : "type-799",
   "source_file" : "/out/soong/.intermediates/hardware/interfaces/wifi/supplicant/1.2/android.hardware.wifi.supplicant@1.2_genc++_headers/gen/android/hardware/wifi/supplicant/1.2/BpHwSupplicantP2pIface.h"
  },
  {
   "function_name" : "android::hardware::wifi::supplicant::V1_2::BpHwSupplicantP2pIface::unlinkToDeath",
   "linker_set_key" : "_ZN7android8hardware4wifi10supplicant4V1_222BpHwSupplicantP2pIface13unlinkToDeathERKNS_2spINS0_20hidl_death_recipientEEE",
   "parameters" :
   [
    {
     "is_this_ptr" : true,
     "referenced_type" : "type-1703"
    },
    {
     "referenced_type" : "type-1074"
    }
   ],
   "return_type" : "type-692",
   "source_file" : "/out/soong/.intermediates/hardware/interfaces/wifi/supplicant/1.2/android.hardware.wifi.supplicant@1.2_genc++_headers/gen/android/hardware/wifi/supplicant/1.2/BpHwSupplicantP2pIface.h"
  },
  {
   "function_name" : "android::hardware::wifi::supplicant::V1_2::BpHwSupplicantP2pIface::addUpnpService",
   "linker_set_key" : "_ZN7android8hardware4wifi10supplicant4V1_222BpHwSupplicantP2pIface14addUpnpServiceEjRKNS0_11hidl_stringENSt3__18functionIFvRKNS2_4V1_016SupplicantStatusEEEE",
   "parameters" :
   [
    {
     "is_this_ptr" : true,
     "referenced_type" : "type-1703"
    },
    {
     "referenced_type" : "type-2"
    },
    {
     "referenced_type" : "type-1057"
    },
    {
     "referenced_type" : "type-1952"
    }
   ],
   "return_type" : "type-799",
   "source_file" : "/out/soong/.intermediates/hardware/interfaces/wifi/supplicant/1.2/android.hardware.wifi.supplicant@1.2_genc++_headers/gen/android/hardware/wifi/supplicant/1.2/BpHwSupplicantP2pIface.h"
  },
  {
   "function_name" : "android::hardware::wifi::supplicant::V1_2::BpHwSupplicantP2pIface::interfaceChain",
   "linker_set_key" : "_ZN7android8hardware4wifi10supplicant4V1_222BpHwSupplicantP2pIface14interfaceChainENSt3__18functionIFvRKNS0_8hidl_vecINS0_11hidl_stringEEEEEE",
   "parameters" :
   [
    {
     "is_this_ptr" : true,
     "referenced_type" : "type-1703"
    },
    {
     "referenced_type" : "type-1953"
    }
   ],
   "return_type" : "type-799",
   "source_file" : "/out/soong/.intermediates/hardware/interfaces/wifi/supplicant/1.2/android.hardware.wifi.supplicant@1.2_genc++_headers/gen/android/hardware/wifi/supplicant/1.2/BpHwSupplicantP2pIface.h"
  },
  {
   "function_name" : "android::hardware::wifi::supplicant::V1_2::BpHwSupplicantP2pIface::setSsidPostfix",
   "linker_set_key" : "_ZN7android8hardware4wifi10supplicant4V1_222BpHwSupplicantP2pIface14setSsidPostfixERKNS0_8hidl_vecIhEENSt3__18functionIFvRKNS2_4V1_016SupplicantStatusEEEE",
   "parameters" :
   [
    {
     "is_this_ptr" : true,
     "referenced_type" : "type-1703"
    },
    {
     "referenced_type" : "type-1761"
    },
    {
     "referenced_type" : "type-1954"
    }
   ],
   "return_type" : "type-799",
   "source_file" : "/out/soong/.intermediates/hardware/interfaces/wifi/supplicant/1.2/android.hardware.wifi.supplicant@1.2_genc++_headers/gen/android/hardware/wifi/supplicant/1.2/BpHwSupplicantP2pIface.h"
  },
  {
   "function_name" : "android::hardware::wifi::supplicant::V1_2::BpHwSupplicantP2pIface::setMiracastMode",
   "linker_set_key" : "_ZN7android8hardware4wifi10supplicant4V1_222BpHwSupplicantP2pIface15setMiracastModeENS2_4V1_019ISupplicantP2pIface12MiracastModeENSt3__18functionIFvRKNS5_16SupplicantStatusEEEE",
   "parameters" :
   [
    {
     "is_this_ptr" : true,
     "referenced_type" : "type-1703"
    },
    {
     "referenced_type" : "type-95"
    },
    {
     "referenced_type" : "type-1955"
    }
   ],
   "return_type" : "type-799",
   "source_file" : "/out/soong/.intermediates/hardware/interfaces/wifi/supplicant/1.2/android.hardware.wifi.supplicant@1.2_genc++_headers/gen/android/hardware/wifi/supplicant/1.2/BpHwSupplicantP2pIface.h"
  },
  {
   "function_name" : "android::hardware::wifi::supplicant::V1_2::BpHwSupplicantP2pIface::setWpsModelName",
   "linker_set_key" : "_ZN7android8hardware4wifi10supplicant4V1_222BpHwSupplicantP2pIface15setWpsModelNameERKNS0_11hidl_stringENSt3__18functionIFvRKNS2_4V1_016SupplicantStatusEEEE",
   "parameters" :
   [
    {
     "is_this_ptr" : true,
     "referenced_type" : "type-1703"
    },
    {
     "referenced_type" : "type-1057"
    },
    {
     "referenced_type" : "type-1956"
    }
   ],
   "return_type" : "type-799",
   "source_file" : "/out/soong/.intermediates/hardware/interfaces/wifi/supplicant/1.2/android.hardware.wifi.supplicant@1.2_genc++_headers/gen/android/hardware/wifi/supplicant/1.2/BpHwSupplicantP2pIface.h"
  },
  {
   "function_name" : "android::hardware::wifi::supplicant::V1_2::BpHwSupplicantP2pIface::getDeviceAddress",
   "linker_set_key" : "_ZN7android8hardware4wifi10supplicant4V1_222BpHwSupplicantP2pIface16getDeviceAddressENSt3__18functionIFvRKNS2_4V1_016SupplicantStatusERKNS0_10hidl_arrayIhLj6EJEEEEEE",
   "parameters" :
   [
    {
     "is_this_ptr" : true,
     "referenced_type" : "type-1703"
    },
    {
     "referenced_type" : "type-1957"
    }
   ],
   "return_type" : "type-799",
   "source_file" : "/out/soong/.intermediates/hardware/interfaces/wifi/supplicant/1.2/android.hardware.wifi.supplicant@1.2_genc++_headers/gen/android/hardware/wifi/supplicant/1.2/BpHwSupplicantP2pIface.h"
  },
  {
   "function_name" : "android::hardware::wifi::supplicant::V1_2::BpHwSupplicantP2pIface::registerCallback",
   "linker_set_key" : "_ZN7android8hardware4wifi10supplicant4V1_222BpHwSupplicantP2pIface16registerCallbackERKNS_2spINS2_4V1_027ISupplicantP2pIfaceCallbackEEENSt3__18functionIFvRKNS6_16SupplicantStatusEEEE",
   "parameters" :
   [
    {
     "is_this_ptr" : true,
     "referenced_type" : "type-1703"
    },
    {
     "referenced_type" : "type-1705"
    },
    {
     "referenced_type" : "type-1958"
    }
   ],
   "return_type" : "type-799",
   "source_file" : "/out/soong/.intermediates/hardware/interfaces/wifi/supplicant/1.2/android.hardware.wifi.supplicant@1.2_genc++_headers/gen/android/hardware/wifi/supplicant/1.2/BpHwSupplicantP2pIface.h"
  },
  {
   "function_name" : "android::hardware::wifi::supplicant::V1_2::BpHwSupplicantP2pIface::setListenChannel",
   "linker_set_key" : "_ZN7android8hardware4wifi10supplicant4V1_222BpHwSupplicantP2pIface16setListenChannelEjjNSt3__18functionIFvRKNS2_4V1_016SupplicantStatusEEEE",
   "parameters" :
   [
    {
     "is_this_ptr" : true,
     "referenced_type" : "type-1703"
    },
    {
     "referenced_type" : "type-2"
    },
    {
     "referenced_type" : "type-2"
    },
    {
     "referenced_type" : "type-1959"
    }
   ],
   "return_type" : "type-799",
   "source_file" : "/out/soong/.intermediates/hardware/interfaces/wifi/supplicant/1.2/android.hardware.wifi.supplicant@1.2_genc++_headers/gen/android/hardware/wifi/supplicant/1.2/BpHwSupplicantP2pIface.h"
  },
  {
   "function_name" : "android::hardware::wifi::supplicant::V1_2::BpHwSupplicantP2pIface::setWfdDeviceInfo",
   "linker_set_key" : "_ZN7android8hardware4wifi10supplicant4V1_222BpHwSupplicantP2pIface16setWfdDeviceInfoERKNS0_10hidl_arrayIhLj6EJEEENSt3__18functionIFvRKNS2_4V1_016SupplicantStatusEEEE",
   "parameters" :
   [
    {
     "is_this_ptr" : true,
     "referenced_type" : "type-1703"
    },
    {
     "referenced_type" : "type-149"
    },
    {
     "referenced_type" : "type-1960"
    }
   ],
   "return_type" : "type-799",
   "source_file" : "/out/soong/.intermediates/hardware/interfaces/wifi/supplicant/1.2/android.hardware.wifi.supplicant@1.2_genc++_headers/gen/android/hardware/wifi/supplicant/1.2/BpHwSupplicantP2pIface.h"
  },
  {
   "function_name" : "android::hardware::wifi::supplicant::V1_2::BpHwSupplicantP2pIface::setWpsDeviceName",
   "linker_set_key" : "_ZN7android8hardware4wifi10supplicant4V1_222BpHwSupplicantP2pIface16setWpsDeviceNameERKNS0_11hidl_stringENSt3__18functionIFvRKNS2_4V1_016SupplicantStatusEEEE",
   "parameters" :
   [
    {
     "is_this_ptr" : true,
     "referenced_type" : "type-1703"
    },
    {
     "referenced_type" : "type-1057"
    },
    {
     "referenced_type" : "type-1961"
    }
   ],
   "return_type" : "type-799",
   "source_file" : "/out/soong/.intermediates/hardware/interfaces/wifi/supplicant/1.2/android.hardware.wifi.supplicant@1.2_genc++_headers/gen/android/hardware/wifi/supplicant/1.2/BpHwSupplicantP2pIface.h"
  },
  {
   "function_name" : "android::hardware::wifi::supplicant::V1_2::BpHwSupplicantP2pIface::setWpsDeviceType",
   "linker_set_key" : "_ZN7android8hardware4wifi10supplicant4V1_222BpHwSupplicantP2pIface16setWpsDeviceTypeERKNS0_10hidl_arrayIhLj8EJEEENSt3__18functionIFvRKNS2_4V1_016SupplicantStatusEEEE",
   "parameters" :
   [
    {
     "is_this_ptr" : true,
     "referenced_type" : "type-1703"
    },
    {
     "referenced_type" : "type-156"
    },
    {
     "referenced_type" : "type-1962"
    }
   ],
   "return_type" : "type-799",
   "source_file" : "/out/soong/.intermediates/hardware/interfaces/wifi/supplicant/1.2/android.hardware.wifi.supplicant@1.2_genc++_headers/gen/android/hardware/wifi/supplicant/1.2/BpHwSupplicantP2pIface.h"
  },
  {
   "function_name" : "android::hardware::wifi::supplicant::V1_2::BpHwSupplicantP2pIface::addBonjourService",
   "linker_set_key" : "_ZN7android8hardware4wifi10supplicant4V1_222BpHwSupplicantP2pIface17addBonjourServiceERKNS0_8hidl_vecIhEES8_NSt3__18functionIFvRKNS2_4V1_016SupplicantStatusEEEE",
   "parameters" :
   [
    {
     "is_this_ptr" : true,
     "referenced_type" : "type-1703"
    },
    {
     "referenced_type" : "type-1761"
    },
    {
     "referenced_type" : "type-1761"
    },
    {
     "referenced_type" : "type-1963"
    }
   ],
   "return_type" : "type-799",
   "source_file" : "/out/soong/.intermediates/hardware/interfaces/wifi/supplicant/1.2/android.hardware.wifi.supplicant@1.2_genc++_headers/gen/android/hardware/wifi/supplicant/1.2/BpHwSupplicantP2pIface.h"
  },
  {
   "function_name" : "android::hardware::wifi::supplicant::V1_2::BpHwSupplicantP2pIface::removeUpnpService",
   "linker_set_key" : "_ZN7android8hardware4wifi10supplicant4V1_222BpHwSupplicantP2pIface17removeUpnpServiceEjRKNS0_11hidl_stringENSt3__18functionIFvRKNS2_4V1_016SupplicantStatusEEEE",
   "parameters" :
   [
    {
     "is_this_ptr" : true,
     "referenced_type" : "type-1703"
    },
    {
     "referenced_type" : "type-2"
    },
    {
     "referenced_type" : "type-1057"
    },
    {
     "referenced_type" : "type-1964"
    }
   ],
   "return_type" : "type-799",
   "source_file" : "/out/soong/.intermediates/hardware/interfaces/wifi/supplicant/1.2/android.hardware.wifi.supplicant@1.2_genc++_headers/gen/android/hardware/wifi/supplicant/1.2/BpHwSupplicantP2pIface.h"
  },
  {
   "function_name" : "android::hardware::wifi::supplicant::V1_2::BpHwSupplicantP2pIface::setWpsModelNumber",
   "linker_set_key" : "_ZN7android8hardware4wifi10supplicant4V1_222BpHwSupplicantP2pIface17setWpsModelNumberERKNS0_11hidl_stringENSt3__18functionIFvRKNS2_4V1_016SupplicantStatusEEEE",
   "parameters" :
   [
    {
     "is_this_ptr" : true,
     "referenced_type" : "type-1703"
    },
    {
     "referenced_type" : "type-1057"
    },
    {
     "referenced_type" : "type-1965"
    }
   ],
   "return_type" : "type-799",
   "source_file" : "/out/soong/.intermediates/hardware/interfaces/wifi/supplicant/1.2/android.hardware.wifi.supplicant@1.2_genc++_headers/gen/android/hardware/wifi/supplicant/1.2/BpHwSupplicantP2pIface.h"
  },
  {
   "function_name" : "android::hardware::wifi::supplicant::V1_2::BpHwSupplicantP2pIface::startWpsPinKeypad",
   "linker_set_key" : "_ZN7android8hardware4wifi10supplicant4V1_222BpHwSupplicantP2pIface17startWpsPinKeypadERKNS0_11hidl_stringES7_NSt3__18functionIFvRKNS2_4V1_016SupplicantStatusEEEE",
   "parameters" :
   [
    {
     "is_this_ptr" : true,
     "referenced_type" : "type-1703"
    },
    {
     "referenced_type" : "type-1057"
    },
    {
     "referenced_type" : "type-1057"
    },
    {
     "referenced_type" : "type-1966"
    }
   ],
   "return_type" : "type-799",
   "source_file" : "/out/soong/.intermediates/hardware/interfaces/wifi/supplicant/1.2/android.hardware.wifi.supplicant@1.2_genc++_headers/gen/android/hardware/wifi/supplicant/1.2/BpHwSupplicantP2pIface.h"
  },
  {
   "function_name" : "android::hardware::wifi::supplicant::V1_2::BpHwSupplicantP2pIface::_hidl_addGroup_1_2",
   "linker_set_key" : "_ZN7android8hardware4wifi10supplicant4V1_222BpHwSupplicantP2pIface18_hidl_addGroup_1_2EPNS0_10IInterfaceEPNS0_7details16HidlInstrumentorERKNS0_8hidl_vecIhEERKNS0_11hidl_stringEbjRKNS0_10hidl_arrayIhLj6EJEEEbNSt3__18functionIFvRKNS2_4V1_016SupplicantStatusEEEE",
   "parameters" :
   [
    {
     "referenced_type" : "type-1708"
    },
    {
     "referenced_type" : "type-1686"
    },
    {
     "referenced_type" : "type-1761"
    },
    {
     "referenced_type" : "type-1057"
    },
    {
     "referenced_type" : "type-65"
    },
    {
     "referenced_type" : "type-2"
    },
    {
     "referenced_type" : "type-149"
    },
    {
     "referenced_type" : "type-65"
    },
    {
     "referenced_type" : "type-1967"
    }
   ],
   "return_type" : "type-799",
   "source_file" : "/out/soong/.intermediates/hardware/interfaces/wifi/supplicant/1.2/android.hardware.wifi.supplicant@1.2_genc++_headers/gen/android/hardware/wifi/supplicant/1.2/BpHwSupplicantP2pIface.h"
  },
  {
   "function_name" : "android::hardware::wifi::supplicant::V1_2::BpHwSupplicantP2pIface::configureExtListen",
   "linker_set_key" : "_ZN7android8hardware4wifi10supplicant4V1_222BpHwSupplicantP2pIface18configureExtListenEjjNSt3__18functionIFvRKNS2_4V1_016SupplicantStatusEEEE",
   "parameters" :
   [
    {
     "is_this_ptr" : true,
     "referenced_type" : "type-1703"
    },
    {
     "referenced_type" : "type-2"
    },
    {
     "referenced_type" : "type-2"
    },
    {
     "referenced_type" : "type-1968"
    }
   ],
   "return_type" : "type-799",
   "source_file" : "/out/soong/.intermediates/hardware/interfaces/wifi/supplicant/1.2/android.hardware.wifi.supplicant@1.2_genc++_headers/gen/android/hardware/wifi/supplicant/1.2/BpHwSupplicantP2pIface.h"
  },
  {
   "function_name" : "android::hardware::wifi::supplicant::V1_2::BpHwSupplicantP2pIface::getGroupCapability",
   "linker_set_key" : "_ZN7android8hardware4wifi10supplicant4V1_222BpHwSupplicantP2pIface18getGroupCapabilityERKNS0_10hidl_arrayIhLj6EJEEENSt3__18functionIFvRKNS2_4V1_016SupplicantStatusEjEEE",
   "parameters" :
   [
    {
     "is_this_ptr" : true,
     "referenced_type" : "type-1703"
    },
    {
     "referenced_type" : "type-149"
    },
    {
     "referenced_type" : "type-1969"
    }
   ],
   "return_type" : "type-799",
   "source_file" : "/out/soong/.intermediates/hardware/interfaces/wifi/supplicant/1.2/android.hardware.wifi.supplicant@1.2_genc++_headers/gen/android/hardware/wifi/supplicant/1.2/BpHwSupplicantP2pIface.h"
  },
  {
   "function_name" : "android::hardware::wifi::supplicant::V1_2::BpHwSupplicantP2pIface::provisionDiscovery",
   "linker_set_key" : "_ZN7android8hardware4wifi10supplicant4V1_222BpHwSupplicantP2pIface18provisionDiscoveryERKNS0_10hidl_arrayIhLj6EJEEENS2_4V1_019ISupplicantP2pIface18WpsProvisionMethodENSt3__18functionIFvRKNS9_16SupplicantStatusEEEE",
   "parameters" :
   [
    {
     "is_this_ptr" : true,
     "referenced_type" : "type-1703"
    },
    {
     "referenced_type" : "type-149"
    },
    {
     "referenced_type" : "type-94"
    },
    {
     "referenced_type" : "type-1970"
    }
   ],
   "return_type" : "type-799",
   "source_file" : "/out/soong/.intermediates/hardware/interfaces/wifi/supplicant/1.2/android.hardware.wifi.supplicant@1.2_genc++_headers/gen/android/hardware/wifi/supplicant/1.2/BpHwSupplicantP2pIface.h"
  },
  {
   "function_name" : "android::hardware::wifi::supplicant::V1_2::BpHwSupplicantP2pIface::setWpsManufacturer",
   "linker_set_key" : "_ZN7android8hardware4wifi10supplicant4V1_222BpHwSupplicantP2pIface18setWpsManufacturerERKNS0_11hidl_stringENSt3__18functionIFvRKNS2_4V1_016SupplicantStatusEEEE",
   "parameters" :
   [
    {
     "is_this_ptr" : true,
     "referenced_type" : "type-1703"
    },
    {
     "referenced_type" : "type-1057"
    },
    {
     "referenced_type" : "type-1971"
    }
   ],
   "return_type" : "type-799",
   "source_file" : "/out/soong/.intermediates/hardware/interfaces/wifi/supplicant/1.2/android.hardware.wifi.supplicant@1.2_genc++_headers/gen/android/hardware/wifi/supplicant/1.2/BpHwSupplicantP2pIface.h"
  },
  {
   "function_name" : "android::hardware::wifi::supplicant::V1_2::BpHwSupplicantP2pIface::setWpsSerialNumber",
   "linker_set_key" : "_ZN7android8hardware4wifi10supplicant4V1_222BpHwSupplicantP2pIface18setWpsSerialNumberERKNS0_11hidl_stringENSt3__18functionIFvRKNS2_4V1_016SupplicantStatusEEEE",
   "parameters" :
   [
    {
     "is_this_ptr" : true,
     "referenced_type" : "type-1703"
    },
    {
     "referenced_type" : "type-1057"
    },
    {
     "referenced_type" : "type-1972"
    }
   ],
   "return_type" : "type-799",
   "source_file" : "/out/soong/.intermediates/hardware/interfaces/wifi/supplicant/1.2/android.hardware.wifi.supplicant@1.2_genc++_headers/gen/android/hardware/wifi/supplicant/1.2/BpHwSupplicantP2pIface.h"
  },
  {
   "function_name" : "android::hardware::wifi::supplicant::V1_2::BpHwSupplicantP2pIface::startWpsPinDisplay",
   "linker_set_key" : "_ZN7android8hardware4wifi10supplicant4V1_222BpHwSupplicantP2pIface18startWpsPinDisplayERKNS0_11hidl_stringERKNS0_10hidl_arrayIhLj6EJEEENSt3__18functionIFvRKNS2_4V1_016SupplicantStatusES7_EEE",
   "parameters" :
   [
    {
     "is_this_ptr" : true,
     "referenced_type" : "type-1703"
    },
    {
     "referenced_type" : "type-1057"
    },
    {
     "referenced_type" : "type-149"
    },
    {
     "referenced_type" : "type-1973"
    }
   ],
   "return_type" : "type-799",
   "source_file" : "/out/soong/.intermediates/hardware/interfaces/wifi/supplicant/1.2/android.hardware.wifi.supplicant@1.2_genc++_headers/gen/android/hardware/wifi/supplicant/1.2/BpHwSupplicantP2pIface.h"
  },
  {
   "function_name" : "android::hardware::wifi::supplicant::V1_2::BpHwSupplicantP2pIface::interfaceDescriptor",
   "linker_set_key" : "_ZN7android8hardware4wifi10supplicant4V1_222BpHwSupplicantP2pIface19interfaceDescriptorENSt3__18functionIFvRKNS0_11hidl_stringEEEE",
   "parameters" :
   [
    {
     "is_this_ptr" : true,
     "referenced_type" : "type-1703"
    },
    {
     "referenced_type" : "type-1974"
    }
   ],
   "return_type" : "type-799",
   "source_file" : "/out/soong/.intermediates/hardware/interfaces/wifi/supplicant/1.2/android.hardware.wifi.supplicant@1.2_genc++_headers/gen/android/hardware/wifi/supplicant/1.2/BpHwSupplicantP2pIface.h"
  },
  {
   "function_name" : "android::hardware::wifi::supplicant::V1_2::BpHwSupplicantP2pIface::setMacRandomization",
   "linker_set_key" : "_ZN7android8hardware4wifi10supplicant4V1_222BpHwSupplicantP2pIface19setMacRandomizationEbNSt3__18functionIFvRKNS2_4V1_016SupplicantStatusEEEE",
   "parameters" :
   [
    {
     "is_this_ptr" : true,
     "referenced_type" : "type-1703"
    },
    {
     "referenced_type" : "type-65"
    },
    {
     "referenced_type" : "type-1975"
    }
   ],
   "return_type" : "type-799",
   "source_file" : "/out/soong/.intermediates/hardware/interfaces/wifi/supplicant/1.2/android.hardware.wifi.supplicant@1.2_genc++_headers/gen/android/hardware/wifi/supplicant/1.2/BpHwSupplicantP2pIface.h"
  },
  {
   "function_name" : "android::hardware::wifi::supplicant::V1_2::BpHwSupplicantP2pIface::setWpsConfigMethods",
   "linker_set_key" : "_ZN7android8hardware4wifi10supplicant4V1_222BpHwSupplicantP2pIface19setWpsConfigMethodsEtNSt3__18functionIFvRKNS2_4V1_016SupplicantStatusEEEE",
   "parameters" :
   [
    {
     "is_this_ptr" : true,
     "referenced_type" : "type-1703"
    },
    {
     "referenced_type" : "type-44"
    },
    {
     "referenced_type" : "type-1976"
    }
   ],
   "return_type" : "type-799",
   "source_file" : "/out/soong/.intermediates/hardware/interfaces/wifi/supplicant/1.2/android.hardware.wifi.supplicant@1.2_genc++_headers/gen/android/hardware/wifi/supplicant/1.2/BpHwSupplicantP2pIface.h"
  },
  {
   "function_name" : "android::hardware::wifi::supplicant::V1_2::BpHwSupplicantP2pIface::removeBonjourService",
   "linker_set_key" : "_ZN7android8hardware4wifi10supplicant4V1_222BpHwSupplicantP2pIface20removeBonjourServiceERKNS0_8hidl_vecIhEENSt3__18functionIFvRKNS2_4V1_016SupplicantStatusEEEE",
   "parameters" :
   [
    {
     "is_this_ptr" : true,
     "referenced_type" : "type-1703"
    },
    {
     "referenced_type" : "type-1761"
    },
    {
     "referenced_type" : "type-1977"
    }
   ],
   "return_type" : "type-799",
   "source_file" : "/out/soong/.intermediates/hardware/interfaces/wifi/supplicant/1.2/android.hardware.wifi.supplicant@1.2_genc++_headers/gen/android/hardware/wifi/supplicant/1.2/BpHwSupplicantP2pIface.h"
  },
  {
   "function_name" : "android::hardware::wifi::supplicant::V1_2::BpHwSupplicantP2pIface::notifySyspropsChanged",
   "linker_set_key" : "_ZN7android8hardware4wifi10supplicant4V1_222BpHwSupplicantP2pIface21notifySyspropsChangedEv",
   "parameters" :
   [
    {
     "is_this_ptr" : true,
     "referenced_type" : "type-1703"
    }
   ],
   "return_type" : "type-799",
   "source_file" : "/out/soong/.intermediates/hardware/interfaces/wifi/supplicant/1.2/android.hardware.wifi.supplicant@1.2_genc++_headers/gen/android/hardware/wifi/supplicant/1.2/BpHwSupplicantP2pIface.h"
  },
  {
   "function_name" : "android::hardware::wifi::supplicant::V1_2::BpHwSupplicantP2pIface::setHALInstrumentation",
   "linker_set_key" : "_ZN7android8hardware4wifi10supplicant4V1_222BpHwSupplicantP2pIface21setHALInstrumentationEv",
   "parameters" :
   [
    {
     "is_this_ptr" : true,
     "referenced_type" : "type-1703"
    }
   ],
   "return_type" : "type-799",
   "source_file" : "/out/soong/.intermediates/hardware/interfaces/wifi/supplicant/1.2/android.hardware.wifi.supplicant@1.2_genc++_headers/gen/android/hardware/wifi/supplicant/1.2/BpHwSupplicantP2pIface.h"
  },
  {
   "function_name" : "android::hardware::wifi::supplicant::V1_2::BpHwSupplicantP2pIface::cancelServiceDiscovery",
   "linker_set_key" : "_ZN7android8hardware4wifi10supplicant4V1_222BpHwSupplicantP2pIface22cancelServiceDiscoveryEyNSt3__18functionIFvRKNS2_4V1_016SupplicantStatusEEEE",
   "parameters" :
   [
    {
     "is_this_ptr" : true,
     "referenced_type" : "type-1703"
    },
    {
     "referenced_type" : "type-30"
    },
    {
     "referenced_type" : "type-1978"
    }
   ],
   "return_type" : "type-799",
   "source_file" : "/out/soong/.intermediates/hardware/interfaces/wifi/supplicant/1.2/android.hardware.wifi.supplicant@1.2_genc++_headers/gen/android/hardware/wifi/supplicant/1.2/BpHwSupplicantP2pIface.h"
  },
  {
   "function_name" : "android::hardware::wifi::supplicant::V1_2::BpHwSupplicantP2pIface::requestServiceDiscovery",
   "linker_set_key" : "_ZN7android8hardware4wifi10supplicant4V1_222BpHwSupplicantP2pIface23requestServiceDiscoveryERKNS0_10hidl_arrayIhLj6EJEEERKNS0_8hidl_vecIhEENSt3__18functionIFvRKNS2_4V1_016SupplicantStatusEyEEE",
   "parameters" :
   [
    {
     "is_this_ptr" : true,
     "referenced_type" : "type-1703"
    },
    {
     "referenced_type" : "type-149"
    },
    {
     "referenced_type" : "type-1761"
    },
    {
     "referenced_type" : "type-1979"
    }
   ],
   "return_type" : "type-799",
   "source_file" : "/out/soong/.intermediates/hardware/interfaces/wifi/supplicant/1.2/android.hardware.wifi.supplicant@1.2_genc++_headers/gen/android/hardware/wifi/supplicant/1.2/BpHwSupplicantP2pIface.h"
  },
  {
   "function_name" : "android::hardware::wifi::supplicant::V1_2::BpHwSupplicantP2pIface::setDisallowedFrequencies",
   "linker_set_key" : "_ZN7android8hardware4wifi10supplicant4V1_222BpHwSupplicantP2pIface24setDisallowedFrequenciesERKNS0_8hidl_vecINS2_4V1_019ISupplicantP2pIface9FreqRangeEEENSt3__18functionIFvRKNS6_16SupplicantStatusEEEE",
   "parameters" :
   [
    {
     "is_this_ptr" : true,
     "referenced_type" : "type-1703"
    },
    {
     "referenced_type" : "type-163"
    },
    {
     "referenced_type" : "type-1980"
    }
   ],
   "return_type" : "type-799",
   "source_file" : "/out/soong/.intermediates/hardware/interfaces/wifi/supplicant/1.2/android.hardware.wifi.supplicant@1.2_genc++_headers/gen/android/hardware/wifi/supplicant/1.2/BpHwSupplicantP2pIface.h"
  },
  {
   "function_name" : "android::hardware::wifi::supplicant::V1_2::BpHwSupplicantP2pIface::_hidl_setMacRandomization",
   "linker_set_key" : "_ZN7android8hardware4wifi10supplicant4V1_222BpHwSupplicantP2pIface25_hidl_setMacRandomizationEPNS0_10IInterfaceEPNS0_7details16HidlInstrumentorEbNSt3__18functionIFvRKNS2_4V1_016SupplicantStatusEEEE",
   "parameters" :
   [
    {
     "referenced_type" : "type-1708"
    },
    {
     "referenced_type" : "type-1686"
    },
    {
     "referenced_type" : "type-65"
    },
    {
     "referenced_type" : "type-1981"
    }
   ],
   "return_type" : "type-799",
   "source_file" : "/out/soong/.intermediates/hardware/interfaces/wifi/supplicant/1.2/android.hardware.wifi.supplicant@1.2_genc++_headers/gen/android/hardware/wifi/supplicant/1.2/BpHwSupplicantP2pIface.h"
  },
  {
   "function_name" : "android::hardware::wifi::supplicant::V1_2::BpHwSupplicantP2pIface::reportNfcHandoverResponse",
   "linker_set_key" : "_ZN7android8hardware4wifi10supplicant4V1_222BpHwSupplicantP2pIface25reportNfcHandoverResponseERKNS0_8hidl_vecIhEENSt3__18functionIFvRKNS2_4V1_016SupplicantStatusEEEE",
   "parameters" :
   [
    {
     "is_this_ptr" : true,
     "referenced_type" : "type-1703"
    },
    {
     "referenced_type" : "type-1761"
    },
    {
     "referenced_type" : "type-1982"
    }
   ],
   "return_type" : "type-799",
   "source_file" : "/out/soong/.intermediates/hardware/interfaces/wifi/supplicant/1.2/android.hardware.wifi.supplicant@1.2_genc++_headers/gen/android/hardware/wifi/supplicant/1.2/BpHwSupplicantP2pIface.h"
  },
  {
   "function_name" : "android::hardware::wifi::supplicant::V1_2::BpHwSupplicantP2pIface::reportNfcHandoverInitiation",
   "linker_set_key" : "_ZN7android8hardware4wifi10supplicant4V1_222BpHwSupplicantP2pIface27reportNfcHandoverInitiationERKNS0_8hidl_vecIhEENSt3__18functionIFvRKNS2_4V1_016SupplicantStatusEEEE",
   "parameters" :
   [
    {
     "is_this_ptr" : true,
     "referenced_type" : "type-1703"
    },
    {
     "referenced_type" : "type-1761"
    },
    {
     "referenced_type" : "type-1983"
    }
   ],
   "return_type" : "type-799",
   "source_file" : "/out/soong/.intermediates/hardware/interfaces/wifi/supplicant/1.2/android.hardware.wifi.supplicant@1.2_genc++_headers/gen/android/hardware/wifi/supplicant/1.2/BpHwSupplicantP2pIface.h"
  },
  {
   "function_name" : "android::hardware::wifi::supplicant::V1_2::BpHwSupplicantP2pIface::createNfcHandoverSelectMessage",
   "linker_set_key" : "_ZN7android8hardware4wifi10supplicant4V1_222BpHwSupplicantP2pIface30createNfcHandoverSelectMessageENSt3__18functionIFvRKNS2_4V1_016SupplicantStatusERKNS0_8hidl_vecIhEEEEE",
   "parameters" :
   [
    {
     "is_this_ptr" : true,
     "referenced_type" : "type-1703"
    },
    {
     "referenced_type" : "type-1984"
    }
   ],
   "return_type" : "type-799",
   "source_file" : "/out/soong/.intermediates/hardware/interfaces/wifi/supplicant/1.2/android.hardware.wifi.supplicant@1.2_genc++_headers/gen/android/hardware/wifi/supplicant/1.2/BpHwSupplicantP2pIface.h"
  },
  {
   "function_name" : "android::hardware::wifi::supplicant::V1_2::BpHwSupplicantP2pIface::createNfcHandoverRequestMessage",
   "linker_set_key" : "_ZN7android8hardware4wifi10supplicant4V1_222BpHwSupplicantP2pIface31createNfcHandoverRequestMessageENSt3__18functionIFvRKNS2_4V1_016SupplicantStatusERKNS0_8hidl_vecIhEEEEE",
   "parameters" :
   [
    {
     "is_this_ptr" : true,
     "referenced_type" : "type-1703"
    },
    {
     "referenced_type" : "type-1985"
    }
   ],
   "return_type" : "type-799",
   "source_file" : "/out/soong/.intermediates/hardware/interfaces/wifi/supplicant/1.2/android.hardware.wifi.supplicant@1.2_genc++_headers/gen/android/hardware/wifi/supplicant/1.2/BpHwSupplicantP2pIface.h"
  },
  {
   "function_name" : "android::hardware::wifi::supplicant::V1_2::BpHwSupplicantP2pIface::find",
   "linker_set_key" : "_ZN7android8hardware4wifi10supplicant4V1_222BpHwSupplicantP2pIface4findEjNSt3__18functionIFvRKNS2_4V1_016SupplicantStatusEEEE",
   "parameters" :
   [
    {
     "is_this_ptr" : true,
     "referenced_type" : "type-1703"
    },
    {
     "referenced_type" : "type-2"
    },
    {
     "referenced_type" : "type-1986"
    }
   ],
   "return_type" : "type-799",
   "source_file" : "/out/soong/.intermediates/hardware/interfaces/wifi/supplicant/1.2/android.hardware.wifi.supplicant@1.2_genc++_headers/gen/android/hardware/wifi/supplicant/1.2/BpHwSupplicantP2pIface.h"
  },
  {
   "function_name" : "android::hardware::wifi::supplicant::V1_2::BpHwSupplicantP2pIface::ping",
   "linker_set_key" : "_ZN7android8hardware4wifi10supplicant4V1_222BpHwSupplicantP2pIface4pingEv",
   "parameters" :
   [
    {
     "is_this_ptr" : true,
     "referenced_type" : "type-1703"
    }
   ],
   "return_type" : "type-799",
   "source_file" : "/out/soong/.intermediates/hardware/interfaces/wifi/supplicant/1.2/android.hardware.wifi.supplicant@1.2_genc++_headers/gen/android/hardware/wifi/supplicant/1.2/BpHwSupplicantP2pIface.h"
  },
  {
   "function_name" : "android::hardware::wifi::supplicant::V1_2::BpHwSupplicantP2pIface::debug",
   "linker_set_key" : "_ZN7android8hardware4wifi10supplicant4V1_222BpHwSupplicantP2pIface5debugERKNS0_11hidl_handleERKNS0_8hidl_vecINS0_11hidl_stringEEE",
   "parameters" :
   [
    {
     "is_this_ptr" : true,
     "referenced_type" : "type-1703"
    },
    {
     "referenced_type" : "type-1187"
    },
    {
     "referenced_type" : "type-1617"
    }
   ],
   "return_type" : "type-799",
   "source_file" : "/out/soong/.intermediates/hardware/interfaces/wifi/supplicant/1.2/android.hardware.wifi.supplicant@1.2_genc++_headers/gen/android/hardware/wifi/supplicant/1.2/BpHwSupplicantP2pIface.h"
  },
  {
   "function_name" : "android::hardware::wifi::supplicant::V1_2::BpHwSupplicantP2pIface::flush",
   "linker_set_key" : "_ZN7android8hardware4wifi10supplicant4V1_222BpHwSupplicantP2pIface5flushENSt3__18functionIFvRKNS2_4V1_016SupplicantStatusEEEE",
   "parameters" :
   [
    {
     "is_this_ptr" : true,
     "referenced_type" : "type-1703"
    },
    {
     "referenced_type" : "type-1987"
    }
   ],
   "return_type" : "type-799",
   "source_file" : "/out/soong/.intermediates/hardware/interfaces/wifi/supplicant/1.2/android.hardware.wifi.supplicant@1.2_genc++_headers/gen/android/hardware/wifi/supplicant/1.2/BpHwSupplicantP2pIface.h"
  },
  {
   "function_name" : "android::hardware::wifi::supplicant::V1_2::BpHwSupplicantP2pIface::invite",
   "linker_set_key" : "_ZN7android8hardware4wifi10supplicant4V1_222BpHwSupplicantP2pIface6inviteERKNS0_11hidl_stringERKNS0_10hidl_arrayIhLj6EJEEESB_NSt3__18functionIFvRKNS2_4V1_016SupplicantStatusEEEE",
   "parameters" :
   [
    {
     "is_this_ptr" : true,
     "referenced_type" : "type-1703"
    },
    {
     "referenced_type" : "type-1057"
    },
    {
     "referenced_type" : "type-149"
    },
    {
     "referenced_type" : "type-149"
    },
    {
     "referenced_type" : "type-1988"
    }
   ],
   "return_type" : "type-799",
   "source_file" : "/out/soong/.intermediates/hardware/interfaces/wifi/supplicant/1.2/android.hardware.wifi.supplicant@1.2_genc++_headers/gen/android/hardware/wifi/supplicant/1.2/BpHwSupplicantP2pIface.h"
  },
  {
   "function_name" : "android::hardware::wifi::supplicant::V1_2::BpHwSupplicantP2pIface::reject",
   "linker_set_key" : "_ZN7android8hardware4wifi10supplicant4V1_222BpHwSupplicantP2pIface6rejectERKNS0_10hidl_arrayIhLj6EJEEENSt3__18functionIFvRKNS2_4V1_016SupplicantStatusEEEE",
   "parameters" :
   [
    {
     "is_this_ptr" : true,
     "referenced_type" : "type-1703"
    },
    {
     "referenced_type" : "type-149"
    },
    {
     "referenced_type" : "type-1989"
    }
   ],
   "return_type" : "type-799",
   "source_file" : "/out/soong/.intermediates/hardware/interfaces/wifi/supplicant/1.2/android.hardware.wifi.supplicant@1.2_genc++_headers/gen/android/hardware/wifi/supplicant/1.2/BpHwSupplicantP2pIface.h"
  },
  {
   "function_name" : "android::hardware::wifi::supplicant::V1_2::BpHwSupplicantP2pIface::connect",
   "linker_set_key" : "_ZN7android8hardware4wifi10supplicant4V1_222BpHwSupplicantP2pIface7connectERKNS0_10hidl_arrayIhLj6EJEEENS2_4V1_019ISupplicantP2pIface18WpsProvisionMethodERKNS0_11hidl_stringEbbjNSt3__18functionIFvRKNS9_16SupplicantStatusESE_EEE",
   "parameters" :
   [
    {
     "is_this_ptr" : true,
     "referenced_type" : "type-1703"
    },
    {
     "referenced_type" : "type-149"
    },
    {
     "referenced_type" : "type-94"
    },
    {
     "referenced_type" : "type-1057"
    },
    {
     "referenced_type" : "type-65"
    },
    {
     "referenced_type" : "type-65"
    },
    {
     "referenced_type" : "type-2"
    },
    {
     "referenced_type" : "type-1990"
    }
   ],
   "return_type" : "type-799",
   "source_file" : "/out/soong/.intermediates/hardware/interfaces/wifi/supplicant/1.2/android.hardware.wifi.supplicant@1.2_genc++_headers/gen/android/hardware/wifi/supplicant/1.2/BpHwSupplicantP2pIface.h"
  },
  {
   "function_name" : "android::hardware::wifi::supplicant::V1_2::BpHwSupplicantP2pIface::getName",
   "linker_set_key" : "_ZN7android8hardware4wifi10supplicant4V1_222BpHwSupplicantP2pIface7getNameENSt3__18functionIFvRKNS2_4V1_016SupplicantStatusERKNS0_11hidl_stringEEEE",
   "parameters" :
   [
    {
     "is_this_ptr" : true,
     "referenced_type" : "type-1703"
    },
    {
     "referenced_type" : "type-1991"
    }
   ],
   "return_type" : "type-799",
   "source_file" : "/out/soong/.intermediates/hardware/interfaces/wifi/supplicant/1.2/android.hardware.wifi.supplicant@1.2_genc++_headers/gen/android/hardware/wifi/supplicant/1.2/BpHwSupplicantP2pIface.h"
  },
  {
   "function_name" : "android::hardware::wifi::supplicant::V1_2::BpHwSupplicantP2pIface::getSsid",
   "linker_set_key" : "_ZN7android8hardware4wifi10supplicant4V1_222BpHwSupplicantP2pIface7getSsidERKNS0_10hidl_arrayIhLj6EJEEENSt3__18functionIFvRKNS2_4V1_016SupplicantStatusERKNS0_8hidl_vecIhEEEEE",
   "parameters" :
   [
    {
     "is_this_ptr" : true,
     "referenced_type" : "type-1703"
    },
    {
     "referenced_type" : "type-149"
    },
    {
     "referenced_type" : "type-1992"
    }
   ],
   "return_type" : "type-799",
   "source_file" : "/out/soong/.intermediates/hardware/interfaces/wifi/supplicant/1.2/android.hardware.wifi.supplicant@1.2_genc++_headers/gen/android/hardware/wifi/supplicant/1.2/BpHwSupplicantP2pIface.h"
  },
  {
   "function_name" : "android::hardware::wifi::supplicant::V1_2::BpHwSupplicantP2pIface::getType",
   "linker_set_key" : "_ZN7android8hardware4wifi10supplicant4V1_222BpHwSupplicantP2pIface7getTypeENSt3__18functionIFvRKNS2_4V1_016SupplicantStatusENS7_9IfaceTypeEEEE",
   "parameters" :
   [
    {
     "is_this_ptr" : true,
     "referenced_type" : "type-1703"
    },
    {
     "referenced_type" : "type-1993"
    }
   ],
   "return_type" : "type-799",
   "source_file" : "/out/soong/.intermediates/hardware/interfaces/wifi/supplicant/1.2/android.hardware.wifi.supplicant@1.2_genc++_headers/gen/android/hardware/wifi/supplicant/1.2/BpHwSupplicantP2pIface.h"
  },
  {
   "function_name" : "android::hardware::wifi::supplicant::V1_2::BpHwSupplicantP2pIface::addGroup",
   "linker_set_key" : "_ZN7android8hardware4wifi10supplicant4V1_222BpHwSupplicantP2pIface8addGroupEbjNSt3__18functionIFvRKNS2_4V1_016SupplicantStatusEEEE",
   "parameters" :
   [
    {
     "is_this_ptr" : true,
     "referenced_type" : "type-1703"
    },
    {
     "referenced_type" : "type-65"
    },
    {
     "referenced_type" : "type-2"
    },
    {
     "referenced_type" : "type-1994"
    }
   ],
   "return_type" : "type-799",
   "source_file" : "/out/soong/.intermediates/hardware/interfaces/wifi/supplicant/1.2/android.hardware.wifi.supplicant@1.2_genc++_headers/gen/android/hardware/wifi/supplicant/1.2/BpHwSupplicantP2pIface.h"
  },
  {
   "function_name" : "android::hardware::wifi::supplicant::V1_2::BpHwSupplicantP2pIface::reinvoke",
   "linker_set_key" : "_ZN7android8hardware4wifi10supplicant4V1_222BpHwSupplicantP2pIface8reinvokeEjRKNS0_10hidl_arrayIhLj6EJEEENSt3__18functionIFvRKNS2_4V1_016SupplicantStatusEEEE",
   "parameters" :
   [
    {
     "is_this_ptr" : true,
     "referenced_type" : "type-1703"
    },
    {
     "referenced_type" : "type-2"
    },
    {
     "referenced_type" : "type-149"
    },
    {
     "referenced_type" : "type-1995"
    }
   ],
   "return_type" : "type-799",
   "source_file" : "/out/soong/.intermediates/hardware/interfaces/wifi/supplicant/1.2/android.hardware.wifi.supplicant@1.2_genc++_headers/gen/android/hardware/wifi/supplicant/1.2/BpHwSupplicantP2pIface.h"
  },
  {
   "function_name" : "android::hardware::wifi::supplicant::V1_2::BpHwSupplicantP2pIface::stopFind",
   "linker_set_key" : "_ZN7android8hardware4wifi10supplicant4V1_222BpHwSupplicantP2pIface8stopFindENSt3__18functionIFvRKNS2_4V1_016SupplicantStatusEEEE",
   "parameters" :
   [
    {
     "is_this_ptr" : true,
     "referenced_type" : "type-1703"
    },
    {
     "referenced_type" : "type-1996"
    }
   ],
   "return_type" : "type-799",
   "source_file" : "/out/soong/.intermediates/hardware/interfaces/wifi/supplicant/1.2/android.hardware.wifi.supplicant@1.2_genc++_headers/gen/android/hardware/wifi/supplicant/1.2/BpHwSupplicantP2pIface.h"
  },
  {
   "function_name" : "android::hardware::wifi::supplicant::V1_2::BpHwSupplicantP2pIface::cancelWps",
   "linker_set_key" : "_ZN7android8hardware4wifi10supplicant4V1_222BpHwSupplicantP2pIface9cancelWpsERKNS0_11hidl_stringENSt3__18functionIFvRKNS2_4V1_016SupplicantStatusEEEE",
   "parameters" :
   [
    {
     "is_this_ptr" : true,
     "referenced_type" : "type-1703"
    },
    {
     "referenced_type" : "type-1057"
    },
    {
     "referenced_type" : "type-1997"
    }
   ],
   "return_type" : "type-799",
   "source_file" : "/out/soong/.intermediates/hardware/interfaces/wifi/supplicant/1.2/android.hardware.wifi.supplicant@1.2_genc++_headers/gen/android/hardware/wifi/supplicant/1.2/BpHwSupplicantP2pIface.h"
  },
  {
   "function_name" : "android::hardware::wifi::supplicant::V1_2::BpHwSupplicantP2pIface::enableWfd",
   "linker_set_key" : "_ZN7android8hardware4wifi10supplicant4V1_222BpHwSupplicantP2pIface9enableWfdEbNSt3__18functionIFvRKNS2_4V1_016SupplicantStatusEEEE",
   "parameters" :
   [
    {
     "is_this_ptr" : true,
     "referenced_type" : "type-1703"
    },
    {
     "referenced_type" : "type-65"
    },
    {
     "referenced_type" : "type-1998"
    }
   ],
   "return_type" : "type-799",
   "source_file" : "/out/soong/.intermediates/hardware/interfaces/wifi/supplicant/1.2/android.hardware.wifi.supplicant@1.2_genc++_headers/gen/android/hardware/wifi/supplicant/1.2/BpHwSupplicantP2pIface.h"
  },
  {
   "function_name" : "android::hardware::wifi::supplicant::V1_2::BpHwSupplicantP2pIface::BpHwSupplicantP2pIface",
   "linker_set_key" : "_ZN7android8hardware4wifi10supplicant4V1_222BpHwSupplicantP2pIfaceC1ERKNS_2spINS0_7IBinderEEE",
   "parameters" :
   [
    {
     "is_this_ptr" : true,
     "referenced_type" : "type-1703"
    },
    {
     "referenced_type" : "type-74"
    }
   ],
   "return_type" : "type-53",
   "source_file" : "/out/soong/.intermediates/hardware/interfaces/wifi/supplicant/1.2/android.hardware.wifi.supplicant@1.2_genc++_headers/gen/android/hardware/wifi/supplicant/1.2/BpHwSupplicantP2pIface.h"
  },
  {
   "function_name" : "android::hardware::wifi::supplicant::V1_2::BpHwSupplicantP2pIface::BpHwSupplicantP2pIface",
   "linker_set_key" : "_ZN7android8hardware4wifi10supplicant4V1_222BpHwSupplicantP2pIfaceC2ERKNS_2spINS0_7IBinderEEE",
   "parameters" :
   [
    {
     "is_this_ptr" : true,
     "referenced_type" : "type-1703"
    },
    {
     "referenced_type" : "type-74"
    }
   ],
   "return_type" : "type-53",
   "source_file" : "/out/soong/.intermediates/hardware/interfaces/wifi/supplicant/1.2/android.hardware.wifi.supplicant@1.2_genc++_headers/gen/android/hardware/wifi/supplicant/1.2/BpHwSupplicantP2pIface.h"
  },
  {
   "function_name" : "android::hardware::wifi::supplicant::V1_2::BpHwSupplicantStaIface::addNetwork",
   "linker_set_key" : "_ZN7android8hardware4wifi10supplicant4V1_222BpHwSupplicantStaIface10addNetworkENSt3__18functionIFvRKNS2_4V1_016SupplicantStatusERKNS_2spINS7_18ISupplicantNetworkEEEEEE",
   "parameters" :
   [
    {
     "is_this_ptr" : true,
     "referenced_type" : "type-187"
    },
    {
     "referenced_type" : "type-1999"
    }
   ],
   "return_type" : "type-799",
   "source_file" : "/out/soong/.intermediates/hardware/interfaces/wifi/supplicant/1.2/android.hardware.wifi.supplicant@1.2_genc++_headers/gen/android/hardware/wifi/supplicant/1.2/BpHwSupplicantStaIface.h"
  },
  {
   "function_name" : "android::hardware::wifi::supplicant::V1_2::BpHwSupplicantStaIface::disconnect",
   "linker_set_key" : "_ZN7android8hardware4wifi10supplicant4V1_222BpHwSupplicantStaIface10disconnectENSt3__18functionIFvRKNS2_4V1_016SupplicantStatusEEEE",
   "parameters" :
   [
    {
     "is_this_ptr" : true,
     "referenced_type" : "type-187"
    },
    {
     "referenced_type" : "type-2000"
    }
   ],
   "return_type" : "type-799",
   "source_file" : "/out/soong/.intermediates/hardware/interfaces/wifi/supplicant/1.2/android.hardware.wifi.supplicant@1.2_genc++_headers/gen/android/hardware/wifi/supplicant/1.2/BpHwSupplicantStaIface.h"
  },
  {
   "function_name" : "android::hardware::wifi::supplicant::V1_2::BpHwSupplicantStaIface::getNetwork",
   "linker_set_key" : "_ZN7android8hardware4wifi10supplicant4V1_222BpHwSupplicantStaIface10getNetworkEjNSt3__18functionIFvRKNS2_4V1_016SupplicantStatusERKNS_2spINS7_18ISupplicantNetworkEEEEEE",
   "parameters" :
   [
    {
     "is_this_ptr" : true,
     "referenced_type" : "type-187"
    },
    {
     "referenced_type" : "type-2"
    },
    {
     "referenced_type" : "type-2001"
    }
   ],
   "return_type" : "type-799",
   "source_file" : "/out/soong/.intermediates/hardware/interfaces/wifi/supplicant/1.2/android.hardware.wifi.supplicant@1.2_genc++_headers/gen/android/hardware/wifi/supplicant/1.2/BpHwSupplicantStaIface.h"
  },
  {
   "function_name" : "android::hardware::wifi::supplicant::V1_2::BpHwSupplicantStaIface::addRxFilter",
   "linker_set_key" : "_ZN7android8hardware4wifi10supplicant4V1_222BpHwSupplicantStaIface11addRxFilterENS2_4V1_019ISupplicantStaIface12RxFilterTypeENSt3__18functionIFvRKNS5_16SupplicantStatusEEEE",
   "parameters" :
   [
    {
     "is_this_ptr" : true,
     "referenced_type" : "type-187"
    },
    {
     "referenced_type" : "type-463"
    },
    {
     "referenced_type" : "type-2002"
    }
   ],
   "return_type" : "type-799",
   "source_file" : "/out/soong/.intermediates/hardware/interfaces/wifi/supplicant/1.2/android.hardware.wifi.supplicant@1.2_genc++_headers/gen/android/hardware/wifi/supplicant/1.2/BpHwSupplicantStaIface.h"
  },
  {
   "function_name" : "android::hardware::wifi::supplicant::V1_2::BpHwSupplicantStaIface::linkToDeath",
   "linker_set_key" : "_ZN7android8hardware4wifi10supplicant4V1_222BpHwSupplicantStaIface11linkToDeathERKNS_2spINS0_20hidl_death_recipientEEEy",
   "parameters" :
   [
    {
     "is_this_ptr" : true,
     "referenced_type" : "type-187"
    },
    {
     "referenced_type" : "type-1074"
    },
    {
     "referenced_type" : "type-30"
    }
   ],
   "return_type" : "type-692",
   "source_file" : "/out/soong/.intermediates/hardware/interfaces/wifi/supplicant/1.2/android.hardware.wifi.supplicant@1.2_genc++_headers/gen/android/hardware/wifi/supplicant/1.2/BpHwSupplicantStaIface.h"
  },
  {
   "function_name" : "android::hardware::wifi::supplicant::V1_2::BpHwSupplicantStaIface::reassociate",
   "linker_set_key" : "_ZN7android8hardware4wifi10supplicant4V1_222BpHwSupplicantStaIface11reassociateENSt3__18functionIFvRKNS2_4V1_016SupplicantStatusEEEE",
   "parameters" :
   [
    {
     "is_this_ptr" : true,
     "referenced_type" : "type-187"
    },
    {
     "referenced_type" : "type-2003"
    }
   ],
   "return_type" : "type-799",
   "source_file" : "/out/soong/.intermediates/hardware/interfaces/wifi/supplicant/1.2/android.hardware.wifi.supplicant@1.2_genc++_headers/gen/android/hardware/wifi/supplicant/1.2/BpHwSupplicantStaIface.h"
  },
  {
   "function_name" : "android::hardware::wifi::supplicant::V1_2::BpHwSupplicantStaIface::startWpsPbc",
   "linker_set_key" : "_ZN7android8hardware4wifi10supplicant4V1_222BpHwSupplicantStaIface11startWpsPbcERKNS0_10hidl_arrayIhLj6EJEEENSt3__18functionIFvRKNS2_4V1_016SupplicantStatusEEEE",
   "parameters" :
   [
    {
     "is_this_ptr" : true,
     "referenced_type" : "type-187"
    },
    {
     "referenced_type" : "type-149"
    },
    {
     "referenced_type" : "type-2004"
    }
   ],
   "return_type" : "type-799",
   "source_file" : "/out/soong/.intermediates/hardware/interfaces/wifi/supplicant/1.2/android.hardware.wifi.supplicant@1.2_genc++_headers/gen/android/hardware/wifi/supplicant/1.2/BpHwSupplicantStaIface.h"
  },
  {
   "function_name" : "android::hardware::wifi::supplicant::V1_2::BpHwSupplicantStaIface::getDebugInfo",
   "linker_set_key" : "_ZN7android8hardware4wifi10supplicant4V1_222BpHwSupplicantStaIface12getDebugInfoENSt3__18functionIFvRKNS_4hidl4base4V1_09DebugInfoEEEE",
   "parameters" :
   [
    {
     "is_this_ptr" : true,
     "referenced_type" : "type-187"
    },
    {
     "referenced_type" : "type-2005"
    }
   ],
   "return_type" : "type-799",
   "source_file" : "/out/soong/.intermediates/hardware/interfaces/wifi/supplicant/1.2/android.hardware.wifi.supplicant@1.2_genc++_headers/gen/android/hardware/wifi/supplicant/1.2/BpHwSupplicantStaIface.h"
  },
  {
   "function_name" : "android::hardware::wifi::supplicant::V1_2::BpHwSupplicantStaIface::getHashChain",
   "linker_set_key" : "_ZN7android8hardware4wifi10supplicant4V1_222BpHwSupplicantStaIface12getHashChainENSt3__18functionIFvRKNS0_8hidl_vecINS0_10hidl_arrayIhLj32EJEEEEEEEE",
   "parameters" :
   [
    {
     "is_this_ptr" : true,
     "referenced_type" : "type-187"
    },
    {
     "referenced_type" : "type-2006"
    }
   ],
   "return_type" : "type-799",
   "source_file" : "/out/soong/.intermediates/hardware/interfaces/wifi/supplicant/1.2/android.hardware.wifi.supplicant@1.2_genc++_headers/gen/android/hardware/wifi/supplicant/1.2/BpHwSupplicantStaIface.h"
  },
  {
   "function_name" : "android::hardware::wifi::supplicant::V1_2::BpHwSupplicantStaIface::listNetworks",
   "linker_set_key" : "_ZN7android8hardware4wifi10supplicant4V1_222BpHwSupplicantStaIface12listNetworksENSt3__18functionIFvRKNS2_4V1_016SupplicantStatusERKNS0_8hidl_vecIjEEEEE",
   "parameters" :
   [
    {
     "is_this_ptr" : true,
     "referenced_type" : "type-187"
    },
    {
     "referenced_type" : "type-2007"
    }
   ],
   "return_type" : "type-799",
   "source_file" : "/out/soong/.intermediates/hardware/interfaces/wifi/supplicant/1.2/android.hardware.wifi.supplicant@1.2_genc++_headers/gen/android/hardware/wifi/supplicant/1.2/BpHwSupplicantStaIface.h"
  },
  {
   "function_name" : "android::hardware::wifi::supplicant::V1_2::BpHwSupplicantStaIface::removeDppUri",
   "linker_set_key" : "_ZN7android8hardware4wifi10supplicant4V1_222BpHwSupplicantStaIface12removeDppUriEjNSt3__18functionIFvRKNS2_4V1_016SupplicantStatusEEEE",
   "parameters" :
   [
    {
     "is_this_ptr" : true,
     "referenced_type" : "type-187"
    },
    {
     "referenced_type" : "type-2"
    },
    {
     "referenced_type" : "type-2008"
    }
   ],
   "return_type" : "type-799",
   "source_file" : "/out/soong/.intermediates/hardware/interfaces/wifi/supplicant/1.2/android.hardware.wifi.supplicant@1.2_genc++_headers/gen/android/hardware/wifi/supplicant/1.2/BpHwSupplicantStaIface.h"
  },
  {
   "function_name" : "android::hardware::wifi::supplicant::V1_2::BpHwSupplicantStaIface::setPowerSave",
   "linker_set_key" : "_ZN7android8hardware4wifi10supplicant4V1_222BpHwSupplicantStaIface12setPowerSaveEbNSt3__18functionIFvRKNS2_4V1_016SupplicantStatusEEEE",
   "parameters" :
   [
    {
     "is_this_ptr" : true,
     "referenced_type" : "type-187"
    },
    {
     "referenced_type" : "type-65"
    },
    {
     "referenced_type" : "type-2009"
    }
   ],
   "return_type" : "type-799",
   "source_file" : "/out/soong/.intermediates/hardware/interfaces/wifi/supplicant/1.2/android.hardware.wifi.supplicant@1.2_genc++_headers/gen/android/hardware/wifi/supplicant/1.2/BpHwSupplicantStaIface.h"
  },
  {
   "function_name" : "android::hardware::wifi::supplicant::V1_2::BpHwSupplicantStaIface::stopRxFilter",
   "linker_set_key" : "_ZN7android8hardware4wifi10supplicant4V1_222BpHwSupplicantStaIface12stopRxFilterENSt3__18functionIFvRKNS2_4V1_016SupplicantStatusEEEE",
   "parameters" :
   [
    {
     "is_this_ptr" : true,
     "referenced_type" : "type-187"
    },
    {
     "referenced_type" : "type-2010"
    }
   ],
   "return_type" : "type-799",
   "source_file" : "/out/soong/.intermediates/hardware/interfaces/wifi/supplicant/1.2/android.hardware.wifi.supplicant@1.2_genc++_headers/gen/android/hardware/wifi/supplicant/1.2/BpHwSupplicantStaIface.h"
  },
  {
   "function_name" : "android::hardware::wifi::supplicant::V1_2::BpHwSupplicantStaIface::addDppPeerUri",
   "linker_set_key" : "_ZN7android8hardware4wifi10supplicant4V1_222BpHwSupplicantStaIface13addDppPeerUriERKNS0_11hidl_stringENSt3__18functionIFvRKNS2_4V1_016SupplicantStatusEjEEE",
   "parameters" :
   [
    {
     "is_this_ptr" : true,
     "referenced_type" : "type-187"
    },
    {
     "referenced_type" : "type-1057"
    },
    {
     "referenced_type" : "type-2011"
    }
   ],
   "return_type" : "type-799",
   "source_file" : "/out/soong/.intermediates/hardware/interfaces/wifi/supplicant/1.2/android.hardware.wifi.supplicant@1.2_genc++_headers/gen/android/hardware/wifi/supplicant/1.2/BpHwSupplicantStaIface.h"
  },
  {
   "function_name" : "android::hardware::wifi::supplicant::V1_2::BpHwSupplicantStaIface::getMacAddress",
   "linker_set_key" : "_ZN7android8hardware4wifi10supplicant4V1_222BpHwSupplicantStaIface13getMacAddressENSt3__18functionIFvRKNS2_4V1_016SupplicantStatusERKNS0_10hidl_arrayIhLj6EJEEEEEE",
   "parameters" :
   [
    {
     "is_this_ptr" : true,
     "referenced_type" : "type-187"
    },
    {
     "referenced_type" : "type-2012"
    }
   ],
   "return_type" : "type-799",
   "source_file" : "/out/soong/.intermediates/hardware/interfaces/wifi/supplicant/1.2/android.hardware.wifi.supplicant@1.2_genc++_headers/gen/android/hardware/wifi/supplicant/1.2/BpHwSupplicantStaIface.h"
  },
  {
   "function_name" : "android::hardware::wifi::supplicant::V1_2::BpHwSupplicantStaIface::removeNetwork",
   "linker_set_key" : "_ZN7android8hardware4wifi10supplicant4V1_222BpHwSupplicantStaIface13removeNetworkEjNSt3__18functionIFvRKNS2_4V1_016SupplicantStatusEEEE",
   "parameters" :
   [
    {
     "is_this_ptr" : true,
     "referenced_type" : "type-187"
    },
    {
     "referenced_type" : "type-2"
    },
    {
     "referenced_type" : "type-2013"
    }
   ],
   "return_type" : "type-799",
   "source_file" : "/out/soong/.intermediates/hardware/interfaces/wifi/supplicant/1.2/android.hardware.wifi.supplicant@1.2_genc++_headers/gen/android/hardware/wifi/supplicant/1.2/BpHwSupplicantStaIface.h"
  },
  {
   "function_name" : "android::hardware::wifi::supplicant::V1_2::BpHwSupplicantStaIface::startRxFilter",
   "linker_set_key" : "_ZN7android8hardware4wifi10supplicant4V1_222BpHwSupplicantStaIface13startRxFilterENSt3__18functionIFvRKNS2_4V1_016SupplicantStatusEEEE",
   "parameters" :
   [
    {
     "is_this_ptr" : true,
     "referenced_type" : "type-187"
    },
    {
     "referenced_type" : "type-2014"
    }
   ],
   "return_type" : "type-799",
   "source_file" : "/out/soong/.intermediates/hardware/interfaces/wifi/supplicant/1.2/android.hardware.wifi.supplicant@1.2_genc++_headers/gen/android/hardware/wifi/supplicant/1.2/BpHwSupplicantStaIface.h"
  },
  {
   "function_name" : "android::hardware::wifi::supplicant::V1_2::BpHwSupplicantStaIface::unlinkToDeath",
   "linker_set_key" : "_ZN7android8hardware4wifi10supplicant4V1_222BpHwSupplicantStaIface13unlinkToDeathERKNS_2spINS0_20hidl_death_recipientEEE",
   "parameters" :
   [
    {
     "is_this_ptr" : true,
     "referenced_type" : "type-187"
    },
    {
     "referenced_type" : "type-1074"
    }
   ],
   "return_type" : "type-692",
   "source_file" : "/out/soong/.intermediates/hardware/interfaces/wifi/supplicant/1.2/android.hardware.wifi.supplicant@1.2_genc++_headers/gen/android/hardware/wifi/supplicant/1.2/BpHwSupplicantStaIface.h"
  },
  {
   "function_name" : "android::hardware::wifi::supplicant::V1_2::BpHwSupplicantStaIface::interfaceChain",
   "linker_set_key" : "_ZN7android8hardware4wifi10supplicant4V1_222BpHwSupplicantStaIface14interfaceChainENSt3__18functionIFvRKNS0_8hidl_vecINS0_11hidl_stringEEEEEE",
   "parameters" :
   [
    {
     "is_this_ptr" : true,
     "referenced_type" : "type-187"
    },
    {
     "referenced_type" : "type-2015"
    }
   ],
   "return_type" : "type-799",
   "source_file" : "/out/soong/.intermediates/hardware/interfaces/wifi/supplicant/1.2/android.hardware.wifi.supplicant@1.2_genc++_headers/gen/android/hardware/wifi/supplicant/1.2/BpHwSupplicantStaIface.h"
  },
  {
   "function_name" : "android::hardware::wifi::supplicant::V1_2::BpHwSupplicantStaIface::removeRxFilter",
   "linker_set_key" : "_ZN7android8hardware4wifi10supplicant4V1_222BpHwSupplicantStaIface14removeRxFilterENS2_4V1_019ISupplicantStaIface12RxFilterTypeENSt3__18functionIFvRKNS5_16SupplicantStatusEEEE",
   "parameters" :
   [
    {
     "is_this_ptr" : true,
     "referenced_type" : "type-187"
    },
    {
     "referenced_type" : "type-463"
    },
    {
     "referenced_type" : "type-2016"
    }
   ],
   "return_type" : "type-799",
   "source_file" : "/out/soong/.intermediates/hardware/interfaces/wifi/supplicant/1.2/android.hardware.wifi.supplicant@1.2_genc++_headers/gen/android/hardware/wifi/supplicant/1.2/BpHwSupplicantStaIface.h"
  },
  {
   "function_name" : "android::hardware::wifi::supplicant::V1_2::BpHwSupplicantStaIface::setCountryCode",
   "linker_set_key" : "_ZN7android8hardware4wifi10supplicant4V1_222BpHwSupplicantStaIface14setCountryCodeERKNS0_10hidl_arrayIaLj2EJEEENSt3__18functionIFvRKNS2_4V1_016SupplicantStatusEEEE",
   "parameters" :
   [
    {
     "is_this_ptr" : true,
     "referenced_type" : "type-187"
    },
    {
     "referenced_type" : "type-666"
    },
    {
     "referenced_type" : "type-2017"
    }
   ],
   "return_type" : "type-799",
   "source_file" : "/out/soong/.intermediates/hardware/interfaces/wifi/supplicant/1.2/android.hardware.wifi.supplicant@1.2_genc++_headers/gen/android/hardware/wifi/supplicant/1.2/BpHwSupplicantStaIface.h"
  },
  {
   "function_name" : "android::hardware::wifi::supplicant::V1_2::BpHwSupplicantStaIface::setExternalSim",
   "linker_set_key" : "_ZN7android8hardware4wifi10supplicant4V1_222BpHwSupplicantStaIface14setExternalSimEbNSt3__18functionIFvRKNS2_4V1_016SupplicantStatusEEEE",
   "parameters" :
   [
    {
     "is_this_ptr" : true,
     "referenced_type" : "type-187"
    },
    {
     "referenced_type" : "type-65"
    },
    {
     "referenced_type" : "type-2018"
    }
   ],
   "return_type" : "type-799",
   "source_file" : "/out/soong/.intermediates/hardware/interfaces/wifi/supplicant/1.2/android.hardware.wifi.supplicant@1.2_genc++_headers/gen/android/hardware/wifi/supplicant/1.2/BpHwSupplicantStaIface.h"
  },
  {
   "function_name" : "android::hardware::wifi::supplicant::V1_2::BpHwSupplicantStaIface::addExtRadioWork",
   "linker_set_key" : "_ZN7android8hardware4wifi10supplicant4V1_222BpHwSupplicantStaIface15addExtRadioWorkERKNS0_11hidl_stringEjjNSt3__18functionIFvRKNS2_4V1_016SupplicantStatusEjEEE",
   "parameters" :
   [
    {
     "is_this_ptr" : true,
     "referenced_type" : "type-187"
    },
    {
     "referenced_type" : "type-1057"
    },
    {
     "referenced_type" : "type-2"
    },
    {
     "referenced_type" : "type-2"
    },
    {
     "referenced_type" : "type-2019"
    }
   ],
   "return_type" : "type-799",
   "source_file" : "/out/soong/.intermediates/hardware/interfaces/wifi/supplicant/1.2/android.hardware.wifi.supplicant@1.2_genc++_headers/gen/android/hardware/wifi/supplicant/1.2/BpHwSupplicantStaIface.h"
  },
  {
   "function_name" : "android::hardware::wifi::supplicant::V1_2::BpHwSupplicantStaIface::setWpsModelName",
   "linker_set_key" : "_ZN7android8hardware4wifi10supplicant4V1_222BpHwSupplicantStaIface15setWpsModelNameERKNS0_11hidl_stringENSt3__18functionIFvRKNS2_4V1_016SupplicantStatusEEEE",
   "parameters" :
   [
    {
     "is_this_ptr" : true,
     "referenced_type" : "type-187"
    },
    {
     "referenced_type" : "type-1057"
    },
    {
     "referenced_type" : "type-2020"
    }
   ],
   "return_type" : "type-799",
   "source_file" : "/out/soong/.intermediates/hardware/interfaces/wifi/supplicant/1.2/android.hardware.wifi.supplicant@1.2_genc++_headers/gen/android/hardware/wifi/supplicant/1.2/BpHwSupplicantStaIface.h"
  },
  {
   "function_name" : "android::hardware::wifi::supplicant::V1_2::BpHwSupplicantStaIface::registerCallback",
   "linker_set_key" : "_ZN7android8hardware4wifi10supplicant4V1_222BpHwSupplicantStaIface16registerCallbackERKNS_2spINS2_4V1_027ISupplicantStaIfaceCallbackEEENSt3__18functionIFvRKNS6_16SupplicantStatusEEEE",
   "parameters" :
   [
    {
     "is_this_ptr" : true,
     "referenced_type" : "type-187"
    },
    {
     "referenced_type" : "type-192"
    },
    {
     "referenced_type" : "type-2021"
    }
   ],
   "return_type" : "type-799",
   "source_file" : "/out/soong/.intermediates/hardware/interfaces/wifi/supplicant/1.2/android.hardware.wifi.supplicant@1.2_genc++_headers/gen/android/hardware/wifi/supplicant/1.2/BpHwSupplicantStaIface.h"
  },
  {
   "function_name" : "android::hardware::wifi::supplicant::V1_2::BpHwSupplicantStaIface::setWpsDeviceName",
   "linker_set_key" : "_ZN7android8hardware4wifi10supplicant4V1_222BpHwSupplicantStaIface16setWpsDeviceNameERKNS0_11hidl_stringENSt3__18functionIFvRKNS2_4V1_016SupplicantStatusEEEE",
   "parameters" :
   [
    {
     "is_this_ptr" : true,
     "referenced_type" : "type-187"
    },
    {
     "referenced_type" : "type-1057"
    },
    {
     "referenced_type" : "type-2022"
    }
   ],
   "return_type" : "type-799",
   "source_file" : "/out/soong/.intermediates/hardware/interfaces/wifi/supplicant/1.2/android.hardware.wifi.supplicant@1.2_genc++_headers/gen/android/hardware/wifi/supplicant/1.2/BpHwSupplicantStaIface.h"
  },
  {
   "function_name" : "android::hardware::wifi::supplicant::V1_2::BpHwSupplicantStaIface::setWpsDeviceType",
   "linker_set_key" : "_ZN7android8hardware4wifi10supplicant4V1_222BpHwSupplicantStaIface16setWpsDeviceTypeERKNS0_10hidl_arrayIhLj8EJEEENSt3__18functionIFvRKNS2_4V1_016SupplicantStatusEEEE",
   "parameters" :
   [
    {
     "is_this_ptr" : true,
     "referenced_type" : "type-187"
    },
    {
     "referenced_type" : "type-156"
    },
    {
     "referenced_type" : "type-2023"
    }
   ],
   "return_type" : "type-799",
   "source_file" : "/out/soong/.intermediates/hardware/interfaces/wifi/supplicant/1.2/android.hardware.wifi.supplicant@1.2_genc++_headers/gen/android/hardware/wifi/supplicant/1.2/BpHwSupplicantStaIface.h"
  },
  {
   "function_name" : "android::hardware::wifi::supplicant::V1_2::BpHwSupplicantStaIface::stopDppInitiator",
   "linker_set_key" : "_ZN7android8hardware4wifi10supplicant4V1_222BpHwSupplicantStaIface16stopDppInitiatorENSt3__18functionIFvRKNS2_4V1_016SupplicantStatusEEEE",
   "parameters" :
   [
    {
     "is_this_ptr" : true,
     "referenced_type" : "type-187"
    },
    {
     "referenced_type" : "type-2024"
    }
   ],
   "return_type" : "type-799",
   "source_file" : "/out/soong/.intermediates/hardware/interfaces/wifi/supplicant/1.2/android.hardware.wifi.supplicant@1.2_genc++_headers/gen/android/hardware/wifi/supplicant/1.2/BpHwSupplicantStaIface.h"
  },
  {
   "function_name" : "android::hardware::wifi::supplicant::V1_2::BpHwSupplicantStaIface::initiateAnqpQuery",
   "linker_set_key" : "_ZN7android8hardware4wifi10supplicant4V1_222BpHwSupplicantStaIface17initiateAnqpQueryERKNS0_10hidl_arrayIhLj6EJEEERKNS0_8hidl_vecINS2_4V1_019ISupplicantStaIface10AnqpInfoIdEEERKNS9_INSB_16Hs20AnqpSubtypesEEENSt3__18functionIFvRKNSA_16SupplicantStatusEEEE",
   "parameters" :
   [
    {
     "is_this_ptr" : true,
     "referenced_type" : "type-187"
    },
    {
     "referenced_type" : "type-149"
    },
    {
     "referenced_type" : "type-661"
    },
    {
     "referenced_type" : "type-663"
    },
    {
     "referenced_type" : "type-2025"
    }
   ],
   "return_type" : "type-799",
   "source_file" : "/out/soong/.intermediates/hardware/interfaces/wifi/supplicant/1.2/android.hardware.wifi.supplicant@1.2_genc++_headers/gen/android/hardware/wifi/supplicant/1.2/BpHwSupplicantStaIface.h"
  },
  {
   "function_name" : "android::hardware::wifi::supplicant::V1_2::BpHwSupplicantStaIface::initiateTdlsSetup",
   "linker_set_key" : "_ZN7android8hardware4wifi10supplicant4V1_222BpHwSupplicantStaIface17initiateTdlsSetupERKNS0_10hidl_arrayIhLj6EJEEENSt3__18functionIFvRKNS2_4V1_016SupplicantStatusEEEE",
   "parameters" :
   [
    {
     "is_this_ptr" : true,
     "referenced_type" : "type-187"
    },
    {
     "referenced_type" : "type-149"
    },
    {
     "referenced_type" : "type-2026"
    }
   ],
   "return_type" : "type-799",
   "source_file" : "/out/soong/.intermediates/hardware/interfaces/wifi/supplicant/1.2/android.hardware.wifi.supplicant@1.2_genc++_headers/gen/android/hardware/wifi/supplicant/1.2/BpHwSupplicantStaIface.h"
  },
  {
   "function_name" : "android::hardware::wifi::supplicant::V1_2::BpHwSupplicantStaIface::setWpsModelNumber",
   "linker_set_key" : "_ZN7android8hardware4wifi10supplicant4V1_222BpHwSupplicantStaIface17setWpsModelNumberERKNS0_11hidl_stringENSt3__18functionIFvRKNS2_4V1_016SupplicantStatusEEEE",
   "parameters" :
   [
    {
     "is_this_ptr" : true,
     "referenced_type" : "type-187"
    },
    {
     "referenced_type" : "type-1057"
    },
    {
     "referenced_type" : "type-2027"
    }
   ],
   "return_type" : "type-799",
   "source_file" : "/out/soong/.intermediates/hardware/interfaces/wifi/supplicant/1.2/android.hardware.wifi.supplicant@1.2_genc++_headers/gen/android/hardware/wifi/supplicant/1.2/BpHwSupplicantStaIface.h"
  },
  {
   "function_name" : "android::hardware::wifi::supplicant::V1_2::BpHwSupplicantStaIface::startWpsPinKeypad",
   "linker_set_key" : "_ZN7android8hardware4wifi10supplicant4V1_222BpHwSupplicantStaIface17startWpsPinKeypadERKNS0_11hidl_stringENSt3__18functionIFvRKNS2_4V1_016SupplicantStatusEEEE",
   "parameters" :
   [
    {
     "is_this_ptr" : true,
     "referenced_type" : "type-187"
    },
    {
     "referenced_type" : "type-1057"
    },
    {
     "referenced_type" : "type-2028"
    }
   ],
   "return_type" : "type-799",
   "source_file" : "/out/soong/.intermediates/hardware/interfaces/wifi/supplicant/1.2/android.hardware.wifi.supplicant@1.2_genc++_headers/gen/android/hardware/wifi/supplicant/1.2/BpHwSupplicantStaIface.h"
  },
  {
   "function_name" : "android::hardware::wifi::supplicant::V1_2::BpHwSupplicantStaIface::startWpsRegistrar",
   "linker_set_key" : "_ZN7android8hardware4wifi10supplicant4V1_222BpHwSupplicantStaIface17startWpsRegistrarERKNS0_10hidl_arrayIhLj6EJEEERKNS0_11hidl_stringENSt3__18functionIFvRKNS2_4V1_016SupplicantStatusEEEE",
   "parameters" :
   [
    {
     "is_this_ptr" : true,
     "referenced_type" : "type-187"
    },
    {
     "referenced_type" : "type-149"
    },
    {
     "referenced_type" : "type-1057"
    },
    {
     "referenced_type" : "type-2029"
    }
   ],
   "return_type" : "type-799",
   "source_file" : "/out/soong/.intermediates/hardware/interfaces/wifi/supplicant/1.2/android.hardware.wifi.supplicant@1.2_genc++_headers/gen/android/hardware/wifi/supplicant/1.2/BpHwSupplicantStaIface.h"
  },
  {
   "function_name" : "android::hardware::wifi::supplicant::V1_2::BpHwSupplicantStaIface::_hidl_removeDppUri",
   "linker_set_key" : "_ZN7android8hardware4wifi10supplicant4V1_222BpHwSupplicantStaIface18_hidl_removeDppUriEPNS0_10IInterfaceEPNS0_7details16HidlInstrumentorEjNSt3__18functionIFvRKNS2_4V1_016SupplicantStatusEEEE",
   "parameters" :
   [
    {
     "referenced_type" : "type-1708"
    },
    {
     "referenced_type" : "type-1686"
    },
    {
     "referenced_type" : "type-2"
    },
    {
     "referenced_type" : "type-2030"
    }
   ],
   "return_type" : "type-799",
   "source_file" : "/out/soong/.intermediates/hardware/interfaces/wifi/supplicant/1.2/android.hardware.wifi.supplicant@1.2_genc++_headers/gen/android/hardware/wifi/supplicant/1.2/BpHwSupplicantStaIface.h"
  },
  {
   "function_name" : "android::hardware::wifi::supplicant::V1_2::BpHwSupplicantStaIface::removeExtRadioWork",
   "linker_set_key" : "_ZN7android8hardware4wifi10supplicant4V1_222BpHwSupplicantStaIface18removeExtRadioWorkEjNSt3__18functionIFvRKNS2_4V1_016SupplicantStatusEEEE",
   "parameters" :
   [
    {
     "is_this_ptr" : true,
     "referenced_type" : "type-187"
    },
    {
     "referenced_type" : "type-2"
    },
    {
     "referenced_type" : "type-2031"
    }
   ],
   "return_type" : "type-799",
   "source_file" : "/out/soong/.intermediates/hardware/interfaces/wifi/supplicant/1.2/android.hardware.wifi.supplicant@1.2_genc++_headers/gen/android/hardware/wifi/supplicant/1.2/BpHwSupplicantStaIface.h"
  },
  {
   "function_name" : "android::hardware::wifi::supplicant::V1_2::BpHwSupplicantStaIface::setWpsManufacturer",
   "linker_set_key" : "_ZN7android8hardware4wifi10supplicant4V1_222BpHwSupplicantStaIface18setWpsManufacturerERKNS0_11hidl_stringENSt3__18functionIFvRKNS2_4V1_016SupplicantStatusEEEE",
   "parameters" :
   [
    {
     "is_this_ptr" : true,
     "referenced_type" : "type-187"
    },
    {
     "referenced_type" : "type-1057"
    },
    {
     "referenced_type" : "type-2032"
    }
   ],
   "return_type" : "type-799",
   "source_file" : "/out/soong/.intermediates/hardware/interfaces/wifi/supplicant/1.2/android.hardware.wifi.supplicant@1.2_genc++_headers/gen/android/hardware/wifi/supplicant/1.2/BpHwSupplicantStaIface.h"
  },
  {
   "function_name" : "android::hardware::wifi::supplicant::V1_2::BpHwSupplicantStaIface::setWpsSerialNumber",
   "linker_set_key" : "_ZN7android8hardware4wifi10supplicant4V1_222BpHwSupplicantStaIface18setWpsSerialNumberERKNS0_11hidl_stringENSt3__18functionIFvRKNS2_4V1_016SupplicantStatusEEEE",
   "parameters" :
   [
    {
     "is_this_ptr" : true,
     "referenced_type" : "type-187"
    },
    {
     "referenced_type" : "type-1057"
    },
    {
     "referenced_type" : "type-2033"
    }
   ],
   "return_type" : "type-799",
   "source_file" : "/out/soong/.intermediates/hardware/interfaces/wifi/supplicant/1.2/android.hardware.wifi.supplicant@1.2_genc++_headers/gen/android/hardware/wifi/supplicant/1.2/BpHwSupplicantStaIface.h"
  },
  {
   "function_name" : "android::hardware::wifi::supplicant::V1_2::BpHwSupplicantStaIface::startWpsPinDisplay",
   "linker_set_key" : "_ZN7android8hardware4wifi10supplicant4V1_222BpHwSupplicantStaIface18startWpsPinDisplayERKNS0_10hidl_arrayIhLj6EJEEENSt3__18functionIFvRKNS2_4V1_016SupplicantStatusERKNS0_11hidl_stringEEEE",
   "parameters" :
   [
    {
     "is_this_ptr" : true,
     "referenced_type" : "type-187"
    },
    {
     "referenced_type" : "type-149"
    },
    {
     "referenced_type" : "type-2034"
    }
   ],
   "return_type" : "type-799",
   "source_file" : "/out/soong/.intermediates/hardware/interfaces/wifi/supplicant/1.2/android.hardware.wifi.supplicant@1.2_genc++_headers/gen/android/hardware/wifi/supplicant/1.2/BpHwSupplicantStaIface.h"
  },
  {
   "function_name" : "android::hardware::wifi::supplicant::V1_2::BpHwSupplicantStaIface::_hidl_addDppPeerUri",
   "linker_set_key" : "_ZN7android8hardware4wifi10supplicant4V1_222BpHwSupplicantStaIface19_hidl_addDppPeerUriEPNS0_10IInterfaceEPNS0_7details16HidlInstrumentorERKNS0_11hidl_stringENSt3__18functionIFvRKNS2_4V1_016SupplicantStatusEjEEE",
   "parameters" :
   [
    {
     "referenced_type" : "type-1708"
    },
    {
     "referenced_type" : "type-1686"
    },
    {
     "referenced_type" : "type-1057"
    },
    {
     "referenced_type" : "type-2035"
    }
   ],
   "return_type" : "type-799",
   "source_file" : "/out/soong/.intermediates/hardware/interfaces/wifi/supplicant/1.2/android.hardware.wifi.supplicant@1.2_genc++_headers/gen/android/hardware/wifi/supplicant/1.2/BpHwSupplicantStaIface.h"
  },
  {
   "function_name" : "android::hardware::wifi::supplicant::V1_2::BpHwSupplicantStaIface::enableAutoReconnect",
   "linker_set_key" : "_ZN7android8hardware4wifi10supplicant4V1_222BpHwSupplicantStaIface19enableAutoReconnectEbNSt3__18functionIFvRKNS2_4V1_016SupplicantStatusEEEE",
   "parameters" :
   [
    {
     "is_this_ptr" : true,
     "referenced_type" : "type-187"
    },
    {
     "referenced_type" : "type-65"
    },
    {
     "referenced_type" : "type-2036"
    }
   ],
   "return_type" : "type-799",
   "source_file" : "/out/soong/.intermediates/hardware/interfaces/wifi/supplicant/1.2/android.hardware.wifi.supplicant@1.2_genc++_headers/gen/android/hardware/wifi/supplicant/1.2/BpHwSupplicantStaIface.h"
  },
  {
   "function_name" : "android::hardware::wifi::supplicant::V1_2::BpHwSupplicantStaIface::interfaceDescriptor",
   "linker_set_key" : "_ZN7android8hardware4wifi10supplicant4V1_222BpHwSupplicantStaIface19interfaceDescriptorENSt3__18functionIFvRKNS0_11hidl_stringEEEE",
   "parameters" :
   [
    {
     "is_this_ptr" : true,
     "referenced_type" : "type-187"
    },
    {
     "referenced_type" : "type-2037"
    }
   ],
   "return_type" : "type-799",
   "source_file" : "/out/soong/.intermediates/hardware/interfaces/wifi/supplicant/1.2/android.hardware.wifi.supplicant@1.2_genc++_headers/gen/android/hardware/wifi/supplicant/1.2/BpHwSupplicantStaIface.h"
  },
  {
   "function_name" : "android::hardware::wifi::supplicant::V1_2::BpHwSupplicantStaIface::setWpsConfigMethods",
   "linker_set_key" : "_ZN7android8hardware4wifi10supplicant4V1_222BpHwSupplicantStaIface19setWpsConfigMethodsEtNSt3__18functionIFvRKNS2_4V1_016SupplicantStatusEEEE",
   "parameters" :
   [
    {
     "is_this_ptr" : true,
     "referenced_type" : "type-187"
    },
    {
     "referenced_type" : "type-44"
    },
    {
     "referenced_type" : "type-2038"
    }
   ],
   "return_type" : "type-799",
   "source_file" : "/out/soong/.intermediates/hardware/interfaces/wifi/supplicant/1.2/android.hardware.wifi.supplicant@1.2_genc++_headers/gen/android/hardware/wifi/supplicant/1.2/BpHwSupplicantStaIface.h"
  },
  {
   "function_name" : "android::hardware::wifi::supplicant::V1_2::BpHwSupplicantStaIface::initiateTdlsDiscover",
   "linker_set_key" : "_ZN7android8hardware4wifi10supplicant4V1_222BpHwSupplicantStaIface20initiateTdlsDiscoverERKNS0_10hidl_arrayIhLj6EJEEENSt3__18functionIFvRKNS2_4V1_016SupplicantStatusEEEE",
   "parameters" :
   [
    {
     "is_this_ptr" : true,
     "referenced_type" : "type-187"
    },
    {
     "referenced_type" : "type-149"
    },
    {
     "referenced_type" : "type-2039"
    }
   ],
   "return_type" : "type-799",
   "source_file" : "/out/soong/.intermediates/hardware/interfaces/wifi/supplicant/1.2/android.hardware.wifi.supplicant@1.2_genc++_headers/gen/android/hardware/wifi/supplicant/1.2/BpHwSupplicantStaIface.h"
  },
  {
   "function_name" : "android::hardware::wifi::supplicant::V1_2::BpHwSupplicantStaIface::initiateTdlsTeardown",
   "linker_set_key" : "_ZN7android8hardware4wifi10supplicant4V1_222BpHwSupplicantStaIface20initiateTdlsTeardownERKNS0_10hidl_arrayIhLj6EJEEENSt3__18functionIFvRKNS2_4V1_016SupplicantStatusEEEE",
   "parameters" :
   [
    {
     "is_this_ptr" : true,
     "referenced_type" : "type-187"
    },
    {
     "referenced_type" : "type-149"
    },
    {
     "referenced_type" : "type-2040"
    }
   ],
   "return_type" : "type-799",
   "source_file" : "/out/soong/.intermediates/hardware/interfaces/wifi/supplicant/1.2/android.hardware.wifi.supplicant@1.2_genc++_headers/gen/android/hardware/wifi/supplicant/1.2/BpHwSupplicantStaIface.h"
  },
  {
   "function_name" : "android::hardware::wifi::supplicant::V1_2::BpHwSupplicantStaIface::registerCallback_1_1",
   "linker_set_key" : "_ZN7android8hardware4wifi10supplicant4V1_222BpHwSupplicantStaIface20registerCallback_1_1ERKNS_2spINS2_4V1_127ISupplicantStaIfaceCallbackEEENSt3__18functionIFvRKNS2_4V1_016SupplicantStatusEEEE",
   "parameters" :
   [
    {
     "is_this_ptr" : true,
     "referenced_type" : "type-187"
    },
    {
     "referenced_type" : "type-197"
    },
    {
     "referenced_type" : "type-2041"
    }
   ],
   "return_type" : "type-799",
   "source_file" : "/out/soong/.intermediates/hardware/interfaces/wifi/supplicant/1.2/android.hardware.wifi.supplicant@1.2_genc++_headers/gen/android/hardware/wifi/supplicant/1.2/BpHwSupplicantStaIface.h"
  },
  {
   "function_name" : "android::hardware::wifi::supplicant::V1_2::BpHwSupplicantStaIface::registerCallback_1_2",
   "linker_set_key" : "_ZN7android8hardware4wifi10supplicant4V1_222BpHwSupplicantStaIface20registerCallback_1_2ERKNS_2spINS3_27ISupplicantStaIfaceCallbackEEENSt3__18functionIFvRKNS2_4V1_016SupplicantStatusEEEE",
   "parameters" :
   [
    {
     "is_this_ptr" : true,
     "referenced_type" : "type-187"
    },
    {
     "referenced_type" : "type-202"
    },
    {
     "referenced_type" : "type-2042"
    }
   ],
   "return_type" : "type-799",
   "source_file" : "/out/soong/.intermediates/hardware/interfaces/wifi/supplicant/1.2/android.hardware.wifi.supplicant@1.2_genc++_headers/gen/android/hardware/wifi/supplicant/1.2/BpHwSupplicantStaIface.h"
  },
  {
   "function_name" : "android::hardware::wifi::supplicant::V1_2::BpHwSupplicantStaIface::setBtCoexistenceMode",
   "linker_set_key" : "_ZN7android8hardware4wifi10supplicant4V1_222BpHwSupplicantStaIface20setBtCoexistenceModeENS2_4V1_019ISupplicantStaIface17BtCoexistenceModeENSt3__18functionIFvRKNS5_16SupplicantStatusEEEE",
   "parameters" :
   [
    {
     "is_this_ptr" : true,
     "referenced_type" : "type-187"
    },
    {
     "referenced_type" : "type-464"
    },
    {
     "referenced_type" : "type-2043"
    }
   ],
   "return_type" : "type-799",
   "source_file" : "/out/soong/.intermediates/hardware/interfaces/wifi/supplicant/1.2/android.hardware.wifi.supplicant@1.2_genc++_headers/gen/android/hardware/wifi/supplicant/1.2/BpHwSupplicantStaIface.h"
  },
  {
   "function_name" : "android::hardware::wifi::supplicant::V1_2::BpHwSupplicantStaIface::initiateHs20IconQuery",
   "linker_set_key" : "_ZN7android8hardware4wifi10supplicant4V1_222BpHwSupplicantStaIface21initiateHs20IconQueryERKNS0_10hidl_arrayIhLj6EJEEERKNS0_11hidl_stringENSt3__18functionIFvRKNS2_4V1_016SupplicantStatusEEEE",
   "parameters" :
   [
    {
     "is_this_ptr" : true,
     "referenced_type" : "type-187"
    },
    {
     "referenced_type" : "type-149"
    },
    {
     "referenced_type" : "type-1057"
    },
    {
     "referenced_type" : "type-2044"
    }
   ],
   "return_type" : "type-799",
   "source_file" : "/out/soong/.intermediates/hardware/interfaces/wifi/supplicant/1.2/android.hardware.wifi.supplicant@1.2_genc++_headers/gen/android/hardware/wifi/supplicant/1.2/BpHwSupplicantStaIface.h"
  },
  {
   "function_name" : "android::hardware::wifi::supplicant::V1_2::BpHwSupplicantStaIface::notifySyspropsChanged",
   "linker_set_key" : "_ZN7android8hardware4wifi10supplicant4V1_222BpHwSupplicantStaIface21notifySyspropsChangedEv",
   "parameters" :
   [
    {
     "is_this_ptr" : true,
     "referenced_type" : "type-187"
    }
   ],
   "return_type" : "type-799",
   "source_file" : "/out/soong/.intermediates/hardware/interfaces/wifi/supplicant/1.2/android.hardware.wifi.supplicant@1.2_genc++_headers/gen/android/hardware/wifi/supplicant/1.2/BpHwSupplicantStaIface.h"
  },
  {
   "function_name" : "android::hardware::wifi::supplicant::V1_2::BpHwSupplicantStaIface::setHALInstrumentation",
   "linker_set_key" : "_ZN7android8hardware4wifi10supplicant4V1_222BpHwSupplicantStaIface21setHALInstrumentationEv",
   "parameters" :
   [
    {
     "is_this_ptr" : true,
     "referenced_type" : "type-187"
    }
   ],
   "return_type" : "type-799",
   "source_file" : "/out/soong/.intermediates/hardware/interfaces/wifi/supplicant/1.2/android.hardware.wifi.supplicant@1.2_genc++_headers/gen/android/hardware/wifi/supplicant/1.2/BpHwSupplicantStaIface.h"
  },
  {
   "function_name" : "android::hardware::wifi::supplicant::V1_2::BpHwSupplicantStaIface::setSuspendModeEnabled",
   "linker_set_key" : "_ZN7android8hardware4wifi10supplicant4V1_222BpHwSupplicantStaIface21setSuspendModeEnabledEbNSt3__18functionIFvRKNS2_4V1_016SupplicantStatusEEEE",
   "parameters" :
   [
    {
     "is_this_ptr" : true,
     "referenced_type" : "type-187"
    },
    {
     "referenced_type" : "type-65"
    },
    {
     "referenced_type" : "type-2045"
    }
   ],
   "return_type" : "type-799",
   "source_file" : "/out/soong/.intermediates/hardware/interfaces/wifi/supplicant/1.2/android.hardware.wifi.supplicant@1.2_genc++_headers/gen/android/hardware/wifi/supplicant/1.2/BpHwSupplicantStaIface.h"
  },
  {
   "function_name" : "android::hardware::wifi::supplicant::V1_2::BpHwSupplicantStaIface::_hidl_stopDppInitiator",
   "linker_set_key" : "_ZN7android8hardware4wifi10supplicant4V1_222BpHwSupplicantStaIface22_hidl_stopDppInitiatorEPNS0_10IInterfaceEPNS0_7details16HidlInstrumentorENSt3__18functionIFvRKNS2_4V1_016SupplicantStatusEEEE",
   "parameters" :
   [
    {
     "referenced_type" : "type-1708"
    },
    {
     "referenced_type" : "type-1686"
    },
    {
     "referenced_type" : "type-2046"
    }
   ],
   "return_type" : "type-799",
   "source_file" : "/out/soong/.intermediates/hardware/interfaces/wifi/supplicant/1.2/android.hardware.wifi.supplicant@1.2_genc++_headers/gen/android/hardware/wifi/supplicant/1.2/BpHwSupplicantStaIface.h"
  },
  {
   "function_name" : "android::hardware::wifi::supplicant::V1_2::BpHwSupplicantStaIface::getKeyMgmtCapabilities",
   "linker_set_key" : "_ZN7android8hardware4wifi10supplicant4V1_222BpHwSupplicantStaIface22getKeyMgmtCapabilitiesENSt3__18functionIFvRKNS2_4V1_016SupplicantStatusEjEEE",
   "parameters" :
   [
    {
     "is_this_ptr" : true,
     "referenced_type" : "type-187"
    },
    {
     "referenced_type" : "type-2047"
    }
   ],
   "return_type" : "type-799",
   "source_file" : "/out/soong/.intermediates/hardware/interfaces/wifi/supplicant/1.2/android.hardware.wifi.supplicant@1.2_genc++_headers/gen/android/hardware/wifi/supplicant/1.2/BpHwSupplicantStaIface.h"
  },
  {
   "function_name" : "android::hardware::wifi::supplicant::V1_2::BpHwSupplicantStaIface::startDppEnrolleeInitiator",
   "linker_set_key" : "_ZN7android8hardware4wifi10supplicant4V1_222BpHwSupplicantStaIface25startDppEnrolleeInitiatorEjjNSt3__18functionIFvRKNS2_4V1_016SupplicantStatusEEEE",
   "parameters" :
   [
    {
     "is_this_ptr" : true,
     "referenced_type" : "type-187"
    },
    {
     "referenced_type" : "type-2"
    },
    {
     "referenced_type" : "type-2"
    },
    {
     "referenced_type" : "type-2048"
    }
   ],
   "return_type" : "type-799",
   "source_file" : "/out/soong/.intermediates/hardware/interfaces/wifi/supplicant/1.2/android.hardware.wifi.supplicant@1.2_genc++_headers/gen/android/hardware/wifi/supplicant/1.2/BpHwSupplicantStaIface.h"
  },
  {
   "function_name" : "android::hardware::wifi::supplicant::V1_2::BpHwSupplicantStaIface::_hidl_registerCallback_1_2",
   "linker_set_key" : "_ZN7android8hardware4wifi10supplicant4V1_222BpHwSupplicantStaIface26_hidl_registerCallback_1_2EPNS0_10IInterfaceEPNS0_7details16HidlInstrumentorERKNS_2spINS3_27ISupplicantStaIfaceCallbackEEENSt3__18functionIFvRKNS2_4V1_016SupplicantStatusEEEE",
   "parameters" :
   [
    {
     "referenced_type" : "type-1708"
    },
    {
     "referenced_type" : "type-1686"
    },
    {
     "referenced_type" : "type-202"
    },
    {
     "referenced_type" : "type-2049"
    }
   ],
   "return_type" : "type-799",
   "source_file" : "/out/soong/.intermediates/hardware/interfaces/wifi/supplicant/1.2/android.hardware.wifi.supplicant@1.2_genc++_headers/gen/android/hardware/wifi/supplicant/1.2/BpHwSupplicantStaIface.h"
  },
  {
   "function_name" : "android::hardware::wifi::supplicant::V1_2::BpHwSupplicantStaIface::_hidl_getKeyMgmtCapabilities",
   "linker_set_key" : "_ZN7android8hardware4wifi10supplicant4V1_222BpHwSupplicantStaIface28_hidl_getKeyMgmtCapabilitiesEPNS0_10IInterfaceEPNS0_7details16HidlInstrumentorENSt3__18functionIFvRKNS2_4V1_016SupplicantStatusEjEEE",
   "parameters" :
   [
    {
     "referenced_type" : "type-1708"
    },
    {
     "referenced_type" : "type-1686"
    },
    {
     "referenced_type" : "type-2050"
    }
   ],
   "return_type" : "type-799",
   "source_file" : "/out/soong/.intermediates/hardware/interfaces/wifi/supplicant/1.2/android.hardware.wifi.supplicant@1.2_genc++_headers/gen/android/hardware/wifi/supplicant/1.2/BpHwSupplicantStaIface.h"
  },
  {
   "function_name" : "android::hardware::wifi::supplicant::V1_2::BpHwSupplicantStaIface::startDppConfiguratorInitiator",
   "linker_set_key" : "_ZN7android8hardware4wifi10supplicant4V1_222BpHwSupplicantStaIface29startDppConfiguratorInitiatorEjjRKNS0_11hidl_stringES7_S7_NS3_10DppNetRoleENS3_6DppAkmENSt3__18functionIFvRKNS2_4V1_016SupplicantStatusEEEE",
   "parameters" :
   [
    {
     "is_this_ptr" : true,
     "referenced_type" : "type-187"
    },
    {
     "referenced_type" : "type-2"
    },
    {
     "referenced_type" : "type-2"
    },
    {
     "referenced_type" : "type-1057"
    },
    {
     "referenced_type" : "type-1057"
    },
    {
     "referenced_type" : "type-1057"
    },
    {
     "referenced_type" : "type-495"
    },
    {
     "referenced_type" : "type-494"
    },
    {
     "referenced_type" : "type-2051"
    }
   ],
   "return_type" : "type-799",
   "source_file" : "/out/soong/.intermediates/hardware/interfaces/wifi/supplicant/1.2/android.hardware.wifi.supplicant@1.2_genc++_headers/gen/android/hardware/wifi/supplicant/1.2/BpHwSupplicantStaIface.h"
  },
  {
   "function_name" : "android::hardware::wifi::supplicant::V1_2::BpHwSupplicantStaIface::_hidl_startDppEnrolleeInitiator",
   "linker_set_key" : "_ZN7android8hardware4wifi10supplicant4V1_222BpHwSupplicantStaIface31_hidl_startDppEnrolleeInitiatorEPNS0_10IInterfaceEPNS0_7details16HidlInstrumentorEjjNSt3__18functionIFvRKNS2_4V1_016SupplicantStatusEEEE",
   "parameters" :
   [
    {
     "referenced_type" : "type-1708"
    },
    {
     "referenced_type" : "type-1686"
    },
    {
     "referenced_type" : "type-2"
    },
    {
     "referenced_type" : "type-2"
    },
    {
     "referenced_type" : "type-2052"
    }
   ],
   "return_type" : "type-799",
   "source_file" : "/out/soong/.intermediates/hardware/interfaces/wifi/supplicant/1.2/android.hardware.wifi.supplicant@1.2_genc++_headers/gen/android/hardware/wifi/supplicant/1.2/BpHwSupplicantStaIface.h"
  },
  {
   "function_name" : "android::hardware::wifi::supplicant::V1_2::BpHwSupplicantStaIface::setBtCoexistenceScanModeEnabled",
   "linker_set_key" : "_ZN7android8hardware4wifi10supplicant4V1_222BpHwSupplicantStaIface31setBtCoexistenceScanModeEnabledEbNSt3__18functionIFvRKNS2_4V1_016SupplicantStatusEEEE",
   "parameters" :
   [
    {
     "is_this_ptr" : true,
     "referenced_type" : "type-187"
    },
    {
     "referenced_type" : "type-65"
    },
    {
     "referenced_type" : "type-2053"
    }
   ],
   "return_type" : "type-799",
   "source_file" : "/out/soong/.intermediates/hardware/interfaces/wifi/supplicant/1.2/android.hardware.wifi.supplicant@1.2_genc++_headers/gen/android/hardware/wifi/supplicant/1.2/BpHwSupplicantStaIface.h"
  },
  {
   "function_name" : "android::hardware::wifi::supplicant::V1_2::BpHwSupplicantStaIface::_hidl_startDppConfiguratorInitiator",
   "linker_set_key" : "_ZN7android8hardware4wifi10supplicant4V1_222BpHwSupplicantStaIface35_hidl_startDppConfiguratorInitiatorEPNS0_10IInterfaceEPNS0_7details16HidlInstrumentorEjjRKNS0_11hidl_stringESC_SC_NS3_10DppNetRoleENS3_6DppAkmENSt3__18functionIFvRKNS2_4V1_016SupplicantStatusEEEE",
   "parameters" :
   [
    {
     "referenced_type" : "type-1708"
    },
    {
     "referenced_type" : "type-1686"
    },
    {
     "referenced_type" : "type-2"
    },
    {
     "referenced_type" : "type-2"
    },
    {
     "referenced_type" : "type-1057"
    },
    {
     "referenced_type" : "type-1057"
    },
    {
     "referenced_type" : "type-1057"
    },
    {
     "referenced_type" : "type-495"
    },
    {
     "referenced_type" : "type-494"
    },
    {
     "referenced_type" : "type-2054"
    }
   ],
   "return_type" : "type-799",
   "source_file" : "/out/soong/.intermediates/hardware/interfaces/wifi/supplicant/1.2/android.hardware.wifi.supplicant@1.2_genc++_headers/gen/android/hardware/wifi/supplicant/1.2/BpHwSupplicantStaIface.h"
  },
  {
   "function_name" : "android::hardware::wifi::supplicant::V1_2::BpHwSupplicantStaIface::ping",
   "linker_set_key" : "_ZN7android8hardware4wifi10supplicant4V1_222BpHwSupplicantStaIface4pingEv",
   "parameters" :
   [
    {
     "is_this_ptr" : true,
     "referenced_type" : "type-187"
    }
   ],
   "return_type" : "type-799",
   "source_file" : "/out/soong/.intermediates/hardware/interfaces/wifi/supplicant/1.2/android.hardware.wifi.supplicant@1.2_genc++_headers/gen/android/hardware/wifi/supplicant/1.2/BpHwSupplicantStaIface.h"
  },
  {
   "function_name" : "android::hardware::wifi::supplicant::V1_2::BpHwSupplicantStaIface::debug",
   "linker_set_key" : "_ZN7android8hardware4wifi10supplicant4V1_222BpHwSupplicantStaIface5debugERKNS0_11hidl_handleERKNS0_8hidl_vecINS0_11hidl_stringEEE",
   "parameters" :
   [
    {
     "is_this_ptr" : true,
     "referenced_type" : "type-187"
    },
    {
     "referenced_type" : "type-1187"
    },
    {
     "referenced_type" : "type-1617"
    }
   ],
   "return_type" : "type-799",
   "source_file" : "/out/soong/.intermediates/hardware/interfaces/wifi/supplicant/1.2/android.hardware.wifi.supplicant@1.2_genc++_headers/gen/android/hardware/wifi/supplicant/1.2/BpHwSupplicantStaIface.h"
  },
  {
   "function_name" : "android::hardware::wifi::supplicant::V1_2::BpHwSupplicantStaIface::getName",
   "linker_set_key" : "_ZN7android8hardware4wifi10supplicant4V1_222BpHwSupplicantStaIface7getNameENSt3__18functionIFvRKNS2_4V1_016SupplicantStatusERKNS0_11hidl_stringEEEE",
   "parameters" :
   [
    {
     "is_this_ptr" : true,
     "referenced_type" : "type-187"
    },
    {
     "referenced_type" : "type-2055"
    }
   ],
   "return_type" : "type-799",
   "source_file" : "/out/soong/.intermediates/hardware/interfaces/wifi/supplicant/1.2/android.hardware.wifi.supplicant@1.2_genc++_headers/gen/android/hardware/wifi/supplicant/1.2/BpHwSupplicantStaIface.h"
  },
  {
   "function_name" : "android::hardware::wifi::supplicant::V1_2::BpHwSupplicantStaIface::getType",
   "linker_set_key" : "_ZN7android8hardware4wifi10supplicant4V1_222BpHwSupplicantStaIface7getTypeENSt3__18functionIFvRKNS2_4V1_016SupplicantStatusENS7_9IfaceTypeEEEE",
   "parameters" :
   [
    {
     "is_this_ptr" : true,
     "referenced_type" : "type-187"
    },
    {
     "referenced_type" : "type-2056"
    }
   ],
   "return_type" : "type-799",
   "source_file" : "/out/soong/.intermediates/hardware/interfaces/wifi/supplicant/1.2/android.hardware.wifi.supplicant@1.2_genc++_headers/gen/android/hardware/wifi/supplicant/1.2/BpHwSupplicantStaIface.h"
  },
  {
   "function_name" : "android::hardware::wifi::supplicant::V1_2::BpHwSupplicantStaIface::cancelWps",
   "linker_set_key" : "_ZN7android8hardware4wifi10supplicant4V1_222BpHwSupplicantStaIface9cancelWpsENSt3__18functionIFvRKNS2_4V1_016SupplicantStatusEEEE",
   "parameters" :
   [
    {
     "is_this_ptr" : true,
     "referenced_type" : "type-187"
    },
    {
     "referenced_type" : "type-2057"
    }
   ],
   "return_type" : "type-799",
   "source_file" : "/out/soong/.intermediates/hardware/interfaces/wifi/supplicant/1.2/android.hardware.wifi.supplicant@1.2_genc++_headers/gen/android/hardware/wifi/supplicant/1.2/BpHwSupplicantStaIface.h"
  },
  {
   "function_name" : "android::hardware::wifi::supplicant::V1_2::BpHwSupplicantStaIface::reconnect",
   "linker_set_key" : "_ZN7android8hardware4wifi10supplicant4V1_222BpHwSupplicantStaIface9reconnectENSt3__18functionIFvRKNS2_4V1_016SupplicantStatusEEEE",
   "parameters" :
   [
    {
     "is_this_ptr" : true,
     "referenced_type" : "type-187"
    },
    {
     "referenced_type" : "type-2058"
    }
   ],
   "return_type" : "type-799",
   "source_file" : "/out/soong/.intermediates/hardware/interfaces/wifi/supplicant/1.2/android.hardware.wifi.supplicant@1.2_genc++_headers/gen/android/hardware/wifi/supplicant/1.2/BpHwSupplicantStaIface.h"
  },
  {
   "function_name" : "android::hardware::wifi::supplicant::V1_2::BpHwSupplicantStaIface::BpHwSupplicantStaIface",
   "linker_set_key" : "_ZN7android8hardware4wifi10supplicant4V1_222BpHwSupplicantStaIfaceC1ERKNS_2spINS0_7IBinderEEE",
   "parameters" :
   [
    {
     "is_this_ptr" : true,
     "referenced_type" : "type-187"
    },
    {
     "referenced_type" : "type-74"
    }
   ],
   "return_type" : "type-53",
   "source_file" : "/out/soong/.intermediates/hardware/interfaces/wifi/supplicant/1.2/android.hardware.wifi.supplicant@1.2_genc++_headers/gen/android/hardware/wifi/supplicant/1.2/BpHwSupplicantStaIface.h"
  },
  {
   "function_name" : "android::hardware::wifi::supplicant::V1_2::BpHwSupplicantStaIface::BpHwSupplicantStaIface",
   "linker_set_key" : "_ZN7android8hardware4wifi10supplicant4V1_222BpHwSupplicantStaIfaceC2ERKNS_2spINS0_7IBinderEEE",
   "parameters" :
   [
    {
     "is_this_ptr" : true,
     "referenced_type" : "type-187"
    },
    {
     "referenced_type" : "type-74"
    }
   ],
   "return_type" : "type-53",
   "source_file" : "/out/soong/.intermediates/hardware/interfaces/wifi/supplicant/1.2/android.hardware.wifi.supplicant@1.2_genc++_headers/gen/android/hardware/wifi/supplicant/1.2/BpHwSupplicantStaIface.h"
  },
  {
   "access" : "private",
   "function_name" : "android::hardware::wifi::supplicant::V1_2::BsSupplicantStaNetwork::addOnewayTask",
   "linker_set_key" : "_ZN7android8hardware4wifi10supplicant4V1_222BsSupplicantStaNetwork13addOnewayTaskENSt3__18functionIFvvEEE",
   "parameters" :
   [
    {
     "is_this_ptr" : true,
     "referenced_type" : "type-810"
    },
    {
     "referenced_type" : "type-2075"
    }
   ],
   "return_type" : "type-799",
   "source_file" : "/out/soong/.intermediates/hardware/interfaces/wifi/supplicant/1.2/android.hardware.wifi.supplicant@1.2_genc++_headers/gen/android/hardware/wifi/supplicant/1.2/BsSupplicantStaNetwork.h"
  },
  {
   "function_name" : "android::hardware::wifi::supplicant::V1_2::BsSupplicantStaNetwork::BsSupplicantStaNetwork",
   "linker_set_key" : "_ZN7android8hardware4wifi10supplicant4V1_222BsSupplicantStaNetworkC1ENS_2spINS3_21ISupplicantStaNetworkEEE",
   "parameters" :
   [
    {
     "is_this_ptr" : true,
     "referenced_type" : "type-810"
    },
    {
     "referenced_type" : "type-272"
    }
   ],
   "return_type" : "type-53",
   "source_file" : "/out/soong/.intermediates/hardware/interfaces/wifi/supplicant/1.2/android.hardware.wifi.supplicant@1.2_genc++_headers/gen/android/hardware/wifi/supplicant/1.2/BsSupplicantStaNetwork.h"
  },
  {
   "function_name" : "android::hardware::wifi::supplicant::V1_2::BsSupplicantStaNetwork::BsSupplicantStaNetwork",
   "linker_set_key" : "_ZN7android8hardware4wifi10supplicant4V1_222BsSupplicantStaNetworkC2ENS_2spINS3_21ISupplicantStaNetworkEEE",
   "parameters" :
   [
    {
     "is_this_ptr" : true,
     "referenced_type" : "type-810"
    },
    {
     "referenced_type" : "type-272"
    }
   ],
   "return_type" : "type-53",
   "source_file" : "/out/soong/.intermediates/hardware/interfaces/wifi/supplicant/1.2/android.hardware.wifi.supplicant@1.2_genc++_headers/gen/android/hardware/wifi/supplicant/1.2/BsSupplicantStaNetwork.h"
  },
  {
   "function_name" : "android::hardware::wifi::supplicant::V1_2::BnHwSupplicantStaNetwork::onTransact",
   "linker_set_key" : "_ZN7android8hardware4wifi10supplicant4V1_224BnHwSupplicantStaNetwork10onTransactEjRKNS0_6ParcelEPS5_jNSt3__18functionIFvRS5_EEE",
   "parameters" :
   [
    {
     "is_this_ptr" : true,
     "referenced_type" : "type-651"
    },
    {
     "referenced_type" : "type-2"
    },
    {
     "referenced_type" : "type-1331"
    },
    {
     "referenced_type" : "type-1325"
    },
    {
     "default_arg" : true,
     "referenced_type" : "type-2"
    },
    {
     "default_arg" : true,
     "referenced_type" : "type-2152"
    }
   ],
   "return_type" : "type-51",
   "source_file" : "/out/soong/.intermediates/hardware/interfaces/wifi/supplicant/1.2/android.hardware.wifi.supplicant@1.2_genc++_headers/gen/android/hardware/wifi/supplicant/1.2/BnHwSupplicantStaNetwork.h"
  },
  {
   "access" : "private",
   "function_name" : "android::hardware::wifi::supplicant::V1_2::BnHwSupplicantStaNetwork::getDebugInfo",
   "linker_set_key" : "_ZN7android8hardware4wifi10supplicant4V1_224BnHwSupplicantStaNetwork12getDebugInfoENSt3__18functionIFvRKNS_4hidl4base4V1_09DebugInfoEEEE",
   "parameters" :
   [
    {
     "is_this_ptr" : true,
     "referenced_type" : "type-651"
    },
    {
     "referenced_type" : "type-2153"
    }
   ],
   "return_type" : "type-799",
   "source_file" : "/out/soong/.intermediates/hardware/interfaces/wifi/supplicant/1.2/android.hardware.wifi.supplicant@1.2_genc++_headers/gen/android/hardware/wifi/supplicant/1.2/BnHwSupplicantStaNetwork.h"
  },
  {
   "function_name" : "android::hardware::wifi::supplicant::V1_2::BnHwSupplicantStaNetwork::_hidl_getKeyMgmt_1_2",
   "linker_set_key" : "_ZN7android8hardware4wifi10supplicant4V1_224BnHwSupplicantStaNetwork20_hidl_getKeyMgmt_1_2EPNS_4hidl4base4V1_08BnHwBaseERKNS0_6ParcelEPSA_NSt3__18functionIFvRSA_EEE",
   "parameters" :
   [
    {
     "referenced_type" : "type-1332"
    },
    {
     "referenced_type" : "type-1331"
    },
    {
     "referenced_type" : "type-1325"
    },
    {
     "referenced_type" : "type-2154"
    }
   ],
   "return_type" : "type-51",
   "source_file" : "/out/soong/.intermediates/hardware/interfaces/wifi/supplicant/1.2/android.hardware.wifi.supplicant@1.2_genc++_headers/gen/android/hardware/wifi/supplicant/1.2/BnHwSupplicantStaNetwork.h"
  },
  {
   "function_name" : "android::hardware::wifi::supplicant::V1_2::BnHwSupplicantStaNetwork::_hidl_getSaePassword",
   "linker_set_key" : "_ZN7android8hardware4wifi10supplicant4V1_224BnHwSupplicantStaNetwork20_hidl_getSaePasswordEPNS_4hidl4base4V1_08BnHwBaseERKNS0_6ParcelEPSA_NSt3__18functionIFvRSA_EEE",
   "parameters" :
   [
    {
     "referenced_type" : "type-1332"
    },
    {
     "referenced_type" : "type-1331"
    },
    {
     "referenced_type" : "type-1325"
    },
    {
     "referenced_type" : "type-2155"
    }
   ],
   "return_type" : "type-51",
   "source_file" : "/out/soong/.intermediates/hardware/interfaces/wifi/supplicant/1.2/android.hardware.wifi.supplicant@1.2_genc++_headers/gen/android/hardware/wifi/supplicant/1.2/BnHwSupplicantStaNetwork.h"
  },
  {
   "function_name" : "android::hardware::wifi::supplicant::V1_2::BnHwSupplicantStaNetwork::_hidl_setKeyMgmt_1_2",
   "linker_set_key" : "_ZN7android8hardware4wifi10supplicant4V1_224BnHwSupplicantStaNetwork20_hidl_setKeyMgmt_1_2EPNS_4hidl4base4V1_08BnHwBaseERKNS0_6ParcelEPSA_NSt3__18functionIFvRSA_EEE",
   "parameters" :
   [
    {
     "referenced_type" : "type-1332"
    },
    {
     "referenced_type" : "type-1331"
    },
    {
     "referenced_type" : "type-1325"
    },
    {
     "referenced_type" : "type-2156"
    }
   ],
   "return_type" : "type-51",
   "source_file" : "/out/soong/.intermediates/hardware/interfaces/wifi/supplicant/1.2/android.hardware.wifi.supplicant@1.2_genc++_headers/gen/android/hardware/wifi/supplicant/1.2/BnHwSupplicantStaNetwork.h"
  },
  {
   "function_name" : "android::hardware::wifi::supplicant::V1_2::BnHwSupplicantStaNetwork::_hidl_setSaePassword",
   "linker_set_key" : "_ZN7android8hardware4wifi10supplicant4V1_224BnHwSupplicantStaNetwork20_hidl_setSaePasswordEPNS_4hidl4base4V1_08BnHwBaseERKNS0_6ParcelEPSA_NSt3__18functionIFvRSA_EEE",
   "parameters" :
   [
    {
     "referenced_type" : "type-1332"
    },
    {
     "referenced_type" : "type-1331"
    },
    {
     "referenced_type" : "type-1325"
    },
    {
     "referenced_type" : "type-2157"
    }
   ],
   "return_type" : "type-51",
   "source_file" : "/out/soong/.intermediates/hardware/interfaces/wifi/supplicant/1.2/android.hardware.wifi.supplicant@1.2_genc++_headers/gen/android/hardware/wifi/supplicant/1.2/BnHwSupplicantStaNetwork.h"
  },
  {
   "function_name" : "android::hardware::wifi::supplicant::V1_2::BnHwSupplicantStaNetwork::_hidl_getSaePasswordId",
   "linker_set_key" : "_ZN7android8hardware4wifi10supplicant4V1_224BnHwSupplicantStaNetwork22_hidl_getSaePasswordIdEPNS_4hidl4base4V1_08BnHwBaseERKNS0_6ParcelEPSA_NSt3__18functionIFvRSA_EEE",
   "parameters" :
   [
    {
     "referenced_type" : "type-1332"
    },
    {
     "referenced_type" : "type-1331"
    },
    {
     "referenced_type" : "type-1325"
    },
    {
     "referenced_type" : "type-2158"
    }
   ],
   "return_type" : "type-51",
   "source_file" : "/out/soong/.intermediates/hardware/interfaces/wifi/supplicant/1.2/android.hardware.wifi.supplicant@1.2_genc++_headers/gen/android/hardware/wifi/supplicant/1.2/BnHwSupplicantStaNetwork.h"
  },
  {
   "function_name" : "android::hardware::wifi::supplicant::V1_2::BnHwSupplicantStaNetwork::_hidl_setSaePasswordId",
   "linker_set_key" : "_ZN7android8hardware4wifi10supplicant4V1_224BnHwSupplicantStaNetwork22_hidl_setSaePasswordIdEPNS_4hidl4base4V1_08BnHwBaseERKNS0_6ParcelEPSA_NSt3__18functionIFvRSA_EEE",
   "parameters" :
   [
    {
     "referenced_type" : "type-1332"
    },
    {
     "referenced_type" : "type-1331"
    },
    {
     "referenced_type" : "type-1325"
    },
    {
     "referenced_type" : "type-2159"
    }
   ],
   "return_type" : "type-51",
   "source_file" : "/out/soong/.intermediates/hardware/interfaces/wifi/supplicant/1.2/android.hardware.wifi.supplicant@1.2_genc++_headers/gen/android/hardware/wifi/supplicant/1.2/BnHwSupplicantStaNetwork.h"
  },
  {
   "function_name" : "android::hardware::wifi::supplicant::V1_2::BnHwSupplicantStaNetwork::_hidl_getGroupCipher_1_2",
   "linker_set_key" : "_ZN7android8hardware4wifi10supplicant4V1_224BnHwSupplicantStaNetwork24_hidl_getGroupCipher_1_2EPNS_4hidl4base4V1_08BnHwBaseERKNS0_6ParcelEPSA_NSt3__18functionIFvRSA_EEE",
   "parameters" :
   [
    {
     "referenced_type" : "type-1332"
    },
    {
     "referenced_type" : "type-1331"
    },
    {
     "referenced_type" : "type-1325"
    },
    {
     "referenced_type" : "type-2160"
    }
   ],
   "return_type" : "type-51",
   "source_file" : "/out/soong/.intermediates/hardware/interfaces/wifi/supplicant/1.2/android.hardware.wifi.supplicant@1.2_genc++_headers/gen/android/hardware/wifi/supplicant/1.2/BnHwSupplicantStaNetwork.h"
  },
  {
   "function_name" : "android::hardware::wifi::supplicant::V1_2::BnHwSupplicantStaNetwork::_hidl_getGroupMgmtCipher",
   "linker_set_key" : "_ZN7android8hardware4wifi10supplicant4V1_224BnHwSupplicantStaNetwork24_hidl_getGroupMgmtCipherEPNS_4hidl4base4V1_08BnHwBaseERKNS0_6ParcelEPSA_NSt3__18functionIFvRSA_EEE",
   "parameters" :
   [
    {
     "referenced_type" : "type-1332"
    },
    {
     "referenced_type" : "type-1331"
    },
    {
     "referenced_type" : "type-1325"
    },
    {
     "referenced_type" : "type-2161"
    }
   ],
   "return_type" : "type-51",
   "source_file" : "/out/soong/.intermediates/hardware/interfaces/wifi/supplicant/1.2/android.hardware.wifi.supplicant@1.2_genc++_headers/gen/android/hardware/wifi/supplicant/1.2/BnHwSupplicantStaNetwork.h"
  },
  {
   "function_name" : "android::hardware::wifi::supplicant::V1_2::BnHwSupplicantStaNetwork::_hidl_setGroupCipher_1_2",
   "linker_set_key" : "_ZN7android8hardware4wifi10supplicant4V1_224BnHwSupplicantStaNetwork24_hidl_setGroupCipher_1_2EPNS_4hidl4base4V1_08BnHwBaseERKNS0_6ParcelEPSA_NSt3__18functionIFvRSA_EEE",
   "parameters" :
   [
    {
     "referenced_type" : "type-1332"
    },
    {
     "referenced_type" : "type-1331"
    },
    {
     "referenced_type" : "type-1325"
    },
    {
     "referenced_type" : "type-2162"
    }
   ],
   "return_type" : "type-51",
   "source_file" : "/out/soong/.intermediates/hardware/interfaces/wifi/supplicant/1.2/android.hardware.wifi.supplicant@1.2_genc++_headers/gen/android/hardware/wifi/supplicant/1.2/BnHwSupplicantStaNetwork.h"
  },
  {
   "function_name" : "android::hardware::wifi::supplicant::V1_2::BnHwSupplicantStaNetwork::_hidl_setGroupMgmtCipher",
   "linker_set_key" : "_ZN7android8hardware4wifi10supplicant4V1_224BnHwSupplicantStaNetwork24_hidl_setGroupMgmtCipherEPNS_4hidl4base4V1_08BnHwBaseERKNS0_6ParcelEPSA_NSt3__18functionIFvRSA_EEE",
   "parameters" :
   [
    {
     "referenced_type" : "type-1332"
    },
    {
     "referenced_type" : "type-1331"
    },
    {
     "referenced_type" : "type-1325"
    },
    {
     "referenced_type" : "type-2163"
    }
   ],
   "return_type" : "type-51",
   "source_file" : "/out/soong/.intermediates/hardware/interfaces/wifi/supplicant/1.2/android.hardware.wifi.supplicant@1.2_genc++_headers/gen/android/hardware/wifi/supplicant/1.2/BnHwSupplicantStaNetwork.h"
  },
  {
   "function_name" : "android::hardware::wifi::supplicant::V1_2::BnHwSupplicantStaNetwork::_hidl_getPairwiseCipher_1_2",
   "linker_set_key" : "_ZN7android8hardware4wifi10supplicant4V1_224BnHwSupplicantStaNetwork27_hidl_getPairwiseCipher_1_2EPNS_4hidl4base4V1_08BnHwBaseERKNS0_6ParcelEPSA_NSt3__18functionIFvRSA_EEE",
   "parameters" :
   [
    {
     "referenced_type" : "type-1332"
    },
    {
     "referenced_type" : "type-1331"
    },
    {
     "referenced_type" : "type-1325"
    },
    {
     "referenced_type" : "type-2164"
    }
   ],
   "return_type" : "type-51",
   "source_file" : "/out/soong/.intermediates/hardware/interfaces/wifi/supplicant/1.2/android.hardware.wifi.supplicant@1.2_genc++_headers/gen/android/hardware/wifi/supplicant/1.2/BnHwSupplicantStaNetwork.h"
  },
  {
   "function_name" : "android::hardware::wifi::supplicant::V1_2::BnHwSupplicantStaNetwork::_hidl_setPairwiseCipher_1_2",
   "linker_set_key" : "_ZN7android8hardware4wifi10supplicant4V1_224BnHwSupplicantStaNetwork27_hidl_setPairwiseCipher_1_2EPNS_4hidl4base4V1_08BnHwBaseERKNS0_6ParcelEPSA_NSt3__18functionIFvRSA_EEE",
   "parameters" :
   [
    {
     "referenced_type" : "type-1332"
    },
    {
     "referenced_type" : "type-1331"
    },
    {
     "referenced_type" : "type-1325"
    },
    {
     "referenced_type" : "type-2165"
    }
   ],
   "return_type" : "type-51",
   "source_file" : "/out/soong/.intermediates/hardware/interfaces/wifi/supplicant/1.2/android.hardware.wifi.supplicant@1.2_genc++_headers/gen/android/hardware/wifi/supplicant/1.2/BnHwSupplicantStaNetwork.h"
  },
  {
   "function_name" : "android::hardware::wifi::supplicant::V1_2::BnHwSupplicantStaNetwork::_hidl_enableSuiteBEapOpenSslCiphers",
   "linker_set_key" : "_ZN7android8hardware4wifi10supplicant4V1_224BnHwSupplicantStaNetwork35_hidl_enableSuiteBEapOpenSslCiphersEPNS_4hidl4base4V1_08BnHwBaseERKNS0_6ParcelEPSA_NSt3__18functionIFvRSA_EEE",
   "parameters" :
   [
    {
     "referenced_type" : "type-1332"
    },
    {
     "referenced_type" : "type-1331"
    },
    {
     "referenced_type" : "type-1325"
    },
    {
     "referenced_type" : "type-2166"
    }
   ],
   "return_type" : "type-51",
   "source_file" : "/out/soong/.intermediates/hardware/interfaces/wifi/supplicant/1.2/android.hardware.wifi.supplicant@1.2_genc++_headers/gen/android/hardware/wifi/supplicant/1.2/BnHwSupplicantStaNetwork.h"
  },
  {
   "function_name" : "android::hardware::wifi::supplicant::V1_2::BnHwSupplicantStaNetwork::_hidl_enableTlsSuiteBEapPhase1Param",
   "linker_set_key" : "_ZN7android8hardware4wifi10supplicant4V1_224BnHwSupplicantStaNetwork35_hidl_enableTlsSuiteBEapPhase1ParamEPNS_4hidl4base4V1_08BnHwBaseERKNS0_6ParcelEPSA_NSt3__18functionIFvRSA_EEE",
   "parameters" :
   [
    {
     "referenced_type" : "type-1332"
    },
    {
     "referenced_type" : "type-1331"
    },
    {
     "referenced_type" : "type-1325"
    },
    {
     "referenced_type" : "type-2167"
    }
   ],
   "return_type" : "type-51",
   "source_file" : "/out/soong/.intermediates/hardware/interfaces/wifi/supplicant/1.2/android.hardware.wifi.supplicant@1.2_genc++_headers/gen/android/hardware/wifi/supplicant/1.2/BnHwSupplicantStaNetwork.h"
  },
  {
   "access" : "private",
   "function_name" : "android::hardware::wifi::supplicant::V1_2::BnHwSupplicantStaNetwork::ping",
   "linker_set_key" : "_ZN7android8hardware4wifi10supplicant4V1_224BnHwSupplicantStaNetwork4pingEv",
   "parameters" :
   [
    {
     "is_this_ptr" : true,
     "referenced_type" : "type-651"
    }
   ],
   "return_type" : "type-799",
   "source_file" : "/out/soong/.intermediates/hardware/interfaces/wifi/supplicant/1.2/android.hardware.wifi.supplicant@1.2_genc++_headers/gen/android/hardware/wifi/supplicant/1.2/BnHwSupplicantStaNetwork.h"
  },
  {
   "function_name" : "android::hardware::wifi::supplicant::V1_2::BnHwSupplicantStaNetwork::BnHwSupplicantStaNetwork",
   "linker_set_key" : "_ZN7android8hardware4wifi10supplicant4V1_224BnHwSupplicantStaNetworkC1ERKNS_2spINS3_21ISupplicantStaNetworkEEE",
   "parameters" :
   [
    {
     "is_this_ptr" : true,
     "referenced_type" : "type-651"
    },
    {
     "referenced_type" : "type-274"
    }
   ],
   "return_type" : "type-53",
   "source_file" : "/out/soong/.intermediates/hardware/interfaces/wifi/supplicant/1.2/android.hardware.wifi.supplicant@1.2_genc++_headers/gen/android/hardware/wifi/supplicant/1.2/BnHwSupplicantStaNetwork.h"
  },
  {
   "function_name" : "android::hardware::wifi::supplicant::V1_2::BnHwSupplicantStaNetwork::BnHwSupplicantStaNetwork",
   "linker_set_key" : "_ZN7android8hardware4wifi10supplicant4V1_224BnHwSupplicantStaNetworkC2ERKNS_2spINS3_21ISupplicantStaNetworkEEE",
   "parameters" :
   [
    {
     "is_this_ptr" : true,
     "referenced_type" : "type-651"
    },
    {
     "referenced_type" : "type-274"
    }
   ],
   "return_type" : "type-53",
   "source_file" : "/out/soong/.intermediates/hardware/interfaces/wifi/supplicant/1.2/android.hardware.wifi.supplicant@1.2_genc++_headers/gen/android/hardware/wifi/supplicant/1.2/BnHwSupplicantStaNetwork.h"
  },
  {
   "function_name" : "android::hardware::wifi::supplicant::V1_2::BnHwSupplicantStaNetwork::~BnHwSupplicantStaNetwork",
   "linker_set_key" : "_ZN7android8hardware4wifi10supplicant4V1_224BnHwSupplicantStaNetworkD0Ev",
   "parameters" :
   [
    {
     "is_this_ptr" : true,
     "referenced_type" : "type-651"
    }
   ],
   "return_type" : "type-53",
   "source_file" : "/out/soong/.intermediates/hardware/interfaces/wifi/supplicant/1.2/android.hardware.wifi.supplicant@1.2_genc++_headers/gen/android/hardware/wifi/supplicant/1.2/BnHwSupplicantStaNetwork.h"
  },
  {
   "function_name" : "android::hardware::wifi::supplicant::V1_2::BnHwSupplicantStaNetwork::~BnHwSupplicantStaNetwork",
   "linker_set_key" : "_ZN7android8hardware4wifi10supplicant4V1_224BnHwSupplicantStaNetworkD1Ev",
   "parameters" :
   [
    {
     "is_this_ptr" : true,
     "referenced_type" : "type-651"
    }
   ],
   "return_type" : "type-53",
   "source_file" : "/out/soong/.intermediates/hardware/interfaces/wifi/supplicant/1.2/android.hardware.wifi.supplicant@1.2_genc++_headers/gen/android/hardware/wifi/supplicant/1.2/BnHwSupplicantStaNetwork.h"
  },
  {
   "function_name" : "android::hardware::wifi::supplicant::V1_2::BnHwSupplicantStaNetwork::~BnHwSupplicantStaNetwork",
   "linker_set_key" : "_ZN7android8hardware4wifi10supplicant4V1_224BnHwSupplicantStaNetworkD2Ev",
   "parameters" :
   [
    {
     "is_this_ptr" : true,
     "referenced_type" : "type-651"
    }
   ],
   "return_type" : "type-53",
   "source_file" : "/out/soong/.intermediates/hardware/interfaces/wifi/supplicant/1.2/android.hardware.wifi.supplicant@1.2_genc++_headers/gen/android/hardware/wifi/supplicant/1.2/BnHwSupplicantStaNetwork.h"
  },
  {
   "function_name" : "android::hardware::wifi::supplicant::V1_2::BpHwSupplicantStaNetwork::getAuthAlg",
   "linker_set_key" : "_ZN7android8hardware4wifi10supplicant4V1_224BpHwSupplicantStaNetwork10getAuthAlgENSt3__18functionIFvRKNS2_4V1_016SupplicantStatusEjEEE",
   "parameters" :
   [
    {
     "is_this_ptr" : true,
     "referenced_type" : "type-811"
    },
    {
     "referenced_type" : "type-2168"
    }
   ],
   "return_type" : "type-799",
   "source_file" : "/out/soong/.intermediates/hardware/interfaces/wifi/supplicant/1.2/android.hardware.wifi.supplicant@1.2_genc++_headers/gen/android/hardware/wifi/supplicant/1.2/BpHwSupplicantStaNetwork.h"
  },
  {
   "function_name" : "android::hardware::wifi::supplicant::V1_2::BpHwSupplicantStaNetwork::getKeyMgmt",
   "linker_set_key" : "_ZN7android8hardware4wifi10supplicant4V1_224BpHwSupplicantStaNetwork10getKeyMgmtENSt3__18functionIFvRKNS2_4V1_016SupplicantStatusEjEEE",
   "parameters" :
   [
    {
     "is_this_ptr" : true,
     "referenced_type" : "type-811"
    },
    {
     "referenced_type" : "type-2169"
    }
   ],
   "return_type" : "type-799",
   "source_file" : "/out/soong/.intermediates/hardware/interfaces/wifi/supplicant/1.2/android.hardware.wifi.supplicant@1.2_genc++_headers/gen/android/hardware/wifi/supplicant/1.2/BpHwSupplicantStaNetwork.h"
  },
  {
   "function_name" : "android::hardware::wifi::supplicant::V1_2::BpHwSupplicantStaNetwork::setAuthAlg",
   "linker_set_key" : "_ZN7android8hardware4wifi10supplicant4V1_224BpHwSupplicantStaNetwork10setAuthAlgEjNSt3__18functionIFvRKNS2_4V1_016SupplicantStatusEEEE",
   "parameters" :
   [
    {
     "is_this_ptr" : true,
     "referenced_type" : "type-811"
    },
    {
     "referenced_type" : "type-2"
    },
    {
     "referenced_type" : "type-2170"
    }
   ],
   "return_type" : "type-799",
   "source_file" : "/out/soong/.intermediates/hardware/interfaces/wifi/supplicant/1.2/android.hardware.wifi.supplicant@1.2_genc++_headers/gen/android/hardware/wifi/supplicant/1.2/BpHwSupplicantStaNetwork.h"
  },
  {
   "function_name" : "android::hardware::wifi::supplicant::V1_2::BpHwSupplicantStaNetwork::setKeyMgmt",
   "linker_set_key" : "_ZN7android8hardware4wifi10supplicant4V1_224BpHwSupplicantStaNetwork10setKeyMgmtEjNSt3__18functionIFvRKNS2_4V1_016SupplicantStatusEEEE",
   "parameters" :
   [
    {
     "is_this_ptr" : true,
     "referenced_type" : "type-811"
    },
    {
     "referenced_type" : "type-2"
    },
    {
     "referenced_type" : "type-2171"
    }
   ],
   "return_type" : "type-799",
   "source_file" : "/out/soong/.intermediates/hardware/interfaces/wifi/supplicant/1.2/android.hardware.wifi.supplicant@1.2_genc++_headers/gen/android/hardware/wifi/supplicant/1.2/BpHwSupplicantStaNetwork.h"
  },
  {
   "function_name" : "android::hardware::wifi::supplicant::V1_2::BpHwSupplicantStaNetwork::getScanSsid",
   "linker_set_key" : "_ZN7android8hardware4wifi10supplicant4V1_224BpHwSupplicantStaNetwork11getScanSsidENSt3__18functionIFvRKNS2_4V1_016SupplicantStatusEbEEE",
   "parameters" :
   [
    {
     "is_this_ptr" : true,
     "referenced_type" : "type-811"
    },
    {
     "referenced_type" : "type-2172"
    }
   ],
   "return_type" : "type-799",
   "source_file" : "/out/soong/.intermediates/hardware/interfaces/wifi/supplicant/1.2/android.hardware.wifi.supplicant@1.2_genc++_headers/gen/android/hardware/wifi/supplicant/1.2/BpHwSupplicantStaNetwork.h"
  },
  {
   "function_name" : "android::hardware::wifi::supplicant::V1_2::BpHwSupplicantStaNetwork::linkToDeath",
   "linker_set_key" : "_ZN7android8hardware4wifi10supplicant4V1_224BpHwSupplicantStaNetwork11linkToDeathERKNS_2spINS0_20hidl_death_recipientEEEy",
   "parameters" :
   [
    {
     "is_this_ptr" : true,
     "referenced_type" : "type-811"
    },
    {
     "referenced_type" : "type-1074"
    },
    {
     "referenced_type" : "type-30"
    }
   ],
   "return_type" : "type-692",
   "source_file" : "/out/soong/.intermediates/hardware/interfaces/wifi/supplicant/1.2/android.hardware.wifi.supplicant@1.2_genc++_headers/gen/android/hardware/wifi/supplicant/1.2/BpHwSupplicantStaNetwork.h"
  },
  {
   "function_name" : "android::hardware::wifi::supplicant::V1_2::BpHwSupplicantStaNetwork::setScanSsid",
   "linker_set_key" : "_ZN7android8hardware4wifi10supplicant4V1_224BpHwSupplicantStaNetwork11setScanSsidEbNSt3__18functionIFvRKNS2_4V1_016SupplicantStatusEEEE",
   "parameters" :
   [
    {
     "is_this_ptr" : true,
     "referenced_type" : "type-811"
    },
    {
     "referenced_type" : "type-65"
    },
    {
     "referenced_type" : "type-2173"
    }
   ],
   "return_type" : "type-799",
   "source_file" : "/out/soong/.intermediates/hardware/interfaces/wifi/supplicant/1.2/android.hardware.wifi.supplicant@1.2_genc++_headers/gen/android/hardware/wifi/supplicant/1.2/BpHwSupplicantStaNetwork.h"
  },
  {
   "function_name" : "android::hardware::wifi::supplicant::V1_2::BpHwSupplicantStaNetwork::getDebugInfo",
   "linker_set_key" : "_ZN7android8hardware4wifi10supplicant4V1_224BpHwSupplicantStaNetwork12getDebugInfoENSt3__18functionIFvRKNS_4hidl4base4V1_09DebugInfoEEEE",
   "parameters" :
   [
    {
     "is_this_ptr" : true,
     "referenced_type" : "type-811"
    },
    {
     "referenced_type" : "type-2174"
    }
   ],
   "return_type" : "type-799",
   "source_file" : "/out/soong/.intermediates/hardware/interfaces/wifi/supplicant/1.2/android.hardware.wifi.supplicant@1.2_genc++_headers/gen/android/hardware/wifi/supplicant/1.2/BpHwSupplicantStaNetwork.h"
  },
  {
   "function_name" : "android::hardware::wifi::supplicant::V1_2::BpHwSupplicantStaNetwork::getEapCACert",
   "linker_set_key" : "_ZN7android8hardware4wifi10supplicant4V1_224BpHwSupplicantStaNetwork12getEapCACertENSt3__18functionIFvRKNS2_4V1_016SupplicantStatusERKNS0_11hidl_stringEEEE",
   "parameters" :
   [
    {
     "is_this_ptr" : true,
     "referenced_type" : "type-811"
    },
    {
     "referenced_type" : "type-2175"
    }
   ],
   "return_type" : "type-799",
   "source_file" : "/out/soong/.intermediates/hardware/interfaces/wifi/supplicant/1.2/android.hardware.wifi.supplicant@1.2_genc++_headers/gen/android/hardware/wifi/supplicant/1.2/BpHwSupplicantStaNetwork.h"
  },
  {
   "function_name" : "android::hardware::wifi::supplicant::V1_2::BpHwSupplicantStaNetwork::getEapCAPath",
   "linker_set_key" : "_ZN7android8hardware4wifi10supplicant4V1_224BpHwSupplicantStaNetwork12getEapCAPathENSt3__18functionIFvRKNS2_4V1_016SupplicantStatusERKNS0_11hidl_stringEEEE",
   "parameters" :
   [
    {
     "is_this_ptr" : true,
     "referenced_type" : "type-811"
    },
    {
     "referenced_type" : "type-2176"
    }
   ],
   "return_type" : "type-799",
   "source_file" : "/out/soong/.intermediates/hardware/interfaces/wifi/supplicant/1.2/android.hardware.wifi.supplicant@1.2_genc++_headers/gen/android/hardware/wifi/supplicant/1.2/BpHwSupplicantStaNetwork.h"
  },
  {
   "function_name" : "android::hardware::wifi::supplicant::V1_2::BpHwSupplicantStaNetwork::getEapEngine",
   "linker_set_key" : "_ZN7android8hardware4wifi10supplicant4V1_224BpHwSupplicantStaNetwork12getEapEngineENSt3__18functionIFvRKNS2_4V1_016SupplicantStatusEbEEE",
   "parameters" :
   [
    {
     "is_this_ptr" : true,
     "referenced_type" : "type-811"
    },
    {
     "referenced_type" : "type-2177"
    }
   ],
   "return_type" : "type-799",
   "source_file" : "/out/soong/.intermediates/hardware/interfaces/wifi/supplicant/1.2/android.hardware.wifi.supplicant@1.2_genc++_headers/gen/android/hardware/wifi/supplicant/1.2/BpHwSupplicantStaNetwork.h"
  },
  {
   "function_name" : "android::hardware::wifi::supplicant::V1_2::BpHwSupplicantStaNetwork::getEapMethod",
   "linker_set_key" : "_ZN7android8hardware4wifi10supplicant4V1_224BpHwSupplicantStaNetwork12getEapMethodENSt3__18functionIFvRKNS2_4V1_016SupplicantStatusENS7_21ISupplicantStaNetwork9EapMethodEEEE",
   "parameters" :
   [
    {
     "is_this_ptr" : true,
     "referenced_type" : "type-811"
    },
    {
     "referenced_type" : "type-2178"
    }
   ],
   "return_type" : "type-799",
   "source_file" : "/out/soong/.intermediates/hardware/interfaces/wifi/supplicant/1.2/android.hardware.wifi.supplicant@1.2_genc++_headers/gen/android/hardware/wifi/supplicant/1.2/BpHwSupplicantStaNetwork.h"
  },
  {
   "function_name" : "android::hardware::wifi::supplicant::V1_2::BpHwSupplicantStaNetwork::getHashChain",
   "linker_set_key" : "_ZN7android8hardware4wifi10supplicant4V1_224BpHwSupplicantStaNetwork12getHashChainENSt3__18functionIFvRKNS0_8hidl_vecINS0_10hidl_arrayIhLj32EJEEEEEEEE",
   "parameters" :
   [
    {
     "is_this_ptr" : true,
     "referenced_type" : "type-811"
    },
    {
     "referenced_type" : "type-2179"
    }
   ],
   "return_type" : "type-799",
   "source_file" : "/out/soong/.intermediates/hardware/interfaces/wifi/supplicant/1.2/android.hardware.wifi.supplicant@1.2_genc++_headers/gen/android/hardware/wifi/supplicant/1.2/BpHwSupplicantStaNetwork.h"
  },
  {
   "function_name" : "android::hardware::wifi::supplicant::V1_2::BpHwSupplicantStaNetwork::setEapCACert",
   "linker_set_key" : "_ZN7android8hardware4wifi10supplicant4V1_224BpHwSupplicantStaNetwork12setEapCACertERKNS0_11hidl_stringENSt3__18functionIFvRKNS2_4V1_016SupplicantStatusEEEE",
   "parameters" :
   [
    {
     "is_this_ptr" : true,
     "referenced_type" : "type-811"
    },
    {
     "referenced_type" : "type-1057"
    },
    {
     "referenced_type" : "type-2180"
    }
   ],
   "return_type" : "type-799",
   "source_file" : "/out/soong/.intermediates/hardware/interfaces/wifi/supplicant/1.2/android.hardware.wifi.supplicant@1.2_genc++_headers/gen/android/hardware/wifi/supplicant/1.2/BpHwSupplicantStaNetwork.h"
  },
  {
   "function_name" : "android::hardware::wifi::supplicant::V1_2::BpHwSupplicantStaNetwork::setEapCAPath",
   "linker_set_key" : "_ZN7android8hardware4wifi10supplicant4V1_224BpHwSupplicantStaNetwork12setEapCAPathERKNS0_11hidl_stringENSt3__18functionIFvRKNS2_4V1_016SupplicantStatusEEEE",
   "parameters" :
   [
    {
     "is_this_ptr" : true,
     "referenced_type" : "type-811"
    },
    {
     "referenced_type" : "type-1057"
    },
    {
     "referenced_type" : "type-2181"
    }
   ],
   "return_type" : "type-799",
   "source_file" : "/out/soong/.intermediates/hardware/interfaces/wifi/supplicant/1.2/android.hardware.wifi.supplicant@1.2_genc++_headers/gen/android/hardware/wifi/supplicant/1.2/BpHwSupplicantStaNetwork.h"
  },
  {
   "function_name" : "android::hardware::wifi::supplicant::V1_2::BpHwSupplicantStaNetwork::setEapEngine",
   "linker_set_key" : "_ZN7android8hardware4wifi10supplicant4V1_224BpHwSupplicantStaNetwork12setEapEngineEbNSt3__18functionIFvRKNS2_4V1_016SupplicantStatusEEEE",
   "parameters" :
   [
    {
     "is_this_ptr" : true,
     "referenced_type" : "type-811"
    },
    {
     "referenced_type" : "type-65"
    },
    {
     "referenced_type" : "type-2182"
    }
   ],
   "return_type" : "type-799",
   "source_file" : "/out/soong/.intermediates/hardware/interfaces/wifi/supplicant/1.2/android.hardware.wifi.supplicant@1.2_genc++_headers/gen/android/hardware/wifi/supplicant/1.2/BpHwSupplicantStaNetwork.h"
  },
  {
   "function_name" : "android::hardware::wifi::supplicant::V1_2::BpHwSupplicantStaNetwork::setEapMethod",
   "linker_set_key" : "_ZN7android8hardware4wifi10supplicant4V1_224BpHwSupplicantStaNetwork12setEapMethodENS2_4V1_021ISupplicantStaNetwork9EapMethodENSt3__18functionIFvRKNS5_16SupplicantStatusEEEE",
   "parameters" :
   [
    {
     "is_this_ptr" : true,
     "referenced_type" : "type-811"
    },
    {
     "referenced_type" : "type-524"
    },
    {
     "referenced_type" : "type-2183"
    }
   ],
   "return_type" : "type-799",
   "source_file" : "/out/soong/.intermediates/hardware/interfaces/wifi/supplicant/1.2/android.hardware.wifi.supplicant@1.2_genc++_headers/gen/android/hardware/wifi/supplicant/1.2/BpHwSupplicantStaNetwork.h"
  },
  {
   "function_name" : "android::hardware::wifi::supplicant::V1_2::BpHwSupplicantStaNetwork::getRequirePmf",
   "linker_set_key" : "_ZN7android8hardware4wifi10supplicant4V1_224BpHwSupplicantStaNetwork13getRequirePmfENSt3__18functionIFvRKNS2_4V1_016SupplicantStatusEbEEE",
   "parameters" :
   [
    {
     "is_this_ptr" : true,
     "referenced_type" : "type-811"
    },
    {
     "referenced_type" : "type-2184"
    }
   ],
   "return_type" : "type-799",
   "source_file" : "/out/soong/.intermediates/hardware/interfaces/wifi/supplicant/1.2/android.hardware.wifi.supplicant@1.2_genc++_headers/gen/android/hardware/wifi/supplicant/1.2/BpHwSupplicantStaNetwork.h"
  },
  {
   "function_name" : "android::hardware::wifi::supplicant::V1_2::BpHwSupplicantStaNetwork::setRequirePmf",
   "linker_set_key" : "_ZN7android8hardware4wifi10supplicant4V1_224BpHwSupplicantStaNetwork13setRequirePmfEbNSt3__18functionIFvRKNS2_4V1_016SupplicantStatusEEEE",
   "parameters" :
   [
    {
     "is_this_ptr" : true,
     "referenced_type" : "type-811"
    },
    {
     "referenced_type" : "type-65"
    },
    {
     "referenced_type" : "type-2185"
    }
   ],
   "return_type" : "type-799",
   "source_file" : "/out/soong/.intermediates/hardware/interfaces/wifi/supplicant/1.2/android.hardware.wifi.supplicant@1.2_genc++_headers/gen/android/hardware/wifi/supplicant/1.2/BpHwSupplicantStaNetwork.h"
  },
  {
   "function_name" : "android::hardware::wifi::supplicant::V1_2::BpHwSupplicantStaNetwork::unlinkToDeath",
   "linker_set_key" : "_ZN7android8hardware4wifi10supplicant4V1_224BpHwSupplicantStaNetwork13unlinkToDeathERKNS_2spINS0_20hidl_death_recipientEEE",
   "parameters" :
   [
    {
     "is_this_ptr" : true,
     "referenced_type" : "type-811"
    },
    {
     "referenced_type" : "type-1074"
    }
   ],
   "return_type" : "type-692",
   "source_file" : "/out/soong/.intermediates/hardware/interfaces/wifi/supplicant/1.2/android.hardware.wifi.supplicant@1.2_genc++_headers/gen/android/hardware/wifi/supplicant/1.2/BpHwSupplicantStaNetwork.h"
  },
  {
   "function_name" : "android::hardware::wifi::supplicant::V1_2::BpHwSupplicantStaNetwork::getEapEngineID",
   "linker_set_key" : "_ZN7android8hardware4wifi10supplicant4V1_224BpHwSupplicantStaNetwork14getEapEngineIDENSt3__18functionIFvRKNS2_4V1_016SupplicantStatusERKNS0_11hidl_stringEEEE",
   "parameters" :
   [
    {
     "is_this_ptr" : true,
     "referenced_type" : "type-811"
    },
    {
     "referenced_type" : "type-2186"
    }
   ],
   "return_type" : "type-799",
   "source_file" : "/out/soong/.intermediates/hardware/interfaces/wifi/supplicant/1.2/android.hardware.wifi.supplicant@1.2_genc++_headers/gen/android/hardware/wifi/supplicant/1.2/BpHwSupplicantStaNetwork.h"
  },
  {
   "function_name" : "android::hardware::wifi::supplicant::V1_2::BpHwSupplicantStaNetwork::getEapIdentity",
   "linker_set_key" : "_ZN7android8hardware4wifi10supplicant4V1_224BpHwSupplicantStaNetwork14getEapIdentityENSt3__18functionIFvRKNS2_4V1_016SupplicantStatusERKNS0_8hidl_vecIhEEEEE",
   "parameters" :
   [
    {
     "is_this_ptr" : true,
     "referenced_type" : "type-811"
    },
    {
     "referenced_type" : "type-2187"
    }
   ],
   "return_type" : "type-799",
   "source_file" : "/out/soong/.intermediates/hardware/interfaces/wifi/supplicant/1.2/android.hardware.wifi.supplicant@1.2_genc++_headers/gen/android/hardware/wifi/supplicant/1.2/BpHwSupplicantStaNetwork.h"
  },
  {
   "function_name" : "android::hardware::wifi::supplicant::V1_2::BpHwSupplicantStaNetwork::getEapPassword",
   "linker_set_key" : "_ZN7android8hardware4wifi10supplicant4V1_224BpHwSupplicantStaNetwork14getEapPasswordENSt3__18functionIFvRKNS2_4V1_016SupplicantStatusERKNS0_8hidl_vecIhEEEEE",
   "parameters" :
   [
    {
     "is_this_ptr" : true,
     "referenced_type" : "type-811"
    },
    {
     "referenced_type" : "type-2188"
    }
   ],
   "return_type" : "type-799",
   "source_file" : "/out/soong/.intermediates/hardware/interfaces/wifi/supplicant/1.2/android.hardware.wifi.supplicant@1.2_genc++_headers/gen/android/hardware/wifi/supplicant/1.2/BpHwSupplicantStaNetwork.h"
  },
  {
   "function_name" : "android::hardware::wifi::supplicant::V1_2::BpHwSupplicantStaNetwork::getGroupCipher",
   "linker_set_key" : "_ZN7android8hardware4wifi10supplicant4V1_224BpHwSupplicantStaNetwork14getGroupCipherENSt3__18functionIFvRKNS2_4V1_016SupplicantStatusEjEEE",
   "parameters" :
   [
    {
     "is_this_ptr" : true,
     "referenced_type" : "type-811"
    },
    {
     "referenced_type" : "type-2189"
    }
   ],
   "return_type" : "type-799",
   "source_file" : "/out/soong/.intermediates/hardware/interfaces/wifi/supplicant/1.2/android.hardware.wifi.supplicant@1.2_genc++_headers/gen/android/hardware/wifi/supplicant/1.2/BpHwSupplicantStaNetwork.h"
  },
  {
   "function_name" : "android::hardware::wifi::supplicant::V1_2::BpHwSupplicantStaNetwork::getKeyMgmt_1_2",
   "linker_set_key" : "_ZN7android8hardware4wifi10supplicant4V1_224BpHwSupplicantStaNetwork14getKeyMgmt_1_2ENSt3__18functionIFvRKNS2_4V1_016SupplicantStatusEjEEE",
   "parameters" :
   [
    {
     "is_this_ptr" : true,
     "referenced_type" : "type-811"
    },
    {
     "referenced_type" : "type-2190"
    }
   ],
   "return_type" : "type-799",
   "source_file" : "/out/soong/.intermediates/hardware/interfaces/wifi/supplicant/1.2/android.hardware.wifi.supplicant@1.2_genc++_headers/gen/android/hardware/wifi/supplicant/1.2/BpHwSupplicantStaNetwork.h"
  },
  {
   "function_name" : "android::hardware::wifi::supplicant::V1_2::BpHwSupplicantStaNetwork::getSaePassword",
   "linker_set_key" : "_ZN7android8hardware4wifi10supplicant4V1_224BpHwSupplicantStaNetwork14getSaePasswordENSt3__18functionIFvRKNS2_4V1_016SupplicantStatusERKNS0_11hidl_stringEEEE",
   "parameters" :
   [
    {
     "is_this_ptr" : true,
     "referenced_type" : "type-811"
    },
    {
     "referenced_type" : "type-2191"
    }
   ],
   "return_type" : "type-799",
   "source_file" : "/out/soong/.intermediates/hardware/interfaces/wifi/supplicant/1.2/android.hardware.wifi.supplicant@1.2_genc++_headers/gen/android/hardware/wifi/supplicant/1.2/BpHwSupplicantStaNetwork.h"
  },
  {
   "function_name" : "android::hardware::wifi::supplicant::V1_2::BpHwSupplicantStaNetwork::getWepTxKeyIdx",
   "linker_set_key" : "_ZN7android8hardware4wifi10supplicant4V1_224BpHwSupplicantStaNetwork14getWepTxKeyIdxENSt3__18functionIFvRKNS2_4V1_016SupplicantStatusEjEEE",
   "parameters" :
   [
    {
     "is_this_ptr" : true,
     "referenced_type" : "type-811"
    },
    {
     "referenced_type" : "type-2192"
    }
   ],
   "return_type" : "type-799",
   "source_file" : "/out/soong/.intermediates/hardware/interfaces/wifi/supplicant/1.2/android.hardware.wifi.supplicant@1.2_genc++_headers/gen/android/hardware/wifi/supplicant/1.2/BpHwSupplicantStaNetwork.h"
  },
  {
   "function_name" : "android::hardware::wifi::supplicant::V1_2::BpHwSupplicantStaNetwork::interfaceChain",
   "linker_set_key" : "_ZN7android8hardware4wifi10supplicant4V1_224BpHwSupplicantStaNetwork14interfaceChainENSt3__18functionIFvRKNS0_8hidl_vecINS0_11hidl_stringEEEEEE",
   "parameters" :
   [
    {
     "is_this_ptr" : true,
     "referenced_type" : "type-811"
    },
    {
     "referenced_type" : "type-2193"
    }
   ],
   "return_type" : "type-799",
   "source_file" : "/out/soong/.intermediates/hardware/interfaces/wifi/supplicant/1.2/android.hardware.wifi.supplicant@1.2_genc++_headers/gen/android/hardware/wifi/supplicant/1.2/BpHwSupplicantStaNetwork.h"
  },
  {
   "function_name" : "android::hardware::wifi::supplicant::V1_2::BpHwSupplicantStaNetwork::setEapEngineID",
   "linker_set_key" : "_ZN7android8hardware4wifi10supplicant4V1_224BpHwSupplicantStaNetwork14setEapEngineIDERKNS0_11hidl_stringENSt3__18functionIFvRKNS2_4V1_016SupplicantStatusEEEE",
   "parameters" :
   [
    {
     "is_this_ptr" : true,
     "referenced_type" : "type-811"
    },
    {
     "referenced_type" : "type-1057"
    },
    {
     "referenced_type" : "type-2194"
    }
   ],
   "return_type" : "type-799",
   "source_file" : "/out/soong/.intermediates/hardware/interfaces/wifi/supplicant/1.2/android.hardware.wifi.supplicant@1.2_genc++_headers/gen/android/hardware/wifi/supplicant/1.2/BpHwSupplicantStaNetwork.h"
  },
  {
   "function_name" : "android::hardware::wifi::supplicant::V1_2::BpHwSupplicantStaNetwork::setEapIdentity",
   "linker_set_key" : "_ZN7android8hardware4wifi10supplicant4V1_224BpHwSupplicantStaNetwork14setEapIdentityERKNS0_8hidl_vecIhEENSt3__18functionIFvRKNS2_4V1_016SupplicantStatusEEEE",
   "parameters" :
   [
    {
     "is_this_ptr" : true,
     "referenced_type" : "type-811"
    },
    {
     "referenced_type" : "type-1761"
    },
    {
     "referenced_type" : "type-2195"
    }
   ],
   "return_type" : "type-799",
   "source_file" : "/out/soong/.intermediates/hardware/interfaces/wifi/supplicant/1.2/android.hardware.wifi.supplicant@1.2_genc++_headers/gen/android/hardware/wifi/supplicant/1.2/BpHwSupplicantStaNetwork.h"
  },
  {
   "function_name" : "android::hardware::wifi::supplicant::V1_2::BpHwSupplicantStaNetwork::setEapPassword",
   "linker_set_key" : "_ZN7android8hardware4wifi10supplicant4V1_224BpHwSupplicantStaNetwork14setEapPasswordERKNS0_8hidl_vecIhEENSt3__18functionIFvRKNS2_4V1_016SupplicantStatusEEEE",
   "parameters" :
   [
    {
     "is_this_ptr" : true,
     "referenced_type" : "type-811"
    },
    {
     "referenced_type" : "type-1761"
    },
    {
     "referenced_type" : "type-2196"
    }
   ],
   "return_type" : "type-799",
   "source_file" : "/out/soong/.intermediates/hardware/interfaces/wifi/supplicant/1.2/android.hardware.wifi.supplicant@1.2_genc++_headers/gen/android/hardware/wifi/supplicant/1.2/BpHwSupplicantStaNetwork.h"
  },
  {
   "function_name" : "android::hardware::wifi::supplicant::V1_2::BpHwSupplicantStaNetwork::setGroupCipher",
   "linker_set_key" : "_ZN7android8hardware4wifi10supplicant4V1_224BpHwSupplicantStaNetwork14setGroupCipherEjNSt3__18functionIFvRKNS2_4V1_016SupplicantStatusEEEE",
   "parameters" :
   [
    {
     "is_this_ptr" : true,
     "referenced_type" : "type-811"
    },
    {
     "referenced_type" : "type-2"
    },
    {
     "referenced_type" : "type-2197"
    }
   ],
   "return_type" : "type-799",
   "source_file" : "/out/soong/.intermediates/hardware/interfaces/wifi/supplicant/1.2/android.hardware.wifi.supplicant@1.2_genc++_headers/gen/android/hardware/wifi/supplicant/1.2/BpHwSupplicantStaNetwork.h"
  },
  {
   "function_name" : "android::hardware::wifi::supplicant::V1_2::BpHwSupplicantStaNetwork::setKeyMgmt_1_2",
   "linker_set_key" : "_ZN7android8hardware4wifi10supplicant4V1_224BpHwSupplicantStaNetwork14setKeyMgmt_1_2EjNSt3__18functionIFvRKNS2_4V1_016SupplicantStatusEEEE",
   "parameters" :
   [
    {
     "is_this_ptr" : true,
     "referenced_type" : "type-811"
    },
    {
     "referenced_type" : "type-2"
    },
    {
     "referenced_type" : "type-2198"
    }
   ],
   "return_type" : "type-799",
   "source_file" : "/out/soong/.intermediates/hardware/interfaces/wifi/supplicant/1.2/android.hardware.wifi.supplicant@1.2_genc++_headers/gen/android/hardware/wifi/supplicant/1.2/BpHwSupplicantStaNetwork.h"
  },
  {
   "function_name" : "android::hardware::wifi::supplicant::V1_2::BpHwSupplicantStaNetwork::setSaePassword",
   "linker_set_key" : "_ZN7android8hardware4wifi10supplicant4V1_224BpHwSupplicantStaNetwork14setSaePasswordERKNS0_11hidl_stringENSt3__18functionIFvRKNS2_4V1_016SupplicantStatusEEEE",
   "parameters" :
   [
    {
     "is_this_ptr" : true,
     "referenced_type" : "type-811"
    },
    {
     "referenced_type" : "type-1057"
    },
    {
     "referenced_type" : "type-2199"
    }
   ],
   "return_type" : "type-799",
   "source_file" : "/out/soong/.intermediates/hardware/interfaces/wifi/supplicant/1.2/android.hardware.wifi.supplicant@1.2_genc++_headers/gen/android/hardware/wifi/supplicant/1.2/BpHwSupplicantStaNetwork.h"
  },
  {
   "function_name" : "android::hardware::wifi::supplicant::V1_2::BpHwSupplicantStaNetwork::setWepTxKeyIdx",
   "linker_set_key" : "_ZN7android8hardware4wifi10supplicant4V1_224BpHwSupplicantStaNetwork14setWepTxKeyIdxEjNSt3__18functionIFvRKNS2_4V1_016SupplicantStatusEEEE",
   "parameters" :
   [
    {
     "is_this_ptr" : true,
     "referenced_type" : "type-811"
    },
    {
     "referenced_type" : "type-2"
    },
    {
     "referenced_type" : "type-2200"
    }
   ],
   "return_type" : "type-799",
   "source_file" : "/out/soong/.intermediates/hardware/interfaces/wifi/supplicant/1.2/android.hardware.wifi.supplicant@1.2_genc++_headers/gen/android/hardware/wifi/supplicant/1.2/BpHwSupplicantStaNetwork.h"
  },
  {
   "function_name" : "android::hardware::wifi::supplicant::V1_2::BpHwSupplicantStaNetwork::getEapClientCert",
   "linker_set_key" : "_ZN7android8hardware4wifi10supplicant4V1_224BpHwSupplicantStaNetwork16getEapClientCertENSt3__18functionIFvRKNS2_4V1_016SupplicantStatusERKNS0_11hidl_stringEEEE",
   "parameters" :
   [
    {
     "is_this_ptr" : true,
     "referenced_type" : "type-811"
    },
    {
     "referenced_type" : "type-2201"
    }
   ],
   "return_type" : "type-799",
   "source_file" : "/out/soong/.intermediates/hardware/interfaces/wifi/supplicant/1.2/android.hardware.wifi.supplicant@1.2_genc++_headers/gen/android/hardware/wifi/supplicant/1.2/BpHwSupplicantStaNetwork.h"
  },
  {
   "function_name" : "android::hardware::wifi::supplicant::V1_2::BpHwSupplicantStaNetwork::getInterfaceName",
   "linker_set_key" : "_ZN7android8hardware4wifi10supplicant4V1_224BpHwSupplicantStaNetwork16getInterfaceNameENSt3__18functionIFvRKNS2_4V1_016SupplicantStatusERKNS0_11hidl_stringEEEE",
   "parameters" :
   [
    {
     "is_this_ptr" : true,
     "referenced_type" : "type-811"
    },
    {
     "referenced_type" : "type-2202"
    }
   ],
   "return_type" : "type-799",
   "source_file" : "/out/soong/.intermediates/hardware/interfaces/wifi/supplicant/1.2/android.hardware.wifi.supplicant@1.2_genc++_headers/gen/android/hardware/wifi/supplicant/1.2/BpHwSupplicantStaNetwork.h"
  },
  {
   "function_name" : "android::hardware::wifi::supplicant::V1_2::BpHwSupplicantStaNetwork::getPskPassphrase",
   "linker_set_key" : "_ZN7android8hardware4wifi10supplicant4V1_224BpHwSupplicantStaNetwork16getPskPassphraseENSt3__18functionIFvRKNS2_4V1_016SupplicantStatusERKNS0_11hidl_stringEEEE",
   "parameters" :
   [
    {
     "is_this_ptr" : true,
     "referenced_type" : "type-811"
    },
    {
     "referenced_type" : "type-2203"
    }
   ],
   "return_type" : "type-799",
   "source_file" : "/out/soong/.intermediates/hardware/interfaces/wifi/supplicant/1.2/android.hardware.wifi.supplicant@1.2_genc++_headers/gen/android/hardware/wifi/supplicant/1.2/BpHwSupplicantStaNetwork.h"
  },
  {
   "function_name" : "android::hardware::wifi::supplicant::V1_2::BpHwSupplicantStaNetwork::getSaePasswordId",
   "linker_set_key" : "_ZN7android8hardware4wifi10supplicant4V1_224BpHwSupplicantStaNetwork16getSaePasswordIdENSt3__18functionIFvRKNS2_4V1_016SupplicantStatusERKNS0_11hidl_stringEEEE",
   "parameters" :
   [
    {
     "is_this_ptr" : true,
     "referenced_type" : "type-811"
    },
    {
     "referenced_type" : "type-2204"
    }
   ],
   "return_type" : "type-799",
   "source_file" : "/out/soong/.intermediates/hardware/interfaces/wifi/supplicant/1.2/android.hardware.wifi.supplicant@1.2_genc++_headers/gen/android/hardware/wifi/supplicant/1.2/BpHwSupplicantStaNetwork.h"
  },
  {
   "function_name" : "android::hardware::wifi::supplicant::V1_2::BpHwSupplicantStaNetwork::registerCallback",
   "linker_set_key" : "_ZN7android8hardware4wifi10supplicant4V1_224BpHwSupplicantStaNetwork16registerCallbackERKNS_2spINS2_4V1_029ISupplicantStaNetworkCallbackEEENSt3__18functionIFvRKNS6_16SupplicantStatusEEEE",
   "parameters" :
   [
    {
     "is_this_ptr" : true,
     "referenced_type" : "type-811"
    },
    {
     "referenced_type" : "type-251"
    },
    {
     "referenced_type" : "type-2205"
    }
   ],
   "return_type" : "type-799",
   "source_file" : "/out/soong/.intermediates/hardware/interfaces/wifi/supplicant/1.2/android.hardware.wifi.supplicant@1.2_genc++_headers/gen/android/hardware/wifi/supplicant/1.2/BpHwSupplicantStaNetwork.h"
  },
  {
   "function_name" : "android::hardware::wifi::supplicant::V1_2::BpHwSupplicantStaNetwork::setEapClientCert",
   "linker_set_key" : "_ZN7android8hardware4wifi10supplicant4V1_224BpHwSupplicantStaNetwork16setEapClientCertERKNS0_11hidl_stringENSt3__18functionIFvRKNS2_4V1_016SupplicantStatusEEEE",
   "parameters" :
   [
    {
     "is_this_ptr" : true,
     "referenced_type" : "type-811"
    },
    {
     "referenced_type" : "type-1057"
    },
    {
     "referenced_type" : "type-2206"
    }
   ],
   "return_type" : "type-799",
   "source_file" : "/out/soong/.intermediates/hardware/interfaces/wifi/supplicant/1.2/android.hardware.wifi.supplicant@1.2_genc++_headers/gen/android/hardware/wifi/supplicant/1.2/BpHwSupplicantStaNetwork.h"
  },
  {
   "function_name" : "android::hardware::wifi::supplicant::V1_2::BpHwSupplicantStaNetwork::setPskPassphrase",
   "linker_set_key" : "_ZN7android8hardware4wifi10supplicant4V1_224BpHwSupplicantStaNetwork16setPskPassphraseERKNS0_11hidl_stringENSt3__18functionIFvRKNS2_4V1_016SupplicantStatusEEEE",
   "parameters" :
   [
    {
     "is_this_ptr" : true,
     "referenced_type" : "type-811"
    },
    {
     "referenced_type" : "type-1057"
    },
    {
     "referenced_type" : "type-2207"
    }
   ],
   "return_type" : "type-799",
   "source_file" : "/out/soong/.intermediates/hardware/interfaces/wifi/supplicant/1.2/android.hardware.wifi.supplicant@1.2_genc++_headers/gen/android/hardware/wifi/supplicant/1.2/BpHwSupplicantStaNetwork.h"
  },
  {
   "function_name" : "android::hardware::wifi::supplicant::V1_2::BpHwSupplicantStaNetwork::setSaePasswordId",
   "linker_set_key" : "_ZN7android8hardware4wifi10supplicant4V1_224BpHwSupplicantStaNetwork16setSaePasswordIdERKNS0_11hidl_stringENSt3__18functionIFvRKNS2_4V1_016SupplicantStatusEEEE",
   "parameters" :
   [
    {
     "is_this_ptr" : true,
     "referenced_type" : "type-811"
    },
    {
     "referenced_type" : "type-1057"
    },
    {
     "referenced_type" : "type-2208"
    }
   ],
   "return_type" : "type-799",
   "source_file" : "/out/soong/.intermediates/hardware/interfaces/wifi/supplicant/1.2/android.hardware.wifi.supplicant@1.2_genc++_headers/gen/android/hardware/wifi/supplicant/1.2/BpHwSupplicantStaNetwork.h"
  },
  {
   "function_name" : "android::hardware::wifi::supplicant::V1_2::BpHwSupplicantStaNetwork::getPairwiseCipher",
   "linker_set_key" : "_ZN7android8hardware4wifi10supplicant4V1_224BpHwSupplicantStaNetwork17getPairwiseCipherENSt3__18functionIFvRKNS2_4V1_016SupplicantStatusEjEEE",
   "parameters" :
   [
    {
     "is_this_ptr" : true,
     "referenced_type" : "type-811"
    },
    {
     "referenced_type" : "type-2209"
    }
   ],
   "return_type" : "type-799",
   "source_file" : "/out/soong/.intermediates/hardware/interfaces/wifi/supplicant/1.2/android.hardware.wifi.supplicant@1.2_genc++_headers/gen/android/hardware/wifi/supplicant/1.2/BpHwSupplicantStaNetwork.h"
  },
  {
   "function_name" : "android::hardware::wifi::supplicant::V1_2::BpHwSupplicantStaNetwork::setPairwiseCipher",
   "linker_set_key" : "_ZN7android8hardware4wifi10supplicant4V1_224BpHwSupplicantStaNetwork17setPairwiseCipherEjNSt3__18functionIFvRKNS2_4V1_016SupplicantStatusEEEE",
   "parameters" :
   [
    {
     "is_this_ptr" : true,
     "referenced_type" : "type-811"
    },
    {
     "referenced_type" : "type-2"
    },
    {
     "referenced_type" : "type-2210"
    }
   ],
   "return_type" : "type-799",
   "source_file" : "/out/soong/.intermediates/hardware/interfaces/wifi/supplicant/1.2/android.hardware.wifi.supplicant@1.2_genc++_headers/gen/android/hardware/wifi/supplicant/1.2/BpHwSupplicantStaNetwork.h"
  },
  {
   "function_name" : "android::hardware::wifi::supplicant::V1_2::BpHwSupplicantStaNetwork::getEapPhase2Method",
   "linker_set_key" : "_ZN7android8hardware4wifi10supplicant4V1_224BpHwSupplicantStaNetwork18getEapPhase2MethodENSt3__18functionIFvRKNS2_4V1_016SupplicantStatusENS7_21ISupplicantStaNetwork15EapPhase2MethodEEEE",
   "parameters" :
   [
    {
     "is_this_ptr" : true,
     "referenced_type" : "type-811"
    },
    {
     "referenced_type" : "type-2211"
    }
   ],
   "return_type" : "type-799",
   "source_file" : "/out/soong/.intermediates/hardware/interfaces/wifi/supplicant/1.2/android.hardware.wifi.supplicant@1.2_genc++_headers/gen/android/hardware/wifi/supplicant/1.2/BpHwSupplicantStaNetwork.h"
  },
  {
   "function_name" : "android::hardware::wifi::supplicant::V1_2::BpHwSupplicantStaNetwork::getEapPrivateKeyId",
   "linker_set_key" : "_ZN7android8hardware4wifi10supplicant4V1_224BpHwSupplicantStaNetwork18getEapPrivateKeyIdENSt3__18functionIFvRKNS2_4V1_016SupplicantStatusERKNS0_11hidl_stringEEEE",
   "parameters" :
   [
    {
     "is_this_ptr" : true,
     "referenced_type" : "type-811"
    },
    {
     "referenced_type" : "type-2212"
    }
   ],
   "return_type" : "type-799",
   "source_file" : "/out/soong/.intermediates/hardware/interfaces/wifi/supplicant/1.2/android.hardware.wifi.supplicant@1.2_genc++_headers/gen/android/hardware/wifi/supplicant/1.2/BpHwSupplicantStaNetwork.h"
  },
  {
   "function_name" : "android::hardware::wifi::supplicant::V1_2::BpHwSupplicantStaNetwork::getEapSubjectMatch",
   "linker_set_key" : "_ZN7android8hardware4wifi10supplicant4V1_224BpHwSupplicantStaNetwork18getEapSubjectMatchENSt3__18functionIFvRKNS2_4V1_016SupplicantStatusERKNS0_11hidl_stringEEEE",
   "parameters" :
   [
    {
     "is_this_ptr" : true,
     "referenced_type" : "type-811"
    },
    {
     "referenced_type" : "type-2213"
    }
   ],
   "return_type" : "type-799",
   "source_file" : "/out/soong/.intermediates/hardware/interfaces/wifi/supplicant/1.2/android.hardware.wifi.supplicant@1.2_genc++_headers/gen/android/hardware/wifi/supplicant/1.2/BpHwSupplicantStaNetwork.h"
  },
  {
   "function_name" : "android::hardware::wifi::supplicant::V1_2::BpHwSupplicantStaNetwork::getGroupCipher_1_2",
   "linker_set_key" : "_ZN7android8hardware4wifi10supplicant4V1_224BpHwSupplicantStaNetwork18getGroupCipher_1_2ENSt3__18functionIFvRKNS2_4V1_016SupplicantStatusEjEEE",
   "parameters" :
   [
    {
     "is_this_ptr" : true,
     "referenced_type" : "type-811"
    },
    {
     "referenced_type" : "type-2214"
    }
   ],
   "return_type" : "type-799",
   "source_file" : "/out/soong/.intermediates/hardware/interfaces/wifi/supplicant/1.2/android.hardware.wifi.supplicant@1.2_genc++_headers/gen/android/hardware/wifi/supplicant/1.2/BpHwSupplicantStaNetwork.h"
  },
  {
   "function_name" : "android::hardware::wifi::supplicant::V1_2::BpHwSupplicantStaNetwork::getGroupMgmtCipher",
   "linker_set_key" : "_ZN7android8hardware4wifi10supplicant4V1_224BpHwSupplicantStaNetwork18getGroupMgmtCipherENSt3__18functionIFvRKNS2_4V1_016SupplicantStatusEjEEE",
   "parameters" :
   [
    {
     "is_this_ptr" : true,
     "referenced_type" : "type-811"
    },
    {
     "referenced_type" : "type-2215"
    }
   ],
   "return_type" : "type-799",
   "source_file" : "/out/soong/.intermediates/hardware/interfaces/wifi/supplicant/1.2/android.hardware.wifi.supplicant@1.2_genc++_headers/gen/android/hardware/wifi/supplicant/1.2/BpHwSupplicantStaNetwork.h"
  },
  {
   "function_name" : "android::hardware::wifi::supplicant::V1_2::BpHwSupplicantStaNetwork::setEapPhase2Method",
   "linker_set_key" : "_ZN7android8hardware4wifi10supplicant4V1_224BpHwSupplicantStaNetwork18setEapPhase2MethodENS2_4V1_021ISupplicantStaNetwork15EapPhase2MethodENSt3__18functionIFvRKNS5_16SupplicantStatusEEEE",
   "parameters" :
   [
    {
     "is_this_ptr" : true,
     "referenced_type" : "type-811"
    },
    {
     "referenced_type" : "type-525"
    },
    {
     "referenced_type" : "type-2216"
    }
   ],
   "return_type" : "type-799",
   "source_file" : "/out/soong/.intermediates/hardware/interfaces/wifi/supplicant/1.2/android.hardware.wifi.supplicant@1.2_genc++_headers/gen/android/hardware/wifi/supplicant/1.2/BpHwSupplicantStaNetwork.h"
  },
  {
   "function_name" : "android::hardware::wifi::supplicant::V1_2::BpHwSupplicantStaNetwork::setEapPrivateKeyId",
   "linker_set_key" : "_ZN7android8hardware4wifi10supplicant4V1_224BpHwSupplicantStaNetwork18setEapPrivateKeyIdERKNS0_11hidl_stringENSt3__18functionIFvRKNS2_4V1_016SupplicantStatusEEEE",
   "parameters" :
   [
    {
     "is_this_ptr" : true,
     "referenced_type" : "type-811"
    },
    {
     "referenced_type" : "type-1057"
    },
    {
     "referenced_type" : "type-2217"
    }
   ],
   "return_type" : "type-799",
   "source_file" : "/out/soong/.intermediates/hardware/interfaces/wifi/supplicant/1.2/android.hardware.wifi.supplicant@1.2_genc++_headers/gen/android/hardware/wifi/supplicant/1.2/BpHwSupplicantStaNetwork.h"
  },
  {
   "function_name" : "android::hardware::wifi::supplicant::V1_2::BpHwSupplicantStaNetwork::setEapSubjectMatch",
   "linker_set_key" : "_ZN7android8hardware4wifi10supplicant4V1_224BpHwSupplicantStaNetwork18setEapSubjectMatchERKNS0_11hidl_stringENSt3__18functionIFvRKNS2_4V1_016SupplicantStatusEEEE",
   "parameters" :
   [
    {
     "is_this_ptr" : true,
     "referenced_type" : "type-811"
    },
    {
     "referenced_type" : "type-1057"
    },
    {
     "referenced_type" : "type-2218"
    }
   ],
   "return_type" : "type-799",
   "source_file" : "/out/soong/.intermediates/hardware/interfaces/wifi/supplicant/1.2/android.hardware.wifi.supplicant@1.2_genc++_headers/gen/android/hardware/wifi/supplicant/1.2/BpHwSupplicantStaNetwork.h"
  },
  {
   "function_name" : "android::hardware::wifi::supplicant::V1_2::BpHwSupplicantStaNetwork::setGroupCipher_1_2",
   "linker_set_key" : "_ZN7android8hardware4wifi10supplicant4V1_224BpHwSupplicantStaNetwork18setGroupCipher_1_2EjNSt3__18functionIFvRKNS2_4V1_016SupplicantStatusEEEE",
   "parameters" :
   [
    {
     "is_this_ptr" : true,
     "referenced_type" : "type-811"
    },
    {
     "referenced_type" : "type-2"
    },
    {
     "referenced_type" : "type-2219"
    }
   ],
   "return_type" : "type-799",
   "source_file" : "/out/soong/.intermediates/hardware/interfaces/wifi/supplicant/1.2/android.hardware.wifi.supplicant@1.2_genc++_headers/gen/android/hardware/wifi/supplicant/1.2/BpHwSupplicantStaNetwork.h"
  },
  {
   "function_name" : "android::hardware::wifi::supplicant::V1_2::BpHwSupplicantStaNetwork::setGroupMgmtCipher",
   "linker_set_key" : "_ZN7android8hardware4wifi10supplicant4V1_224BpHwSupplicantStaNetwork18setGroupMgmtCipherEjNSt3__18functionIFvRKNS2_4V1_016SupplicantStatusEEEE",
   "parameters" :
   [
    {
     "is_this_ptr" : true,
     "referenced_type" : "type-811"
    },
    {
     "referenced_type" : "type-2"
    },
    {
     "referenced_type" : "type-2220"
    }
   ],
   "return_type" : "type-799",
   "source_file" : "/out/soong/.intermediates/hardware/interfaces/wifi/supplicant/1.2/android.hardware.wifi.supplicant@1.2_genc++_headers/gen/android/hardware/wifi/supplicant/1.2/BpHwSupplicantStaNetwork.h"
  },
  {
   "function_name" : "android::hardware::wifi::supplicant::V1_2::BpHwSupplicantStaNetwork::interfaceDescriptor",
   "linker_set_key" : "_ZN7android8hardware4wifi10supplicant4V1_224BpHwSupplicantStaNetwork19interfaceDescriptorENSt3__18functionIFvRKNS0_11hidl_stringEEEE",
   "parameters" :
   [
    {
     "is_this_ptr" : true,
     "referenced_type" : "type-811"
    },
    {
     "referenced_type" : "type-2221"
    }
   ],
   "return_type" : "type-799",
   "source_file" : "/out/soong/.intermediates/hardware/interfaces/wifi/supplicant/1.2/android.hardware.wifi.supplicant@1.2_genc++_headers/gen/android/hardware/wifi/supplicant/1.2/BpHwSupplicantStaNetwork.h"
  },
  {
   "function_name" : "android::hardware::wifi::supplicant::V1_2::BpHwSupplicantStaNetwork::setUpdateIdentifier",
   "linker_set_key" : "_ZN7android8hardware4wifi10supplicant4V1_224BpHwSupplicantStaNetwork19setUpdateIdentifierEjNSt3__18functionIFvRKNS2_4V1_016SupplicantStatusEEEE",
   "parameters" :
   [
    {
     "is_this_ptr" : true,
     "referenced_type" : "type-811"
    },
    {
     "referenced_type" : "type-2"
    },
    {
     "referenced_type" : "type-2222"
    }
   ],
   "return_type" : "type-799",
   "source_file" : "/out/soong/.intermediates/hardware/interfaces/wifi/supplicant/1.2/android.hardware.wifi.supplicant@1.2_genc++_headers/gen/android/hardware/wifi/supplicant/1.2/BpHwSupplicantStaNetwork.h"
  },
  {
   "function_name" : "android::hardware::wifi::supplicant::V1_2::BpHwSupplicantStaNetwork::_hidl_getKeyMgmt_1_2",
   "linker_set_key" : "_ZN7android8hardware4wifi10supplicant4V1_224BpHwSupplicantStaNetwork20_hidl_getKeyMgmt_1_2EPNS0_10IInterfaceEPNS0_7details16HidlInstrumentorENSt3__18functionIFvRKNS2_4V1_016SupplicantStatusEjEEE",
   "parameters" :
   [
    {
     "referenced_type" : "type-1708"
    },
    {
     "referenced_type" : "type-1686"
    },
    {
     "referenced_type" : "type-2223"
    }
   ],
   "return_type" : "type-799",
   "source_file" : "/out/soong/.intermediates/hardware/interfaces/wifi/supplicant/1.2/android.hardware.wifi.supplicant@1.2_genc++_headers/gen/android/hardware/wifi/supplicant/1.2/BpHwSupplicantStaNetwork.h"
  },
  {
   "function_name" : "android::hardware::wifi::supplicant::V1_2::BpHwSupplicantStaNetwork::_hidl_getSaePassword",
   "linker_set_key" : "_ZN7android8hardware4wifi10supplicant4V1_224BpHwSupplicantStaNetwork20_hidl_getSaePasswordEPNS0_10IInterfaceEPNS0_7details16HidlInstrumentorENSt3__18functionIFvRKNS2_4V1_016SupplicantStatusERKNS0_11hidl_stringEEEE",
   "parameters" :
   [
    {
     "referenced_type" : "type-1708"
    },
    {
     "referenced_type" : "type-1686"
    },
    {
     "referenced_type" : "type-2224"
    }
   ],
   "return_type" : "type-799",
   "source_file" : "/out/soong/.intermediates/hardware/interfaces/wifi/supplicant/1.2/android.hardware.wifi.supplicant@1.2_genc++_headers/gen/android/hardware/wifi/supplicant/1.2/BpHwSupplicantStaNetwork.h"
  },
  {
   "function_name" : "android::hardware::wifi::supplicant::V1_2::BpHwSupplicantStaNetwork::_hidl_setKeyMgmt_1_2",
   "linker_set_key" : "_ZN7android8hardware4wifi10supplicant4V1_224BpHwSupplicantStaNetwork20_hidl_setKeyMgmt_1_2EPNS0_10IInterfaceEPNS0_7details16HidlInstrumentorEjNSt3__18functionIFvRKNS2_4V1_016SupplicantStatusEEEE",
   "parameters" :
   [
    {
     "referenced_type" : "type-1708"
    },
    {
     "referenced_type" : "type-1686"
    },
    {
     "referenced_type" : "type-2"
    },
    {
     "referenced_type" : "type-2225"
    }
   ],
   "return_type" : "type-799",
   "source_file" : "/out/soong/.intermediates/hardware/interfaces/wifi/supplicant/1.2/android.hardware.wifi.supplicant@1.2_genc++_headers/gen/android/hardware/wifi/supplicant/1.2/BpHwSupplicantStaNetwork.h"
  },
  {
   "function_name" : "android::hardware::wifi::supplicant::V1_2::BpHwSupplicantStaNetwork::_hidl_setSaePassword",
   "linker_set_key" : "_ZN7android8hardware4wifi10supplicant4V1_224BpHwSupplicantStaNetwork20_hidl_setSaePasswordEPNS0_10IInterfaceEPNS0_7details16HidlInstrumentorERKNS0_11hidl_stringENSt3__18functionIFvRKNS2_4V1_016SupplicantStatusEEEE",
   "parameters" :
   [
    {
     "referenced_type" : "type-1708"
    },
    {
     "referenced_type" : "type-1686"
    },
    {
     "referenced_type" : "type-1057"
    },
    {
     "referenced_type" : "type-2226"
    }
   ],
   "return_type" : "type-799",
   "source_file" : "/out/soong/.intermediates/hardware/interfaces/wifi/supplicant/1.2/android.hardware.wifi.supplicant@1.2_genc++_headers/gen/android/hardware/wifi/supplicant/1.2/BpHwSupplicantStaNetwork.h"
  },
  {
   "function_name" : "android::hardware::wifi::supplicant::V1_2::BpHwSupplicantStaNetwork::getEapAltSubjectMatch",
   "linker_set_key" : "_ZN7android8hardware4wifi10supplicant4V1_224BpHwSupplicantStaNetwork21getEapAltSubjectMatchENSt3__18functionIFvRKNS2_4V1_016SupplicantStatusERKNS0_11hidl_stringEEEE",
   "parameters" :
   [
    {
     "is_this_ptr" : true,
     "referenced_type" : "type-811"
    },
    {
     "referenced_type" : "type-2227"
    }
   ],
   "return_type" : "type-799",
   "source_file" : "/out/soong/.intermediates/hardware/interfaces/wifi/supplicant/1.2/android.hardware.wifi.supplicant@1.2_genc++_headers/gen/android/hardware/wifi/supplicant/1.2/BpHwSupplicantStaNetwork.h"
  },
  {
   "function_name" : "android::hardware::wifi::supplicant::V1_2::BpHwSupplicantStaNetwork::getPairwiseCipher_1_2",
   "linker_set_key" : "_ZN7android8hardware4wifi10supplicant4V1_224BpHwSupplicantStaNetwork21getPairwiseCipher_1_2ENSt3__18functionIFvRKNS2_4V1_016SupplicantStatusEjEEE",
   "parameters" :
   [
    {
     "is_this_ptr" : true,
     "referenced_type" : "type-811"
    },
    {
     "referenced_type" : "type-2228"
    }
   ],
   "return_type" : "type-799",
   "source_file" : "/out/soong/.intermediates/hardware/interfaces/wifi/supplicant/1.2/android.hardware.wifi.supplicant@1.2_genc++_headers/gen/android/hardware/wifi/supplicant/1.2/BpHwSupplicantStaNetwork.h"
  },
  {
   "function_name" : "android::hardware::wifi::supplicant::V1_2::BpHwSupplicantStaNetwork::notifySyspropsChanged",
   "linker_set_key" : "_ZN7android8hardware4wifi10supplicant4V1_224BpHwSupplicantStaNetwork21notifySyspropsChangedEv",
   "parameters" :
   [
    {
     "is_this_ptr" : true,
     "referenced_type" : "type-811"
    }
   ],
   "return_type" : "type-799",
   "source_file" : "/out/soong/.intermediates/hardware/interfaces/wifi/supplicant/1.2/android.hardware.wifi.supplicant@1.2_genc++_headers/gen/android/hardware/wifi/supplicant/1.2/BpHwSupplicantStaNetwork.h"
  },
  {
   "function_name" : "android::hardware::wifi::supplicant::V1_2::BpHwSupplicantStaNetwork::setEapAltSubjectMatch",
   "linker_set_key" : "_ZN7android8hardware4wifi10supplicant4V1_224BpHwSupplicantStaNetwork21setEapAltSubjectMatchERKNS0_11hidl_stringENSt3__18functionIFvRKNS2_4V1_016SupplicantStatusEEEE",
   "parameters" :
   [
    {
     "is_this_ptr" : true,
     "referenced_type" : "type-811"
    },
    {
     "referenced_type" : "type-1057"
    },
    {
     "referenced_type" : "type-2229"
    }
   ],
   "return_type" : "type-799",
   "source_file" : "/out/soong/.intermediates/hardware/interfaces/wifi/supplicant/1.2/android.hardware.wifi.supplicant@1.2_genc++_headers/gen/android/hardware/wifi/supplicant/1.2/BpHwSupplicantStaNetwork.h"
  },
  {
   "function_name" : "android::hardware::wifi::supplicant::V1_2::BpHwSupplicantStaNetwork::setHALInstrumentation",
   "linker_set_key" : "_ZN7android8hardware4wifi10supplicant4V1_224BpHwSupplicantStaNetwork21setHALInstrumentationEv",
   "parameters" :
   [
    {
     "is_this_ptr" : true,
     "referenced_type" : "type-811"
    }
   ],
   "return_type" : "type-799",
   "source_file" : "/out/soong/.intermediates/hardware/interfaces/wifi/supplicant/1.2/android.hardware.wifi.supplicant@1.2_genc++_headers/gen/android/hardware/wifi/supplicant/1.2/BpHwSupplicantStaNetwork.h"
  },
  {
   "function_name" : "android::hardware::wifi::supplicant::V1_2::BpHwSupplicantStaNetwork::setPairwiseCipher_1_2",
   "linker_set_key" : "_ZN7android8hardware4wifi10supplicant4V1_224BpHwSupplicantStaNetwork21setPairwiseCipher_1_2EjNSt3__18functionIFvRKNS2_4V1_016SupplicantStatusEEEE",
   "parameters" :
   [
    {
     "is_this_ptr" : true,
     "referenced_type" : "type-811"
    },
    {
     "referenced_type" : "type-2"
    },
    {
     "referenced_type" : "type-2230"
    }
   ],
   "return_type" : "type-799",
   "source_file" : "/out/soong/.intermediates/hardware/interfaces/wifi/supplicant/1.2/android.hardware.wifi.supplicant@1.2_genc++_headers/gen/android/hardware/wifi/supplicant/1.2/BpHwSupplicantStaNetwork.h"
  },
  {
   "function_name" : "android::hardware::wifi::supplicant::V1_2::BpHwSupplicantStaNetwork::_hidl_getSaePasswordId",
   "linker_set_key" : "_ZN7android8hardware4wifi10supplicant4V1_224BpHwSupplicantStaNetwork22_hidl_getSaePasswordIdEPNS0_10IInterfaceEPNS0_7details16HidlInstrumentorENSt3__18functionIFvRKNS2_4V1_016SupplicantStatusERKNS0_11hidl_stringEEEE",
   "parameters" :
   [
    {
     "referenced_type" : "type-1708"
    },
    {
     "referenced_type" : "type-1686"
    },
    {
     "referenced_type" : "type-2231"
    }
   ],
   "return_type" : "type-799",
   "source_file" : "/out/soong/.intermediates/hardware/interfaces/wifi/supplicant/1.2/android.hardware.wifi.supplicant@1.2_genc++_headers/gen/android/hardware/wifi/supplicant/1.2/BpHwSupplicantStaNetwork.h"
  },
  {
   "function_name" : "android::hardware::wifi::supplicant::V1_2::BpHwSupplicantStaNetwork::_hidl_setSaePasswordId",
   "linker_set_key" : "_ZN7android8hardware4wifi10supplicant4V1_224BpHwSupplicantStaNetwork22_hidl_setSaePasswordIdEPNS0_10IInterfaceEPNS0_7details16HidlInstrumentorERKNS0_11hidl_stringENSt3__18functionIFvRKNS2_4V1_016SupplicantStatusEEEE",
   "parameters" :
   [
    {
     "referenced_type" : "type-1708"
    },
    {
     "referenced_type" : "type-1686"
    },
    {
     "referenced_type" : "type-1057"
    },
    {
     "referenced_type" : "type-2232"
    }
   ],
   "return_type" : "type-799",
   "source_file" : "/out/soong/.intermediates/hardware/interfaces/wifi/supplicant/1.2/android.hardware.wifi.supplicant@1.2_genc++_headers/gen/android/hardware/wifi/supplicant/1.2/BpHwSupplicantStaNetwork.h"
  },
  {
   "function_name" : "android::hardware::wifi::supplicant::V1_2::BpHwSupplicantStaNetwork::setProactiveKeyCaching",
   "linker_set_key" : "_ZN7android8hardware4wifi10supplicant4V1_224BpHwSupplicantStaNetwork22setProactiveKeyCachingEbNSt3__18functionIFvRKNS2_4V1_016SupplicantStatusEEEE",
   "parameters" :
   [
    {
     "is_this_ptr" : true,
     "referenced_type" : "type-811"
    },
    {
     "referenced_type" : "type-65"
    },
    {
     "referenced_type" : "type-2233"
    }
   ],
   "return_type" : "type-799",
   "source_file" : "/out/soong/.intermediates/hardware/interfaces/wifi/supplicant/1.2/android.hardware.wifi.supplicant@1.2_genc++_headers/gen/android/hardware/wifi/supplicant/1.2/BpHwSupplicantStaNetwork.h"
  },
  {
   "function_name" : "android::hardware::wifi::supplicant::V1_2::BpHwSupplicantStaNetwork::getEapAnonymousIdentity",
   "linker_set_key" : "_ZN7android8hardware4wifi10supplicant4V1_224BpHwSupplicantStaNetwork23getEapAnonymousIdentityENSt3__18functionIFvRKNS2_4V1_016SupplicantStatusERKNS0_8hidl_vecIhEEEEE",
   "parameters" :
   [
    {
     "is_this_ptr" : true,
     "referenced_type" : "type-811"
    },
    {
     "referenced_type" : "type-2234"
    }
   ],
   "return_type" : "type-799",
   "source_file" : "/out/soong/.intermediates/hardware/interfaces/wifi/supplicant/1.2/android.hardware.wifi.supplicant@1.2_genc++_headers/gen/android/hardware/wifi/supplicant/1.2/BpHwSupplicantStaNetwork.h"
  },
  {
   "function_name" : "android::hardware::wifi::supplicant::V1_2::BpHwSupplicantStaNetwork::getEapDomainSuffixMatch",
   "linker_set_key" : "_ZN7android8hardware4wifi10supplicant4V1_224BpHwSupplicantStaNetwork23getEapDomainSuffixMatchENSt3__18functionIFvRKNS2_4V1_016SupplicantStatusERKNS0_11hidl_stringEEEE",
   "parameters" :
   [
    {
     "is_this_ptr" : true,
     "referenced_type" : "type-811"
    },
    {
     "referenced_type" : "type-2235"
    }
   ],
   "return_type" : "type-799",
   "source_file" : "/out/soong/.intermediates/hardware/interfaces/wifi/supplicant/1.2/android.hardware.wifi.supplicant@1.2_genc++_headers/gen/android/hardware/wifi/supplicant/1.2/BpHwSupplicantStaNetwork.h"
  },
  {
   "function_name" : "android::hardware::wifi::supplicant::V1_2::BpHwSupplicantStaNetwork::setEapAnonymousIdentity",
   "linker_set_key" : "_ZN7android8hardware4wifi10supplicant4V1_224BpHwSupplicantStaNetwork23setEapAnonymousIdentityERKNS0_8hidl_vecIhEENSt3__18functionIFvRKNS2_4V1_016SupplicantStatusEEEE",
   "parameters" :
   [
    {
     "is_this_ptr" : true,
     "referenced_type" : "type-811"
    },
    {
     "referenced_type" : "type-1761"
    },
    {
     "referenced_type" : "type-2236"
    }
   ],
   "return_type" : "type-799",
   "source_file" : "/out/soong/.intermediates/hardware/interfaces/wifi/supplicant/1.2/android.hardware.wifi.supplicant@1.2_genc++_headers/gen/android/hardware/wifi/supplicant/1.2/BpHwSupplicantStaNetwork.h"
  },
  {
   "function_name" : "android::hardware::wifi::supplicant::V1_2::BpHwSupplicantStaNetwork::setEapDomainSuffixMatch",
   "linker_set_key" : "_ZN7android8hardware4wifi10supplicant4V1_224BpHwSupplicantStaNetwork23setEapDomainSuffixMatchERKNS0_11hidl_stringENSt3__18functionIFvRKNS2_4V1_016SupplicantStatusEEEE",
   "parameters" :
   [
    {
     "is_this_ptr" : true,
     "referenced_type" : "type-811"
    },
    {
     "referenced_type" : "type-1057"
    },
    {
     "referenced_type" : "type-2237"
    }
   ],
   "return_type" : "type-799",
   "source_file" : "/out/soong/.intermediates/hardware/interfaces/wifi/supplicant/1.2/android.hardware.wifi.supplicant@1.2_genc++_headers/gen/android/hardware/wifi/supplicant/1.2/BpHwSupplicantStaNetwork.h"
  },
  {
   "function_name" : "android::hardware::wifi::supplicant::V1_2::BpHwSupplicantStaNetwork::_hidl_getGroupCipher_1_2",
   "linker_set_key" : "_ZN7android8hardware4wifi10supplicant4V1_224BpHwSupplicantStaNetwork24_hidl_getGroupCipher_1_2EPNS0_10IInterfaceEPNS0_7details16HidlInstrumentorENSt3__18functionIFvRKNS2_4V1_016SupplicantStatusEjEEE",
   "parameters" :
   [
    {
     "referenced_type" : "type-1708"
    },
    {
     "referenced_type" : "type-1686"
    },
    {
     "referenced_type" : "type-2238"
    }
   ],
   "return_type" : "type-799",
   "source_file" : "/out/soong/.intermediates/hardware/interfaces/wifi/supplicant/1.2/android.hardware.wifi.supplicant@1.2_genc++_headers/gen/android/hardware/wifi/supplicant/1.2/BpHwSupplicantStaNetwork.h"
  },
  {
   "function_name" : "android::hardware::wifi::supplicant::V1_2::BpHwSupplicantStaNetwork::_hidl_getGroupMgmtCipher",
   "linker_set_key" : "_ZN7android8hardware4wifi10supplicant4V1_224BpHwSupplicantStaNetwork24_hidl_getGroupMgmtCipherEPNS0_10IInterfaceEPNS0_7details16HidlInstrumentorENSt3__18functionIFvRKNS2_4V1_016SupplicantStatusEjEEE",
   "parameters" :
   [
    {
     "referenced_type" : "type-1708"
    },
    {
     "referenced_type" : "type-1686"
    },
    {
     "referenced_type" : "type-2239"
    }
   ],
   "return_type" : "type-799",
   "source_file" : "/out/soong/.intermediates/hardware/interfaces/wifi/supplicant/1.2/android.hardware.wifi.supplicant@1.2_genc++_headers/gen/android/hardware/wifi/supplicant/1.2/BpHwSupplicantStaNetwork.h"
  },
  {
   "function_name" : "android::hardware::wifi::supplicant::V1_2::BpHwSupplicantStaNetwork::_hidl_setGroupCipher_1_2",
   "linker_set_key" : "_ZN7android8hardware4wifi10supplicant4V1_224BpHwSupplicantStaNetwork24_hidl_setGroupCipher_1_2EPNS0_10IInterfaceEPNS0_7details16HidlInstrumentorEjNSt3__18functionIFvRKNS2_4V1_016SupplicantStatusEEEE",
   "parameters" :
   [
    {
     "referenced_type" : "type-1708"
    },
    {
     "referenced_type" : "type-1686"
    },
    {
     "referenced_type" : "type-2"
    },
    {
     "referenced_type" : "type-2240"
    }
   ],
   "return_type" : "type-799",
   "source_file" : "/out/soong/.intermediates/hardware/interfaces/wifi/supplicant/1.2/android.hardware.wifi.supplicant@1.2_genc++_headers/gen/android/hardware/wifi/supplicant/1.2/BpHwSupplicantStaNetwork.h"
  },
  {
   "function_name" : "android::hardware::wifi::supplicant::V1_2::BpHwSupplicantStaNetwork::_hidl_setGroupMgmtCipher",
   "linker_set_key" : "_ZN7android8hardware4wifi10supplicant4V1_224BpHwSupplicantStaNetwork24_hidl_setGroupMgmtCipherEPNS0_10IInterfaceEPNS0_7details16HidlInstrumentorEjNSt3__18functionIFvRKNS2_4V1_016SupplicantStatusEEEE",
   "parameters" :
   [
    {
     "referenced_type" : "type-1708"
    },
    {
     "referenced_type" : "type-1686"
    },
    {
     "referenced_type" : "type-2"
    },
    {
     "referenced_type" : "type-2241"
    }
   ],
   "return_type" : "type-799",
   "source_file" : "/out/soong/.intermediates/hardware/interfaces/wifi/supplicant/1.2/android.hardware.wifi.supplicant@1.2_genc++_headers/gen/android/hardware/wifi/supplicant/1.2/BpHwSupplicantStaNetwork.h"
  },
  {
   "function_name" : "android::hardware::wifi::supplicant::V1_2::BpHwSupplicantStaNetwork::_hidl_getPairwiseCipher_1_2",
   "linker_set_key" : "_ZN7android8hardware4wifi10supplicant4V1_224BpHwSupplicantStaNetwork27_hidl_getPairwiseCipher_1_2EPNS0_10IInterfaceEPNS0_7details16HidlInstrumentorENSt3__18functionIFvRKNS2_4V1_016SupplicantStatusEjEEE",
   "parameters" :
   [
    {
     "referenced_type" : "type-1708"
    },
    {
     "referenced_type" : "type-1686"
    },
    {
     "referenced_type" : "type-2242"
    }
   ],
   "return_type" : "type-799",
   "source_file" : "/out/soong/.intermediates/hardware/interfaces/wifi/supplicant/1.2/android.hardware.wifi.supplicant@1.2_genc++_headers/gen/android/hardware/wifi/supplicant/1.2/BpHwSupplicantStaNetwork.h"
  },
  {
   "function_name" : "android::hardware::wifi::supplicant::V1_2::BpHwSupplicantStaNetwork::_hidl_setPairwiseCipher_1_2",
   "linker_set_key" : "_ZN7android8hardware4wifi10supplicant4V1_224BpHwSupplicantStaNetwork27_hidl_setPairwiseCipher_1_2EPNS0_10IInterfaceEPNS0_7details16HidlInstrumentorEjNSt3__18functionIFvRKNS2_4V1_016SupplicantStatusEEEE",
   "parameters" :
   [
    {
     "referenced_type" : "type-1708"
    },
    {
     "referenced_type" : "type-1686"
    },
    {
     "referenced_type" : "type-2"
    },
    {
     "referenced_type" : "type-2243"
    }
   ],
   "return_type" : "type-799",
   "source_file" : "/out/soong/.intermediates/hardware/interfaces/wifi/supplicant/1.2/android.hardware.wifi.supplicant@1.2_genc++_headers/gen/android/hardware/wifi/supplicant/1.2/BpHwSupplicantStaNetwork.h"
  },
  {
   "function_name" : "android::hardware::wifi::supplicant::V1_2::BpHwSupplicantStaNetwork::getWpsNfcConfigurationToken",
   "linker_set_key" : "_ZN7android8hardware4wifi10supplicant4V1_224BpHwSupplicantStaNetwork27getWpsNfcConfigurationTokenENSt3__18functionIFvRKNS2_4V1_016SupplicantStatusERKNS0_8hidl_vecIhEEEEE",
   "parameters" :
   [
    {
     "is_this_ptr" : true,
     "referenced_type" : "type-811"
    },
    {
     "referenced_type" : "type-2244"
    }
   ],
   "return_type" : "type-799",
   "source_file" : "/out/soong/.intermediates/hardware/interfaces/wifi/supplicant/1.2/android.hardware.wifi.supplicant@1.2_genc++_headers/gen/android/hardware/wifi/supplicant/1.2/BpHwSupplicantStaNetwork.h"
  },
  {
   "function_name" : "android::hardware::wifi::supplicant::V1_2::BpHwSupplicantStaNetwork::setEapEncryptedImsiIdentity",
   "linker_set_key" : "_ZN7android8hardware4wifi10supplicant4V1_224BpHwSupplicantStaNetwork27setEapEncryptedImsiIdentityERKNS0_8hidl_vecIhEENSt3__18functionIFvRKNS2_4V1_016SupplicantStatusEEEE",
   "parameters" :
   [
    {
     "is_this_ptr" : true,
     "referenced_type" : "type-811"
    },
    {
     "referenced_type" : "type-1761"
    },
    {
     "referenced_type" : "type-2245"
    }
   ],
   "return_type" : "type-799",
   "source_file" : "/out/soong/.intermediates/hardware/interfaces/wifi/supplicant/1.2/android.hardware.wifi.supplicant@1.2_genc++_headers/gen/android/hardware/wifi/supplicant/1.2/BpHwSupplicantStaNetwork.h"
  },
  {
   "function_name" : "android::hardware::wifi::supplicant::V1_2::BpHwSupplicantStaNetwork::enableSuiteBEapOpenSslCiphers",
   "linker_set_key" : "_ZN7android8hardware4wifi10supplicant4V1_224BpHwSupplicantStaNetwork29enableSuiteBEapOpenSslCiphersENSt3__18functionIFvRKNS2_4V1_016SupplicantStatusEEEE",
   "parameters" :
   [
    {
     "is_this_ptr" : true,
     "referenced_type" : "type-811"
    },
    {
     "referenced_type" : "type-2246"
    }
